(iclub
compo
p0
(dp1
S'caracs_old'
p2
(dp3
S'A'
p4
F154.0
sS'ME'
p5
F91.5
sS'E'
p6
I179
sS'OplusAV'
p7
F73.0
sS'TO_off'
p8
F115.5
sS'OplusAR'
p9
F73.0
sS'M'
p10
F46.5
sS'JP'
p11
F90.5
sS'OmoinsAR'
p12
F50.5
sS'PA'
p13
F116.5
sS'TO_def'
p14
F107.0
sS'OmoinsAV'
p15
F85.0
sS'R'
p16
F146.5
ssS'totaux_old'
p17
(dp18
S'T2'
p19
F180.5
sS'T3'
p20
F89.5
sS'T1'
p21
F174.625
ssS'roles'
p22
(dp23
S'drop1'
p24
(ijoueur
joueur
p25
(dp26
S'EV_saison_11'
p27
F8.533333333333333
sS'rouges_total'
p28
I0
sS'drops_total'
p29
I1
sS'blessure'
p30
I0
sS'RG_max'
p31
ccopy_reg
_reconstructor
p32
(cjoueur
rang_new
p33
c__builtin__
object
p34
Ntp35
Rp36
(dp37
S'type_nb'
p38
I4
sS'rang'
p39
S'*'
p40
sS'type'
p41
S'heros'
p42
sbsS'MJ2_total'
p43
(dp44
S'SR'
p45
I0
sS'ST'
p46
I0
sS'CR'
p47
I4
sS'CT'
p48
I1
ssS'MJ3_total'
p49
(dp50
g45
I0
sg46
I0
sg47
I0
sg48
I0
ssS'drop_rates_total'
p51
I0
sS'EV'
p52
F9.633333333333333
sS'drop_rates_saison'
p53
I1
sS'transformations'
p54
I0
sS'penalites'
p55
I0
sS'essais_saison'
p56
I0
sS'penalite_ratees_saison'
p57
I0
sS'transformations_saison'
p58
I0
sS'postes'
p59
(S'dummy'
p60
S'C1'
p61
S'DO'
p62
S''
p63
tp64
sS'veut_partir'
p65
I00
sS'RG'
p66
g36
sS'MJ1'
p67
(dp68
S'SR'
p69
I0
sS'CT'
p70
I10
sS'CR'
p71
I0
sS'ST'
p72
I0
ssS'MS_probleme'
p73
I01
sS'MJ3'
p74
(dp75
g69
I0
sg70
I0
sg71
I0
sg72
I0
ssS'MJ1_total'
p76
(dp77
g45
I0
sg46
I0
sg47
I1
sg48
I11
ssS'penalites_total'
p78
I0
sS'penalites_saison'
p79
I0
sS'nom'
p80
S'Engellart'
p81
sS'C'
p82
I10
sS'transformations_total'
p83
I0
sS'D'
p84
I20
sS'VAL'
p85
I61
sS'club'
p86
S'PRG'
p87
sS'caracs'
p88
(dp89
S'A'
p90
I10
sS'ME'
p91
I5
sS'RP2'
p92
I9
sS'E'
p93
I12
sS'P'
p94
I10
sS'RP1'
p95
I8
sS'JP'
p96
I8
sS'RP_tot'
p97
I10
sS'TO'
p98
I7
sS'PA'
p99
I10
sS'M'
p100
I9
sS'R'
p101
I6
sS'TB'
p102
I8
sS'PL'
p103
I7
sS'TA'
p104
I6
ssS'fatigue'
p105
I10
sS'drop_ratees_total'
p106
I1
sS'blessures_total'
p107
I0
sS'XP'
p108
I0
sS'MJ2'
p109
(dp110
g69
I0
sg70
I0
sg71
I0
sg72
I0
ssS'penalite_ratees_total'
p111
I0
sS'drops'
p112
I0
sS'blessures_saison'
p113
I0
sS'jaunes_total'
p114
I1
sS'caracs_saison_11'
p115
(dp116
S'A'
p117
I9
sS'ME'
p118
I4
sS'RP2'
p119
I7
sS'E'
p120
I10
sS'P'
p121
I9
sS'RP1'
p122
I6
sS'JP'
p123
I10
sS'RP_tot'
p124
I7
sS'TO'
p125
I5
sS'PA'
p126
I8
sS'M'
p127
I9
sS'R'
p128
I6
sS'TB'
p129
I7
sS'PL'
p130
I8
sS'TA'
p131
I5
ssS'caracs_sans_fatigue'
p132
(dp133
g90
I11
sg91
I5
sg92
I9
sg93
I12
sg98
I7
sg95
I8
sg96
I8
sg97
I10
sg94
I10
sg99
I10
sg100
I9
sg101
I7
sg102
I8
sg103
I8
sg104
I6
ssS'rouges_saison'
p134
I0
sS'anciens_clubs'
p135
g63
sS'transformation_ratees_total'
p136
I0
sS'drops_saison'
p137
I1
sS'transformation_ratees_saison'
p138
I0
sS'MS'
p139
I5
sS'essais_total'
p140
I0
sS'jaunes_saison'
p141
I1
sS'ARM'
p142
S'EMP'
p143
sbsS'SA_scd'
p144
(ijoueur
joueur
p145
(dp146
g27
F9.0
sg28
I1
sg29
I0
sg30
I0
sg31
g32
(g33
g34
Ntp147
Rp148
(dp149
g38
I2
sg39
S'^^'
p150
sg41
S'special'
p151
sbsg43
(dp152
g45
I0
sg46
I0
sg47
I2
sg48
I10
ssg49
(dp153
g45
I0
sg46
I0
sg47
I0
sg48
I0
ssg51
I0
sg52
F10.5
sg53
I0
sg54
I0
sg55
I0
sg56
I2
sg57
I0
sg58
I0
sg59
(g60
S'DL'
p154
S'N8'
p155
g63
tp156
sg65
I00
sg66
g32
(g33
g34
Ntp157
Rp158
(dp159
g38
I4
sg39
S'*'
p160
sg41
S'heros'
p161
sbsg67
(dp162
g69
I0
sg70
I0
sg71
I0
sg72
I0
ssg73
I01
sg74
(dp163
g69
I0
sg70
I0
sg71
I0
sg72
I0
ssg76
(dp164
g45
I0
sg46
I0
sg47
I2
sg48
I4
ssg78
I0
sg79
I0
sg80
S'Mapedt'
p165
sg82
I7
sg83
I0
sg84
I16
sg85
I50
sg86
g87
sg88
(dp166
g90
I6
sg91
I7
sg92
I11
sg93
I9
sg94
I3
sg95
I11
sg96
I4
sg97
I15
sg98
I11
sg99
I9
sg100
I7
sg101
I9
sg102
I5
sg103
I13
sg104
I6
ssg105
I10
sg106
I0
sg107
I0
sg108
I0
sg109
(dp167
g69
I0
sg70
I10
sg71
I0
sg72
I0
ssg111
I0
sg112
I0
sg113
I0
sg114
I0
sg115
(dp168
g117
I5
sg118
I6
sg119
I9
sg120
I9
sg121
I2
sg122
I9
sg123
I3
sg124
I11
sg125
I9
sg126
I7
sg127
I7
sg128
I7
sg129
I4
sg130
I12
sg131
I5
ssg132
(dp169
g90
I7
sg91
I7
sg92
I11
sg93
I9
sg98
I11
sg95
I11
sg96
I4
sg97
I15
sg94
I3
sg99
I9
sg100
I7
sg101
I10
sg102
I5
sg103
I14
sg104
I6
ssg134
I0
sg135
g63
sg136
I0
sg137
I0
sg138
I0
sg139
I5
sg140
I2
sg141
I0
sg142
S'EMP'
p170
sbsS'RJL'
p171
g25
sS'cap'
p172
(ijoueur
joueur
p173
(dp174
g27
F10.333333333333334
sg28
I0
sg29
I0
sg30
I0
sg31
g32
(g33
g34
Ntp175
Rp176
(dp177
g38
I1
sg39
S'<'
p178
sg41
S'base'
p179
sbsg43
(dp180
g45
I1
sg46
I0
sg47
I0
sg48
I12
ssg49
(dp181
g45
I0
sg46
I0
sg47
I0
sg48
I0
ssg51
I0
sg52
F10.592592592592593
sg53
I0
sg54
I0
sg55
I0
sg56
I2
sg57
I0
sg58
I0
sg59
(g60
S'DL'
p182
S'PI'
p183
g63
tp184
sg65
I00
sg66
g32
(g33
g34
Ntp185
Rp186
(dp187
g38
I3
sg39
S'^^^'
p188
sg41
S'rare'
p189
sbsg67
(dp190
g69
I0
sg70
I9
sg71
I0
sg72
I0
ssg73
I00
sg74
(dp191
g69
I0
sg70
I0
sg71
I0
sg72
I0
ssg76
(dp192
g45
I0
sg46
I5
sg47
I0
sg48
I10
ssg78
I0
sg79
I0
sg80
S'Haradt'
p193
sg82
I3
sg83
I0
sg84
I16
sg85
I21
sg86
g87
sg88
(dp194
g90
I8
sg91
I13
sg92
I8
sg93
I12
sg94
I3
sg95
I9
sg96
I3
sg97
I10
sg98
I10
sg99
I6
sg100
I6
sg101
I11
sg102
I2
sg103
I7
sg104
I4
ssg105
I11
sg106
I0
sg107
I0
sg108
I0
sg109
(dp195
g69
I0
sg70
I0
sg71
I0
sg72
I0
ssg111
I0
sg112
I0
sg113
I0
sg114
I0
sg115
(dp196
g117
I9
sg118
I13
sg119
I8
sg120
I9
sg121
I3
sg122
I9
sg123
I3
sg124
I10
sg125
I9
sg126
I6
sg127
I6
sg128
I11
sg129
I2
sg130
I7
sg131
I4
ssg132
(dp197
g90
I9
sg91
I13
sg92
I8
sg93
I12
sg98
I10
sg95
I9
sg96
I3
sg97
I10
sg94
I3
sg99
I6
sg100
I6
sg101
I12
sg102
I2
sg103
I8
sg104
I4
ssg134
I0
sg135
S'DKF 11'
p198
sg136
I0
sg137
I0
sg138
I0
sg139
I2
sg140
I4
sg141
I0
sg142
S'CV'
p199
sbsS'B4'
p200
(ijoueur
joueur
p201
(dp202
g27
F11.1
sg28
I0
sg29
I11
sg30
I0
sg31
g32
(g33
g34
Ntp203
Rp204
(dp205
g38
I4
sg39
S'*'
p206
sg41
S'heros'
p207
sbsg43
(dp208
S'SR'
p209
I0
sS'CT'
p210
I11
sS'CR'
p211
I0
sS'ST'
p212
I0
ssg49
(dp213
g209
I0
sg210
I0
sg211
I0
sg212
I0
ssg135
S'AL 12'
p214
sg53
I0
sg73
I00
sg56
I0
sg57
I1
sg58
I5
sg59
(S'dummy'
p215
S'C1'
p216
S'DO'
p217
g63
tp218
sg65
I00
sg66
g32
(g33
g34
Ntp219
Rp220
(dp221
g38
I4
sg39
S'*'
p222
sg41
g207
sbsg67
(dp223
g69
I0
sg70
I0
sg71
I0
sg72
I0
ssg109
(dp224
g69
I0
sg70
I10
sg71
I0
sg72
I0
ssg74
(dp225
g69
I0
sg70
I0
sg71
I0
sg72
I0
ssg76
(dp226
g209
I0
sg210
I13
sg211
I0
sg212
I0
ssg78
I48
sg79
I23
sg80
S'Jtaren'
p227
sg82
I8
sg83
I26
sg84
I17
sg85
I100
sg86
g87
sg88
(dp228
S'A'
p229
I10
sS'ME'
p230
I6
sS'RP2'
p231
I9
sS'E'
p232
I10
sS'TO'
p233
I8
sS'RP1'
p234
I9
sS'JP'
p235
I15
sS'RP_tot'
p236
I11
sS'P'
p237
I9
sS'PA'
p238
I14
sS'M'
p239
I12
sS'R'
p240
I3
sS'TB'
p241
I11
sS'PL'
p242
I12
sS'TA'
p243
I4
ssg132
(dp244
g229
I11
sg230
I6
sg231
I9
sg232
I10
sg237
I9
sg234
I9
sg235
I15
sg236
I11
sg233
I8
sg238
I14
sg239
I12
sg240
I4
sg241
I11
sg242
I13
sg243
I4
ssg105
I10
sg106
I1
sg107
I0
sg108
I0
sg52
F11.366666666666667
sg111
I3
sS'pas_meme_type'
p245
(lp246
S'EV'
p247
asg113
I0
sg114
I0
sg115
(dp248
S'A'
p249
I11
sS'ME'
p250
I6
sS'RP2'
p251
I9
sS'E'
p252
I10
sS'TO'
p253
I8
sS'RP1'
p254
I8
sS'JP'
p255
I14
sS'RP_tot'
p256
I10
sS'P'
p257
I9
sS'PA'
p258
I12
sS'M'
p259
I10
sS'R'
p260
I4
sS'TB'
p261
I11
sS'PL'
p262
I12
sS'TA'
p263
I4
ssS'attribute_error'
p264
(lp265
sg134
I0
sg136
I4
sg137
I4
sg138
I2
sg139
I21
sg140
I4
sg141
I0
sg142
S'ES'
p266
sbsS'RJC'
p267
g201
sS'B1'
p268
g201
sS'B2'
p269
g201
sS'B3'
p270
g201
sS'SA_pcp2'
p271
(ijoueur
joueur
p272
(dp273
g27
F10.083333333333334
sg28
I0
sg29
I0
sg30
I0
sg31
g32
(g33
g34
Ntp274
Rp275
(dp276
g38
I4
sg39
S'x'
p277
sg41
g42
sbsg43
(dp278
g45
I0
sg46
I0
sg47
I0
sg48
I21
ssg49
(dp279
g45
I0
sg46
I0
sg47
I0
sg48
I0
ssg51
I0
sg52
F10.277777777777779
sg53
I0
sg54
I0
sg55
I0
sg56
I1
sg57
I0
sg58
I0
sg59
(g60
S'N8'
p280
S'TL'
p281
g63
tp282
sg65
I00
sg66
g32
(g33
g34
Ntp283
Rp284
(dp285
g38
I4
sg39
g277
sg41
g42
sbsg67
(dp286
g69
I0
sg70
I1
sg71
I0
sg72
I0
ssg73
I00
sg74
(dp287
g69
I0
sg70
I0
sg71
I0
sg72
I0
ssg76
(dp288
g45
I0
sg46
I0
sg47
I1
sg48
I1
ssg78
I0
sg79
I0
sg80
S'Equyx'
p289
sg82
I10
sg83
I0
sg84
I21
sg85
I130
sg86
g87
sg88
(dp290
g90
I11
sg91
I8
sg92
I7
sg93
I9
sg94
I8
sg95
I9
sg96
I5
sg97
I9
sg98
I13
sg99
I10
sg100
I7
sg101
I7
sg102
I6
sg103
I15
sg104
I5
ssg105
I4
sg106
I0
sg107
I0
sg108
I0
sg109
(dp291
g69
I0
sg70
I8
sg71
I0
sg72
I0
ssg111
I0
sg112
I0
sg113
I0
sg114
I1
sg115
(dp292
g117
I12
sg118
I8
sg119
I6
sg120
I9
sg121
I7
sg122
I9
sg123
I5
sg124
I9
sg125
I12
sg126
I10
sg127
I7
sg128
I8
sg129
I6
sg130
I15
sg131
I5
ssg132
(dp293
g90
I11
sg91
I8
sg92
I7
sg93
I9
sg98
I13
sg95
I9
sg96
I5
sg97
I9
sg94
I8
sg99
I10
sg100
I7
sg101
I7
sg102
I6
sg103
I15
sg104
I5
ssg134
I0
sg135
g63
sg136
I0
sg137
I0
sg138
I0
sg139
I12
sg140
I2
sg141
I0
sg142
S'CHS'
p294
sbsS'SA_pcp1'
p295
(ijoueur
joueur
p296
(dp297
g27
F10.941176470588236
sg28
I0
sg29
I0
sg30
I0
sg31
g32
(g33
g34
Ntp298
Rp299
(dp300
g38
I5
sg39
S'**'
p301
sg41
S'seigneur'
p302
sbsg43
(dp303
g45
I0
sg46
I4
sg47
I0
sg48
I0
ssg49
(dp304
g45
I0
sg46
I0
sg47
I0
sg48
I12
ssg51
I0
sg52
F10.676470588235293
sg53
I0
sg54
I0
sg55
I0
sg56
I0
sg57
I0
sg58
I0
sg59
(g60
S'DL'
p305
S'TL'
p306
S'N8'
p307
tp308
sg65
I00
sg66
g32
(g33
g34
Ntp309
Rp310
(dp311
g38
I5
sg39
S'**'
p312
sg41
g302
sbsg67
(dp313
g69
I0
sg70
I9
sg71
I0
sg72
I0
ssg73
I00
sg74
(dp314
g69
I0
sg70
I0
sg71
I0
sg72
I0
ssg76
(dp315
g45
I0
sg46
I0
sg47
I0
sg48
I10
ssg78
I0
sg79
I0
sg80
S'Zysken'
p316
sg82
I1
sg83
I0
sg84
I12
sg85
I210
sg86
g87
sg88
(dp317
g90
I12
sg91
I10
sg92
I7
sg93
I9
sg94
I4
sg95
I12
sg96
I4
sg97
I12
sg98
I13
sg99
I11
sg100
I7
sg101
I7
sg102
I3
sg103
I11
sg104
I5
ssg105
I9
sg106
I0
sg107
I0
sg108
I0
sg109
(dp318
g69
I0
sg70
I0
sg71
I0
sg72
I0
ssg111
I0
sg112
I0
sg113
I0
sg114
I1
sg115
(dp319
g117
I14
sg118
I10
sg119
I7
sg120
I10
sg121
I4
sg122
I13
sg123
I4
sg124
I13
sg125
I13
sg126
I11
sg127
I8
sg128
I9
sg129
I3
sg130
I13
sg131
I5
ssg132
(dp320
g90
I13
sg91
I10
sg92
I7
sg93
I9
sg98
I13
sg95
I12
sg96
I4
sg97
I12
sg94
I4
sg99
I11
sg100
I7
sg101
I8
sg102
I3
sg103
I12
sg104
I5
ssg134
I0
sg135
g63
sg136
I0
sg137
I0
sg138
I0
sg139
I21
sg140
I7
sg141
I0
sg142
S'CHS'
p321
sbsS'drop3'
p322
g201
sS'SA_remp1'
p323
(ijoueur
joueur
p324
(dp325
g28
I0
sg29
I0
sS'poste3'
p326
g63
sg30
I0
sS'poste1'
p327
g63
sg31
g32
(g33
g34
Ntp328
Rp329
(dp330
g38
I5
sg39
S'**'
p331
sg41
S'seigneur'
p332
sbsg43
(dp333
S'SR'
p334
I0
sS'CT'
p335
I0
sS'CR'
p336
I0
sS'ST'
p337
I0
ssg49
(dp338
g334
I0
sg335
I0
sg336
I0
sg337
I0
ssg135
g63
sg53
I0
sg56
I1
sg57
I0
sg58
I0
sg86
g87
sg66
g32
(g33
g34
Ntp339
Rp340
(dp341
g38
I2
sg39
S'<<'
p342
sg41
S'special'
p343
sbsg67
(dp344
g334
I0
sg335
I2
sg336
I9
sg337
I0
ssg109
(dp345
g334
I0
sg335
I0
sg336
I0
sg337
I0
ssg74
(dp346
g334
I0
sg335
I0
sg336
I0
sg337
I0
ssg76
(dp347
g334
I0
sg335
I2
sg336
I9
sg337
I0
ssg78
I0
sg79
I0
sg80
S'Diebahir'
p348
sg82
I12
sg83
I0
sg84
I25
sg85
I48
sg59
(S'dummy'
p349
S'DL'
p350
g63
g63
tp351
sS'poste2'
p352
g63
sg88
(dp353
S'RP1'
p354
I8
sS'ME'
p355
I10
sS'RP2'
p356
I6
sS'E'
p357
I9
sS'TO'
p358
I11
sS'M'
p359
I7
sS'JP'
p360
I2
sS'RP_tot'
p361
I8
sS'P'
p362
I5
sS'PA'
p363
I8
sS'A'
p364
I8
sS'R'
p365
I10
sS'TB'
p366
I4
sS'PL'
p367
I12
sS'TA'
p368
I4
ssg105
I7
sg106
I0
sg107
I0
sg108
I0
sg52
F9.823529411764707
sg111
I0
sg113
I0
sg114
I0
sg132
(dp369
g354
I8
sg355
I10
sg356
I6
sg357
I9
sg362
I5
sg360
I2
sg359
I7
sg361
I8
sg358
I11
sg363
I8
sg364
I8
sg365
I10
sg366
I4
sg367
I12
sg368
I4
ssg134
I0
sg136
I0
sg137
I0
sg138
I0
sg139
I4
sg140
I1
sg141
I0
sg142
S'CHS'
p370
sbsS'drop2'
p371
g201
sS'SA_remp2'
p372
(ijoueur
joueur
p373
(dp374
g27
F10.631578947368421
sg28
I0
sg29
I0
sg30
I0
sg31
g32
(g33
g34
Ntp375
Rp376
(dp377
g38
I5
sg39
S'**'
p378
sg41
g302
sbsg43
(dp379
g45
I0
sg46
I6
sg47
I0
sg48
I0
ssg49
(dp380
g45
I0
sg46
I0
sg47
I0
sg48
I0
ssg51
I0
sg52
F10.387096774193548
sg53
I0
sg54
I0
sg55
I0
sg56
I0
sg57
I0
sg58
I0
sg59
(g60
S'TL'
p381
S'DL'
p382
g63
tp383
sg65
I00
sg66
g32
(g33
g34
Ntp384
Rp385
(dp386
g38
I5
sg39
S'**'
p387
sg41
g302
sbsg67
(dp388
g69
I0
sg70
I9
sg71
I0
sg72
I0
ssg73
I00
sg74
(dp389
g69
I0
sg70
I0
sg71
I0
sg72
I0
ssg76
(dp390
g45
I0
sg46
I0
sg47
I0
sg48
I23
ssg78
I0
sg79
I0
sg80
S'Obolendt'
p391
sg82
I6
sg83
I0
sg84
I20
sg85
I140
sg86
g87
sg88
(dp392
g90
I12
sg91
I10
sg92
I9
sg93
I10
sg94
I7
sg95
I7
sg96
I5
sg97
I9
sg98
I10
sg99
I10
sg100
I9
sg101
I10
sg102
I6
sg103
I12
sg104
I6
ssg105
I5
sg106
I0
sg107
I2
sg108
I0
sg109
(dp393
g69
I0
sg70
I0
sg71
I0
sg72
I0
ssg111
I0
sg112
I0
sg113
I0
sg114
I1
sg115
(dp394
g117
I13
sg118
I10
sg119
I9
sg120
I10
sg121
I7
sg122
I7
sg123
I5
sg124
I9
sg125
I11
sg126
I10
sg127
I10
sg128
I10
sg129
I6
sg130
I11
sg131
I6
ssg132
(dp395
g90
I12
sg91
I10
sg92
I9
sg93
I10
sg98
I10
sg95
I7
sg96
I5
sg97
I9
sg94
I7
sg99
I10
sg100
I9
sg101
I10
sg102
I6
sg103
I12
sg104
I6
ssg134
I0
sg135
S'MSL 9'
p396
sg136
I0
sg137
I0
sg138
I0
sg139
I12
sg140
I7
sg141
I1
sg142
S'CV'
p397
sbssS'totaux'
p398
(dp399
g19
I0
sg20
I0
sg21
I0
ssS'_compo_defaut_fatigue'
p400
Nsg88
(dp401
g4
I0
sg5
I0
sg6
I0
sg7
I0
sg8
I0
sg9
I0
sg10
I0
sg11
I0
sg12
I0
sg13
I0
sg14
I0
sg15
I0
sg16
I0
ssS'joueurs'
p402
(dp403
S'n12'
p404
g25
sS'n13'
p405
(ijoueur
joueur
p406
(dp407
g27
F10.655172413793103
sg28
I1
sg29
I0
sg30
I0
sg31
g32
(g33
g34
Ntp408
Rp409
(dp410
g38
I5
sg39
S'**'
p411
sg41
g302
sbsg43
(dp412
g45
I0
sg46
I0
sg47
I0
sg48
I1
ssg49
(dp413
g45
I0
sg46
I6
sg47
I0
sg48
I0
ssg51
I0
sg52
F10.827586206896552
sg53
I0
sg54
I0
sg55
I0
sg56
I0
sg57
I0
sg58
I0
sg59
(g60
S'C2'
p414
S'AI'
p415
S'DM'
p416
tp417
sg65
I00
sg66
g32
(g33
g34
Ntp418
Rp419
(dp420
g38
I5
sg39
S'**'
p421
sg41
g302
sbsg67
(dp422
g69
I0
sg70
I10
sg71
I0
sg72
I0
ssg73
I01
sg74
(dp423
g69
I0
sg70
I0
sg71
I0
sg72
I0
ssg76
(dp424
g45
I0
sg46
I0
sg47
I0
sg48
I16
ssg78
I0
sg79
I0
sg80
S'Mill'
p425
sg82
I8
sg83
I0
sg84
I20
sg85
I145
sg86
g87
sg88
(dp426
g90
I9
sg91
I4
sg92
I11
sg93
I11
sg94
I8
sg95
I7
sg96
I8
sg97
I11
sg98
I5
sg99
I13
sg100
I10
sg101
I5
sg102
I6
sg103
I12
sg104
I6
ssg105
I12
sg106
I0
sg107
I1
sg108
I0
sg109
(dp427
g69
I0
sg70
I0
sg71
I0
sg72
I0
ssg111
I0
sg112
I0
sg113
I0
sg114
I1
sg115
(dp428
g117
I10
sg118
I4
sg119
I11
sg120
I11
sg121
I8
sg122
I9
sg123
I7
sg124
I13
sg125
I5
sg126
I12
sg127
I10
sg128
I6
sg129
I6
sg130
I13
sg131
I6
ssg132
(dp429
g90
I10
sg91
I4
sg92
I11
sg93
I11
sg98
I5
sg95
I7
sg96
I8
sg97
I11
sg94
I8
sg99
I13
sg100
I10
sg101
I6
sg102
I6
sg103
I13
sg104
I6
ssg134
I1
sg135
g63
sg136
I0
sg137
I0
sg138
I0
sg139
I15
sg140
I4
sg141
I1
sg142
S'EMP'
p430
sbsS'n10'
p431
g201
sS'n11'
p432
(ijoueur
joueur
p433
(dp434
g27
F9.225806451612904
sg28
I0
sg29
I0
sg326
g63
sg30
I0
sg327
g63
sg31
g32
(g33
g34
Ntp435
Rp436
(dp437
g38
I4
sg39
S'*'
p438
sg41
S'heros'
p439
sbsg43
(dp440
S'SR'
p441
I0
sS'ST'
p442
I0
sS'CR'
p443
I0
sS'CT'
p444
I0
ssg49
(dp445
g441
I0
sg442
I0
sg443
I0
sg444
I0
ssg135
S'vide 12'
p446
sg53
I0
sg73
I00
sg56
I0
sg57
I0
sg58
I0
sg86
g87
sg65
I00
sg66
g436
sg67
(dp447
g69
I0
sg70
I9
sg71
I0
sg72
I0
ssg109
(dp448
g69
I0
sg70
I0
sg71
I0
sg72
I0
ssg74
(dp449
g69
I0
sg70
I0
sg71
I0
sg72
I0
ssg76
(dp450
g441
I0
sg442
I0
sg443
I0
sg444
I9
ssg78
I0
sg79
I0
sg80
S'Uulnen'
p451
sg82
I11
sg83
I0
sg84
I20
sg85
I144
sg59
(S'dummy'
p452
S'AI'
p453
S'AR'
p454
g63
tp455
sg352
g63
sg88
(dp456
S'RP1'
p457
I10
sS'ME'
p458
I5
sS'RP2'
p459
I11
sS'E'
p460
I10
sS'P'
p461
I10
sS'JP'
p462
I8
sS'M'
p463
I9
sS'RP_tot'
p464
I14
sS'TO'
p465
I5
sS'PA'
p466
I8
sS'A'
p467
I10
sS'R'
p468
I9
sS'TB'
p469
I9
sS'PL'
p470
I8
sS'TA'
p471
I5
ssg105
I10
sg106
I0
sg107
I1
sg108
I0
sg52
F10.419354838709678
sg111
I0
sg113
I1
sg114
I0
sg115
(dp472
S'RP1'
p473
I7
sS'ME'
p474
I3
sS'RP2'
p475
I9
sS'E'
p476
I9
sS'TO'
p477
I3
sS'M'
p478
I8
sS'JP'
p479
I6
sS'RP_tot'
p480
I9
sS'P'
p481
I7
sS'PA'
p482
I6
sS'A'
p483
I9
sS'R'
p484
I9
sS'TB'
p485
I6
sS'PL'
p486
I6
sS'TA'
p487
I3
ssg132
(dp488
g457
I10
sg458
I5
sg459
I11
sg460
I10
sg465
I5
sg463
I9
sg462
I8
sg464
I14
sg461
I10
sg466
I8
sg467
I11
sg468
I10
sg469
I9
sg470
I9
sg471
I5
ssg134
I0
sg136
I0
sg137
I0
sg138
I0
sg139
I10
sg140
I0
sg141
I0
sg142
S'K'
p489
sbsS'n16'
p490
(ijoueur
joueur
p491
(dp492
g27
F8.586206896551724
sg28
I0
sg29
I0
sg30
I0
sg31
g32
(g33
g34
Ntp493
Rp494
(dp495
g38
I4
sg39
g40
sg41
g42
sbsg43
(dp496
g45
I0
sg46
I0
sg47
I0
sg48
I0
ssg49
(dp497
g45
I0
sg46
I0
sg47
I0
sg48
I0
ssg51
I0
sg52
F8.724137931034482
sg53
I0
sg54
I0
sg55
I0
sg56
I1
sg57
I0
sg58
I0
sg59
(g60
S'TA'
p498
g63
g63
tp499
sg65
I00
sg66
g494
sg67
(dp500
g69
I0
sg70
I3
sg71
I8
sg72
I0
ssg73
I00
sg74
(dp501
g69
I0
sg70
I0
sg71
I0
sg72
I0
ssg76
(dp502
g45
I0
sg46
I0
sg47
I17
sg48
I5
ssg78
I0
sg79
I0
sg80
S'Wadwyr'
p503
sg82
I11
sg83
I0
sg84
I23
sg85
I87
sg86
g87
sg88
(dp504
g90
I7
sg91
I9
sg92
I7
sg93
I10
sg94
I4
sg95
I10
sg96
I3
sg97
I10
sg98
I6
sg99
I9
sg100
I7
sg101
I8
sg102
I1
sg103
I7
sg104
I10
ssg105
I5
sg106
I0
sg107
I1
sg108
I0
sg109
(dp505
g69
I0
sg70
I0
sg71
I0
sg72
I0
ssg111
I0
sg112
I0
sg113
I0
sg114
I0
sg115
(dp506
g117
I8
sg118
I9
sg119
I6
sg120
I10
sg121
I3
sg122
I8
sg123
I2
sg124
I8
sg125
I5
sg126
I8
sg127
I7
sg128
I8
sg129
I0
sg130
I9
sg131
I9
ssg132
(dp507
g90
I7
sg91
I9
sg92
I7
sg93
I10
sg98
I6
sg95
I10
sg96
I3
sg97
I10
sg94
I4
sg99
I9
sg100
I7
sg101
I8
sg102
I1
sg103
I7
sg104
I10
ssg134
I0
sg135
g63
sg136
I0
sg137
I0
sg138
I0
sg139
I8
sg140
I1
sg141
I0
sg142
S'CHS'
p508
sbsS'n17'
p509
(ijoueur
joueur
p510
(dp511
g27
F9.74074074074074
sg28
I0
sg29
I0
sg30
I0
sg31
g32
(g33
g34
Ntp512
Rp513
(dp514
g38
I5
sg39
S'xx'
p515
sg41
S'seigneur'
p516
sbsg43
(dp517
S'SR'
p518
I0
sS'CT'
p519
I0
sS'CR'
p520
I3
sS'ST'
p521
I0
ssg49
(dp522
g518
I0
sg519
I0
sg520
I0
sg521
I0
ssg51
I0
sg52
F9.518518518518519
sg53
I0
sg54
I0
sg55
I0
sg56
I0
sg57
I0
sg58
I0
sg59
(S'dummy'
p523
S'PI'
p524
S'N8'
p525
S'TA'
p526
tp527
sg65
I00
sg66
g32
(g33
g34
Ntp528
Rp529
(dp530
g38
I5
sg39
S'xx'
p531
sg41
g516
sbsg67
(dp532
g69
I0
sg70
I3
sg71
I8
sg72
I0
ssg73
I00
sg74
(dp533
g69
I0
sg70
I0
sg71
I0
sg72
I0
ssg76
(dp534
g518
I0
sg519
I4
sg520
I11
sg521
I0
ssg78
I0
sg79
I0
sg80
S'Niendi'
p535
sg82
I1
sg83
I0
sg84
I9
sg85
I84
sg86
g87
sg88
(dp536
S'A'
p537
I12
sS'ME'
p538
I9
sS'RP2'
p539
I4
sS'E'
p540
I10
sS'TO'
p541
I4
sS'RP1'
p542
I9
sS'JP'
p543
I2
sS'RP_tot'
p544
I9
sS'P'
p545
I5
sS'PA'
p546
I11
sS'M'
p547
I7
sS'R'
p548
I9
sS'TB'
p549
I1
sS'PL'
p550
I10
sS'TA'
p551
I7
ssg105
I7
sg106
I0
sg107
I0
sg108
I0
sg109
(dp552
g69
I0
sg70
I0
sg71
I0
sg72
I0
ssg111
I0
sg112
I0
sg113
I0
sg114
I0
sg115
(dp553
S'A'
p554
I12
sS'ME'
p555
I9
sS'RP2'
p556
I4
sS'E'
p557
I10
sS'TO'
p558
I4
sS'RP1'
p559
I9
sS'JP'
p560
I2
sS'RP_tot'
p561
I9
sS'P'
p562
I5
sS'PA'
p563
I11
sS'M'
p564
I7
sS'R'
p565
I10
sS'TB'
p566
I1
sS'PL'
p567
I10
sS'TA'
p568
I7
ssg132
(dp569
g537
I12
sg538
I9
sg539
I4
sg540
I10
sg545
I5
sg542
I9
sg543
I2
sg544
I9
sg541
I4
sg546
I11
sg547
I7
sg548
I9
sg549
I1
sg550
I10
sg551
I7
ssg134
I0
sg135
S'KAK 12'
p570
sg136
I0
sg137
I0
sg138
I0
sg139
I7
sg140
I15
sg141
I0
sg142
S'N'
p571
sbsS'n14'
p572
(ijoueur
joueur
p573
(dp574
g27
F9.0
sg28
I1
sg29
I0
sg326
g63
sg30
I0
sg327
g63
sg31
g32
(g33
g34
Ntp575
Rp576
(dp577
g38
I4
sg39
S'*'
p578
sg41
S'heros'
p579
sbsg43
(dp580
S'SR'
p581
I0
sS'ST'
p582
I0
sS'CR'
p583
I0
sS'CT'
p584
I0
ssg49
(dp585
g581
I0
sg582
I0
sg583
I0
sg584
I0
ssg135
S'vide 12'
p586
sg53
I0
sg73
I00
sg56
I0
sg57
I0
sg58
I0
sg86
g87
sg65
I00
sg66
g32
(g33
g34
Ntp587
Rp588
(dp589
g38
I3
sg39
S'^^^'
p590
sg41
S'rare'
p591
sbsg67
(dp592
g69
I0
sg70
I9
sg71
I0
sg72
I0
ssg109
(dp593
g69
I0
sg70
I0
sg71
I0
sg72
I0
ssg74
(dp594
g69
I0
sg70
I0
sg71
I0
sg72
I0
ssg76
(dp595
g581
I0
sg582
I0
sg583
I0
sg584
I9
ssg78
I0
sg79
I0
sg80
S'Louesh'
p596
sg82
I11
sg83
I0
sg84
I19
sg85
I60
sg59
(S'dummy'
p597
S'AI'
p598
S'AR'
p599
g63
tp600
sg352
g63
sg88
(dp601
S'RP1'
p602
I7
sS'ME'
p603
I6
sS'RP2'
p604
I10
sS'E'
p605
I9
sS'P'
p606
I10
sS'JP'
p607
I7
sS'M'
p608
I12
sS'RP_tot'
p609
I10
sS'TO'
p610
I5
sS'PA'
p611
I8
sS'A'
p612
I12
sS'R'
p613
I6
sS'TB'
p614
I7
sS'PL'
p615
I8
sS'TA'
p616
I5
ssg105
I5
sg106
I0
sg107
I0
sg108
I0
sg52
F9.903225806451612
sg111
I0
sg113
I0
sg114
I1
sg115
(dp617
S'RP1'
p618
I6
sS'ME'
p619
I5
sS'RP2'
p620
I9
sS'E'
p621
I8
sS'TO'
p622
I3
sS'M'
p623
I9
sS'JP'
p624
I6
sS'RP_tot'
p625
I9
sS'P'
p626
I8
sS'PA'
p627
I6
sS'A'
p628
I10
sS'R'
p629
I6
sS'TB'
p630
I5
sS'PL'
p631
I6
sS'TA'
p632
I4
ssg132
(dp633
g602
I7
sg603
I6
sg604
I10
sg605
I9
sg610
I5
sg608
I12
sg607
I7
sg609
I10
sg606
I10
sg611
I8
sg612
I12
sg613
I6
sg614
I7
sg615
I8
sg616
I5
ssg134
I1
sg136
I0
sg137
I0
sg138
I0
sg139
I5
sg140
I0
sg141
I1
sg142
S'ARA'
p634
sbsS'n15'
p635
(ijoueur
joueur
p636
(dp637
g27
F9.758620689655173
sg28
I1
sg29
I0
sg30
I0
sg31
g32
(g33
g34
Ntp638
Rp639
(dp640
g38
I4
sg39
S'*'
p641
sg41
S'heros'
p642
sbsg43
(dp643
S'SR'
p644
I0
sS'CT'
p645
I11
sS'CR'
p646
I0
sS'ST'
p647
I0
ssg49
(dp648
g644
I0
sg645
I3
sg646
I1
sg647
I0
ssg51
I0
sg53
I0
sg54
I0
sg55
I0
sg73
I01
sg56
I0
sg57
I0
sg58
I0
sg59
(S'dummy'
p649
S'C2'
p650
S'AI'
p651
S'AR'
p652
tp653
sg65
I00
sg66
g639
sg67
(dp654
S'SR'
p655
I0
sS'ST'
p656
I0
sS'CR'
p657
I3
sS'CT'
p658
I3
ssg109
(dp659
g655
I0
sg656
I0
sg657
I0
sg658
I1
ssg74
(dp660
g655
I0
sg656
I0
sg657
I1
sg658
I2
ssg76
(dp661
g644
I0
sg645
I4
sg646
I3
sg647
I1
ssg78
I0
sg79
I0
sg80
S'Braklyr'
p662
sg82
I11
sg83
I0
sg84
I20
sg85
I98
sg86
S'PRG'
p663
sg88
(dp664
S'A'
p665
I10
sS'ME'
p666
I7
sS'RP2'
p667
I7
sS'E'
p668
I9
sS'TO'
p669
I6
sS'RP1'
p670
I10
sS'JP'
p671
I8
sS'RP_tot'
p672
I10
sS'P'
p673
I7
sS'PA'
p674
I11
sS'M'
p675
I9
sS'R'
p676
I8
sS'TB'
p677
I7
sS'PL'
p678
I10
sS'TA'
p679
I7
ssg105
I7
sg106
I0
sg107
I0
sg108
I0
sg52
F9.586206896551724
sg111
I0
sg112
I0
sg113
I0
sg114
I2
sg115
(dp680
S'A'
p681
I9
sS'ME'
p682
I6
sS'RP2'
p683
I6
sS'E'
p684
I9
sS'TO'
p685
I5
sS'RP1'
p686
I9
sS'JP'
p687
I7
sS'RP_tot'
p688
I9
sS'P'
p689
I6
sS'PA'
p690
I10
sS'M'
p691
I9
sS'R'
p692
I7
sS'TB'
p693
I6
sS'PL'
p694
I11
sS'TA'
p695
I6
ssg132
(dp696
g665
I10
sg666
I7
sg667
I7
sg668
I9
sg673
I7
sg670
I10
sg671
I8
sg672
I10
sg669
I6
sg674
I11
sg675
I9
sg676
I8
sg677
I7
sg678
I10
sg679
I7
ssg134
I0
sg135
g63
sg136
I0
sg137
I0
sg138
I0
sg139
I9
sg140
I2
sg141
I2
sg142
S'CHS'
p697
sbsS'n18'
p698
g324
sS'n19'
p699
(ijoueur
joueur
p700
(dp701
g27
F8.290322580645162
sg28
I0
sg29
I0
sg326
g63
sg30
I0
sg327
g63
sg31
g32
(g33
g34
Ntp702
Rp703
(dp704
g38
I5
sg39
S'**'
p705
sg41
S'seigneur'
p706
sbsg43
(dp707
S'SR'
p708
I0
sS'CT'
p709
I0
sS'CR'
p710
I0
sS'ST'
p711
I0
ssg49
(dp712
g708
I0
sg709
I0
sg710
I0
sg711
I0
ssg135
S'vide 12'
p713
sg53
I0
sg73
I00
sg56
I0
sg57
I0
sg58
I0
sg86
g87
sg65
I00
sg66
g32
(g33
g34
Ntp714
Rp715
(dp716
g38
I4
sg39
S'x'
p717
sg41
S'heros'
p718
sbsg67
(dp719
S'SR'
p720
I0
sS'CT'
p721
I5
sS'CR'
p722
I5
sS'ST'
p723
I0
ssg109
(dp724
g720
I0
sg721
I0
sg722
I0
sg723
I0
ssg74
(dp725
g720
I0
sg721
I0
sg722
I0
sg723
I0
ssg76
(dp726
g708
I2
sg709
I5
sg710
I5
sg711
I1
ssg78
I0
sg79
I0
sg80
S'Omar'
p727
sg82
I11
sg83
I0
sg84
I22
sg85
I86
sg59
(S'dummy'
p728
S'TL'
p729
S'DL'
p730
g63
tp731
sg352
g63
sg88
(dp732
S'RP1'
p733
I8
sS'ME'
p734
I9
sS'RP2'
p735
I8
sS'E'
p736
I9
sS'TO'
p737
I9
sS'M'
p738
I6
sS'JP'
p739
I5
sS'RP_tot'
p740
I9
sS'P'
p741
I8
sS'PA'
p742
I9
sS'A'
p743
I11
sS'R'
p744
I10
sS'TB'
p745
I6
sS'PL'
p746
I10
sS'TA'
p747
I7
ssg105
I3
sg106
I0
sg107
I0
sg108
I0
sg52
F9.483870967741936
sg111
I0
sg113
I0
sg114
I0
sg115
(dp748
S'RP1'
p749
I7
sS'ME'
p750
I8
sS'RP2'
p751
I6
sS'E'
p752
I9
sS'TO'
p753
I7
sS'M'
p754
I7
sS'JP'
p755
I4
sS'RP_tot'
p756
I7
sS'P'
p757
I7
sS'PA'
p758
I7
sS'A'
p759
I9
sS'R'
p760
I9
sS'TB'
p761
I5
sS'PL'
p762
I8
sS'TA'
p763
I6
ssg132
(dp764
g733
I8
sg734
I9
sg735
I8
sg736
I9
sg741
I8
sg739
I5
sg738
I6
sg740
I9
sg737
I9
sg742
I9
sg743
I11
sg744
I10
sg745
I6
sg746
I10
sg747
I7
ssg134
I0
sg136
I0
sg137
I0
sg138
I0
sg139
I7
sg140
I0
sg141
I0
sg142
S'EST'
p765
sbsS'n22'
p766
(ijoueur
joueur
p767
(dp768
g27
F9.290322580645162
sg28
I0
sg29
I0
sg30
I0
sg31
g32
(g33
g34
Ntp769
Rp770
(dp771
g38
I1
sg39
S'<'
p772
sg41
S'base'
p773
sbsg43
(dp774
S'SR'
p775
I0
sS'ST'
p776
I0
sS'CR'
p777
I0
sS'CT'
p778
I0
ssg49
(dp779
g775
I0
sg776
I0
sg777
I0
sg778
I0
ssg51
I0
sg52
F9.35483870967742
sg53
I0
sg54
I0
sg55
I0
sg56
I1
sg57
I0
sg58
I0
sg59
(S'dummy'
p780
S'AI'
p781
g63
g63
tp782
sg65
I00
sg66
g32
(g33
g34
Ntp783
Rp784
(dp785
g38
I1
sg39
g772
sg41
g773
sbsg67
(dp786
g69
I0
sg70
I3
sg71
I8
sg72
I0
ssg73
I00
sg74
(dp787
g69
I0
sg70
I0
sg71
I0
sg72
I0
ssg76
(dp788
g775
I0
sg776
I0
sg777
I10
sg778
I3
ssg78
I0
sg79
I0
sg80
S'Irstolfg'
p789
sg82
I4
sg83
I0
sg84
I16
sg85
I20
sg86
g87
sg88
(dp790
S'A'
p791
I12
sS'ME'
p792
I4
sS'RP2'
p793
I6
sS'E'
p794
I7
sS'P'
p795
I7
sS'RP1'
p796
I11
sS'JP'
p797
I6
sS'RP_tot'
p798
I11
sS'TO'
p799
I3
sS'PA'
p800
I6
sS'M'
p801
I11
sS'R'
p802
I6
sS'TB'
p803
I5
sS'PL'
p804
I8
sS'TA'
p805
I5
ssg105
I6
sg106
I0
sg107
I0
sg108
I0
sg109
(dp806
g69
I0
sg70
I0
sg71
I0
sg72
I0
ssg111
I0
sg112
I0
sg113
I0
sg114
I0
sg115
(dp807
S'A'
p808
I10
sS'ME'
p809
I4
sS'RP2'
p810
I6
sS'E'
p811
I7
sS'P'
p812
I7
sS'RP1'
p813
I11
sS'JP'
p814
I5
sS'RP_tot'
p815
I11
sS'TO'
p816
I3
sS'PA'
p817
I6
sS'M'
p818
I9
sS'R'
p819
I5
sS'TB'
p820
I5
sS'PL'
p821
I8
sS'TA'
p822
I5
ssg132
(dp823
g791
I12
sg792
I4
sg793
I6
sg794
I7
sg799
I3
sg796
I11
sg797
I6
sg798
I11
sg795
I7
sg800
I6
sg801
I11
sg802
I6
sg803
I5
sg804
I8
sg805
I5
ssg134
I0
sg135
S'KH 10;QNL 12'
p824
sg136
I0
sg137
I0
sg138
I0
sg139
I4
sg140
I1
sg141
I0
sg142
S'HB'
p825
sbsS'n21'
p826
(ijoueur
joueur
p827
(dp828
g28
I0
sg29
I0
sg326
g63
sg30
I0
sg327
g63
sg31
g32
(g33
g34
Ntp829
Rp830
(dp831
g38
I1
sg39
S'<'
p832
sg41
S'base'
p833
sbsg43
(dp834
S'SR'
p835
I0
sS'ST'
p836
I0
sS'CR'
p837
I3
sS'CT'
p838
I0
ssg49
(dp839
g835
I0
sg836
I0
sg837
I0
sg838
I0
ssg135
g63
sg53
I0
sg56
I0
sg57
I0
sg58
I0
sg86
g663
sg66
g830
sg67
(dp840
g835
I0
sg836
I0
sg837
I1
sg838
I2
ssg109
(dp841
g835
I0
sg836
I0
sg837
I3
sg838
I0
ssg74
(dp842
g835
I0
sg836
I0
sg837
I0
sg838
I0
ssg76
(dp843
g835
I0
sg836
I0
sg837
I1
sg838
I2
ssg78
I0
sg79
I0
sg80
S'Cristohor'
p844
sg82
I12
sg83
I0
sg84
I22
sg85
I7
sg59
(S'dummy'
p845
S'AI'
p846
S'AR'
p847
g63
tp848
sg352
g63
sg88
(dp849
S'RP1'
p850
I7
sS'ME'
p851
I6
sS'RP2'
p852
I8
sS'E'
p853
I9
sS'P'
p854
I7
sS'JP'
p855
I5
sS'M'
p856
I12
sS'RP_tot'
p857
I8
sS'TO'
p858
I3
sS'PA'
p859
I7
sS'A'
p860
I9
sS'R'
p861
I7
sS'TB'
p862
I6
sS'PL'
p863
I10
sS'TA'
p864
I4
ssg105
I0
sg106
I0
sg107
I0
sg108
I0
sg52
F8.96774193548387
sg111
I0
sg113
I0
sg114
I0
sg132
(dp865
g850
I7
sg851
I6
sg852
I8
sg853
I9
sg858
I3
sg856
I12
sg855
I5
sg857
I8
sg854
I7
sg859
I7
sg860
I9
sg861
I7
sg862
I6
sg863
I10
sg864
I4
ssg134
I0
sg136
I0
sg137
I0
sg138
I0
sg139
I0
sg140
I0
sg141
I0
sg142
S'CHS'
p866
sbsS'n20'
p867
(ijoueur
joueur
p868
(dp869
g27
F9.151515151515152
sg28
I0
sg29
I1
sg30
I0
sg31
g32
(g33
g34
Ntp870
Rp871
(dp872
g38
I2
sg39
S'<<'
p873
sg41
g151
sbsg43
(dp874
g45
I0
sg46
I0
sg47
I1
sg48
I3
ssg49
(dp875
g45
I0
sg46
I0
sg47
I2
sg48
I0
ssg51
I0
sg52
F9.030303030303031
sg53
I0
sg54
I0
sg55
I1
sg56
I0
sg57
I1
sg58
I1
sg59
(g60
S'DO'
p876
S'CE'
p877
S'AR'
p878
tp879
sg65
I00
sg66
g32
(g33
g34
Ntp880
Rp881
(dp882
g38
I2
sg39
S'<<'
p883
sg41
g151
sbsg67
(dp884
g69
I0
sg70
I2
sg71
I6
sg72
I0
ssg73
I00
sg74
(dp885
g69
I0
sg70
I0
sg71
I2
sg72
I0
ssg76
(dp886
g45
I1
sg46
I1
sg47
I14
sg48
I6
ssg78
I20
sg79
I7
sg80
S'Dyrthied'
p887
sg82
I11
sg83
I2
sg84
I22
sg85
I25
sg86
g87
sg88
(dp888
g90
I7
sg91
I5
sg92
I5
sg93
I9
sg94
I10
sg95
I7
sg96
I7
sg97
I7
sg98
I7
sg99
I11
sg100
I9
sg101
I5
sg102
I9
sg103
I10
sg104
I6
ssg105
I8
sg106
I0
sg107
I0
sg108
I0
sg109
(dp889
g69
I0
sg70
I0
sg71
I1
sg72
I0
ssg111
I5
sg112
I0
sg113
I0
sg114
I0
sg115
(dp890
g117
I8
sg118
I5
sg119
I6
sg120
I9
sg121
I10
sg122
I7
sg123
I8
sg124
I7
sg125
I7
sg126
I11
sg127
I10
sg128
I7
sg129
I8
sg130
I11
sg131
I6
ssg132
(dp891
g90
I8
sg91
I5
sg92
I5
sg93
I9
sg98
I7
sg95
I7
sg96
I7
sg97
I7
sg94
I10
sg99
I11
sg100
I9
sg101
I6
sg102
I9
sg103
I11
sg104
I6
ssg134
I0
sg135
g63
sg136
I0
sg137
I0
sg138
I0
sg139
I5
sg140
I0
sg141
I0
sg142
S'CHS'
p892
sbsS'n8'
p893
g145
sS'n9'
p894
(ijoueur
joueur
p895
(dp896
g27
F9.862068965517242
sg28
I1
sg29
I0
sg30
I0
sg31
g32
(g33
g34
Ntp897
Rp898
(dp899
g38
I4
sg39
g40
sg41
g42
sbsg43
(dp900
g45
I0
sg46
I0
sg47
I0
sg48
I0
ssg49
(dp901
g45
I0
sg46
I0
sg47
I0
sg48
I0
ssg51
I0
sg52
F9.724137931034482
sg53
I0
sg54
I0
sg55
I0
sg56
I0
sg57
I0
sg58
I0
sg59
(g60
S'DM'
p902
S'DO'
p903
g63
tp904
sg65
I00
sg66
g32
(g33
g34
Ntp905
Rp906
(dp907
g38
I4
sg39
g40
sg41
g42
sbsg67
(dp908
g69
I0
sg70
I10
sg71
I1
sg72
I0
ssg73
I00
sg74
(dp909
g69
I0
sg70
I0
sg71
I0
sg72
I0
ssg76
(dp910
g45
I0
sg46
I3
sg47
I1
sg48
I20
ssg78
I0
sg79
I0
sg80
S'Joherd'
p911
sg82
I2
sg83
I0
sg84
I12
sg85
I80
sg86
g87
sg88
(dp912
g90
I10
sg91
I3
sg92
I9
sg93
I9
sg94
I8
sg95
I8
sg96
I8
sg97
I10
sg98
I4
sg99
I13
sg100
I7
sg101
I5
sg102
I8
sg103
I9
sg104
I4
ssg105
I10
sg106
I0
sg107
I1
sg108
I0
sg109
(dp913
g69
I0
sg70
I0
sg71
I0
sg72
I0
ssg111
I0
sg112
I0
sg113
I0
sg114
I0
sg115
(dp914
g117
I11
sg118
I3
sg119
I9
sg120
I9
sg121
I9
sg122
I8
sg123
I8
sg124
I10
sg125
I4
sg126
I13
sg127
I7
sg128
I7
sg129
I8
sg130
I10
sg131
I4
ssg132
(dp915
g90
I11
sg91
I3
sg92
I9
sg93
I9
sg98
I4
sg95
I8
sg96
I8
sg97
I10
sg94
I8
sg99
I13
sg100
I7
sg101
I6
sg102
I8
sg103
I10
sg104
I4
ssg134
I0
sg135
g63
sg136
I0
sg137
I0
sg138
I0
sg139
I8
sg140
I2
sg141
I0
sg142
S'CHS'
p916
sbsS'n1'
p917
(ijoueur
joueur
p918
(dp919
g27
F10.592592592592593
sg28
I0
sg29
I0
sg30
I0
sg31
g32
(g33
g34
Ntp920
Rp921
(dp922
g38
I5
sg39
S'**'
p923
sg41
g302
sbsg43
(dp924
g45
I0
sg46
I0
sg47
I0
sg48
I0
ssg49
(dp925
g45
I0
sg46
I0
sg47
I0
sg48
I0
ssg51
I0
sg52
F10.185185185185185
sg53
I0
sg54
I0
sg55
I0
sg56
I0
sg57
I0
sg58
I0
sg59
(g60
S'PI'
p926
S'N8'
p927
S'TA'
p928
tp929
sg65
I00
sg66
g32
(g33
g34
Ntp930
Rp931
(dp932
g38
I5
sg39
S'**'
p933
sg41
g302
sbsg67
(dp934
g69
I0
sg70
I9
sg71
I1
sg72
I0
ssg73
I00
sg74
(dp935
g69
I0
sg70
I0
sg71
I0
sg72
I0
ssg76
(dp936
g45
I3
sg46
I2
sg47
I2
sg48
I22
ssg78
I0
sg79
I0
sg80
S'Stavehyr'
p937
sg82
I4
sg83
I0
sg84
I11
sg85
I210
sg86
g87
sg88
(dp938
g90
I10
sg91
I9
sg92
I6
sg93
I9
sg94
I5
sg95
I11
sg96
I2
sg97
I11
sg98
I10
sg99
I13
sg100
I3
sg101
I9
sg102
I3
sg103
I12
sg104
I7
ssg105
I9
sg106
I0
sg107
I0
sg108
I0
sg109
(dp939
g69
I0
sg70
I0
sg71
I0
sg72
I0
ssg111
I0
sg112
I0
sg113
I0
sg114
I0
sg115
(dp940
g117
I11
sg118
I10
sg119
I7
sg120
I9
sg121
I5
sg122
I11
sg123
I2
sg124
I11
sg125
I10
sg126
I13
sg127
I6
sg128
I10
sg129
I3
sg130
I14
sg131
I8
ssg132
(dp941
g90
I11
sg91
I9
sg92
I6
sg93
I9
sg98
I10
sg95
I11
sg96
I2
sg97
I11
sg94
I5
sg99
I13
sg100
I3
sg101
I10
sg102
I3
sg103
I13
sg104
I7
ssg134
I0
sg135
g63
sg136
I0
sg137
I0
sg138
I0
sg139
I21
sg140
I7
sg141
I0
sg142
S'CHS'
p942
sbsS'n2'
p943
(ijoueur
joueur
p944
(dp945
g27
F10.172413793103448
sg28
I1
sg29
I0
sg30
I0
sg31
g32
(g33
g34
Ntp946
Rp947
(dp948
g38
I4
sg39
g40
sg41
g42
sbsg43
(dp949
g45
I0
sg46
I0
sg47
I0
sg48
I0
ssg49
(dp950
g45
I0
sg46
I0
sg47
I0
sg48
I0
ssg51
I0
sg52
F10.172413793103448
sg53
I0
sg54
I0
sg55
I0
sg56
I0
sg57
I0
sg58
I0
sg59
(g60
S'TA'
p951
S'PI'
p952
g63
tp953
sg65
I00
sg66
g32
(g33
g34
Ntp954
Rp955
(dp956
g38
I4
sg39
g40
sg41
g42
sbsg67
(dp957
g69
I0
sg70
I9
sg71
I0
sg72
I0
ssg73
I01
sg74
(dp958
g69
I0
sg70
I0
sg71
I0
sg72
I0
ssg76
(dp959
g45
I4
sg46
I1
sg47
I1
sg48
I21
ssg78
I0
sg79
I0
sg80
S'Cloendal'
p960
sg82
I2
sg83
I0
sg84
I14
sg85
I80
sg86
g87
sg88
(dp961
g90
I9
sg91
I11
sg92
I7
sg93
I9
sg94
I5
sg95
I10
sg96
I2
sg97
I10
sg98
I6
sg99
I8
sg100
I6
sg101
I11
sg102
I3
sg103
I11
sg104
I11
ssg105
I4
sg106
I0
sg107
I1
sg108
I0
sg109
(dp962
g69
I0
sg70
I0
sg71
I0
sg72
I0
ssg111
I0
sg112
I0
sg113
I1
sg114
I0
sg115
(dp963
g117
I10
sg118
I11
sg119
I7
sg120
I10
sg121
I5
sg122
I10
sg123
I2
sg124
I10
sg125
I6
sg126
I8
sg127
I7
sg128
I11
sg129
I3
sg130
I11
sg131
I11
ssg132
(dp964
g90
I9
sg91
I11
sg92
I7
sg93
I9
sg98
I6
sg95
I10
sg96
I2
sg97
I10
sg94
I5
sg99
I8
sg100
I6
sg101
I11
sg102
I3
sg103
I11
sg104
I11
ssg134
I0
sg135
g63
sg136
I0
sg137
I0
sg138
I0
sg139
I8
sg140
I0
sg141
I0
sg142
S'CHS'
p965
sbsS'n3'
p966
(ijoueur
joueur
p967
(dp968
g27
F10.148148148148149
sg28
I0
sg29
I0
sg30
I0
sg31
g32
(g33
g34
Ntp969
Rp970
(dp971
g38
I4
sg39
g277
sg41
g42
sbsg43
(dp972
g45
I0
sg46
I0
sg47
I8
sg48
I2
ssg49
(dp973
g45
I0
sg46
I0
sg47
I0
sg48
I0
ssg51
I0
sg52
F10.555555555555555
sg53
I0
sg54
I0
sg55
I0
sg56
I0
sg57
I0
sg58
I0
sg59
(g60
S'PI'
p974
S'TL'
p975
g63
tp976
sg65
I00
sg66
g970
sg67
(dp977
g69
I0
sg70
I10
sg71
I0
sg72
I0
ssg73
I00
sg74
(dp978
g69
I0
sg70
I0
sg71
I0
sg72
I0
ssg76
(dp979
g45
I0
sg46
I0
sg47
I1
sg48
I13
ssg78
I0
sg79
I0
sg80
S'Kareops'
p980
sg82
I11
sg83
I0
sg84
I20
sg85
I128
sg86
g87
sg88
(dp981
g90
I14
sg91
I9
sg92
I7
sg93
I10
sg94
I4
sg95
I12
sg96
I5
sg97
I12
sg98
I8
sg99
I10
sg100
I8
sg101
I9
sg102
I1
sg103
I10
sg104
I9
ssg105
I9
sg106
I0
sg107
I0
sg108
I0
sg109
(dp982
g69
I0
sg70
I0
sg71
I0
sg72
I0
ssg111
I0
sg112
I0
sg113
I0
sg114
I0
sg115
(dp983
g117
I11
sg118
I7
sg119
I6
sg120
I10
sg121
I3
sg122
I9
sg123
I4
sg124
I9
sg125
I6
sg126
I8
sg127
I7
sg128
I10
sg129
I0
sg130
I10
sg131
I8
ssg132
(dp984
g90
I15
sg91
I9
sg92
I7
sg93
I10
sg98
I8
sg95
I12
sg96
I5
sg97
I12
sg94
I4
sg99
I10
sg100
I8
sg101
I10
sg102
I1
sg103
I11
sg104
I9
ssg134
I0
sg135
g63
sg136
I0
sg137
I0
sg138
I0
sg139
I11
sg140
I0
sg141
I0
sg142
S'CHS'
p985
sbsS'n4'
p986
g296
sS'n5'
p987
g173
sS'n6'
p988
g373
sS'n7'
p989
g272
ssS'remplacements'
p990
(dp991
g490
S'n0'
p992
sg509
g992
sg698
g992
sg699
g992
sg766
g992
sg826
g992
sg867
g992
ssb.