ccopy_reg
_reconstructor
p0
(cselection
selection
p1
c__builtin__
object
p2
Ntp3
Rp4
(dp5
S'joues_championat'
p6
I0
sS'pour_championat'
p7
I0
sS'revenus'
p8
I0
sS'joues_coupe'
p9
I0
sS'perdus_championat'
p10
I0
sS'difference_championat'
p11
I0
sS'perdus_coupe'
p12
I0
sS'pour_coupe'
p13
I0
sS'gagnes_championat'
p14
I0
sS'bonus_defensif_championat'
p15
I0
sS'contre_coupe'
p16
I0
sS'_compo_defaut_fatigue'
p17
NsS'bonus_offensif_coupe'
p18
I0
sS'valeur'
p19
I0
sS'bonus_defensif_coupe'
p20
I0
sS'joueurs'
p21
(lp22
(ijoueur
joueur
p23
(dp24
S'rouges_total'
p25
I0
sS'drop_ratees_total'
p26
I1
sS'drops_total'
p27
I6
sS'xp_total'
p28
F130.3432525774306
sS'poste3'
p29
S''
p30
sS'blessure'
p31
I0
sS'poste1'
p32
g30
sS'RG_max'
p33
g0
(cjoueur
rang_new
p34
g2
Ntp35
Rp36
(dp37
S'type_nb'
p38
I4
sS'rang'
p39
S'*'
p40
sS'type'
p41
S'heros'
p42
sbsS'MJ2_total'
p43
(dp44
S'SR'
p45
I0
sS'ST'
p46
I0
sS'CR'
p47
I1
sS'CT'
p48
I0
ssS'MJ3_total'
p49
(dp50
g45
I0
sg46
I0
sg47
I0
sg48
I0
ssS'anciens_clubs'
p51
g30
sS'drop_rates_saison'
p52
I1
sS'xp_saison'
p53
F130.3432525774306
sS'essais_saison'
p54
I2
sS'penalite_ratees_saison'
p55
I0
sS'transformations_saison'
p56
I0
sS'club'
p57
S'AES'
p58
sS'veut_partir'
p59
I00
sS'RG'
p60
g36
sS'MJ1'
p61
(dp62
g45
I2
sg46
I0
sg47
I0
sg48
I11
ssS'MS_probleme'
p63
I00
sS'MJ3'
p64
(dp65
g45
I0
sg46
I0
sg47
I0
sg48
I0
ssS'MJ1_total'
p66
(dp67
g45
I2
sg46
I0
sg47
I0
sg48
I11
ssS'penalites_total'
p68
I0
sS'penalites_saison'
p69
I0
sS'nom'
p70
S'Frathyor'
p71
sS'C'
p72
I7
sS'transformations_total'
p73
I0
sS'D'
p74
I14
sS'VAL'
p75
I120
sS'postes'
p76
(S'dummy'
p77
S'DO'
p78
S'AR'
p79
g30
tp80
sS'poste2'
p81
g30
sS'caracs'
p82
(dp83
S'RP1'
p84
I9
sS'ME'
p85
I7
sS'RP2'
p86
I7
sS'E'
p87
I10
sS'TO'
p88
I7
sS'M'
p89
I8
sS'JP'
p90
I11
sS'RP_tot'
p91
I9
sS'P'
p92
I8
sS'PA'
p93
I11
sS'A'
p94
I11
sS'R'
p95
I10
sS'TB'
p96
I7
sS'PL'
p97
I10
sS'TA'
p98
I7
ssS'jj_passe'
p99
(dp100
S's12'
p101
(ijoueur
joueur
p102
(dp103
g25
I0
sg26
I0
sg27
I0
sg31
I0
sg33
g0
(g34
g2
Ntp104
Rp105
(dp106
g39
g30
sbsg43
(dp107
g45
I0
sg46
I0
sg47
I0
sg48
I0
ssg49
(dp108
g45
I0
sg46
I0
sg47
I0
sg48
I0
ssg51
g30
sg52
I0
sg54
I0
sg55
I0
sg56
I0
sg76
(g77
g78
g30
g30
tp109
sg59
I00
sg60
g0
(g34
g2
Ntp110
Rp111
(dp112
g39
g30
sbsg61
(dp113
g45
I0
sg46
I0
sg47
I0
sg48
I0
ssg63
I00
sg64
(dp114
g45
I0
sg46
I0
sg47
I0
sg48
I0
ssg66
(dp115
g45
I0
sg46
I0
sg47
I0
sg48
I0
ssg68
I0
sg69
I0
sg70
g30
sg72
I0
sg73
I0
sg74
I0
sg75
I0
sg57
g58
sg82
(dp116
g94
I0
sg85
I0
sg86
I0
sg87
I0
sg88
I0
sg84
I0
sg90
I0
sg91
I0
sg92
I0
sg93
I0
sg89
I0
sg95
I0
sg96
I0
sg97
I0
sg98
I0
ssg99
(dp117
sS'fatigue'
p118
I0
sS'changements_postes'
p119
g30
sS'blessures_total'
p120
I0
sS'blessures_saison'
p121
I0
sS'XP'
p122
I0
sS'EV'
p123
F0.0
sS'penalite_ratees_total'
p124
I0
sS'MJ2'
p125
(dp126
g45
I0
sg46
I0
sg47
I0
sg48
I0
ssS'jaunes_total'
p127
I0
sS'caracs_sans_fatigue'
p128
g83
sS'rouges_saison'
p129
I0
sS'transformation_ratees_total'
p130
I0
sS'drops_saison'
p131
I0
sS'transformation_ratees_saison'
p132
I0
sS'MS'
p133
I0
sS'essais_total'
p134
I0
sS'jaunes_saison'
p135
I0
sS'ARM'
p136
g30
sbsS's11'
p137
(ijoueur
joueur
p138
(dp139
g25
I0
sg26
I0
sg27
I0
sg31
I0
sg33
g0
(g34
g2
Ntp140
Rp141
(dp142
g39
g30
sbsg43
(dp143
g45
I0
sg46
I0
sg47
I0
sg48
I0
ssg49
(dp144
g45
I0
sg46
I0
sg47
I0
sg48
I0
ssg51
g30
sg52
I0
sg54
I0
sg55
I0
sg56
I0
sg76
g109
sg59
I00
sg60
g0
(g34
g2
Ntp145
Rp146
(dp147
g39
g30
sbsg61
(dp148
g45
I0
sg46
I0
sg47
I0
sg48
I0
ssg63
I00
sg64
(dp149
g45
I0
sg46
I0
sg47
I0
sg48
I0
ssg66
(dp150
g45
I0
sg46
I0
sg47
I0
sg48
I0
ssg68
I0
sg69
I0
sg70
g30
sg72
I0
sg73
I0
sg74
I0
sg75
I0
sg57
g58
sg82
(dp151
g94
I0
sg85
I0
sg86
I0
sg87
I0
sg88
I0
sg84
I0
sg90
I0
sg91
I0
sg92
I0
sg93
I0
sg89
I0
sg95
I0
sg96
I0
sg97
I0
sg98
I0
ssg99
(dp152
sg118
I0
sg119
g30
sg120
I0
sg121
I0
sg122
I0
sg123
F0.0
sg124
I0
sg125
(dp153
g45
I0
sg46
I0
sg47
I0
sg48
I0
ssg127
I0
sg128
g83
sg129
I0
sg130
I0
sg131
I0
sg132
I0
sg133
I0
sg134
I0
sg135
I0
sg136
g30
sbssg118
I2
sg119
g30
sg120
I0
sg121
I0
sg122
I0
sg123
F9.818181818181818
sg124
I0
sg125
(dp154
g45
I0
sg46
I0
sg47
I1
sg48
I0
ssg127
I0
sg128
g83
sg129
I0
sg130
I0
sg131
I6
sg132
I0
sg133
I12
sg134
I2
sg135
I0
sg136
S'CHS'
p155
sba(ijoueur
joueur
p156
(dp157
g25
I0
sg26
I0
sg27
I0
sg28
F130.04698468824247
sg29
g30
sg31
I0
sg32
g30
sg33
g0
(g34
g2
Ntp158
Rp159
(dp160
g38
I5
sg39
S'**'
p161
sg41
S'seigneur'
p162
sbsg43
(dp163
S'SR'
p164
I0
sS'CT'
p165
I0
sS'CR'
p166
I0
sS'ST'
p167
I0
ssg49
(dp168
g164
I0
sg165
I0
sg166
I0
sg167
I0
ssg74
I17
sg51
g30
sg52
I0
sg53
F130.04698468824247
sg54
I1
sg55
I0
sg56
I0
sg57
g58
sg59
I00
sg60
g159
sg61
(dp169
g164
I0
sg165
I12
sg166
I0
sg167
I2
ssg63
I00
sg64
(dp170
g164
I0
sg165
I0
sg166
I0
sg167
I0
ssg66
(dp171
g164
I0
sg165
I12
sg166
I0
sg167
I2
ssg68
I0
sg69
I0
sg70
S'Wilmendroth'
p172
sg72
I8
sg73
I0
sg125
(dp173
g164
I0
sg165
I0
sg166
I0
sg167
I0
ssg75
I294
sg76
(S'dummy'
p174
S'C2'
p175
g30
g30
tp176
sg81
g30
sg82
(dp177
S'RP1'
p178
I12
sS'ME'
p179
I7
sS'RP2'
p180
I8
sS'E'
p181
I10
sS'P'
p182
I8
sS'JP'
p183
I7
sS'M'
p184
I8
sS'RP_tot'
p185
I13
sS'TO'
p186
I11
sS'PA'
p187
I12
sS'A'
p188
I12
sS'R'
p189
I12
sS'TB'
p190
I7
sS'PL'
p191
I13
sS'TA'
p192
I5
ssg99
(dp193
S's12'
p194
(ijoueur
joueur
p195
(dp196
g25
I0
sg26
I0
sg27
I0
sg31
I0
sg33
g0
(g34
g2
Ntp197
Rp198
(dp199
g39
g30
sbsg43
(dp200
g164
I0
sg165
I0
sg166
I0
sg167
I0
ssg49
(dp201
g164
I0
sg165
I0
sg166
I0
sg167
I0
ssg74
I0
sg51
g30
sg52
I0
sg54
I0
sg55
I0
sg56
I0
sg76
(g174
S'CE'
p202
g30
g30
tp203
sg59
I00
sg60
g0
(g34
g2
Ntp204
Rp205
(dp206
g39
g30
sbsg61
(dp207
g164
I0
sg165
I0
sg166
I0
sg167
I0
ssg63
I00
sg64
(dp208
g164
I0
sg165
I0
sg166
I0
sg167
I0
ssg66
(dp209
g164
I0
sg165
I0
sg166
I0
sg167
I0
ssg68
I0
sg69
I0
sg70
g30
sg72
I0
sg73
I0
sg125
(dp210
g164
I0
sg165
I0
sg166
I0
sg167
I0
ssg75
I0
sg57
g58
sg82
(dp211
g188
I0
sg179
I0
sg180
I0
sg181
I0
sg182
I0
sg178
I0
sg183
I0
sg185
I0
sg186
I0
sg187
I0
sg184
I0
sg189
I0
sg190
I0
sg191
I0
sg192
I0
ssg99
(dp212
sg118
I0
sg119
g30
sg120
I0
sg122
I0
sg123
F0.0
sg124
I0
sg121
I0
sg127
I0
sg128
g177
sg129
I0
sg130
I0
sg131
I0
sg132
I0
sg133
I0
sg134
I0
sg135
I0
sg136
g30
sbsS's11'
p213
(ijoueur
joueur
p214
(dp215
g25
I0
sg26
I0
sg27
I0
sg31
I0
sg33
g0
(g34
g2
Ntp216
Rp217
(dp218
g39
g30
sbsg43
(dp219
g164
I0
sg165
I0
sg166
I0
sg167
I0
ssg49
(dp220
g164
I0
sg165
I0
sg166
I0
sg167
I0
ssg74
I0
sg51
g30
sg52
I0
sg54
I0
sg55
I0
sg56
I0
sg76
g203
sg59
I00
sg60
g0
(g34
g2
Ntp221
Rp222
(dp223
g39
g30
sbsg61
(dp224
g164
I0
sg165
I0
sg166
I0
sg167
I0
ssg63
I00
sg64
(dp225
g164
I0
sg165
I0
sg166
I0
sg167
I0
ssg66
(dp226
g164
I0
sg165
I0
sg166
I0
sg167
I0
ssg68
I0
sg69
I0
sg70
g30
sg72
I0
sg73
I0
sg125
(dp227
g164
I0
sg165
I0
sg166
I0
sg167
I0
ssg75
I0
sg57
g58
sg82
(dp228
g188
I0
sg179
I0
sg180
I0
sg181
I0
sg182
I0
sg178
I0
sg183
I0
sg185
I0
sg186
I0
sg187
I0
sg184
I0
sg189
I0
sg190
I0
sg191
I0
sg192
I0
ssg99
(dp229
sg118
I0
sg119
g30
sg120
I0
sg122
I0
sg123
F0.0
sg124
I0
sg121
I0
sg127
I0
sg128
g177
sg129
I0
sg130
I0
sg131
I0
sg132
I0
sg133
I0
sg134
I0
sg135
I0
sg136
g30
sbssg118
I6
sg119
g30
sg120
I0
sg122
I0
sg123
F11.344827586206897
sg124
I0
sg121
I0
sg127
I0
sg128
g177
sg129
I0
sg130
I0
sg131
I0
sg132
I0
sg133
I29
sg134
I1
sg135
I0
sg136
S'CHS'
p230
sba(ijoueur
joueur
p231
(dp232
g25
I0
sg26
I0
sg27
I0
sg28
F130.19900232092488
sg29
g30
sg31
I0
sg32
g30
sg33
g0
(g34
g2
Ntp233
Rp234
(dp235
g38
I4
sg39
S'x'
p236
sg41
g42
sbsg43
(dp237
g45
I0
sg46
I0
sg47
I0
sg48
I0
ssg49
(dp238
g45
I0
sg46
I0
sg47
I0
sg48
I0
ssg51
g30
sg52
I0
sg53
F130.19900232092488
sg54
I2
sg55
I0
sg56
I0
sg57
g58
sg59
I00
sg60
g234
sg61
(dp239
g45
I2
sg46
I0
sg47
I0
sg48
I12
ssg63
I00
sg64
(dp240
g45
I0
sg46
I0
sg47
I0
sg48
I0
ssg66
(dp241
g45
I2
sg46
I0
sg47
I0
sg48
I12
ssg68
I0
sg69
I0
sg70
S'Vlathaer'
p242
sg72
I9
sg73
I0
sg74
I19
sg75
I190
sg76
(g77
S'AI'
p243
S'CE'
p244
g30
tp245
sg81
g30
sg82
(dp246
g84
I13
sg85
I6
sg86
I8
sg87
I9
sg88
I9
sg89
I8
sg90
I6
sg91
I14
sg92
I7
sg93
I10
sg94
I11
sg95
I7
sg96
I6
sg97
I10
sg98
I6
ssg99
(dp247
S's12'
p248
(ijoueur
joueur
p249
(dp250
g25
I0
sg26
I0
sg27
I0
sg31
I0
sg33
g0
(g34
g2
Ntp251
Rp252
(dp253
g39
g30
sbsg43
(dp254
g45
I0
sg46
I0
sg47
I0
sg48
I0
ssg49
(dp255
g45
I0
sg46
I0
sg47
I0
sg48
I0
ssg51
g30
sg52
I0
sg54
I0
sg55
I0
sg56
I0
sg76
(g77
g243
g30
g30
tp256
sg59
I00
sg60
g0
(g34
g2
Ntp257
Rp258
(dp259
g39
g30
sbsg61
(dp260
g45
I0
sg46
I0
sg47
I0
sg48
I0
ssg63
I00
sg64
(dp261
g45
I0
sg46
I0
sg47
I0
sg48
I0
ssg66
(dp262
g45
I0
sg46
I0
sg47
I0
sg48
I0
ssg68
I0
sg69
I0
sg70
g30
sg72
I0
sg73
I0
sg74
I0
sg75
I0
sg57
g58
sg82
(dp263
g94
I0
sg85
I0
sg86
I0
sg87
I0
sg88
I0
sg84
I0
sg90
I0
sg91
I0
sg92
I0
sg93
I0
sg89
I0
sg95
I0
sg96
I0
sg97
I0
sg98
I0
ssg99
(dp264
sg118
I0
sg119
g30
sg120
I0
sg121
I0
sg122
I0
sg123
F0.0
sg124
I0
sg125
(dp265
g45
I0
sg46
I0
sg47
I0
sg48
I0
ssg127
I0
sg128
g246
sg129
I0
sg130
I0
sg131
I0
sg132
I0
sg133
I0
sg134
I0
sg135
I0
sg136
g30
sbsS's11'
p266
(ijoueur
joueur
p267
(dp268
g25
I0
sg26
I0
sg27
I0
sg31
I0
sg33
g0
(g34
g2
Ntp269
Rp270
(dp271
g39
g30
sbsg43
(dp272
g45
I0
sg46
I0
sg47
I0
sg48
I0
ssg49
(dp273
g45
I0
sg46
I0
sg47
I0
sg48
I0
ssg51
g30
sg52
I0
sg54
I0
sg55
I0
sg56
I0
sg76
g256
sg59
I00
sg60
g0
(g34
g2
Ntp274
Rp275
(dp276
g39
g30
sbsg61
(dp277
g45
I0
sg46
I0
sg47
I0
sg48
I0
ssg63
I00
sg64
(dp278
g45
I0
sg46
I0
sg47
I0
sg48
I0
ssg66
(dp279
g45
I0
sg46
I0
sg47
I0
sg48
I0
ssg68
I0
sg69
I0
sg70
g30
sg72
I0
sg73
I0
sg74
I0
sg75
I0
sg57
g58
sg82
(dp280
g94
I0
sg85
I0
sg86
I0
sg87
I0
sg88
I0
sg84
I0
sg90
I0
sg91
I0
sg92
I0
sg93
I0
sg89
I0
sg95
I0
sg96
I0
sg97
I0
sg98
I0
ssg99
(dp281
sg118
I0
sg119
g30
sg120
I0
sg121
I0
sg122
I0
sg123
F0.0
sg124
I0
sg125
(dp282
g45
I0
sg46
I0
sg47
I0
sg48
I0
ssg127
I0
sg128
g246
sg129
I0
sg130
I0
sg131
I0
sg132
I0
sg133
I0
sg134
I0
sg135
I0
sg136
g30
sbssg118
I2
sg119
g30
sg120
I0
sg121
I0
sg122
I0
sg123
F10.193548387096774
sg124
I0
sg125
(dp283
g45
I0
sg46
I0
sg47
I0
sg48
I0
ssg127
I0
sg128
g246
sg129
I0
sg130
I0
sg131
I0
sg132
I0
sg133
I19
sg134
I2
sg135
I0
sg136
g155
sba(ijoueur
joueur
p284
(dp285
S'EV_saison_11'
p286
F9.407407407407407
sg25
I0
sS'EV_saison_12'
p287
F10.11111111111111
sg119
g30
sg27
I0
sg28
F168.55576310862008
sg31
I0
sg33
g0
(g34
g2
Ntp288
Rp289
(dp290
g38
I5
sg39
S'**'
p291
sg41
S'seigneur'
p292
sbsg43
(dp293
S'SR'
p294
I0
sS'ST'
p295
I0
sS'CR'
p296
I0
sS'CT'
p297
I0
ssg49
(dp298
g294
I0
sg295
I0
sg296
I0
sg297
I0
ssS'xp'
p299
I0
sS'drop_rates_total'
p300
I0
sg52
I0
sg53
F168.55576310862008
sg63
I00
sg54
I1
sg55
I0
sg56
I0
sg76
(S'dummy'
p301
S'PI'
p302
g30
g30
tp303
sg59
I00
sg60
g289
sg61
(dp304
S'SR'
p305
I1
sS'ST'
p306
I1
sS'CR'
p307
I3
sS'CT'
p308
I11
ssg125
(dp309
g305
I0
sg306
I0
sg307
I0
sg308
I0
ssg64
(dp310
g305
I0
sg306
I0
sg307
I0
sg308
I0
ssg66
(dp311
g294
I1
sg295
I1
sg296
I26
sg297
I17
ssg68
I0
sg69
I0
sg70
S'Nravyx'
p312
sg72
I9
sg73
I0
sg74
I25
sg75
I218
sg57
S'ALT'
p313
sg82
(dp314
S'A'
p315
I12
sS'ME'
p316
I12
sS'RP2'
p317
I9
sS'E'
p318
I8
sS'TO'
p319
I10
sS'RP1'
p320
I13
sS'JP'
p321
I3
sS'RP_tot'
p322
I14
sS'P'
p323
I4
sS'PA'
p324
I11
sS'M'
p325
I9
sS'R'
p326
I8
sS'TB'
p327
I3
sS'PL'
p328
I10
sS'TA'
p329
I8
ssg99
(dp330
S's12'
p331
(ijoueur
joueur
p332
(dp333
g286
F9.407407407407407
sg25
I0
sg119
g30
sg27
I0
sg31
I0
sg33
g0
(g34
g2
Ntp334
Rp335
(dp336
g38
I5
sg39
S'**'
p337
sg41
S'seigneur'
p338
sbsg43
(dp339
S'SR'
p340
I0
sS'ST'
p341
I0
sS'CR'
p342
I0
sS'CT'
p343
I0
ssg49
(dp344
g340
I0
sg341
I0
sg342
I0
sg343
I0
ssg300
I0
sg123
F10.11111111111111
sg52
I0
sg54
I0
sg55
I0
sg56
I0
sg76
(S'dummy'
p345
S'PI'
p346
g30
g30
tp347
sg59
I01
sg60
g335
sg61
(dp348
S'SR'
p349
I0
sS'CT'
p350
I3
sS'CR'
p351
I12
sS'ST'
p352
I0
ssg63
I00
sg64
(dp353
g349
I0
sg350
I0
sg351
I0
sg352
I0
ssg66
(dp354
g340
I0
sg341
I0
sg342
I23
sg343
I6
ssg68
I0
sg69
I0
sg70
S'Nravyx'
p355
sg72
I9
sg73
I0
sg74
I25
sg75
I224
sg57
S'KHR'
p356
sg82
(dp357
S'A'
p358
I12
sS'ME'
p359
I10
sS'RP2'
p360
I9
sS'E'
p361
I8
sS'TO'
p362
I10
sS'RP1'
p363
I13
sS'JP'
p364
I3
sS'RP_tot'
p365
I15
sS'P'
p366
I4
sS'PA'
p367
I11
sS'M'
p368
I8
sS'R'
p369
I8
sS'TB'
p370
I3
sS'PL'
p371
I10
sS'TA'
p372
I8
ssg99
(dp373
S's11'
p374
(ijoueur
joueur
p375
(dp376
g25
I0
sg27
I0
sg31
I0
sg33
g0
(g34
g2
Ntp377
Rp378
(dp379
g38
I5
sg39
S'**'
p380
sg41
S'seigneur'
p381
sbsg43
(dp382
S'SR'
p383
I0
sS'ST'
p384
I0
sS'CR'
p385
I0
sS'CT'
p386
I0
ssg49
(dp387
g383
I0
sg384
I0
sg385
I0
sg386
I0
ssg300
I0
sg52
I0
sg63
I00
sg54
I1
sg55
I0
sg56
I0
sg76
(S'dummy'
p388
S'PI'
p389
g30
g30
tp390
sg59
I00
sg60
g0
(g34
g2
Ntp391
Rp392
(dp393
g38
I4
sg39
S'x'
p394
sg41
S'heros'
p395
sbsg61
(dp396
g383
I0
sg384
I0
sg385
I11
sg386
I3
ssg125
(dp397
g383
I0
sg384
I0
sg385
I0
sg386
I0
ssg64
(dp398
g383
I0
sg384
I0
sg385
I0
sg386
I0
ssg66
(dp399
g383
I0
sg384
I0
sg385
I11
sg386
I3
ssg68
I0
sg69
I0
sg70
S'Nravyx'
p400
sg72
I9
sg73
I0
sg74
I25
sg75
I114
sg57
S'KHR'
p401
sg82
(dp402
S'A'
p403
I10
sS'ME'
p404
I10
sS'RP2'
p405
I9
sS'E'
p406
I8
sS'TO'
p407
I9
sS'RP1'
p408
I11
sS'JP'
p409
I3
sS'RP_tot'
p410
I13
sS'P'
p411
I4
sS'PA'
p412
I10
sS'M'
p413
I8
sS'R'
p414
I7
sS'TB'
p415
I3
sS'PL'
p416
I10
sS'TA'
p417
I8
ssg118
I0
sg26
I0
sg120
I0
sg122
I0
sg123
F9.407407407407407
sg124
I0
sg121
I0
sg127
I0
sS'caracs_saison_11'
p418
(dp419
S'A'
p420
I10
sS'ME'
p421
I10
sS'RP2'
p422
I9
sS'E'
p423
I8
sS'TO'
p424
I9
sS'RP1'
p425
I11
sS'JP'
p426
I3
sS'RP_tot'
p427
I13
sS'P'
p428
I4
sS'PA'
p429
I10
sS'M'
p430
I8
sS'R'
p431
I7
sS'TB'
p432
I3
sS'PL'
p433
I10
sS'TA'
p434
I8
ssg128
g402
sg129
I0
sg51
g30
sg130
I0
sg131
I0
sg132
I0
sg133
I12
sg134
I1
sg135
I0
sg136
S'CHS'
p435
sbssg118
I0
sg26
I0
sg120
I0
sg122
I0
sg125
(dp436
g349
I0
sg350
I0
sg351
I0
sg352
I0
ssg124
I0
sg121
I0
sg127
I0
sg418
(dp437
S'A'
p438
I10
sS'ME'
p439
I10
sS'RP2'
p440
I9
sS'E'
p441
I8
sS'P'
p442
I4
sS'RP1'
p443
I11
sS'JP'
p444
I3
sS'RP_tot'
p445
I13
sS'TO'
p446
I9
sS'PA'
p447
I10
sS'M'
p448
I8
sS'R'
p449
I7
sS'TB'
p450
I3
sS'PL'
p451
I10
sS'TA'
p452
I8
ssg128
g357
sg129
I0
sg51
g30
sg130
I0
sg131
I0
sg132
I0
sg133
I23
sg134
I1
sg135
I0
sg136
S'CHS'
p453
sbsS's11'
p454
(ijoueur
joueur
p455
(dp456
g25
I0
sg27
I0
sg31
I0
sg33
g0
(g34
g2
Ntp457
Rp458
(dp459
g38
I5
sg39
S'**'
p460
sg41
S'seigneur'
p461
sbsg43
(dp462
S'SR'
p463
I0
sS'ST'
p464
I0
sS'CR'
p465
I0
sS'CT'
p466
I0
ssg49
(dp467
g463
I0
sg464
I0
sg465
I0
sg466
I0
ssg300
I0
sg52
I0
sg63
I00
sg54
I1
sg55
I0
sg56
I0
sg76
(S'dummy'
p468
S'PI'
p469
g30
g30
tp470
sg59
I00
sg60
g0
(g34
g2
Ntp471
Rp472
(dp473
g38
I4
sg39
S'x'
p474
sg41
S'heros'
p475
sbsg61
(dp476
g463
I0
sg464
I0
sg465
I11
sg466
I3
ssg125
(dp477
g463
I0
sg464
I0
sg465
I0
sg466
I0
ssg64
(dp478
g463
I0
sg464
I0
sg465
I0
sg466
I0
ssg66
(dp479
g463
I0
sg464
I0
sg465
I11
sg466
I3
ssg68
I0
sg69
I0
sg70
S'Nravyx'
p480
sg72
I9
sg73
I0
sg74
I25
sg75
I114
sg57
S'KHR'
p481
sg82
(dp482
S'A'
p483
I10
sS'ME'
p484
I10
sS'RP2'
p485
I9
sS'E'
p486
I8
sS'TO'
p487
I9
sS'RP1'
p488
I11
sS'JP'
p489
I3
sS'RP_tot'
p490
I13
sS'P'
p491
I4
sS'PA'
p492
I10
sS'M'
p493
I8
sS'R'
p494
I7
sS'TB'
p495
I3
sS'PL'
p496
I10
sS'TA'
p497
I8
ssg118
I0
sg26
I0
sg120
I0
sg122
I0
sg123
F9.407407407407407
sg124
I0
sg121
I0
sg127
I0
sg418
(dp498
S'A'
p499
I10
sS'ME'
p500
I10
sS'RP2'
p501
I9
sS'E'
p502
I8
sS'TO'
p503
I9
sS'RP1'
p504
I11
sS'JP'
p505
I3
sS'RP_tot'
p506
I13
sS'P'
p507
I4
sS'PA'
p508
I10
sS'M'
p509
I8
sS'R'
p510
I7
sS'TB'
p511
I3
sS'PL'
p512
I10
sS'TA'
p513
I8
ssg128
g482
sg129
I0
sg51
g30
sg130
I0
sg131
I0
sg132
I0
sg133
I12
sg134
I1
sg135
I0
sg136
S'CHS'
p514
sbssg118
I3
sg26
I0
sg120
I0
sg122
I0
sg123
F10.37037037037037
sg124
I0
sg121
I0
sg127
I0
sg418
(dp515
S'A'
p516
I10
sS'ME'
p517
I10
sS'RP2'
p518
I9
sS'E'
p519
I8
sS'P'
p520
I4
sS'RP1'
p521
I11
sS'JP'
p522
I3
sS'RP_tot'
p523
I13
sS'TO'
p524
I9
sS'PA'
p525
I10
sS'M'
p526
I8
sS'R'
p527
I7
sS'TB'
p528
I3
sS'PL'
p529
I10
sS'TA'
p530
I8
ssg128
g314
sg129
I0
sS'caracs_saison_12'
p531
(dp532
sg130
I0
sg51
S'KHR 13'
p533
sg131
I0
sg132
I0
sg133
I14
sg134
I2
sg135
I0
sg136
S'CHS'
p534
sba(ijoueur
joueur
p535
(dp536
g286
F10.827586206896552
sg25
I0
sg287
F11.518518518518519
sg119
S'TA -> PI : 13'
p537
sg27
I0
sg28
F159.4740914579144
sg31
I0
sg33
g0
(g34
g2
Ntp538
Rp539
(dp540
g38
I4
sg39
S'x'
p541
sg41
S'heros'
p542
sbsg43
(dp543
S'SR'
p544
I0
sS'ST'
p545
I0
sS'CR'
p546
I0
sS'CT'
p547
I0
ssg49
(dp548
g544
I0
sg545
I0
sg546
I0
sg547
I0
ssg299
I0
sg300
I0
sg123
F11.37037037037037
sg52
I0
sS'transformations'
p549
I0
sS'penalites'
p550
I0
sg54
I2
sg55
I0
sg56
I0
sg76
(S'dummy'
p551
S'PI'
p552
S'TA'
p553
g30
tp554
sg59
I00
sg60
g0
(g34
g2
Ntp555
Rp556
(dp557
g38
I4
sg39
S'x'
p558
sg41
g542
sbsg61
(dp559
g305
I0
sg306
I2
sg307
I0
sg308
I13
ssg63
I00
sg64
(dp560
g305
I0
sg306
I0
sg307
I0
sg308
I0
ssg66
(dp561
g544
I1
sg545
I11
sg546
I0
sg547
I41
ssg68
I0
sg69
I0
sg70
S'Naharx'
p562
sg72
I8
sg73
I0
sg74
I17
sg75
I288
sg57
g313
sg82
(dp563
S'A'
p564
I10
sS'ME'
p565
I13
sS'RP2'
p566
I9
sS'E'
p567
I11
sS'TO'
p568
I9
sS'RP1'
p569
I11
sS'JP'
p570
I4
sS'RP_tot'
p571
I12
sS'P'
p572
I5
sS'PA'
p573
I10
sS'M'
p574
I6
sS'R'
p575
I11
sS'TB'
p576
I2
sS'PL'
p577
I12
sS'TA'
p578
I9
ssg99
(dp579
S's12'
p580
(ijoueur
joueur
p581
(dp582
g286
F10.827586206896552
sg25
I0
sg119
g30
sg27
I0
sg31
I0
sg33
g0
(g34
g2
Ntp583
Rp584
(dp585
g38
I4
sg39
S'x'
p586
sg41
S'heros'
p587
sbsg43
(dp588
S'SR'
p589
I1
sS'ST'
p590
I9
sS'CR'
p591
I0
sS'CT'
p592
I28
ssg49
(dp593
g589
I0
sg590
I0
sg591
I0
sg592
I0
ssg125
(dp594
S'SR'
p595
I0
sS'CT'
p596
I13
sS'CR'
p597
I0
sS'ST'
p598
I6
ssg300
I0
sg52
I0
sg549
I0
sg550
I0
sg54
I8
sg55
I0
sg56
I0
sg76
(S'dummy'
p599
S'TA'
p600
S'PI'
p601
g30
tp602
sg59
I00
sg60
g0
(g34
g2
Ntp603
Rp604
(dp605
g38
I4
sg39
S'x'
p606
sg41
g587
sbsg61
(dp607
g595
I0
sg596
I0
sg597
I0
sg598
I0
ssg63
I00
sg64
(dp608
g595
I0
sg596
I0
sg597
I0
sg598
I0
ssg66
(dp609
g589
I0
sg590
I0
sg591
I0
sg592
I0
ssg68
I0
sg69
I0
sg70
S'Naharx'
p610
sg72
I8
sg73
I0
sg74
I17
sg75
I288
sg57
S'ALT'
p611
sg82
(dp612
S'A'
p613
I10
sS'ME'
p614
I13
sS'RP2'
p615
I9
sS'E'
p616
I11
sS'TO'
p617
I9
sS'RP1'
p618
I11
sS'JP'
p619
I4
sS'RP_tot'
p620
I13
sS'P'
p621
I5
sS'PA'
p622
I10
sS'M'
p623
I6
sS'R'
p624
I11
sS'TB'
p625
I2
sS'PL'
p626
I12
sS'TA'
p627
I9
ssg99
(dp628
S's11'
p629
(ijoueur
joueur
p630
(dp631
g25
I0
sg27
I0
sg31
I0
sg33
g0
(g34
g2
Ntp632
Rp633
(dp634
g38
I4
sg39
S'x'
p635
sg41
S'heros'
p636
sbsg43
(dp637
S'SR'
p638
I1
sS'ST'
p639
I3
sS'CR'
p640
I0
sS'CT'
p641
I15
ssg49
(dp642
g638
I0
sg639
I0
sg640
I0
sg641
I0
ssg125
(dp643
g638
I1
sg639
I3
sg640
I0
sg641
I15
ssg300
I0
sg52
I0
sg549
I0
sg550
I0
sg54
I1
sg55
I0
sg56
I0
sg76
(S'dummy'
p644
S'TA'
p645
S'PI'
p646
g30
tp647
sg59
I00
sg60
g0
(g34
g2
Ntp648
Rp649
(dp650
g38
I4
sg39
S'x'
p651
sg41
g636
sbsg61
(dp652
g638
I0
sg639
I0
sg640
I0
sg641
I0
ssg63
I00
sg64
(dp653
g638
I0
sg639
I0
sg640
I0
sg641
I0
ssg66
(dp654
g638
I0
sg639
I0
sg640
I0
sg641
I0
ssg68
I0
sg69
I0
sg70
S'Naharx'
p655
sg72
I8
sg73
I0
sg74
I17
sg75
I288
sg57
S'ALT'
p656
sg82
(dp657
S'A'
p658
I11
sS'ME'
p659
I11
sS'RP2'
p660
I8
sS'E'
p661
I11
sS'TO'
p662
I9
sS'RP1'
p663
I11
sS'JP'
p664
I4
sS'RP_tot'
p665
I12
sS'P'
p666
I5
sS'PA'
p667
I10
sS'M'
p668
I7
sS'R'
p669
I11
sS'TB'
p670
I2
sS'PL'
p671
I12
sS'TA'
p672
I9
ssg118
I0
sg26
I0
sg120
I0
sg122
I0
sg123
F10.827586206896552
sg124
I0
sS'drops'
p673
I0
sg121
I0
sg127
I1
sg418
(dp674
S'A'
p675
I11
sS'ME'
p676
I11
sS'RP2'
p677
I8
sS'E'
p678
I11
sS'TO'
p679
I9
sS'RP1'
p680
I11
sS'JP'
p681
I4
sS'RP_tot'
p682
I12
sS'P'
p683
I5
sS'PA'
p684
I10
sS'M'
p685
I7
sS'R'
p686
I11
sS'TB'
p687
I2
sS'PL'
p688
I12
sS'TA'
p689
I9
ssg128
g657
sg129
I0
sg51
S'PRG 11'
p690
sg130
I0
sg131
I0
sg132
I0
sg133
I28
sg134
I3
sg135
I1
sg136
S'CHS'
p691
sbssg118
I9
sg26
I0
sg120
I0
sg122
I0
sg123
F11.068965517241379
sg124
I0
sg673
I0
sg121
I0
sg127
I2
sg418
(dp692
S'A'
p693
I11
sS'ME'
p694
I11
sS'RP2'
p695
I8
sS'E'
p696
I11
sS'P'
p697
I5
sS'RP1'
p698
I11
sS'JP'
p699
I4
sS'RP_tot'
p700
I12
sS'TO'
p701
I9
sS'PA'
p702
I10
sS'M'
p703
I7
sS'R'
p704
I11
sS'TB'
p705
I2
sS'PL'
p706
I12
sS'TA'
p707
I9
ssg128
g612
sg129
I0
sg51
S'PRG 11'
p708
sg130
I0
sg131
I0
sg132
I0
sg133
I28
sg134
I11
sg135
I1
sg136
S'CHS'
p709
sbsS's11'
p710
(ijoueur
joueur
p711
(dp712
g25
I0
sg27
I0
sg31
I0
sg33
g0
(g34
g2
Ntp713
Rp714
(dp715
g38
I4
sg39
S'x'
p716
sg41
S'heros'
p717
sbsg43
(dp718
S'SR'
p719
I1
sS'ST'
p720
I3
sS'CR'
p721
I0
sS'CT'
p722
I15
ssg49
(dp723
g719
I0
sg720
I0
sg721
I0
sg722
I0
ssg125
(dp724
g719
I1
sg720
I3
sg721
I0
sg722
I15
ssg300
I0
sg52
I0
sg549
I0
sg550
I0
sg54
I1
sg55
I0
sg56
I0
sg76
(S'dummy'
p725
S'TA'
p726
S'PI'
p727
g30
tp728
sg59
I00
sg60
g0
(g34
g2
Ntp729
Rp730
(dp731
g38
I4
sg39
S'x'
p732
sg41
g717
sbsg61
(dp733
g719
I0
sg720
I0
sg721
I0
sg722
I0
ssg63
I00
sg64
(dp734
g719
I0
sg720
I0
sg721
I0
sg722
I0
ssg66
(dp735
g719
I0
sg720
I0
sg721
I0
sg722
I0
ssg68
I0
sg69
I0
sg70
S'Naharx'
p736
sg72
I8
sg73
I0
sg74
I17
sg75
I288
sg57
S'ALT'
p737
sg82
(dp738
S'A'
p739
I11
sS'ME'
p740
I11
sS'RP2'
p741
I8
sS'E'
p742
I11
sS'TO'
p743
I9
sS'RP1'
p744
I11
sS'JP'
p745
I4
sS'RP_tot'
p746
I12
sS'P'
p747
I5
sS'PA'
p748
I10
sS'M'
p749
I7
sS'R'
p750
I11
sS'TB'
p751
I2
sS'PL'
p752
I12
sS'TA'
p753
I9
ssg118
I0
sg26
I0
sg120
I0
sg122
I0
sg123
F10.827586206896552
sg124
I0
sg673
I0
sg121
I0
sg127
I1
sg418
(dp754
S'A'
p755
I11
sS'ME'
p756
I11
sS'RP2'
p757
I8
sS'E'
p758
I11
sS'TO'
p759
I9
sS'RP1'
p760
I11
sS'JP'
p761
I4
sS'RP_tot'
p762
I12
sS'P'
p763
I5
sS'PA'
p764
I10
sS'M'
p765
I7
sS'R'
p766
I11
sS'TB'
p767
I2
sS'PL'
p768
I12
sS'TA'
p769
I9
ssg128
g738
sg129
I0
sg51
S'PRG 11'
p770
sg130
I0
sg131
I0
sg132
I0
sg133
I28
sg134
I3
sg135
I1
sg136
S'CHS'
p771
sbssg118
I6
sg26
I0
sg120
I1
sg122
I0
sg125
(dp772
g305
I0
sg306
I0
sg307
I0
sg308
I0
ssg124
I0
sg53
F159.4740914579144
sg673
I0
sg121
I1
sg127
I2
sg418
(dp773
S'A'
p774
I11
sS'ME'
p775
I11
sS'RP2'
p776
I8
sS'E'
p777
I11
sS'P'
p778
I5
sS'RP1'
p779
I11
sS'JP'
p780
I4
sS'RP_tot'
p781
I12
sS'TO'
p782
I9
sS'PA'
p783
I10
sS'M'
p784
I7
sS'R'
p785
I11
sS'TB'
p786
I2
sS'PL'
p787
I12
sS'TA'
p788
I9
ssg128
g563
sg129
I0
sg531
(dp789
sg130
I0
sg51
S'PRG 11'
p790
sg131
I0
sg132
I0
sg133
I28
sg134
I13
sg135
I0
sg136
S'CHS'
p791
sba(ijoueur
joueur
p792
(dp793
g286
F10.973684210526315
sg25
I0
sg287
F11.394736842105264
sg119
g30
sg27
I0
sg28
F158.08466947551088
sg31
I0
sg33
g0
(g34
g2
Ntp794
Rp795
(dp796
g38
I4
sg39
S'x'
p797
sg41
g542
sbsg43
(dp798
g544
I2
sg545
I0
sg546
I0
sg547
I1
ssg49
(dp799
g544
I0
sg545
I0
sg546
I0
sg547
I0
ssg299
I0
sg300
I0
sg123
F11.68421052631579
sg52
I0
sg549
I0
sg550
I0
sg54
I1
sg55
I0
sg56
I0
sg76
(S'dummy'
p800
S'TL'
p801
S'N8'
p802
g30
tp803
sg59
I00
sg60
g0
(g34
g2
Ntp804
Rp805
(dp806
g38
I4
sg39
S'x'
p807
sg41
g542
sbsg61
(dp808
g305
I0
sg306
I0
sg307
I0
sg308
I13
ssg63
I00
sg64
(dp809
g305
I0
sg306
I0
sg307
I0
sg308
I0
ssg66
(dp810
g544
I2
sg545
I4
sg546
I0
sg547
I41
ssg68
I0
sg69
I0
sg70
S'Ryskort'
p811
sg72
I8
sg73
I0
sg74
I19
sg75
I150
sg57
g313
sg82
(dp812
g564
I9
sg565
I11
sg566
I8
sg567
I9
sg568
I13
sg569
I10
sg570
I3
sg571
I11
sg572
I6
sg573
I10
sg574
I11
sg575
I12
sg576
I6
sg577
I14
sg578
I6
ssg99
(dp813
g580
(ijoueur
joueur
p814
(dp815
g286
F10.973684210526315
sg25
I0
sg119
g30
sg27
I0
sg31
I0
sg33
g0
(g34
g2
Ntp816
Rp817
(dp818
g38
I4
sg39
S'x'
p819
sg41
g587
sbsg43
(dp820
g589
I0
sg590
I0
sg591
I0
sg592
I1
ssg49
(dp821
g589
I0
sg590
I0
sg591
I0
sg592
I0
ssg125
(dp822
g595
I0
sg596
I0
sg597
I0
sg598
I0
ssg300
I0
sg52
I0
sg549
I0
sg550
I0
sg54
I2
sg55
I0
sg56
I0
sg76
(g599
S'TL'
p823
S'N8'
p824
g30
tp825
sg59
I00
sg60
g0
(g34
g2
Ntp826
Rp827
(dp828
g38
I4
sg39
S'x'
p829
sg41
g587
sbsg61
(dp830
g595
I2
sg596
I14
sg597
I0
sg598
I4
ssg63
I00
sg64
(dp831
g595
I0
sg596
I0
sg597
I0
sg598
I0
ssg66
(dp832
g589
I2
sg590
I4
sg591
I0
sg592
I28
ssg68
I0
sg69
I0
sg70
S'Ryskort'
p833
sg72
I8
sg73
I0
sg74
I19
sg75
I150
sg57
g611
sg82
(dp834
g613
I9
sg614
I11
sg615
I8
sg616
I9
sg617
I13
sg618
I10
sg619
I3
sg620
I11
sg621
I6
sg622
I10
sg623
I10
sg624
I11
sg625
I6
sg626
I14
sg627
I6
ssg99
(dp835
g629
(ijoueur
joueur
p836
(dp837
g25
I0
sg27
I0
sg31
I0
sg33
g0
(g34
g2
Ntp838
Rp839
(dp840
g38
I4
sg39
S'x'
p841
sg41
S'heros'
p842
sbsg43
(dp843
S'SR'
p844
I0
sS'ST'
p845
I0
sS'CR'
p846
I0
sS'CT'
p847
I1
ssg49
(dp848
g844
I0
sg845
I0
sg846
I0
sg847
I0
ssg125
(dp849
g844
I0
sg845
I0
sg846
I0
sg847
I1
ssg300
I0
sg52
I0
sg549
I0
sg550
I0
sg54
I5
sg55
I0
sg56
I0
sg76
(S'dummy'
p850
S'TL'
p851
S'N8'
p852
g30
tp853
sg59
I00
sg60
g0
(g34
g2
Ntp854
Rp855
(dp856
g38
I4
sg39
S'x'
p857
sg41
g842
sbsg61
(dp858
g844
I0
sg845
I0
sg846
I0
sg847
I14
ssg63
I00
sg64
(dp859
g844
I0
sg845
I0
sg846
I0
sg847
I0
ssg66
(dp860
g844
I0
sg845
I0
sg846
I0
sg847
I14
ssg68
I0
sg69
I0
sg70
S'Ryskort'
p861
sg72
I8
sg73
I0
sg74
I19
sg75
I150
sg57
S'ALT'
p862
sg82
(dp863
S'A'
p864
I9
sS'ME'
p865
I11
sS'RP2'
p866
I8
sS'E'
p867
I9
sS'TO'
p868
I11
sS'RP1'
p869
I10
sS'JP'
p870
I3
sS'RP_tot'
p871
I11
sS'P'
p872
I6
sS'PA'
p873
I10
sS'M'
p874
I9
sS'R'
p875
I11
sS'TB'
p876
I6
sS'PL'
p877
I14
sS'TA'
p878
I6
ssg118
I0
sg26
I0
sg120
I0
sg122
I0
sg123
F10.973684210526315
sg124
I0
sg673
I0
sg121
I0
sg127
I0
sg418
(dp879
S'A'
p880
I9
sS'ME'
p881
I11
sS'RP2'
p882
I8
sS'E'
p883
I9
sS'TO'
p884
I11
sS'RP1'
p885
I10
sS'JP'
p886
I3
sS'RP_tot'
p887
I11
sS'P'
p888
I6
sS'PA'
p889
I10
sS'M'
p890
I9
sS'R'
p891
I11
sS'TB'
p892
I6
sS'PL'
p893
I14
sS'TA'
p894
I6
ssg128
g863
sg129
I0
sg51
S'KHR 11'
p895
sg130
I0
sg131
I0
sg132
I0
sg133
I23
sg134
I8
sg135
I0
sg136
S'CHS'
p896
sbssg118
I4
sg26
I0
sg120
I0
sg122
I0
sg123
F11.394736842105264
sg124
I0
sg673
I0
sg121
I0
sg127
I1
sg418
(dp897
g693
I9
sg694
I11
sg695
I8
sg696
I9
sg697
I6
sg698
I10
sg699
I3
sg700
I11
sg701
I11
sg702
I10
sg703
I9
sg704
I11
sg705
I6
sg706
I14
sg707
I6
ssg128
g834
sg129
I0
sg51
S'KHR 11'
p898
sg130
I0
sg131
I0
sg132
I0
sg133
I23
sg134
I10
sg135
I1
sg136
S'CHS'
p899
sbsg710
(ijoueur
joueur
p900
(dp901
g25
I0
sg27
I0
sg31
I0
sg33
g0
(g34
g2
Ntp902
Rp903
(dp904
g38
I4
sg39
S'x'
p905
sg41
S'heros'
p906
sbsg43
(dp907
S'SR'
p908
I0
sS'ST'
p909
I0
sS'CR'
p910
I0
sS'CT'
p911
I1
ssg49
(dp912
g908
I0
sg909
I0
sg910
I0
sg911
I0
ssg125
(dp913
g908
I0
sg909
I0
sg910
I0
sg911
I1
ssg300
I0
sg52
I0
sg549
I0
sg550
I0
sg54
I5
sg55
I0
sg56
I0
sg76
(S'dummy'
p914
S'TL'
p915
S'N8'
p916
g30
tp917
sg59
I00
sg60
g0
(g34
g2
Ntp918
Rp919
(dp920
g38
I4
sg39
S'x'
p921
sg41
g906
sbsg61
(dp922
g908
I0
sg909
I0
sg910
I0
sg911
I14
ssg63
I00
sg64
(dp923
g908
I0
sg909
I0
sg910
I0
sg911
I0
ssg66
(dp924
g908
I0
sg909
I0
sg910
I0
sg911
I14
ssg68
I0
sg69
I0
sg70
S'Ryskort'
p925
sg72
I8
sg73
I0
sg74
I19
sg75
I150
sg57
S'ALT'
p926
sg82
(dp927
S'A'
p928
I9
sS'ME'
p929
I11
sS'RP2'
p930
I8
sS'E'
p931
I9
sS'TO'
p932
I11
sS'RP1'
p933
I10
sS'JP'
p934
I3
sS'RP_tot'
p935
I11
sS'P'
p936
I6
sS'PA'
p937
I10
sS'M'
p938
I9
sS'R'
p939
I11
sS'TB'
p940
I6
sS'PL'
p941
I14
sS'TA'
p942
I6
ssg118
I0
sg26
I0
sg120
I0
sg122
I0
sg123
F10.973684210526315
sg124
I0
sg673
I0
sg121
I0
sg127
I0
sg418
(dp943
S'A'
p944
I9
sS'ME'
p945
I11
sS'RP2'
p946
I8
sS'E'
p947
I9
sS'TO'
p948
I11
sS'RP1'
p949
I10
sS'JP'
p950
I3
sS'RP_tot'
p951
I11
sS'P'
p952
I6
sS'PA'
p953
I10
sS'M'
p954
I9
sS'R'
p955
I11
sS'TB'
p956
I6
sS'PL'
p957
I14
sS'TA'
p958
I6
ssg128
g927
sg129
I0
sg51
S'KHR 11'
p959
sg130
I0
sg131
I0
sg132
I0
sg133
I23
sg134
I8
sg135
I0
sg136
S'CHS'
p960
sbssg118
I2
sg26
I0
sg120
I0
sg122
I0
sg125
(dp961
g305
I2
sg306
I0
sg307
I0
sg308
I0
ssg124
I0
sg53
F158.08466947551088
sg673
I0
sg121
I0
sg127
I1
sg418
(dp962
g774
I9
sg775
I11
sg776
I8
sg777
I9
sg778
I6
sg779
I10
sg780
I3
sg781
I11
sg782
I11
sg783
I10
sg784
I9
sg785
I11
sg786
I6
sg787
I14
sg788
I6
ssg128
g812
sg129
I0
sg531
(dp963
sg130
I0
sg51
S'KHR 11'
p964
sg131
I0
sg132
I0
sg133
I23
sg134
I11
sg135
I0
sg136
S'CHS'
p965
sba(ijoueur
joueur
p966
(dp967
g286
F12.03448275862069
sg25
I0
sg287
F11.931034482758621
sg119
g30
sg27
I0
sg28
F134.42351416125834
sg31
I0
sg33
g0
(g34
g2
Ntp968
Rp969
(dp970
g38
I6
sg39
S'***'
p971
sg41
S'personnage'
p972
sbsg43
(dp973
S'SR'
p974
I0
sS'CT'
p975
I15
sS'CR'
p976
I0
sS'ST'
p977
I0
ssg49
(dp978
g974
I0
sg975
I0
sg976
I0
sg977
I0
ssg299
I0
sg300
I0
sg52
I0
sg549
I0
sg550
I0
sg63
I00
sg54
I2
sg55
I0
sg56
I0
sg76
(S'dummy'
p979
S'N8'
p980
S'TL'
p981
g30
tp982
sg59
I00
sg60
g0
(g34
g2
Ntp983
Rp984
(dp985
g38
I6
sg39
S'***'
p986
sg41
g972
sbsg61
(dp987
S'SR'
p988
I0
sS'CT'
p989
I2
sS'CR'
p990
I0
sS'ST'
p991
I0
ssg125
(dp992
g988
I0
sg989
I11
sg990
I0
sg991
I0
ssg64
(dp993
g988
I0
sg989
I0
sg990
I0
sg991
I0
ssg66
(dp994
g974
I0
sg975
I25
sg976
I0
sg977
I3
ssg68
I0
sg69
I0
sg70
S'Crom'
p995
sg72
I1
sg73
I0
sg74
I9
sg75
I320
sg57
S'DKF'
p996
sg82
(dp997
S'A'
p998
I13
sS'ME'
p999
I10
sS'RP2'
p1000
I8
sS'E'
p1001
I11
sS'P'
p1002
I9
sS'RP1'
p1003
I14
sS'JP'
p1004
I3
sS'RP_tot'
p1005
I15
sS'TO'
p1006
I10
sS'PA'
p1007
I10
sS'M'
p1008
I5
sS'R'
p1009
I11
sS'TB'
p1010
I4
sS'PL'
p1011
I13
sS'TA'
p1012
I7
ssg99
(dp1013
S's12'
p1014
(ijoueur
joueur
p1015
(dp1016
g286
F12.03448275862069
sg25
I0
sg119
g30
sg27
I0
sg31
I0
sg33
g0
(g34
g2
Ntp1017
Rp1018
(dp1019
g38
I6
sg39
S'***'
p1020
sg41
S'personnage'
p1021
sbsg43
(dp1022
S'SR'
p1023
I0
sS'CT'
p1024
I4
sS'CR'
p1025
I0
sS'ST'
p1026
I0
ssg49
(dp1027
g1023
I0
sg1024
I0
sg1025
I0
sg1026
I0
ssg125
(dp1028
S'SR'
p1029
I0
sS'CT'
p1030
I4
sS'CR'
p1031
I0
sS'ST'
p1032
I0
ssg300
I0
sg52
I0
sg549
I0
sg550
I0
sg54
I1
sg55
I0
sg56
I0
sg76
(S'dummy'
p1033
S'N8'
p1034
S'TL'
p1035
g30
tp1036
sg59
I00
sg60
g0
(g34
g2
Ntp1037
Rp1038
(dp1039
g38
I6
sg39
S'***'
p1040
sg41
g1021
sbsg61
(dp1041
g1029
I0
sg1030
I9
sg1031
I0
sg1032
I0
ssg63
I00
sg64
(dp1042
g1029
I0
sg1030
I0
sg1031
I0
sg1032
I0
ssg66
(dp1043
g1023
I0
sg1024
I23
sg1025
I0
sg1026
I3
ssg68
I0
sg69
I0
sg70
S'Crom'
p1044
sg72
I1
sg73
I0
sg74
I9
sg75
I320
sg57
S'DKF'
p1045
sg82
(dp1046
S'A'
p1047
I13
sS'ME'
p1048
I10
sS'RP2'
p1049
I8
sS'E'
p1050
I11
sS'P'
p1051
I8
sS'RP1'
p1052
I14
sS'JP'
p1053
I3
sS'RP_tot'
p1054
I15
sS'TO'
p1055
I10
sS'PA'
p1056
I10
sS'M'
p1057
I6
sS'R'
p1058
I11
sS'TB'
p1059
I4
sS'PL'
p1060
I13
sS'TA'
p1061
I7
ssg99
(dp1062
S's11'
p1063
(ijoueur
joueur
p1064
(dp1065
g25
I0
sg27
I0
sg31
I0
sg33
g0
(g34
g2
Ntp1066
Rp1067
(dp1068
g38
I6
sg39
S'***'
p1069
sg41
S'personnage'
p1070
sbsg43
(dp1071
S'SR'
p1072
I0
sS'CT'
p1073
I0
sS'CR'
p1074
I0
sS'ST'
p1075
I0
ssg49
(dp1076
g1072
I0
sg1073
I0
sg1074
I0
sg1075
I0
ssg300
I0
sg123
F12.03448275862069
sg52
I0
sg549
I0
sg550
I0
sg54
I1
sg55
I0
sg56
I0
sg76
(S'dummy'
p1077
S'N8'
p1078
S'TL'
p1079
g30
tp1080
sg59
I00
sg60
g0
(g34
g2
Ntp1081
Rp1082
(dp1083
g38
I6
sg39
S'***'
p1084
sg41
g1070
sbsg61
(dp1085
g1072
I0
sg1073
I14
sg1074
I0
sg1075
I3
ssg63
I01
sg64
(dp1086
g1072
I0
sg1073
I0
sg1074
I0
sg1075
I0
ssg66
(dp1087
g1072
I0
sg1073
I14
sg1074
I0
sg1075
I3
ssg68
I0
sg69
I0
sg70
S'Crom'
p1088
sg72
I1
sg73
I0
sg74
I9
sg75
I320
sg57
S'DKF'
p1089
sg82
(dp1090
S'A'
p1091
I13
sS'ME'
p1092
I11
sS'RP2'
p1093
I8
sS'E'
p1094
I11
sS'P'
p1095
I7
sS'RP1'
p1096
I14
sS'JP'
p1097
I3
sS'RP_tot'
p1098
I15
sS'TO'
p1099
I11
sS'PA'
p1100
I10
sS'M'
p1101
I6
sS'R'
p1102
I11
sS'TB'
p1103
I4
sS'PL'
p1104
I13
sS'TA'
p1105
I7
ssg118
I0
sg26
I0
sg120
I0
sg122
I0
sg125
(dp1106
g1072
I0
sg1073
I0
sg1074
I0
sg1075
I0
ssg124
I0
sg673
I0
sg121
I0
sg127
I0
sg418
(dp1107
S'A'
p1108
I13
sS'ME'
p1109
I11
sS'RP2'
p1110
I8
sS'E'
p1111
I11
sS'P'
p1112
I7
sS'RP1'
p1113
I14
sS'JP'
p1114
I3
sS'RP_tot'
p1115
I15
sS'TO'
p1116
I11
sS'PA'
p1117
I10
sS'M'
p1118
I6
sS'R'
p1119
I11
sS'TB'
p1120
I4
sS'PL'
p1121
I13
sS'TA'
p1122
I7
ssg128
g1090
sg129
I0
sg51
S'KHR 9'
p1123
sg130
I0
sg131
I0
sg132
I0
sg133
I40
sg134
I21
sg135
I0
sg136
S'CHS'
p1124
sbssg118
I0
sg26
I0
sg120
I0
sg122
I0
sg123
F11.931034482758621
sg124
I0
sg673
I0
sg121
I0
sg127
I0
sg418
(dp1125
S'A'
p1126
I13
sS'ME'
p1127
I11
sS'RP2'
p1128
I8
sS'E'
p1129
I11
sS'P'
p1130
I7
sS'RP1'
p1131
I14
sS'JP'
p1132
I3
sS'RP_tot'
p1133
I15
sS'TO'
p1134
I11
sS'PA'
p1135
I10
sS'M'
p1136
I6
sS'R'
p1137
I11
sS'TB'
p1138
I4
sS'PL'
p1139
I13
sS'TA'
p1140
I7
ssg128
g1046
sg129
I0
sg51
S'KHR 9'
p1141
sg130
I0
sg131
I0
sg132
I0
sg133
I40
sg134
I22
sg135
I0
sg136
S'CHS'
p1142
sbsS's11'
p1143
(ijoueur
joueur
p1144
(dp1145
g25
I0
sg27
I0
sg31
I0
sg33
g0
(g34
g2
Ntp1146
Rp1147
(dp1148
g38
I6
sg39
S'***'
p1149
sg41
S'personnage'
p1150
sbsg43
(dp1151
S'SR'
p1152
I0
sS'CT'
p1153
I0
sS'CR'
p1154
I0
sS'ST'
p1155
I0
ssg49
(dp1156
g1152
I0
sg1153
I0
sg1154
I0
sg1155
I0
ssg300
I0
sg123
F12.03448275862069
sg52
I0
sg549
I0
sg550
I0
sg54
I1
sg55
I0
sg56
I0
sg76
(S'dummy'
p1157
S'N8'
p1158
S'TL'
p1159
g30
tp1160
sg59
I00
sg60
g0
(g34
g2
Ntp1161
Rp1162
(dp1163
g38
I6
sg39
S'***'
p1164
sg41
g1150
sbsg61
(dp1165
g1152
I0
sg1153
I14
sg1154
I0
sg1155
I3
ssg63
I01
sg64
(dp1166
g1152
I0
sg1153
I0
sg1154
I0
sg1155
I0
ssg66
(dp1167
g1152
I0
sg1153
I14
sg1154
I0
sg1155
I3
ssg68
I0
sg69
I0
sg70
S'Crom'
p1168
sg72
I1
sg73
I0
sg74
I9
sg75
I320
sg57
S'DKF'
p1169
sg82
(dp1170
S'A'
p1171
I13
sS'ME'
p1172
I11
sS'RP2'
p1173
I8
sS'E'
p1174
I11
sS'P'
p1175
I7
sS'RP1'
p1176
I14
sS'JP'
p1177
I3
sS'RP_tot'
p1178
I15
sS'TO'
p1179
I11
sS'PA'
p1180
I10
sS'M'
p1181
I6
sS'R'
p1182
I11
sS'TB'
p1183
I4
sS'PL'
p1184
I13
sS'TA'
p1185
I7
ssg118
I0
sg26
I0
sg120
I0
sg122
I0
sg125
(dp1186
g1152
I0
sg1153
I0
sg1154
I0
sg1155
I0
ssg124
I0
sg673
I0
sg121
I0
sg127
I0
sg418
(dp1187
S'A'
p1188
I13
sS'ME'
p1189
I11
sS'RP2'
p1190
I8
sS'E'
p1191
I11
sS'P'
p1192
I7
sS'RP1'
p1193
I14
sS'JP'
p1194
I3
sS'RP_tot'
p1195
I15
sS'TO'
p1196
I11
sS'PA'
p1197
I10
sS'M'
p1198
I6
sS'R'
p1199
I11
sS'TB'
p1200
I4
sS'PL'
p1201
I13
sS'TA'
p1202
I7
ssg128
g1170
sg129
I0
sg51
S'KHR 9'
p1203
sg130
I0
sg131
I0
sg132
I0
sg133
I40
sg134
I21
sg135
I0
sg136
S'CHS'
p1204
sbssg118
I0
sg26
I0
sg120
I0
sg122
I0
sg123
F11.89655172413793
sg124
I0
sg53
F134.42351416125834
sg673
I0
sg121
I0
sg127
I0
sg418
(dp1205
S'A'
p1206
I13
sS'ME'
p1207
I11
sS'RP2'
p1208
I8
sS'E'
p1209
I11
sS'P'
p1210
I7
sS'RP1'
p1211
I14
sS'JP'
p1212
I3
sS'RP_tot'
p1213
I15
sS'TO'
p1214
I11
sS'PA'
p1215
I10
sS'M'
p1216
I6
sS'R'
p1217
I11
sS'TB'
p1218
I4
sS'PL'
p1219
I13
sS'TA'
p1220
I7
ssg128
g997
sg129
I0
sg531
(dp1221
sg130
I0
sg51
S'KHR 9'
p1222
sg131
I0
sg132
I0
sg133
I40
sg134
I24
sg135
I0
sg136
S'CHS'
p1223
sba(ijoueur
joueur
p1224
(dp1225
g286
F12.470588235294118
sg25
I0
sg287
F13.147058823529411
sg119
g30
sg27
I0
sg28
F157.04443293185548
sg31
I0
sg33
g0
(g34
g2
Ntp1226
Rp1227
(dp1228
g38
I5
sg39
S'**'
p1229
sg41
S'seigneur'
p1230
sbsg43
(dp1231
S'SR'
p1232
I0
sS'CT'
p1233
I12
sS'CR'
p1234
I0
sS'ST'
p1235
I1
ssg49
(dp1236
g1232
I0
sg1233
I0
sg1234
I0
sg1235
I0
ssg299
I0
sg300
I0
sg123
F13.176470588235293
sg52
I0
sg549
I0
sg550
I0
sg54
I3
sg55
I0
sg56
I0
sg76
(S'dummy'
p1237
S'DL'
p1238
S'N8'
p1239
g30
tp1240
sg59
I00
sg60
g0
(g34
g2
Ntp1241
Rp1242
(dp1243
g38
I5
sg39
S'**'
p1244
sg41
g1230
sbsg61
(dp1245
S'SR'
p1246
I0
sS'ST'
p1247
I2
sS'CR'
p1248
I0
sS'CT'
p1249
I12
ssg63
I00
sg64
(dp1250
g1246
I0
sg1247
I0
sg1248
I0
sg1249
I0
ssg66
(dp1251
g1232
I0
sg1233
I30
sg1234
I0
sg1235
I10
ssg68
I0
sg69
I0
sg70
S'Acharoel'
p1252
sg72
I6
sg73
I0
sg74
I20
sg75
I273
sg57
S'DKW'
p1253
sg82
(dp1254
S'A'
p1255
I13
sS'ME'
p1256
I16
sS'RP2'
p1257
I7
sS'E'
p1258
I12
sS'P'
p1259
I5
sS'RP1'
p1260
I15
sS'JP'
p1261
I4
sS'RP_tot'
p1262
I15
sS'TO'
p1263
I14
sS'PA'
p1264
I11
sS'M'
p1265
I9
sS'R'
p1266
I12
sS'TB'
p1267
I3
sS'PL'
p1268
I12
sS'TA'
p1269
I8
ssg99
(dp1270
S's12'
p1271
(ijoueur
joueur
p1272
(dp1273
g286
F12.470588235294118
sg25
I0
sg119
g30
sg27
I0
sg31
I0
sg33
g0
(g34
g2
Ntp1274
Rp1275
(dp1276
g38
I5
sg39
S'**'
p1277
sg41
S'seigneur'
p1278
sbsg43
(dp1279
S'SR'
p1280
I0
sS'CT'
p1281
I11
sS'CR'
p1282
I0
sS'ST'
p1283
I1
ssg49
(dp1284
g1280
I0
sg1281
I0
sg1282
I0
sg1283
I0
ssg300
I0
sg52
I0
sg549
I0
sg550
I0
sg63
I01
sg54
I5
sg55
I0
sg56
I0
sg76
(S'dummy'
p1285
S'DL'
p1286
S'N8'
p1287
g30
tp1288
sg59
I00
sg60
g0
(g34
g2
Ntp1289
Rp1290
(dp1291
g38
I5
sg39
S'**'
p1292
sg41
g1278
sbsg61
(dp1293
S'SR'
p1294
I0
sS'CT'
p1295
I15
sS'CR'
p1296
I0
sS'ST'
p1297
I5
ssg125
(dp1298
g1294
I0
sg1295
I0
sg1296
I0
sg1297
I0
ssg64
(dp1299
g1294
I0
sg1295
I0
sg1296
I0
sg1297
I0
ssg66
(dp1300
g1280
I0
sg1281
I18
sg1282
I0
sg1283
I8
ssg68
I0
sg69
I0
sg70
S'Acharoel'
p1301
sg72
I6
sg73
I0
sg74
I20
sg75
I273
sg57
S'DKW'
p1302
sg82
(dp1303
S'A'
p1304
I13
sS'ME'
p1305
I16
sS'RP2'
p1306
I7
sS'E'
p1307
I12
sS'P'
p1308
I5
sS'RP1'
p1309
I15
sS'JP'
p1310
I4
sS'RP_tot'
p1311
I15
sS'TO'
p1312
I14
sS'PA'
p1313
I11
sS'M'
p1314
I8
sS'R'
p1315
I12
sS'TB'
p1316
I3
sS'PL'
p1317
I12
sS'TA'
p1318
I8
ssg99
(dp1319
S's11'
p1320
(ijoueur
joueur
p1321
(dp1322
g25
I0
sg27
I0
sg31
I0
sg33
g0
(g34
g2
Ntp1323
Rp1324
(dp1325
g38
I5
sg39
S'**'
p1326
sg41
S'seigneur'
p1327
sbsg43
(dp1328
S'SR'
p1329
I0
sS'ST'
p1330
I1
sS'CR'
p1331
I0
sS'CT'
p1332
I11
ssg49
(dp1333
g1329
I0
sg1330
I0
sg1331
I0
sg1332
I0
ssg125
(dp1334
g1329
I0
sg1330
I1
sg1331
I0
sg1332
I11
ssg300
I0
sg52
I0
sg549
I0
sg550
I0
sg54
I0
sg55
I0
sg56
I0
sg76
(S'dummy'
p1335
S'DL'
p1336
S'N8'
p1337
g30
tp1338
sg59
I00
sg60
g0
(g34
g2
Ntp1339
Rp1340
(dp1341
g38
I5
sg39
S'**'
p1342
sg41
g1327
sbsg61
(dp1343
g1329
I0
sg1330
I3
sg1331
I0
sg1332
I3
ssg63
I01
sg64
(dp1344
g1329
I0
sg1330
I0
sg1331
I0
sg1332
I0
ssg66
(dp1345
g1329
I0
sg1330
I3
sg1331
I0
sg1332
I3
ssg68
I0
sg69
I0
sg70
S'Acharoel'
p1346
sg72
I6
sg73
I0
sg74
I20
sg75
I273
sg57
S'DKW'
p1347
sg82
(dp1348
S'A'
p1349
I13
sS'ME'
p1350
I13
sS'RP2'
p1351
I7
sS'E'
p1352
I12
sS'TO'
p1353
I14
sS'RP1'
p1354
I15
sS'JP'
p1355
I4
sS'RP_tot'
p1356
I15
sS'P'
p1357
I5
sS'PA'
p1358
I11
sS'M'
p1359
I8
sS'R'
p1360
I11
sS'TB'
p1361
I3
sS'PL'
p1362
I11
sS'TA'
p1363
I8
ssg118
I0
sg26
I0
sg120
I1
sg122
I0
sg123
F12.470588235294118
sg124
I0
sg673
I0
sg121
I1
sg127
I0
sg418
(dp1364
S'A'
p1365
I13
sS'ME'
p1366
I13
sS'RP2'
p1367
I7
sS'E'
p1368
I12
sS'TO'
p1369
I14
sS'RP1'
p1370
I15
sS'JP'
p1371
I4
sS'RP_tot'
p1372
I15
sS'P'
p1373
I5
sS'PA'
p1374
I11
sS'M'
p1375
I8
sS'R'
p1376
I11
sS'TB'
p1377
I3
sS'PL'
p1378
I11
sS'TA'
p1379
I8
ssg128
g1348
sg129
I0
sg51
g30
sg130
I0
sg131
I0
sg132
I0
sg133
I36
sg134
I12
sg135
I0
sg136
S'CHS'
p1380
sbssg118
I1
sg26
I0
sg120
I1
sg122
I0
sg123
F13.147058823529411
sg124
I0
sg673
I0
sg121
I0
sg127
I0
sg418
(dp1381
S'A'
p1382
I13
sS'ME'
p1383
I13
sS'RP2'
p1384
I7
sS'E'
p1385
I12
sS'P'
p1386
I5
sS'RP1'
p1387
I15
sS'JP'
p1388
I4
sS'RP_tot'
p1389
I15
sS'TO'
p1390
I14
sS'PA'
p1391
I11
sS'M'
p1392
I8
sS'R'
p1393
I11
sS'TB'
p1394
I3
sS'PL'
p1395
I11
sS'TA'
p1396
I8
ssg128
g1303
sg129
I0
sg51
g30
sg130
I0
sg131
I0
sg132
I0
sg133
I36
sg134
I17
sg135
I0
sg136
S'CHS'
p1397
sbsS's11'
p1398
(ijoueur
joueur
p1399
(dp1400
g25
I0
sg27
I0
sg31
I0
sg33
g0
(g34
g2
Ntp1401
Rp1402
(dp1403
g38
I5
sg39
S'**'
p1404
sg41
S'seigneur'
p1405
sbsg43
(dp1406
S'SR'
p1407
I0
sS'ST'
p1408
I1
sS'CR'
p1409
I0
sS'CT'
p1410
I11
ssg49
(dp1411
g1407
I0
sg1408
I0
sg1409
I0
sg1410
I0
ssg125
(dp1412
g1407
I0
sg1408
I1
sg1409
I0
sg1410
I11
ssg300
I0
sg52
I0
sg549
I0
sg550
I0
sg54
I0
sg55
I0
sg56
I0
sg76
(S'dummy'
p1413
S'DL'
p1414
S'N8'
p1415
g30
tp1416
sg59
I00
sg60
g0
(g34
g2
Ntp1417
Rp1418
(dp1419
g38
I5
sg39
S'**'
p1420
sg41
g1405
sbsg61
(dp1421
g1407
I0
sg1408
I3
sg1409
I0
sg1410
I3
ssg63
I01
sg64
(dp1422
g1407
I0
sg1408
I0
sg1409
I0
sg1410
I0
ssg66
(dp1423
g1407
I0
sg1408
I3
sg1409
I0
sg1410
I3
ssg68
I0
sg69
I0
sg70
S'Acharoel'
p1424
sg72
I6
sg73
I0
sg74
I20
sg75
I273
sg57
S'DKW'
p1425
sg82
(dp1426
S'A'
p1427
I13
sS'ME'
p1428
I13
sS'RP2'
p1429
I7
sS'E'
p1430
I12
sS'TO'
p1431
I14
sS'RP1'
p1432
I15
sS'JP'
p1433
I4
sS'RP_tot'
p1434
I15
sS'P'
p1435
I5
sS'PA'
p1436
I11
sS'M'
p1437
I8
sS'R'
p1438
I11
sS'TB'
p1439
I3
sS'PL'
p1440
I11
sS'TA'
p1441
I8
ssg118
I0
sg26
I0
sg120
I1
sg122
I0
sg123
F12.470588235294118
sg124
I0
sg673
I0
sg121
I1
sg127
I0
sg418
(dp1442
S'A'
p1443
I13
sS'ME'
p1444
I13
sS'RP2'
p1445
I7
sS'E'
p1446
I12
sS'TO'
p1447
I14
sS'RP1'
p1448
I15
sS'JP'
p1449
I4
sS'RP_tot'
p1450
I15
sS'P'
p1451
I5
sS'PA'
p1452
I11
sS'M'
p1453
I8
sS'R'
p1454
I11
sS'TB'
p1455
I3
sS'PL'
p1456
I11
sS'TA'
p1457
I8
ssg128
g1426
sg129
I0
sg51
g30
sg130
I0
sg131
I0
sg132
I0
sg133
I36
sg134
I12
sg135
I0
sg136
S'CHS'
p1458
sbssg118
I4
sg26
I0
sg120
I1
sg122
I0
sg125
(dp1459
g1246
I0
sg1247
I0
sg1248
I0
sg1249
I1
ssg124
I0
sg53
F157.04443293185548
sg673
I0
sg121
I0
sg127
I1
sg418
(dp1460
S'A'
p1461
I13
sS'ME'
p1462
I13
sS'RP2'
p1463
I7
sS'E'
p1464
I12
sS'P'
p1465
I5
sS'RP1'
p1466
I15
sS'JP'
p1467
I4
sS'RP_tot'
p1468
I15
sS'TO'
p1469
I14
sS'PA'
p1470
I11
sS'M'
p1471
I8
sS'R'
p1472
I11
sS'TB'
p1473
I3
sS'PL'
p1474
I11
sS'TA'
p1475
I8
ssg128
g1254
sg129
I0
sg531
(dp1476
sg130
I0
sg51
g30
sg131
I0
sg132
I0
sg133
I36
sg134
I20
sg135
I1
sg136
S'CHS'
p1477
sba(ijoueur
joueur
p1478
(dp1479
g286
F11.264705882352942
sg25
I1
sg287
F11.352941176470589
sg119
g30
sg27
I0
sg28
F145.96155061580816
sg31
I0
sg33
g0
(g34
g2
Ntp1480
Rp1481
(dp1482
g38
I4
sg39
S'x'
p1483
sg41
S'heros'
p1484
sbsg43
(dp1485
g1232
I0
sg1233
I17
sg1234
I0
sg1235
I0
ssg49
(dp1486
g1232
I0
sg1233
I0
sg1234
I0
sg1235
I0
ssg299
I0
sg300
I0
sg123
F11.235294117647058
sg52
I0
sg549
I0
sg550
I0
sg54
I0
sg55
I0
sg56
I0
sg76
(g1237
S'DL'
p1487
S'N8'
p1488
g30
tp1489
sg59
I00
sg60
g0
(g34
g2
Ntp1490
Rp1491
(dp1492
g38
I4
sg39
g1483
sg41
g1484
sbsg61
(dp1493
g1246
I0
sg1247
I0
sg1248
I1
sg1249
I11
ssg63
I00
sg64
(dp1494
g1246
I0
sg1247
I0
sg1248
I0
sg1249
I0
ssg66
(dp1495
g1232
I3
sg1233
I27
sg1234
I1
sg1235
I3
ssg68
I0
sg69
I0
sg70
S'Hraegh'
p1496
sg72
I7
sg73
I0
sg74
I16
sg75
I758
sg57
g1253
sg82
(dp1497
g1255
I11
sg1256
I10
sg1257
I9
sg1258
I9
sg1259
I3
sg1260
I13
sg1261
I5
sg1262
I14
sg1263
I13
sg1264
I10
sg1265
I6
sg1266
I11
sg1267
I2
sg1268
I11
sg1269
I5
ssg99
(dp1498
g1271
(ijoueur
joueur
p1499
(dp1500
g286
F11.264705882352942
sg25
I1
sg119
g30
sg27
I0
sg31
I0
sg33
g0
(g34
g2
Ntp1501
Rp1502
(dp1503
g38
I4
sg39
S'x'
p1504
sg41
S'heros'
p1505
sbsg43
(dp1506
g1280
I0
sg1281
I15
sg1282
I0
sg1283
I0
ssg49
(dp1507
g1280
I0
sg1281
I0
sg1282
I0
sg1283
I0
ssg300
I0
sg52
I0
sg549
I0
sg550
I0
sg63
I00
sg54
I3
sg55
I0
sg56
I0
sg76
(g1285
S'DL'
p1508
S'N8'
p1509
g30
tp1510
sg59
I00
sg60
g0
(g34
g2
Ntp1511
Rp1512
(dp1513
g38
I4
sg39
g1504
sg41
g1505
sbsg61
(dp1514
g1294
I3
sg1295
I2
sg1296
I0
sg1297
I1
ssg125
(dp1515
g1294
I0
sg1295
I15
sg1296
I0
sg1297
I0
ssg64
(dp1516
g1294
I0
sg1295
I0
sg1296
I0
sg1297
I0
ssg66
(dp1517
g1280
I3
sg1281
I16
sg1282
I0
sg1283
I3
ssg68
I0
sg69
I0
sg70
S'Hraegh'
p1518
sg72
I7
sg73
I0
sg74
I16
sg75
I758
sg57
g1302
sg82
(dp1519
g1304
I11
sg1305
I10
sg1306
I9
sg1307
I9
sg1308
I3
sg1309
I13
sg1310
I5
sg1311
I15
sg1312
I13
sg1313
I10
sg1314
I6
sg1315
I11
sg1316
I2
sg1317
I11
sg1318
I5
ssg99
(dp1520
g1320
(ijoueur
joueur
p1521
(dp1522
g25
I0
sg27
I0
sg31
I0
sg33
g0
(g34
g2
Ntp1523
Rp1524
(dp1525
g38
I4
sg39
S'x'
p1526
sg41
S'heros'
p1527
sbsg43
(dp1528
S'SR'
p1529
I0
sS'ST'
p1530
I0
sS'CR'
p1531
I0
sS'CT'
p1532
I0
ssg49
(dp1533
g1529
I0
sg1530
I0
sg1531
I0
sg1532
I0
ssg125
(dp1534
g1529
I0
sg1530
I0
sg1531
I0
sg1532
I0
ssg300
I0
sg52
I0
sg549
I0
sg550
I0
sg54
I2
sg55
I0
sg56
I0
sg76
(S'dummy'
p1535
S'DL'
p1536
S'N8'
p1537
g30
tp1538
sg59
I00
sg60
g0
(g34
g2
Ntp1539
Rp1540
(dp1541
g38
I4
sg39
g1526
sg41
g1527
sbsg61
(dp1542
g1529
I0
sg1530
I2
sg1531
I0
sg1532
I14
ssg63
I00
sg64
(dp1543
g1529
I0
sg1530
I0
sg1531
I0
sg1532
I0
ssg66
(dp1544
g1529
I0
sg1530
I2
sg1531
I0
sg1532
I14
ssg68
I0
sg69
I0
sg70
S'Hraegh'
p1545
sg72
I7
sg73
I0
sg74
I16
sg75
I758
sg57
S'DKW'
p1546
sg82
(dp1547
S'A'
p1548
I11
sS'ME'
p1549
I10
sS'RP2'
p1550
I7
sS'E'
p1551
I10
sS'TO'
p1552
I13
sS'RP1'
p1553
I13
sS'JP'
p1554
I5
sS'RP_tot'
p1555
I13
sS'P'
p1556
I3
sS'PA'
p1557
I10
sS'M'
p1558
I7
sS'R'
p1559
I11
sS'TB'
p1560
I2
sS'PL'
p1561
I11
sS'TA'
p1562
I5
ssg118
I0
sg26
I0
sg120
I0
sg122
I0
sg123
F11.264705882352942
sg124
I0
sg673
I0
sg121
I0
sg127
I1
sg418
(dp1563
S'A'
p1564
I11
sS'ME'
p1565
I10
sS'RP2'
p1566
I7
sS'E'
p1567
I10
sS'TO'
p1568
I13
sS'RP1'
p1569
I13
sS'JP'
p1570
I5
sS'RP_tot'
p1571
I13
sS'P'
p1572
I3
sS'PA'
p1573
I10
sS'M'
p1574
I7
sS'R'
p1575
I11
sS'TB'
p1576
I2
sS'PL'
p1577
I11
sS'TA'
p1578
I5
ssg128
g1547
sg129
I0
sg51
S'HTH 9;ED 11'
p1579
sg130
I0
sg131
I0
sg132
I0
sg133
I59
sg134
I6
sg135
I1
sg136
S'CHS'
p1580
sbssg118
I4
sg26
I0
sg120
I0
sg122
I0
sg123
F11.352941176470589
sg124
I0
sg673
I0
sg121
I0
sg127
I1
sg418
(dp1581
g1382
I11
sg1383
I10
sg1384
I7
sg1385
I10
sg1386
I3
sg1387
I13
sg1388
I5
sg1389
I13
sg1390
I13
sg1391
I10
sg1392
I7
sg1393
I11
sg1394
I2
sg1395
I11
sg1396
I5
ssg128
g1519
sg129
I1
sg51
S'HTH 9;ED 11'
p1582
sg130
I0
sg131
I0
sg132
I0
sg133
I59
sg134
I9
sg135
I0
sg136
S'CHS'
p1583
sbsg1398
(ijoueur
joueur
p1584
(dp1585
g25
I0
sg27
I0
sg31
I0
sg33
g0
(g34
g2
Ntp1586
Rp1587
(dp1588
g38
I4
sg39
S'x'
p1589
sg41
S'heros'
p1590
sbsg43
(dp1591
S'SR'
p1592
I0
sS'ST'
p1593
I0
sS'CR'
p1594
I0
sS'CT'
p1595
I0
ssg49
(dp1596
g1592
I0
sg1593
I0
sg1594
I0
sg1595
I0
ssg125
(dp1597
g1592
I0
sg1593
I0
sg1594
I0
sg1595
I0
ssg300
I0
sg52
I0
sg549
I0
sg550
I0
sg54
I2
sg55
I0
sg56
I0
sg76
(S'dummy'
p1598
S'DL'
p1599
S'N8'
p1600
g30
tp1601
sg59
I00
sg60
g0
(g34
g2
Ntp1602
Rp1603
(dp1604
g38
I4
sg39
g1589
sg41
g1590
sbsg61
(dp1605
g1592
I0
sg1593
I2
sg1594
I0
sg1595
I14
ssg63
I00
sg64
(dp1606
g1592
I0
sg1593
I0
sg1594
I0
sg1595
I0
ssg66
(dp1607
g1592
I0
sg1593
I2
sg1594
I0
sg1595
I14
ssg68
I0
sg69
I0
sg70
S'Hraegh'
p1608
sg72
I7
sg73
I0
sg74
I16
sg75
I758
sg57
S'DKW'
p1609
sg82
(dp1610
S'A'
p1611
I11
sS'ME'
p1612
I10
sS'RP2'
p1613
I7
sS'E'
p1614
I10
sS'TO'
p1615
I13
sS'RP1'
p1616
I13
sS'JP'
p1617
I5
sS'RP_tot'
p1618
I13
sS'P'
p1619
I3
sS'PA'
p1620
I10
sS'M'
p1621
I7
sS'R'
p1622
I11
sS'TB'
p1623
I2
sS'PL'
p1624
I11
sS'TA'
p1625
I5
ssg118
I0
sg26
I0
sg120
I0
sg122
I0
sg123
F11.264705882352942
sg124
I0
sg673
I0
sg121
I0
sg127
I1
sg418
(dp1626
S'A'
p1627
I11
sS'ME'
p1628
I10
sS'RP2'
p1629
I7
sS'E'
p1630
I10
sS'TO'
p1631
I13
sS'RP1'
p1632
I13
sS'JP'
p1633
I5
sS'RP_tot'
p1634
I13
sS'P'
p1635
I3
sS'PA'
p1636
I10
sS'M'
p1637
I7
sS'R'
p1638
I11
sS'TB'
p1639
I2
sS'PL'
p1640
I11
sS'TA'
p1641
I5
ssg128
g1610
sg129
I0
sg51
S'HTH 9;ED 11'
p1642
sg130
I0
sg131
I0
sg132
I0
sg133
I59
sg134
I6
sg135
I1
sg136
S'CHS'
p1643
sbssg118
I0
sg26
I0
sg120
I0
sg122
I0
sg125
(dp1644
g1246
I0
sg1247
I0
sg1248
I0
sg1249
I2
ssg124
I0
sg53
F145.96155061580816
sg673
I0
sg121
I0
sg127
I1
sg418
(dp1645
g1461
I11
sg1462
I10
sg1463
I7
sg1464
I10
sg1465
I3
sg1466
I13
sg1467
I5
sg1468
I13
sg1469
I13
sg1470
I10
sg1471
I7
sg1472
I11
sg1473
I2
sg1474
I11
sg1475
I5
ssg128
g1497
sg129
I0
sg531
(dp1646
sg130
I0
sg51
S'HTH 9;ED 11'
p1647
sg131
I0
sg132
I0
sg133
I59
sg134
I9
sg135
I0
sg136
S'CHS'
p1648
sba(ijoueur
joueur
p1649
(dp1650
g286
F9.838709677419354
sg25
I0
sg287
F9.870967741935484
sg119
g30
sg27
I0
sg28
F145.96832295667983
sg31
I0
sg33
g0
(g34
g2
Ntp1651
Rp1652
(dp1653
g38
I2
sg39
S'^^'
p1654
sg41
S'special'
p1655
sbsg43
(dp1656
S'SR'
p1657
I0
sS'ST'
p1658
I0
sS'CR'
p1659
I5
sS'CT'
p1660
I3
ssg49
(dp1661
g1657
I0
sg1658
I0
sg1659
I0
sg1660
I0
ssg299
I0
sg300
I0
sg52
I0
sg549
I0
sg550
I0
sg63
I00
sg54
I2
sg55
I0
sg56
I0
sg76
(S'dummy'
p1662
S'AI'
p1663
S'CE'
p1664
g30
tp1665
sg59
I00
sg60
g0
(g34
g2
Ntp1666
Rp1667
(dp1668
g38
I4
sg39
S'x'
p1669
sg41
S'heros'
p1670
sbsg61
(dp1671
S'SR'
p1672
I0
sS'ST'
p1673
I2
sS'CR'
p1674
I0
sS'CT'
p1675
I12
ssg125
(dp1676
g1672
I0
sg1673
I0
sg1674
I0
sg1675
I0
ssg64
(dp1677
g1672
I0
sg1673
I0
sg1674
I0
sg1675
I0
ssg66
(dp1678
g1657
I4
sg1658
I7
sg1659
I10
sg1660
I24
ssg68
I0
sg69
I0
sg70
S'Laroed'
p1679
sg72
I8
sg73
I0
sg74
I15
sg75
I179
sg57
S'GP'
p1680
sg82
(dp1681
S'A'
p1682
I13
sS'ME'
p1683
I5
sS'RP2'
p1684
I11
sS'E'
p1685
I8
sS'TO'
p1686
I9
sS'RP1'
p1687
I9
sS'JP'
p1688
I6
sS'RP_tot'
p1689
I12
sS'P'
p1690
I10
sS'PA'
p1691
I13
sS'M'
p1692
I11
sS'R'
p1693
I10
sS'TB'
p1694
I6
sS'PL'
p1695
I11
sS'TA'
p1696
I5
ssg99
(dp1697
S's12'
p1698
(ijoueur
joueur
p1699
(dp1700
g286
F9.838709677419354
sg25
I0
sg119
g30
sg27
I0
sg31
I0
sg33
g0
(g34
g2
Ntp1701
Rp1702
(dp1703
g38
I2
sg39
S'^^'
p1704
sg41
S'special'
p1705
sbsg43
(dp1706
S'SR'
p1707
I0
sS'ST'
p1708
I0
sS'CR'
p1709
I5
sS'CT'
p1710
I3
ssg49
(dp1711
g1707
I0
sg1708
I0
sg1709
I0
sg1710
I0
ssg125
(dp1712
S'SR'
p1713
I0
sS'CT'
p1714
I2
sS'CR'
p1715
I0
sS'ST'
p1716
I0
ssg300
I0
sg52
I0
sg549
I0
sg550
I0
sg54
I4
sg55
I0
sg56
I0
sg76
(S'dummy'
p1717
S'AI'
p1718
S'CE'
p1719
g30
tp1720
sg59
I01
sg60
g0
(g34
g2
Ntp1721
Rp1722
(dp1723
g38
I2
sg39
S'^^'
p1724
sg41
g1705
sbsg61
(dp1725
g1713
I0
sg1714
I5
sg1715
I9
sg1716
I4
ssg63
I00
sg64
(dp1726
g1713
I0
sg1714
I0
sg1715
I0
sg1716
I0
ssg66
(dp1727
g1707
I4
sg1708
I5
sg1709
I10
sg1710
I12
ssg68
I0
sg69
I0
sg70
S'Laroed'
p1728
sg72
I8
sg73
I0
sg74
I15
sg75
I100
sg57
S'MSL'
p1729
sg82
(dp1730
S'A'
p1731
I11
sS'ME'
p1732
I5
sS'RP2'
p1733
I10
sS'E'
p1734
I8
sS'TO'
p1735
I7
sS'RP1'
p1736
I6
sS'JP'
p1737
I5
sS'RP_tot'
p1738
I10
sS'P'
p1739
I9
sS'PA'
p1740
I11
sS'M'
p1741
I11
sS'R'
p1742
I10
sS'TB'
p1743
I5
sS'PL'
p1744
I9
sS'TA'
p1745
I5
ssg99
(dp1746
S's11'
p1747
(ijoueur
joueur
p1748
(dp1749
g25
I0
sg27
I0
sg31
I0
sg33
g0
(g34
g2
Ntp1750
Rp1751
(dp1752
g38
I2
sg39
S'^^'
p1753
sg41
S'special'
p1754
sbsg43
(dp1755
S'SR'
p1756
I0
sS'ST'
p1757
I0
sS'CR'
p1758
I5
sS'CT'
p1759
I1
ssg49
(dp1760
g1756
I0
sg1757
I0
sg1758
I0
sg1759
I0
ssg125
(dp1761
g1756
I0
sg1757
I0
sg1758
I5
sg1759
I1
ssg300
I0
sg52
I0
sg549
I0
sg550
I0
sg54
I0
sg55
I0
sg56
I0
sg76
(S'dummy'
p1762
S'AI'
p1763
S'CE'
p1764
g30
tp1765
sg59
I00
sg60
g0
(g34
g2
Ntp1766
Rp1767
(dp1768
g38
I2
sg39
S'^^'
p1769
sg41
g1754
sbsg61
(dp1770
g1756
I4
sg1757
I1
sg1758
I1
sg1759
I7
ssg63
I00
sg64
(dp1771
g1756
I0
sg1757
I0
sg1758
I0
sg1759
I0
ssg66
(dp1772
g1756
I4
sg1757
I1
sg1758
I1
sg1759
I7
ssg68
I0
sg69
I0
sg70
S'Laroed'
p1773
sg72
I8
sg73
I0
sg74
I15
sg75
I100
sg57
S'MSL'
p1774
sg82
(dp1775
S'A'
p1776
I10
sS'ME'
p1777
I5
sS'RP2'
p1778
I10
sS'E'
p1779
I8
sS'TO'
p1780
I7
sS'RP1'
p1781
I6
sS'JP'
p1782
I5
sS'RP_tot'
p1783
I10
sS'P'
p1784
I10
sS'PA'
p1785
I11
sS'M'
p1786
I11
sS'R'
p1787
I10
sS'TB'
p1788
I5
sS'PL'
p1789
I10
sS'TA'
p1790
I5
ssg118
I0
sg26
I0
sg120
I0
sg122
I0
sg123
F9.838709677419354
sg124
I0
sg673
I0
sg121
I0
sg127
I0
sg418
(dp1791
S'A'
p1792
I10
sS'ME'
p1793
I5
sS'RP2'
p1794
I10
sS'E'
p1795
I8
sS'TO'
p1796
I7
sS'RP1'
p1797
I6
sS'JP'
p1798
I5
sS'RP_tot'
p1799
I10
sS'P'
p1800
I10
sS'PA'
p1801
I11
sS'M'
p1802
I11
sS'R'
p1803
I10
sS'TB'
p1804
I5
sS'PL'
p1805
I10
sS'TA'
p1806
I5
ssg128
g1775
sg129
I0
sg51
S'PRG 10'
p1807
sg130
I0
sg131
I0
sg132
I0
sg133
I10
sg134
I0
sg135
I0
sg136
S'CHS'
p1808
sbssg118
I0
sg26
I0
sg120
I0
sg122
I0
sg123
F9.870967741935484
sg124
I0
sg673
I0
sg121
I0
sg127
I0
sg418
(dp1809
S'A'
p1810
I10
sS'ME'
p1811
I5
sS'RP2'
p1812
I10
sS'E'
p1813
I8
sS'P'
p1814
I10
sS'RP1'
p1815
I6
sS'JP'
p1816
I5
sS'RP_tot'
p1817
I10
sS'TO'
p1818
I7
sS'PA'
p1819
I11
sS'M'
p1820
I11
sS'R'
p1821
I10
sS'TB'
p1822
I5
sS'PL'
p1823
I10
sS'TA'
p1824
I5
ssg128
g1730
sg129
I0
sg51
S'PRG 10'
p1825
sg130
I0
sg131
I0
sg132
I0
sg133
I10
sg134
I4
sg135
I0
sg136
S'CHS'
p1826
sbsS's11'
p1827
(ijoueur
joueur
p1828
(dp1829
g25
I0
sg27
I0
sg31
I0
sg33
g0
(g34
g2
Ntp1830
Rp1831
(dp1832
g38
I2
sg39
S'^^'
p1833
sg41
S'special'
p1834
sbsg43
(dp1835
S'SR'
p1836
I0
sS'ST'
p1837
I0
sS'CR'
p1838
I5
sS'CT'
p1839
I1
ssg49
(dp1840
g1836
I0
sg1837
I0
sg1838
I0
sg1839
I0
ssg125
(dp1841
g1836
I0
sg1837
I0
sg1838
I5
sg1839
I1
ssg300
I0
sg52
I0
sg549
I0
sg550
I0
sg54
I0
sg55
I0
sg56
I0
sg76
(S'dummy'
p1842
S'AI'
p1843
S'CE'
p1844
g30
tp1845
sg59
I00
sg60
g0
(g34
g2
Ntp1846
Rp1847
(dp1848
g38
I2
sg39
S'^^'
p1849
sg41
g1834
sbsg61
(dp1850
g1836
I4
sg1837
I1
sg1838
I1
sg1839
I7
ssg63
I00
sg64
(dp1851
g1836
I0
sg1837
I0
sg1838
I0
sg1839
I0
ssg66
(dp1852
g1836
I4
sg1837
I1
sg1838
I1
sg1839
I7
ssg68
I0
sg69
I0
sg70
S'Laroed'
p1853
sg72
I8
sg73
I0
sg74
I15
sg75
I100
sg57
S'MSL'
p1854
sg82
(dp1855
S'A'
p1856
I10
sS'ME'
p1857
I5
sS'RP2'
p1858
I10
sS'E'
p1859
I8
sS'TO'
p1860
I7
sS'RP1'
p1861
I6
sS'JP'
p1862
I5
sS'RP_tot'
p1863
I10
sS'P'
p1864
I10
sS'PA'
p1865
I11
sS'M'
p1866
I11
sS'R'
p1867
I10
sS'TB'
p1868
I5
sS'PL'
p1869
I10
sS'TA'
p1870
I5
ssg118
I0
sg26
I0
sg120
I0
sg122
I0
sg123
F9.838709677419354
sg124
I0
sg673
I0
sg121
I0
sg127
I0
sg418
(dp1871
S'A'
p1872
I10
sS'ME'
p1873
I5
sS'RP2'
p1874
I10
sS'E'
p1875
I8
sS'TO'
p1876
I7
sS'RP1'
p1877
I6
sS'JP'
p1878
I5
sS'RP_tot'
p1879
I10
sS'P'
p1880
I10
sS'PA'
p1881
I11
sS'M'
p1882
I11
sS'R'
p1883
I10
sS'TB'
p1884
I5
sS'PL'
p1885
I10
sS'TA'
p1886
I5
ssg128
g1855
sg129
I0
sg51
S'PRG 10'
p1887
sg130
I0
sg131
I0
sg132
I0
sg133
I10
sg134
I0
sg135
I0
sg136
S'CHS'
p1888
sbssg118
I5
sg26
I0
sg120
I0
sg122
I0
sg123
F11.161290322580646
sg124
I0
sg53
F145.96832295667983
sg673
I0
sg121
I0
sg127
I0
sg418
(dp1889
S'A'
p1890
I10
sS'ME'
p1891
I5
sS'RP2'
p1892
I10
sS'E'
p1893
I8
sS'P'
p1894
I10
sS'RP1'
p1895
I6
sS'JP'
p1896
I5
sS'RP_tot'
p1897
I10
sS'TO'
p1898
I7
sS'PA'
p1899
I11
sS'M'
p1900
I11
sS'R'
p1901
I10
sS'TB'
p1902
I5
sS'PL'
p1903
I10
sS'TA'
p1904
I5
ssg128
g1681
sg129
I0
sg531
(dp1905
sg130
I0
sg51
S'PRG 10;MSL 13'
p1906
sg131
I0
sg132
I0
sg133
I15
sg134
I6
sg135
I0
sg136
S'CHS'
p1907
sba(ijoueur
joueur
p1908
(dp1909
g286
F11.31578947368421
sg25
I1
sg287
F12.157894736842104
sg119
g30
sg27
I0
sg28
F164.3572199442977
sg31
I0
sg33
g0
(g34
g2
Ntp1910
Rp1911
(dp1912
g38
I6
sg39
S'***'
p1913
sg41
S'personnage'
p1914
sbsg43
(dp1915
S'SR'
p1916
I0
sS'ST'
p1917
I1
sS'CR'
p1918
I0
sS'CT'
p1919
I27
ssg49
(dp1920
g1916
I4
sg1917
I0
sg1918
I0
sg1919
I0
ssg299
I0
sg125
(dp1921
S'SR'
p1922
I0
sS'CT'
p1923
I12
sS'CR'
p1924
I0
sS'ST'
p1925
I0
ssg300
I0
sg52
I0
sg549
I0
sg550
I0
sg54
I0
sg55
I0
sg56
I0
sg76
(S'dummy'
p1926
S'TL'
p1927
S'N8'
p1928
S'DL'
p1929
tp1930
sg59
I00
sg60
g0
(g34
g2
Ntp1931
Rp1932
(dp1933
g38
I6
sg39
S'***'
p1934
sg41
g1914
sbsg61
(dp1935
g1922
I0
sg1923
I2
sg1924
I0
sg1925
I2
ssg63
I00
sg64
(dp1936
g1922
I0
sg1923
I0
sg1924
I0
sg1925
I0
ssg66
(dp1937
g1916
I0
sg1917
I8
sg1918
I0
sg1919
I15
ssg68
I0
sg69
I0
sg70
S"U'zhul"
p1938
sg72
I8
sg73
I0
sg74
I18
sg75
I651
sg57
S'KAK'
p1939
sg82
(dp1940
S'A'
p1941
I15
sS'ME'
p1942
I12
sS'RP2'
p1943
I8
sS'E'
p1944
I11
sS'TO'
p1945
I14
sS'RP1'
p1946
I10
sS'JP'
p1947
I0
sS'RP_tot'
p1948
I11
sS'P'
p1949
I0
sS'PA'
p1950
I11
sS'M'
p1951
I9
sS'R'
p1952
I10
sS'TB'
p1953
I0
sS'PL'
p1954
I14
sS'TA'
p1955
I6
ssg99
(dp1956
S's12'
p1957
(ijoueur
joueur
p1958
(dp1959
g286
F11.31578947368421
sg25
I0
sg119
g30
sg27
I0
sg31
I0
sg33
g0
(g34
g2
Ntp1960
Rp1961
(dp1962
g38
I6
sg39
S'***'
p1963
sg41
S'personnage'
p1964
sbsg43
(dp1965
S'SR'
p1966
I0
sS'ST'
p1967
I1
sS'CR'
p1968
I0
sS'CT'
p1969
I15
ssg49
(dp1970
g1966
I4
sg1967
I0
sg1968
I0
sg1969
I0
ssg300
I0
sg123
F12.157894736842104
sg52
I0
sg549
I0
sg550
I0
sg54
I1
sg55
I0
sg56
I0
sg76
(S'dummy'
p1971
S'TL'
p1972
S'N8'
p1973
S'DL'
p1974
tp1975
sg59
I00
sg60
g0
(g34
g2
Ntp1976
Rp1977
(dp1978
g38
I6
sg39
S'***'
p1979
sg41
g1964
sbsg61
(dp1980
S'SR'
p1981
I0
sS'ST'
p1982
I4
sS'CR'
p1983
I0
sS'CT'
p1984
I1
ssg63
I00
sg64
(dp1985
g1981
I1
sg1982
I0
sg1983
I0
sg1984
I0
ssg66
(dp1986
g1966
I0
sg1967
I6
sg1968
I0
sg1969
I13
ssg68
I0
sg69
I0
sg70
S"U'zhul"
p1987
sg72
I8
sg73
I0
sg74
I18
sg75
I651
sg57
S'KAK'
p1988
sg82
(dp1989
S'A'
p1990
I15
sS'ME'
p1991
I12
sS'RP2'
p1992
I8
sS'E'
p1993
I12
sS'TO'
p1994
I14
sS'RP1'
p1995
I10
sS'JP'
p1996
I0
sS'RP_tot'
p1997
I11
sS'P'
p1998
I0
sS'PA'
p1999
I11
sS'M'
p2000
I9
sS'R'
p2001
I10
sS'TB'
p2002
I0
sS'PL'
p2003
I14
sS'TA'
p2004
I6
ssg99
(dp2005
S's11'
p2006
(ijoueur
joueur
p2007
(dp2008
g25
I0
sg27
I0
sg31
I0
sg33
g0
(g34
g2
Ntp2009
Rp2010
(dp2011
g38
I6
sg39
S'***'
p2012
sg41
S'personnage'
p2013
sbsg43
(dp2014
S'SR'
p2015
I0
sS'ST'
p2016
I0
sS'CR'
p2017
I0
sS'CT'
p2018
I2
ssg49
(dp2019
g2015
I3
sg2016
I0
sg2017
I0
sg2018
I0
ssg125
(dp2020
g2015
I0
sg2016
I0
sg2017
I0
sg2018
I2
ssg300
I0
sg52
I0
sg549
I0
sg550
I0
sg54
I2
sg55
I0
sg56
I0
sg76
(S'dummy'
p2021
S'TL'
p2022
S'N8'
p2023
S'DL'
p2024
tp2025
sg59
I00
sg60
g0
(g34
g2
Ntp2026
Rp2027
(dp2028
g38
I6
sg39
S'***'
p2029
sg41
g2013
sbsg61
(dp2030
g2015
I0
sg2016
I2
sg2017
I0
sg2018
I12
ssg63
I00
sg64
(dp2031
g2015
I3
sg2016
I0
sg2017
I0
sg2018
I0
ssg66
(dp2032
g2015
I0
sg2016
I2
sg2017
I0
sg2018
I12
ssg68
I0
sg69
I0
sg70
S"U'zhul"
p2033
sg72
I8
sg73
I0
sg74
I18
sg75
I651
sg57
S'KAK'
p2034
sg82
(dp2035
S'A'
p2036
I14
sS'ME'
p2037
I10
sS'RP2'
p2038
I7
sS'E'
p2039
I12
sS'TO'
p2040
I14
sS'RP1'
p2041
I10
sS'JP'
p2042
I0
sS'RP_tot'
p2043
I10
sS'P'
p2044
I0
sS'PA'
p2045
I11
sS'M'
p2046
I9
sS'R'
p2047
I9
sS'TB'
p2048
I0
sS'PL'
p2049
I12
sS'TA'
p2050
I6
ssg118
I0
sg26
I0
sg120
I0
sg122
I0
sg123
F11.31578947368421
sg124
I0
sg673
I0
sg121
I0
sg127
I0
sg418
(dp2051
S'A'
p2052
I14
sS'ME'
p2053
I10
sS'RP2'
p2054
I7
sS'E'
p2055
I12
sS'TO'
p2056
I14
sS'RP1'
p2057
I10
sS'JP'
p2058
I0
sS'RP_tot'
p2059
I10
sS'P'
p2060
I0
sS'PA'
p2061
I11
sS'M'
p2062
I9
sS'R'
p2063
I9
sS'TB'
p2064
I0
sS'PL'
p2065
I12
sS'TA'
p2066
I6
ssg128
g2035
sg129
I0
sg51
g30
sg130
I0
sg131
I0
sg132
I0
sg133
I56
sg134
I13
sg135
I0
sg136
S'CHS'
p2067
sbssg118
I7
sg26
I0
sg120
I0
sg122
I0
sg125
(dp2068
g1981
I0
sg1982
I1
sg1983
I0
sg1984
I13
ssg124
I0
sg673
I0
sg121
I0
sg127
I0
sg418
(dp2069
S'A'
p2070
I14
sS'ME'
p2071
I10
sS'RP2'
p2072
I7
sS'E'
p2073
I12
sS'TO'
p2074
I14
sS'RP1'
p2075
I10
sS'JP'
p2076
I0
sS'RP_tot'
p2077
I10
sS'P'
p2078
I0
sS'PA'
p2079
I11
sS'M'
p2080
I9
sS'R'
p2081
I9
sS'TB'
p2082
I0
sS'PL'
p2083
I12
sS'TA'
p2084
I6
ssg128
g1989
sg129
I0
sg51
g30
sg130
I0
sg131
I0
sg132
I0
sg133
I56
sg134
I14
sg135
I0
sg136
S'CHS'
p2085
sbsS's11'
p2086
(ijoueur
joueur
p2087
(dp2088
g25
I0
sg27
I0
sg31
I0
sg33
g0
(g34
g2
Ntp2089
Rp2090
(dp2091
g38
I6
sg39
S'***'
p2092
sg41
S'personnage'
p2093
sbsg43
(dp2094
S'SR'
p2095
I0
sS'ST'
p2096
I0
sS'CR'
p2097
I0
sS'CT'
p2098
I2
ssg49
(dp2099
g2095
I3
sg2096
I0
sg2097
I0
sg2098
I0
ssg125
(dp2100
g2095
I0
sg2096
I0
sg2097
I0
sg2098
I2
ssg300
I0
sg52
I0
sg549
I0
sg550
I0
sg54
I2
sg55
I0
sg56
I0
sg76
(S'dummy'
p2101
S'TL'
p2102
S'N8'
p2103
S'DL'
p2104
tp2105
sg59
I00
sg60
g0
(g34
g2
Ntp2106
Rp2107
(dp2108
g38
I6
sg39
S'***'
p2109
sg41
g2093
sbsg61
(dp2110
g2095
I0
sg2096
I2
sg2097
I0
sg2098
I12
ssg63
I00
sg64
(dp2111
g2095
I3
sg2096
I0
sg2097
I0
sg2098
I0
ssg66
(dp2112
g2095
I0
sg2096
I2
sg2097
I0
sg2098
I12
ssg68
I0
sg69
I0
sg70
S"U'zhul"
p2113
sg72
I8
sg73
I0
sg74
I18
sg75
I651
sg57
S'KAK'
p2114
sg82
(dp2115
S'A'
p2116
I14
sS'ME'
p2117
I10
sS'RP2'
p2118
I7
sS'E'
p2119
I12
sS'TO'
p2120
I14
sS'RP1'
p2121
I10
sS'JP'
p2122
I0
sS'RP_tot'
p2123
I10
sS'P'
p2124
I0
sS'PA'
p2125
I11
sS'M'
p2126
I9
sS'R'
p2127
I9
sS'TB'
p2128
I0
sS'PL'
p2129
I12
sS'TA'
p2130
I6
ssg118
I0
sg26
I0
sg120
I0
sg122
I0
sg123
F11.31578947368421
sg124
I0
sg673
I0
sg121
I0
sg127
I0
sg418
(dp2131
S'A'
p2132
I14
sS'ME'
p2133
I10
sS'RP2'
p2134
I7
sS'E'
p2135
I12
sS'TO'
p2136
I14
sS'RP1'
p2137
I10
sS'JP'
p2138
I0
sS'RP_tot'
p2139
I10
sS'P'
p2140
I0
sS'PA'
p2141
I11
sS'M'
p2142
I9
sS'R'
p2143
I9
sS'TB'
p2144
I0
sS'PL'
p2145
I12
sS'TA'
p2146
I6
ssg128
g2115
sg129
I0
sg51
g30
sg130
I0
sg131
I0
sg132
I0
sg133
I56
sg134
I13
sg135
I0
sg136
S'CHS'
p2147
sbssg118
I6
sg26
I0
sg120
I0
sg122
I0
sg123
F12.052631578947368
sg124
I0
sg53
F164.3572199442977
sg673
I0
sg121
I0
sg127
I0
sg418
(dp2148
S'A'
p2149
I14
sS'ME'
p2150
I10
sS'RP2'
p2151
I7
sS'E'
p2152
I12
sS'TO'
p2153
I14
sS'RP1'
p2154
I10
sS'JP'
p2155
I0
sS'RP_tot'
p2156
I10
sS'P'
p2157
I0
sS'PA'
p2158
I11
sS'M'
p2159
I9
sS'R'
p2160
I9
sS'TB'
p2161
I0
sS'PL'
p2162
I12
sS'TA'
p2163
I6
ssg128
g1940
sg129
I1
sg531
(dp2164
sg130
I0
sg51
g30
sg131
I0
sg132
I0
sg133
I56
sg134
I14
sg135
I0
sg136
S'CHS'
p2165
sba(ijoueur
joueur
p2166
(dp2167
g286
F11.0
sg25
I0
sg287
F10.852941176470589
sg119
g30
sg27
I0
sg28
F168.1157830304996
sg31
I0
sg33
g0
(g34
g2
Ntp2168
Rp2169
(dp2170
g38
I5
sg39
S'**'
p2171
sg41
S'seigneur'
p2172
sbsg43
(dp2173
S'SR'
p2174
I0
sS'ST'
p2175
I0
sS'CR'
p2176
I0
sS'CT'
p2177
I0
ssg49
(dp2178
g2174
I0
sg2175
I0
sg2176
I0
sg2177
I0
ssg299
I0
sg300
I0
sg52
I0
sg53
F168.1157830304996
sg63
I00
sg54
I5
sg55
I0
sg56
I0
sg76
(S'dummy'
p2179
S'PI'
p2180
S'N8'
p2181
S'DL'
p2182
tp2183
sg59
I00
sg60
g0
(g34
g2
Ntp2184
Rp2185
(dp2186
g38
I5
sg39
S'**'
p2187
sg41
g2172
sbsg61
(dp2188
S'SR'
p2189
I0
sS'ST'
p2190
I1
sS'CR'
p2191
I1
sS'CT'
p2192
I14
ssg125
(dp2193
g2189
I0
sg2190
I0
sg2191
I0
sg2192
I0
ssg64
(dp2194
g2189
I0
sg2190
I0
sg2191
I0
sg2192
I0
ssg66
(dp2195
g2174
I0
sg2175
I10
sg2176
I2
sg2177
I41
ssg68
I0
sg69
I0
sg70
S'Dylzohed'
p2196
sg72
I6
sg73
I0
sg74
I16
sg75
I210
sg57
S'KHR'
p2197
sg82
(dp2198
S'A'
p2199
I9
sS'ME'
p2200
I11
sS'RP2'
p2201
I7
sS'E'
p2202
I11
sS'TO'
p2203
I12
sS'RP1'
p2204
I11
sS'JP'
p2205
I2
sS'RP_tot'
p2206
I11
sS'P'
p2207
I4
sS'PA'
p2208
I12
sS'M'
p2209
I8
sS'R'
p2210
I11
sS'TB'
p2211
I4
sS'PL'
p2212
I11
sS'TA'
p2213
I8
ssg99
(dp2214
S's12'
p2215
(ijoueur
joueur
p2216
(dp2217
g286
F11.0
sg25
I0
sg119
g30
sg27
I0
sg31
I0
sg33
g0
(g34
g2
Ntp2218
Rp2219
(dp2220
g38
I5
sg39
S'**'
p2221
sg41
S'seigneur'
p2222
sbsg43
(dp2223
S'SR'
p2224
I0
sS'ST'
p2225
I0
sS'CR'
p2226
I0
sS'CT'
p2227
I0
ssg49
(dp2228
g2224
I0
sg2225
I0
sg2226
I0
sg2227
I0
ssg125
(dp2229
S'SR'
p2230
I0
sS'CT'
p2231
I0
sS'CR'
p2232
I0
sS'ST'
p2233
I0
ssg300
I0
sg52
I0
sg54
I0
sg55
I0
sg56
I0
sg76
(S'dummy'
p2234
S'PI'
p2235
S'N8'
p2236
S'DL'
p2237
tp2238
sg59
I00
sg60
g0
(g34
g2
Ntp2239
Rp2240
(dp2241
g38
I5
sg39
S'**'
p2242
sg41
g2222
sbsg61
(dp2243
g2230
I0
sg2231
I14
sg2232
I1
sg2233
I5
ssg63
I00
sg64
(dp2244
g2230
I0
sg2231
I0
sg2232
I0
sg2233
I0
ssg66
(dp2245
g2224
I0
sg2225
I9
sg2226
I1
sg2227
I27
ssg68
I0
sg69
I0
sg70
S'Dylzohed'
p2246
sg72
I6
sg73
I0
sg74
I16
sg75
I210
sg57
S'KHR'
p2247
sg82
(dp2248
S'A'
p2249
I9
sS'ME'
p2250
I11
sS'RP2'
p2251
I7
sS'E'
p2252
I11
sS'TO'
p2253
I12
sS'RP1'
p2254
I11
sS'JP'
p2255
I2
sS'RP_tot'
p2256
I11
sS'P'
p2257
I4
sS'PA'
p2258
I12
sS'M'
p2259
I8
sS'R'
p2260
I10
sS'TB'
p2261
I4
sS'PL'
p2262
I11
sS'TA'
p2263
I8
ssg99
(dp2264
S's11'
p2265
(ijoueur
joueur
p2266
(dp2267
g25
I0
sg27
I0
sg31
I0
sg33
g0
(g34
g2
Ntp2268
Rp2269
(dp2270
g38
I5
sg39
S'**'
p2271
sg41
S'seigneur'
p2272
sbsg43
(dp2273
S'SR'
p2274
I0
sS'ST'
p2275
I0
sS'CR'
p2276
I0
sS'CT'
p2277
I0
ssg49
(dp2278
g2274
I0
sg2275
I0
sg2276
I0
sg2277
I0
ssg300
I0
sg52
I0
sg63
I00
sg54
I0
sg55
I0
sg56
I0
sg76
(S'dummy'
p2279
S'PI'
p2280
S'N8'
p2281
S'DL'
p2282
tp2283
sg59
I00
sg60
g0
(g34
g2
Ntp2284
Rp2285
(dp2286
g38
I5
sg39
S'**'
p2287
sg41
g2272
sbsg61
(dp2288
g2274
I0
sg2275
I4
sg2276
I0
sg2277
I13
ssg125
(dp2289
g2274
I0
sg2275
I0
sg2276
I0
sg2277
I0
ssg64
(dp2290
g2274
I0
sg2275
I0
sg2276
I0
sg2277
I0
ssg66
(dp2291
g2274
I0
sg2275
I4
sg2276
I0
sg2277
I13
ssg68
I0
sg69
I0
sg70
S'Dylzohed'
p2292
sg72
I6
sg73
I0
sg74
I16
sg75
I210
sg57
S'KHR'
p2293
sg82
(dp2294
S'A'
p2295
I10
sS'ME'
p2296
I11
sS'RP2'
p2297
I7
sS'E'
p2298
I11
sS'TO'
p2299
I12
sS'RP1'
p2300
I11
sS'JP'
p2301
I2
sS'RP_tot'
p2302
I11
sS'P'
p2303
I4
sS'PA'
p2304
I12
sS'M'
p2305
I7
sS'R'
p2306
I10
sS'TB'
p2307
I4
sS'PL'
p2308
I12
sS'TA'
p2309
I8
ssg118
I0
sg26
I0
sg120
I0
sg122
I0
sg123
F11.0
sg124
I0
sg121
I0
sg127
I0
sg418
(dp2310
S'A'
p2311
I10
sS'ME'
p2312
I11
sS'RP2'
p2313
I7
sS'E'
p2314
I11
sS'TO'
p2315
I12
sS'RP1'
p2316
I11
sS'JP'
p2317
I2
sS'RP_tot'
p2318
I11
sS'P'
p2319
I4
sS'PA'
p2320
I12
sS'M'
p2321
I7
sS'R'
p2322
I10
sS'TB'
p2323
I4
sS'PL'
p2324
I12
sS'TA'
p2325
I8
ssg128
g2294
sg129
I0
sg51
g30
sg130
I0
sg131
I0
sg132
I0
sg133
I21
sg134
I12
sg135
I0
sg136
S'CHS'
p2326
sbssg118
I3
sg26
I0
sg120
I0
sg122
I0
sg123
F10.852941176470589
sg124
I0
sg121
I0
sg127
I0
sg418
(dp2327
S'A'
p2328
I10
sS'ME'
p2329
I11
sS'RP2'
p2330
I7
sS'E'
p2331
I11
sS'P'
p2332
I4
sS'RP1'
p2333
I11
sS'JP'
p2334
I2
sS'RP_tot'
p2335
I11
sS'TO'
p2336
I12
sS'PA'
p2337
I12
sS'M'
p2338
I7
sS'R'
p2339
I10
sS'TB'
p2340
I4
sS'PL'
p2341
I12
sS'TA'
p2342
I8
ssg128
g2248
sg129
I0
sg51
g30
sg130
I0
sg131
I0
sg132
I0
sg133
I21
sg134
I12
sg135
I0
sg136
S'CHS'
p2343
sbsS's11'
p2344
(ijoueur
joueur
p2345
(dp2346
g25
I0
sg27
I0
sg31
I0
sg33
g0
(g34
g2
Ntp2347
Rp2348
(dp2349
g38
I5
sg39
S'**'
p2350
sg41
S'seigneur'
p2351
sbsg43
(dp2352
S'SR'
p2353
I0
sS'ST'
p2354
I0
sS'CR'
p2355
I0
sS'CT'
p2356
I0
ssg49
(dp2357
g2353
I0
sg2354
I0
sg2355
I0
sg2356
I0
ssg300
I0
sg52
I0
sg63
I00
sg54
I0
sg55
I0
sg56
I0
sg76
(S'dummy'
p2358
S'PI'
p2359
S'N8'
p2360
S'DL'
p2361
tp2362
sg59
I00
sg60
g0
(g34
g2
Ntp2363
Rp2364
(dp2365
g38
I5
sg39
S'**'
p2366
sg41
g2351
sbsg61
(dp2367
g2353
I0
sg2354
I4
sg2355
I0
sg2356
I13
ssg125
(dp2368
g2353
I0
sg2354
I0
sg2355
I0
sg2356
I0
ssg64
(dp2369
g2353
I0
sg2354
I0
sg2355
I0
sg2356
I0
ssg66
(dp2370
g2353
I0
sg2354
I4
sg2355
I0
sg2356
I13
ssg68
I0
sg69
I0
sg70
S'Dylzohed'
p2371
sg72
I6
sg73
I0
sg74
I16
sg75
I210
sg57
S'KHR'
p2372
sg82
(dp2373
S'A'
p2374
I10
sS'ME'
p2375
I11
sS'RP2'
p2376
I7
sS'E'
p2377
I11
sS'TO'
p2378
I12
sS'RP1'
p2379
I11
sS'JP'
p2380
I2
sS'RP_tot'
p2381
I11
sS'P'
p2382
I4
sS'PA'
p2383
I12
sS'M'
p2384
I7
sS'R'
p2385
I10
sS'TB'
p2386
I4
sS'PL'
p2387
I12
sS'TA'
p2388
I8
ssg118
I0
sg26
I0
sg120
I0
sg122
I0
sg123
F11.0
sg124
I0
sg121
I0
sg127
I0
sg418
(dp2389
S'A'
p2390
I10
sS'ME'
p2391
I11
sS'RP2'
p2392
I7
sS'E'
p2393
I11
sS'TO'
p2394
I12
sS'RP1'
p2395
I11
sS'JP'
p2396
I2
sS'RP_tot'
p2397
I11
sS'P'
p2398
I4
sS'PA'
p2399
I12
sS'M'
p2400
I7
sS'R'
p2401
I10
sS'TB'
p2402
I4
sS'PL'
p2403
I12
sS'TA'
p2404
I8
ssg128
g2373
sg129
I0
sg51
g30
sg130
I0
sg131
I0
sg132
I0
sg133
I21
sg134
I12
sg135
I0
sg136
S'CHS'
p2405
sbssg118
I7
sg26
I0
sg120
I0
sg122
I0
sg123
F11.029411764705882
sg124
I0
sg121
I0
sg127
I2
sg418
(dp2406
S'A'
p2407
I10
sS'ME'
p2408
I11
sS'RP2'
p2409
I7
sS'E'
p2410
I11
sS'P'
p2411
I4
sS'RP1'
p2412
I11
sS'JP'
p2413
I2
sS'RP_tot'
p2414
I11
sS'TO'
p2415
I12
sS'PA'
p2416
I12
sS'M'
p2417
I7
sS'R'
p2418
I10
sS'TB'
p2419
I4
sS'PL'
p2420
I12
sS'TA'
p2421
I8
ssg128
g2198
sg129
I0
sg531
(dp2422
sg130
I0
sg51
g30
sg131
I0
sg132
I0
sg133
I21
sg134
I17
sg135
I2
sg136
S'CHS'
p2423
sba(ijoueur
joueur
p2424
(dp2425
g25
I0
sg287
F8.969696969696969
sg119
g30
sg27
I1
sg28
F197.50599756449924
sg29
g30
sg31
I0
sg32
g30
sg33
g0
(g34
g2
Ntp2426
Rp2427
(dp2428
g38
I5
sg39
S'**'
p2429
sg41
S'seigneur'
p2430
sbsg43
(dp2431
S'SR'
p2432
I0
sS'CT'
p2433
I1
sS'CR'
p2434
I7
sS'ST'
p2435
I2
ssg49
(dp2436
g2432
I0
sg2433
I0
sg2434
I0
sg2435
I0
ssg299
I0
sg51
g30
sg52
I0
sg53
F197.50599756449924
sg63
I00
sg54
I1
sg55
I0
sg56
I0
sg57
g2197
sg59
I00
sg60
g0
(g34
g2
Ntp2437
Rp2438
(dp2439
g38
I2
sg39
S'^^'
p2440
sg41
S'special'
p2441
sbsg61
(dp2442
g2189
I0
sg2190
I0
sg2191
I8
sg2192
I2
ssg125
(dp2443
g2189
I0
sg2190
I2
sg2191
I7
sg2192
I0
ssg64
(dp2444
g2189
I0
sg2190
I0
sg2191
I0
sg2192
I0
ssg66
(dp2445
g2432
I0
sg2433
I2
sg2434
I10
sg2435
I0
ssg68
I0
sg69
I0
sg70
S'Bretof'
p2446
sg72
I12
sg73
I0
sg74
I26
sg75
I35
sg76
(S'dummy'
p2447
S'DO'
p2448
S'DM'
p2449
g30
tp2450
sg81
g30
sg82
(dp2451
S'RP1'
p2452
I6
sS'ME'
p2453
I5
sS'RP2'
p2454
I6
sS'E'
p2455
I10
sS'P'
p2456
I8
sS'JP'
p2457
I9
sS'M'
p2458
I11
sS'RP_tot'
p2459
I7
sS'TO'
p2460
I7
sS'PA'
p2461
I11
sS'A'
p2462
I10
sS'R'
p2463
I8
sS'TB'
p2464
I7
sS'PL'
p2465
I10
sS'TA'
p2466
I7
ssg99
(dp2467
g2215
(ijoueur
joueur
p2468
(dp2469
g25
I0
sg119
g30
sg27
I0
sg29
g30
sg31
I0
sg32
g30
sg33
g0
(g34
g2
Ntp2470
Rp2471
(dp2472
g38
I5
sg39
S'**'
p2473
sg41
S'seigneur'
p2474
sbsg43
(dp2475
S'SR'
p2476
I0
sS'CT'
p2477
I1
sS'CR'
p2478
I0
sS'ST'
p2479
I0
ssg49
(dp2480
g2476
I0
sg2477
I0
sg2478
I0
sg2479
I0
ssg125
(dp2481
g2476
I0
sg2477
I1
sg2478
I0
sg2479
I0
ssg51
g30
sg52
I0
sg54
I0
sg55
I0
sg56
I0
sg57
g2247
sg59
I00
sg60
g0
(g34
g2
Ntp2482
Rp2483
(dp2484
g38
I1
sg39
S'^'
p2485
sg41
S'base'
p2486
sbsg61
(dp2487
g2476
I0
sg2477
I0
sg2478
I2
sg2479
I0
ssg63
I01
sg64
(dp2488
g2476
I0
sg2477
I0
sg2478
I0
sg2479
I0
ssg66
(dp2489
g2476
I0
sg2477
I0
sg2478
I2
sg2479
I0
ssg68
I0
sg69
I0
sg70
S'Bretof'
p2490
sg72
I12
sg73
I0
sg74
I26
sg75
I16
sg76
(S'dummy'
p2491
S'DO'
p2492
S'DM'
p2493
g30
tp2494
sg81
g30
sg82
(dp2495
S'RP1'
p2496
I6
sS'ME'
p2497
I4
sS'RP2'
p2498
I6
sS'E'
p2499
I10
sS'P'
p2500
I8
sS'JP'
p2501
I8
sS'M'
p2502
I10
sS'RP_tot'
p2503
I6
sS'TO'
p2504
I7
sS'PA'
p2505
I10
sS'A'
p2506
I10
sS'R'
p2507
I8
sS'TB'
p2508
I8
sS'PL'
p2509
I10
sS'TA'
p2510
I6
ssg99
(dp2511
sg118
I0
sg26
I0
sg120
I0
sg122
I0
sg123
F8.969696969696969
sg124
I0
sg121
I0
sg127
I0
sg128
g2495
sg129
I0
sg130
I0
sg131
I0
sg132
I0
sg133
I1
sg134
I0
sg135
I0
sg136
S'CHS'
p2512
sbssg118
I7
sg26
I0
sg120
I0
sg122
I0
sg123
F9.454545454545455
sg124
I0
sg121
I0
sg127
I0
sg128
g2451
sg129
I0
sg531
(dp2513
sg130
I0
sg131
I1
sg132
I0
sg133
I2
sg134
I1
sg135
I0
sg136
S'CHS'
p2514
sba(ijoueur
joueur
p2515
(dp2516
g25
I0
sg287
F9.03225806451613
sg119
g30
sg27
I0
sg28
F164.65203493692252
sg29
g30
sg31
I0
sg32
g30
sg33
g0
(g34
g2
Ntp2517
Rp2518
(dp2519
g38
I2
sg39
S'<<'
p2520
sg41
S'special'
p2521
sbsg43
(dp2522
g2432
I0
sg2433
I0
sg2434
I0
sg2435
I0
ssg49
(dp2523
g2432
I0
sg2433
I0
sg2434
I0
sg2435
I0
ssg299
I0
sg51
g30
sg52
I0
sg53
F164.65203493692252
sg63
I00
sg54
I1
sg55
I0
sg56
I0
sg57
g2197
sg59
I00
sg60
g2518
sg61
(dp2524
g2189
I0
sg2190
I0
sg2191
I12
sg2192
I4
ssg125
(dp2525
g2189
I0
sg2190
I0
sg2191
I0
sg2192
I0
ssg64
(dp2526
g2189
I0
sg2190
I0
sg2191
I0
sg2192
I0
ssg66
(dp2527
g2432
I0
sg2433
I4
sg2434
I13
sg2435
I0
ssg68
I0
sg69
I0
sg70
S'Eskeow'
p2528
sg72
I12
sg73
I0
sg74
I20
sg75
I27
sg76
(g2447
S'AI'
p2529
g30
g30
tp2530
sg81
g30
sg82
(dp2531
g2452
I10
sg2453
I5
sg2454
I7
sg2455
I9
sg2456
I9
sg2457
I5
sg2458
I9
sg2459
I10
sg2460
I5
sg2461
I8
sg2462
I12
sg2463
I9
sg2464
I7
sg2465
I10
sg2466
I4
ssg99
(dp2532
g2215
(ijoueur
joueur
p2533
(dp2534
g25
I0
sg119
g30
sg27
I0
sg29
g30
sg31
I0
sg32
g30
sg33
g0
(g34
g2
Ntp2535
Rp2536
(dp2537
g38
I2
sg39
S'<<'
p2538
sg41
S'special'
p2539
sbsg43
(dp2540
g2476
I0
sg2477
I0
sg2478
I0
sg2479
I0
ssg49
(dp2541
g2476
I0
sg2477
I0
sg2478
I0
sg2479
I0
ssg125
(dp2542
g2476
I0
sg2477
I0
sg2478
I0
sg2479
I0
ssg51
g30
sg52
I0
sg54
I0
sg55
I0
sg56
I0
sg57
g2247
sg59
I00
sg60
g0
(g34
g2
Ntp2543
Rp2544
(dp2545
g38
I1
sg39
g2485
sg41
g2486
sbsg61
(dp2546
g2476
I0
sg2477
I0
sg2478
I1
sg2479
I0
ssg63
I01
sg64
(dp2547
g2476
I0
sg2477
I0
sg2478
I0
sg2479
I0
ssg66
(dp2548
g2476
I0
sg2477
I0
sg2478
I1
sg2479
I0
ssg68
I0
sg69
I0
sg70
S'Eskeow'
p2549
sg72
I12
sg73
I0
sg74
I20
sg75
I18
sg76
(g2491
S'AI'
p2550
g30
g30
tp2551
sg81
g30
sg82
(dp2552
g2496
I8
sg2497
I5
sg2498
I7
sg2499
I9
sg2500
I9
sg2501
I5
sg2502
I9
sg2503
I8
sg2504
I5
sg2505
I8
sg2506
I12
sg2507
I9
sg2508
I8
sg2509
I8
sg2510
I4
ssg99
(dp2553
sg118
I0
sg26
I0
sg120
I0
sg122
I0
sg123
F9.03225806451613
sg124
I0
sg121
I0
sg127
I0
sg128
g2552
sg129
I0
sg130
I0
sg131
I0
sg132
I0
sg133
I1
sg134
I0
sg135
I0
sg136
g2512
sbssg118
I0
sg26
I0
sg120
I0
sg122
I0
sg123
F9.67741935483871
sg124
I0
sg121
I0
sg127
I0
sg128
g2531
sg129
I0
sg531
(dp2554
sg130
I0
sg131
I0
sg132
I0
sg133
I1
sg134
I1
sg135
I0
sg136
g2514
sba(ijoueur
joueur
p2555
(dp2556
g286
F12.484848484848484
sg25
I1
sg287
F13.030303030303031
sg119
g30
sg27
I11
sg28
F180.67423615712872
sg31
I0
sg33
g0
(g34
g2
Ntp2557
Rp2558
(dp2559
g38
I6
sg39
S'***'
p2560
sg41
S'personnage'
p2561
sbsg43
(dp2562
S'SR'
p2563
I0
sS'ST'
p2564
I0
sS'CR'
p2565
I0
sS'CT'
p2566
I11
ssg49
(dp2567
g2563
I0
sg2564
I0
sg2565
I0
sg2566
I0
ssg299
I0
sg300
I0
sg52
I0
sg53
F180.67423615712872
sg63
I00
sg54
I4
sg55
I0
sg56
I0
sg76
(S'dummy'
p2568
S'DO'
p2569
S'CE'
p2570
g30
tp2571
sg59
I00
sg60
g0
(g34
g2
Ntp2572
Rp2573
(dp2574
g38
I6
sg39
S'***'
p2575
sg41
g2561
sbsg61
(dp2576
S'SR'
p2577
I0
sS'ST'
p2578
I2
sS'CR'
p2579
I0
sS'CT'
p2580
I3
ssg125
(dp2581
g2577
I0
sg2578
I0
sg2579
I0
sg2580
I11
ssg64
(dp2582
g2577
I0
sg2578
I0
sg2579
I0
sg2580
I0
ssg66
(dp2583
g2563
I0
sg2564
I11
sg2565
I0
sg2566
I29
ssg68
I1
sg69
I0
sg70
S'Sigvald'
p2584
sg72
I9
sg73
I0
sg74
I18
sg75
I377
sg57
S'MDL'
p2585
sg82
(dp2586
S'A'
p2587
I14
sS'ME'
p2588
I6
sS'RP2'
p2589
I13
sS'E'
p2590
I14
sS'TO'
p2591
I8
sS'RP1'
p2592
I11
sS'JP'
p2593
I11
sS'RP_tot'
p2594
I15
sS'P'
p2595
I14
sS'PA'
p2596
I15
sS'M'
p2597
I9
sS'R'
p2598
I7
sS'TB'
p2599
I7
sS'PL'
p2600
I13
sS'TA'
p2601
I7
ssg99
(dp2602
S's12'
p2603
(ijoueur
joueur
p2604
(dp2605
g286
F12.484848484848484
sg25
I1
sg119
g30
sg27
I8
sg31
I0
sg33
g0
(g34
g2
Ntp2606
Rp2607
(dp2608
g38
I6
sg39
S'***'
p2609
sg41
S'personnage'
p2610
sbsg43
(dp2611
S'SR'
p2612
I0
sS'ST'
p2613
I0
sS'CR'
p2614
I0
sS'CT'
p2615
I0
ssg49
(dp2616
g2612
I0
sg2613
I0
sg2614
I0
sg2615
I0
ssg125
(dp2617
S'SR'
p2618
I0
sS'ST'
p2619
I0
sS'CR'
p2620
I0
sS'CT'
p2621
I0
ssg300
I0
sg52
I1
sg54
I3
sg55
I2
sg56
I0
sg76
(S'dummy'
p2622
S'DO'
p2623
S'CE'
p2624
g30
tp2625
sg59
I00
sg60
g0
(g34
g2
Ntp2626
Rp2627
(dp2628
g38
I6
sg39
S'***'
p2629
sg41
g2610
sbsg61
(dp2630
g2618
I0
sg2619
I5
sg2620
I0
sg2621
I12
ssg63
I01
sg64
(dp2631
g2618
I0
sg2619
I0
sg2620
I0
sg2621
I0
ssg66
(dp2632
g2612
I0
sg2613
I9
sg2614
I0
sg2615
I25
ssg68
I1
sg69
I1
sg70
S'Sigvald'
p2633
sg72
I9
sg73
I0
sg74
I18
sg75
I377
sg57
S'MDL'
p2634
sg82
(dp2635
S'A'
p2636
I14
sS'ME'
p2637
I6
sS'RP2'
p2638
I13
sS'E'
p2639
I14
sS'TO'
p2640
I8
sS'RP1'
p2641
I11
sS'JP'
p2642
I10
sS'RP_tot'
p2643
I17
sS'P'
p2644
I14
sS'PA'
p2645
I15
sS'M'
p2646
I9
sS'R'
p2647
I7
sS'TB'
p2648
I7
sS'PL'
p2649
I13
sS'TA'
p2650
I7
ssg99
(dp2651
S's11'
p2652
(ijoueur
joueur
p2653
(dp2654
g25
I0
sg27
I6
sg31
I0
sg33
g0
(g34
g2
Ntp2655
Rp2656
(dp2657
g38
I6
sg39
S'***'
p2658
sg41
S'personnage'
p2659
sbsg43
(dp2660
S'SR'
p2661
I0
sS'ST'
p2662
I0
sS'CR'
p2663
I0
sS'CT'
p2664
I0
ssg49
(dp2665
g2661
I0
sg2662
I0
sg2663
I0
sg2664
I0
ssg300
I0
sg52
I1
sg63
I01
sg54
I3
sg55
I0
sg56
I0
sg76
(S'dummy'
p2666
S'DO'
p2667
S'CE'
p2668
g30
tp2669
sg59
I00
sg60
g0
(g34
g2
Ntp2670
Rp2671
(dp2672
g38
I6
sg39
S'***'
p2673
sg41
g2659
sbsg61
(dp2674
g2661
I0
sg2662
I4
sg2663
I0
sg2664
I13
ssg125
(dp2675
g2661
I0
sg2662
I0
sg2663
I0
sg2664
I0
ssg64
(dp2676
g2661
I0
sg2662
I0
sg2663
I0
sg2664
I0
ssg66
(dp2677
g2661
I0
sg2662
I4
sg2663
I0
sg2664
I13
ssg68
I0
sg69
I0
sg70
S'Sigvald'
p2678
sg72
I9
sg73
I0
sg74
I18
sg75
I377
sg57
S'MDL'
p2679
sg82
(dp2680
S'A'
p2681
I14
sS'ME'
p2682
I6
sS'RP2'
p2683
I12
sS'E'
p2684
I14
sS'TO'
p2685
I8
sS'RP1'
p2686
I11
sS'JP'
p2687
I10
sS'RP_tot'
p2688
I16
sS'P'
p2689
I13
sS'PA'
p2690
I14
sS'M'
p2691
I9
sS'R'
p2692
I6
sS'TB'
p2693
I7
sS'PL'
p2694
I12
sS'TA'
p2695
I7
ssg118
I0
sg26
I1
sg120
I0
sg122
I0
sg123
F12.484848484848484
sg124
I0
sg121
I0
sg127
I0
sg418
(dp2696
S'A'
p2697
I14
sS'ME'
p2698
I6
sS'RP2'
p2699
I12
sS'E'
p2700
I14
sS'TO'
p2701
I8
sS'RP1'
p2702
I11
sS'JP'
p2703
I10
sS'RP_tot'
p2704
I16
sS'P'
p2705
I13
sS'PA'
p2706
I14
sS'M'
p2707
I9
sS'R'
p2708
I6
sS'TB'
p2709
I7
sS'PL'
p2710
I12
sS'TA'
p2711
I7
ssg128
g2680
sg129
I0
sg51
g30
sg130
I0
sg131
I3
sg132
I0
sg133
I49
sg134
I5
sg135
I0
sg136
S'CHS'
p2712
sbssg118
I5
sg26
I2
sg120
I0
sg122
I0
sg123
F13.030303030303031
sg124
I2
sg121
I0
sg127
I0
sg418
(dp2713
S'A'
p2714
I14
sS'ME'
p2715
I6
sS'RP2'
p2716
I12
sS'E'
p2717
I14
sS'P'
p2718
I13
sS'RP1'
p2719
I11
sS'JP'
p2720
I10
sS'RP_tot'
p2721
I16
sS'TO'
p2722
I8
sS'PA'
p2723
I14
sS'M'
p2724
I9
sS'R'
p2725
I6
sS'TB'
p2726
I7
sS'PL'
p2727
I12
sS'TA'
p2728
I7
ssg128
g2635
sg129
I1
sg51
g30
sg130
I0
sg131
I2
sg132
I0
sg133
I49
sg134
I8
sg135
I0
sg136
S'CHS'
p2729
sbsS's11'
p2730
(ijoueur
joueur
p2731
(dp2732
g25
I0
sg27
I6
sg31
I0
sg33
g0
(g34
g2
Ntp2733
Rp2734
(dp2735
g38
I6
sg39
S'***'
p2736
sg41
S'personnage'
p2737
sbsg43
(dp2738
S'SR'
p2739
I0
sS'ST'
p2740
I0
sS'CR'
p2741
I0
sS'CT'
p2742
I0
ssg49
(dp2743
g2739
I0
sg2740
I0
sg2741
I0
sg2742
I0
ssg300
I0
sg52
I1
sg63
I01
sg54
I3
sg55
I0
sg56
I0
sg76
(S'dummy'
p2744
S'DO'
p2745
S'CE'
p2746
g30
tp2747
sg59
I00
sg60
g0
(g34
g2
Ntp2748
Rp2749
(dp2750
g38
I6
sg39
S'***'
p2751
sg41
g2737
sbsg61
(dp2752
g2739
I0
sg2740
I4
sg2741
I0
sg2742
I13
ssg125
(dp2753
g2739
I0
sg2740
I0
sg2741
I0
sg2742
I0
ssg64
(dp2754
g2739
I0
sg2740
I0
sg2741
I0
sg2742
I0
ssg66
(dp2755
g2739
I0
sg2740
I4
sg2741
I0
sg2742
I13
ssg68
I0
sg69
I0
sg70
S'Sigvald'
p2756
sg72
I9
sg73
I0
sg74
I18
sg75
I377
sg57
S'MDL'
p2757
sg82
(dp2758
S'A'
p2759
I14
sS'ME'
p2760
I6
sS'RP2'
p2761
I12
sS'E'
p2762
I14
sS'TO'
p2763
I8
sS'RP1'
p2764
I11
sS'JP'
p2765
I10
sS'RP_tot'
p2766
I16
sS'P'
p2767
I13
sS'PA'
p2768
I14
sS'M'
p2769
I9
sS'R'
p2770
I6
sS'TB'
p2771
I7
sS'PL'
p2772
I12
sS'TA'
p2773
I7
ssg118
I0
sg26
I1
sg120
I0
sg122
I0
sg123
F12.484848484848484
sg124
I0
sg121
I0
sg127
I0
sg418
(dp2774
S'A'
p2775
I14
sS'ME'
p2776
I6
sS'RP2'
p2777
I12
sS'E'
p2778
I14
sS'TO'
p2779
I8
sS'RP1'
p2780
I11
sS'JP'
p2781
I10
sS'RP_tot'
p2782
I16
sS'P'
p2783
I13
sS'PA'
p2784
I14
sS'M'
p2785
I9
sS'R'
p2786
I6
sS'TB'
p2787
I7
sS'PL'
p2788
I12
sS'TA'
p2789
I7
ssg128
g2758
sg129
I0
sg51
g30
sg130
I0
sg131
I3
sg132
I0
sg133
I49
sg134
I5
sg135
I0
sg136
S'CHS'
p2790
sbssg118
I9
sg26
I2
sg120
I0
sg122
I0
sg123
F13.0
sg124
I2
sg121
I0
sg127
I0
sg418
(dp2791
S'A'
p2792
I14
sS'ME'
p2793
I6
sS'RP2'
p2794
I12
sS'E'
p2795
I14
sS'P'
p2796
I13
sS'RP1'
p2797
I11
sS'JP'
p2798
I10
sS'RP_tot'
p2799
I16
sS'TO'
p2800
I8
sS'PA'
p2801
I14
sS'M'
p2802
I9
sS'R'
p2803
I6
sS'TB'
p2804
I7
sS'PL'
p2805
I12
sS'TA'
p2806
I7
ssg128
g2586
sg129
I0
sg531
(dp2807
sg130
I0
sg51
g30
sg131
I3
sg132
I0
sg133
I49
sg134
I12
sg135
I0
sg136
S'CHS'
p2808
sba(ijoueur
joueur
p2809
(dp2810
g286
F11.516129032258064
sg25
I0
sg287
F11.225806451612904
sg119
g30
sg27
I2
sg28
F159.71271954472704
sg31
I0
sg33
g0
(g34
g2
Ntp2811
Rp2812
(dp2813
g38
I4
sg39
S'*'
p2814
sg41
S'heros'
p2815
sbsg43
(dp2816
g2563
I0
sg2564
I5
sg2565
I0
sg2566
I11
ssg49
(dp2817
g2563
I0
sg2564
I8
sg2565
I0
sg2566
I0
ssg299
I0
sg300
I0
sg52
I0
sg53
F159.71271954472704
sg63
I00
sg54
I1
sg55
I0
sg56
I0
sg76
(g2568
S'AI'
p2818
S'AR'
p2819
S'CE'
p2820
tp2821
sg59
I00
sg60
g0
(g34
g2
Ntp2822
Rp2823
(dp2824
g38
I5
sg39
S'**'
p2825
sg41
S'seigneur'
p2826
sbsg61
(dp2827
g2577
I0
sg2578
I0
sg2579
I0
sg2580
I12
ssg125
(dp2828
g2577
I0
sg2578
I0
sg2579
I0
sg2580
I0
ssg64
(dp2829
g2577
I0
sg2578
I2
sg2579
I0
sg2580
I0
ssg66
(dp2830
g2563
I0
sg2564
I0
sg2565
I0
sg2566
I29
ssg68
I0
sg69
I0
sg70
S'Tralov'
p2831
sg72
I9
sg73
I0
sg74
I22
sg75
I768
sg57
g2585
sg82
(dp2832
g2587
I10
sg2588
I5
sg2589
I6
sg2590
I11
sg2591
I11
sg2592
I13
sg2593
I9
sg2594
I13
sg2595
I7
sg2596
I12
sg2597
I8
sg2598
I8
sg2599
I6
sg2600
I12
sg2601
I6
ssg99
(dp2833
g2603
(ijoueur
joueur
p2834
(dp2835
g286
F11.516129032258064
sg25
I0
sg119
g30
sg27
I1
sg31
I0
sg33
g0
(g34
g2
Ntp2836
Rp2837
(dp2838
g38
I4
sg39
S'*'
p2839
sg41
S'heros'
p2840
sbsg43
(dp2841
g2612
I0
sg2613
I5
sg2614
I0
sg2615
I11
ssg49
(dp2842
g2612
I0
sg2613
I6
sg2614
I0
sg2615
I0
ssg125
(dp2843
g2618
I0
sg2619
I0
sg2620
I0
sg2621
I11
ssg300
I0
sg52
I0
sg54
I6
sg55
I0
sg56
I0
sg76
(g2622
S'AI'
p2844
S'AR'
p2845
S'CE'
p2846
tp2847
sg59
I00
sg60
g0
(g34
g2
Ntp2848
Rp2849
(dp2850
g38
I5
sg39
S'**'
p2851
sg41
S'seigneur'
p2852
sbsg61
(dp2853
g2618
I0
sg2619
I0
sg2620
I0
sg2621
I2
ssg63
I00
sg64
(dp2854
g2618
I0
sg2619
I6
sg2620
I0
sg2621
I0
ssg66
(dp2855
g2612
I0
sg2613
I0
sg2614
I0
sg2615
I16
ssg68
I0
sg69
I0
sg70
S'Tralov'
p2856
sg72
I9
sg73
I0
sg74
I22
sg75
I768
sg57
g2634
sg82
(dp2857
g2636
I11
sg2637
I5
sg2638
I6
sg2639
I12
sg2640
I11
sg2641
I13
sg2642
I9
sg2643
I13
sg2644
I7
sg2645
I12
sg2646
I8
sg2647
I8
sg2648
I6
sg2649
I14
sg2650
I6
ssg99
(dp2858
g2652
(ijoueur
joueur
p2859
(dp2860
g25
I0
sg27
I0
sg31
I0
sg33
g0
(g34
g2
Ntp2861
Rp2862
(dp2863
g38
I4
sg39
S'*'
p2864
sg41
S'heros'
p2865
sbsg43
(dp2866
S'SR'
p2867
I0
sS'ST'
p2868
I5
sS'CR'
p2869
I0
sS'CT'
p2870
I0
ssg49
(dp2871
g2867
I0
sg2868
I0
sg2869
I0
sg2870
I0
ssg300
I0
sg52
I0
sg63
I00
sg54
I1
sg55
I0
sg56
I0
sg76
(S'dummy'
p2872
S'AI'
p2873
S'AR'
p2874
S'CE'
p2875
tp2876
sg59
I00
sg60
g0
(g34
g2
Ntp2877
Rp2878
(dp2879
g38
I5
sg39
S'**'
p2880
sg41
S'seigneur'
p2881
sbsg61
(dp2882
g2867
I0
sg2868
I0
sg2869
I0
sg2870
I14
ssg125
(dp2883
g2867
I0
sg2868
I5
sg2869
I0
sg2870
I0
ssg64
(dp2884
g2867
I0
sg2868
I0
sg2869
I0
sg2870
I0
ssg66
(dp2885
g2867
I0
sg2868
I0
sg2869
I0
sg2870
I14
ssg68
I0
sg69
I0
sg70
S'Tralov'
p2886
sg72
I9
sg73
I0
sg74
I22
sg75
I768
sg57
S'MDL'
p2887
sg82
(dp2888
S'A'
p2889
I12
sS'ME'
p2890
I5
sS'RP2'
p2891
I7
sS'E'
p2892
I12
sS'TO'
p2893
I11
sS'RP1'
p2894
I13
sS'JP'
p2895
I9
sS'RP_tot'
p2896
I13
sS'P'
p2897
I9
sS'PA'
p2898
I12
sS'M'
p2899
I8
sS'R'
p2900
I9
sS'TB'
p2901
I6
sS'PL'
p2902
I14
sS'TA'
p2903
I6
ssg118
I0
sg26
I0
sg120
I1
sg122
I0
sg123
F11.516129032258064
sg124
I0
sg121
I1
sg127
I1
sg418
(dp2904
S'A'
p2905
I12
sS'ME'
p2906
I5
sS'RP2'
p2907
I7
sS'E'
p2908
I12
sS'TO'
p2909
I11
sS'RP1'
p2910
I13
sS'JP'
p2911
I9
sS'RP_tot'
p2912
I13
sS'P'
p2913
I9
sS'PA'
p2914
I12
sS'M'
p2915
I8
sS'R'
p2916
I9
sS'TB'
p2917
I6
sS'PL'
p2918
I14
sS'TA'
p2919
I6
ssg128
g2888
sg129
I0
sg51
S'PRG 11'
p2920
sg130
I0
sg131
I0
sg132
I0
sg133
I40
sg134
I1
sg135
I1
sg136
S'CHS'
p2921
sbssg118
I5
sg26
I0
sg120
I1
sg122
I0
sg123
F11.225806451612904
sg124
I0
sg121
I0
sg127
I1
sg418
(dp2922
g2714
I12
sg2715
I5
sg2716
I7
sg2717
I12
sg2718
I9
sg2719
I13
sg2720
I9
sg2721
I13
sg2722
I11
sg2723
I12
sg2724
I8
sg2725
I9
sg2726
I6
sg2727
I14
sg2728
I6
ssg128
g2857
sg129
I0
sg51
S'PRG 11'
p2923
sg130
I0
sg131
I1
sg132
I0
sg133
I40
sg134
I7
sg135
I0
sg136
S'CHS'
p2924
sbsg2730
(ijoueur
joueur
p2925
(dp2926
g25
I0
sg27
I0
sg31
I0
sg33
g0
(g34
g2
Ntp2927
Rp2928
(dp2929
g38
I4
sg39
S'*'
p2930
sg41
S'heros'
p2931
sbsg43
(dp2932
S'SR'
p2933
I0
sS'ST'
p2934
I5
sS'CR'
p2935
I0
sS'CT'
p2936
I0
ssg49
(dp2937
g2933
I0
sg2934
I0
sg2935
I0
sg2936
I0
ssg300
I0
sg52
I0
sg63
I00
sg54
I1
sg55
I0
sg56
I0
sg76
(S'dummy'
p2938
S'AI'
p2939
S'AR'
p2940
S'CE'
p2941
tp2942
sg59
I00
sg60
g0
(g34
g2
Ntp2943
Rp2944
(dp2945
g38
I5
sg39
S'**'
p2946
sg41
S'seigneur'
p2947
sbsg61
(dp2948
g2933
I0
sg2934
I0
sg2935
I0
sg2936
I14
ssg125
(dp2949
g2933
I0
sg2934
I5
sg2935
I0
sg2936
I0
ssg64
(dp2950
g2933
I0
sg2934
I0
sg2935
I0
sg2936
I0
ssg66
(dp2951
g2933
I0
sg2934
I0
sg2935
I0
sg2936
I14
ssg68
I0
sg69
I0
sg70
S'Tralov'
p2952
sg72
I9
sg73
I0
sg74
I22
sg75
I768
sg57
S'MDL'
p2953
sg82
(dp2954
S'A'
p2955
I12
sS'ME'
p2956
I5
sS'RP2'
p2957
I7
sS'E'
p2958
I12
sS'TO'
p2959
I11
sS'RP1'
p2960
I13
sS'JP'
p2961
I9
sS'RP_tot'
p2962
I13
sS'P'
p2963
I9
sS'PA'
p2964
I12
sS'M'
p2965
I8
sS'R'
p2966
I9
sS'TB'
p2967
I6
sS'PL'
p2968
I14
sS'TA'
p2969
I6
ssg118
I0
sg26
I0
sg120
I1
sg122
I0
sg123
F11.516129032258064
sg124
I0
sg121
I1
sg127
I1
sg418
(dp2970
S'A'
p2971
I12
sS'ME'
p2972
I5
sS'RP2'
p2973
I7
sS'E'
p2974
I12
sS'TO'
p2975
I11
sS'RP1'
p2976
I13
sS'JP'
p2977
I9
sS'RP_tot'
p2978
I13
sS'P'
p2979
I9
sS'PA'
p2980
I12
sS'M'
p2981
I8
sS'R'
p2982
I9
sS'TB'
p2983
I6
sS'PL'
p2984
I14
sS'TA'
p2985
I6
ssg128
g2954
sg129
I0
sg51
S'PRG 11'
p2986
sg130
I0
sg131
I0
sg132
I0
sg133
I40
sg134
I1
sg135
I1
sg136
S'CHS'
p2987
sbssg118
I7
sg26
I0
sg120
I1
sg122
I0
sg123
F10.64516129032258
sg124
I0
sg121
I0
sg127
I1
sg418
(dp2988
g2792
I12
sg2793
I5
sg2794
I7
sg2795
I12
sg2796
I9
sg2797
I13
sg2798
I9
sg2799
I13
sg2800
I11
sg2801
I12
sg2802
I8
sg2803
I9
sg2804
I6
sg2805
I14
sg2806
I6
ssg128
g2832
sg129
I0
sg531
(dp2989
sg130
I0
sg51
S'PRG 11'
p2990
sg131
I1
sg132
I0
sg133
I40
sg134
I8
sg135
I0
sg136
S'CHS'
p2991
sba(ijoueur
joueur
p2992
(dp2993
g286
F12.709677419354838
sg25
I0
sg287
F12.387096774193548
sg119
g30
sg27
I0
sg28
F167.9223275128
sg31
I0
sg33
g0
(g34
g2
Ntp2994
Rp2995
(dp2996
g38
I5
sg39
S'**'
p2997
sg41
S'seigneur'
p2998
sbsg43
(dp2999
S'SR'
p3000
I0
sS'CT'
p3001
I0
sS'CR'
p3002
I0
sS'ST'
p3003
I1
ssg49
(dp3004
g3000
I0
sg3001
I1
sg3002
I0
sg3003
I0
ssg299
I0
sg300
I0
sg52
I0
sg549
I0
sg550
I0
sg63
I00
sg54
I0
sg55
I0
sg56
I0
sg76
(S'dummy'
p3005
S'AI'
p3006
S'AR'
p3007
S'CE'
p3008
tp3009
sg59
I00
sg60
g0
(g34
g2
Ntp3010
Rp3011
(dp3012
g38
I5
sg39
S'**'
p3013
sg41
g2998
sbsg61
(dp3014
S'SR'
p3015
I0
sS'ST'
p3016
I2
sS'CR'
p3017
I0
sS'CT'
p3018
I14
ssg125
(dp3019
g3015
I0
sg3016
I0
sg3017
I0
sg3018
I0
ssg64
(dp3020
g3015
I0
sg3016
I0
sg3017
I0
sg3018
I0
ssg66
(dp3021
g3000
I1
sg3001
I40
sg3002
I0
sg3003
I11
ssg68
I0
sg69
I0
sg70
S'Abalyl'
p3022
sg72
I3
sg73
I0
sg74
I12
sg75
I232
sg57
S'MRB'
p3023
sg82
(dp3024
S'A'
p3025
I14
sS'ME'
p3026
I6
sS'RP2'
p3027
I12
sS'E'
p3028
I12
sS'P'
p3029
I5
sS'RP1'
p3030
I11
sS'JP'
p3031
I5
sS'RP_tot'
p3032
I14
sS'TO'
p3033
I8
sS'PA'
p3034
I12
sS'M'
p3035
I9
sS'R'
p3036
I7
sS'TB'
p3037
I5
sS'PL'
p3038
I13
sS'TA'
p3039
I6
ssg99
(dp3040
S's12'
p3041
(ijoueur
joueur
p3042
(dp3043
g286
F12.709677419354838
sg25
I0
sg119
g30
sg27
I0
sg31
I0
sg33
g0
(g34
g2
Ntp3044
Rp3045
(dp3046
g38
I5
sg39
S'**'
p3047
sg41
S'seigneur'
p3048
sbsg43
(dp3049
S'SR'
p3050
I0
sS'CT'
p3051
I0
sS'CR'
p3052
I0
sS'ST'
p3053
I1
ssg49
(dp3054
g3050
I0
sg3051
I1
sg3052
I0
sg3053
I0
ssg125
(dp3055
S'SR'
p3056
I0
sS'ST'
p3057
I1
sS'CR'
p3058
I0
sS'CT'
p3059
I0
ssg300
I0
sg52
I0
sg549
I0
sg550
I0
sg54
I7
sg55
I0
sg56
I0
sg76
(S'dummy'
p3060
S'AI'
p3061
S'AR'
p3062
S'CE'
p3063
tp3064
sg59
I00
sg60
g0
(g34
g2
Ntp3065
Rp3066
(dp3067
g38
I5
sg39
S'**'
p3068
sg41
g3048
sbsg61
(dp3069
g3056
I0
sg3057
I5
sg3058
I0
sg3059
I13
ssg63
I01
sg64
(dp3070
g3056
I0
sg3057
I0
sg3058
I0
sg3059
I0
ssg66
(dp3071
g3050
I1
sg3051
I26
sg3052
I0
sg3053
I9
ssg68
I0
sg69
I0
sg70
S'Abalyl'
p3072
sg72
I3
sg73
I0
sg74
I12
sg75
I232
sg57
S'MRB'
p3073
sg82
(dp3074
S'A'
p3075
I14
sS'ME'
p3076
I6
sS'RP2'
p3077
I12
sS'E'
p3078
I12
sS'P'
p3079
I6
sS'RP1'
p3080
I11
sS'JP'
p3081
I5
sS'RP_tot'
p3082
I16
sS'TO'
p3083
I8
sS'PA'
p3084
I12
sS'M'
p3085
I9
sS'R'
p3086
I8
sS'TB'
p3087
I5
sS'PL'
p3088
I14
sS'TA'
p3089
I6
ssg99
(dp3090
S's11'
p3091
(ijoueur
joueur
p3092
(dp3093
g25
I0
sg27
I0
sg31
I0
sg33
g0
(g34
g2
Ntp3094
Rp3095
(dp3096
g38
I5
sg39
S'**'
p3097
sg41
S'seigneur'
p3098
sbsg43
(dp3099
S'SR'
p3100
I0
sS'ST'
p3101
I0
sS'CR'
p3102
I0
sS'CT'
p3103
I0
ssg49
(dp3104
g3100
I0
sg3101
I0
sg3102
I0
sg3103
I1
ssg300
I0
sg123
F12.709677419354838
sg52
I0
sg549
I0
sg550
I0
sg54
I1
sg55
I0
sg56
I0
sg76
(S'dummy'
p3105
S'AI'
p3106
S'AR'
p3107
S'CE'
p3108
tp3109
sg59
I00
sg60
g0
(g34
g2
Ntp3110
Rp3111
(dp3112
g38
I5
sg39
S'**'
p3113
sg41
g3098
sbsg61
(dp3114
g3100
I1
sg3101
I4
sg3102
I0
sg3103
I13
ssg63
I01
sg64
(dp3115
g3100
I0
sg3101
I0
sg3102
I0
sg3103
I1
ssg66
(dp3116
g3100
I1
sg3101
I4
sg3102
I0
sg3103
I13
ssg68
I0
sg69
I0
sg70
S'Abalyl'
p3117
sg72
I3
sg73
I0
sg74
I12
sg75
I232
sg57
S'MRB'
p3118
sg82
(dp3119
S'A'
p3120
I14
sS'ME'
p3121
I6
sS'RP2'
p3122
I12
sS'E'
p3123
I12
sS'TO'
p3124
I8
sS'RP1'
p3125
I11
sS'JP'
p3126
I6
sS'RP_tot'
p3127
I16
sS'P'
p3128
I6
sS'PA'
p3129
I12
sS'M'
p3130
I10
sS'R'
p3131
I8
sS'TB'
p3132
I5
sS'PL'
p3133
I15
sS'TA'
p3134
I6
ssg118
I0
sg26
I0
sg120
I0
sg122
I0
sg125
(dp3135
g3100
I0
sg3101
I0
sg3102
I0
sg3103
I0
ssg124
I0
sg673
I0
sg121
I0
sg127
I0
sg418
(dp3136
S'A'
p3137
I14
sS'ME'
p3138
I6
sS'RP2'
p3139
I12
sS'E'
p3140
I12
sS'TO'
p3141
I8
sS'RP1'
p3142
I11
sS'JP'
p3143
I6
sS'RP_tot'
p3144
I16
sS'P'
p3145
I6
sS'PA'
p3146
I12
sS'M'
p3147
I10
sS'R'
p3148
I8
sS'TB'
p3149
I5
sS'PL'
p3150
I15
sS'TA'
p3151
I6
ssg128
g3119
sg129
I0
sg51
S'SN 7'
p3152
sg130
I0
sg131
I0
sg132
I0
sg133
I37
sg134
I35
sg135
I0
sg136
S'CHS'
p3153
sbssg118
I5
sg26
I0
sg120
I1
sg122
I0
sg123
F12.387096774193548
sg124
I0
sg673
I0
sg121
I1
sg127
I1
sg418
(dp3154
S'A'
p3155
I14
sS'ME'
p3156
I6
sS'RP2'
p3157
I12
sS'E'
p3158
I12
sS'P'
p3159
I6
sS'RP1'
p3160
I11
sS'JP'
p3161
I6
sS'RP_tot'
p3162
I16
sS'TO'
p3163
I8
sS'PA'
p3164
I12
sS'M'
p3165
I10
sS'R'
p3166
I8
sS'TB'
p3167
I5
sS'PL'
p3168
I15
sS'TA'
p3169
I6
ssg128
g3074
sg129
I0
sg51
S'SN 7'
p3170
sg130
I0
sg131
I0
sg132
I0
sg133
I37
sg134
I42
sg135
I1
sg136
S'CHS'
p3171
sbsS's11'
p3172
(ijoueur
joueur
p3173
(dp3174
g25
I0
sg27
I0
sg31
I0
sg33
g0
(g34
g2
Ntp3175
Rp3176
(dp3177
g38
I5
sg39
S'**'
p3178
sg41
S'seigneur'
p3179
sbsg43
(dp3180
S'SR'
p3181
I0
sS'ST'
p3182
I0
sS'CR'
p3183
I0
sS'CT'
p3184
I0
ssg49
(dp3185
g3181
I0
sg3182
I0
sg3183
I0
sg3184
I1
ssg300
I0
sg123
F12.709677419354838
sg52
I0
sg549
I0
sg550
I0
sg54
I1
sg55
I0
sg56
I0
sg76
(S'dummy'
p3186
S'AI'
p3187
S'AR'
p3188
S'CE'
p3189
tp3190
sg59
I00
sg60
g0
(g34
g2
Ntp3191
Rp3192
(dp3193
g38
I5
sg39
S'**'
p3194
sg41
g3179
sbsg61
(dp3195
g3181
I1
sg3182
I4
sg3183
I0
sg3184
I13
ssg63
I01
sg64
(dp3196
g3181
I0
sg3182
I0
sg3183
I0
sg3184
I1
ssg66
(dp3197
g3181
I1
sg3182
I4
sg3183
I0
sg3184
I13
ssg68
I0
sg69
I0
sg70
S'Abalyl'
p3198
sg72
I3
sg73
I0
sg74
I12
sg75
I232
sg57
S'MRB'
p3199
sg82
(dp3200
S'A'
p3201
I14
sS'ME'
p3202
I6
sS'RP2'
p3203
I12
sS'E'
p3204
I12
sS'TO'
p3205
I8
sS'RP1'
p3206
I11
sS'JP'
p3207
I6
sS'RP_tot'
p3208
I16
sS'P'
p3209
I6
sS'PA'
p3210
I12
sS'M'
p3211
I10
sS'R'
p3212
I8
sS'TB'
p3213
I5
sS'PL'
p3214
I15
sS'TA'
p3215
I6
ssg118
I0
sg26
I0
sg120
I0
sg122
I0
sg125
(dp3216
g3181
I0
sg3182
I0
sg3183
I0
sg3184
I0
ssg124
I0
sg673
I0
sg121
I0
sg127
I0
sg418
(dp3217
S'A'
p3218
I14
sS'ME'
p3219
I6
sS'RP2'
p3220
I12
sS'E'
p3221
I12
sS'TO'
p3222
I8
sS'RP1'
p3223
I11
sS'JP'
p3224
I6
sS'RP_tot'
p3225
I16
sS'P'
p3226
I6
sS'PA'
p3227
I12
sS'M'
p3228
I10
sS'R'
p3229
I8
sS'TB'
p3230
I5
sS'PL'
p3231
I15
sS'TA'
p3232
I6
ssg128
g3200
sg129
I0
sg51
S'SN 7'
p3233
sg130
I0
sg131
I0
sg132
I0
sg133
I37
sg134
I35
sg135
I0
sg136
S'CHS'
p3234
sbssg118
I5
sg26
I0
sg120
I2
sg122
I0
sg123
F11.806451612903226
sg124
I0
sg53
F167.9223275128
sg673
I0
sg121
I1
sg127
I1
sg418
(dp3235
S'A'
p3236
I14
sS'ME'
p3237
I6
sS'RP2'
p3238
I12
sS'E'
p3239
I12
sS'P'
p3240
I6
sS'RP1'
p3241
I11
sS'JP'
p3242
I6
sS'RP_tot'
p3243
I16
sS'TO'
p3244
I8
sS'PA'
p3245
I12
sS'M'
p3246
I10
sS'R'
p3247
I8
sS'TB'
p3248
I5
sS'PL'
p3249
I15
sS'TA'
p3250
I6
ssg128
g3024
sg129
I0
sg531
(dp3251
sg130
I0
sg51
S'SN 7'
p3252
sg131
I0
sg132
I0
sg133
I37
sg134
I42
sg135
I0
sg136
S'CHS'
p3253
sba(ijoueur
joueur
p3254
(dp3255
g286
F9.185185185185185
sg25
I0
sg287
F10.555555555555555
sg119
g30
sg27
I0
sg28
F143.4804096538173
sg31
I0
sg33
g0
(g34
g2
Ntp3256
Rp3257
(dp3258
g38
I4
sg39
S'x'
p3259
sg41
S'heros'
p3260
sbsg43
(dp3261
S'SR'
p3262
I0
sS'CT'
p3263
I2
sS'CR'
p3264
I8
sS'ST'
p3265
I0
ssg49
(dp3266
g3262
I0
sg3263
I0
sg3264
I0
sg3265
I0
ssg299
I0
sg125
(dp3267
S'SR'
p3268
I0
sS'ST'
p3269
I0
sS'CR'
p3270
I0
sS'CT'
p3271
I0
ssg300
I0
sg52
I0
sg549
I0
sg550
I0
sg54
I1
sg55
I0
sg56
I0
sg76
(S'dummy'
p3272
S'PI'
p3273
S'TL'
p3274
g30
tp3275
sg59
I00
sg60
g3257
sg61
(dp3276
g3268
I1
sg3269
I0
sg3270
I2
sg3271
I11
ssg63
I00
sg64
(dp3277
g3268
I0
sg3269
I0
sg3270
I0
sg3271
I0
ssg66
(dp3278
g3262
I6
sg3263
I27
sg3264
I3
sg3265
I1
ssg68
I0
sg69
I0
sg70
S'Kareops'
p3279
sg72
I11
sg73
I0
sg74
I20
sg75
I128
sg57
S'PRG'
p3280
sg82
(dp3281
S'A'
p3282
I15
sS'ME'
p3283
I9
sS'RP2'
p3284
I7
sS'E'
p3285
I10
sS'P'
p3286
I4
sS'RP1'
p3287
I12
sS'JP'
p3288
I5
sS'RP_tot'
p3289
I12
sS'TO'
p3290
I8
sS'PA'
p3291
I10
sS'M'
p3292
I7
sS'R'
p3293
I8
sS'TB'
p3294
I1
sS'PL'
p3295
I11
sS'TA'
p3296
I9
ssg99
(dp3297
S's12'
p3298
(ijoueur
joueur
p3299
(dp3300
g286
F9.185185185185185
sg25
I0
sg119
g30
sg27
I0
sg31
I0
sg33
g0
(g34
g2
Ntp3301
Rp3302
(dp3303
g38
I4
sg39
S'x'
p3304
sg41
S'heros'
p3305
sbsg43
(dp3306
S'SR'
p3307
I0
sS'CT'
p3308
I2
sS'CR'
p3309
I8
sS'ST'
p3310
I0
ssg49
(dp3311
g3307
I0
sg3308
I0
sg3309
I0
sg3310
I0
ssg300
I0
sg123
F10.555555555555555
sg52
I0
sg549
I0
sg550
I0
sg54
I1
sg55
I0
sg56
I0
sg76
(S'dummy'
p3312
S'PI'
p3313
S'TL'
p3314
g30
tp3315
sg59
I00
sg60
g3302
sg61
(dp3316
S'SR'
p3317
I5
sS'ST'
p3318
I1
sS'CR'
p3319
I0
sS'CT'
p3320
I13
ssg63
I00
sg64
(dp3321
g3317
I0
sg3318
I0
sg3319
I0
sg3320
I0
ssg66
(dp3322
g3307
I5
sg3308
I16
sg3309
I1
sg3310
I1
ssg68
I0
sg69
I0
sg70
S'Kareops'
p3323
sg72
I11
sg73
I0
sg74
I20
sg75
I128
sg57
S'PRG'
p3324
sg82
(dp3325
S'A'
p3326
I15
sS'ME'
p3327
I9
sS'RP2'
p3328
I7
sS'E'
p3329
I10
sS'P'
p3330
I4
sS'RP1'
p3331
I12
sS'JP'
p3332
I5
sS'RP_tot'
p3333
I12
sS'TO'
p3334
I8
sS'PA'
p3335
I10
sS'M'
p3336
I8
sS'R'
p3337
I10
sS'TB'
p3338
I1
sS'PL'
p3339
I11
sS'TA'
p3340
I9
ssg99
(dp3341
S's11'
p3342
(ijoueur
joueur
p3343
(dp3344
g25
I0
sg27
I0
sg31
I0
sg33
g0
(g34
g2
Ntp3345
Rp3346
(dp3347
g38
I4
sg39
S'x'
p3348
sg41
S'heros'
p3349
sbsg43
(dp3350
S'SR'
p3351
I0
sS'CT'
p3352
I2
sS'CR'
p3353
I8
sS'ST'
p3354
I0
ssg49
(dp3355
g3351
I0
sg3352
I0
sg3353
I0
sg3354
I0
ssg125
(dp3356
g3351
I0
sg3352
I2
sg3353
I8
sg3354
I0
ssg300
I0
sg52
I0
sg549
I0
sg550
I0
sg54
I0
sg55
I0
sg56
I0
sg76
(S'dummy'
p3357
S'PI'
p3358
S'TL'
p3359
g30
tp3360
sg59
I01
sg60
g0
(g34
g2
Ntp3361
Rp3362
(dp3363
g38
I2
sg39
S'<<'
p3364
sg41
S'special'
p3365
sbsg61
(dp3366
g3351
I0
sg3352
I3
sg3353
I1
sg3354
I0
ssg63
I01
sg64
(dp3367
g3351
I0
sg3352
I0
sg3353
I0
sg3354
I0
ssg66
(dp3368
g3351
I0
sg3352
I3
sg3353
I1
sg3354
I0
ssg68
I0
sg69
I0
sg70
S'Kareops'
p3369
sg72
I11
sg73
I0
sg74
I20
sg75
I51
sg57
S'PRG'
p3370
sg82
(dp3371
S'A'
p3372
I11
sS'ME'
p3373
I7
sS'RP2'
p3374
I6
sS'E'
p3375
I10
sS'P'
p3376
I3
sS'RP1'
p3377
I9
sS'JP'
p3378
I4
sS'RP_tot'
p3379
I9
sS'TO'
p3380
I6
sS'PA'
p3381
I8
sS'M'
p3382
I7
sS'R'
p3383
I10
sS'TB'
p3384
I0
sS'PL'
p3385
I10
sS'TA'
p3386
I8
ssg118
I0
sg26
I0
sg120
I0
sg122
I0
sg123
F9.185185185185185
sg124
I0
sg673
I0
sg121
I0
sg127
I0
sg418
(dp3387
S'A'
p3388
I11
sS'ME'
p3389
I7
sS'RP2'
p3390
I6
sS'E'
p3391
I10
sS'P'
p3392
I3
sS'RP1'
p3393
I9
sS'JP'
p3394
I4
sS'RP_tot'
p3395
I9
sS'TO'
p3396
I6
sS'PA'
p3397
I8
sS'M'
p3398
I7
sS'R'
p3399
I10
sS'TB'
p3400
I0
sS'PL'
p3401
I10
sS'TA'
p3402
I8
ssg128
g3371
sg129
I0
sg51
g30
sg130
I0
sg131
I0
sg132
I0
sg133
I4
sg134
I0
sg135
I0
sg136
S'CHS'
p3403
sbssg118
I3
sg26
I0
sg120
I0
sg122
I0
sg125
(dp3404
g3317
I0
sg3318
I0
sg3319
I0
sg3320
I0
ssg124
I0
sg673
I0
sg121
I0
sg127
I0
sg418
(dp3405
S'A'
p3406
I11
sS'ME'
p3407
I7
sS'RP2'
p3408
I6
sS'E'
p3409
I10
sS'TO'
p3410
I6
sS'RP1'
p3411
I9
sS'JP'
p3412
I4
sS'RP_tot'
p3413
I9
sS'P'
p3414
I3
sS'PA'
p3415
I8
sS'M'
p3416
I7
sS'R'
p3417
I10
sS'TB'
p3418
I0
sS'PL'
p3419
I10
sS'TA'
p3420
I8
ssg128
g3325
sg129
I0
sg51
g30
sg130
I0
sg131
I0
sg132
I0
sg133
I11
sg134
I1
sg135
I0
sg136
S'CHS'
p3421
sbsS's11'
p3422
(ijoueur
joueur
p3423
(dp3424
g25
I0
sg27
I0
sg31
I0
sg33
g0
(g34
g2
Ntp3425
Rp3426
(dp3427
g38
I4
sg39
S'x'
p3428
sg41
S'heros'
p3429
sbsg43
(dp3430
S'SR'
p3431
I0
sS'CT'
p3432
I2
sS'CR'
p3433
I8
sS'ST'
p3434
I0
ssg49
(dp3435
g3431
I0
sg3432
I0
sg3433
I0
sg3434
I0
ssg125
(dp3436
g3431
I0
sg3432
I2
sg3433
I8
sg3434
I0
ssg300
I0
sg52
I0
sg549
I0
sg550
I0
sg54
I0
sg55
I0
sg56
I0
sg76
(S'dummy'
p3437
S'PI'
p3438
S'TL'
p3439
g30
tp3440
sg59
I01
sg60
g0
(g34
g2
Ntp3441
Rp3442
(dp3443
g38
I2
sg39
S'<<'
p3444
sg41
S'special'
p3445
sbsg61
(dp3446
g3431
I0
sg3432
I3
sg3433
I1
sg3434
I0
ssg63
I01
sg64
(dp3447
g3431
I0
sg3432
I0
sg3433
I0
sg3434
I0
ssg66
(dp3448
g3431
I0
sg3432
I3
sg3433
I1
sg3434
I0
ssg68
I0
sg69
I0
sg70
S'Kareops'
p3449
sg72
I11
sg73
I0
sg74
I20
sg75
I51
sg57
S'PRG'
p3450
sg82
(dp3451
S'A'
p3452
I11
sS'ME'
p3453
I7
sS'RP2'
p3454
I6
sS'E'
p3455
I10
sS'P'
p3456
I3
sS'RP1'
p3457
I9
sS'JP'
p3458
I4
sS'RP_tot'
p3459
I9
sS'TO'
p3460
I6
sS'PA'
p3461
I8
sS'M'
p3462
I7
sS'R'
p3463
I10
sS'TB'
p3464
I0
sS'PL'
p3465
I10
sS'TA'
p3466
I8
ssg118
I0
sg26
I0
sg120
I0
sg122
I0
sg123
F9.185185185185185
sg124
I0
sg673
I0
sg121
I0
sg127
I0
sg418
(dp3467
S'A'
p3468
I11
sS'ME'
p3469
I7
sS'RP2'
p3470
I6
sS'E'
p3471
I10
sS'P'
p3472
I3
sS'RP1'
p3473
I9
sS'JP'
p3474
I4
sS'RP_tot'
p3475
I9
sS'TO'
p3476
I6
sS'PA'
p3477
I8
sS'M'
p3478
I7
sS'R'
p3479
I10
sS'TB'
p3480
I0
sS'PL'
p3481
I10
sS'TA'
p3482
I8
ssg128
g3451
sg129
I0
sg51
g30
sg130
I0
sg131
I0
sg132
I0
sg133
I4
sg134
I0
sg135
I0
sg136
S'CHS'
p3483
sbssg118
I0
sg26
I0
sg120
I0
sg122
I0
sg123
F10.074074074074074
sg124
I0
sg53
F143.4804096538173
sg673
I0
sg121
I0
sg127
I0
sg418
(dp3484
S'A'
p3485
I11
sS'ME'
p3486
I7
sS'RP2'
p3487
I6
sS'E'
p3488
I10
sS'TO'
p3489
I6
sS'RP1'
p3490
I9
sS'JP'
p3491
I4
sS'RP_tot'
p3492
I9
sS'P'
p3493
I3
sS'PA'
p3494
I8
sS'M'
p3495
I7
sS'R'
p3496
I10
sS'TB'
p3497
I0
sS'PL'
p3498
I10
sS'TA'
p3499
I8
ssg128
g3281
sg129
I0
sg531
(dp3500
sg130
I0
sg51
g30
sg131
I0
sg132
I0
sg133
I11
sg134
I2
sg135
I0
sg136
S'CHS'
p3501
sba(ijoueur
joueur
p3502
(dp3503
g286
F10.413793103448276
sg25
I1
sg287
F10.172413793103448
sg119
g30
sg27
I0
sg28
F156.20965212685473
sg31
I0
sg33
g0
(g34
g2
Ntp3504
Rp3505
(dp3506
g38
I4
sg39
S'*'
p3507
sg41
g3260
sbsg43
(dp3508
g3262
I0
sg3263
I0
sg3264
I0
sg3265
I0
ssg49
(dp3509
g3262
I0
sg3263
I0
sg3264
I0
sg3265
I0
ssg299
I0
sg125
(dp3510
g3268
I0
sg3269
I0
sg3270
I0
sg3271
I0
ssg300
I0
sg52
I0
sg549
I0
sg550
I0
sg54
I1
sg55
I0
sg56
I0
sg76
(g3272
S'TA'
p3511
S'PI'
p3512
g30
tp3513
sg59
I00
sg60
g0
(g34
g2
Ntp3514
Rp3515
(dp3516
g38
I4
sg39
g3507
sg41
g3260
sbsg61
(dp3517
g3268
I0
sg3269
I2
sg3270
I0
sg3271
I13
ssg63
I00
sg64
(dp3518
g3268
I0
sg3269
I0
sg3270
I0
sg3271
I0
ssg66
(dp3519
g3262
I4
sg3263
I37
sg3264
I1
sg3265
I3
ssg68
I0
sg69
I0
sg70
S'Cloendal'
p3520
sg72
I2
sg73
I0
sg74
I14
sg75
I80
sg57
g3280
sg82
(dp3521
g3282
I9
sg3283
I11
sg3284
I7
sg3285
I10
sg3286
I5
sg3287
I11
sg3288
I2
sg3289
I11
sg3290
I6
sg3291
I8
sg3292
I7
sg3293
I11
sg3294
I3
sg3295
I11
sg3296
I11
ssg99
(dp3522
g3298
(ijoueur
joueur
p3523
(dp3524
g286
F10.413793103448276
sg25
I1
sg119
g30
sg27
I0
sg31
I0
sg33
g0
(g34
g2
Ntp3525
Rp3526
(dp3527
g38
I4
sg39
S'*'
p3528
sg41
g3305
sbsg43
(dp3529
g3307
I0
sg3308
I0
sg3309
I0
sg3310
I0
ssg49
(dp3530
g3307
I0
sg3308
I0
sg3309
I0
sg3310
I0
ssg300
I0
sg123
F10.172413793103448
sg52
I0
sg549
I0
sg550
I0
sg54
I0
sg55
I0
sg56
I0
sg76
(g3312
S'TA'
p3531
S'PI'
p3532
g30
tp3533
sg59
I00
sg60
g0
(g34
g2
Ntp3534
Rp3535
(dp3536
g38
I4
sg39
g3528
sg41
g3305
sbsg61
(dp3537
g3317
I0
sg3318
I0
sg3319
I0
sg3320
I12
ssg63
I01
sg64
(dp3538
g3317
I0
sg3318
I0
sg3319
I0
sg3320
I0
ssg66
(dp3539
g3307
I4
sg3308
I24
sg3309
I1
sg3310
I1
ssg68
I0
sg69
I0
sg70
S'Cloendal'
p3540
sg72
I2
sg73
I0
sg74
I14
sg75
I80
sg57
g3324
sg82
(dp3541
g3326
I9
sg3327
I11
sg3328
I7
sg3329
I9
sg3330
I5
sg3331
I10
sg3332
I2
sg3333
I10
sg3334
I6
sg3335
I8
sg3336
I6
sg3337
I11
sg3338
I3
sg3339
I11
sg3340
I11
ssg99
(dp3542
g3342
(ijoueur
joueur
p3543
(dp3544
g25
I1
sg27
I0
sg31
I0
sg33
g0
(g34
g2
Ntp3545
Rp3546
(dp3547
g38
I4
sg39
S'*'
p3548
sg41
S'heros'
p3549
sbsg43
(dp3550
S'SR'
p3551
I0
sS'CT'
p3552
I0
sS'CR'
p3553
I0
sS'ST'
p3554
I0
ssg49
(dp3555
g3551
I0
sg3552
I0
sg3553
I0
sg3554
I0
ssg125
(dp3556
g3551
I0
sg3552
I0
sg3553
I0
sg3554
I0
ssg300
I0
sg52
I0
sg549
I0
sg550
I0
sg54
I0
sg55
I0
sg56
I0
sg76
(S'dummy'
p3557
S'TA'
p3558
S'PI'
p3559
g30
tp3560
sg59
I00
sg60
g0
(g34
g2
Ntp3561
Rp3562
(dp3563
g38
I4
sg39
g3548
sg41
g3549
sbsg61
(dp3564
g3551
I4
sg3552
I12
sg3553
I1
sg3554
I1
ssg63
I01
sg64
(dp3565
g3551
I0
sg3552
I0
sg3553
I0
sg3554
I0
ssg66
(dp3566
g3551
I4
sg3552
I12
sg3553
I1
sg3554
I1
ssg68
I0
sg69
I0
sg70
S'Cloendal'
p3567
sg72
I2
sg73
I0
sg74
I14
sg75
I80
sg57
S'PRG'
p3568
sg82
(dp3569
S'A'
p3570
I10
sS'ME'
p3571
I11
sS'RP2'
p3572
I7
sS'E'
p3573
I10
sS'P'
p3574
I5
sS'RP1'
p3575
I10
sS'JP'
p3576
I2
sS'RP_tot'
p3577
I10
sS'TO'
p3578
I6
sS'PA'
p3579
I8
sS'M'
p3580
I7
sS'R'
p3581
I11
sS'TB'
p3582
I3
sS'PL'
p3583
I11
sS'TA'
p3584
I11
ssg118
I0
sg26
I0
sg120
I0
sg122
I0
sg123
F10.413793103448276
sg124
I0
sg673
I0
sg121
I0
sg127
I0
sg418
(dp3585
S'A'
p3586
I10
sS'ME'
p3587
I11
sS'RP2'
p3588
I7
sS'E'
p3589
I10
sS'P'
p3590
I5
sS'RP1'
p3591
I10
sS'JP'
p3592
I2
sS'RP_tot'
p3593
I10
sS'TO'
p3594
I6
sS'PA'
p3595
I8
sS'M'
p3596
I7
sS'R'
p3597
I11
sS'TB'
p3598
I3
sS'PL'
p3599
I11
sS'TA'
p3600
I11
ssg128
g3569
sg129
I1
sg51
g30
sg130
I0
sg131
I0
sg132
I0
sg133
I8
sg134
I0
sg135
I0
sg136
S'CHS'
p3601
sbssg118
I0
sg26
I0
sg120
I1
sg122
I0
sg125
(dp3602
g3317
I0
sg3318
I0
sg3319
I0
sg3320
I0
ssg124
I0
sg673
I0
sg121
I1
sg127
I0
sg418
(dp3603
g3406
I10
sg3407
I11
sg3408
I7
sg3409
I10
sg3410
I6
sg3411
I10
sg3412
I2
sg3413
I10
sg3414
I5
sg3415
I8
sg3416
I7
sg3417
I11
sg3418
I3
sg3419
I11
sg3420
I11
ssg128
g3541
sg129
I0
sg51
g30
sg130
I0
sg131
I0
sg132
I0
sg133
I8
sg134
I0
sg135
I0
sg136
S'CHS'
p3604
sbsg3422
(ijoueur
joueur
p3605
(dp3606
g25
I1
sg27
I0
sg31
I0
sg33
g0
(g34
g2
Ntp3607
Rp3608
(dp3609
g38
I4
sg39
S'*'
p3610
sg41
S'heros'
p3611
sbsg43
(dp3612
S'SR'
p3613
I0
sS'CT'
p3614
I0
sS'CR'
p3615
I0
sS'ST'
p3616
I0
ssg49
(dp3617
g3613
I0
sg3614
I0
sg3615
I0
sg3616
I0
ssg125
(dp3618
g3613
I0
sg3614
I0
sg3615
I0
sg3616
I0
ssg300
I0
sg52
I0
sg549
I0
sg550
I0
sg54
I0
sg55
I0
sg56
I0
sg76
(S'dummy'
p3619
S'TA'
p3620
S'PI'
p3621
g30
tp3622
sg59
I00
sg60
g0
(g34
g2
Ntp3623
Rp3624
(dp3625
g38
I4
sg39
g3610
sg41
g3611
sbsg61
(dp3626
g3613
I4
sg3614
I12
sg3615
I1
sg3616
I1
ssg63
I01
sg64
(dp3627
g3613
I0
sg3614
I0
sg3615
I0
sg3616
I0
ssg66
(dp3628
g3613
I4
sg3614
I12
sg3615
I1
sg3616
I1
ssg68
I0
sg69
I0
sg70
S'Cloendal'
p3629
sg72
I2
sg73
I0
sg74
I14
sg75
I80
sg57
S'PRG'
p3630
sg82
(dp3631
S'A'
p3632
I10
sS'ME'
p3633
I11
sS'RP2'
p3634
I7
sS'E'
p3635
I10
sS'P'
p3636
I5
sS'RP1'
p3637
I10
sS'JP'
p3638
I2
sS'RP_tot'
p3639
I10
sS'TO'
p3640
I6
sS'PA'
p3641
I8
sS'M'
p3642
I7
sS'R'
p3643
I11
sS'TB'
p3644
I3
sS'PL'
p3645
I11
sS'TA'
p3646
I11
ssg118
I0
sg26
I0
sg120
I0
sg122
I0
sg123
F10.413793103448276
sg124
I0
sg673
I0
sg121
I0
sg127
I0
sg418
(dp3647
S'A'
p3648
I10
sS'ME'
p3649
I11
sS'RP2'
p3650
I7
sS'E'
p3651
I10
sS'P'
p3652
I5
sS'RP1'
p3653
I10
sS'JP'
p3654
I2
sS'RP_tot'
p3655
I10
sS'TO'
p3656
I6
sS'PA'
p3657
I8
sS'M'
p3658
I7
sS'R'
p3659
I11
sS'TB'
p3660
I3
sS'PL'
p3661
I11
sS'TA'
p3662
I11
ssg128
g3631
sg129
I1
sg51
g30
sg130
I0
sg131
I0
sg132
I0
sg133
I8
sg134
I0
sg135
I0
sg136
S'CHS'
p3663
sbssg118
I8
sg26
I0
sg120
I1
sg122
I0
sg123
F10.482758620689655
sg124
I0
sg53
F156.20965212685473
sg673
I0
sg121
I0
sg127
I0
sg418
(dp3664
g3485
I10
sg3486
I11
sg3487
I7
sg3488
I10
sg3489
I6
sg3490
I10
sg3491
I2
sg3492
I10
sg3493
I5
sg3494
I8
sg3495
I7
sg3496
I11
sg3497
I3
sg3498
I11
sg3499
I11
ssg128
g3521
sg129
I0
sg531
(dp3665
sg130
I0
sg51
g30
sg131
I0
sg132
I0
sg133
I8
sg134
I1
sg135
I0
sg136
S'CHS'
p3666
sba(ijoueur
joueur
p3667
(dp3668
g25
I0
sg287
F9.823529411764707
sg119
g30
sg27
I0
sg28
F166.5363807869538
sg29
g30
sg31
I0
sg32
g30
sg33
g0
(g34
g2
Ntp3669
Rp3670
(dp3671
g38
I5
sg39
S'**'
p3672
sg41
S'seigneur'
p3673
sbsg43
(dp3674
S'SR'
p3675
I0
sS'ST'
p3676
I0
sS'CR'
p3677
I0
sS'CT'
p3678
I0
ssg49
(dp3679
g3675
I0
sg3676
I0
sg3677
I0
sg3678
I0
ssg299
I0
sg51
g30
sg52
I0
sg53
F166.5363807869538
sg63
I00
sg54
I1
sg55
I0
sg56
I0
sg57
g3280
sg59
I00
sg60
g0
(g34
g2
Ntp3680
Rp3681
(dp3682
g38
I4
sg39
S'x'
p3683
sg41
S'heros'
p3684
sbsg61
(dp3685
g3268
I2
sg3269
I0
sg3270
I0
sg3271
I14
ssg125
(dp3686
g3268
I0
sg3269
I0
sg3270
I0
sg3271
I0
ssg64
(dp3687
g3268
I0
sg3269
I0
sg3270
I0
sg3271
I0
ssg66
(dp3688
g3675
I2
sg3676
I0
sg3677
I12
sg3678
I16
ssg68
I0
sg69
I0
sg70
S'Diebahir'
p3689
sg72
I12
sg73
I0
sg74
I25
sg75
I125
sg76
(S'dummy'
p3690
S'DL'
p3691
g30
g30
tp3692
sg81
g30
sg82
(dp3693
S'RP1'
p3694
I10
sS'ME'
p3695
I12
sS'RP2'
p3696
I7
sS'E'
p3697
I9
sS'TO'
p3698
I14
sS'M'
p3699
I7
sS'JP'
p3700
I3
sS'RP_tot'
p3701
I10
sS'P'
p3702
I6
sS'PA'
p3703
I10
sS'A'
p3704
I10
sS'R'
p3705
I11
sS'TB'
p3706
I5
sS'PL'
p3707
I13
sS'TA'
p3708
I5
ssg99
(dp3709
g3298
(ijoueur
joueur
p3710
(dp3711
g25
I0
sg119
g30
sg27
I0
sg29
g30
sg31
I0
sg32
g30
sg33
g0
(g34
g2
Ntp3712
Rp3713
(dp3714
g38
I5
sg39
S'**'
p3715
sg41
S'seigneur'
p3716
sbsg43
(dp3717
S'SR'
p3718
I0
sS'ST'
p3719
I0
sS'CR'
p3720
I0
sS'CT'
p3721
I0
ssg49
(dp3722
g3718
I0
sg3719
I0
sg3720
I0
sg3721
I0
ssg125
(dp3723
g3718
I0
sg3719
I0
sg3720
I0
sg3721
I0
ssg51
g30
sg52
I0
sg54
I1
sg55
I0
sg56
I0
sg57
g3324
sg59
I00
sg60
g0
(g34
g2
Ntp3724
Rp3725
(dp3726
g38
I2
sg39
S'<<'
p3727
sg41
S'special'
p3728
sbsg61
(dp3729
g3718
I0
sg3719
I0
sg3720
I12
sg3721
I2
ssg63
I01
sg64
(dp3730
g3718
I0
sg3719
I0
sg3720
I0
sg3721
I0
ssg66
(dp3731
g3718
I0
sg3719
I0
sg3720
I12
sg3721
I2
ssg68
I0
sg69
I0
sg70
S'Diebahir'
p3732
sg72
I12
sg73
I0
sg74
I25
sg75
I48
sg76
(S'dummy'
p3733
S'DL'
p3734
g30
g30
tp3735
sg81
g30
sg82
(dp3736
S'RP1'
p3737
I8
sS'ME'
p3738
I10
sS'RP2'
p3739
I6
sS'E'
p3740
I9
sS'TO'
p3741
I11
sS'M'
p3742
I7
sS'JP'
p3743
I2
sS'RP_tot'
p3744
I8
sS'P'
p3745
I5
sS'PA'
p3746
I8
sS'A'
p3747
I8
sS'R'
p3748
I10
sS'TB'
p3749
I4
sS'PL'
p3750
I12
sS'TA'
p3751
I4
ssg99
(dp3752
sg118
I0
sg26
I0
sg120
I0
sg122
I0
sg123
F9.823529411764707
sg124
I0
sg121
I0
sg127
I0
sg128
g3736
sg129
I0
sg130
I0
sg131
I0
sg132
I0
sg133
I4
sg134
I1
sg135
I0
sg136
S'CHS'
p3753
sbssg118
I7
sg26
I0
sg120
I0
sg122
I0
sg123
F11.411764705882353
sg124
I0
sg121
I0
sg127
I0
sg128
g3693
sg129
I0
sg531
(dp3754
sg130
I0
sg131
I0
sg132
I0
sg133
I11
sg134
I2
sg135
I0
sg136
S'CHS'
p3755
sba(ijoueur
joueur
p3756
(dp3757
g286
F9.862068965517242
sg25
I1
sg287
F9.724137931034482
sg119
g30
sg27
I0
sg28
F133.35860306261284
sg31
I0
sg33
g0
(g34
g2
Ntp3758
Rp3759
(dp3760
g38
I4
sg39
g3507
sg41
g3260
sbsg43
(dp3761
g3262
I0
sg3263
I0
sg3264
I0
sg3265
I0
ssg49
(dp3762
g3262
I0
sg3263
I0
sg3264
I0
sg3265
I0
ssg299
I0
sg125
(dp3763
g3268
I0
sg3269
I0
sg3270
I0
sg3271
I0
ssg300
I0
sg52
I0
sg549
I0
sg550
I0
sg54
I2
sg55
I0
sg56
I0
sg76
(g3272
S'DM'
p3764
S'DO'
p3765
g30
tp3766
sg59
I00
sg60
g0
(g34
g2
Ntp3767
Rp3768
(dp3769
g38
I4
sg39
g3507
sg41
g3260
sbsg61
(dp3770
g3268
I0
sg3269
I0
sg3270
I0
sg3271
I13
ssg63
I00
sg64
(dp3771
g3268
I0
sg3269
I0
sg3270
I0
sg3271
I0
ssg66
(dp3772
g3262
I0
sg3263
I36
sg3264
I1
sg3265
I8
ssg68
I0
sg69
I0
sg70
S'Joherd'
p3773
sg72
I2
sg73
I0
sg74
I12
sg75
I80
sg57
g3280
sg82
(dp3774
g3282
I11
sg3283
I3
sg3284
I9
sg3285
I8
sg3286
I8
sg3287
I8
sg3288
I8
sg3289
I10
sg3290
I4
sg3291
I13
sg3292
I6
sg3293
I6
sg3294
I7
sg3295
I10
sg3296
I4
ssg99
(dp3775
g3298
(ijoueur
joueur
p3776
(dp3777
g286
F9.862068965517242
sg25
I1
sg119
g30
sg27
I0
sg31
I0
sg33
g0
(g34
g2
Ntp3778
Rp3779
(dp3780
g38
I4
sg39
g3528
sg41
g3305
sbsg43
(dp3781
g3307
I0
sg3308
I0
sg3309
I0
sg3310
I0
ssg49
(dp3782
g3307
I0
sg3308
I0
sg3309
I0
sg3310
I0
ssg300
I0
sg123
F9.724137931034482
sg52
I0
sg549
I0
sg550
I0
sg54
I2
sg55
I0
sg56
I0
sg76
(g3312
S'DM'
p3783
S'DO'
p3784
g30
tp3785
sg59
I00
sg60
g0
(g34
g2
Ntp3786
Rp3787
(dp3788
g38
I4
sg39
g3528
sg41
g3305
sbsg61
(dp3789
g3317
I0
sg3318
I5
sg3319
I1
sg3320
I13
ssg63
I00
sg64
(dp3790
g3317
I0
sg3318
I0
sg3319
I0
sg3320
I0
ssg66
(dp3791
g3307
I0
sg3308
I23
sg3309
I1
sg3310
I8
ssg68
I0
sg69
I0
sg70
S'Joherd'
p3792
sg72
I2
sg73
I0
sg74
I12
sg75
I80
sg57
g3324
sg82
(dp3793
g3326
I11
sg3327
I3
sg3328
I9
sg3329
I9
sg3330
I8
sg3331
I8
sg3332
I8
sg3333
I10
sg3334
I4
sg3335
I13
sg3336
I7
sg3337
I6
sg3338
I8
sg3339
I10
sg3340
I4
ssg99
(dp3794
g3342
(ijoueur
joueur
p3795
(dp3796
g25
I1
sg27
I0
sg31
I0
sg33
g0
(g34
g2
Ntp3797
Rp3798
(dp3799
g38
I4
sg39
S'*'
p3800
sg41
S'heros'
p3801
sbsg43
(dp3802
S'SR'
p3803
I0
sS'CT'
p3804
I0
sS'CR'
p3805
I0
sS'ST'
p3806
I0
ssg49
(dp3807
g3803
I0
sg3804
I0
sg3805
I0
sg3806
I0
ssg125
(dp3808
g3803
I0
sg3804
I0
sg3805
I0
sg3806
I0
ssg300
I0
sg52
I0
sg549
I0
sg550
I0
sg54
I0
sg55
I0
sg56
I0
sg76
(S'dummy'
p3809
S'DM'
p3810
S'DO'
p3811
g30
tp3812
sg59
I00
sg60
g0
(g34
g2
Ntp3813
Rp3814
(dp3815
g38
I4
sg39
g3800
sg41
g3801
sbsg61
(dp3816
g3803
I0
sg3804
I10
sg3805
I0
sg3806
I3
ssg63
I00
sg64
(dp3817
g3803
I0
sg3804
I0
sg3805
I0
sg3806
I0
ssg66
(dp3818
g3803
I0
sg3804
I10
sg3805
I0
sg3806
I3
ssg68
I0
sg69
I0
sg70
S'Joherd'
p3819
sg72
I2
sg73
I0
sg74
I12
sg75
I80
sg57
S'PRG'
p3820
sg82
(dp3821
S'A'
p3822
I11
sS'ME'
p3823
I3
sS'RP2'
p3824
I9
sS'E'
p3825
I9
sS'P'
p3826
I9
sS'RP1'
p3827
I8
sS'JP'
p3828
I8
sS'RP_tot'
p3829
I10
sS'TO'
p3830
I4
sS'PA'
p3831
I13
sS'M'
p3832
I7
sS'R'
p3833
I7
sS'TB'
p3834
I8
sS'PL'
p3835
I10
sS'TA'
p3836
I4
ssg118
I0
sg26
I0
sg120
I1
sg122
I0
sg123
F9.862068965517242
sg124
I0
sg673
I0
sg121
I1
sg127
I0
sg418
(dp3837
S'A'
p3838
I11
sS'ME'
p3839
I3
sS'RP2'
p3840
I9
sS'E'
p3841
I9
sS'P'
p3842
I9
sS'RP1'
p3843
I8
sS'JP'
p3844
I8
sS'RP_tot'
p3845
I10
sS'TO'
p3846
I4
sS'PA'
p3847
I13
sS'M'
p3848
I7
sS'R'
p3849
I7
sS'TB'
p3850
I8
sS'PL'
p3851
I10
sS'TA'
p3852
I4
ssg128
g3821
sg129
I1
sg51
g30
sg130
I0
sg131
I0
sg132
I0
sg133
I8
sg134
I2
sg135
I0
sg136
S'CHS'
p3853
sbssg118
I0
sg26
I0
sg120
I1
sg122
I0
sg125
(dp3854
g3317
I0
sg3318
I0
sg3319
I0
sg3320
I0
ssg124
I0
sg673
I0
sg121
I0
sg127
I0
sg418
(dp3855
g3406
I11
sg3407
I3
sg3408
I9
sg3409
I9
sg3410
I4
sg3411
I8
sg3412
I8
sg3413
I10
sg3414
I9
sg3415
I13
sg3416
I7
sg3417
I7
sg3418
I8
sg3419
I10
sg3420
I4
ssg128
g3793
sg129
I0
sg51
g30
sg130
I0
sg131
I0
sg132
I0
sg133
I8
sg134
I4
sg135
I0
sg136
S'CHS'
p3856
sbsg3422
(ijoueur
joueur
p3857
(dp3858
g25
I1
sg27
I0
sg31
I0
sg33
g0
(g34
g2
Ntp3859
Rp3860
(dp3861
g38
I4
sg39
S'*'
p3862
sg41
S'heros'
p3863
sbsg43
(dp3864
S'SR'
p3865
I0
sS'CT'
p3866
I0
sS'CR'
p3867
I0
sS'ST'
p3868
I0
ssg49
(dp3869
g3865
I0
sg3866
I0
sg3867
I0
sg3868
I0
ssg125
(dp3870
g3865
I0
sg3866
I0
sg3867
I0
sg3868
I0
ssg300
I0
sg52
I0
sg549
I0
sg550
I0
sg54
I0
sg55
I0
sg56
I0
sg76
(S'dummy'
p3871
S'DM'
p3872
S'DO'
p3873
g30
tp3874
sg59
I00
sg60
g0
(g34
g2
Ntp3875
Rp3876
(dp3877
g38
I4
sg39
g3862
sg41
g3863
sbsg61
(dp3878
g3865
I0
sg3866
I10
sg3867
I0
sg3868
I3
ssg63
I00
sg64
(dp3879
g3865
I0
sg3866
I0
sg3867
I0
sg3868
I0
ssg66
(dp3880
g3865
I0
sg3866
I10
sg3867
I0
sg3868
I3
ssg68
I0
sg69
I0
sg70
S'Joherd'
p3881
sg72
I2
sg73
I0
sg74
I12
sg75
I80
sg57
S'PRG'
p3882
sg82
(dp3883
S'A'
p3884
I11
sS'ME'
p3885
I3
sS'RP2'
p3886
I9
sS'E'
p3887
I9
sS'P'
p3888
I9
sS'RP1'
p3889
I8
sS'JP'
p3890
I8
sS'RP_tot'
p3891
I10
sS'TO'
p3892
I4
sS'PA'
p3893
I13
sS'M'
p3894
I7
sS'R'
p3895
I7
sS'TB'
p3896
I8
sS'PL'
p3897
I10
sS'TA'
p3898
I4
ssg118
I0
sg26
I0
sg120
I1
sg122
I0
sg123
F9.862068965517242
sg124
I0
sg673
I0
sg121
I1
sg127
I0
sg418
(dp3899
S'A'
p3900
I11
sS'ME'
p3901
I3
sS'RP2'
p3902
I9
sS'E'
p3903
I9
sS'P'
p3904
I9
sS'RP1'
p3905
I8
sS'JP'
p3906
I8
sS'RP_tot'
p3907
I10
sS'TO'
p3908
I4
sS'PA'
p3909
I13
sS'M'
p3910
I7
sS'R'
p3911
I7
sS'TB'
p3912
I8
sS'PL'
p3913
I10
sS'TA'
p3914
I4
ssg128
g3883
sg129
I1
sg51
g30
sg130
I0
sg131
I0
sg132
I0
sg133
I8
sg134
I2
sg135
I0
sg136
S'CHS'
p3915
sbssg118
I0
sg26
I0
sg120
I1
sg122
I0
sg123
F9.482758620689655
sg124
I0
sg53
F133.35860306261284
sg673
I0
sg121
I0
sg127
I0
sg418
(dp3916
g3485
I11
sg3486
I3
sg3487
I9
sg3488
I9
sg3489
I4
sg3490
I8
sg3491
I8
sg3492
I10
sg3493
I9
sg3494
I13
sg3495
I7
sg3496
I7
sg3497
I8
sg3498
I10
sg3499
I4
ssg128
g3774
sg129
I0
sg531
(dp3917
sg130
I0
sg51
g30
sg131
I0
sg132
I0
sg133
I8
sg134
I6
sg135
I0
sg136
S'CHS'
p3918
sba(ijoueur
joueur
p3919
(dp3920
g25
I0
sg287
F8.142857142857142
sg119
g30
sg27
I0
sg28
F73.00924411343784
sg29
g30
sg31
I0
sg32
g30
sg33
g0
(g34
g2
Ntp3921
Rp3922
(dp3923
g38
I4
sg39
S'*'
p3924
sg41
S'heros'
p3925
sbsg43
(dp3926
g3675
I0
sg3676
I0
sg3677
I6
sg3678
I4
ssg49
(dp3927
g3675
I0
sg3676
I0
sg3677
I0
sg3678
I0
ssg299
I0
sg51
g30
sg52
I0
sg53
F73.00924411343784
sg63
I00
sg54
I0
sg55
I0
sg56
I0
sg57
g3280
sg59
I00
sg60
g0
(g34
g2
Ntp3928
Rp3929
(dp3930
g38
I2
sg39
S'^^'
p3931
sg41
S'special'
p3932
sbsg61
(dp3933
g3268
I0
sg3269
I0
sg3270
I2
sg3271
I0
ssg125
(dp3934
g3268
I0
sg3269
I0
sg3270
I3
sg3271
I2
ssg64
(dp3935
g3268
I0
sg3269
I0
sg3270
I0
sg3271
I0
ssg66
(dp3936
g3675
I0
sg3676
I0
sg3677
I5
sg3678
I0
ssg68
I0
sg69
I0
sg70
S'Malhuer'
p3937
sg72
I12
sg73
I0
sg74
I24
sg75
I35
sg76
(g3690
S'DO'
p3938
S'DM'
p3939
g30
tp3940
sg81
g30
sg82
(dp3941
g3694
I7
sg3695
I7
sg3696
I8
sg3697
I9
sg3698
I6
sg3699
I9
sg3700
I6
sg3701
I9
sg3702
I10
sg3703
I10
sg3704
I10
sg3705
I8
sg3706
I9
sg3707
I10
sg3708
I7
ssg99
(dp3942
g3298
(ijoueur
joueur
p3943
(dp3944
g25
I0
sg119
g30
sg27
I0
sg29
g30
sg31
I0
sg32
g30
sg33
g0
(g34
g2
Ntp3945
Rp3946
(dp3947
g38
I4
sg39
S'*'
p3948
sg41
S'heros'
p3949
sbsg43
(dp3950
g3718
I0
sg3719
I0
sg3720
I3
sg3721
I2
ssg49
(dp3951
g3718
I0
sg3719
I0
sg3720
I0
sg3721
I0
ssg125
(dp3952
g3718
I0
sg3719
I0
sg3720
I3
sg3721
I2
ssg51
g30
sg52
I0
sg54
I0
sg55
I0
sg56
I0
sg57
g3324
sg59
I00
sg60
g0
(g34
g2
Ntp3953
Rp3954
(dp3955
g38
I1
sg39
S'<'
p3956
sg41
S'base'
p3957
sbsg61
(dp3958
g3718
I0
sg3719
I0
sg3720
I3
sg3721
I0
ssg63
I01
sg64
(dp3959
g3718
I0
sg3719
I0
sg3720
I0
sg3721
I0
ssg66
(dp3960
g3718
I0
sg3719
I0
sg3720
I3
sg3721
I0
ssg68
I0
sg69
I0
sg70
S'Malhuer'
p3961
sg72
I12
sg73
I0
sg74
I24
sg75
I7
sg76
(g3733
S'DO'
p3962
S'DM'
p3963
g30
tp3964
sg81
g30
sg82
(dp3965
g3737
I6
sg3738
I5
sg3739
I8
sg3740
I8
sg3741
I5
sg3742
I7
sg3743
I6
sg3744
I8
sg3745
I9
sg3746
I9
sg3747
I9
sg3748
I7
sg3749
I9
sg3750
I9
sg3751
I5
ssg99
(dp3966
sg118
I0
sg26
I0
sg120
I0
sg122
I0
sg123
F8.142857142857142
sg124
I0
sg121
I0
sg127
I0
sg128
g3965
sg129
I0
sg130
I0
sg131
I0
sg132
I0
sg133
I0
sg134
I0
sg135
I0
sg136
g3753
sbssg118
I0
sg26
I0
sg120
I0
sg122
I0
sg123
F9.030303030303031
sg124
I0
sg121
I0
sg127
I0
sg128
g3941
sg129
I0
sg531
(dp3967
sg130
I0
sg131
I0
sg132
I0
sg133
I2
sg134
I0
sg135
I0
sg136
g3755
sba(ijoueur
joueur
p3968
(dp3969
g286
F10.724137931034482
sg25
I0
sg287
F10.655172413793103
sg119
g30
sg27
I0
sg28
F188.26316568018606
sg31
I0
sg33
g0
(g34
g2
Ntp3970
Rp3971
(dp3972
g38
I5
sg39
S'**'
p3973
sg41
S'seigneur'
p3974
sbsg43
(dp3975
S'SR'
p3976
I0
sS'CT'
p3977
I0
sS'CR'
p3978
I0
sS'ST'
p3979
I0
ssg49
(dp3980
g3976
I0
sg3977
I0
sg3978
I0
sg3979
I0
ssg299
I0
sg300
I0
sg52
I0
sg549
I0
sg550
I0
sg63
I00
sg54
I4
sg55
I0
sg56
I0
sg76
(S'dummy'
p3981
S'TA'
p3982
S'DL'
p3983
g30
tp3984
sg59
I00
sg60
g0
(g34
g2
Ntp3985
Rp3986
(dp3987
g38
I5
sg39
S'**'
p3988
sg41
g3974
sbsg61
(dp3989
S'SR'
p3990
I2
sS'ST'
p3991
I0
sS'CR'
p3992
I2
sS'CT'
p3993
I13
ssg125
(dp3994
g3990
I0
sg3991
I0
sg3992
I0
sg3993
I0
ssg64
(dp3995
g3990
I0
sg3991
I0
sg3992
I0
sg3993
I0
ssg66
(dp3996
g3976
I2
sg3977
I43
sg3978
I3
sg3979
I10
ssg68
I0
sg69
I0
sg70
S'Draofoey'
p3997
sg72
I7
sg73
I0
sg74
I23
sg75
I224
sg57
S'QNL'
p3998
sg82
(dp3999
S'A'
p4000
I11
sS'ME'
p4001
I12
sS'RP2'
p4002
I7
sS'E'
p4003
I10
sS'P'
p4004
I8
sS'RP1'
p4005
I10
sS'JP'
p4006
I3
sS'RP_tot'
p4007
I10
sS'TO'
p4008
I9
sS'PA'
p4009
I11
sS'M'
p4010
I8
sS'R'
p4011
I9
sS'TB'
p4012
I6
sS'PL'
p4013
I11
sS'TA'
p4014
I12
ssg99
(dp4015
S's12'
p4016
(ijoueur
joueur
p4017
(dp4018
g286
F10.724137931034482
sg25
I0
sg119
g30
sg27
I0
sg31
I0
sg33
g0
(g34
g2
Ntp4019
Rp4020
(dp4021
g38
I5
sg39
S'**'
p4022
sg41
S'seigneur'
p4023
sbsg43
(dp4024
S'SR'
p4025
I0
sS'CT'
p4026
I0
sS'CR'
p4027
I0
sS'ST'
p4028
I0
ssg49
(dp4029
g4025
I0
sg4026
I0
sg4027
I0
sg4028
I0
ssg125
(dp4030
S'SR'
p4031
I0
sS'ST'
p4032
I0
sS'CR'
p4033
I0
sS'CT'
p4034
I0
ssg300
I0
sg52
I0
sg549
I0
sg550
I0
sg54
I4
sg55
I0
sg56
I0
sg76
(S'dummy'
p4035
S'TA'
p4036
S'DL'
p4037
g30
tp4038
sg59
I00
sg60
g0
(g34
g2
Ntp4039
Rp4040
(dp4041
g38
I5
sg39
S'**'
p4042
sg41
g4023
sbsg61
(dp4043
g4031
I0
sg4032
I6
sg4033
I1
sg4034
I15
ssg63
I00
sg64
(dp4044
g4031
I0
sg4032
I0
sg4033
I0
sg4034
I0
ssg66
(dp4045
g4025
I0
sg4026
I29
sg4027
I1
sg4028
I10
ssg68
I0
sg69
I0
sg70
S'Draofoey'
p4046
sg72
I7
sg73
I0
sg74
I23
sg75
I224
sg57
S'QNL'
p4047
sg82
(dp4048
S'A'
p4049
I12
sS'ME'
p4050
I12
sS'RP2'
p4051
I7
sS'E'
p4052
I11
sS'P'
p4053
I7
sS'RP1'
p4054
I10
sS'JP'
p4055
I3
sS'RP_tot'
p4056
I10
sS'TO'
p4057
I9
sS'PA'
p4058
I11
sS'M'
p4059
I8
sS'R'
p4060
I9
sS'TB'
p4061
I6
sS'PL'
p4062
I11
sS'TA'
p4063
I12
ssg99
(dp4064
S's11'
p4065
(ijoueur
joueur
p4066
(dp4067
g25
I0
sg27
I0
sg31
I0
sg33
g0
(g34
g2
Ntp4068
Rp4069
(dp4070
g38
I5
sg39
S'**'
p4071
sg41
S'seigneur'
p4072
sbsg43
(dp4073
S'SR'
p4074
I0
sS'CT'
p4075
I0
sS'CR'
p4076
I0
sS'ST'
p4077
I0
ssg49
(dp4078
g4074
I0
sg4075
I0
sg4076
I0
sg4077
I0
ssg125
(dp4079
g4074
I0
sg4075
I0
sg4076
I0
sg4077
I0
ssg300
I0
sg52
I0
sg549
I0
sg550
I0
sg54
I2
sg55
I0
sg56
I0
sg76
(S'dummy'
p4080
S'TA'
p4081
S'DL'
p4082
g30
tp4083
sg59
I00
sg60
g0
(g34
g2
Ntp4084
Rp4085
(dp4086
g38
I5
sg39
S'**'
p4087
sg41
g4072
sbsg61
(dp4088
g4074
I0
sg4075
I14
sg4076
I0
sg4077
I4
ssg63
I00
sg64
(dp4089
g4074
I0
sg4075
I0
sg4076
I0
sg4077
I0
ssg66
(dp4090
g4074
I0
sg4075
I14
sg4076
I0
sg4077
I4
ssg68
I0
sg69
I0
sg70
S'Draofoey'
p4091
sg72
I7
sg73
I0
sg74
I23
sg75
I224
sg57
S'QNL'
p4092
sg82
(dp4093
S'A'
p4094
I12
sS'ME'
p4095
I9
sS'RP2'
p4096
I7
sS'E'
p4097
I12
sS'P'
p4098
I7
sS'RP1'
p4099
I11
sS'JP'
p4100
I3
sS'RP_tot'
p4101
I11
sS'TO'
p4102
I9
sS'PA'
p4103
I11
sS'M'
p4104
I7
sS'R'
p4105
I9
sS'TB'
p4106
I6
sS'PL'
p4107
I12
sS'TA'
p4108
I12
ssg118
I0
sg26
I0
sg120
I0
sg122
I0
sg123
F10.724137931034482
sg124
I0
sg673
I0
sg121
I0
sg127
I0
sg418
(dp4109
S'A'
p4110
I12
sS'ME'
p4111
I9
sS'RP2'
p4112
I7
sS'E'
p4113
I12
sS'P'
p4114
I7
sS'RP1'
p4115
I11
sS'JP'
p4116
I3
sS'RP_tot'
p4117
I11
sS'TO'
p4118
I9
sS'PA'
p4119
I11
sS'M'
p4120
I7
sS'R'
p4121
I9
sS'TB'
p4122
I6
sS'PL'
p4123
I12
sS'TA'
p4124
I12
ssg128
g4093
sg129
I0
sg51
g30
sg130
I0
sg131
I0
sg132
I0
sg133
I22
sg134
I3
sg135
I0
sg136
S'CHS'
p4125
sbssg118
I8
sg26
I0
sg120
I0
sg122
I0
sg123
F10.655172413793103
sg124
I0
sg673
I0
sg121
I0
sg127
I3
sg418
(dp4126
S'A'
p4127
I12
sS'ME'
p4128
I9
sS'RP2'
p4129
I7
sS'E'
p4130
I12
sS'TO'
p4131
I9
sS'RP1'
p4132
I11
sS'JP'
p4133
I3
sS'RP_tot'
p4134
I11
sS'P'
p4135
I7
sS'PA'
p4136
I11
sS'M'
p4137
I7
sS'R'
p4138
I9
sS'TB'
p4139
I6
sS'PL'
p4140
I12
sS'TA'
p4141
I12
ssg128
g4048
sg129
I0
sg51
g30
sg130
I0
sg131
I0
sg132
I0
sg133
I22
sg134
I7
sg135
I3
sg136
S'CHS'
p4142
sbsS's11'
p4143
(ijoueur
joueur
p4144
(dp4145
g25
I0
sg27
I0
sg31
I0
sg33
g0
(g34
g2
Ntp4146
Rp4147
(dp4148
g38
I5
sg39
S'**'
p4149
sg41
S'seigneur'
p4150
sbsg43
(dp4151
S'SR'
p4152
I0
sS'CT'
p4153
I0
sS'CR'
p4154
I0
sS'ST'
p4155
I0
ssg49
(dp4156
g4152
I0
sg4153
I0
sg4154
I0
sg4155
I0
ssg125
(dp4157
g4152
I0
sg4153
I0
sg4154
I0
sg4155
I0
ssg300
I0
sg52
I0
sg549
I0
sg550
I0
sg54
I2
sg55
I0
sg56
I0
sg76
(S'dummy'
p4158
S'TA'
p4159
S'DL'
p4160
g30
tp4161
sg59
I00
sg60
g0
(g34
g2
Ntp4162
Rp4163
(dp4164
g38
I5
sg39
S'**'
p4165
sg41
g4150
sbsg61
(dp4166
g4152
I0
sg4153
I14
sg4154
I0
sg4155
I4
ssg63
I00
sg64
(dp4167
g4152
I0
sg4153
I0
sg4154
I0
sg4155
I0
ssg66
(dp4168
g4152
I0
sg4153
I14
sg4154
I0
sg4155
I4
ssg68
I0
sg69
I0
sg70
S'Draofoey'
p4169
sg72
I7
sg73
I0
sg74
I23
sg75
I224
sg57
S'QNL'
p4170
sg82
(dp4171
S'A'
p4172
I12
sS'ME'
p4173
I9
sS'RP2'
p4174
I7
sS'E'
p4175
I12
sS'P'
p4176
I7
sS'RP1'
p4177
I11
sS'JP'
p4178
I3
sS'RP_tot'
p4179
I11
sS'TO'
p4180
I9
sS'PA'
p4181
I11
sS'M'
p4182
I7
sS'R'
p4183
I9
sS'TB'
p4184
I6
sS'PL'
p4185
I12
sS'TA'
p4186
I12
ssg118
I0
sg26
I0
sg120
I0
sg122
I0
sg123
F10.724137931034482
sg124
I0
sg673
I0
sg121
I0
sg127
I0
sg418
(dp4187
S'A'
p4188
I12
sS'ME'
p4189
I9
sS'RP2'
p4190
I7
sS'E'
p4191
I12
sS'P'
p4192
I7
sS'RP1'
p4193
I11
sS'JP'
p4194
I3
sS'RP_tot'
p4195
I11
sS'TO'
p4196
I9
sS'PA'
p4197
I11
sS'M'
p4198
I7
sS'R'
p4199
I9
sS'TB'
p4200
I6
sS'PL'
p4201
I12
sS'TA'
p4202
I12
ssg128
g4171
sg129
I0
sg51
g30
sg130
I0
sg131
I0
sg132
I0
sg133
I22
sg134
I3
sg135
I0
sg136
S'CHS'
p4203
sbssg118
I3
sg26
I0
sg120
I0
sg122
I0
sg123
F10.448275862068966
sg124
I0
sg53
F188.26316568018606
sg673
I0
sg121
I0
sg127
I3
sg418
(dp4204
S'A'
p4205
I12
sS'ME'
p4206
I9
sS'RP2'
p4207
I7
sS'E'
p4208
I12
sS'TO'
p4209
I9
sS'RP1'
p4210
I11
sS'JP'
p4211
I3
sS'RP_tot'
p4212
I11
sS'P'
p4213
I7
sS'PA'
p4214
I11
sS'M'
p4215
I7
sS'R'
p4216
I9
sS'TB'
p4217
I6
sS'PL'
p4218
I12
sS'TA'
p4219
I12
ssg128
g3999
sg129
I0
sg531
(dp4220
sg130
I0
sg51
g30
sg131
I0
sg132
I0
sg133
I22
sg134
I11
sg135
I0
sg136
S'CHS'
p4221
sba(ijoueur
joueur
p4222
(dp4223
g286
F11.5
sg25
I1
sg287
F11.647058823529411
sg119
g30
sg27
I0
sg28
F178.52528878744428
sg31
I0
sg33
g0
(g34
g2
Ntp4224
Rp4225
(dp4226
g38
I4
sg39
S'*'
p4227
sg41
S'heros'
p4228
sbsg43
(dp4229
g3976
I0
sg3977
I5
sg3978
I0
sg3979
I0
ssg49
(dp4230
g3976
I0
sg3977
I0
sg3978
I0
sg3979
I0
ssg299
I0
sg300
I0
sg52
I0
sg549
I0
sg550
I0
sg63
I00
sg54
I0
sg55
I0
sg56
I0
sg76
(g3981
S'DL'
p4231
S'N8'
p4232
S'TL'
p4233
tp4234
sg59
I00
sg60
g0
(g34
g2
Ntp4235
Rp4236
(dp4237
g38
I4
sg39
g4227
sg41
g4228
sbsg61
(dp4238
g3990
I0
sg3991
I2
sg3992
I0
sg3993
I11
ssg125
(dp4239
g3990
I0
sg3991
I0
sg3992
I0
sg3993
I3
ssg64
(dp4240
g3990
I0
sg3991
I0
sg3992
I0
sg3993
I0
ssg66
(dp4241
g3976
I1
sg3977
I39
sg3978
I0
sg3979
I6
ssg68
I0
sg69
I0
sg70
S'Yxolder'
p4242
sg72
I5
sg73
I0
sg74
I16
sg75
I168
sg57
g3998
sg82
(dp4243
g4000
I13
sg4001
I11
sg4002
I9
sg4003
I9
sg4004
I6
sg4005
I12
sg4006
I4
sg4007
I13
sg4008
I14
sg4009
I9
sg4010
I8
sg4011
I12
sg4012
I3
sg4013
I11
sg4014
I5
ssg99
(dp4244
g4016
(ijoueur
joueur
p4245
(dp4246
g286
F11.5
sg25
I1
sg119
g30
sg27
I0
sg31
I0
sg33
g0
(g34
g2
Ntp4247
Rp4248
(dp4249
g38
I4
sg39
S'*'
p4250
sg41
S'heros'
p4251
sbsg43
(dp4252
g4025
I0
sg4026
I1
sg4027
I0
sg4028
I0
ssg49
(dp4253
g4025
I0
sg4026
I0
sg4027
I0
sg4028
I0
ssg125
(dp4254
g4031
I0
sg4032
I0
sg4033
I0
sg4034
I1
ssg300
I0
sg52
I0
sg549
I0
sg550
I0
sg54
I2
sg55
I0
sg56
I0
sg76
(g4035
S'DL'
p4255
S'N8'
p4256
S'TL'
p4257
tp4258
sg59
I00
sg60
g0
(g34
g2
Ntp4259
Rp4260
(dp4261
g38
I4
sg39
g4250
sg41
g4251
sbsg61
(dp4262
g4031
I1
sg4032
I4
sg4033
I0
sg4034
I14
ssg63
I00
sg64
(dp4263
g4031
I0
sg4032
I0
sg4033
I0
sg4034
I0
ssg66
(dp4264
g4025
I1
sg4026
I28
sg4027
I0
sg4028
I4
ssg68
I0
sg69
I0
sg70
S'Yxolder'
p4265
sg72
I5
sg73
I0
sg74
I16
sg75
I168
sg57
g4047
sg82
(dp4266
g4049
I12
sg4050
I11
sg4051
I9
sg4052
I9
sg4053
I6
sg4054
I12
sg4055
I4
sg4056
I14
sg4057
I14
sg4058
I9
sg4059
I8
sg4060
I11
sg4061
I3
sg4062
I11
sg4063
I5
ssg99
(dp4267
g4065
(ijoueur
joueur
p4268
(dp4269
g25
I0
sg27
I0
sg31
I0
sg33
g0
(g34
g2
Ntp4270
Rp4271
(dp4272
g38
I4
sg39
S'*'
p4273
sg41
S'heros'
p4274
sbsg43
(dp4275
S'SR'
p4276
I0
sS'CT'
p4277
I0
sS'CR'
p4278
I0
sS'ST'
p4279
I0
ssg49
(dp4280
g4276
I0
sg4277
I0
sg4278
I0
sg4279
I0
ssg125
(dp4281
g4276
I0
sg4277
I0
sg4278
I0
sg4279
I0
ssg300
I0
sg52
I0
sg549
I0
sg550
I0
sg54
I1
sg55
I0
sg56
I0
sg76
(S'dummy'
p4282
S'DL'
p4283
S'N8'
p4284
S'TL'
p4285
tp4286
sg59
I01
sg60
g0
(g34
g2
Ntp4287
Rp4288
(dp4289
g38
I4
sg39
g4273
sg41
g4274
sbsg61
(dp4290
g4276
I0
sg4277
I14
sg4278
I0
sg4279
I0
ssg63
I01
sg64
(dp4291
g4276
I0
sg4277
I0
sg4278
I0
sg4279
I0
ssg66
(dp4292
g4276
I0
sg4277
I14
sg4278
I0
sg4279
I0
ssg68
I0
sg69
I0
sg70
S'Yxolder'
p4293
sg72
I5
sg73
I0
sg74
I16
sg75
I168
sg57
S'QNL'
p4294
sg82
(dp4295
S'A'
p4296
I12
sS'ME'
p4297
I11
sS'RP2'
p4298
I8
sS'E'
p4299
I9
sS'P'
p4300
I6
sS'RP1'
p4301
I12
sS'JP'
p4302
I4
sS'RP_tot'
p4303
I13
sS'TO'
p4304
I14
sS'PA'
p4305
I9
sS'M'
p4306
I7
sS'R'
p4307
I11
sS'TB'
p4308
I3
sS'PL'
p4309
I11
sS'TA'
p4310
I5
ssg118
I0
sg26
I0
sg120
I0
sg122
I0
sg123
F11.5
sg124
I0
sg673
I0
sg121
I0
sg127
I0
sg418
(dp4311
S'A'
p4312
I12
sS'ME'
p4313
I11
sS'RP2'
p4314
I8
sS'E'
p4315
I9
sS'P'
p4316
I6
sS'RP1'
p4317
I12
sS'JP'
p4318
I4
sS'RP_tot'
p4319
I13
sS'TO'
p4320
I14
sS'PA'
p4321
I9
sS'M'
p4322
I7
sS'R'
p4323
I11
sS'TB'
p4324
I3
sS'PL'
p4325
I11
sS'TA'
p4326
I5
ssg128
g4295
sg129
I0
sg51
g30
sg130
I0
sg131
I0
sg132
I0
sg133
I18
sg134
I14
sg135
I0
sg136
S'CHS'
p4327
sbssg118
I6
sg26
I0
sg120
I0
sg122
I0
sg123
F11.647058823529411
sg124
I0
sg673
I0
sg121
I0
sg127
I0
sg418
(dp4328
g4127
I12
sg4128
I11
sg4129
I8
sg4130
I9
sg4131
I14
sg4132
I12
sg4133
I4
sg4134
I13
sg4135
I6
sg4136
I9
sg4137
I7
sg4138
I11
sg4139
I3
sg4140
I11
sg4141
I5
ssg128
g4266
sg129
I1
sg51
g30
sg130
I0
sg131
I0
sg132
I0
sg133
I27
sg134
I16
sg135
I0
sg136
S'CHS'
p4329
sbsg4143
(ijoueur
joueur
p4330
(dp4331
g25
I0
sg27
I0
sg31
I0
sg33
g0
(g34
g2
Ntp4332
Rp4333
(dp4334
g38
I4
sg39
S'*'
p4335
sg41
S'heros'
p4336
sbsg43
(dp4337
S'SR'
p4338
I0
sS'CT'
p4339
I0
sS'CR'
p4340
I0
sS'ST'
p4341
I0
ssg49
(dp4342
g4338
I0
sg4339
I0
sg4340
I0
sg4341
I0
ssg125
(dp4343
g4338
I0
sg4339
I0
sg4340
I0
sg4341
I0
ssg300
I0
sg52
I0
sg549
I0
sg550
I0
sg54
I1
sg55
I0
sg56
I0
sg76
(S'dummy'
p4344
S'DL'
p4345
S'N8'
p4346
S'TL'
p4347
tp4348
sg59
I01
sg60
g0
(g34
g2
Ntp4349
Rp4350
(dp4351
g38
I4
sg39
g4335
sg41
g4336
sbsg61
(dp4352
g4338
I0
sg4339
I14
sg4340
I0
sg4341
I0
ssg63
I01
sg64
(dp4353
g4338
I0
sg4339
I0
sg4340
I0
sg4341
I0
ssg66
(dp4354
g4338
I0
sg4339
I14
sg4340
I0
sg4341
I0
ssg68
I0
sg69
I0
sg70
S'Yxolder'
p4355
sg72
I5
sg73
I0
sg74
I16
sg75
I168
sg57
S'QNL'
p4356
sg82
(dp4357
S'A'
p4358
I12
sS'ME'
p4359
I11
sS'RP2'
p4360
I8
sS'E'
p4361
I9
sS'P'
p4362
I6
sS'RP1'
p4363
I12
sS'JP'
p4364
I4
sS'RP_tot'
p4365
I13
sS'TO'
p4366
I14
sS'PA'
p4367
I9
sS'M'
p4368
I7
sS'R'
p4369
I11
sS'TB'
p4370
I3
sS'PL'
p4371
I11
sS'TA'
p4372
I5
ssg118
I0
sg26
I0
sg120
I0
sg122
I0
sg123
F11.5
sg124
I0
sg673
I0
sg121
I0
sg127
I0
sg418
(dp4373
S'A'
p4374
I12
sS'ME'
p4375
I11
sS'RP2'
p4376
I8
sS'E'
p4377
I9
sS'P'
p4378
I6
sS'RP1'
p4379
I12
sS'JP'
p4380
I4
sS'RP_tot'
p4381
I13
sS'TO'
p4382
I14
sS'PA'
p4383
I9
sS'M'
p4384
I7
sS'R'
p4385
I11
sS'TB'
p4386
I3
sS'PL'
p4387
I11
sS'TA'
p4388
I5
ssg128
g4357
sg129
I0
sg51
g30
sg130
I0
sg131
I0
sg132
I0
sg133
I18
sg134
I14
sg135
I0
sg136
S'CHS'
p4389
sbssg118
I7
sg26
I0
sg120
I0
sg122
I0
sg123
F11.794117647058824
sg124
I0
sg53
F178.52528878744428
sg673
I0
sg121
I0
sg127
I0
sg418
(dp4390
g4205
I12
sg4206
I11
sg4207
I8
sg4208
I9
sg4209
I14
sg4210
I12
sg4211
I4
sg4212
I13
sg4213
I6
sg4214
I9
sg4215
I7
sg4216
I11
sg4217
I3
sg4218
I11
sg4219
I5
ssg128
g4243
sg129
I0
sg531
(dp4391
sg130
I0
sg51
g30
sg131
I0
sg132
I0
sg133
I27
sg134
I16
sg135
I0
sg136
S'CHS'
p4392
sba(ijoueur
joueur
p4393
(dp4394
g286
F11.289473684210526
sg25
I0
sg287
F11.657894736842104
sg119
g30
sg27
I0
sg28
F188.97631417880106
sg31
I0
sg33
g0
(g34
g2
Ntp4395
Rp4396
(dp4397
g38
I4
sg39
S'x'
p4398
sg41
S'heros'
p4399
sbsg43
(dp4400
S'SR'
p4401
I0
sS'CT'
p4402
I30
sS'CR'
p4403
I0
sS'ST'
p4404
I7
ssg49
(dp4405
g4401
I1
sg4402
I13
sg4403
I0
sg4404
I4
ssg299
I0
sg125
(dp4406
g3990
I0
sg3991
I2
sg3992
I0
sg3993
I13
ssg300
I0
sg52
I0
sg53
F188.97631417880106
sg54
I0
sg55
I0
sg56
I0
sg76
(S'dummy'
p4407
S'TL'
p4408
S'N8'
p4409
S'DL'
p4410
tp4411
sg59
I00
sg60
g0
(g34
g2
Ntp4412
Rp4413
(dp4414
g38
I4
sg39
g4398
sg41
g4399
sbsg61
(dp4415
g3990
I0
sg3991
I0
sg3992
I0
sg3993
I2
ssg63
I00
sg64
(dp4416
g3990
I0
sg3991
I0
sg3992
I0
sg3993
I0
ssg66
(dp4417
g4401
I0
sg4402
I3
sg4403
I0
sg4404
I0
ssg68
I0
sg69
I0
sg70
S'Srend'
p4418
sg72
I4
sg73
I0
sg74
I15
sg75
I1053
sg57
g3998
sg82
(dp4419
S'A'
p4420
I13
sS'ME'
p4421
I13
sS'RP2'
p4422
I9
sS'E'
p4423
I10
sS'P'
p4424
I4
sS'RP1'
p4425
I13
sS'JP'
p4426
I4
sS'RP_tot'
p4427
I14
sS'TO'
p4428
I12
sS'PA'
p4429
I9
sS'M'
p4430
I7
sS'R'
p4431
I12
sS'TB'
p4432
I3
sS'PL'
p4433
I13
sS'TA'
p4434
I8
ssg99
(dp4435
g4016
(ijoueur
joueur
p4436
(dp4437
g286
F11.289473684210526
sg25
I0
sg119
g30
sg27
I0
sg31
I0
sg33
g0
(g34
g2
Ntp4438
Rp4439
(dp4440
g38
I4
sg39
S'x'
p4441
sg41
S'heros'
p4442
sbsg43
(dp4443
S'SR'
p4444
I0
sS'CT'
p4445
I17
sS'CR'
p4446
I0
sS'ST'
p4447
I5
ssg49
(dp4448
g4444
I1
sg4445
I13
sg4446
I0
sg4447
I4
ssg300
I0
sg123
F11.657894736842104
sg52
I0
sg54
I4
sg55
I0
sg56
I0
sg76
(S'dummy'
p4449
S'TL'
p4450
S'N8'
p4451
S'DL'
p4452
tp4453
sg59
I00
sg60
g0
(g34
g2
Ntp4454
Rp4455
(dp4456
g38
I4
sg39
g4441
sg41
g4442
sbsg61
(dp4457
g4031
I0
sg4032
I0
sg4033
I0
sg4034
I0
ssg63
I00
sg64
(dp4458
g4031
I0
sg4032
I0
sg4033
I0
sg4034
I0
ssg66
(dp4459
g4444
I0
sg4445
I0
sg4446
I0
sg4447
I0
ssg68
I0
sg69
I0
sg70
S'Srend'
p4460
sg72
I4
sg73
I0
sg74
I15
sg75
I1053
sg57
g4047
sg82
(dp4461
S'A'
p4462
I11
sS'ME'
p4463
I13
sS'RP2'
p4464
I9
sS'E'
p4465
I10
sS'P'
p4466
I4
sS'RP1'
p4467
I13
sS'JP'
p4468
I4
sS'RP_tot'
p4469
I15
sS'TO'
p4470
I12
sS'PA'
p4471
I9
sS'M'
p4472
I7
sS'R'
p4473
I11
sS'TB'
p4474
I3
sS'PL'
p4475
I13
sS'TA'
p4476
I8
ssg99
(dp4477
g4065
(ijoueur
joueur
p4478
(dp4479
g25
I0
sg27
I0
sg31
I0
sg33
g0
(g34
g2
Ntp4480
Rp4481
(dp4482
g38
I4
sg39
S'x'
p4483
sg41
S'heros'
p4484
sbsg43
(dp4485
S'SR'
p4486
I0
sS'CT'
p4487
I2
sS'CR'
p4488
I0
sS'ST'
p4489
I0
ssg49
(dp4490
g4486
I1
sg4487
I13
sg4488
I0
sg4489
I4
ssg300
I0
sg52
I0
sg63
I00
sg54
I4
sg55
I0
sg56
I0
sg76
(S'dummy'
p4491
S'TL'
p4492
S'N8'
p4493
S'DL'
p4494
tp4495
sg59
I01
sg60
g0
(g34
g2
Ntp4496
Rp4497
(dp4498
g38
I4
sg39
g4483
sg41
g4484
sbsg61
(dp4499
g4486
I0
sg4487
I0
sg4488
I0
sg4489
I0
ssg125
(dp4500
g4486
I0
sg4487
I2
sg4488
I0
sg4489
I0
ssg64
(dp4501
g4486
I1
sg4487
I13
sg4488
I0
sg4489
I4
ssg66
(dp4502
g4486
I0
sg4487
I0
sg4488
I0
sg4489
I0
ssg68
I0
sg69
I0
sg70
S'Srend'
p4503
sg72
I4
sg73
I0
sg74
I15
sg75
I390
sg57
S'TO'
p4504
sg82
(dp4505
S'A'
p4506
I11
sS'ME'
p4507
I11
sS'RP2'
p4508
I9
sS'E'
p4509
I9
sS'P'
p4510
I4
sS'RP1'
p4511
I13
sS'JP'
p4512
I4
sS'RP_tot'
p4513
I15
sS'TO'
p4514
I12
sS'PA'
p4515
I9
sS'M'
p4516
I7
sS'R'
p4517
I11
sS'TB'
p4518
I3
sS'PL'
p4519
I12
sS'TA'
p4520
I8
ssg118
I0
sg26
I0
sg120
I0
sg122
I0
sg123
F11.289473684210526
sg124
I0
sg121
I0
sg127
I0
sg418
(dp4521
S'A'
p4522
I11
sS'ME'
p4523
I11
sS'RP2'
p4524
I9
sS'E'
p4525
I9
sS'P'
p4526
I4
sS'RP1'
p4527
I13
sS'JP'
p4528
I4
sS'RP_tot'
p4529
I15
sS'TO'
p4530
I12
sS'PA'
p4531
I9
sS'M'
p4532
I7
sS'R'
p4533
I11
sS'TB'
p4534
I3
sS'PL'
p4535
I12
sS'TA'
p4536
I8
ssg128
g4505
sg129
I0
sg51
S'HTH 8'
p4537
sg130
I0
sg131
I0
sg132
I0
sg133
I30
sg134
I23
sg135
I0
sg136
S'CHS'
p4538
sbssg118
I6
sg26
I0
sg120
I0
sg122
I0
sg125
(dp4539
g4031
I0
sg4032
I5
sg4033
I0
sg4034
I15
ssg124
I0
sg121
I0
sg127
I0
sg418
(dp4540
S'A'
p4541
I11
sS'ME'
p4542
I11
sS'RP2'
p4543
I9
sS'E'
p4544
I9
sS'TO'
p4545
I12
sS'RP1'
p4546
I13
sS'JP'
p4547
I4
sS'RP_tot'
p4548
I15
sS'P'
p4549
I4
sS'PA'
p4550
I9
sS'M'
p4551
I7
sS'R'
p4552
I11
sS'TB'
p4553
I3
sS'PL'
p4554
I12
sS'TA'
p4555
I8
ssg128
g4461
sg129
I0
sg51
S'HTH 8;TO 12'
p4556
sg130
I0
sg131
I0
sg132
I0
sg133
I33
sg134
I27
sg135
I0
sg136
S'CHS'
p4557
sbsg4143
(ijoueur
joueur
p4558
(dp4559
g25
I0
sg27
I0
sg31
I0
sg33
g0
(g34
g2
Ntp4560
Rp4561
(dp4562
g38
I4
sg39
S'x'
p4563
sg41
S'heros'
p4564
sbsg43
(dp4565
S'SR'
p4566
I0
sS'CT'
p4567
I2
sS'CR'
p4568
I0
sS'ST'
p4569
I0
ssg49
(dp4570
g4566
I1
sg4567
I13
sg4568
I0
sg4569
I4
ssg300
I0
sg52
I0
sg63
I00
sg54
I4
sg55
I0
sg56
I0
sg76
(S'dummy'
p4571
S'TL'
p4572
S'N8'
p4573
S'DL'
p4574
tp4575
sg59
I01
sg60
g0
(g34
g2
Ntp4576
Rp4577
(dp4578
g38
I4
sg39
g4563
sg41
g4564
sbsg61
(dp4579
g4566
I0
sg4567
I0
sg4568
I0
sg4569
I0
ssg125
(dp4580
g4566
I0
sg4567
I2
sg4568
I0
sg4569
I0
ssg64
(dp4581
g4566
I1
sg4567
I13
sg4568
I0
sg4569
I4
ssg66
(dp4582
g4566
I0
sg4567
I0
sg4568
I0
sg4569
I0
ssg68
I0
sg69
I0
sg70
S'Srend'
p4583
sg72
I4
sg73
I0
sg74
I15
sg75
I390
sg57
S'TO'
p4584
sg82
(dp4585
S'A'
p4586
I11
sS'ME'
p4587
I11
sS'RP2'
p4588
I9
sS'E'
p4589
I9
sS'P'
p4590
I4
sS'RP1'
p4591
I13
sS'JP'
p4592
I4
sS'RP_tot'
p4593
I15
sS'TO'
p4594
I12
sS'PA'
p4595
I9
sS'M'
p4596
I7
sS'R'
p4597
I11
sS'TB'
p4598
I3
sS'PL'
p4599
I12
sS'TA'
p4600
I8
ssg118
I0
sg26
I0
sg120
I0
sg122
I0
sg123
F11.289473684210526
sg124
I0
sg121
I0
sg127
I0
sg418
(dp4601
S'A'
p4602
I11
sS'ME'
p4603
I11
sS'RP2'
p4604
I9
sS'E'
p4605
I9
sS'P'
p4606
I4
sS'RP1'
p4607
I13
sS'JP'
p4608
I4
sS'RP_tot'
p4609
I15
sS'TO'
p4610
I12
sS'PA'
p4611
I9
sS'M'
p4612
I7
sS'R'
p4613
I11
sS'TB'
p4614
I3
sS'PL'
p4615
I12
sS'TA'
p4616
I8
ssg128
g4585
sg129
I0
sg51
S'HTH 8'
p4617
sg130
I0
sg131
I0
sg132
I0
sg133
I30
sg134
I23
sg135
I0
sg136
S'CHS'
p4618
sbssg118
I7
sg26
I0
sg120
I0
sg122
I0
sg123
F11.947368421052632
sg124
I0
sg121
I0
sg127
I1
sg418
(dp4619
S'A'
p4620
I11
sS'ME'
p4621
I11
sS'RP2'
p4622
I9
sS'E'
p4623
I9
sS'TO'
p4624
I12
sS'RP1'
p4625
I13
sS'JP'
p4626
I4
sS'RP_tot'
p4627
I15
sS'P'
p4628
I4
sS'PA'
p4629
I9
sS'M'
p4630
I7
sS'R'
p4631
I11
sS'TB'
p4632
I3
sS'PL'
p4633
I12
sS'TA'
p4634
I8
ssg128
g4419
sg129
I0
sg531
(dp4635
sg130
I0
sg51
S'HTH 8;TO 12'
p4636
sg131
I0
sg132
I0
sg133
I33
sg134
I27
sg135
I1
sg136
S'CHS'
p4637
sba(ijoueur
joueur
p4638
(dp4639
g286
F10.272727272727273
sg25
I0
sg287
F9.909090909090908
sg119
g30
sg27
I20
sg28
F208.97333250992367
sg31
I0
sg33
g0
(g34
g2
Ntp4640
Rp4641
(dp4642
g38
I4
sg39
S'x'
p4643
sg41
g4228
sbsg43
(dp4644
g3976
I1
sg3977
I9
sg3978
I1
sg3979
I9
ssg49
(dp4645
g3976
I1
sg3977
I0
sg3978
I27
sg3979
I0
ssg299
I0
sg300
I0
sg52
I1
sg549
I0
sg550
I0
sg63
I00
sg54
I0
sg55
I0
sg56
I0
sg76
(g3981
S'AR'
p4646
S'CE'
p4647
S'DO'
p4648
tp4649
sg59
I00
sg60
g0
(g34
g2
Ntp4650
Rp4651
(dp4652
g38
I4
sg39
g4643
sg41
g4228
sbsg61
(dp4653
g3990
I1
sg3991
I0
sg3992
I4
sg3993
I1
ssg125
(dp4654
g3990
I1
sg3991
I0
sg3992
I1
sg3993
I4
ssg64
(dp4655
g3990
I0
sg3991
I0
sg3992
I7
sg3993
I0
ssg66
(dp4656
g3976
I1
sg3977
I2
sg3978
I6
sg3979
I0
ssg68
I0
sg69
I0
sg70
S'Dunog'
p4657
sg72
I2
sg73
I0
sg74
I11
sg75
I150
sg57
g3998
sg82
(dp4658
g4000
I10
sg4001
I7
sg4002
I8
sg4003
I9
sg4004
I9
sg4005
I10
sg4006
I9
sg4007
I11
sg4008
I6
sg4009
I12
sg4010
I9
sg4011
I6
sg4012
I6
sg4013
I10
sg4014
I8
ssg99
(dp4659
g4016
(ijoueur
joueur
p4660
(dp4661
g286
F10.272727272727273
sg25
I0
sg119
g30
sg27
I20
sg31
I0
sg33
g0
(g34
g2
Ntp4662
Rp4663
(dp4664
g38
I4
sg39
S'x'
p4665
sg41
g4251
sbsg43
(dp4666
g4025
I0
sg4026
I5
sg4027
I0
sg4028
I9
ssg49
(dp4667
g4025
I1
sg4026
I0
sg4027
I19
sg4028
I0
ssg125
(dp4668
g4031
I0
sg4032
I5
sg4033
I0
sg4034
I3
ssg300
I0
sg52
I0
sg549
I0
sg550
I0
sg54
I0
sg55
I0
sg56
I0
sg76
(g4035
S'AR'
p4669
S'CE'
p4670
S'DO'
p4671
tp4672
sg59
I00
sg60
g0
(g34
g2
Ntp4673
Rp4674
(dp4675
g38
I4
sg39
g4665
sg41
g4251
sbsg61
(dp4676
g4031
I0
sg4032
I0
sg4033
I2
sg4034
I1
ssg63
I00
sg64
(dp4677
g4031
I1
sg4032
I0
sg4033
I7
sg4034
I0
ssg66
(dp4678
g4025
I0
sg4026
I1
sg4027
I2
sg4028
I0
ssg68
I0
sg69
I0
sg70
S'Dunog'
p4679
sg72
I2
sg73
I0
sg74
I11
sg75
I150
sg57
g4047
sg82
(dp4680
g4049
I10
sg4050
I7
sg4051
I8
sg4052
I9
sg4053
I9
sg4054
I10
sg4055
I10
sg4056
I11
sg4057
I6
sg4058
I12
sg4059
I9
sg4060
I6
sg4061
I6
sg4062
I10
sg4063
I8
ssg99
(dp4681
g4065
(ijoueur
joueur
p4682
(dp4683
g25
I0
sg27
I18
sg31
I0
sg33
g0
(g34
g2
Ntp4684
Rp4685
(dp4686
g38
I4
sg39
S'x'
p4687
sg41
S'heros'
p4688
sbsg43
(dp4689
S'SR'
p4690
I0
sS'CT'
p4691
I2
sS'CR'
p4692
I0
sS'ST'
p4693
I4
ssg49
(dp4694
g4690
I0
sg4691
I0
sg4692
I12
sg4693
I0
ssg125
(dp4695
g4690
I0
sg4691
I2
sg4692
I0
sg4693
I4
ssg300
I0
sg52
I0
sg549
I0
sg550
I0
sg54
I0
sg55
I0
sg56
I0
sg76
(S'dummy'
p4696
S'AR'
p4697
S'CE'
p4698
S'DO'
p4699
tp4700
sg59
I00
sg60
g0
(g34
g2
Ntp4701
Rp4702
(dp4703
g38
I4
sg39
g4687
sg41
g4688
sbsg61
(dp4704
g4690
I0
sg4691
I0
sg4692
I0
sg4693
I0
ssg63
I00
sg64
(dp4705
g4690
I0
sg4691
I0
sg4692
I12
sg4693
I0
ssg66
(dp4706
g4690
I0
sg4691
I0
sg4692
I0
sg4693
I0
ssg68
I0
sg69
I0
sg70
S'Dunog'
p4707
sg72
I2
sg73
I0
sg74
I11
sg75
I150
sg57
S'QNL'
p4708
sg82
(dp4709
S'A'
p4710
I11
sS'ME'
p4711
I7
sS'RP2'
p4712
I8
sS'E'
p4713
I9
sS'P'
p4714
I10
sS'RP1'
p4715
I10
sS'JP'
p4716
I10
sS'RP_tot'
p4717
I11
sS'TO'
p4718
I6
sS'PA'
p4719
I13
sS'M'
p4720
I9
sS'R'
p4721
I7
sS'TB'
p4722
I6
sS'PL'
p4723
I10
sS'TA'
p4724
I8
ssg118
I0
sg26
I0
sg120
I0
sg122
I0
sg123
F10.272727272727273
sg124
I0
sg673
I16
sg121
I0
sg127
I1
sg418
(dp4725
S'A'
p4726
I11
sS'ME'
p4727
I7
sS'RP2'
p4728
I8
sS'E'
p4729
I9
sS'P'
p4730
I10
sS'RP1'
p4731
I10
sS'JP'
p4732
I10
sS'RP_tot'
p4733
I11
sS'TO'
p4734
I6
sS'PA'
p4735
I13
sS'M'
p4736
I9
sS'R'
p4737
I7
sS'TB'
p4738
I6
sS'PL'
p4739
I10
sS'TA'
p4740
I8
ssg128
g4709
sg129
I0
sg51
g30
sg130
I0
sg131
I2
sg132
I0
sg133
I16
sg134
I16
sg135
I1
sg136
S'CHS'
p4741
sbssg118
I7
sg26
I0
sg120
I0
sg122
I0
sg123
F9.909090909090908
sg124
I0
sg673
I16
sg121
I0
sg127
I2
sg418
(dp4742
g4127
I11
sg4128
I7
sg4129
I8
sg4130
I9
sg4131
I6
sg4132
I10
sg4133
I10
sg4134
I11
sg4135
I10
sg4136
I13
sg4137
I9
sg4138
I7
sg4139
I6
sg4140
I10
sg4141
I8
ssg128
g4680
sg129
I0
sg51
g30
sg130
I0
sg131
I2
sg132
I0
sg133
I16
sg134
I16
sg135
I1
sg136
S'CHS'
p4743
sbsg4143
(ijoueur
joueur
p4744
(dp4745
g25
I0
sg27
I18
sg31
I0
sg33
g0
(g34
g2
Ntp4746
Rp4747
(dp4748
g38
I4
sg39
S'x'
p4749
sg41
S'heros'
p4750
sbsg43
(dp4751
S'SR'
p4752
I0
sS'CT'
p4753
I2
sS'CR'
p4754
I0
sS'ST'
p4755
I4
ssg49
(dp4756
g4752
I0
sg4753
I0
sg4754
I12
sg4755
I0
ssg125
(dp4757
g4752
I0
sg4753
I2
sg4754
I0
sg4755
I4
ssg300
I0
sg52
I0
sg549
I0
sg550
I0
sg54
I0
sg55
I0
sg56
I0
sg76
(S'dummy'
p4758
S'AR'
p4759
S'CE'
p4760
S'DO'
p4761
tp4762
sg59
I00
sg60
g0
(g34
g2
Ntp4763
Rp4764
(dp4765
g38
I4
sg39
g4749
sg41
g4750
sbsg61
(dp4766
g4752
I0
sg4753
I0
sg4754
I0
sg4755
I0
ssg63
I00
sg64
(dp4767
g4752
I0
sg4753
I0
sg4754
I12
sg4755
I0
ssg66
(dp4768
g4752
I0
sg4753
I0
sg4754
I0
sg4755
I0
ssg68
I0
sg69
I0
sg70
S'Dunog'
p4769
sg72
I2
sg73
I0
sg74
I11
sg75
I150
sg57
S'QNL'
p4770
sg82
(dp4771
S'A'
p4772
I11
sS'ME'
p4773
I7
sS'RP2'
p4774
I8
sS'E'
p4775
I9
sS'P'
p4776
I10
sS'RP1'
p4777
I10
sS'JP'
p4778
I10
sS'RP_tot'
p4779
I11
sS'TO'
p4780
I6
sS'PA'
p4781
I13
sS'M'
p4782
I9
sS'R'
p4783
I7
sS'TB'
p4784
I6
sS'PL'
p4785
I10
sS'TA'
p4786
I8
ssg118
I0
sg26
I0
sg120
I0
sg122
I0
sg123
F10.272727272727273
sg124
I0
sg673
I16
sg121
I0
sg127
I1
sg418
(dp4787
S'A'
p4788
I11
sS'ME'
p4789
I7
sS'RP2'
p4790
I8
sS'E'
p4791
I9
sS'P'
p4792
I10
sS'RP1'
p4793
I10
sS'JP'
p4794
I10
sS'RP_tot'
p4795
I11
sS'TO'
p4796
I6
sS'PA'
p4797
I13
sS'M'
p4798
I9
sS'R'
p4799
I7
sS'TB'
p4800
I6
sS'PL'
p4801
I10
sS'TA'
p4802
I8
ssg128
g4771
sg129
I0
sg51
g30
sg130
I0
sg131
I2
sg132
I0
sg133
I16
sg134
I16
sg135
I1
sg136
S'CHS'
p4803
sbssg118
I6
sg26
I1
sg120
I0
sg122
I0
sg123
F9.848484848484848
sg124
I0
sg53
F208.97333250992367
sg673
I16
sg121
I0
sg127
I2
sg418
(dp4804
g4205
I11
sg4206
I7
sg4207
I8
sg4208
I9
sg4209
I6
sg4210
I10
sg4211
I10
sg4212
I11
sg4213
I10
sg4214
I13
sg4215
I9
sg4216
I7
sg4217
I6
sg4218
I10
sg4219
I8
ssg128
g4658
sg129
I0
sg531
(dp4805
sg130
I0
sg51
g30
sg131
I0
sg132
I0
sg133
I16
sg134
I16
sg135
I0
sg136
S'CHS'
p4806
sba(ijoueur
joueur
p4807
(dp4808
g286
F10.90625
sg25
I0
sg287
F10.766666666666667
sg119
g30
sg27
I2
sg28
F158.42986310925778
sg31
I0
sg33
g0
(g34
g2
Ntp4809
Rp4810
(dp4811
g38
I4
sg39
S'x'
p4812
sg41
S'heros'
p4813
sbsg43
(dp4814
S'SR'
p4815
I0
sS'CT'
p4816
I24
sS'CR'
p4817
I0
sS'ST'
p4818
I7
ssg49
(dp4819
g4815
I0
sg4816
I2
sg4817
I1
sg4818
I0
ssg299
I0
sg125
(dp4820
S'SR'
p4821
I0
sS'CT'
p4822
I10
sS'CR'
p4823
I0
sS'ST'
p4824
I2
ssg300
I0
sg52
I0
sg549
I18
sg550
I22
sg54
I1
sg55
I1
sg56
I4
sg76
(S'dummy'
p4825
S'C1'
p4826
S'AR'
p4827
S'AI'
p4828
tp4829
sg59
I00
sg60
g0
(g34
g2
Ntp4830
Rp4831
(dp4832
g38
I5
sg39
S'**'
p4833
sg41
S'seigneur'
p4834
sbsg61
(dp4835
g4821
I0
sg4822
I1
sg4823
I0
sg4824
I0
ssg63
I00
sg64
(dp4836
g4821
I0
sg4822
I1
sg4823
I1
sg4824
I0
ssg66
(dp4837
g4815
I0
sg4816
I16
sg4817
I0
sg4818
I5
ssg68
I62
sg69
I9
sg70
S'Cathaen'
p4838
sg72
I5
sg73
I37
sg74
I14
sg75
I398
sg57
S'SN'
p4839
sg82
(dp4840
S'A'
p4841
I12
sS'ME'
p4842
I6
sS'RP2'
p4843
I7
sS'E'
p4844
I9
sS'P'
p4845
I9
sS'RP1'
p4846
I12
sS'JP'
p4847
I8
sS'RP_tot'
p4848
I12
sS'TO'
p4849
I10
sS'PA'
p4850
I11
sS'M'
p4851
I9
sS'R'
p4852
I8
sS'TB'
p4853
I10
sS'PL'
p4854
I17
sS'TA'
p4855
I5
ssg99
(dp4856
S's12'
p4857
(ijoueur
joueur
p4858
(dp4859
g286
F10.90625
sg25
I0
sg119
g30
sg27
I2
sg31
I0
sg33
g0
(g34
g2
Ntp4860
Rp4861
(dp4862
g38
I4
sg39
S'x'
p4863
sg41
S'heros'
p4864
sbsg43
(dp4865
S'SR'
p4866
I0
sS'CT'
p4867
I14
sS'CR'
p4868
I0
sS'ST'
p4869
I5
ssg49
(dp4870
g4866
I0
sg4867
I1
sg4868
I0
sg4869
I0
ssg300
I0
sg123
F10.766666666666667
sg52
I0
sg549
I18
sg550
I22
sg54
I1
sg55
I1
sg56
I13
sg76
(S'dummy'
p4871
S'C1'
p4872
S'AR'
p4873
S'AI'
p4874
tp4875
sg59
I00
sg60
g0
(g34
g2
Ntp4876
Rp4877
(dp4878
g38
I5
sg39
S'**'
p4879
sg41
S'seigneur'
p4880
sbsg61
(dp4881
S'SR'
p4882
I0
sS'CT'
p4883
I0
sS'CR'
p4884
I0
sS'ST'
p4885
I0
ssg63
I00
sg64
(dp4886
g4882
I0
sg4883
I1
sg4884
I0
sg4885
I0
ssg66
(dp4887
g4866
I0
sg4867
I15
sg4868
I0
sg4869
I5
ssg68
I53
sg69
I20
sg70
S'Cathaen'
p4888
sg72
I5
sg73
I33
sg74
I14
sg75
I398
sg57
S'SN'
p4889
sg82
(dp4890
S'A'
p4891
I12
sS'ME'
p4892
I6
sS'RP2'
p4893
I7
sS'E'
p4894
I9
sS'P'
p4895
I9
sS'RP1'
p4896
I11
sS'JP'
p4897
I8
sS'RP_tot'
p4898
I11
sS'TO'
p4899
I10
sS'PA'
p4900
I10
sS'M'
p4901
I9
sS'R'
p4902
I7
sS'TB'
p4903
I10
sS'PL'
p4904
I16
sS'TA'
p4905
I5
ssg99
(dp4906
S's11'
p4907
(ijoueur
joueur
p4908
(dp4909
g25
I0
sg27
I2
sg31
I0
sg33
g0
(g34
g2
Ntp4910
Rp4911
(dp4912
g38
I4
sg39
S'x'
p4913
sg41
S'heros'
p4914
sbsg43
(dp4915
S'SR'
p4916
I0
sS'ST'
p4917
I0
sS'CR'
p4918
I0
sS'CT'
p4919
I0
ssg49
(dp4920
g4916
I0
sg4917
I0
sg4918
I0
sg4919
I0
ssg125
(dp4921
g4916
I0
sg4917
I0
sg4918
I0
sg4919
I0
ssg300
I0
sg52
I0
sg549
I18
sg550
I22
sg54
I0
sg55
I0
sg56
I2
sg76
(S'dummy'
p4922
S'C1'
p4923
S'AR'
p4924
S'AI'
p4925
tp4926
sg59
I01
sg60
g0
(g34
g2
Ntp4927
Rp4928
(dp4929
g38
I5
sg39
S'**'
p4930
sg41
S'seigneur'
p4931
sbsg61
(dp4932
g4916
I0
sg4917
I5
sg4918
I0
sg4919
I15
ssg63
I00
sg64
(dp4933
g4916
I0
sg4917
I0
sg4918
I0
sg4919
I0
ssg66
(dp4934
g4916
I0
sg4917
I5
sg4918
I0
sg4919
I15
ssg68
I33
sg69
I11
sg70
S'Cathaen'
p4935
sg72
I5
sg73
I20
sg74
I14
sg75
I250
sg57
S'ALT'
p4936
sg82
(dp4937
S'A'
p4938
I12
sS'ME'
p4939
I6
sS'RP2'
p4940
I7
sS'E'
p4941
I10
sS'TO'
p4942
I10
sS'RP1'
p4943
I11
sS'JP'
p4944
I8
sS'RP_tot'
p4945
I11
sS'P'
p4946
I9
sS'PA'
p4947
I10
sS'M'
p4948
I9
sS'R'
p4949
I7
sS'TB'
p4950
I11
sS'PL'
p4951
I16
sS'TA'
p4952
I5
ssg118
I0
sg26
I0
sg120
I0
sg122
I0
sg123
F10.90625
sg124
I0
sg673
I2
sg121
I0
sg127
I0
sg418
(dp4953
S'A'
p4954
I12
sS'ME'
p4955
I6
sS'RP2'
p4956
I7
sS'E'
p4957
I10
sS'TO'
p4958
I10
sS'RP1'
p4959
I11
sS'JP'
p4960
I8
sS'RP_tot'
p4961
I11
sS'P'
p4962
I9
sS'PA'
p4963
I10
sS'M'
p4964
I9
sS'R'
p4965
I7
sS'TB'
p4966
I11
sS'PL'
p4967
I16
sS'TA'
p4968
I5
ssg128
g4937
sg129
I0
sg51
g30
sg130
I0
sg131
I0
sg132
I0
sg133
I28
sg134
I15
sg135
I0
sg136
S'CHS'
p4969
sbssg118
I3
sg26
I0
sg120
I0
sg122
I0
sg125
(dp4970
g4882
I0
sg4883
I14
sg4884
I0
sg4885
I5
ssg124
I1
sg673
I2
sg121
I0
sg127
I0
sg418
(dp4971
S'A'
p4972
I12
sS'ME'
p4973
I6
sS'RP2'
p4974
I7
sS'E'
p4975
I10
sS'TO'
p4976
I10
sS'RP1'
p4977
I11
sS'JP'
p4978
I8
sS'RP_tot'
p4979
I11
sS'P'
p4980
I9
sS'PA'
p4981
I10
sS'M'
p4982
I9
sS'R'
p4983
I7
sS'TB'
p4984
I11
sS'PL'
p4985
I16
sS'TA'
p4986
I5
ssg128
g4890
sg129
I0
sg51
S'ALT 12'
p4987
sg130
I2
sg131
I0
sg132
I2
sg133
I17
sg134
I16
sg135
I0
sg136
S'CHS'
p4988
sbsS's11'
p4989
(ijoueur
joueur
p4990
(dp4991
g25
I0
sg27
I2
sg31
I0
sg33
g0
(g34
g2
Ntp4992
Rp4993
(dp4994
g38
I4
sg39
S'x'
p4995
sg41
S'heros'
p4996
sbsg43
(dp4997
S'SR'
p4998
I0
sS'ST'
p4999
I0
sS'CR'
p5000
I0
sS'CT'
p5001
I0
ssg49
(dp5002
g4998
I0
sg4999
I0
sg5000
I0
sg5001
I0
ssg125
(dp5003
g4998
I0
sg4999
I0
sg5000
I0
sg5001
I0
ssg300
I0
sg52
I0
sg549
I18
sg550
I22
sg54
I0
sg55
I0
sg56
I2
sg76
(S'dummy'
p5004
S'C1'
p5005
S'AR'
p5006
S'AI'
p5007
tp5008
sg59
I01
sg60
g0
(g34
g2
Ntp5009
Rp5010
(dp5011
g38
I5
sg39
S'**'
p5012
sg41
S'seigneur'
p5013
sbsg61
(dp5014
g4998
I0
sg4999
I5
sg5000
I0
sg5001
I15
ssg63
I00
sg64
(dp5015
g4998
I0
sg4999
I0
sg5000
I0
sg5001
I0
ssg66
(dp5016
g4998
I0
sg4999
I5
sg5000
I0
sg5001
I15
ssg68
I33
sg69
I11
sg70
S'Cathaen'
p5017
sg72
I5
sg73
I20
sg74
I14
sg75
I250
sg57
S'ALT'
p5018
sg82
(dp5019
S'A'
p5020
I12
sS'ME'
p5021
I6
sS'RP2'
p5022
I7
sS'E'
p5023
I10
sS'TO'
p5024
I10
sS'RP1'
p5025
I11
sS'JP'
p5026
I8
sS'RP_tot'
p5027
I11
sS'P'
p5028
I9
sS'PA'
p5029
I10
sS'M'
p5030
I9
sS'R'
p5031
I7
sS'TB'
p5032
I11
sS'PL'
p5033
I16
sS'TA'
p5034
I5
ssg118
I0
sg26
I0
sg120
I0
sg122
I0
sg123
F10.90625
sg124
I0
sg673
I2
sg121
I0
sg127
I0
sg418
(dp5035
S'A'
p5036
I12
sS'ME'
p5037
I6
sS'RP2'
p5038
I7
sS'E'
p5039
I10
sS'TO'
p5040
I10
sS'RP1'
p5041
I11
sS'JP'
p5042
I8
sS'RP_tot'
p5043
I11
sS'P'
p5044
I9
sS'PA'
p5045
I10
sS'M'
p5046
I9
sS'R'
p5047
I7
sS'TB'
p5048
I11
sS'PL'
p5049
I16
sS'TA'
p5050
I5
ssg128
g5019
sg129
I0
sg51
g30
sg130
I0
sg131
I0
sg132
I0
sg133
I28
sg134
I15
sg135
I0
sg136
S'CHS'
p5051
sbssg118
I6
sg26
I0
sg120
I0
sg122
I0
sg123
F11.266666666666667
sg124
I2
sg53
F158.42986310925778
sg673
I2
sg121
I0
sg127
I1
sg418
(dp5052
S'A'
p5053
I12
sS'ME'
p5054
I6
sS'RP2'
p5055
I7
sS'E'
p5056
I10
sS'TO'
p5057
I10
sS'RP1'
p5058
I11
sS'JP'
p5059
I8
sS'RP_tot'
p5060
I11
sS'P'
p5061
I9
sS'PA'
p5062
I10
sS'M'
p5063
I9
sS'R'
p5064
I7
sS'TB'
p5065
I11
sS'PL'
p5066
I16
sS'TA'
p5067
I5
ssg128
g4840
sg129
I0
sg531
(dp5068
sg130
I2
sg51
S'ALT 12'
p5069
sg131
I0
sg132
I0
sg133
I17
sg134
I17
sg135
I1
sg136
S'CHS'
p5070
sba(ijoueur
joueur
p5071
(dp5072
g286
F11.068965517241379
sg25
I0
sg287
F11.472222222222221
sg119
g30
sg27
I0
sg28
F158.02496028792493
sg31
I0
sg33
g0
(g34
g2
Ntp5073
Rp5074
(dp5075
g38
I5
sg39
S'**'
p5076
sg41
S'seigneur'
p5077
sbsg43
(dp5078
S'SR'
p5079
I1
sS'CT'
p5080
I1
sS'CR'
p5081
I0
sS'ST'
p5082
I7
ssg49
(dp5083
g5079
I0
sg5080
I0
sg5081
I0
sg5082
I0
ssg299
I0
sg125
(dp5084
S'SR'
p5085
I0
sS'CT'
p5086
I0
sS'CR'
p5087
I0
sS'ST'
p5088
I2
ssg300
I0
sg52
I0
sg549
I0
sg550
I0
sg54
I1
sg55
I0
sg56
I0
sg76
(S'dummy'
p5089
S'N8'
p5090
S'TL'
p5091
g30
tp5092
sg59
I00
sg60
g0
(g34
g2
Ntp5093
Rp5094
(dp5095
g38
I5
sg39
S'**'
p5096
sg41
g5077
sbsg61
(dp5097
g5085
I0
sg5086
I13
sg5087
I0
sg5088
I0
ssg63
I00
sg64
(dp5098
g5085
I0
sg5086
I0
sg5087
I0
sg5088
I0
ssg66
(dp5099
g5079
I3
sg5080
I27
sg5081
I0
sg5082
I0
ssg68
I0
sg69
I0
sg70
S'Thoryol'
p5100
sg72
I6
sg73
I0
sg74
I17
sg75
I714
sg57
S'TA'
p5101
sg82
(dp5102
S'A'
p5103
I12
sS'ME'
p5104
I8
sS'RP2'
p5105
I8
sS'E'
p5106
I10
sS'P'
p5107
I5
sS'RP1'
p5108
I12
sS'JP'
p5109
I5
sS'RP_tot'
p5110
I13
sS'TO'
p5111
I12
sS'PA'
p5112
I12
sS'M'
p5113
I6
sS'R'
p5114
I13
sS'TB'
p5115
I4
sS'PL'
p5116
I14
sS'TA'
p5117
I8
ssg99
(dp5118
S's12'
p5119
(ijoueur
joueur
p5120
(dp5121
g286
F11.068965517241379
sg25
I0
sg119
g30
sg27
I0
sg31
I0
sg33
g0
(g34
g2
Ntp5122
Rp5123
(dp5124
g38
I5
sg39
S'**'
p5125
sg41
S'seigneur'
p5126
sbsg43
(dp5127
S'SR'
p5128
I1
sS'CT'
p5129
I1
sS'CR'
p5130
I0
sS'ST'
p5131
I5
ssg49
(dp5132
g5128
I0
sg5129
I0
sg5130
I0
sg5131
I0
ssg300
I0
sg123
F11.472222222222221
sg52
I0
sg549
I0
sg550
I0
sg54
I1
sg55
I0
sg56
I0
sg76
(S'dummy'
p5133
S'N8'
p5134
S'TL'
p5135
g30
tp5136
sg59
I00
sg60
g0
(g34
g2
Ntp5137
Rp5138
(dp5139
g38
I5
sg39
S'**'
p5140
sg41
g5126
sbsg61
(dp5141
S'SR'
p5142
I0
sS'CT'
p5143
I0
sS'CR'
p5144
I0
sS'ST'
p5145
I0
ssg63
I00
sg64
(dp5146
g5142
I0
sg5143
I0
sg5144
I0
sg5145
I0
ssg66
(dp5147
g5128
I3
sg5129
I14
sg5130
I0
sg5131
I0
ssg68
I0
sg69
I0
sg70
S'Thoryol'
p5148
sg72
I6
sg73
I0
sg74
I17
sg75
I714
sg57
S'vide'
p5149
sg82
(dp5150
S'A'
p5151
I11
sS'ME'
p5152
I8
sS'RP2'
p5153
I8
sS'E'
p5154
I10
sS'P'
p5155
I5
sS'RP1'
p5156
I12
sS'JP'
p5157
I5
sS'RP_tot'
p5158
I13
sS'TO'
p5159
I12
sS'PA'
p5160
I12
sS'M'
p5161
I6
sS'R'
p5162
I12
sS'TB'
p5163
I4
sS'PL'
p5164
I13
sS'TA'
p5165
I8
ssg99
(dp5166
S's11'
p5167
(ijoueur
joueur
p5168
(dp5169
g25
I0
sg27
I0
sg31
I0
sg33
g0
(g34
g2
Ntp5170
Rp5171
(dp5172
g38
I5
sg39
S'**'
p5173
sg41
S'seigneur'
p5174
sbsg43
(dp5175
S'SR'
p5176
I1
sS'ST'
p5177
I1
sS'CR'
p5178
I0
sS'CT'
p5179
I1
ssg49
(dp5180
g5176
I0
sg5177
I0
sg5178
I0
sg5179
I0
ssg125
(dp5181
g5176
I1
sg5177
I1
sg5178
I0
sg5179
I1
ssg300
I0
sg52
I0
sg549
I0
sg550
I0
sg54
I2
sg55
I0
sg56
I0
sg76
(S'dummy'
p5182
S'N8'
p5183
S'TL'
p5184
g30
tp5185
sg59
I01
sg60
g0
(g34
g2
Ntp5186
Rp5187
(dp5188
g38
I5
sg39
S'**'
p5189
sg41
g5174
sbsg61
(dp5190
g5176
I3
sg5177
I0
sg5178
I0
sg5179
I14
ssg63
I00
sg64
(dp5191
g5176
I0
sg5177
I0
sg5178
I0
sg5179
I0
ssg66
(dp5192
g5176
I3
sg5177
I0
sg5178
I0
sg5179
I14
ssg68
I0
sg69
I0
sg70
S'Thoryol'
p5193
sg72
I6
sg73
I0
sg74
I17
sg75
I714
sg57
S'TA'
p5194
sg82
(dp5195
S'A'
p5196
I10
sS'ME'
p5197
I8
sS'RP2'
p5198
I7
sS'E'
p5199
I10
sS'TO'
p5200
I11
sS'RP1'
p5201
I12
sS'JP'
p5202
I5
sS'RP_tot'
p5203
I12
sS'P'
p5204
I5
sS'PA'
p5205
I12
sS'M'
p5206
I6
sS'R'
p5207
I12
sS'TB'
p5208
I4
sS'PL'
p5209
I13
sS'TA'
p5210
I8
ssg118
I0
sg26
I0
sg120
I0
sg122
I0
sg123
F11.068965517241379
sg124
I0
sg673
I0
sg121
I0
sg127
I0
sg418
(dp5211
S'A'
p5212
I10
sS'ME'
p5213
I8
sS'RP2'
p5214
I7
sS'E'
p5215
I10
sS'TO'
p5216
I11
sS'RP1'
p5217
I12
sS'JP'
p5218
I5
sS'RP_tot'
p5219
I12
sS'P'
p5220
I5
sS'PA'
p5221
I12
sS'M'
p5222
I6
sS'R'
p5223
I12
sS'TB'
p5224
I4
sS'PL'
p5225
I13
sS'TA'
p5226
I8
ssg128
g5195
sg129
I0
sg51
S'ALT 8'
p5227
sg130
I0
sg131
I0
sg132
I0
sg133
I120
sg134
I13
sg135
I0
sg136
S'CHS'
p5228
sbssg118
I0
sg26
I0
sg120
I0
sg122
I0
sg125
(dp5229
g5142
I0
sg5143
I0
sg5144
I0
sg5145
I4
ssg124
I0
sg673
I0
sg121
I0
sg127
I0
sg418
(dp5230
g5151
I10
sg5152
I8
sg5153
I7
sg5154
I10
sg5159
I11
sg5156
I12
sg5157
I5
sg5158
I12
sg5155
I5
sg5160
I12
sg5161
I6
sg5162
I12
sg5163
I4
sg5164
I13
sg5165
I8
ssg128
g5150
sg129
I0
sg51
S'ALT 8;TA 12'
p5231
sg130
I0
sg131
I0
sg132
I0
sg133
I120
sg134
I14
sg135
I0
sg136
S'CHS'
p5232
sbsS's11'
p5233
(ijoueur
joueur
p5234
(dp5235
g25
I0
sg27
I0
sg31
I0
sg33
g0
(g34
g2
Ntp5236
Rp5237
(dp5238
g38
I5
sg39
S'**'
p5239
sg41
S'seigneur'
p5240
sbsg43
(dp5241
S'SR'
p5242
I1
sS'ST'
p5243
I1
sS'CR'
p5244
I0
sS'CT'
p5245
I1
ssg49
(dp5246
g5242
I0
sg5243
I0
sg5244
I0
sg5245
I0
ssg125
(dp5247
g5242
I1
sg5243
I1
sg5244
I0
sg5245
I1
ssg300
I0
sg52
I0
sg549
I0
sg550
I0
sg54
I2
sg55
I0
sg56
I0
sg76
(S'dummy'
p5248
S'N8'
p5249
S'TL'
p5250
g30
tp5251
sg59
I01
sg60
g0
(g34
g2
Ntp5252
Rp5253
(dp5254
g38
I5
sg39
S'**'
p5255
sg41
g5240
sbsg61
(dp5256
g5242
I3
sg5243
I0
sg5244
I0
sg5245
I14
ssg63
I00
sg64
(dp5257
g5242
I0
sg5243
I0
sg5244
I0
sg5245
I0
ssg66
(dp5258
g5242
I3
sg5243
I0
sg5244
I0
sg5245
I14
ssg68
I0
sg69
I0
sg70
S'Thoryol'
p5259
sg72
I6
sg73
I0
sg74
I17
sg75
I714
sg57
S'TA'
p5260
sg82
(dp5261
S'A'
p5262
I10
sS'ME'
p5263
I8
sS'RP2'
p5264
I7
sS'E'
p5265
I10
sS'TO'
p5266
I11
sS'RP1'
p5267
I12
sS'JP'
p5268
I5
sS'RP_tot'
p5269
I12
sS'P'
p5270
I5
sS'PA'
p5271
I12
sS'M'
p5272
I6
sS'R'
p5273
I12
sS'TB'
p5274
I4
sS'PL'
p5275
I13
sS'TA'
p5276
I8
ssg118
I0
sg26
I0
sg120
I0
sg122
I0
sg123
F11.068965517241379
sg124
I0
sg673
I0
sg121
I0
sg127
I0
sg418
(dp5277
S'A'
p5278
I10
sS'ME'
p5279
I8
sS'RP2'
p5280
I7
sS'E'
p5281
I10
sS'TO'
p5282
I11
sS'RP1'
p5283
I12
sS'JP'
p5284
I5
sS'RP_tot'
p5285
I12
sS'P'
p5286
I5
sS'PA'
p5287
I12
sS'M'
p5288
I6
sS'R'
p5289
I12
sS'TB'
p5290
I4
sS'PL'
p5291
I13
sS'TA'
p5292
I8
ssg128
g5261
sg129
I0
sg51
S'ALT 8'
p5293
sg130
I0
sg131
I0
sg132
I0
sg133
I120
sg134
I13
sg135
I0
sg136
S'CHS'
p5294
sbssg118
cnumpy.core.multiarray
scalar
p5295
(cnumpy
dtype
p5296
(S'i4'
p5297
I0
I1
tp5298
Rp5299
(I3
S'<'
p5300
NNNI-1
I-1
I0
tp5301
bS'\t\x00\x00\x00'
p5302
tp5303
Rp5304
sg26
I0
sg120
I1
sg122
I0
sg123
F11.88888888888889
sg124
I0
sg53
F158.02496028792493
sg673
I0
sg121
I1
sg127
I1
sg418
(dp5305
g5103
I10
sg5104
I8
sg5105
I7
sg5106
I10
sg5111
I11
sg5108
I12
sg5109
I5
sg5110
I12
sg5107
I5
sg5112
I12
sg5113
I6
sg5114
I12
sg5115
I4
sg5116
I13
sg5117
I8
ssg128
g5102
sg129
I0
sg531
(dp5306
sg130
I0
sg51
S'ALT 8;TA 12;vide 13'
p5307
sg131
I0
sg132
I0
sg133
I120
sg134
I15
sg135
I1
sg136
S'CHS'
p5308
sba(ijoueur
joueur
p5309
(dp5310
g286
F10.068965517241379
sg25
I1
sg287
F10.413793103448276
sg119
g30
sg27
I0
sg28
F148.07109688518588
sg31
I0
sg33
g0
(g34
g2
Ntp5311
Rp5312
(dp5313
g38
I4
sg39
S'*'
p5314
sg41
S'heros'
p5315
sbsg43
(dp5316
S'SR'
p5317
I0
sS'CT'
p5318
I0
sS'CR'
p5319
I0
sS'ST'
p5320
I0
ssg49
(dp5321
g5317
I0
sg5318
I0
sg5319
I0
sg5320
I0
ssg299
I0
sg125
(dp5322
S'SR'
p5323
I0
sS'CT'
p5324
I0
sS'CR'
p5325
I0
sS'ST'
p5326
I0
ssg300
I0
sg52
I0
sg53
F148.07109688518588
sg54
I1
sg55
I0
sg56
I0
sg76
(S'dummy'
p5327
S'TA'
p5328
S'PI'
p5329
g30
tp5330
sg59
I00
sg60
g0
(g34
g2
Ntp5331
Rp5332
(dp5333
g38
I4
sg39
g5314
sg41
g5315
sbsg61
(dp5334
g5323
I0
sg5324
I13
sg5325
I1
sg5326
I0
ssg63
I00
sg64
(dp5335
g5323
I0
sg5324
I0
sg5325
I0
sg5326
I0
ssg66
(dp5336
g5317
I7
sg5318
I42
sg5319
I2
sg5320
I0
ssg68
I0
sg69
I0
sg70
S'Momnod'
p5337
sg72
I6
sg73
I0
sg74
I16
sg75
I801
sg57
S'TO'
p5338
sg82
(dp5339
S'A'
p5340
I10
sS'ME'
p5341
I6
sS'RP2'
p5342
I7
sS'E'
p5343
I10
sS'P'
p5344
I3
sS'RP1'
p5345
I11
sS'JP'
p5346
I3
sS'RP_tot'
p5347
I11
sS'TO'
p5348
I8
sS'PA'
p5349
I9
sS'M'
p5350
I7
sS'R'
p5351
I10
sS'TB'
p5352
I2
sS'PL'
p5353
I10
sS'TA'
p5354
I14
ssg99
(dp5355
S's12'
p5356
(ijoueur
joueur
p5357
(dp5358
g286
F10.068965517241379
sg25
I1
sg119
g30
sg27
I0
sg31
I0
sg33
g0
(g34
g2
Ntp5359
Rp5360
(dp5361
g38
I4
sg39
S'*'
p5362
sg41
S'heros'
p5363
sbsg43
(dp5364
S'SR'
p5365
I0
sS'CT'
p5366
I0
sS'CR'
p5367
I0
sS'ST'
p5368
I0
ssg49
(dp5369
g5365
I0
sg5366
I0
sg5367
I0
sg5368
I0
ssg300
I0
sg123
F10.413793103448276
sg52
I0
sg54
I0
sg55
I0
sg56
I0
sg76
(S'dummy'
p5370
S'TA'
p5371
S'PI'
p5372
g30
tp5373
sg59
I00
sg60
g0
(g34
g2
Ntp5374
Rp5375
(dp5376
g38
I4
sg39
g5362
sg41
g5363
sbsg61
(dp5377
S'SR'
p5378
I6
sS'CT'
p5379
I14
sS'CR'
p5380
I0
sS'ST'
p5381
I0
ssg63
I00
sg64
(dp5382
g5378
I0
sg5379
I0
sg5380
I0
sg5381
I0
ssg66
(dp5383
g5365
I7
sg5366
I29
sg5367
I1
sg5368
I0
ssg68
I0
sg69
I0
sg70
S'Momnod'
p5384
sg72
I6
sg73
I0
sg74
I16
sg75
I801
sg57
S'TO'
p5385
sg82
(dp5386
S'A'
p5387
I10
sS'ME'
p5388
I6
sS'RP2'
p5389
I7
sS'E'
p5390
I10
sS'P'
p5391
I3
sS'RP1'
p5392
I11
sS'JP'
p5393
I3
sS'RP_tot'
p5394
I11
sS'TO'
p5395
I8
sS'PA'
p5396
I9
sS'M'
p5397
I7
sS'R'
p5398
I10
sS'TB'
p5399
I2
sS'PL'
p5400
I12
sS'TA'
p5401
I14
ssg99
(dp5402
S's11'
p5403
(ijoueur
joueur
p5404
(dp5405
g25
I1
sg27
I0
sg31
I0
sg33
g0
(g34
g2
Ntp5406
Rp5407
(dp5408
g38
I4
sg39
S'*'
p5409
sg41
S'heros'
p5410
sbsg43
(dp5411
S'SR'
p5412
I0
sS'CT'
p5413
I0
sS'CR'
p5414
I0
sS'ST'
p5415
I0
ssg49
(dp5416
g5412
I0
sg5413
I0
sg5414
I0
sg5415
I0
ssg300
I0
sg52
I0
sg63
I00
sg54
I0
sg55
I0
sg56
I0
sg76
(S'dummy'
p5417
S'TA'
p5418
S'PI'
p5419
g30
tp5420
sg59
I00
sg60
g0
(g34
g2
Ntp5421
Rp5422
(dp5423
g38
I4
sg39
g5409
sg41
g5410
sbsg61
(dp5424
g5412
I1
sg5413
I15
sg5414
I1
sg5415
I0
ssg125
(dp5425
g5412
I0
sg5413
I0
sg5414
I0
sg5415
I0
ssg64
(dp5426
g5412
I0
sg5413
I0
sg5414
I0
sg5415
I0
ssg66
(dp5427
g5412
I1
sg5413
I15
sg5414
I1
sg5415
I0
ssg68
I0
sg69
I0
sg70
S'Momnod'
p5428
sg72
I6
sg73
I0
sg74
I16
sg75
I801
sg57
S'TO'
p5429
sg82
(dp5430
S'A'
p5431
I10
sS'ME'
p5432
I6
sS'RP2'
p5433
I7
sS'E'
p5434
I10
sS'P'
p5435
I3
sS'RP1'
p5436
I11
sS'JP'
p5437
I3
sS'RP_tot'
p5438
I11
sS'TO'
p5439
I8
sS'PA'
p5440
I9
sS'M'
p5441
I7
sS'R'
p5442
I9
sS'TB'
p5443
I2
sS'PL'
p5444
I12
sS'TA'
p5445
I13
ssg118
I0
sg26
I0
sg120
I0
sg122
I0
sg123
F10.068965517241379
sg124
I0
sg121
I0
sg127
I1
sg418
(dp5446
S'A'
p5447
I10
sS'ME'
p5448
I6
sS'RP2'
p5449
I7
sS'E'
p5450
I10
sS'P'
p5451
I3
sS'RP1'
p5452
I11
sS'JP'
p5453
I3
sS'RP_tot'
p5454
I11
sS'TO'
p5455
I8
sS'PA'
p5456
I9
sS'M'
p5457
I7
sS'R'
p5458
I9
sS'TB'
p5459
I2
sS'PL'
p5460
I12
sS'TA'
p5461
I13
ssg128
g5430
sg129
I1
sg51
S'TO 8;DKW 10'
p5462
sg130
I0
sg131
I0
sg132
I0
sg133
I51
sg134
I4
sg135
I1
sg136
S'CHS'
p5463
sbssg118
I1
sg26
I0
sg120
I0
sg122
I0
sg125
(dp5464
g5378
I0
sg5379
I0
sg5380
I0
sg5381
I0
ssg124
I0
sg121
I0
sg127
I1
sg418
(dp5465
S'A'
p5466
I10
sS'ME'
p5467
I6
sS'RP2'
p5468
I7
sS'E'
p5469
I10
sS'TO'
p5470
I8
sS'RP1'
p5471
I11
sS'JP'
p5472
I3
sS'RP_tot'
p5473
I11
sS'P'
p5474
I3
sS'PA'
p5475
I9
sS'M'
p5476
I7
sS'R'
p5477
I9
sS'TB'
p5478
I2
sS'PL'
p5479
I12
sS'TA'
p5480
I13
ssg128
g5386
sg129
I0
sg51
S'TO 8;DKW 10'
p5481
sg130
I0
sg131
I0
sg132
I0
sg133
I51
sg134
I4
sg135
I0
sg136
S'CHS'
p5482
sbsS's11'
p5483
(ijoueur
joueur
p5484
(dp5485
g25
I1
sg27
I0
sg31
I0
sg33
g0
(g34
g2
Ntp5486
Rp5487
(dp5488
g38
I4
sg39
S'*'
p5489
sg41
S'heros'
p5490
sbsg43
(dp5491
S'SR'
p5492
I0
sS'CT'
p5493
I0
sS'CR'
p5494
I0
sS'ST'
p5495
I0
ssg49
(dp5496
g5492
I0
sg5493
I0
sg5494
I0
sg5495
I0
ssg300
I0
sg52
I0
sg63
I00
sg54
I0
sg55
I0
sg56
I0
sg76
(S'dummy'
p5497
S'TA'
p5498
S'PI'
p5499
g30
tp5500
sg59
I00
sg60
g0
(g34
g2
Ntp5501
Rp5502
(dp5503
g38
I4
sg39
g5489
sg41
g5490
sbsg61
(dp5504
g5492
I1
sg5493
I15
sg5494
I1
sg5495
I0
ssg125
(dp5505
g5492
I0
sg5493
I0
sg5494
I0
sg5495
I0
ssg64
(dp5506
g5492
I0
sg5493
I0
sg5494
I0
sg5495
I0
ssg66
(dp5507
g5492
I1
sg5493
I15
sg5494
I1
sg5495
I0
ssg68
I0
sg69
I0
sg70
S'Momnod'
p5508
sg72
I6
sg73
I0
sg74
I16
sg75
I801
sg57
S'TO'
p5509
sg82
(dp5510
S'A'
p5511
I10
sS'ME'
p5512
I6
sS'RP2'
p5513
I7
sS'E'
p5514
I10
sS'P'
p5515
I3
sS'RP1'
p5516
I11
sS'JP'
p5517
I3
sS'RP_tot'
p5518
I11
sS'TO'
p5519
I8
sS'PA'
p5520
I9
sS'M'
p5521
I7
sS'R'
p5522
I9
sS'TB'
p5523
I2
sS'PL'
p5524
I12
sS'TA'
p5525
I13
ssg118
I0
sg26
I0
sg120
I0
sg122
I0
sg123
F10.068965517241379
sg124
I0
sg121
I0
sg127
I1
sg418
(dp5526
S'A'
p5527
I10
sS'ME'
p5528
I6
sS'RP2'
p5529
I7
sS'E'
p5530
I10
sS'P'
p5531
I3
sS'RP1'
p5532
I11
sS'JP'
p5533
I3
sS'RP_tot'
p5534
I11
sS'TO'
p5535
I8
sS'PA'
p5536
I9
sS'M'
p5537
I7
sS'R'
p5538
I9
sS'TB'
p5539
I2
sS'PL'
p5540
I12
sS'TA'
p5541
I13
ssg128
g5510
sg129
I1
sg51
S'TO 8;DKW 10'
p5542
sg130
I0
sg131
I0
sg132
I0
sg133
I51
sg134
I4
sg135
I1
sg136
S'CHS'
p5543
sbssg118
I0
sg26
I0
sg120
I0
sg122
I0
sg123
F10.137931034482758
sg124
I0
sg121
I0
sg127
I3
sg418
(dp5544
S'A'
p5545
I10
sS'ME'
p5546
I6
sS'RP2'
p5547
I7
sS'E'
p5548
I10
sS'TO'
p5549
I8
sS'RP1'
p5550
I11
sS'JP'
p5551
I3
sS'RP_tot'
p5552
I11
sS'P'
p5553
I3
sS'PA'
p5554
I9
sS'M'
p5555
I7
sS'R'
p5556
I9
sS'TB'
p5557
I2
sS'PL'
p5558
I12
sS'TA'
p5559
I13
ssg128
g5339
sg129
I0
sg531
(dp5560
sg130
I0
sg51
S'TO 8;DKW 10'
p5561
sg131
I0
sg132
I0
sg133
I51
sg134
I5
sg135
I2
sg136
S'CHS'
p5562
sba(ijoueur
joueur
p5563
(dp5564
g286
F9.517241379310345
sg25
I0
sg287
F9.516129032258064
sg119
S'CE -> AI : 13'
p5565
sg27
I0
sg28
F62.68203160575543
sg31
I0
sg33
g0
(g34
g2
Ntp5566
Rp5567
(dp5568
g38
I2
sg39
S'<<'
p5569
sg41
S'special'
p5570
sbsg43
(dp5571
S'SR'
p5572
I0
sS'CT'
p5573
I8
sS'CR'
p5574
I21
sS'ST'
p5575
I1
ssg49
(dp5576
g5572
I0
sg5573
I0
sg5574
I0
sg5575
I0
ssg299
I0
sg125
(dp5577
g5323
I0
sg5324
I2
sg5325
I1
sg5326
I0
ssg300
I0
sg52
I0
sg53
F62.68203160575543
sg54
I0
sg55
I0
sg56
I0
sg76
(S'dummy'
p5578
S'AI'
p5579
S'CE'
p5580
g30
tp5581
sg59
I00
sg60
g0
(g34
g2
Ntp5582
Rp5583
(dp5584
g38
I2
sg39
S'<<'
p5585
sg41
g5570
sbsg61
(dp5586
g5323
I0
sg5324
I0
sg5325
I3
sg5326
I0
ssg63
I00
sg64
(dp5587
g5323
I0
sg5324
I0
sg5325
I0
sg5326
I0
ssg66
(dp5588
g5572
I0
sg5573
I1
sg5574
I4
sg5575
I0
ssg68
I0
sg69
I0
sg70
S'Laror'
p5589
sg72
I8
sg73
I0
sg74
I19
sg75
I50
sg57
g5338
sg82
(dp5590
S'A'
p5591
I8
sS'ME'
p5592
I4
sS'RP2'
p5593
I8
sS'E'
p5594
I9
sS'P'
p5595
I10
sS'RP1'
p5596
I10
sS'JP'
p5597
I9
sS'RP_tot'
p5598
I11
sS'TO'
p5599
I4
sS'PA'
p5600
I13
sS'M'
p5601
I10
sS'R'
p5602
I5
sS'TB'
p5603
I6
sS'PL'
p5604
I10
sS'TA'
p5605
I6
ssg99
(dp5606
S's12'
p5607
(ijoueur
joueur
p5608
(dp5609
g286
F9.517241379310345
sg25
I0
sg119
g30
sg27
I0
sg31
I0
sg33
g0
(g34
g2
Ntp5610
Rp5611
(dp5612
g38
I2
sg39
S'<<'
p5613
sg41
S'special'
p5614
sbsg43
(dp5615
S'SR'
p5616
I0
sS'CT'
p5617
I1
sS'CR'
p5618
I1
sS'ST'
p5619
I0
ssg49
(dp5620
g5616
I0
sg5617
I0
sg5618
I0
sg5619
I0
ssg300
I0
sg123
F9.551724137931034
sg52
I0
sg54
I2
sg55
I0
sg56
I0
sg76
(S'dummy'
p5621
S'C2'
p5622
S'AI'
p5623
g30
tp5624
sg59
I01
sg60
g0
(g34
g2
Ntp5625
Rp5626
(dp5627
g38
I2
sg39
S'<<'
p5628
sg41
g5614
sbsg61
(dp5629
S'SR'
p5630
I0
sS'ST'
p5631
I1
sS'CR'
p5632
I10
sS'CT'
p5633
I4
ssg63
I01
sg64
(dp5634
g5630
I0
sg5631
I0
sg5632
I0
sg5633
I0
ssg66
(dp5635
g5616
I0
sg5617
I6
sg5618
I20
sg5619
I1
ssg68
I0
sg69
I0
sg70
S'Laror'
p5636
sg72
I8
sg73
I0
sg74
I19
sg75
I29
sg57
S'KHR'
p5637
sg82
(dp5638
S'A'
p5639
I8
sS'ME'
p5640
I4
sS'RP2'
p5641
I8
sS'E'
p5642
I9
sS'P'
p5643
I10
sS'RP1'
p5644
I10
sS'JP'
p5645
I9
sS'RP_tot'
p5646
I11
sS'TO'
p5647
I4
sS'PA'
p5648
I12
sS'M'
p5649
I9
sS'R'
p5650
I5
sS'TB'
p5651
I6
sS'PL'
p5652
I10
sS'TA'
p5653
I6
ssg99
(dp5654
S's11'
p5655
(ijoueur
joueur
p5656
(dp5657
g25
I0
sg27
I0
sg31
I0
sg33
g0
(g34
g2
Ntp5658
Rp5659
(dp5660
g38
I2
sg39
S'<<'
p5661
sg41
S'special'
p5662
sbsg43
(dp5663
S'SR'
p5664
I0
sS'CT'
p5665
I1
sS'CR'
p5666
I1
sS'ST'
p5667
I0
ssg49
(dp5668
g5664
I0
sg5665
I0
sg5666
I0
sg5667
I0
ssg300
I0
sg52
I0
sg63
I01
sg54
I0
sg55
I0
sg56
I0
sg76
(S'dummy'
p5669
S'C2'
p5670
S'AI'
p5671
g30
tp5672
sg59
I00
sg60
g0
(g34
g2
Ntp5673
Rp5674
(dp5675
g38
I2
sg39
S'<<'
p5676
sg41
g5662
sbsg61
(dp5677
g5664
I0
sg5665
I2
sg5666
I10
sg5667
I0
ssg125
(dp5678
g5664
I0
sg5665
I1
sg5666
I1
sg5667
I0
ssg64
(dp5679
g5664
I0
sg5665
I0
sg5666
I0
sg5667
I0
ssg66
(dp5680
g5664
I0
sg5665
I2
sg5666
I10
sg5667
I0
ssg68
I0
sg69
I0
sg70
S'Laror'
p5681
sg72
I8
sg73
I0
sg74
I19
sg75
I29
sg57
S'KHR'
p5682
sg82
(dp5683
S'A'
p5684
I9
sS'ME'
p5685
I4
sS'RP2'
p5686
I6
sS'E'
p5687
I9
sS'P'
p5688
I10
sS'RP1'
p5689
I9
sS'JP'
p5690
I9
sS'RP_tot'
p5691
I9
sS'TO'
p5692
I4
sS'PA'
p5693
I12
sS'M'
p5694
I9
sS'R'
p5695
I5
sS'TB'
p5696
I6
sS'PL'
p5697
I11
sS'TA'
p5698
I6
ssg118
I0
sg26
I0
sg120
I0
sg122
I0
sg123
F9.517241379310345
sg124
I0
sg121
I0
sg127
I0
sg418
(dp5699
S'A'
p5700
I9
sS'ME'
p5701
I4
sS'RP2'
p5702
I6
sS'E'
p5703
I9
sS'P'
p5704
I10
sS'RP1'
p5705
I9
sS'JP'
p5706
I9
sS'RP_tot'
p5707
I9
sS'TO'
p5708
I4
sS'PA'
p5709
I12
sS'M'
p5710
I9
sS'R'
p5711
I5
sS'TB'
p5712
I6
sS'PL'
p5713
I11
sS'TA'
p5714
I6
ssg128
g5683
sg129
I0
sg51
g30
sg130
I0
sg131
I0
sg132
I0
sg133
I2
sg134
I0
sg135
I0
sg136
S'CHS'
p5715
sbssg118
I0
sg26
I0
sg120
I0
sg122
I0
sg125
(dp5716
g5630
I0
sg5631
I0
sg5632
I0
sg5633
I0
ssg124
I0
sg121
I0
sg127
I0
sg418
(dp5717
S'A'
p5718
I9
sS'ME'
p5719
I4
sS'RP2'
p5720
I6
sS'E'
p5721
I9
sS'TO'
p5722
I4
sS'RP1'
p5723
I9
sS'JP'
p5724
I9
sS'RP_tot'
p5725
I9
sS'P'
p5726
I10
sS'PA'
p5727
I12
sS'M'
p5728
I9
sS'R'
p5729
I5
sS'TB'
p5730
I6
sS'PL'
p5731
I11
sS'TA'
p5732
I6
ssg128
g5638
sg129
I0
sg51
g30
sg130
I0
sg131
I0
sg132
I0
sg133
I2
sg134
I2
sg135
I0
sg136
S'CHS'
p5733
sbsS's11'
p5734
(ijoueur
joueur
p5735
(dp5736
g25
I0
sg27
I0
sg31
I0
sg33
g0
(g34
g2
Ntp5737
Rp5738
(dp5739
g38
I2
sg39
S'<<'
p5740
sg41
S'special'
p5741
sbsg43
(dp5742
S'SR'
p5743
I0
sS'CT'
p5744
I1
sS'CR'
p5745
I1
sS'ST'
p5746
I0
ssg49
(dp5747
g5743
I0
sg5744
I0
sg5745
I0
sg5746
I0
ssg300
I0
sg52
I0
sg63
I01
sg54
I0
sg55
I0
sg56
I0
sg76
(S'dummy'
p5748
S'C2'
p5749
S'AI'
p5750
g30
tp5751
sg59
I00
sg60
g0
(g34
g2
Ntp5752
Rp5753
(dp5754
g38
I2
sg39
S'<<'
p5755
sg41
g5741
sbsg61
(dp5756
g5743
I0
sg5744
I2
sg5745
I10
sg5746
I0
ssg125
(dp5757
g5743
I0
sg5744
I1
sg5745
I1
sg5746
I0
ssg64
(dp5758
g5743
I0
sg5744
I0
sg5745
I0
sg5746
I0
ssg66
(dp5759
g5743
I0
sg5744
I2
sg5745
I10
sg5746
I0
ssg68
I0
sg69
I0
sg70
S'Laror'
p5760
sg72
I8
sg73
I0
sg74
I19
sg75
I29
sg57
S'KHR'
p5761
sg82
(dp5762
S'A'
p5763
I9
sS'ME'
p5764
I4
sS'RP2'
p5765
I6
sS'E'
p5766
I9
sS'P'
p5767
I10
sS'RP1'
p5768
I9
sS'JP'
p5769
I9
sS'RP_tot'
p5770
I9
sS'TO'
p5771
I4
sS'PA'
p5772
I12
sS'M'
p5773
I9
sS'R'
p5774
I5
sS'TB'
p5775
I6
sS'PL'
p5776
I11
sS'TA'
p5777
I6
ssg118
I0
sg26
I0
sg120
I0
sg122
I0
sg123
F9.517241379310345
sg124
I0
sg121
I0
sg127
I0
sg418
(dp5778
S'A'
p5779
I9
sS'ME'
p5780
I4
sS'RP2'
p5781
I6
sS'E'
p5782
I9
sS'P'
p5783
I10
sS'RP1'
p5784
I9
sS'JP'
p5785
I9
sS'RP_tot'
p5786
I9
sS'TO'
p5787
I4
sS'PA'
p5788
I12
sS'M'
p5789
I9
sS'R'
p5790
I5
sS'TB'
p5791
I6
sS'PL'
p5792
I11
sS'TA'
p5793
I6
ssg128
g5762
sg129
I0
sg51
g30
sg130
I0
sg131
I0
sg132
I0
sg133
I2
sg134
I0
sg135
I0
sg136
S'CHS'
p5794
sbssg118
I0
sg26
I0
sg120
I0
sg122
I0
sg123
F9.774193548387096
sg124
I0
sg121
I0
sg127
I0
sg418
(dp5795
S'A'
p5796
I9
sS'ME'
p5797
I4
sS'RP2'
p5798
I6
sS'E'
p5799
I9
sS'TO'
p5800
I4
sS'RP1'
p5801
I9
sS'JP'
p5802
I9
sS'RP_tot'
p5803
I9
sS'P'
p5804
I10
sS'PA'
p5805
I12
sS'M'
p5806
I9
sS'R'
p5807
I5
sS'TB'
p5808
I6
sS'PL'
p5809
I11
sS'TA'
p5810
I6
ssg128
g5590
sg129
I0
sg531
(dp5811
sg130
I0
sg51
S'KHR 13'
p5812
sg131
I0
sg132
I0
sg133
I5
sg134
I2
sg135
I0
sg136
S'CHS'
p5813
sbasg70
S'CHS'
p5814
sS'masse_salariale'
p5815
I0
sS'difference_coupe'
p5816
I0
sS'bonus_offensif_championat'
p5817
I0
sS'fatigue_prise_en_compte'
p5818
I01
sS'nuls_coupe'
p5819
I0
sS'contre_championat'
p5820
I0
sS'gagnes_coupe'
p5821
I0
sS'budget'
p5822
I0
sS'compo_defaut'
p5823
(iclub
compo
p5824
(dp5825
S'caracs_old'
p5826
(dp5827
S'A'
p5828
F179.25
sS'ME'
p5829
F117.25
sS'E'
p5830
F197.0
sS'OplusAV'
p5831
F121.0
sS'OplusAR'
p5832
F129.25
sS'JP'
p5833
F97.25
sS'PA'
p5834
F117.75
sS'M'
p5835
F88.0
sS'OmoinsAR'
p5836
F120.75
sS'TO_off'
p5837
F146.0
sS'TO_def'
p5838
F137.5
sS'OmoinsAV'
p5839
F124.0
sS'R'
p5840
F218.75
ssS'totaux_old'
p5841
(dp5842
S'T2'
p5843
F197.25
sS'T3'
p5844
F98.5
sS'T1'
p5845
F239.0
ssS'roles'
p5846
(dp5847
S'SA_scd'
p5848
g4222
sS'drop3'
p5849
g23
sS'cap'
p5850
g2555
sS'B4'
p5851
g4807
sS'RJC'
p5852
g2555
sS'B1'
p5853
g4807
sS'B2'
p5854
g4807
sS'B3'
p5855
g4807
sS'SA_pcp2'
p5856
g1908
sS'SA_pcp1'
p5857
g1224
sS'RJL'
p5858
g2555
sS'SA_remp1'
p5859
g3667
sS'drop1'
p5860
g2809
sS'drop2'
p5861
g2555
sS'SA_remp2'
p5862
g792
ssg70
csip
_unpickle_type
p5863
(S'PyQt4.QtCore'
p5864
S'QString'
p5865
(VCHS_defaut
p5866
tp5867
tp5868
Rp5869
sS'totaux'
p5870
(dp5871
g5843
I0
sg5844
I0
sg5845
I0
ssg17
Nsg82
(dp5872
g5828
I0
sg5829
I0
sg5830
I0
sg5831
I0
sg5832
I0
sg5833
I0
sg5834
I0
sg5835
I0
sg5836
I0
sg5837
I0
sg5838
I0
sg5839
I0
sg5840
I0
ssg21
(dp5873
S'n12'
p5874
g2809
sS'n13'
p5875
g156
sS'n10'
p5876
g2555
sS'n11'
p5877
g1649
sS'n16'
p5878
g3968
sS'n17'
p5879
g284
sS'n14'
p5880
g2992
sS'n15'
p5881
g4807
sS'n18'
p5882
g3667
sS'n19'
p5883
g792
sS'n22'
p5884
g231
sS'n21'
p5885
g4638
sS'n20'
p5886
g23
sS'n8'
p5887
g4393
sS'n9'
p5888
g2424
sS'n1'
p5889
g2166
sS'n2'
p5890
g3502
sS'n3'
p5891
g535
sS'n4'
p5892
g1224
sS'n5'
p5893
g4222
sS'n6'
p5894
g5071
sS'n7'
p5895
g1908
ssS'remplacements'
p5896
(dp5897
g5878
S'n0'
p5898
sg5879
g5898
sg5882
g5898
sg5883
g5898
sg5884
g5898
sg5885
g5898
sg5886
g5898
ssbsS'points'
p5899
F63.699999999999996
sS'nuls_championat'
p5900
I0
sb.