(iclub
compo
p0
(dp1
S'caracs_old'
p2
(dp3
S'A'
p4
F126.5
sS'ME'
p5
F86.0
sS'E'
p6
F178.5
sS'OplusAV'
p7
F78.25
sS'TO_off'
p8
F67.0
sS'OplusAR'
p9
F99.0
sS'M'
p10
F91.5
sS'JP'
p11
F88.0
sS'OmoinsAR'
p12
F95.25
sS'PA'
p13
F88.0
sS'TO_def'
p14
F60.5
sS'OmoinsAV'
p15
F88.75
sS'R'
p16
F180.75
ssS'totaux_old'
p17
(dp18
S'T2'
p19
F151.25
sS'T3'
p20
F89.25
sS'T1'
p21
F165.25
ssS'roles'
p22
(dp23
S'SA_scd'
p24
(ijoueur
joueur
p25
(dp26
S'rouges_total'
p27
I1
sS'drop_ratees_total'
p28
I0
sS'drops_total'
p29
I0
sS'xp_total'
p30
F46.80591346561323
sS'poste3'
p31
S''
p32
sS'blessure'
p33
I0
sS'poste1'
p34
g32
sS'RG_max'
p35
ccopy_reg
_reconstructor
p36
(cjoueur
rang_new
p37
c__builtin__
object
p38
Ntp39
Rp40
(dp41
S'type_nb'
p42
I4
sS'rang'
p43
S'*'
p44
sS'type'
p45
S'heros'
p46
sbsS'MJ2_total'
p47
(dp48
S'SR'
p49
I0
sS'ST'
p50
I0
sS'CR'
p51
I0
sS'CT'
p52
I0
ssS'MJ3_total'
p53
(dp54
g49
I0
sg50
I0
sg51
I0
sg52
I0
ssS'D'
p55
I20
sS'anciens_clubs'
p56
g32
sS'drop_rates_saison'
p57
I0
sS'xp_saison'
p58
F46.80591346561323
sS'essais_saison'
p59
I0
sS'penalite_ratees_saison'
p60
I0
sS'transformations_saison'
p61
I0
sS'club'
p62
S'EKR'
p63
sS'veut_partir'
p64
I00
sS'RG'
p65
g40
sS'MJ1'
p66
(dp67
g49
I0
sg50
I0
sg51
I0
sg52
I5
ssS'MJ2'
p68
(dp69
g49
I0
sg50
I0
sg51
I0
sg52
I0
ssS'MJ3'
p70
(dp71
g49
I0
sg50
I0
sg51
I0
sg52
I0
ssS'MJ1_total'
p72
(dp73
g49
I0
sg50
I0
sg51
I0
sg52
I5
ssS'penalites_total'
p74
I0
sS'penalites_saison'
p75
I0
sS'nom'
p76
S'Penkos'
p77
sS'C'
p78
I11
sS'transformations_total'
p79
I0
sS'MS_probleme'
p80
I00
sS'VAL'
p81
I130
sS'postes'
p82
(S'dummy'
p83
S'DL'
p84
g32
g32
tp85
sS'poste2'
p86
g32
sS'caracs'
p87
(dp88
S'RP1'
p89
I9
sS'ME'
p90
I9
sS'RP2'
p91
I9
sS'E'
p92
I8
sS'P'
p93
I6
sS'JP'
p94
I4
sS'M'
p95
I8
sS'RP_tot'
p96
I11
sS'TO'
p97
I8
sS'PA'
p98
I7
sS'A'
p99
I9
sS'R'
p100
I8
sS'TB'
p101
I5
sS'PL'
p102
I9
sS'TA'
p103
I7
ssS'jj_passe'
p104
(dp105
S's12'
p106
(ijoueur
joueur
p107
(dp108
g27
I0
sg28
I0
sg29
I0
sg33
I0
sg35
g36
(g37
g38
Ntp109
Rp110
(dp111
g43
g32
sbsg47
(dp112
g49
I0
sg50
I0
sg51
I0
sg52
I0
ssg53
(dp113
g49
I0
sg50
I0
sg51
I0
sg52
I0
ssg55
I0
sg56
g32
sg57
I0
sg59
I0
sg60
I0
sg61
I0
sg82
(g83
g84
g32
g32
tp114
sg64
I00
sg65
g36
(g37
g38
Ntp115
Rp116
(dp117
g43
g32
sbsg66
(dp118
g49
I0
sg50
I0
sg51
I0
sg52
I0
ssg68
(dp119
g49
I0
sg50
I0
sg51
I0
sg52
I0
ssg70
(dp120
g49
I0
sg50
I0
sg51
I0
sg52
I0
ssg72
(dp121
g49
I0
sg50
I0
sg51
I0
sg52
I0
ssg74
I0
sg75
I0
sg76
g32
sg78
I0
sg79
I0
sg80
I00
sg81
I0
sg62
g63
sg87
(dp122
g99
I0
sg90
I0
sg91
I0
sg92
I0
sg97
I0
sg89
I0
sg94
I0
sg96
I0
sg93
I0
sg98
I0
sg95
I0
sg100
I0
sg101
I0
sg102
I0
sg103
I0
ssg104
(dp123
sS'fatigue'
p124
I0
sS'changements_postes'
p125
g32
sS'blessures_total'
p126
I0
sS'XP'
p127
I0
sS'EV'
p128
F0.0
sS'penalite_ratees_total'
p129
I0
sS'blessures_saison'
p130
I0
sS'jaunes_total'
p131
I0
sS'caracs_sans_fatigue'
p132
(dp133
g89
I9
sg90
I9
sg91
I9
sg92
I8
sg97
I8
sg95
I8
sg94
I4
sg96
I11
sg93
I6
sg98
I7
sg99
I10
sg100
I9
sg101
I5
sg102
I10
sg103
I7
ssS'rouges_saison'
p134
I0
sS'transformation_ratees_total'
p135
I0
sS'drops_saison'
p136
I0
sS'transformation_ratees_saison'
p137
I0
sS'MS'
p138
I0
sS'essais_total'
p139
I0
sS'jaunes_saison'
p140
I0
sS'ARM'
p141
g32
sbsS's11'
p142
(ijoueur
joueur
p143
(dp144
g27
I0
sg28
I0
sg29
I0
sg33
I0
sg35
g36
(g37
g38
Ntp145
Rp146
(dp147
g43
g32
sbsg47
(dp148
g49
I0
sg50
I0
sg51
I0
sg52
I0
ssg53
(dp149
g49
I0
sg50
I0
sg51
I0
sg52
I0
ssg55
I0
sg56
g32
sg57
I0
sg59
I0
sg60
I0
sg61
I0
sg82
g114
sg64
I00
sg65
g36
(g37
g38
Ntp150
Rp151
(dp152
g43
g32
sbsg66
(dp153
g49
I0
sg50
I0
sg51
I0
sg52
I0
ssg68
(dp154
g49
I0
sg50
I0
sg51
I0
sg52
I0
ssg70
(dp155
g49
I0
sg50
I0
sg51
I0
sg52
I0
ssg72
(dp156
g49
I0
sg50
I0
sg51
I0
sg52
I0
ssg74
I0
sg75
I0
sg76
g32
sg78
I0
sg79
I0
sg80
I00
sg81
I0
sg62
g63
sg87
(dp157
g99
I0
sg90
I0
sg91
I0
sg92
I0
sg97
I0
sg89
I0
sg94
I0
sg96
I0
sg93
I0
sg98
I0
sg95
I0
sg100
I0
sg101
I0
sg102
I0
sg103
I0
ssg104
(dp158
sg124
I0
sg125
g32
sg126
I0
sg127
I0
sg128
F0.0
sg129
I0
sg130
I0
sg131
I0
sg132
g133
sg134
I0
sg135
I0
sg136
I0
sg137
I0
sg138
I0
sg139
I0
sg140
I0
sg141
g32
sbssg124
I8
sg125
g32
sg126
I0
sg127
I0
sg128
F9.25925925925926
sg129
I0
sg130
I0
sg131
I0
sg132
g133
sg134
I1
sg135
I0
sg136
I0
sg137
I0
sg138
I13
sg139
I0
sg140
I0
sg141
S'O'
p159
sbsS'RJL'
p160
(ijoueur
joueur
p161
(dp162
g27
I0
sg28
I0
sg29
I1
sg30
F46.80591346561323
sg31
g32
sg33
I0
sg34
g32
sg35
g36
(g37
g38
Ntp163
Rp164
(dp165
g42
I4
sg43
S'x'
p166
sg45
g46
sbsg47
(dp167
g49
I0
sg50
I0
sg51
I0
sg52
I0
ssg53
(dp168
g49
I0
sg50
I0
sg51
I0
sg52
I0
ssg55
I15
sg56
g32
sg57
I0
sg58
F46.80591346561323
sg59
I0
sg60
I1
sg61
I1
sg62
g63
sg64
I00
sg65
g164
sg66
(dp169
g49
I0
sg50
I0
sg51
I0
sg52
I5
ssg68
(dp170
g49
I0
sg50
I0
sg51
I0
sg52
I0
ssg70
(dp171
g49
I0
sg50
I0
sg51
I0
sg52
I0
ssg72
(dp172
g49
I0
sg50
I0
sg51
I0
sg52
I5
ssg74
I12
sg75
I12
sg76
S"Yrsh'Dalalek"
p173
sg78
I3
sg79
I1
sg80
I00
sg81
I171
sg82
(g83
S'C1'
p174
g32
g32
tp175
sg86
g32
sg87
(dp176
g89
I9
sg90
I4
sg91
I12
sg92
I10
sg93
I11
sg94
I10
sg95
I10
sg96
I13
sg97
I8
sg98
I12
sg99
I12
sg100
I7
sg101
I10
sg102
I11
sg103
I5
ssg104
(dp177
S's12'
p178
(ijoueur
joueur
p179
(dp180
g27
I0
sg28
I0
sg29
I0
sg33
I0
sg35
g36
(g37
g38
Ntp181
Rp182
(dp183
g43
g32
sbsg47
(dp184
g49
I0
sg50
I0
sg51
I0
sg52
I0
ssg53
(dp185
g49
I0
sg50
I0
sg51
I0
sg52
I0
ssg55
I0
sg56
g32
sg57
I0
sg59
I0
sg60
I0
sg61
I0
sg82
(g83
S'CE'
p186
g32
g32
tp187
sg64
I00
sg65
g36
(g37
g38
Ntp188
Rp189
(dp190
g43
g32
sbsg66
(dp191
g49
I0
sg50
I0
sg51
I0
sg52
I0
ssg68
(dp192
g49
I0
sg50
I0
sg51
I0
sg52
I0
ssg70
(dp193
g49
I0
sg50
I0
sg51
I0
sg52
I0
ssg72
(dp194
g49
I0
sg50
I0
sg51
I0
sg52
I0
ssg74
I0
sg75
I0
sg76
g32
sg78
I0
sg79
I0
sg80
I00
sg81
I0
sg62
g63
sg87
(dp195
g99
I0
sg90
I0
sg91
I0
sg92
I0
sg97
I0
sg89
I0
sg94
I0
sg96
I0
sg93
I0
sg98
I0
sg95
I0
sg100
I0
sg101
I0
sg102
I0
sg103
I0
ssg104
(dp196
sg124
I0
sg125
g32
sg126
I0
sg127
I0
sg128
F0.0
sg129
I0
sg130
I0
sg131
I0
sg132
(dp197
g89
I9
sg90
I4
sg91
I12
sg92
I10
sg97
I8
sg95
I10
sg94
I10
sg96
I13
sg93
I11
sg98
I12
sg99
I12
sg100
I7
sg101
I10
sg102
I11
sg103
I5
ssg134
I0
sg135
I0
sg136
I0
sg137
I0
sg138
I0
sg139
I0
sg140
I0
sg141
g32
sbsS's11'
p198
(ijoueur
joueur
p199
(dp200
g27
I0
sg28
I0
sg29
I0
sg33
I0
sg35
g36
(g37
g38
Ntp201
Rp202
(dp203
g43
g32
sbsg47
(dp204
g49
I0
sg50
I0
sg51
I0
sg52
I0
ssg53
(dp205
g49
I0
sg50
I0
sg51
I0
sg52
I0
ssg55
I0
sg56
g32
sg57
I0
sg59
I0
sg60
I0
sg61
I0
sg82
g187
sg64
I00
sg65
g36
(g37
g38
Ntp206
Rp207
(dp208
g43
g32
sbsg66
(dp209
g49
I0
sg50
I0
sg51
I0
sg52
I0
ssg68
(dp210
g49
I0
sg50
I0
sg51
I0
sg52
I0
ssg70
(dp211
g49
I0
sg50
I0
sg51
I0
sg52
I0
ssg72
(dp212
g49
I0
sg50
I0
sg51
I0
sg52
I0
ssg74
I0
sg75
I0
sg76
g32
sg78
I0
sg79
I0
sg80
I00
sg81
I0
sg62
g63
sg87
(dp213
g99
I0
sg90
I0
sg91
I0
sg92
I0
sg97
I0
sg89
I0
sg94
I0
sg96
I0
sg93
I0
sg98
I0
sg95
I0
sg100
I0
sg101
I0
sg102
I0
sg103
I0
ssg104
(dp214
sg124
I0
sg125
g32
sg126
I0
sg127
I0
sg128
F0.0
sg129
I0
sg130
I0
sg131
I0
sg132
g197
sg134
I0
sg135
I0
sg136
I0
sg137
I0
sg138
I0
sg139
I0
sg140
I0
sg141
g32
sbssg124
I6
sg125
g32
sg126
I0
sg127
I0
sg128
F10.966666666666667
sg129
I1
sg130
I0
sg131
I0
sg132
g197
sg134
I0
sg135
I0
sg136
I1
sg137
I0
sg138
I17
sg139
I0
sg140
I0
sg141
S'ARA'
p215
sbsS'cap'
p216
(ijoueur
joueur
p217
(dp218
S'EV_saison_11'
p219
F7.714285714285714
sg27
I0
sS'EV_saison_12'
p220
F8.942857142857143
sg125
g32
sg29
I0
sg30
F36.84777553654923
sg31
g32
sg33
I0
sg34
g32
sg35
g36
(g37
g38
Ntp221
Rp222
(dp223
g42
I5
sg43
S'**'
p224
sg45
S'seigneur'
p225
sbsg47
(dp226
S'SR'
p227
I0
sS'ST'
p228
I0
sS'CR'
p229
I0
sS'CT'
p230
I0
ssg53
(dp231
g227
I0
sg228
I0
sg229
I0
sg230
I0
ssS'xp'
p232
I0
sg56
S'vide 13'
p233
sg128
F9.545454545454545
sg57
I0
sg58
F36.84777553654923
sg59
I0
sg60
I0
sg61
I0
sg62
g63
sg64
I00
sg65
g222
sg66
(dp234
S'SR'
p235
I0
sS'ST'
p236
I0
sS'CR'
p237
I0
sS'CT'
p238
I4
ssg80
I00
sg70
(dp239
g235
I0
sg236
I0
sg237
I0
sg238
I0
ssg72
(dp240
g227
I7
sg228
I0
sg229
I0
sg230
I4
ssg74
I3
sg75
I3
sg76
S'Ioquet'
p241
sg78
I11
sg79
I0
sg55
I18
sg81
I95
sg82
(S'dummy'
p242
S'DO'
p243
g32
g32
tp244
sg86
g32
sg87
(dp245
S'RP1'
p246
I8
sS'ME'
p247
I5
sS'RP2'
p248
I9
sS'E'
p249
I11
sS'P'
p250
I10
sS'JP'
p251
I7
sS'M'
p252
I7
sS'RP_tot'
p253
I10
sS'TO'
p254
I6
sS'PA'
p255
I10
sS'A'
p256
I11
sS'R'
p257
I8
sS'TB'
p258
I9
sS'PL'
p259
I11
sS'TA'
p260
I5
ssg104
(dp261
S's12'
p262
(ijoueur
joueur
p263
(dp264
g219
F7.714285714285714
sg27
I0
sg125
g32
sg29
I0
sg31
g32
sg33
I0
sg34
g32
sg35
g36
(g37
g38
Ntp265
Rp266
(dp267
g42
I5
sg43
S'**'
p268
sg45
S'seigneur'
p269
sbsg47
(dp270
S'SR'
p271
I0
sS'ST'
p272
I0
sS'CR'
p273
I0
sS'CT'
p274
I0
ssg53
(dp275
g271
I0
sg272
I0
sg273
I0
sg274
I0
ssg56
g32
sg57
I0
sg80
I00
sg59
I0
sg60
I0
sg61
I0
sg62
S'vide'
p276
sg64
I00
sg65
g36
(g37
g38
Ntp277
Rp278
(dp279
g42
I4
sg43
S'x'
p280
sg45
S'heros'
p281
sbsg66
(dp282
S'SR'
p283
I7
sS'ST'
p284
I0
sS'CR'
p285
I0
sS'CT'
p286
I0
ssg68
(dp287
g283
I0
sg284
I0
sg285
I0
sg286
I0
ssg70
(dp288
g283
I0
sg284
I0
sg285
I0
sg286
I0
ssg72
(dp289
g271
I7
sg272
I0
sg273
I0
sg274
I0
ssg74
I0
sg75
I0
sg76
S'Ioquet'
p290
sg78
I11
sg79
I0
sg55
I18
sg81
I80
sg82
(S'dummy'
p291
S'DO'
p292
g32
g32
tp293
sg86
g32
sg87
(dp294
S'RP1'
p295
I7
sS'ME'
p296
I5
sS'RP2'
p297
I8
sS'E'
p298
I9
sS'TO'
p299
I6
sS'M'
p300
I7
sS'JP'
p301
I7
sS'RP_tot'
p302
I8
sS'P'
p303
I9
sS'PA'
p304
I10
sS'A'
p305
I10
sS'R'
p306
I8
sS'TB'
p307
I10
sS'PL'
p308
I11
sS'TA'
p309
I5
ssg104
(dp310
S's11'
p311
(ijoueur
joueur
p312
(dp313
g27
I0
sg29
I0
sg31
g32
sg33
I0
sg34
g32
sg35
g36
(g37
g38
Ntp314
Rp315
(dp316
g42
I5
sg43
S'**'
p317
sg45
S'seigneur'
p318
sbsg47
(dp319
S'SR'
p320
I0
sS'CT'
p321
I0
sS'CR'
p322
I0
sS'ST'
p323
I0
ssg53
(dp324
g320
I0
sg321
I0
sg322
I0
sg323
I0
ssg56
g32
sg57
I0
sg80
I00
sg59
I0
sg60
I0
sg61
I0
sg62
S'vide'
p325
sg64
I01
sg65
g36
(g37
g38
Ntp326
Rp327
(dp328
g42
I3
sg43
S'^^^'
p329
sg45
S'rare'
p330
sbsg66
(dp331
g320
I0
sg321
I0
sg322
I0
sg323
I0
ssg68
(dp332
g320
I0
sg321
I0
sg322
I0
sg323
I0
ssg70
(dp333
g320
I0
sg321
I0
sg322
I0
sg323
I0
ssg72
(dp334
g320
I0
sg321
I0
sg322
I0
sg323
I0
ssg74
I0
sg75
I0
sg76
S'Ioquet'
p335
sg78
I11
sg79
I0
sg55
I18
sg81
I15
sg82
(S'dummy'
p336
S'DO'
p337
g32
g32
tp338
sg86
g32
sg87
(dp339
S'RP1'
p340
I6
sS'ME'
p341
I4
sS'RP2'
p342
I6
sS'E'
p343
I9
sS'P'
p344
I8
sS'JP'
p345
I6
sS'M'
p346
I7
sS'RP_tot'
p347
I6
sS'TO'
p348
I4
sS'PA'
p349
I8
sS'A'
p350
I8
sS'R'
p351
I7
sS'TB'
p352
I9
sS'PL'
p353
I9
sS'TA'
p354
I4
ssg124
I0
sg28
I0
sg126
I0
sg127
I0
sg128
F7.714285714285714
sg129
I0
sg130
I0
sg131
I0
sS'caracs_saison_11'
p355
(dp356
S'RP1'
p357
I6
sS'ME'
p358
I4
sS'RP2'
p359
I6
sS'E'
p360
I9
sS'P'
p361
I8
sS'JP'
p362
I6
sS'M'
p363
I7
sS'RP_tot'
p364
I6
sS'TO'
p365
I4
sS'PA'
p366
I8
sS'A'
p367
I8
sS'R'
p368
I7
sS'TB'
p369
I9
sS'PL'
p370
I9
sS'TA'
p371
I4
ssg132
g339
sg134
I0
sg135
I0
sg136
I0
sg137
I0
sg138
I1
sg139
I0
sg140
I0
sg141
S'EST'
p372
sbssg124
I4
sg28
I0
sg126
I0
sg127
I0
sg128
F8.942857142857143
sg129
I0
sg130
I0
sg131
I0
sg355
(dp373
g295
I6
sg296
I4
sg297
I6
sg298
I9
sg303
I8
sg301
I6
sg300
I7
sg302
I6
sg299
I4
sg304
I8
sg305
I8
sg306
I7
sg307
I9
sg308
I9
sg309
I4
ssg132
g294
sg134
I0
sg135
I0
sg136
I0
sg137
I0
sg138
I7
sg139
I0
sg140
I0
sg141
S'EST'
p374
sbsS's11'
p375
(ijoueur
joueur
p376
(dp377
g27
I0
sg29
I0
sg31
g32
sg33
I0
sg34
g32
sg35
g36
(g37
g38
Ntp378
Rp379
(dp380
g42
I5
sg43
S'**'
p381
sg45
S'seigneur'
p382
sbsg47
(dp383
S'SR'
p384
I0
sS'CT'
p385
I0
sS'CR'
p386
I0
sS'ST'
p387
I0
ssg53
(dp388
g384
I0
sg385
I0
sg386
I0
sg387
I0
ssg56
g32
sg57
I0
sg80
I00
sg59
I0
sg60
I0
sg61
I0
sg62
S'vide'
p389
sg64
I01
sg65
g36
(g37
g38
Ntp390
Rp391
(dp392
g42
I3
sg43
S'^^^'
p393
sg45
S'rare'
p394
sbsg66
(dp395
g384
I0
sg385
I0
sg386
I0
sg387
I0
ssg68
(dp396
g384
I0
sg385
I0
sg386
I0
sg387
I0
ssg70
(dp397
g384
I0
sg385
I0
sg386
I0
sg387
I0
ssg72
(dp398
g384
I0
sg385
I0
sg386
I0
sg387
I0
ssg74
I0
sg75
I0
sg76
S'Ioquet'
p399
sg78
I11
sg79
I0
sg55
I18
sg81
I15
sg82
(S'dummy'
p400
S'DO'
p401
g32
g32
tp402
sg86
g32
sg87
(dp403
S'RP1'
p404
I6
sS'ME'
p405
I4
sS'RP2'
p406
I6
sS'E'
p407
I9
sS'P'
p408
I8
sS'JP'
p409
I6
sS'M'
p410
I7
sS'RP_tot'
p411
I6
sS'TO'
p412
I4
sS'PA'
p413
I8
sS'A'
p414
I8
sS'R'
p415
I7
sS'TB'
p416
I9
sS'PL'
p417
I9
sS'TA'
p418
I4
ssg124
I0
sg28
I0
sg126
I0
sg127
I0
sg128
F7.714285714285714
sg129
I0
sg130
I0
sg131
I0
sg355
(dp419
S'RP1'
p420
I6
sS'ME'
p421
I4
sS'RP2'
p422
I6
sS'E'
p423
I9
sS'P'
p424
I8
sS'JP'
p425
I6
sS'M'
p426
I7
sS'RP_tot'
p427
I6
sS'TO'
p428
I4
sS'PA'
p429
I8
sS'A'
p430
I8
sS'R'
p431
I7
sS'TB'
p432
I9
sS'PL'
p433
I9
sS'TA'
p434
I4
ssg132
g403
sg134
I0
sg135
I0
sg136
I0
sg137
I0
sg138
I1
sg139
I0
sg140
I0
sg141
S'EST'
p435
sbssg124
I4
sg28
I0
sg126
I0
sg127
I0
sg68
(dp436
g235
I0
sg236
I0
sg237
I0
sg238
I0
ssg129
I0
sg130
I0
sg131
I0
sg355
(dp437
g246
I6
sg247
I4
sg248
I6
sg249
I9
sg250
I8
sg251
I6
sg252
I7
sg253
I6
sg254
I4
sg255
I8
sg256
I8
sg257
I7
sg258
I9
sg259
I9
sg260
I4
ssg132
(dp438
g246
I8
sg247
I5
sg248
I9
sg249
I11
sg254
I6
sg252
I7
sg251
I7
sg253
I10
sg250
I10
sg255
I10
sg256
I11
sg257
I8
sg258
I9
sg259
I11
sg260
I5
ssg134
I0
sS'caracs_saison_12'
p439
(dp440
sg135
I0
sg136
I0
sg137
I0
sg138
I8
sg139
I0
sg140
I0
sg141
S'EST'
p441
sbsS'B4'
p442
g161
sS'RJC'
p443
g161
sS'B1'
p444
g161
sS'B2'
p445
g161
sS'B3'
p446
g161
sS'SA_pcp2'
p447
(ijoueur
joueur
p448
(dp449
g27
I0
sg28
I0
sg29
I0
sg30
F46.38221325680469
sg31
g32
sg33
I0
sg34
g32
sg35
g36
(g37
g38
Ntp450
Rp451
(dp452
g42
I2
sg43
S'^^'
p453
sg45
S'special'
p454
sbsg47
(dp455
g49
I0
sg50
I0
sg51
I0
sg52
I0
ssg53
(dp456
g49
I0
sg50
I0
sg51
I0
sg52
I0
ssg55
I20
sg56
g32
sg57
I0
sg58
F46.38221325680469
sg59
I0
sg60
I0
sg61
I0
sg62
g63
sg64
I00
sg65
g451
sg66
(dp457
g49
I0
sg50
I0
sg51
I1
sg52
I4
ssg68
(dp458
g49
I0
sg50
I0
sg51
I0
sg52
I0
ssg70
(dp459
g49
I0
sg50
I0
sg51
I0
sg52
I0
ssg72
(dp460
g49
I0
sg50
I0
sg51
I1
sg52
I4
ssg74
I0
sg75
I0
sg76
S'Wokadir'
p461
sg78
I7
sg79
I0
sg80
I00
sg81
I21
sg82
(g83
g84
S'TL'
p462
g32
tp463
sg86
g32
sg87
(dp464
g89
I7
sg90
I9
sg91
I5
sg92
I9
sg93
I6
sg94
I2
sg95
I7
sg96
I7
sg97
I9
sg98
I6
sg99
I6
sg100
I10
sg101
I3
sg102
I9
sg103
I5
ssg104
(dp465
S's12'
p466
(ijoueur
joueur
p467
(dp468
g27
I0
sg28
I0
sg29
I0
sg33
I0
sg35
g36
(g37
g38
Ntp469
Rp470
(dp471
g43
g32
sbsg47
(dp472
g49
I0
sg50
I0
sg51
I0
sg52
I0
ssg53
(dp473
g49
I0
sg50
I0
sg51
I0
sg52
I0
ssg55
I0
sg56
g32
sg57
I0
sg59
I0
sg60
I0
sg61
I0
sg82
(g83
g84
g32
g32
tp474
sg64
I00
sg65
g36
(g37
g38
Ntp475
Rp476
(dp477
g43
g32
sbsg66
(dp478
g49
I0
sg50
I0
sg51
I0
sg52
I0
ssg68
(dp479
g49
I0
sg50
I0
sg51
I0
sg52
I0
ssg70
(dp480
g49
I0
sg50
I0
sg51
I0
sg52
I0
ssg72
(dp481
g49
I0
sg50
I0
sg51
I0
sg52
I0
ssg74
I0
sg75
I0
sg76
g32
sg78
I0
sg79
I0
sg80
I00
sg81
I0
sg62
g63
sg87
(dp482
g99
I0
sg90
I0
sg91
I0
sg92
I0
sg97
I0
sg89
I0
sg94
I0
sg96
I0
sg93
I0
sg98
I0
sg95
I0
sg100
I0
sg101
I0
sg102
I0
sg103
I0
ssg104
(dp483
sg124
I0
sg125
g32
sg126
I0
sg127
I0
sg128
F0.0
sg129
I0
sg130
I0
sg131
I0
sg132
(dp484
g89
I7
sg90
I9
sg91
I5
sg92
I9
sg97
I9
sg95
I7
sg94
I2
sg96
I7
sg93
I6
sg98
I6
sg99
I6
sg100
I10
sg101
I3
sg102
I9
sg103
I5
ssg134
I0
sg135
I0
sg136
I0
sg137
I0
sg138
I0
sg139
I0
sg140
I0
sg141
g32
sbsS's11'
p485
(ijoueur
joueur
p486
(dp487
g27
I0
sg28
I0
sg29
I0
sg33
I0
sg35
g36
(g37
g38
Ntp488
Rp489
(dp490
g43
g32
sbsg47
(dp491
g49
I0
sg50
I0
sg51
I0
sg52
I0
ssg53
(dp492
g49
I0
sg50
I0
sg51
I0
sg52
I0
ssg55
I0
sg56
g32
sg57
I0
sg59
I0
sg60
I0
sg61
I0
sg82
g474
sg64
I00
sg65
g36
(g37
g38
Ntp493
Rp494
(dp495
g43
g32
sbsg66
(dp496
g49
I0
sg50
I0
sg51
I0
sg52
I0
ssg68
(dp497
g49
I0
sg50
I0
sg51
I0
sg52
I0
ssg70
(dp498
g49
I0
sg50
I0
sg51
I0
sg52
I0
ssg72
(dp499
g49
I0
sg50
I0
sg51
I0
sg52
I0
ssg74
I0
sg75
I0
sg76
g32
sg78
I0
sg79
I0
sg80
I00
sg81
I0
sg62
g63
sg87
(dp500
g99
I0
sg90
I0
sg91
I0
sg92
I0
sg97
I0
sg89
I0
sg94
I0
sg96
I0
sg93
I0
sg98
I0
sg95
I0
sg100
I0
sg101
I0
sg102
I0
sg103
I0
ssg104
(dp501
sg124
I0
sg125
g32
sg126
I0
sg127
I0
sg128
F0.0
sg129
I0
sg130
I0
sg131
I0
sg132
g484
sg134
I0
sg135
I0
sg136
I0
sg137
I0
sg138
I0
sg139
I0
sg140
I0
sg141
g32
sbssg124
I2
sg125
g32
sg126
I0
sg127
I0
sg128
F8.647058823529411
sg129
I0
sg130
I0
sg131
I1
sg132
g484
sg134
I0
sg135
I0
sg136
I0
sg137
I0
sg138
I2
sg139
I0
sg140
I1
sg141
g159
sbsS'SA_pcp1'
p502
(ijoueur
joueur
p503
(dp504
g27
I1
sg28
I0
sg29
I0
sg30
F46.38221325680469
sg31
g32
sg33
I0
sg34
g32
sg35
g36
(g37
g38
Ntp505
Rp506
(dp507
g42
I5
sg43
S'xx'
p508
sg45
S'seigneur'
p509
sbsg47
(dp510
g49
I0
sg50
I0
sg51
I0
sg52
I0
ssg53
(dp511
g49
I0
sg50
I0
sg51
I0
sg52
I0
ssg55
I21
sg56
g32
sg57
I0
sg58
F46.38221325680469
sg59
I1
sg60
I0
sg61
I0
sg62
g63
sg64
I00
sg65
g506
sg66
(dp512
g49
I0
sg50
I0
sg51
I0
sg52
I5
ssg68
(dp513
g49
I0
sg50
I0
sg51
I0
sg52
I0
ssg70
(dp514
g49
I0
sg50
I0
sg51
I0
sg52
I0
ssg72
(dp515
g49
I0
sg50
I0
sg51
I0
sg52
I5
ssg74
I0
sg75
I0
sg76
S'Houfreg'
p516
sg78
I8
sg79
I0
sg80
I00
sg81
I253
sg82
(g83
S'PI'
p517
g32
g32
tp518
sg86
g32
sg87
(dp519
g89
I11
sg90
I9
sg91
I7
sg92
I10
sg93
I6
sg94
I3
sg95
I7
sg96
I11
sg97
I10
sg98
I7
sg99
I8
sg100
I10
sg101
I3
sg102
I10
sg103
I8
ssg104
(dp520
S's12'
p521
(ijoueur
joueur
p522
(dp523
g27
I0
sg28
I0
sg29
I0
sg33
I0
sg35
g36
(g37
g38
Ntp524
Rp525
(dp526
g43
g32
sbsg47
(dp527
g49
I0
sg50
I0
sg51
I0
sg52
I0
ssg53
(dp528
g49
I0
sg50
I0
sg51
I0
sg52
I0
ssg55
I0
sg56
g32
sg57
I0
sg59
I0
sg60
I0
sg61
I0
sg82
(g83
g517
g32
g32
tp529
sg64
I00
sg65
g36
(g37
g38
Ntp530
Rp531
(dp532
g43
g32
sbsg66
(dp533
g49
I0
sg50
I0
sg51
I0
sg52
I0
ssg68
(dp534
g49
I0
sg50
I0
sg51
I0
sg52
I0
ssg70
(dp535
g49
I0
sg50
I0
sg51
I0
sg52
I0
ssg72
(dp536
g49
I0
sg50
I0
sg51
I0
sg52
I0
ssg74
I0
sg75
I0
sg76
g32
sg78
I0
sg79
I0
sg80
I00
sg81
I0
sg62
g63
sg87
(dp537
g99
I0
sg90
I0
sg91
I0
sg92
I0
sg97
I0
sg89
I0
sg94
I0
sg96
I0
sg93
I0
sg98
I0
sg95
I0
sg100
I0
sg101
I0
sg102
I0
sg103
I0
ssg104
(dp538
sg124
I0
sg125
g32
sg126
I0
sg127
I0
sg128
F0.0
sg129
I0
sg130
I0
sg131
I0
sg132
(dp539
g89
I11
sg90
I9
sg91
I7
sg92
I10
sg97
I10
sg95
I7
sg94
I3
sg96
I11
sg93
I6
sg98
I7
sg99
I8
sg100
I10
sg101
I3
sg102
I10
sg103
I8
ssg134
I0
sg135
I0
sg136
I0
sg137
I0
sg138
I0
sg139
I0
sg140
I0
sg141
g32
sbsS's11'
p540
(ijoueur
joueur
p541
(dp542
g27
I0
sg28
I0
sg29
I0
sg33
I0
sg35
g36
(g37
g38
Ntp543
Rp544
(dp545
g43
g32
sbsg47
(dp546
g49
I0
sg50
I0
sg51
I0
sg52
I0
ssg53
(dp547
g49
I0
sg50
I0
sg51
I0
sg52
I0
ssg55
I0
sg56
g32
sg57
I0
sg59
I0
sg60
I0
sg61
I0
sg82
g529
sg64
I00
sg65
g36
(g37
g38
Ntp548
Rp549
(dp550
g43
g32
sbsg66
(dp551
g49
I0
sg50
I0
sg51
I0
sg52
I0
ssg68
(dp552
g49
I0
sg50
I0
sg51
I0
sg52
I0
ssg70
(dp553
g49
I0
sg50
I0
sg51
I0
sg52
I0
ssg72
(dp554
g49
I0
sg50
I0
sg51
I0
sg52
I0
ssg74
I0
sg75
I0
sg76
g32
sg78
I0
sg79
I0
sg80
I00
sg81
I0
sg62
g63
sg87
(dp555
g99
I0
sg90
I0
sg91
I0
sg92
I0
sg97
I0
sg89
I0
sg94
I0
sg96
I0
sg93
I0
sg98
I0
sg95
I0
sg100
I0
sg101
I0
sg102
I0
sg103
I0
ssg104
(dp556
sg124
I0
sg125
g32
sg126
I0
sg127
I0
sg128
F0.0
sg129
I0
sg130
I0
sg131
I0
sg132
g539
sg134
I0
sg135
I0
sg136
I0
sg137
I0
sg138
I0
sg139
I0
sg140
I0
sg141
g32
sbssg124
I2
sg125
g32
sg126
I0
sg127
I0
sg128
F9.676470588235293
sg129
I0
sg130
I0
sg131
I0
sg132
g539
sg134
I1
sg135
I0
sg136
I0
sg137
I0
sg138
I25
sg139
I1
sg140
I0
sg141
g159
sbsS'drop3'
p557
(ijoueur
joueur
p558
(dp559
g27
I0
sg28
I0
sg29
I0
sg30
F46.80591346561323
sg31
g32
sg33
I0
sg34
g32
sg35
g36
(g37
g38
Ntp560
Rp561
(dp562
g42
I4
sg43
g44
sg45
g46
sbsg47
(dp563
g49
I0
sg50
I0
sg51
I0
sg52
I0
ssg53
(dp564
g49
I0
sg50
I0
sg51
I0
sg52
I0
ssg55
I19
sg56
g32
sg57
I0
sg58
F46.80591346561323
sg59
I0
sg60
I0
sg61
I0
sg62
g63
sg64
I00
sg65
g561
sg66
(dp565
g49
I0
sg50
I0
sg51
I0
sg52
I5
ssg68
(dp566
g49
I0
sg50
I0
sg51
I0
sg52
I0
ssg70
(dp567
g49
I0
sg50
I0
sg51
I0
sg52
I0
ssg72
(dp568
g49
I0
sg50
I0
sg51
I0
sg52
I5
ssg74
I0
sg75
I0
sg76
S'Waqaf'
p569
sg78
I9
sg79
I0
sg80
I00
sg81
I130
sg82
(g83
S'DM'
p570
S'DO'
p571
g32
tp572
sg86
g32
sg87
(dp573
g89
I8
sg90
I2
sg91
I7
sg92
I10
sg93
I9
sg94
I9
sg95
I8
sg96
I9
sg97
I6
sg98
I11
sg99
I8
sg100
I8
sg101
I7
sg102
I8
sg103
I2
ssg104
(dp574
S's12'
p575
(ijoueur
joueur
p576
(dp577
g27
I0
sg28
I0
sg29
I0
sg33
I0
sg35
g36
(g37
g38
Ntp578
Rp579
(dp580
g43
g32
sbsg47
(dp581
g49
I0
sg50
I0
sg51
I0
sg52
I0
ssg53
(dp582
g49
I0
sg50
I0
sg51
I0
sg52
I0
ssg55
I0
sg56
g32
sg57
I0
sg59
I0
sg60
I0
sg61
I0
sg82
(g83
g570
g32
g32
tp583
sg64
I00
sg65
g36
(g37
g38
Ntp584
Rp585
(dp586
g43
g32
sbsg66
(dp587
g49
I0
sg50
I0
sg51
I0
sg52
I0
ssg68
(dp588
g49
I0
sg50
I0
sg51
I0
sg52
I0
ssg70
(dp589
g49
I0
sg50
I0
sg51
I0
sg52
I0
ssg72
(dp590
g49
I0
sg50
I0
sg51
I0
sg52
I0
ssg74
I0
sg75
I0
sg76
g32
sg78
I0
sg79
I0
sg80
I00
sg81
I0
sg62
g63
sg87
(dp591
g99
I0
sg90
I0
sg91
I0
sg92
I0
sg97
I0
sg89
I0
sg94
I0
sg96
I0
sg93
I0
sg98
I0
sg95
I0
sg100
I0
sg101
I0
sg102
I0
sg103
I0
ssg104
(dp592
sg124
I0
sg125
g32
sg126
I0
sg127
I0
sg128
F0.0
sg129
I0
sg130
I0
sg131
I0
sg132
(dp593
g89
I8
sg90
I2
sg91
I7
sg92
I10
sg97
I6
sg95
I8
sg94
I9
sg96
I9
sg93
I9
sg98
I11
sg99
I8
sg100
I8
sg101
I7
sg102
I8
sg103
I2
ssg134
I0
sg135
I0
sg136
I0
sg137
I0
sg138
I0
sg139
I0
sg140
I0
sg141
g32
sbsS's11'
p594
(ijoueur
joueur
p595
(dp596
g27
I0
sg28
I0
sg29
I0
sg33
I0
sg35
g36
(g37
g38
Ntp597
Rp598
(dp599
g43
g32
sbsg47
(dp600
g49
I0
sg50
I0
sg51
I0
sg52
I0
ssg53
(dp601
g49
I0
sg50
I0
sg51
I0
sg52
I0
ssg55
I0
sg56
g32
sg57
I0
sg59
I0
sg60
I0
sg61
I0
sg82
g583
sg64
I00
sg65
g36
(g37
g38
Ntp602
Rp603
(dp604
g43
g32
sbsg66
(dp605
g49
I0
sg50
I0
sg51
I0
sg52
I0
ssg68
(dp606
g49
I0
sg50
I0
sg51
I0
sg52
I0
ssg70
(dp607
g49
I0
sg50
I0
sg51
I0
sg52
I0
ssg72
(dp608
g49
I0
sg50
I0
sg51
I0
sg52
I0
ssg74
I0
sg75
I0
sg76
g32
sg78
I0
sg79
I0
sg80
I00
sg81
I0
sg62
g63
sg87
(dp609
g99
I0
sg90
I0
sg91
I0
sg92
I0
sg97
I0
sg89
I0
sg94
I0
sg96
I0
sg93
I0
sg98
I0
sg95
I0
sg100
I0
sg101
I0
sg102
I0
sg103
I0
ssg104
(dp610
sg124
I0
sg125
g32
sg126
I0
sg127
I0
sg128
F0.0
sg129
I0
sg130
I0
sg131
I0
sg132
g593
sg134
I0
sg135
I0
sg136
I0
sg137
I0
sg138
I0
sg139
I0
sg140
I0
sg141
g32
sbssg124
I6
sg125
g32
sg126
I0
sg127
I0
sg128
F9.206896551724139
sg129
I0
sg130
I0
sg131
I0
sg132
g593
sg134
I0
sg135
I0
sg136
I0
sg137
I0
sg138
I13
sg139
I0
sg140
I0
sg141
g159
sbsS'SA_remp1'
p611
(ijoueur
joueur
p612
(dp613
g27
I0
sg28
I0
sg29
I0
sg30
F55.78205866019721
sg31
g32
sg33
I0
sg34
g32
sg35
g36
(g37
g38
Ntp614
Rp615
(dp616
g42
I1
sg43
S'<'
p617
sg45
S'base'
p618
sbsg47
(dp619
g49
I0
sg50
I0
sg51
I0
sg52
I0
ssg53
(dp620
g49
I0
sg50
I0
sg51
I0
sg52
I0
ssg55
I19
sg56
g32
sg57
I0
sg58
F55.78205866019721
sg59
I0
sg60
I0
sg61
I0
sg62
g63
sg64
I00
sg65
g615
sg66
(dp621
g49
I0
sg50
I0
sg51
I5
sg52
I1
ssg68
(dp622
g49
I0
sg50
I0
sg51
I0
sg52
I0
ssg70
(dp623
g49
I0
sg50
I0
sg51
I0
sg52
I0
ssg72
(dp624
g49
I0
sg50
I0
sg51
I5
sg52
I1
ssg74
I0
sg75
I0
sg76
S'Aloped'
p625
sg78
I8
sg79
I0
sg80
I00
sg81
I7
sg82
(g83
g84
g32
g32
tp626
sg86
g32
sg87
(dp627
g89
I8
sg90
I8
sg91
I6
sg92
I9
sg93
I6
sg94
I3
sg95
I9
sg96
I8
sg97
I9
sg98
I6
sg99
I7
sg100
I8
sg101
I2
sg102
I8
sg103
I5
ssg104
(dp628
S's12'
p629
(ijoueur
joueur
p630
(dp631
g27
I0
sg28
I0
sg29
I0
sg33
I0
sg35
g36
(g37
g38
Ntp632
Rp633
(dp634
g43
g32
sbsg47
(dp635
g49
I0
sg50
I0
sg51
I0
sg52
I0
ssg53
(dp636
g49
I0
sg50
I0
sg51
I0
sg52
I0
ssg55
I0
sg56
g32
sg57
I0
sg59
I0
sg60
I0
sg61
I0
sg82
(g83
g84
g32
g32
tp637
sg64
I00
sg65
g36
(g37
g38
Ntp638
Rp639
(dp640
g43
g32
sbsg66
(dp641
g49
I0
sg50
I0
sg51
I0
sg52
I0
ssg68
(dp642
g49
I0
sg50
I0
sg51
I0
sg52
I0
ssg70
(dp643
g49
I0
sg50
I0
sg51
I0
sg52
I0
ssg72
(dp644
g49
I0
sg50
I0
sg51
I0
sg52
I0
ssg74
I0
sg75
I0
sg76
g32
sg78
I0
sg79
I0
sg80
I00
sg81
I0
sg62
g63
sg87
(dp645
g99
I0
sg90
I0
sg91
I0
sg92
I0
sg97
I0
sg89
I0
sg94
I0
sg96
I0
sg93
I0
sg98
I0
sg95
I0
sg100
I0
sg101
I0
sg102
I0
sg103
I0
ssg104
(dp646
sg124
I0
sg125
g32
sg126
I0
sg127
I0
sg128
F0.0
sg129
I0
sg130
I0
sg131
I0
sg132
(dp647
g89
I8
sg90
I8
sg91
I6
sg92
I9
sg97
I9
sg95
I9
sg94
I3
sg96
I8
sg93
I6
sg98
I6
sg99
I7
sg100
I8
sg101
I2
sg102
I8
sg103
I5
ssg134
I0
sg135
I0
sg136
I0
sg137
I0
sg138
I0
sg139
I0
sg140
I0
sg141
g32
sbsS's11'
p648
(ijoueur
joueur
p649
(dp650
g27
I0
sg28
I0
sg29
I0
sg33
I0
sg35
g36
(g37
g38
Ntp651
Rp652
(dp653
g43
g32
sbsg47
(dp654
g49
I0
sg50
I0
sg51
I0
sg52
I0
ssg53
(dp655
g49
I0
sg50
I0
sg51
I0
sg52
I0
ssg55
I0
sg56
g32
sg57
I0
sg59
I0
sg60
I0
sg61
I0
sg82
g637
sg64
I00
sg65
g36
(g37
g38
Ntp656
Rp657
(dp658
g43
g32
sbsg66
(dp659
g49
I0
sg50
I0
sg51
I0
sg52
I0
ssg68
(dp660
g49
I0
sg50
I0
sg51
I0
sg52
I0
ssg70
(dp661
g49
I0
sg50
I0
sg51
I0
sg52
I0
ssg72
(dp662
g49
I0
sg50
I0
sg51
I0
sg52
I0
ssg74
I0
sg75
I0
sg76
g32
sg78
I0
sg79
I0
sg80
I00
sg81
I0
sg62
g63
sg87
(dp663
g99
I0
sg90
I0
sg91
I0
sg92
I0
sg97
I0
sg89
I0
sg94
I0
sg96
I0
sg93
I0
sg98
I0
sg95
I0
sg100
I0
sg101
I0
sg102
I0
sg103
I0
ssg104
(dp664
sg124
I0
sg125
g32
sg126
I0
sg127
I0
sg128
F0.0
sg129
I0
sg130
I0
sg131
I0
sg132
g647
sg134
I0
sg135
I0
sg136
I0
sg137
I0
sg138
I0
sg139
I0
sg140
I0
sg141
g32
sbssg124
I4
sg125
g32
sg126
I0
sg127
I0
sg128
F8.235294117647058
sg129
I0
sg130
I0
sg131
I0
sg132
g647
sg134
I0
sg135
I0
sg136
I0
sg137
I0
sg138
I0
sg139
I0
sg140
I0
sg141
g159
sbsS'drop1'
p665
g161
sS'drop2'
p666
g161
sS'SA_remp2'
p667
(ijoueur
joueur
p668
(dp669
g27
I0
sg28
I0
sg29
I0
sg30
F27.527688883781824
sg31
g32
sg33
I0
sg34
g32
sg35
g36
(g37
g38
Ntp670
Rp671
(dp672
g42
I1
sg43
S'^'
p673
sg45
S'base'
p674
sbsg47
(dp675
S'SR'
p676
I0
sS'CT'
p677
I0
sS'CR'
p678
I0
sS'ST'
p679
I0
ssg53
(dp680
g676
I0
sg677
I0
sg678
I0
sg679
I0
ssg55
I20
sg56
g32
sg57
I0
sg58
F27.527688883781824
sg59
I0
sg60
I0
sg61
I0
sg62
S'EKR'
p681
sg64
I00
sg65
g671
sg66
(dp682
g676
I0
sg677
I2
sg678
I1
sg679
I0
ssg68
(dp683
g676
I0
sg677
I0
sg678
I0
sg679
I0
ssg70
(dp684
g676
I0
sg677
I0
sg678
I0
sg679
I0
ssg72
(dp685
g676
I0
sg677
I2
sg678
I1
sg679
I0
ssg74
I0
sg75
I0
sg76
S'Fertoc'
p686
sg78
I13
sg79
I0
sg80
I00
sg81
I14
sg82
(S'dummy'
p687
S'N8'
p688
S'DL'
p689
g32
tp690
sg86
g32
sg87
(dp691
S'RP1'
p692
I7
sS'ME'
p693
I8
sS'RP2'
p694
I6
sS'E'
p695
I8
sS'TO'
p696
I8
sS'M'
p697
I7
sS'JP'
p698
I4
sS'RP_tot'
p699
I7
sS'P'
p700
I5
sS'PA'
p701
I6
sS'A'
p702
I8
sS'R'
p703
I8
sS'TB'
p704
I3
sS'PL'
p705
I9
sS'TA'
p706
I4
ssg104
(dp707
sg124
I5
sg125
g32
sg126
I0
sg127
I0
sg128
F7.916666666666667
sg129
I0
sg130
I0
sg131
I0
sg132
(dp708
g692
I7
sg693
I8
sg694
I6
sg695
I8
sg700
I5
sg698
I4
sg697
I7
sg699
I7
sg696
I8
sg701
I6
sg702
I8
sg703
I8
sg704
I3
sg705
I9
sg706
I4
ssg134
I0
sg135
I0
sg136
I0
sg137
I0
sg138
I1
sg139
I0
sg140
I0
sg141
S'O'
p709
sbssS'totaux'
p710
(dp711
g19
I0
sg20
I0
sg21
I0
ssS'_compo_defaut_fatigue'
p712
Nsg87
(dp713
g4
I0
sg5
I0
sg6
I0
sg7
I0
sg8
I0
sg9
I0
sg10
I0
sg11
I0
sg12
I0
sg13
I0
sg14
I0
sg15
I0
sg16
I0
ssS'joueurs'
p714
(dp715
S'n12'
p716
g161
sS'n13'
p717
(ijoueur
joueur
p718
(dp719
g27
I0
sg28
I0
sg29
I0
sg30
F46.80591346561323
sg31
g32
sg33
I0
sg34
g32
sg35
g36
(g37
g38
Ntp720
Rp721
(dp722
g42
I4
sg43
g44
sg45
g46
sbsg47
(dp723
g49
I0
sg50
I0
sg51
I0
sg52
I0
ssg53
(dp724
g49
I0
sg50
I0
sg51
I0
sg52
I0
ssg55
I23
sg56
g32
sg57
I0
sg58
F46.80591346561323
sg59
I0
sg60
I0
sg61
I0
sg62
g63
sg64
I00
sg65
g721
sg66
(dp725
g49
I0
sg50
I0
sg51
I0
sg52
I5
ssg68
(dp726
g49
I0
sg50
I0
sg51
I0
sg52
I0
ssg70
(dp727
g49
I0
sg50
I0
sg51
I0
sg52
I0
ssg72
(dp728
g49
I0
sg50
I0
sg51
I0
sg52
I5
ssg74
I0
sg75
I0
sg76
S'Hounen'
p729
sg78
I11
sg79
I0
sg80
I00
sg81
I84
sg82
(g83
S'C2'
p730
S'AR'
p731
g32
tp732
sg86
g32
sg87
(dp733
g89
I11
sg90
I6
sg91
I9
sg92
I10
sg93
I9
sg94
I8
sg95
I9
sg96
I12
sg97
I4
sg98
I9
sg99
I9
sg100
I10
sg101
I7
sg102
I11
sg103
I5
ssg104
(dp734
S's12'
p735
(ijoueur
joueur
p736
(dp737
g27
I0
sg28
I0
sg29
I0
sg33
I0
sg35
g36
(g37
g38
Ntp738
Rp739
(dp740
g43
g32
sbsg47
(dp741
g49
I0
sg50
I0
sg51
I0
sg52
I0
ssg53
(dp742
g49
I0
sg50
I0
sg51
I0
sg52
I0
ssg55
I0
sg56
g32
sg57
I0
sg59
I0
sg60
I0
sg61
I0
sg82
(g83
g186
g32
g32
tp743
sg64
I00
sg65
g36
(g37
g38
Ntp744
Rp745
(dp746
g43
g32
sbsg66
(dp747
g49
I0
sg50
I0
sg51
I0
sg52
I0
ssg68
(dp748
g49
I0
sg50
I0
sg51
I0
sg52
I0
ssg70
(dp749
g49
I0
sg50
I0
sg51
I0
sg52
I0
ssg72
(dp750
g49
I0
sg50
I0
sg51
I0
sg52
I0
ssg74
I0
sg75
I0
sg76
g32
sg78
I0
sg79
I0
sg80
I00
sg81
I0
sg62
g63
sg87
(dp751
g99
I0
sg90
I0
sg91
I0
sg92
I0
sg97
I0
sg89
I0
sg94
I0
sg96
I0
sg93
I0
sg98
I0
sg95
I0
sg100
I0
sg101
I0
sg102
I0
sg103
I0
ssg104
(dp752
sg124
I0
sg125
g32
sg126
I0
sg127
I0
sg128
F0.0
sg129
I0
sg130
I0
sg131
I0
sg132
(dp753
g89
I11
sg90
I6
sg91
I9
sg92
I10
sg97
I4
sg95
I9
sg94
I8
sg96
I12
sg93
I9
sg98
I9
sg99
I9
sg100
I10
sg101
I7
sg102
I11
sg103
I5
ssg134
I0
sg135
I0
sg136
I0
sg137
I0
sg138
I0
sg139
I0
sg140
I0
sg141
g32
sbsS's11'
p754
(ijoueur
joueur
p755
(dp756
g27
I0
sg28
I0
sg29
I0
sg33
I0
sg35
g36
(g37
g38
Ntp757
Rp758
(dp759
g43
g32
sbsg47
(dp760
g49
I0
sg50
I0
sg51
I0
sg52
I0
ssg53
(dp761
g49
I0
sg50
I0
sg51
I0
sg52
I0
ssg55
I0
sg56
g32
sg57
I0
sg59
I0
sg60
I0
sg61
I0
sg82
g743
sg64
I00
sg65
g36
(g37
g38
Ntp762
Rp763
(dp764
g43
g32
sbsg66
(dp765
g49
I0
sg50
I0
sg51
I0
sg52
I0
ssg68
(dp766
g49
I0
sg50
I0
sg51
I0
sg52
I0
ssg70
(dp767
g49
I0
sg50
I0
sg51
I0
sg52
I0
ssg72
(dp768
g49
I0
sg50
I0
sg51
I0
sg52
I0
ssg74
I0
sg75
I0
sg76
g32
sg78
I0
sg79
I0
sg80
I00
sg81
I0
sg62
g63
sg87
(dp769
g99
I0
sg90
I0
sg91
I0
sg92
I0
sg97
I0
sg89
I0
sg94
I0
sg96
I0
sg93
I0
sg98
I0
sg95
I0
sg100
I0
sg101
I0
sg102
I0
sg103
I0
ssg104
(dp770
sg124
I0
sg125
g32
sg126
I0
sg127
I0
sg128
F0.0
sg129
I0
sg130
I0
sg131
I0
sg132
g753
sg134
I0
sg135
I0
sg136
I0
sg137
I0
sg138
I0
sg139
I0
sg140
I0
sg141
g32
sbssg124
I5
sg125
g32
sg126
I0
sg127
I0
sg128
F10.03448275862069
sg129
I0
sg130
I0
sg131
I0
sg132
g753
sg134
I0
sg135
I0
sg136
I0
sg137
I0
sg138
I8
sg139
I0
sg140
I0
sg141
g159
sbsS'n10'
p771
g217
sS'n11'
p772
(ijoueur
joueur
p773
(dp774
g27
I0
sg28
I0
sg29
I0
sg30
F27.910428318231965
sg31
g32
sg33
I0
sg34
g32
sg35
g36
(g37
g38
Ntp775
Rp776
(dp777
g42
I4
sg43
S'x'
p778
sg45
S'heros'
p779
sbsg47
(dp780
g676
I0
sg677
I2
sg678
I0
sg679
I0
ssg53
(dp781
g676
I0
sg677
I0
sg678
I0
sg679
I0
ssg55
I20
sg56
g32
sg57
I0
sg58
F27.910428318231965
sg59
I0
sg60
I0
sg61
I0
sg62
g681
sg64
I00
sg65
g36
(g37
g38
Ntp782
Rp783
(dp784
g42
I1
sg43
S'<'
p785
sg45
g674
sbsg66
(dp786
g676
I0
sg677
I0
sg678
I1
sg679
I0
ssg68
(dp787
g676
I0
sg677
I2
sg678
I0
sg679
I0
ssg70
(dp788
g676
I0
sg677
I0
sg678
I0
sg679
I0
ssg72
(dp789
g676
I0
sg677
I0
sg678
I1
sg679
I0
ssg74
I0
sg75
I0
sg76
S'Ybn'
p790
sg78
I12
sg79
I0
sg80
I00
sg81
I8
sg82
(g687
S'C1'
p791
S'AI'
p792
g32
tp793
sg86
g32
sg87
(dp794
g692
I7
sg693
I4
sg694
I7
sg695
I9
sg696
I5
sg697
I10
sg698
I6
sg699
I8
sg700
I7
sg701
I7
sg702
I8
sg703
I8
sg704
I8
sg705
I8
sg706
I5
ssg104
(dp795
S's12'
p796
(ijoueur
joueur
p797
(dp798
g27
I0
sg28
I0
sg29
I0
sg33
I0
sg35
g36
(g37
g38
Ntp799
Rp800
(dp801
g43
g32
sbsg47
(dp802
g676
I0
sg677
I0
sg678
I0
sg679
I0
ssg53
(dp803
g676
I0
sg677
I0
sg678
I0
sg679
I0
ssg55
I0
sg56
g32
sg57
I0
sg59
I0
sg60
I0
sg61
I0
sg82
(g687
S'CE'
p804
g32
g32
tp805
sg64
I00
sg65
g36
(g37
g38
Ntp806
Rp807
(dp808
g43
g32
sbsg66
(dp809
g676
I0
sg677
I0
sg678
I0
sg679
I0
ssg68
(dp810
g676
I0
sg677
I0
sg678
I0
sg679
I0
ssg70
(dp811
g676
I0
sg677
I0
sg678
I0
sg679
I0
ssg72
(dp812
g676
I0
sg677
I0
sg678
I0
sg679
I0
ssg74
I0
sg75
I0
sg76
g32
sg78
I0
sg79
I0
sg80
I00
sg81
I0
sg62
g681
sg87
(dp813
g702
I0
sg693
I0
sg694
I0
sg695
I0
sg700
I0
sg692
I0
sg698
I0
sg699
I0
sg696
I0
sg701
I0
sg697
I0
sg703
I0
sg704
I0
sg705
I0
sg706
I0
ssg104
(dp814
sg124
I0
sg125
g32
sg126
I0
sg127
I0
sg128
F0.0
sg129
I0
sg130
I0
sg131
I0
sg132
(dp815
g692
I7
sg693
I4
sg694
I7
sg695
I9
sg700
I7
sg698
I6
sg697
I10
sg699
I8
sg696
I5
sg701
I7
sg702
I8
sg703
I8
sg704
I8
sg705
I8
sg706
I5
ssg134
I0
sg135
I0
sg136
I0
sg137
I0
sg138
I0
sg139
I0
sg140
I0
sg141
g32
sbssg124
I0
sg125
g32
sg126
I0
sg127
I0
sg128
F8.0
sg129
I0
sg130
I0
sg131
I0
sg132
g815
sg134
I0
sg135
I0
sg136
I0
sg137
I0
sg138
I0
sg139
I0
sg140
I0
sg141
g709
sbsS'n16'
p816
(ijoueur
joueur
p817
(dp818
g27
I0
sg28
I0
sg29
I0
sg30
F55.78205866019721
sg31
g32
sg33
I0
sg34
g32
sg35
g36
(g37
g38
Ntp819
Rp820
(dp821
g42
I1
sg43
g617
sg45
g618
sbsg47
(dp822
g49
I0
sg50
I0
sg51
I0
sg52
I0
ssg53
(dp823
g49
I0
sg50
I0
sg51
I0
sg52
I0
ssg55
I20
sg56
g32
sg57
I0
sg58
F55.78205866019721
sg59
I0
sg60
I0
sg61
I0
sg62
g63
sg64
I00
sg65
g820
sg66
(dp824
g49
I0
sg50
I0
sg51
I5
sg52
I1
ssg68
(dp825
g49
I0
sg50
I0
sg51
I0
sg52
I0
ssg70
(dp826
g49
I0
sg50
I0
sg51
I0
sg52
I0
ssg72
(dp827
g49
I0
sg50
I0
sg51
I5
sg52
I1
ssg74
I0
sg75
I0
sg76
S'Quonuv'
p828
sg78
I13
sg79
I0
sg80
I00
sg81
I5
sg82
(g83
g103
S'TL'
p829
g32
tp830
sg86
g32
sg87
(dp831
g89
I8
sg90
I7
sg91
I6
sg92
I9
sg93
I5
sg94
I4
sg95
I7
sg96
I8
sg97
I6
sg98
I7
sg99
I7
sg100
I9
sg101
I2
sg102
I9
sg103
I10
ssg104
(dp832
sg124
I6
sg125
g32
sg126
I0
sg127
I0
sg128
F8.517241379310345
sg129
I0
sg130
I0
sg131
I0
sg132
(dp833
g89
I8
sg90
I7
sg91
I6
sg92
I9
sg97
I6
sg95
I7
sg94
I4
sg96
I8
sg93
I5
sg98
I7
sg99
I7
sg100
I9
sg101
I2
sg102
I9
sg103
I10
ssg134
I0
sg135
I0
sg136
I0
sg137
I0
sg138
I0
sg139
I0
sg140
I0
sg141
g159
sbsS'n17'
p834
(ijoueur
joueur
p835
(dp836
g27
I0
sg28
I0
sg29
I0
sg30
F18.375990597976497
sg31
g32
sg33
I0
sg34
g32
sg35
g36
(g37
g38
Ntp837
Rp838
(dp839
g42
I1
sg43
S'<'
p840
sg45
S'base'
p841
sbsg47
(dp842
S'SR'
p843
I0
sS'CT'
p844
I0
sS'CR'
p845
I1
sS'ST'
p846
I0
ssg53
(dp847
g843
I0
sg844
I0
sg845
I0
sg846
I0
ssg56
g32
sg57
I0
sg58
F18.375990597976497
sg59
I0
sg60
I0
sg61
I0
sg62
S'EKR'
p848
sg64
I00
sg65
g838
sg66
(dp849
g843
I0
sg844
I0
sg845
I1
sg846
I0
ssg80
I00
sg70
(dp850
g843
I0
sg844
I0
sg845
I0
sg846
I0
ssg72
(dp851
g843
I0
sg844
I0
sg845
I1
sg846
I0
ssg74
I0
sg75
I0
sg76
S'Louper'
p852
sg78
I6
sg79
I0
sg55
I18
sg81
I8
sg82
(S'dummy'
p853
S'TA'
p854
S'PI'
p855
g32
tp856
sg86
g32
sg87
(dp857
S'RP1'
p858
I8
sS'ME'
p859
I8
sS'RP2'
p860
I7
sS'E'
p861
I8
sS'TO'
p862
I5
sS'M'
p863
I9
sS'JP'
p864
I2
sS'RP_tot'
p865
I9
sS'P'
p866
I6
sS'PA'
p867
I6
sS'A'
p868
I7
sS'R'
p869
I9
sS'TB'
p870
I3
sS'PL'
p871
I7
sg854
I9
ssg104
(dp872
S's12'
p873
(ijoueur
joueur
p874
(dp875
g27
I0
sg28
I0
sg29
I0
sg33
I0
sg35
g36
(g37
g38
Ntp876
Rp877
(dp878
g43
g32
sbsg47
(dp879
g843
I0
sg844
I0
sg845
I0
sg846
I0
ssg53
(dp880
g843
I0
sg844
I0
sg845
I0
sg846
I0
ssg56
g32
sg57
I0
sg59
I0
sg60
I0
sg61
I0
sg82
(g853
g854
g32
g32
tp881
sg64
I00
sg65
g36
(g37
g38
Ntp882
Rp883
(dp884
g43
g32
sbsg66
(dp885
g843
I0
sg844
I0
sg845
I0
sg846
I0
ssg80
I00
sg70
(dp886
g843
I0
sg844
I0
sg845
I0
sg846
I0
ssg72
(dp887
g843
I0
sg844
I0
sg845
I0
sg846
I0
ssg74
I0
sg75
I0
sg76
g32
sg78
I0
sg79
I0
sg55
I0
sg81
I0
sg62
g848
sg87
(dp888
g868
I0
sg859
I0
sg860
I0
sg861
I0
sg866
I0
sg858
I0
sg864
I0
sg865
I0
sg862
I0
sg867
I0
sg863
I0
sg869
I0
sg870
I0
sg871
I0
sg854
I0
ssg104
(dp889
sg124
I0
sg125
g32
sg126
I0
sg130
I0
sg127
I0
sg128
F0.0
sg129
I0
sg68
(dp890
g843
I0
sg844
I0
sg845
I0
sg846
I0
ssg131
I0
sg132
(dp891
g858
I8
sg859
I8
sg860
I7
sg861
I8
sg866
I6
sg864
I2
sg863
I9
sg865
I9
sg862
I5
sg867
I6
sg868
I7
sg869
I9
sg870
I3
sg871
I7
sg854
I9
ssg134
I0
sg135
I0
sg136
I0
sg137
I0
sg138
I0
sg139
I0
sg140
I0
sg141
g32
sbsS's11'
p892
(ijoueur
joueur
p893
(dp894
g27
I0
sg28
I0
sg29
I0
sg33
I0
sg35
g36
(g37
g38
Ntp895
Rp896
(dp897
g43
g32
sbsg47
(dp898
g843
I0
sg844
I0
sg845
I0
sg846
I0
ssg53
(dp899
g843
I0
sg844
I0
sg845
I0
sg846
I0
ssg56
g32
sg57
I0
sg59
I0
sg60
I0
sg61
I0
sg82
g881
sg64
I00
sg65
g36
(g37
g38
Ntp900
Rp901
(dp902
g43
g32
sbsg66
(dp903
g843
I0
sg844
I0
sg845
I0
sg846
I0
ssg80
I00
sg70
(dp904
g843
I0
sg844
I0
sg845
I0
sg846
I0
ssg72
(dp905
g843
I0
sg844
I0
sg845
I0
sg846
I0
ssg74
I0
sg75
I0
sg76
g32
sg78
I0
sg79
I0
sg55
I0
sg81
I0
sg62
g848
sg87
(dp906
g868
I0
sg859
I0
sg860
I0
sg861
I0
sg866
I0
sg858
I0
sg864
I0
sg865
I0
sg862
I0
sg867
I0
sg863
I0
sg869
I0
sg870
I0
sg871
I0
sg854
I0
ssg104
(dp907
sg124
I0
sg125
g32
sg126
I0
sg130
I0
sg127
I0
sg128
F0.0
sg129
I0
sg68
(dp908
g843
I0
sg844
I0
sg845
I0
sg846
I0
ssg131
I0
sg132
g891
sg134
I0
sg135
I0
sg136
I0
sg137
I0
sg138
I0
sg139
I0
sg140
I0
sg141
g32
sbssg124
I0
sg125
g32
sg126
I0
sg130
I0
sg127
I0
sg128
F8.241379310344827
sg129
I0
sg68
(dp909
g843
I0
sg844
I0
sg845
I1
sg846
I0
ssg131
I0
sg132
g891
sg134
I0
sg135
I0
sg136
I0
sg137
I0
sg138
I0
sg139
I0
sg140
I0
sg141
S'O'
p910
sbsS'n14'
p911
(ijoueur
joueur
p912
(dp913
g27
I0
sg28
I0
sg29
I0
sg30
F46.38221325680469
sg31
g32
sg33
I0
sg34
g32
sg35
g36
(g37
g38
Ntp914
Rp915
(dp916
g42
I4
sg43
g166
sg45
g46
sbsg47
(dp917
g49
I0
sg50
I0
sg51
I0
sg52
I0
ssg53
(dp918
g49
I0
sg50
I0
sg51
I0
sg52
I0
ssg55
I12
sg56
g32
sg57
I0
sg58
F46.38221325680469
sg59
I0
sg60
I0
sg61
I0
sg62
g63
sg64
I00
sg65
g915
sg66
(dp919
g49
I0
sg50
I0
sg51
I0
sg52
I5
ssg68
(dp920
g49
I0
sg50
I0
sg51
I0
sg52
I0
ssg70
(dp921
g49
I0
sg50
I0
sg51
I0
sg52
I0
ssg72
(dp922
g49
I0
sg50
I0
sg51
I0
sg52
I5
ssg74
I0
sg75
I0
sg76
S'Iutugy'
p923
sg78
I3
sg79
I0
sg80
I00
sg81
I168
sg82
(g83
S'AI'
p924
g32
g32
tp925
sg86
g32
sg87
(dp926
g89
I10
sg90
I3
sg91
I7
sg92
I9
sg93
I9
sg94
I7
sg95
I12
sg96
I10
sg97
I5
sg98
I9
sg99
I9
sg100
I8
sg101
I6
sg102
I9
sg103
I6
ssg104
(dp927
S's12'
p928
(ijoueur
joueur
p929
(dp930
g27
I0
sg28
I0
sg29
I0
sg33
I0
sg35
g36
(g37
g38
Ntp931
Rp932
(dp933
g43
g32
sbsg47
(dp934
g49
I0
sg50
I0
sg51
I0
sg52
I0
ssg53
(dp935
g49
I0
sg50
I0
sg51
I0
sg52
I0
ssg55
I0
sg56
g32
sg57
I0
sg59
I0
sg60
I0
sg61
I0
sg82
(g83
g924
g32
g32
tp936
sg64
I00
sg65
g36
(g37
g38
Ntp937
Rp938
(dp939
g43
g32
sbsg66
(dp940
g49
I0
sg50
I0
sg51
I0
sg52
I0
ssg68
(dp941
g49
I0
sg50
I0
sg51
I0
sg52
I0
ssg70
(dp942
g49
I0
sg50
I0
sg51
I0
sg52
I0
ssg72
(dp943
g49
I0
sg50
I0
sg51
I0
sg52
I0
ssg74
I0
sg75
I0
sg76
g32
sg78
I0
sg79
I0
sg80
I00
sg81
I0
sg62
g63
sg87
(dp944
g99
I0
sg90
I0
sg91
I0
sg92
I0
sg97
I0
sg89
I0
sg94
I0
sg96
I0
sg93
I0
sg98
I0
sg95
I0
sg100
I0
sg101
I0
sg102
I0
sg103
I0
ssg104
(dp945
sg124
I0
sg125
g32
sg126
I0
sg127
I0
sg128
F0.0
sg129
I0
sg130
I0
sg131
I0
sg132
(dp946
g89
I10
sg90
I3
sg91
I7
sg92
I9
sg97
I5
sg95
I12
sg94
I7
sg96
I10
sg93
I9
sg98
I9
sg99
I9
sg100
I8
sg101
I6
sg102
I9
sg103
I6
ssg134
I0
sg135
I0
sg136
I0
sg137
I0
sg138
I0
sg139
I0
sg140
I0
sg141
g32
sbsS's11'
p947
(ijoueur
joueur
p948
(dp949
g27
I0
sg28
I0
sg29
I0
sg33
I0
sg35
g36
(g37
g38
Ntp950
Rp951
(dp952
g43
g32
sbsg47
(dp953
g49
I0
sg50
I0
sg51
I0
sg52
I0
ssg53
(dp954
g49
I0
sg50
I0
sg51
I0
sg52
I0
ssg55
I0
sg56
g32
sg57
I0
sg59
I0
sg60
I0
sg61
I0
sg82
g936
sg64
I00
sg65
g36
(g37
g38
Ntp955
Rp956
(dp957
g43
g32
sbsg66
(dp958
g49
I0
sg50
I0
sg51
I0
sg52
I0
ssg68
(dp959
g49
I0
sg50
I0
sg51
I0
sg52
I0
ssg70
(dp960
g49
I0
sg50
I0
sg51
I0
sg52
I0
ssg72
(dp961
g49
I0
sg50
I0
sg51
I0
sg52
I0
ssg74
I0
sg75
I0
sg76
g32
sg78
I0
sg79
I0
sg80
I00
sg81
I0
sg62
g63
sg87
(dp962
g99
I0
sg90
I0
sg91
I0
sg92
I0
sg97
I0
sg89
I0
sg94
I0
sg96
I0
sg93
I0
sg98
I0
sg95
I0
sg100
I0
sg101
I0
sg102
I0
sg103
I0
ssg104
(dp963
sg124
I0
sg125
g32
sg126
I0
sg127
I0
sg128
F0.0
sg129
I0
sg130
I0
sg131
I0
sg132
g946
sg134
I0
sg135
I0
sg136
I0
sg137
I0
sg138
I0
sg139
I0
sg140
I0
sg141
g32
sbssg124
I6
sg125
g32
sg126
I0
sg127
I0
sg128
F9.580645161290322
sg129
I0
sg130
I0
sg131
I0
sg132
g946
sg134
I0
sg135
I0
sg136
I0
sg137
I0
sg138
I16
sg139
I0
sg140
I0
sg141
g159
sbsS'n15'
p964
(ijoueur
joueur
p965
(dp966
g27
I0
sg28
I0
sg29
I0
sg30
F46.80591346561323
sg31
g32
sg33
I0
sg34
g32
sg35
g36
(g37
g38
Ntp967
Rp968
(dp969
g42
I4
sg43
g166
sg45
g46
sbsg47
(dp970
g49
I0
sg50
I0
sg51
I0
sg52
I0
ssg53
(dp971
g49
I0
sg50
I0
sg51
I0
sg52
I0
ssg55
I24
sg56
g32
sg57
I0
sg58
F46.80591346561323
sg59
I0
sg60
I0
sg61
I0
sg62
g63
sg64
I00
sg65
g968
sg66
(dp972
g49
I0
sg50
I0
sg51
I1
sg52
I4
ssg68
(dp973
g49
I0
sg50
I0
sg51
I0
sg52
I0
ssg70
(dp974
g49
I0
sg50
I0
sg51
I0
sg52
I0
ssg72
(dp975
g49
I0
sg50
I0
sg51
I1
sg52
I4
ssg74
I0
sg75
I0
sg76
S'Rhogork'
p976
sg78
I11
sg79
I0
sg80
I00
sg81
I152
sg82
(g83
S'AR'
p977
g32
g32
tp978
sg86
g32
sg87
(dp979
g89
I8
sg90
I6
sg91
I7
sg92
I10
sg93
I8
sg94
I8
sg95
I10
sg96
I9
sg97
I6
sg98
I7
sg99
I10
sg100
I9
sg101
I6
sg102
I11
sg103
I5
ssg104
(dp980
S's12'
p981
(ijoueur
joueur
p982
(dp983
g27
I0
sg28
I0
sg29
I0
sg33
I0
sg35
g36
(g37
g38
Ntp984
Rp985
(dp986
g43
g32
sbsg47
(dp987
g49
I0
sg50
I0
sg51
I0
sg52
I0
ssg53
(dp988
g49
I0
sg50
I0
sg51
I0
sg52
I0
ssg55
I0
sg56
g32
sg57
I0
sg59
I0
sg60
I0
sg61
I0
sg82
(g83
g977
g32
g32
tp989
sg64
I00
sg65
g36
(g37
g38
Ntp990
Rp991
(dp992
g43
g32
sbsg66
(dp993
g49
I0
sg50
I0
sg51
I0
sg52
I0
ssg68
(dp994
g49
I0
sg50
I0
sg51
I0
sg52
I0
ssg70
(dp995
g49
I0
sg50
I0
sg51
I0
sg52
I0
ssg72
(dp996
g49
I0
sg50
I0
sg51
I0
sg52
I0
ssg74
I0
sg75
I0
sg76
g32
sg78
I0
sg79
I0
sg80
I00
sg81
I0
sg62
g63
sg87
(dp997
g99
I0
sg90
I0
sg91
I0
sg92
I0
sg97
I0
sg89
I0
sg94
I0
sg96
I0
sg93
I0
sg98
I0
sg95
I0
sg100
I0
sg101
I0
sg102
I0
sg103
I0
ssg104
(dp998
sg124
I0
sg125
g32
sg126
I0
sg127
I0
sg128
F0.0
sg129
I0
sg130
I0
sg131
I0
sg132
(dp999
g89
I8
sg90
I6
sg91
I7
sg92
I10
sg97
I6
sg95
I10
sg94
I8
sg96
I9
sg93
I8
sg98
I7
sg99
I10
sg100
I9
sg101
I6
sg102
I11
sg103
I5
ssg134
I0
sg135
I0
sg136
I0
sg137
I0
sg138
I0
sg139
I0
sg140
I0
sg141
g32
sbsS's11'
p1000
(ijoueur
joueur
p1001
(dp1002
g27
I0
sg28
I0
sg29
I0
sg33
I0
sg35
g36
(g37
g38
Ntp1003
Rp1004
(dp1005
g43
g32
sbsg47
(dp1006
g49
I0
sg50
I0
sg51
I0
sg52
I0
ssg53
(dp1007
g49
I0
sg50
I0
sg51
I0
sg52
I0
ssg55
I0
sg56
g32
sg57
I0
sg59
I0
sg60
I0
sg61
I0
sg82
g989
sg64
I00
sg65
g36
(g37
g38
Ntp1008
Rp1009
(dp1010
g43
g32
sbsg66
(dp1011
g49
I0
sg50
I0
sg51
I0
sg52
I0
ssg68
(dp1012
g49
I0
sg50
I0
sg51
I0
sg52
I0
ssg70
(dp1013
g49
I0
sg50
I0
sg51
I0
sg52
I0
ssg72
(dp1014
g49
I0
sg50
I0
sg51
I0
sg52
I0
ssg74
I0
sg75
I0
sg76
g32
sg78
I0
sg79
I0
sg80
I00
sg81
I0
sg62
g63
sg87
(dp1015
g99
I0
sg90
I0
sg91
I0
sg92
I0
sg97
I0
sg89
I0
sg94
I0
sg96
I0
sg93
I0
sg98
I0
sg95
I0
sg100
I0
sg101
I0
sg102
I0
sg103
I0
ssg104
(dp1016
sg124
I0
sg125
g32
sg126
I0
sg127
I0
sg128
F0.0
sg129
I0
sg130
I0
sg131
I0
sg132
g999
sg134
I0
sg135
I0
sg136
I0
sg137
I0
sg138
I0
sg139
I0
sg140
I0
sg141
g32
sbssg124
I7
sg125
g32
sg126
I0
sg127
I0
sg128
F9.484848484848484
sg129
I0
sg130
I0
sg131
I0
sg132
g999
sg134
I0
sg135
I0
sg136
I0
sg137
I0
sg138
I15
sg139
I0
sg140
I0
sg141
g159
sbsS'n18'
p1017
g612
sS'n19'
p1018
(ijoueur
joueur
p1019
(dp1020
g27
I0
sg28
I0
sg29
I0
sg30
F46.80591346561323
sg31
g32
sg33
I0
sg34
g32
sg35
g36
(g37
g38
Ntp1021
Rp1022
(dp1023
g42
I1
sg43
S'<'
p1024
sg45
S'base'
p1025
sbsg47
(dp1026
S'SR'
p1027
I0
sS'ST'
p1028
I0
sS'CR'
p1029
I0
sS'CT'
p1030
I0
ssg53
(dp1031
g1027
I0
sg1028
I0
sg1029
I0
sg1030
I0
ssg55
I21
sg56
g32
sg57
I0
sg58
F46.80591346561323
sg59
I0
sg60
I0
sg61
I0
sg62
S'EKR'
p1032
sg64
I00
sg65
g1022
sg66
(dp1033
g1027
I0
sg1028
I0
sg1029
I0
sg1030
I5
ssg80
I00
sg70
(dp1034
g1027
I0
sg1028
I0
sg1029
I0
sg1030
I0
ssg72
(dp1035
g1027
I0
sg1028
I0
sg1029
I0
sg1030
I5
ssg74
I0
sg75
I0
sg76
S'Makjed'
p1036
sg78
I9
sg79
I0
sg68
(dp1037
g1027
I0
sg1028
I0
sg1029
I0
sg1030
I0
ssg81
I10
sg82
(S'dummy'
p1038
S'TL'
p1039
g32
g32
tp1040
sg86
g32
sg87
(dp1041
S'RP1'
p1042
I7
sS'ME'
p1043
I7
sS'RP2'
p1044
I6
sS'E'
p1045
I9
sS'P'
p1046
I4
sS'JP'
p1047
I4
sS'M'
p1048
I8
sS'RP_tot'
p1049
I7
sS'TO'
p1050
I7
sS'PA'
p1051
I8
sS'A'
p1052
I8
sS'R'
p1053
I9
sS'TB'
p1054
I4
sS'PL'
p1055
I6
sS'TA'
p1056
I3
ssg104
(dp1057
S's12'
p1058
(ijoueur
joueur
p1059
(dp1060
g27
I0
sg28
I0
sg29
I0
sg33
I0
sg35
g36
(g37
g38
Ntp1061
Rp1062
(dp1063
g43
g32
sbsg47
(dp1064
g1027
I0
sg1028
I0
sg1029
I0
sg1030
I0
ssg53
(dp1065
g1027
I0
sg1028
I0
sg1029
I0
sg1030
I0
ssg55
I0
sg56
g32
sg57
I0
sg59
I0
sg60
I0
sg61
I0
sg82
(g1038
g1039
g32
g32
tp1066
sg64
I00
sg65
g36
(g37
g38
Ntp1067
Rp1068
(dp1069
g43
g32
sbsg66
(dp1070
g1027
I0
sg1028
I0
sg1029
I0
sg1030
I0
ssg80
I00
sg70
(dp1071
g1027
I0
sg1028
I0
sg1029
I0
sg1030
I0
ssg72
(dp1072
g1027
I0
sg1028
I0
sg1029
I0
sg1030
I0
ssg74
I0
sg75
I0
sg76
g32
sg78
I0
sg79
I0
sg68
(dp1073
g1027
I0
sg1028
I0
sg1029
I0
sg1030
I0
ssg81
I0
sg62
g1032
sg87
(dp1074
g1052
I0
sg1043
I0
sg1044
I0
sg1045
I0
sg1050
I0
sg1042
I0
sg1047
I0
sg1049
I0
sg1046
I0
sg1051
I0
sg1048
I0
sg1053
I0
sg1054
I0
sg1055
I0
sg1056
I0
ssg104
(dp1075
sg124
I0
sg125
g32
sg126
I0
sg127
I0
sg128
F0.0
sg129
I0
sg130
I0
sg131
I0
sg132
(dp1076
g1042
I7
sg1043
I7
sg1044
I6
sg1045
I9
sg1050
I7
sg1048
I8
sg1047
I4
sg1049
I7
sg1046
I4
sg1051
I8
sg1052
I9
sg1053
I10
sg1054
I4
sg1055
I7
sg1056
I3
ssg134
I0
sg135
I0
sg136
I0
sg137
I0
sg138
I0
sg139
I0
sg140
I0
sg141
g32
sbsS's11'
p1077
(ijoueur
joueur
p1078
(dp1079
g27
I0
sg28
I0
sg29
I0
sg33
I0
sg35
g36
(g37
g38
Ntp1080
Rp1081
(dp1082
g43
g32
sbsg47
(dp1083
g1027
I0
sg1028
I0
sg1029
I0
sg1030
I0
ssg53
(dp1084
g1027
I0
sg1028
I0
sg1029
I0
sg1030
I0
ssg55
I0
sg56
g32
sg57
I0
sg59
I0
sg60
I0
sg61
I0
sg82
g1066
sg64
I00
sg65
g36
(g37
g38
Ntp1085
Rp1086
(dp1087
g43
g32
sbsg66
(dp1088
g1027
I0
sg1028
I0
sg1029
I0
sg1030
I0
ssg80
I00
sg70
(dp1089
g1027
I0
sg1028
I0
sg1029
I0
sg1030
I0
ssg72
(dp1090
g1027
I0
sg1028
I0
sg1029
I0
sg1030
I0
ssg74
I0
sg75
I0
sg76
g32
sg78
I0
sg79
I0
sg68
(dp1091
g1027
I0
sg1028
I0
sg1029
I0
sg1030
I0
ssg81
I0
sg62
g1032
sg87
(dp1092
g1052
I0
sg1043
I0
sg1044
I0
sg1045
I0
sg1050
I0
sg1042
I0
sg1047
I0
sg1049
I0
sg1046
I0
sg1051
I0
sg1048
I0
sg1053
I0
sg1054
I0
sg1055
I0
sg1056
I0
ssg104
(dp1093
sg124
I0
sg125
g32
sg126
I0
sg127
I0
sg128
F0.0
sg129
I0
sg130
I0
sg131
I0
sg132
g1076
sg134
I0
sg135
I0
sg136
I0
sg137
I0
sg138
I0
sg139
I0
sg140
I0
sg141
g32
sbssg124
I9
sg125
g32
sg126
I0
sg127
I0
sg128
F8.419354838709678
sg129
I0
sg130
I0
sg131
I0
sg132
g1076
sg134
I0
sg135
I0
sg136
I0
sg137
I0
sg138
I1
sg139
I0
sg140
I0
sg141
S'O'
p1094
sbsS'n22'
p1095
(ijoueur
joueur
p1096
(dp1097
g27
I0
sg28
I0
sg29
I0
sg30
F55.78205866019721
sg31
g32
sg33
I0
sg34
g32
sg35
g36
(g37
g38
Ntp1098
Rp1099
(dp1100
g42
I1
sg43
g617
sg45
g618
sbsg47
(dp1101
g49
I0
sg50
I0
sg51
I0
sg52
I0
ssg53
(dp1102
g49
I0
sg50
I0
sg51
I0
sg52
I0
ssg55
I24
sg56
g32
sg57
I0
sg58
F55.78205866019721
sg59
I0
sg60
I0
sg61
I0
sg62
g63
sg64
I00
sg65
g1099
sg66
(dp1103
g49
I0
sg50
I0
sg51
I4
sg52
I2
ssg68
(dp1104
g49
I0
sg50
I0
sg51
I0
sg52
I0
ssg70
(dp1105
g49
I0
sg50
I0
sg51
I0
sg52
I0
ssg72
(dp1106
g49
I0
sg50
I0
sg51
I4
sg52
I2
ssg74
I0
sg75
I0
sg76
S'Lopack'
p1107
sg78
I13
sg79
I0
sg80
I00
sg81
I9
sg82
(g83
g977
g32
g32
tp1108
sg86
g32
sg87
(dp1109
g89
I6
sg90
I3
sg91
I11
sg92
I10
sg93
I9
sg94
I8
sg95
I11
sg96
I11
sg97
I5
sg98
I7
sg99
I7
sg100
I7
sg101
I7
sg102
I10
sg103
I4
ssg104
(dp1110
sg124
I5
sg125
g32
sg126
I0
sg127
I0
sg128
F9.181818181818182
sg129
I0
sg130
I0
sg131
I0
sg132
(dp1111
g89
I6
sg90
I3
sg91
I11
sg92
I10
sg97
I5
sg95
I11
sg94
I8
sg96
I11
sg93
I9
sg98
I7
sg99
I7
sg100
I7
sg101
I7
sg102
I10
sg103
I4
ssg134
I0
sg135
I0
sg136
I0
sg137
I0
sg138
I0
sg139
I0
sg140
I0
sg141
g159
sbsS'n21'
p1112
(ijoueur
joueur
p1113
(dp1114
g219
F9.363636363636363
sg27
I0
sg220
F9.696969696969697
sg125
g32
sg29
I0
sg30
F46.24762093994174
sg33
I0
sg35
g36
(g37
g38
Ntp1115
Rp1116
(dp1117
g42
I1
sg43
S'^'
p1118
sg45
S'base'
p1119
sbsg47
(dp1120
S'SR'
p1121
I5
sS'ST'
p1122
I1
sS'CR'
p1123
I10
sS'CT'
p1124
I3
ssg53
(dp1125
g1121
I0
sg1122
I0
sg1123
I0
sg1124
I0
ssg232
I0
sS'drop_rates_total'
p1126
I0
sg57
I0
sS'transformations'
p1127
I0
sS'penalites'
p1128
I0
sg80
I00
sg59
I0
sg60
I0
sg61
I0
sg82
(S'dummy'
p1129
S'AR'
p1130
S'CE'
p1131
g32
tp1132
sg64
I00
sg65
g36
(g37
g38
Ntp1133
Rp1134
(dp1135
g42
I1
sg43
S'^'
p1136
sg45
g1119
sbsg66
(dp1137
g235
I0
sg236
I0
sg237
I1
sg238
I0
ssg68
(dp1138
g235
I0
sg236
I0
sg237
I3
sg238
I1
ssg70
(dp1139
g235
I0
sg236
I0
sg237
I0
sg238
I0
ssg72
(dp1140
g1121
I4
sg1122
I1
sg1123
I1
sg1124
I0
ssg74
I0
sg75
I0
sg76
S'Hour'
p1141
sg78
I1
sg79
I0
sg55
I13
sg81
I20
sg62
g63
sg87
(dp1142
S'A'
p1143
I9
sS'ME'
p1144
I3
sS'RP2'
p1145
I8
sS'E'
p1146
I12
sS'P'
p1147
I9
sS'RP1'
p1148
I6
sS'JP'
p1149
I8
sS'RP_tot'
p1150
I8
sS'TO'
p1151
I2
sS'PA'
p1152
I8
sS'M'
p1153
I7
sS'R'
p1154
I8
sS'TB'
p1155
I6
sS'PL'
p1156
I12
sS'TA'
p1157
I3
ssg104
(dp1158
g262
(ijoueur
joueur
p1159
(dp1160
g219
F9.363636363636363
sg27
I0
sg125
g32
sg29
I0
sg33
I0
sg35
g36
(g37
g38
Ntp1161
Rp1162
(dp1163
g42
I1
sg43
S'^'
p1164
sg45
S'base'
p1165
sbsg47
(dp1166
S'SR'
p1167
I5
sS'ST'
p1168
I1
sS'CR'
p1169
I7
sS'CT'
p1170
I2
ssg53
(dp1171
g1167
I0
sg1168
I0
sg1169
I0
sg1170
I0
ssg68
(dp1172
g283
I1
sg284
I1
sg285
I0
sg286
I0
ssg1126
I0
sg57
I0
sg1127
I0
sg1128
I0
sg59
I1
sg60
I0
sg61
I0
sg82
(S'dummy'
p1173
S'AR'
p1174
S'CE'
p1175
g32
tp1176
sg64
I00
sg65
g36
(g37
g38
Ntp1177
Rp1178
(dp1179
g42
I1
sg43
S'^'
p1180
sg45
g1165
sbsg66
(dp1181
g283
I4
sg284
I0
sg285
I0
sg286
I0
ssg80
I01
sg70
(dp1182
g283
I0
sg284
I0
sg285
I0
sg286
I0
ssg72
(dp1183
g1167
I4
sg1168
I1
sg1169
I0
sg1170
I0
ssg74
I0
sg75
I0
sg76
S'Hour'
p1184
sg78
I1
sg79
I0
sg55
I13
sg81
I20
sg62
g276
sg87
(dp1185
S'A'
p1186
I9
sS'ME'
p1187
I3
sS'RP2'
p1188
I9
sS'E'
p1189
I12
sS'TO'
p1190
I2
sS'RP1'
p1191
I6
sS'JP'
p1192
I8
sS'RP_tot'
p1193
I9
sS'P'
p1194
I9
sS'PA'
p1195
I9
sS'M'
p1196
I8
sS'R'
p1197
I8
sS'TB'
p1198
I6
sS'PL'
p1199
I12
sS'TA'
p1200
I3
ssg104
(dp1201
g311
(ijoueur
joueur
p1202
(dp1203
g27
I0
sg29
I0
sg33
I0
sg35
g36
(g37
g38
Ntp1204
Rp1205
(dp1206
g42
I1
sg43
S'^'
p1207
sg45
S'base'
p1208
sbsg47
(dp1209
S'SR'
p1210
I4
sS'CT'
p1211
I2
sS'CR'
p1212
I7
sS'ST'
p1213
I0
ssg53
(dp1214
g1210
I0
sg1211
I0
sg1212
I0
sg1213
I0
ssg1126
I0
sg128
F9.363636363636363
sg57
I0
sg1127
I0
sg1128
I0
sg59
I0
sg60
I0
sg61
I0
sg82
(S'dummy'
p1215
S'AR'
p1216
S'CE'
p1217
g32
tp1218
sg64
I01
sg65
g36
(g37
g38
Ntp1219
Rp1220
(dp1221
g42
I1
sg43
S'^'
p1222
sg45
g1208
sbsg66
(dp1223
g1210
I0
sg1211
I0
sg1212
I0
sg1213
I1
ssg80
I01
sg70
(dp1224
g1210
I0
sg1211
I0
sg1212
I0
sg1213
I0
ssg72
(dp1225
g1210
I0
sg1211
I0
sg1212
I0
sg1213
I1
ssg74
I0
sg75
I0
sg76
S'Hour'
p1226
sg78
I1
sg79
I0
sg55
I13
sg81
I20
sg62
S'ALT'
p1227
sg87
(dp1228
S'A'
p1229
I8
sS'ME'
p1230
I3
sS'RP2'
p1231
I9
sS'E'
p1232
I11
sS'P'
p1233
I9
sS'RP1'
p1234
I6
sS'JP'
p1235
I8
sS'RP_tot'
p1236
I9
sS'TO'
p1237
I2
sS'PA'
p1238
I9
sS'M'
p1239
I8
sS'R'
p1240
I7
sS'TB'
p1241
I6
sS'PL'
p1242
I12
sS'TA'
p1243
I3
ssg124
I0
sg28
I0
sg126
I0
sg127
I0
sg68
(dp1244
g1210
I4
sg1211
I2
sg1212
I7
sg1213
I0
ssg129
I0
sS'drops'
p1245
I0
sg130
I0
sg131
I0
sg355
(dp1246
S'A'
p1247
I8
sS'ME'
p1248
I3
sS'RP2'
p1249
I9
sS'E'
p1250
I11
sS'P'
p1251
I9
sS'RP1'
p1252
I6
sS'JP'
p1253
I8
sS'RP_tot'
p1254
I9
sS'TO'
p1255
I2
sS'PA'
p1256
I9
sS'M'
p1257
I8
sS'R'
p1258
I7
sS'TB'
p1259
I6
sS'PL'
p1260
I12
sS'TA'
p1261
I3
ssg132
g1228
sg134
I0
sg56
S'KHR 8'
p1262
sg135
I0
sg136
I0
sg137
I0
sg138
I2
sg139
I4
sg140
I0
sg141
S'O'
p1263
sbssg124
I0
sg28
I0
sg126
I0
sg127
I0
sg128
F9.696969696969697
sg129
I0
sg1245
I0
sg130
I0
sg131
I0
sg355
(dp1264
g1186
I8
sg1187
I3
sg1188
I9
sg1189
I11
sg1194
I9
sg1191
I6
sg1192
I8
sg1193
I9
sg1190
I2
sg1195
I9
sg1196
I8
sg1197
I7
sg1198
I6
sg1199
I12
sg1200
I3
ssg132
g1185
sg134
I0
sg56
S'KHR 8;ALT 12'
p1265
sg135
I0
sg136
I0
sg137
I0
sg138
I2
sg139
I5
sg140
I0
sg141
S'O'
p1266
sbsg375
(ijoueur
joueur
p1267
(dp1268
g27
I0
sg29
I0
sg33
I0
sg35
g36
(g37
g38
Ntp1269
Rp1270
(dp1271
g42
I1
sg43
S'^'
p1272
sg45
S'base'
p1273
sbsg47
(dp1274
S'SR'
p1275
I4
sS'CT'
p1276
I2
sS'CR'
p1277
I7
sS'ST'
p1278
I0
ssg53
(dp1279
g1275
I0
sg1276
I0
sg1277
I0
sg1278
I0
ssg1126
I0
sg128
F9.363636363636363
sg57
I0
sg1127
I0
sg1128
I0
sg59
I0
sg60
I0
sg61
I0
sg82
(S'dummy'
p1280
S'AR'
p1281
S'CE'
p1282
g32
tp1283
sg64
I01
sg65
g36
(g37
g38
Ntp1284
Rp1285
(dp1286
g42
I1
sg43
S'^'
p1287
sg45
g1273
sbsg66
(dp1288
g1275
I0
sg1276
I0
sg1277
I0
sg1278
I1
ssg80
I01
sg70
(dp1289
g1275
I0
sg1276
I0
sg1277
I0
sg1278
I0
ssg72
(dp1290
g1275
I0
sg1276
I0
sg1277
I0
sg1278
I1
ssg74
I0
sg75
I0
sg76
S'Hour'
p1291
sg78
I1
sg79
I0
sg55
I13
sg81
I20
sg62
S'ALT'
p1292
sg87
(dp1293
S'A'
p1294
I8
sS'ME'
p1295
I3
sS'RP2'
p1296
I9
sS'E'
p1297
I11
sS'P'
p1298
I9
sS'RP1'
p1299
I6
sS'JP'
p1300
I8
sS'RP_tot'
p1301
I9
sS'TO'
p1302
I2
sS'PA'
p1303
I9
sS'M'
p1304
I8
sS'R'
p1305
I7
sS'TB'
p1306
I6
sS'PL'
p1307
I12
sS'TA'
p1308
I3
ssg124
I0
sg28
I0
sg126
I0
sg127
I0
sg68
(dp1309
g1275
I4
sg1276
I2
sg1277
I7
sg1278
I0
ssg129
I0
sg1245
I0
sg130
I0
sg131
I0
sg355
(dp1310
S'A'
p1311
I8
sS'ME'
p1312
I3
sS'RP2'
p1313
I9
sS'E'
p1314
I11
sS'P'
p1315
I9
sS'RP1'
p1316
I6
sS'JP'
p1317
I8
sS'RP_tot'
p1318
I9
sS'TO'
p1319
I2
sS'PA'
p1320
I9
sS'M'
p1321
I8
sS'R'
p1322
I7
sS'TB'
p1323
I6
sS'PL'
p1324
I12
sS'TA'
p1325
I3
ssg132
g1293
sg134
I0
sg56
S'KHR 8'
p1326
sg135
I0
sg136
I0
sg137
I0
sg138
I2
sg139
I4
sg140
I0
sg141
S'O'
p1327
sbssg124
I6
sg28
I0
sg126
I0
sg127
I0
sg128
F9.333333333333334
sg129
I0
sg58
F46.24762093994174
sg1245
I0
sg130
I0
sg131
I0
sg355
(dp1328
g1143
I8
sg1144
I3
sg1145
I9
sg1146
I11
sg1147
I9
sg1148
I6
sg1149
I8
sg1150
I9
sg1151
I2
sg1152
I9
sg1153
I8
sg1154
I7
sg1155
I6
sg1156
I12
sg1157
I3
ssg132
(dp1329
g1143
I9
sg1144
I3
sg1145
I8
sg1146
I12
sg1151
I2
sg1148
I6
sg1149
I8
sg1150
I8
sg1147
I9
sg1152
I8
sg1153
I7
sg1154
I8
sg1155
I6
sg1156
I12
sg1157
I3
ssg134
I0
sg439
(dp1330
sg135
I0
sg56
S'KHR 8;ALT 12;vide 13'
p1331
sg136
I0
sg137
I0
sg138
I2
sg139
I5
sg140
I0
sg141
S'O'
p1332
sbsS'n20'
p1333
(ijoueur
joueur
p1334
(dp1335
g27
I0
sg28
I0
sg29
I0
sg30
F55.78205866019721
sg31
g32
sg33
I0
sg34
g32
sg35
g36
(g37
g38
Ntp1336
Rp1337
(dp1338
g42
I4
sg43
g166
sg45
g46
sbsg47
(dp1339
g49
I0
sg50
I0
sg51
I0
sg52
I2
ssg53
(dp1340
g49
I0
sg50
I0
sg51
I0
sg52
I0
ssg55
I12
sg56
g32
sg57
I0
sg58
F55.78205866019721
sg59
I0
sg60
I0
sg61
I0
sg62
g63
sg64
I00
sg65
g1337
sg66
(dp1341
g49
I0
sg50
I0
sg51
I3
sg52
I1
ssg68
(dp1342
g49
I0
sg50
I0
sg51
I0
sg52
I2
ssg70
(dp1343
g49
I0
sg50
I0
sg51
I0
sg52
I0
ssg72
(dp1344
g49
I0
sg50
I0
sg51
I3
sg52
I1
ssg74
I0
sg75
I0
sg76
S'Pade'
p1345
sg78
I5
sg79
I0
sg80
I00
sg81
I152
sg82
(g83
g570
S'DO'
p1346
g32
tp1347
sg86
g32
sg87
(dp1348
g89
I10
sg90
I5
sg91
I7
sg92
I11
sg93
I9
sg94
I8
sg95
I9
sg96
I10
sg97
I6
sg98
I8
sg99
I9
sg100
I7
sg101
I9
sg102
I8
sg103
I5
ssg104
(dp1349
S's12'
p1350
(ijoueur
joueur
p1351
(dp1352
g27
I0
sg28
I0
sg29
I0
sg33
I0
sg35
g36
(g37
g38
Ntp1353
Rp1354
(dp1355
g43
g32
sbsg47
(dp1356
g49
I0
sg50
I0
sg51
I0
sg52
I0
ssg53
(dp1357
g49
I0
sg50
I0
sg51
I0
sg52
I0
ssg55
I0
sg56
g32
sg57
I0
sg59
I0
sg60
I0
sg61
I0
sg82
(g83
g570
g32
g32
tp1358
sg64
I00
sg65
g36
(g37
g38
Ntp1359
Rp1360
(dp1361
g43
g32
sbsg66
(dp1362
g49
I0
sg50
I0
sg51
I0
sg52
I0
ssg68
(dp1363
g49
I0
sg50
I0
sg51
I0
sg52
I0
ssg70
(dp1364
g49
I0
sg50
I0
sg51
I0
sg52
I0
ssg72
(dp1365
g49
I0
sg50
I0
sg51
I0
sg52
I0
ssg74
I0
sg75
I0
sg76
g32
sg78
I0
sg79
I0
sg80
I00
sg81
I0
sg62
g63
sg87
(dp1366
g99
I0
sg90
I0
sg91
I0
sg92
I0
sg97
I0
sg89
I0
sg94
I0
sg96
I0
sg93
I0
sg98
I0
sg95
I0
sg100
I0
sg101
I0
sg102
I0
sg103
I0
ssg104
(dp1367
sg124
I0
sg125
g32
sg126
I0
sg127
I0
sg128
F0.0
sg129
I0
sg130
I0
sg131
I0
sg132
(dp1368
g89
I10
sg90
I5
sg91
I7
sg92
I11
sg97
I6
sg95
I9
sg94
I8
sg96
I10
sg93
I9
sg98
I8
sg99
I10
sg100
I8
sg101
I9
sg102
I9
sg103
I5
ssg134
I0
sg135
I0
sg136
I0
sg137
I0
sg138
I0
sg139
I0
sg140
I0
sg141
g32
sbsS's11'
p1369
(ijoueur
joueur
p1370
(dp1371
g27
I0
sg28
I0
sg29
I0
sg33
I0
sg35
g36
(g37
g38
Ntp1372
Rp1373
(dp1374
g43
g32
sbsg47
(dp1375
g49
I0
sg50
I0
sg51
I0
sg52
I0
ssg53
(dp1376
g49
I0
sg50
I0
sg51
I0
sg52
I0
ssg55
I0
sg56
g32
sg57
I0
sg59
I0
sg60
I0
sg61
I0
sg82
g1358
sg64
I00
sg65
g36
(g37
g38
Ntp1377
Rp1378
(dp1379
g43
g32
sbsg66
(dp1380
g49
I0
sg50
I0
sg51
I0
sg52
I0
ssg68
(dp1381
g49
I0
sg50
I0
sg51
I0
sg52
I0
ssg70
(dp1382
g49
I0
sg50
I0
sg51
I0
sg52
I0
ssg72
(dp1383
g49
I0
sg50
I0
sg51
I0
sg52
I0
ssg74
I0
sg75
I0
sg76
g32
sg78
I0
sg79
I0
sg80
I00
sg81
I0
sg62
g63
sg87
(dp1384
g99
I0
sg90
I0
sg91
I0
sg92
I0
sg97
I0
sg89
I0
sg94
I0
sg96
I0
sg93
I0
sg98
I0
sg95
I0
sg100
I0
sg101
I0
sg102
I0
sg103
I0
ssg104
(dp1385
sg124
I0
sg125
g32
sg126
I0
sg127
I0
sg128
F0.0
sg129
I0
sg130
I0
sg131
I0
sg132
g1368
sg134
I0
sg135
I0
sg136
I0
sg137
I0
sg138
I0
sg139
I0
sg140
I0
sg141
g32
sbssg124
I8
sg125
g32
sg126
I0
sg127
I0
sg128
F9.137931034482758
sg129
I0
sg130
I0
sg131
I0
sg132
g1368
sg134
I0
sg135
I0
sg136
I0
sg137
I0
sg138
I15
sg139
I0
sg140
I0
sg141
g159
sbsS'n8'
p1386
(ijoueur
joueur
p1387
(dp1388
g27
I0
sg28
I0
sg29
I0
sg30
F27.527688883781824
sg31
g32
sg33
I0
sg34
g32
sg35
g36
(g37
g38
Ntp1389
Rp1390
(dp1391
g42
I1
sg43
S'^'
p1392
sg45
g1025
sbsg47
(dp1393
g1027
I0
sg1028
I0
sg1029
I0
sg1030
I0
ssg53
(dp1394
g1027
I0
sg1028
I0
sg1029
I0
sg1030
I0
ssg55
I20
sg56
g32
sg57
I0
sg58
F27.527688883781824
sg59
I0
sg60
I0
sg61
I0
sg62
g1032
sg64
I00
sg65
g1390
sg66
(dp1395
g1027
I0
sg1028
I0
sg1029
I1
sg1030
I2
ssg80
I00
sg70
(dp1396
g1027
I0
sg1028
I0
sg1029
I0
sg1030
I0
ssg72
(dp1397
g1027
I0
sg1028
I0
sg1029
I1
sg1030
I2
ssg74
I0
sg75
I0
sg76
S'Fertoc'
p1398
sg78
I13
sg79
I0
sg68
(dp1399
g1027
I0
sg1028
I0
sg1029
I0
sg1030
I0
ssg81
I14
sg82
(g1038
S'N8'
p1400
S'DL'
p1401
g32
tp1402
sg86
g32
sg87
(dp1403
g1042
I7
sg1043
I8
sg1044
I6
sg1045
I8
sg1046
I5
sg1047
I4
sg1048
I7
sg1049
I7
sg1050
I8
sg1051
I6
sg1052
I8
sg1053
I8
sg1054
I3
sg1055
I9
sg1056
I4
ssg104
(dp1404
sg124
I5
sg125
g32
sg126
I0
sg127
I0
sg128
F7.916666666666667
sg129
I0
sg130
I0
sg131
I0
sg132
(dp1405
g1042
I7
sg1043
I8
sg1044
I6
sg1045
I8
sg1050
I8
sg1048
I7
sg1047
I4
sg1049
I7
sg1046
I5
sg1051
I6
sg1052
I8
sg1053
I8
sg1054
I3
sg1055
I9
sg1056
I4
ssg134
I0
sg135
I0
sg136
I0
sg137
I0
sg138
I1
sg139
I0
sg140
I0
sg141
g1094
sbsS'n9'
p1406
g558
sS'n1'
p1407
(ijoueur
joueur
p1408
(dp1409
g27
I0
sg28
I0
sg29
I0
sg30
F46.80591346561323
sg31
g32
sg33
I0
sg34
g32
sg35
g36
(g37
g38
Ntp1410
Rp1411
(dp1412
g42
I5
sg43
g508
sg45
g509
sbsg47
(dp1413
g49
I0
sg50
I0
sg51
I0
sg52
I0
ssg53
(dp1414
g49
I0
sg50
I0
sg51
I0
sg52
I0
ssg55
I25
sg56
g32
sg57
I0
sg58
F46.80591346561323
sg59
I0
sg60
I0
sg61
I0
sg62
g63
sg64
I00
sg65
g36
(g37
g38
Ntp1415
Rp1416
(dp1417
g42
I1
sg43
S'^'
p1418
sg45
g618
sbsg66
(dp1419
g49
I0
sg50
I0
sg51
I0
sg52
I5
ssg68
(dp1420
g49
I0
sg50
I0
sg51
I0
sg52
I0
ssg70
(dp1421
g49
I0
sg50
I0
sg51
I0
sg52
I0
ssg72
(dp1422
g49
I0
sg50
I0
sg51
I0
sg52
I5
ssg74
I0
sg75
I0
sg76
S'Vrotodo'
p1423
sg78
I13
sg79
I0
sg80
I00
sg81
I15
sg82
(g83
g517
S'TA'
p1424
g32
tp1425
sg86
g32
sg87
(dp1426
g89
I8
sg90
I10
sg91
I6
sg92
I8
sg93
I3
sg94
I2
sg95
I8
sg96
I8
sg97
I6
sg98
I7
sg99
I6
sg100
I11
sg101
I1
sg102
I9
sg103
I7
ssg104
(dp1427
sg124
I4
sg125
g32
sg126
I0
sg127
I0
sg128
F9.0
sg129
I0
sg130
I0
sg131
I0
sg132
(dp1428
g89
I8
sg90
I10
sg91
I6
sg92
I8
sg97
I6
sg95
I8
sg94
I2
sg96
I8
sg93
I3
sg98
I7
sg99
I6
sg100
I11
sg101
I1
sg102
I9
sg103
I7
ssg134
I0
sg135
I0
sg136
I0
sg137
I0
sg138
I1
sg139
I0
sg140
I0
sg141
g159
sbsS'n2'
p1429
(ijoueur
joueur
p1430
(dp1431
g27
I0
sg28
I0
sg29
I0
sg30
F46.38221325680469
sg31
g32
sg33
I0
sg34
g32
sg35
g36
(g37
g38
Ntp1432
Rp1433
(dp1434
g42
I1
sg43
g1418
sg45
g618
sbsg47
(dp1435
g49
I0
sg50
I0
sg51
I0
sg52
I5
ssg53
(dp1436
g49
I0
sg50
I0
sg51
I0
sg52
I0
ssg55
I24
sg56
g32
sg57
I0
sg58
F46.38221325680469
sg59
I0
sg60
I0
sg61
I0
sg62
g63
sg64
I00
sg65
g1433
sg66
(dp1437
g49
I0
sg50
I0
sg51
I0
sg52
I0
ssg68
(dp1438
g49
I0
sg50
I0
sg51
I0
sg52
I5
ssg70
(dp1439
g49
I0
sg50
I0
sg51
I0
sg52
I0
ssg72
(dp1440
g49
I0
sg50
I0
sg51
I0
sg52
I0
ssg74
I0
sg75
I0
sg76
S'Kharsto'
p1441
sg78
I13
sg79
I0
sg80
I00
sg81
I7
sg82
(g83
g517
S'TA'
p1442
g32
tp1443
sg86
g32
sg87
(dp1444
g89
I7
sg90
I10
sg91
I6
sg92
I8
sg93
I6
sg94
I2
sg95
I7
sg96
I7
sg97
I6
sg98
I6
sg99
I6
sg100
I10
sg101
I5
sg102
I11
sg103
I8
ssg104
(dp1445
sg124
I3
sg125
g32
sg126
I0
sg127
I0
sg128
F8.851851851851851
sg129
I0
sg130
I0
sg131
I0
sg132
(dp1446
g89
I7
sg90
I10
sg91
I6
sg92
I8
sg97
I6
sg95
I7
sg94
I2
sg96
I7
sg93
I6
sg98
I6
sg99
I6
sg100
I10
sg101
I5
sg102
I11
sg103
I8
ssg134
I0
sg135
I0
sg136
I0
sg137
I0
sg138
I0
sg139
I0
sg140
I0
sg141
g159
sbsS'n3'
p1447
g503
sS'n4'
p1448
g25
sS'n5'
p1449
g448
sS'n6'
p1450
(ijoueur
joueur
p1451
(dp1452
g27
I0
sg28
I0
sg29
I0
sg30
F46.80591346561323
sg31
g32
sg33
I0
sg34
g32
sg35
g36
(g37
g38
Ntp1453
Rp1454
(dp1455
g42
I1
sg43
g1418
sg45
g618
sbsg47
(dp1456
g49
I0
sg50
I0
sg51
I0
sg52
I4
ssg53
(dp1457
g49
I0
sg50
I0
sg51
I0
sg52
I1
ssg55
I21
sg56
g32
sg57
I0
sg58
F46.80591346561323
sg59
I0
sg60
I0
sg61
I0
sg62
g63
sg64
I00
sg65
g1454
sg66
(dp1458
g49
I0
sg50
I0
sg51
I0
sg52
I0
ssg68
(dp1459
g49
I0
sg50
I0
sg51
I0
sg52
I4
ssg70
(dp1460
g49
I0
sg50
I0
sg51
I0
sg52
I1
ssg72
(dp1461
g49
I0
sg50
I0
sg51
I0
sg52
I0
ssg74
I0
sg75
I0
sg76
S'Mnartoc'
p1462
sg78
I8
sg79
I0
sg80
I00
sg81
I16
sg82
(g83
g84
S'TL'
p1463
S'N8'
p1464
tp1465
sg86
g32
sg87
(dp1466
g89
I8
sg90
I10
sg91
I6
sg92
I10
sg93
I4
sg94
I2
sg95
I7
sg96
I8
sg97
I7
sg98
I6
sg99
I6
sg100
I11
sg101
I3
sg102
I8
sg103
I7
ssg104
(dp1467
S's12'
p1468
(ijoueur
joueur
p1469
(dp1470
g27
I0
sg28
I0
sg29
I0
sg33
I0
sg35
g36
(g37
g38
Ntp1471
Rp1472
(dp1473
g43
g32
sbsg47
(dp1474
g49
I0
sg50
I0
sg51
I0
sg52
I0
ssg53
(dp1475
g49
I0
sg50
I0
sg51
I0
sg52
I0
ssg55
I0
sg56
g32
sg57
I0
sg59
I0
sg60
I0
sg61
I0
sg82
(g83
g84
g32
g32
tp1476
sg64
I00
sg65
g36
(g37
g38
Ntp1477
Rp1478
(dp1479
g43
g32
sbsg66
(dp1480
g49
I0
sg50
I0
sg51
I0
sg52
I0
ssg68
(dp1481
g49
I0
sg50
I0
sg51
I0
sg52
I0
ssg70
(dp1482
g49
I0
sg50
I0
sg51
I0
sg52
I0
ssg72
(dp1483
g49
I0
sg50
I0
sg51
I0
sg52
I0
ssg74
I0
sg75
I0
sg76
g32
sg78
I0
sg79
I0
sg80
I00
sg81
I0
sg62
g63
sg87
(dp1484
g99
I0
sg90
I0
sg91
I0
sg92
I0
sg97
I0
sg89
I0
sg94
I0
sg96
I0
sg93
I0
sg98
I0
sg95
I0
sg100
I0
sg101
I0
sg102
I0
sg103
I0
ssg104
(dp1485
sg124
I0
sg125
g32
sg126
I0
sg127
I0
sg128
F0.0
sg129
I0
sg130
I0
sg131
I0
sg132
(dp1486
g89
I8
sg90
I10
sg91
I6
sg92
I10
sg97
I7
sg95
I7
sg94
I2
sg96
I8
sg93
I4
sg98
I6
sg99
I7
sg100
I12
sg101
I3
sg102
I9
sg103
I7
ssg134
I0
sg135
I0
sg136
I0
sg137
I0
sg138
I0
sg139
I0
sg140
I0
sg141
g32
sbsS's11'
p1487
(ijoueur
joueur
p1488
(dp1489
g27
I0
sg28
I0
sg29
I0
sg33
I0
sg35
g36
(g37
g38
Ntp1490
Rp1491
(dp1492
g43
g32
sbsg47
(dp1493
g49
I0
sg50
I0
sg51
I0
sg52
I0
ssg53
(dp1494
g49
I0
sg50
I0
sg51
I0
sg52
I0
ssg55
I0
sg56
g32
sg57
I0
sg59
I0
sg60
I0
sg61
I0
sg82
g1476
sg64
I00
sg65
g36
(g37
g38
Ntp1495
Rp1496
(dp1497
g43
g32
sbsg66
(dp1498
g49
I0
sg50
I0
sg51
I0
sg52
I0
ssg68
(dp1499
g49
I0
sg50
I0
sg51
I0
sg52
I0
ssg70
(dp1500
g49
I0
sg50
I0
sg51
I0
sg52
I0
ssg72
(dp1501
g49
I0
sg50
I0
sg51
I0
sg52
I0
ssg74
I0
sg75
I0
sg76
g32
sg78
I0
sg79
I0
sg80
I00
sg81
I0
sg62
g63
sg87
(dp1502
g99
I0
sg90
I0
sg91
I0
sg92
I0
sg97
I0
sg89
I0
sg94
I0
sg96
I0
sg93
I0
sg98
I0
sg95
I0
sg100
I0
sg101
I0
sg102
I0
sg103
I0
ssg104
(dp1503
sg124
I0
sg125
g32
sg126
I0
sg127
I0
sg128
F0.0
sg129
I0
sg130
I0
sg131
I0
sg132
g1486
sg134
I0
sg135
I0
sg136
I0
sg137
I0
sg138
I0
sg139
I0
sg140
I0
sg141
g32
sbssg124
I8
sg125
g32
sg126
I0
sg127
I0
sg128
F9.592592592592593
sg129
I0
sg130
I0
sg131
I1
sg132
g1486
sg134
I0
sg135
I0
sg136
I0
sg137
I0
sg138
I1
sg139
I0
sg140
I1
sg141
g159
sbsS'n7'
p1504
(ijoueur
joueur
p1505
(dp1506
g27
I0
sg28
I0
sg29
I0
sg30
F18.375990597976497
sg31
g32
sg33
I0
sg34
g32
sg35
g36
(g37
g38
Ntp1507
Rp1508
(dp1509
g42
I1
sg43
S'>'
p1510
sg45
g1025
sbsg47
(dp1511
g1027
I0
sg1028
I0
sg1029
I0
sg1030
I0
ssg53
(dp1512
g1027
I0
sg1028
I0
sg1029
I0
sg1030
I0
ssg55
I21
sg56
g32
sg57
I0
sg58
F18.375990597976497
sg59
I0
sg60
I0
sg61
I0
sg62
g1032
sg64
I00
sg65
g1508
sg66
(dp1513
g1027
I0
sg1028
I0
sg1029
I2
sg1030
I0
ssg80
I00
sg70
(dp1514
g1027
I0
sg1028
I0
sg1029
I0
sg1030
I0
ssg72
(dp1515
g1027
I0
sg1028
I0
sg1029
I2
sg1030
I0
ssg74
I0
sg75
I0
sg76
S'Ipou'
p1516
sg78
I8
sg79
I0
sg68
(dp1517
g1027
I0
sg1028
I0
sg1029
I0
sg1030
I0
ssg81
I19
sg82
(g1038
g1039
S'DL'
p1518
g32
tp1519
sg86
g32
sg87
(dp1520
g1042
I6
sg1043
I8
sg1044
I6
sg1045
I9
sg1046
I5
sg1047
I3
sg1048
I9
sg1049
I7
sg1050
I7
sg1051
I7
sg1052
I7
sg1053
I7
sg1054
I3
sg1055
I9
sg1056
I3
ssg104
(dp1521
S's12'
p1522
(ijoueur
joueur
p1523
(dp1524
g27
I0
sg28
I0
sg29
I0
sg33
I0
sg35
g36
(g37
g38
Ntp1525
Rp1526
(dp1527
g43
g32
sbsg47
(dp1528
g1027
I0
sg1028
I0
sg1029
I0
sg1030
I0
ssg53
(dp1529
g1027
I0
sg1028
I0
sg1029
I0
sg1030
I0
ssg55
I0
sg56
g32
sg57
I0
sg59
I0
sg60
I0
sg61
I0
sg82
(g1038
g1039
g32
g32
tp1530
sg64
I00
sg65
g36
(g37
g38
Ntp1531
Rp1532
(dp1533
g43
g32
sbsg66
(dp1534
g1027
I0
sg1028
I0
sg1029
I0
sg1030
I0
ssg80
I00
sg70
(dp1535
g1027
I0
sg1028
I0
sg1029
I0
sg1030
I0
ssg72
(dp1536
g1027
I0
sg1028
I0
sg1029
I0
sg1030
I0
ssg74
I0
sg75
I0
sg76
g32
sg78
I0
sg79
I0
sg68
(dp1537
g1027
I0
sg1028
I0
sg1029
I0
sg1030
I0
ssg81
I0
sg62
g1032
sg87
(dp1538
g1052
I0
sg1043
I0
sg1044
I0
sg1045
I0
sg1050
I0
sg1042
I0
sg1047
I0
sg1049
I0
sg1046
I0
sg1051
I0
sg1048
I0
sg1053
I0
sg1054
I0
sg1055
I0
sg1056
I0
ssg104
(dp1539
sg124
I0
sg125
g32
sg126
I0
sg127
I0
sg128
F0.0
sg129
I0
sg130
I0
sg131
I0
sg132
(dp1540
g1042
I6
sg1043
I8
sg1044
I6
sg1045
I9
sg1050
I7
sg1048
I9
sg1047
I3
sg1049
I7
sg1046
I5
sg1051
I7
sg1052
I7
sg1053
I7
sg1054
I3
sg1055
I9
sg1056
I3
ssg134
I0
sg135
I0
sg136
I0
sg137
I0
sg138
I0
sg139
I0
sg140
I0
sg141
g32
sbsS's11'
p1541
(ijoueur
joueur
p1542
(dp1543
g27
I0
sg28
I0
sg29
I0
sg33
I0
sg35
g36
(g37
g38
Ntp1544
Rp1545
(dp1546
g43
g32
sbsg47
(dp1547
g1027
I0
sg1028
I0
sg1029
I0
sg1030
I0
ssg53
(dp1548
g1027
I0
sg1028
I0
sg1029
I0
sg1030
I0
ssg55
I0
sg56
g32
sg57
I0
sg59
I0
sg60
I0
sg61
I0
sg82
g1530
sg64
I00
sg65
g36
(g37
g38
Ntp1549
Rp1550
(dp1551
g43
g32
sbsg66
(dp1552
g1027
I0
sg1028
I0
sg1029
I0
sg1030
I0
ssg80
I00
sg70
(dp1553
g1027
I0
sg1028
I0
sg1029
I0
sg1030
I0
ssg72
(dp1554
g1027
I0
sg1028
I0
sg1029
I0
sg1030
I0
ssg74
I0
sg75
I0
sg76
g32
sg78
I0
sg79
I0
sg68
(dp1555
g1027
I0
sg1028
I0
sg1029
I0
sg1030
I0
ssg81
I0
sg62
g1032
sg87
(dp1556
g1052
I0
sg1043
I0
sg1044
I0
sg1045
I0
sg1050
I0
sg1042
I0
sg1047
I0
sg1049
I0
sg1046
I0
sg1051
I0
sg1048
I0
sg1053
I0
sg1054
I0
sg1055
I0
sg1056
I0
ssg104
(dp1557
sg124
I0
sg125
g32
sg126
I0
sg127
I0
sg128
F0.0
sg129
I0
sg130
I0
sg131
I0
sg132
g1540
sg134
I0
sg135
I0
sg136
I0
sg137
I0
sg138
I0
sg139
I0
sg140
I0
sg141
g32
sbssg124
I0
sg125
g32
sg126
I0
sg127
I0
sg128
F7.838709677419355
sg129
I0
sg130
I0
sg131
I0
sg132
g1540
sg134
I0
sg135
I0
sg136
I0
sg137
I0
sg138
I1
sg139
I0
sg140
I0
sg141
g1094
sbssS'remplacements'
p1558
(dp1559
g816
S'n0'
p1560
sg834
g1560
sg1017
g1560
sg1018
g1560
sg1095
g1560
sg1112
g1560
sg1333
g1560
ssb.