(iclub
compo
p0
(dp1
S'caracs_old'
p2
(dp3
S'A'
p4
F140.0
sS'ME'
p5
F146.5
sS'E'
p6
I215
sS'OplusAV'
p7
F115.5
sS'OplusAR'
p8
F126.0
sS'JP'
p9
F81.0
sS'PA'
p10
F69.0
sS'M'
p11
F81.0
sS'OmoinsAR'
p12
F71.5
sS'TO_off'
p13
F83.0
sS'TO_def'
p14
F70.0
sS'OmoinsAV'
p15
F80.0
sS'R'
p16
F224.0
ssS'totaux_old'
p17
(dp18
S'T2'
p19
F145.0
sS'T3'
p20
F107.5
sS'T1'
p21
F223.5
ssS'roles'
p22
(dp23
S'SA_scd'
p24
(ijoueur
joueur
p25
(dp26
S'EV_saison_11'
p27
F10.67741935483871
sS'rouges_total'
p28
I0
sS'drops_total'
p29
I0
sS'blessure'
p30
I0
sS'RG_max'
p31
ccopy_reg
_reconstructor
p32
(cjoueur
rang_new
p33
c__builtin__
object
p34
Ntp35
Rp36
(dp37
S'type_nb'
p38
I5
sS'rang'
p39
S'**'
p40
sS'type'
p41
S'seigneur'
p42
sbsS'MJ2_total'
p43
(dp44
S'SR'
p45
I0
sS'ST'
p46
I0
sS'CR'
p47
I2
sS'CT'
p48
I0
ssS'MJ3_total'
p49
(dp50
g45
I0
sg46
I0
sg47
I0
sg48
I0
ssS'drop_rates_total'
p51
I0
sS'drop_rates_saison'
p52
I0
sS'MS_probleme'
p53
I00
sS'essais_saison'
p54
I0
sS'penalite_ratees_saison'
p55
I0
sS'transformations_saison'
p56
I0
sS'postes'
p57
(S'dummy'
p58
S'TL'
p59
S'N8'
p60
S''
p61
tp62
sS'veut_partir'
p63
I00
sS'RG'
p64
g32
(g33
g34
Ntp65
Rp66
(dp67
g38
I5
sg39
S'**'
p68
sg41
g42
sbsS'MJ1'
p69
(dp70
S'SR'
p71
I0
sS'ST'
p72
I0
sS'CR'
p73
I0
sS'CT'
p74
I13
ssS'MJ2'
p75
(dp76
g71
I0
sg72
I0
sg73
I0
sg74
I0
ssS'MJ3'
p77
(dp78
g71
I0
sg72
I0
sg73
I0
sg74
I0
ssS'MJ1_total'
p79
(dp80
g45
I0
sg46
I5
sg47
I5
sg48
I20
ssS'penalites_total'
p81
I0
sS'penalites_saison'
p82
I0
sS'nom'
p83
S'Gardot'
p84
sS'C'
p85
I6
sS'transformations_total'
p86
I0
sS'D'
p87
I15
sS'VAL'
p88
I323
sS'club'
p89
S'KH'
p90
sS'caracs'
p91
(dp92
S'A'
p93
I10
sS'ME'
p94
I12
sS'RP2'
p95
I7
sS'E'
p96
I9
sS'P'
p97
I6
sS'RP1'
p98
I9
sS'JP'
p99
I5
sS'RP_tot'
p100
I9
sS'TO'
p101
I9
sS'PA'
p102
I7
sS'M'
p103
I10
sS'R'
p104
I11
sS'TB'
p105
I5
sS'PL'
p106
I15
sS'TA'
p107
I8
ssS'jj_passe'
p108
(dp109
S's11'
p110
(ijoueur
joueur
p111
(dp112
g28
I0
sg29
I0
sg30
I0
sg31
g32
(g33
g34
Ntp113
Rp114
(dp115
g38
I5
sg39
S'**'
p116
sg41
S'seigneur'
p117
sbsg43
(dp118
S'SR'
p119
I0
sS'CT'
p120
I0
sS'CR'
p121
I2
sS'ST'
p122
I0
ssg49
(dp123
g119
I0
sg120
I0
sg121
I0
sg122
I0
ssg51
I0
sg52
I0
sg53
I00
sg54
I0
sg55
I0
sg56
I0
sg57
(S'dummy'
p124
S'TL'
p125
S'N8'
p126
g61
tp127
sg63
I00
sg64
g32
(g33
g34
Ntp128
Rp129
(dp130
g38
I5
sg39
S'**'
p131
sg41
g117
sbsg69
(dp132
g119
I0
sg120
I7
sg121
I5
sg122
I5
ssg75
(dp133
g119
I0
sg120
I0
sg121
I2
sg122
I0
ssg77
(dp134
g119
I0
sg120
I0
sg121
I0
sg122
I0
ssg79
(dp135
g119
I0
sg120
I7
sg121
I5
sg122
I5
ssg81
I0
sg82
I0
sg83
S'Gardot'
p136
sg85
I6
sg86
I0
sg87
I15
sg88
I323
sg89
S'KH'
p137
sg91
(dp138
S'A'
p139
I11
sS'ME'
p140
I11
sS'RP2'
p141
I7
sS'E'
p142
I9
sS'P'
p143
I6
sS'RP1'
p144
I9
sS'JP'
p145
I5
sS'RP_tot'
p146
I9
sS'TO'
p147
I9
sS'PA'
p148
I7
sS'M'
p149
I10
sS'R'
p150
I11
sS'TB'
p151
I5
sS'PL'
p152
I13
sS'TA'
p153
I8
ssS'fatigue'
p154
I0
sS'drop_ratees_total'
p155
I0
sS'blessures_total'
p156
I0
sS'XP'
p157
I0
sS'EV'
p158
F10.67741935483871
sS'penalite_ratees_total'
p159
I0
sS'blessures_saison'
p160
I0
sS'jaunes_total'
p161
I0
sS'caracs_saison_11'
p162
(dp163
S'A'
p164
I11
sS'ME'
p165
I11
sS'RP2'
p166
I7
sS'E'
p167
I9
sS'P'
p168
I6
sS'RP1'
p169
I9
sS'JP'
p170
I5
sS'RP_tot'
p171
I9
sS'TO'
p172
I9
sS'PA'
p173
I7
sS'M'
p174
I10
sS'R'
p175
I11
sS'TB'
p176
I5
sS'PL'
p177
I13
sS'TA'
p178
I8
ssS'caracs_sans_fatigue'
p179
g138
sS'rouges_saison'
p180
I0
sS'anciens_clubs'
p181
S'MDL 9'
p182
sS'transformation_ratees_total'
p183
I0
sS'drops_saison'
p184
I0
sS'transformation_ratees_saison'
p185
I0
sS'MS'
p186
I26
sS'essais_total'
p187
I6
sS'jaunes_saison'
p188
I0
sS'ARM'
p189
S'OG'
p190
sbssg154
I0
sg155
I0
sg156
I0
sg157
I0
sg158
F11.03225806451613
sg159
I0
sg160
I0
sg161
I0
sg162
(dp191
S'A'
p192
I11
sS'ME'
p193
I11
sS'RP2'
p194
I7
sS'E'
p195
I9
sS'P'
p196
I6
sS'RP1'
p197
I9
sS'JP'
p198
I5
sS'RP_tot'
p199
I9
sS'TO'
p200
I9
sS'PA'
p201
I7
sS'M'
p202
I10
sS'R'
p203
I11
sS'TB'
p204
I5
sS'PL'
p205
I13
sS'TA'
p206
I8
ssg179
(dp207
g93
I10
sg94
I12
sg95
I7
sg96
I9
sg101
I9
sg98
I9
sg99
I5
sg100
I9
sg97
I6
sg102
I7
sg103
I10
sg104
I11
sg105
I5
sg106
I15
sg107
I8
ssg180
I0
sg181
S'MDL 9'
p208
sg183
I0
sg184
I0
sg185
I0
sg186
I26
sg187
I6
sg188
I0
sg189
S'OG'
p209
sbsS'drop3'
p210
(ijoueur
joueur
p211
(dp212
g27
F10.757575757575758
sg28
I0
sg29
I1
sg30
I0
sg31
g32
(g33
g34
Ntp213
Rp214
(dp215
g38
I5
sg39
S'**'
p216
sg41
S'seigneur'
p217
sbsg43
(dp218
S'SR'
p219
I0
sS'CT'
p220
I28
sS'CR'
p221
I0
sS'ST'
p222
I5
ssg49
(dp223
g219
I0
sg220
I0
sg221
I0
sg222
I0
ssg51
I0
sg158
F10.151515151515152
sg52
I0
sS'transformations'
p224
I0
sS'penalites'
p225
I0
sg54
I2
sg55
I0
sg56
I0
sg57
(S'dummy'
p226
S'DO'
p227
S'CE'
p228
S'AI'
p229
tp230
sg63
I00
sg64
g32
(g33
g34
Ntp231
Rp232
(dp233
g38
I5
sg39
S'**'
p234
sg41
g217
sbsg69
(dp235
S'SR'
p236
I0
sS'ST'
p237
I0
sS'CR'
p238
I0
sS'CT'
p239
I0
ssg53
I00
sg77
(dp240
g236
I0
sg237
I0
sg238
I0
sg239
I0
ssg79
(dp241
g219
I0
sg220
I0
sg221
I0
sg222
I0
ssg81
I0
sg82
I0
sg83
S'Lebat'
p242
sg85
I6
sg86
I0
sg87
I14
sg88
I435
sg89
S'QNL'
p243
sg91
(dp244
S'A'
p245
I13
sS'ME'
p246
I5
sS'RP2'
p247
I6
sS'E'
p248
I11
sS'TO'
p249
I6
sS'RP1'
p250
I12
sS'JP'
p251
I9
sS'RP_tot'
p252
I12
sS'P'
p253
I3
sS'PA'
p254
I13
sS'M'
p255
I9
sS'R'
p256
I8
sS'TB'
p257
I9
sS'PL'
p258
I14
sS'TA'
p259
I7
ssg108
(dp260
S's11'
p261
(ijoueur
joueur
p262
(dp263
g28
I0
sg29
I1
sg30
I0
sg31
g32
(g33
g34
Ntp264
Rp265
(dp266
g38
I5
sg39
S'**'
p267
sg41
S'seigneur'
p268
sbsg43
(dp269
S'SR'
p270
I0
sS'CT'
p271
I14
sS'CR'
p272
I0
sS'ST'
p273
I5
ssg49
(dp274
g270
I0
sg271
I0
sg272
I0
sg273
I0
ssg75
(dp275
g270
I0
sg271
I14
sg272
I0
sg273
I5
ssg51
I0
sg52
I0
sg224
I0
sg225
I0
sg54
I1
sg55
I0
sg56
I0
sg57
(S'dummy'
p276
S'DO'
p277
S'CE'
p278
S'AI'
p279
tp280
sg63
I00
sg64
g32
(g33
g34
Ntp281
Rp282
(dp283
g38
I5
sg39
S'**'
p284
sg41
g268
sbsg69
(dp285
g270
I0
sg271
I0
sg272
I0
sg273
I0
ssg53
I00
sg77
(dp286
g270
I0
sg271
I0
sg272
I0
sg273
I0
ssg79
(dp287
g270
I0
sg271
I0
sg272
I0
sg273
I0
ssg81
I0
sg82
I0
sg83
S'Lebat'
p288
sg85
I6
sg86
I0
sg87
I14
sg88
I435
sg89
S'QNL'
p289
sg91
(dp290
S'A'
p291
I13
sS'ME'
p292
I5
sS'RP2'
p293
I6
sS'E'
p294
I11
sS'P'
p295
I7
sS'RP1'
p296
I12
sS'JP'
p297
I9
sS'RP_tot'
p298
I12
sS'TO'
p299
I6
sS'PA'
p300
I13
sS'M'
p301
I9
sS'R'
p302
I8
sS'TB'
p303
I8
sS'PL'
p304
I14
sS'TA'
p305
I7
ssg154
I0
sg155
I0
sg156
I0
sg157
I0
sg158
F10.757575757575758
sg159
I0
sS'drops'
p306
I0
sg160
I0
sg161
I0
sg162
(dp307
S'A'
p308
I13
sS'ME'
p309
I5
sS'RP2'
p310
I6
sS'E'
p311
I11
sS'P'
p312
I7
sS'RP1'
p313
I12
sS'JP'
p314
I9
sS'RP_tot'
p315
I12
sS'TO'
p316
I6
sS'PA'
p317
I13
sS'M'
p318
I9
sS'R'
p319
I8
sS'TB'
p320
I8
sS'PL'
p321
I14
sS'TA'
p322
I7
ssg179
g290
sg180
I0
sg181
S'MDL 11'
p323
sg183
I0
sg184
I1
sg185
I0
sg186
I53
sg187
I17
sg188
I0
sg189
S'OG'
p324
sbssg154
I0
sg155
I0
sg156
I0
sg157
I0
sg75
(dp325
g236
I0
sg237
I0
sg238
I0
sg239
I14
ssg159
I0
sg306
I0
sg160
I0
sg161
I1
sg162
(dp326
S'A'
p327
I13
sS'ME'
p328
I5
sS'RP2'
p329
I6
sS'E'
p330
I11
sS'TO'
p331
I6
sS'RP1'
p332
I12
sS'JP'
p333
I9
sS'RP_tot'
p334
I12
sS'P'
p335
I7
sS'PA'
p336
I13
sS'M'
p337
I9
sS'R'
p338
I8
sS'TB'
p339
I8
sS'PL'
p340
I14
sS'TA'
p341
I7
ssg179
(dp342
g245
I13
sg246
I5
sg247
I6
sg248
I11
sg253
I3
sg250
I12
sg251
I9
sg252
I12
sg249
I6
sg254
I13
sg255
I9
sg256
I8
sg257
I9
sg258
I14
sg259
I7
ssg180
I0
sg181
S'MDL 11'
p343
sg183
I0
sg184
I0
sg185
I0
sg186
I53
sg187
I19
sg188
I1
sg189
S'OG'
p344
sbsS'cap'
p345
(ijoueur
joueur
p346
(dp347
g27
F11.37037037037037
sg28
I1
sg29
I0
sg30
I0
sg31
g32
(g33
g34
Ntp348
Rp349
(dp350
g38
I4
sg39
S'x'
p351
sg41
S'heros'
p352
sbsg43
(dp353
S'SR'
p354
I0
sS'CT'
p355
I0
sS'CR'
p356
I0
sS'ST'
p357
I0
ssg49
(dp358
g354
I0
sg355
I0
sg356
I0
sg357
I0
ssg51
I0
sg158
F11.555555555555555
sg52
I0
sg224
I0
sg225
I0
sg54
I0
sg55
I0
sg56
I0
sg57
(S'dummy'
p359
S'PI'
p360
S'TA'
p361
S'N8'
p362
tp363
sg63
I00
sg64
g32
(g33
g34
Ntp364
Rp365
(dp366
g38
I4
sg39
g351
sg41
g352
sbsg69
(dp367
S'SR'
p368
I0
sS'CT'
p369
I13
sS'CR'
p370
I0
sS'ST'
p371
I0
ssg53
I00
sg77
(dp372
g368
I0
sg369
I0
sg370
I0
sg371
I0
ssg79
(dp373
g354
I0
sg355
I29
sg356
I0
sg357
I5
ssg81
I0
sg82
I0
sg83
S'Otopo'
p374
sg85
I8
sg86
I0
sg87
I20
sg88
I343
sg89
S'KAK'
p375
sg91
(dp376
S'A'
p377
I7
sS'ME'
p378
I11
sS'RP2'
p379
I10
sS'E'
p380
I13
sS'TO'
p381
I4
sS'RP1'
p382
I15
sS'JP'
p383
I8
sS'RP_tot'
p384
I18
sS'P'
p385
I6
sS'PA'
p386
I7
sS'M'
p387
I10
sS'R'
p388
I11
sS'TB'
p389
I5
sS'PL'
p390
I9
sS'TA'
p391
I10
ssg108
(dp392
S's11'
p393
(ijoueur
joueur
p394
(dp395
g28
I1
sg29
I0
sg30
I0
sg31
g32
(g33
g34
Ntp396
Rp397
(dp398
g38
I4
sg39
S'x'
p399
sg41
S'heros'
p400
sbsg43
(dp401
S'SR'
p402
I0
sS'CT'
p403
I0
sS'CR'
p404
I0
sS'ST'
p405
I0
ssg49
(dp406
g402
I0
sg403
I0
sg404
I0
sg405
I0
ssg51
I0
sg158
F11.37037037037037
sg52
I0
sg224
I0
sg225
I0
sg54
I2
sg55
I0
sg56
I0
sg57
(S'dummy'
p407
S'PI'
p408
S'TA'
p409
S'N8'
p410
tp411
sg63
I01
sg64
g32
(g33
g34
Ntp412
Rp413
(dp414
g38
I4
sg39
g399
sg41
g400
sbsg69
(dp415
g402
I0
sg403
I16
sg404
I0
sg405
I5
ssg53
I00
sg77
(dp416
g402
I0
sg403
I0
sg404
I0
sg405
I0
ssg79
(dp417
g402
I0
sg403
I16
sg404
I0
sg405
I5
ssg81
I0
sg82
I0
sg83
S'Otopo'
p418
sg85
I8
sg86
I0
sg87
I20
sg88
I343
sg89
S'KAK'
p419
sg91
(dp420
S'A'
p421
I8
sS'ME'
p422
I10
sS'RP2'
p423
I10
sS'E'
p424
I14
sS'P'
p425
I6
sS'RP1'
p426
I15
sS'JP'
p427
I7
sS'RP_tot'
p428
I18
sS'TO'
p429
I4
sS'PA'
p430
I7
sS'M'
p431
I10
sS'R'
p432
I10
sS'TB'
p433
I5
sS'PL'
p434
I9
sS'TA'
p435
I10
ssg154
I0
sg155
I0
sg156
I0
sg157
I0
sg75
(dp436
g402
I0
sg403
I0
sg404
I0
sg405
I0
ssg159
I0
sg306
I0
sg160
I0
sg161
I0
sg162
(dp437
S'A'
p438
I8
sS'ME'
p439
I10
sS'RP2'
p440
I10
sS'E'
p441
I14
sS'P'
p442
I6
sS'RP1'
p443
I15
sS'JP'
p444
I7
sS'RP_tot'
p445
I18
sS'TO'
p446
I4
sS'PA'
p447
I7
sS'M'
p448
I10
sS'R'
p449
I10
sS'TB'
p450
I5
sS'PL'
p451
I9
sS'TA'
p452
I10
ssg179
g420
sg180
I1
sg181
S'MDL 11'
p453
sg183
I0
sg184
I0
sg185
I0
sg186
I21
sg187
I12
sg188
I0
sg189
S'OG'
p454
sbssg154
I0
sg155
I0
sg156
I0
sg157
I0
sg75
(dp455
g368
I0
sg369
I0
sg370
I0
sg371
I0
ssg159
I0
sg306
I0
sg160
I0
sg161
I0
sg162
(dp456
S'A'
p457
I8
sS'ME'
p458
I10
sS'RP2'
p459
I10
sS'E'
p460
I14
sS'P'
p461
I6
sS'RP1'
p462
I15
sS'JP'
p463
I7
sS'RP_tot'
p464
I18
sS'TO'
p465
I4
sS'PA'
p466
I7
sS'M'
p467
I10
sS'R'
p468
I10
sS'TB'
p469
I5
sS'PL'
p470
I9
sS'TA'
p471
I10
ssg179
(dp472
g377
I7
sg378
I11
sg379
I10
sg380
I13
sg385
I6
sg382
I15
sg383
I8
sg384
I18
sg381
I4
sg386
I7
sg387
I10
sg388
I11
sg389
I5
sg390
I9
sg391
I10
ssg180
I0
sg181
S'MDL 11'
p473
sg183
I0
sg184
I0
sg185
I0
sg186
I21
sg187
I12
sg188
I0
sg189
S'OG'
p474
sbsS'SA_pcp1'
p475
(ijoueur
joueur
p476
(dp477
g27
F11.67741935483871
sg28
I0
sg29
I0
sg30
I0
sg31
g32
(g33
g34
Ntp478
Rp479
(dp480
g38
I5
sg39
S'**'
p481
sg41
S'seigneur'
p482
sbsg43
(dp483
S'SR'
p484
I0
sS'ST'
p485
I0
sS'CR'
p486
I0
sS'CT'
p487
I1
ssg49
(dp488
g484
I0
sg485
I0
sg486
I0
sg487
I0
ssg51
I0
sg52
I0
sg53
I01
sg54
I2
sg55
I0
sg56
I0
sg57
(S'dummy'
p489
S'TL'
p490
S'N8'
p491
g61
tp492
sg63
I00
sg64
g32
(g33
g34
Ntp493
Rp494
(dp495
g38
I5
sg39
S'**'
p496
sg41
g482
sbsg69
(dp497
S'SR'
p498
I0
sS'CT'
p499
I14
sS'CR'
p500
I0
sS'ST'
p501
I0
ssg75
(dp502
g498
I0
sg499
I0
sg500
I0
sg501
I0
ssg77
(dp503
g498
I0
sg499
I0
sg500
I0
sg501
I0
ssg79
(dp504
g484
I0
sg485
I5
sg486
I0
sg487
I26
ssg81
I0
sg82
I0
sg83
S'Hougrap'
p505
sg85
I8
sg86
I0
sg87
I17
sg88
I393
sg89
S'MRB'
p506
sg91
(dp507
S'A'
p508
I11
sS'ME'
p509
I10
sS'RP2'
p510
I8
sS'E'
p511
I11
sS'P'
p512
I5
sS'RP1'
p513
I10
sS'JP'
p514
I6
sS'RP_tot'
p515
I11
sS'TO'
p516
I10
sS'PA'
p517
I8
sS'M'
p518
I11
sS'R'
p519
I14
sS'TB'
p520
I6
sS'PL'
p521
I14
sS'TA'
p522
I4
ssg108
(dp523
S's11'
p524
(ijoueur
joueur
p525
(dp526
g28
I0
sg29
I0
sg30
I0
sg31
g32
(g33
g34
Ntp527
Rp528
(dp529
g38
I5
sg39
S'**'
p530
sg41
S'seigneur'
p531
sbsg43
(dp532
S'SR'
p533
I0
sS'CT'
p534
I1
sS'CR'
p535
I0
sS'ST'
p536
I0
ssg49
(dp537
g533
I0
sg534
I0
sg535
I0
sg536
I0
ssg51
I0
sg52
I0
sg53
I00
sg54
I1
sg55
I0
sg56
I0
sg57
(S'dummy'
p538
S'TL'
p539
S'N8'
p540
g61
tp541
sg63
I01
sg64
g32
(g33
g34
Ntp542
Rp543
(dp544
g38
I5
sg39
S'**'
p545
sg41
g531
sbsg69
(dp546
g533
I0
sg534
I12
sg535
I0
sg536
I5
ssg75
(dp547
g533
I0
sg534
I1
sg535
I0
sg536
I0
ssg77
(dp548
g533
I0
sg534
I0
sg535
I0
sg536
I0
ssg79
(dp549
g533
I0
sg534
I12
sg535
I0
sg536
I5
ssg81
I0
sg82
I0
sg83
S'Hougrap'
p550
sg85
I8
sg86
I0
sg87
I17
sg88
I200
sg89
S'BRB'
p551
sg91
(dp552
S'A'
p553
I11
sS'ME'
p554
I10
sS'RP2'
p555
I8
sS'E'
p556
I11
sS'P'
p557
I5
sS'RP1'
p558
I10
sS'JP'
p559
I6
sS'RP_tot'
p560
I11
sS'TO'
p561
I10
sS'PA'
p562
I8
sS'M'
p563
I9
sS'R'
p564
I13
sS'TB'
p565
I6
sS'PL'
p566
I13
sS'TA'
p567
I4
ssg154
I0
sg155
I0
sg156
I0
sg157
I0
sg158
F11.67741935483871
sg159
I0
sg160
I0
sg161
I0
sg162
(dp568
S'A'
p569
I11
sS'ME'
p570
I10
sS'RP2'
p571
I8
sS'E'
p572
I11
sS'P'
p573
I5
sS'RP1'
p574
I10
sS'JP'
p575
I6
sS'RP_tot'
p576
I11
sS'TO'
p577
I10
sS'PA'
p578
I8
sS'M'
p579
I9
sS'R'
p580
I13
sS'TB'
p581
I6
sS'PL'
p582
I13
sS'TA'
p583
I4
ssg179
g552
sg180
I0
sg181
g61
sg183
I0
sg184
I0
sg185
I0
sg186
I20
sg187
I3
sg188
I0
sg189
S'OG'
p584
sbssg154
I1
sg155
I0
sg156
I0
sg157
I0
sg158
F12.290322580645162
sg159
I0
sg160
I0
sg161
I1
sg162
(dp585
S'A'
p586
I11
sS'ME'
p587
I10
sS'RP2'
p588
I8
sS'E'
p589
I11
sS'TO'
p590
I10
sS'RP1'
p591
I10
sS'JP'
p592
I6
sS'RP_tot'
p593
I11
sS'P'
p594
I5
sS'PA'
p595
I8
sS'M'
p596
I9
sS'R'
p597
I13
sS'TB'
p598
I6
sS'PL'
p599
I13
sS'TA'
p600
I4
ssg179
(dp601
g508
I11
sg509
I10
sg510
I8
sg511
I11
sg516
I10
sg513
I10
sg514
I6
sg515
I11
sg512
I5
sg517
I8
sg518
I11
sg519
I14
sg520
I6
sg521
I14
sg522
I4
ssg180
I0
sg181
S'BRB 12'
p602
sg183
I0
sg184
I0
sg185
I0
sg186
I20
sg187
I5
sg188
I1
sg189
S'OG'
p603
sbsS'B4'
p604
(ijoueur
joueur
p605
(dp606
g27
F10.033333333333333
sg28
I0
sg29
I1
sg30
I0
sg31
g32
(g33
g34
Ntp607
Rp608
(dp609
g38
I4
sg39
S'x'
p610
sg41
S'heros'
p611
sbsg43
(dp612
S'SR'
p613
I0
sS'ST'
p614
I5
sS'CR'
p615
I6
sS'CT'
p616
I0
ssg49
(dp617
g613
I0
sg614
I0
sg615
I0
sg616
I0
ssg75
(dp618
g498
I0
sg499
I0
sg500
I6
sg501
I0
ssg51
I0
sg52
I0
sg224
I0
sg225
I1
sg54
I0
sg55
I0
sg56
I0
sg57
(S'dummy'
p619
S'C1'
p620
S'DO'
p621
g61
tp622
sg63
I01
sg64
g32
(g33
g34
Ntp623
Rp624
(dp625
g38
I4
sg39
g610
sg41
g611
sbsg69
(dp626
g498
I0
sg499
I7
sg500
I4
sg501
I0
ssg53
I00
sg77
(dp627
g498
I0
sg499
I0
sg500
I0
sg501
I0
ssg79
(dp628
g613
I0
sg614
I0
sg615
I4
sg616
I17
ssg81
I0
sg82
I0
sg83
S'Jopleur'
p629
sg85
I8
sg86
I0
sg87
I20
sg88
I100
sg89
g506
sg91
(dp630
S'A'
p631
I8
sS'ME'
p632
I6
sS'RP2'
p633
I7
sS'E'
p634
I10
sS'P'
p635
I12
sS'RP1'
p636
I12
sS'JP'
p637
I10
sS'RP_tot'
p638
I12
sS'TO'
p639
I2
sS'PA'
p640
I7
sS'M'
p641
I11
sS'R'
p642
I5
sS'TB'
p643
I10
sS'PL'
p644
I10
sS'TA'
p645
I8
ssg108
(dp646
g524
(ijoueur
joueur
p647
(dp648
g28
I0
sg29
I1
sg30
I0
sg31
g32
(g33
g34
Ntp649
Rp650
(dp651
g38
I4
sg39
S'x'
p652
sg41
S'heros'
p653
sbsg43
(dp654
S'SR'
p655
I0
sS'CT'
p656
I0
sS'CR'
p657
I0
sS'ST'
p658
I5
ssg49
(dp659
g655
I0
sg656
I0
sg657
I0
sg658
I0
ssg75
(dp660
g655
I0
sg656
I0
sg657
I0
sg658
I5
ssg51
I0
sg52
I0
sg224
I0
sg225
I1
sg54
I1
sg55
I0
sg56
I0
sg57
(S'dummy'
p661
S'C1'
p662
S'DO'
p663
g61
tp664
sg63
I00
sg64
g32
(g33
g34
Ntp665
Rp666
(dp667
g38
I4
sg39
g652
sg41
g653
sbsg69
(dp668
g655
I0
sg656
I10
sg657
I0
sg658
I0
ssg53
I00
sg77
(dp669
g655
I0
sg656
I0
sg657
I0
sg658
I0
ssg79
(dp670
g655
I0
sg656
I10
sg657
I0
sg658
I0
ssg81
I0
sg82
I0
sg83
S'Jopleur'
p671
sg85
I8
sg86
I0
sg87
I20
sg88
I100
sg89
S'MRB'
p672
sg91
(dp673
S'A'
p674
I8
sS'ME'
p675
I6
sS'RP2'
p676
I8
sS'E'
p677
I12
sS'P'
p678
I13
sS'RP1'
p679
I12
sS'JP'
p680
I10
sS'RP_tot'
p681
I13
sS'TO'
p682
I2
sS'PA'
p683
I7
sS'M'
p684
I11
sS'R'
p685
I6
sS'TB'
p686
I9
sS'PL'
p687
I10
sS'TA'
p688
I8
ssg154
I0
sg155
I0
sg156
I1
sg157
I0
sg158
F10.033333333333333
sg159
I0
sg306
I0
sg160
I1
sg161
I0
sg162
(dp689
S'A'
p690
I8
sS'ME'
p691
I6
sS'RP2'
p692
I8
sS'E'
p693
I12
sS'P'
p694
I13
sS'RP1'
p695
I12
sS'JP'
p696
I10
sS'RP_tot'
p697
I13
sS'TO'
p698
I2
sS'PA'
p699
I7
sS'M'
p700
I11
sS'R'
p701
I6
sS'TB'
p702
I9
sS'PL'
p703
I10
sS'TA'
p704
I8
ssg179
g673
sg180
I0
sg181
S'ED 10'
p705
sg183
I0
sg184
I1
sg185
I0
sg186
I11
sg187
I2
sg188
I0
sg189
S'OG'
p706
sbssg154
I0
sg155
I0
sg156
I1
sg157
I0
sg158
F9.53125
sg159
I0
sg306
I0
sg160
I0
sg161
I0
sg162
(dp707
S'A'
p708
I8
sS'ME'
p709
I6
sS'RP2'
p710
I8
sS'E'
p711
I12
sS'TO'
p712
I2
sS'RP1'
p713
I12
sS'JP'
p714
I10
sS'RP_tot'
p715
I13
sS'P'
p716
I13
sS'PA'
p717
I7
sS'M'
p718
I11
sS'R'
p719
I6
sS'TB'
p720
I9
sS'PL'
p721
I10
sS'TA'
p722
I8
ssg179
(dp723
g631
I8
sg632
I6
sg633
I7
sg634
I10
sg639
I2
sg636
I12
sg637
I10
sg638
I12
sg635
I12
sg640
I7
sg641
I11
sg642
I5
sg643
I10
sg644
I10
sg645
I8
ssg180
I0
sg181
S'ED 10'
p724
sg183
I0
sg184
I0
sg185
I0
sg186
I11
sg187
I2
sg188
I0
sg189
S'OG'
p725
sbsS'RJC'
p726
g605
sS'B1'
p727
g605
sS'B2'
p728
g605
sS'B3'
p729
g605
sS'SA_pcp2'
p730
(ijoueur
joueur
p731
(dp732
g27
F11.88888888888889
sg28
I0
sg29
I0
sg30
I0
sg31
g32
(g33
g34
Ntp733
Rp734
(dp735
g38
I5
sg39
S'**'
p736
sg41
S'seigneur'
p737
sbsg43
(dp738
S'SR'
p739
I0
sS'ST'
p740
I0
sS'CR'
p741
I0
sS'CT'
p742
I13
ssg49
(dp743
g739
I0
sg740
I0
sg741
I0
sg742
I0
ssg51
I0
sg52
I0
sg53
I00
sg54
I0
sg55
I0
sg56
I0
sg57
(S'dummy'
p744
S'DL'
p745
S'PI'
p746
g61
tp747
sg63
I01
sg64
g32
(g33
g34
Ntp748
Rp749
(dp750
g38
I5
sg39
S'**'
p751
sg41
g737
sbsg69
(dp752
S'SR'
p753
I0
sS'ST'
p754
I0
sS'CR'
p755
I1
sS'CT'
p756
I11
ssg75
(dp757
g753
I0
sg754
I0
sg755
I0
sg756
I0
ssg77
(dp758
g753
I0
sg754
I0
sg755
I0
sg756
I0
ssg79
(dp759
g739
I0
sg740
I5
sg741
I1
sg742
I12
ssg81
I0
sg82
I0
sg83
S'Petod'
p760
sg85
I6
sg86
I0
sg87
I15
sg88
I200
sg89
S'MDL'
p761
sg91
(dp762
S'A'
p763
I10
sS'ME'
p764
I15
sS'RP2'
p765
I6
sS'E'
p766
I10
sS'P'
p767
I4
sS'RP1'
p768
I14
sS'JP'
p769
I3
sS'RP_tot'
p770
I14
sS'TO'
p771
I10
sS'PA'
p772
I7
sS'M'
p773
I8
sS'R'
p774
I11
sS'TB'
p775
I3
sS'PL'
p776
I11
sS'TA'
p777
I6
ssg108
(dp778
S's11'
p779
(ijoueur
joueur
p780
(dp781
g28
I0
sg29
I0
sg30
I0
sg31
g32
(g33
g34
Ntp782
Rp783
(dp784
g38
I5
sg39
S'**'
p785
sg41
S'seigneur'
p786
sbsg43
(dp787
S'SR'
p788
I0
sS'ST'
p789
I0
sS'CR'
p790
I0
sS'CT'
p791
I13
ssg49
(dp792
g788
I0
sg789
I0
sg790
I0
sg791
I0
ssg51
I0
sg52
I0
sg53
I00
sg54
I1
sg55
I0
sg56
I0
sg57
(S'dummy'
p793
S'DL'
p794
S'PI'
p795
g61
tp796
sg63
I00
sg64
g32
(g33
g34
Ntp797
Rp798
(dp799
g38
I5
sg39
S'**'
p800
sg41
g786
sbsg69
(dp801
g788
I0
sg789
I5
sg790
I0
sg791
I1
ssg75
(dp802
g788
I0
sg789
I0
sg790
I0
sg791
I13
ssg77
(dp803
g788
I0
sg789
I0
sg790
I0
sg791
I0
ssg79
(dp804
g788
I0
sg789
I5
sg790
I0
sg791
I1
ssg81
I0
sg82
I0
sg83
S'Petod'
p805
sg85
I6
sg86
I0
sg87
I15
sg88
I200
sg89
S'MDL'
p806
sg91
(dp807
S'A'
p808
I10
sS'ME'
p809
I16
sS'RP2'
p810
I8
sS'E'
p811
I10
sS'TO'
p812
I11
sS'RP1'
p813
I14
sS'JP'
p814
I3
sS'RP_tot'
p815
I15
sS'P'
p816
I4
sS'PA'
p817
I7
sS'M'
p818
I9
sS'R'
p819
I11
sS'TB'
p820
I3
sS'PL'
p821
I11
sS'TA'
p822
I7
ssg154
I0
sg155
I0
sg156
I0
sg157
I0
sg158
F11.88888888888889
sg159
I0
sg160
I0
sg161
I0
sg162
(dp823
S'A'
p824
I10
sS'ME'
p825
I16
sS'RP2'
p826
I8
sS'E'
p827
I10
sS'TO'
p828
I11
sS'RP1'
p829
I14
sS'JP'
p830
I3
sS'RP_tot'
p831
I15
sS'P'
p832
I4
sS'PA'
p833
I7
sS'M'
p834
I9
sS'R'
p835
I11
sS'TB'
p836
I3
sS'PL'
p837
I11
sS'TA'
p838
I7
ssg179
g807
sg180
I0
sg181
g61
sg183
I0
sg184
I0
sg185
I0
sg186
I38
sg187
I15
sg188
I0
sg189
S'OG'
p839
sbssg154
I0
sg155
I0
sg156
I1
sg157
I0
sg158
F11.555555555555555
sg159
I0
sg160
I1
sg161
I0
sg162
(dp840
S'A'
p841
I10
sS'ME'
p842
I16
sS'RP2'
p843
I8
sS'E'
p844
I10
sS'P'
p845
I4
sS'RP1'
p846
I14
sS'JP'
p847
I3
sS'RP_tot'
p848
I15
sS'TO'
p849
I11
sS'PA'
p850
I7
sS'M'
p851
I9
sS'R'
p852
I11
sS'TB'
p853
I3
sS'PL'
p854
I11
sS'TA'
p855
I7
ssg179
(dp856
g763
I10
sg764
I15
sg765
I6
sg766
I10
sg771
I10
sg768
I14
sg769
I3
sg770
I14
sg767
I4
sg772
I7
sg773
I8
sg774
I11
sg775
I3
sg776
I11
sg777
I6
ssg180
I0
sg181
g61
sg183
I0
sg184
I0
sg185
I0
sg186
I38
sg187
I15
sg188
I0
sg189
S'OG'
p857
sbsS'drop2'
p858
g605
sS'RJL'
p859
g605
sS'SA_remp1'
p860
(ijoueur
joueur
p861
(dp862
g27
F10.62962962962963
sg28
I0
sg29
I0
sg30
I0
sg31
g32
(g33
g34
Ntp863
Rp864
(dp865
g38
I5
sg39
S'**'
p866
sg41
g737
sbsg43
(dp867
g739
I0
sg740
I0
sg741
I0
sg742
I11
ssg49
(dp868
g739
I0
sg740
I0
sg741
I0
sg742
I0
ssg51
I0
sg52
I0
sg53
I00
sg54
I2
sg55
I0
sg56
I0
sg57
(g744
S'DL'
p869
S'PI'
p870
g61
tp871
sg63
I00
sg64
g32
(g33
g34
Ntp872
Rp873
(dp874
g38
I5
sg39
S'**'
p875
sg41
g737
sbsg69
(dp876
g753
I0
sg754
I0
sg755
I0
sg756
I1
ssg75
(dp877
g753
I0
sg754
I0
sg755
I0
sg756
I11
ssg77
(dp878
g753
I0
sg754
I0
sg755
I0
sg756
I0
ssg79
(dp879
g739
I0
sg740
I5
sg741
I0
sg742
I15
ssg81
I0
sg82
I0
sg83
S'Fregort'
p880
sg85
I2
sg86
I0
sg87
I12
sg88
I200
sg89
g761
sg91
(dp881
g763
I9
sg764
I13
sg765
I7
sg766
I10
sg767
I6
sg768
I12
sg769
I5
sg770
I12
sg771
I9
sg772
I7
sg773
I7
sg774
I9
sg775
I5
sg776
I9
sg777
I8
ssg108
(dp882
g779
(ijoueur
joueur
p883
(dp884
g28
I0
sg29
I0
sg30
I0
sg31
g32
(g33
g34
Ntp885
Rp886
(dp887
g38
I5
sg39
S'**'
p888
sg41
S'seigneur'
p889
sbsg43
(dp890
S'SR'
p891
I0
sS'ST'
p892
I0
sS'CR'
p893
I0
sS'CT'
p894
I0
ssg49
(dp895
g891
I0
sg892
I0
sg893
I0
sg894
I0
ssg51
I0
sg52
I0
sg53
I00
sg54
I2
sg55
I0
sg56
I0
sg57
(S'dummy'
p896
S'DL'
p897
S'PI'
p898
g61
tp899
sg63
I00
sg64
g32
(g33
g34
Ntp900
Rp901
(dp902
g38
I5
sg39
S'**'
p903
sg41
g889
sbsg69
(dp904
g891
I0
sg892
I5
sg893
I0
sg894
I14
ssg75
(dp905
g891
I0
sg892
I0
sg893
I0
sg894
I0
ssg77
(dp906
g891
I0
sg892
I0
sg893
I0
sg894
I0
ssg79
(dp907
g891
I0
sg892
I5
sg893
I0
sg894
I14
ssg81
I0
sg82
I0
sg83
S'Fregort'
p908
sg85
I2
sg86
I0
sg87
I12
sg88
I200
sg89
S'MDL'
p909
sg91
(dp910
S'A'
p911
I9
sS'ME'
p912
I13
sS'RP2'
p913
I7
sS'E'
p914
I11
sS'TO'
p915
I10
sS'RP1'
p916
I12
sS'JP'
p917
I5
sS'RP_tot'
p918
I12
sS'P'
p919
I6
sS'PA'
p920
I7
sS'M'
p921
I8
sS'R'
p922
I10
sS'TB'
p923
I5
sS'PL'
p924
I10
sS'TA'
p925
I8
ssg154
I0
sg155
I0
sg156
I0
sg157
I0
sg158
F10.62962962962963
sg159
I0
sg160
I0
sg161
I0
sg162
(dp926
S'A'
p927
I9
sS'ME'
p928
I13
sS'RP2'
p929
I7
sS'E'
p930
I11
sS'TO'
p931
I10
sS'RP1'
p932
I12
sS'JP'
p933
I5
sS'RP_tot'
p934
I12
sS'P'
p935
I6
sS'PA'
p936
I7
sS'M'
p937
I8
sS'R'
p938
I10
sS'TB'
p939
I5
sS'PL'
p940
I10
sS'TA'
p941
I8
ssg179
g910
sg180
I0
sg181
g61
sg183
I0
sg184
I0
sg185
I0
sg186
I20
sg187
I9
sg188
I0
sg189
S'OG'
p942
sbssg154
I0
sg155
I0
sg156
I0
sg157
I0
sg158
F10.037037037037036
sg159
I0
sg160
I0
sg161
I0
sg162
(dp943
g841
I9
sg842
I13
sg843
I7
sg844
I11
sg845
I6
sg846
I12
sg847
I5
sg848
I12
sg849
I10
sg850
I7
sg851
I8
sg852
I10
sg853
I5
sg854
I10
sg855
I8
ssg179
(dp944
g763
I9
sg764
I13
sg765
I7
sg766
I10
sg771
I9
sg768
I12
sg769
I5
sg770
I12
sg767
I6
sg772
I7
sg773
I7
sg774
I9
sg775
I5
sg776
I9
sg777
I8
ssg180
I0
sg181
g61
sg183
I0
sg184
I0
sg185
I0
sg186
I20
sg187
I11
sg188
I0
sg189
S'OG'
p945
sbsS'drop1'
p946
(ijoueur
joueur
p947
(dp948
g27
F10.727272727272727
sg28
I0
sg29
I2
sg30
I0
sg31
g32
(g33
g34
Ntp949
Rp950
(dp951
g38
I3
sg39
S'^^^'
p952
sg41
S'rare'
p953
sbsg43
(dp954
g739
I0
sg740
I0
sg741
I0
sg742
I26
ssg49
(dp955
g739
I0
sg740
I0
sg741
I0
sg742
I0
ssg51
I1
sg52
I0
sg53
I00
sg54
I0
sg55
I0
sg56
I0
sg57
(g744
S'AR'
p956
S'AI'
p957
S'CE'
p958
tp959
sg63
I01
sg64
g32
(g33
g34
Ntp960
Rp961
(dp962
g38
I3
sg39
S'^^^'
p963
sg41
g953
sbsg69
(dp964
g753
I0
sg754
I0
sg755
I0
sg756
I0
ssg75
(dp965
g753
I0
sg754
I0
sg755
I0
sg756
I12
ssg77
(dp966
g753
I0
sg754
I0
sg755
I0
sg756
I0
ssg79
(dp967
g739
I0
sg740
I5
sg741
I0
sg742
I1
ssg81
I0
sg82
I0
sg83
S'Mentre'
p968
sg85
I8
sg86
I0
sg87
I18
sg88
I136
sg89
g761
sg91
(dp969
g763
I10
sg764
I7
sg765
I9
sg766
I10
sg767
I7
sg768
I10
sg769
I10
sg770
I12
sg771
I2
sg772
I7
sg773
I12
sg774
I9
sg775
I8
sg776
I12
sg777
I5
ssg108
(dp970
g779
(ijoueur
joueur
p971
(dp972
g28
I0
sg29
I1
sg30
I0
sg31
g32
(g33
g34
Ntp973
Rp974
(dp975
g38
I3
sg39
S'^^^'
p976
sg41
S'rare'
p977
sbsg43
(dp978
S'SR'
p979
I0
sS'ST'
p980
I0
sS'CR'
p981
I0
sS'CT'
p982
I14
ssg49
(dp983
g979
I0
sg980
I0
sg981
I0
sg982
I0
ssg51
I1
sg52
I1
sg53
I00
sg54
I4
sg55
I0
sg56
I0
sg57
(S'dummy'
p984
S'AR'
p985
S'AI'
p986
S'CE'
p987
tp988
sg63
I00
sg64
g32
(g33
g34
Ntp989
Rp990
(dp991
g38
I3
sg39
S'^^^'
p992
sg41
g977
sbsg69
(dp993
g979
I0
sg980
I5
sg981
I0
sg982
I1
ssg75
(dp994
g979
I0
sg980
I0
sg981
I0
sg982
I14
ssg77
(dp995
g979
I0
sg980
I0
sg981
I0
sg982
I0
ssg79
(dp996
g979
I0
sg980
I5
sg981
I0
sg982
I1
ssg81
I0
sg82
I0
sg83
S'Mentre'
p997
sg85
I8
sg86
I0
sg87
I18
sg88
I136
sg89
S'MDL'
p998
sg91
(dp999
S'A'
p1000
I10
sS'ME'
p1001
I7
sS'RP2'
p1002
I11
sS'E'
p1003
I10
sS'TO'
p1004
I2
sS'RP1'
p1005
I10
sS'JP'
p1006
I10
sS'RP_tot'
p1007
I14
sS'P'
p1008
I7
sS'PA'
p1009
I7
sS'M'
p1010
I12
sS'R'
p1011
I9
sS'TB'
p1012
I7
sS'PL'
p1013
I12
sS'TA'
p1014
I5
ssg154
I0
sg155
I0
sg156
I0
sg157
I0
sg158
F10.727272727272727
sg159
I0
sg160
I0
sg161
I0
sg162
(dp1015
S'A'
p1016
I10
sS'ME'
p1017
I7
sS'RP2'
p1018
I11
sS'E'
p1019
I10
sS'TO'
p1020
I2
sS'RP1'
p1021
I10
sS'JP'
p1022
I10
sS'RP_tot'
p1023
I14
sS'P'
p1024
I7
sS'PA'
p1025
I7
sS'M'
p1026
I12
sS'R'
p1027
I9
sS'TB'
p1028
I7
sS'PL'
p1029
I12
sS'TA'
p1030
I5
ssg179
g999
sg180
I0
sg181
g61
sg183
I0
sg184
I1
sg185
I0
sg186
I18
sg187
I9
sg188
I0
sg189
S'OG'
p1031
sbssg154
I0
sg155
I0
sg156
I0
sg157
I0
sg158
F10.424242424242424
sg159
I0
sg160
I0
sg161
I0
sg162
(dp1032
g841
I10
sg842
I7
sg843
I11
sg844
I10
sg845
I7
sg846
I10
sg847
I10
sg848
I14
sg849
I2
sg850
I7
sg851
I12
sg852
I9
sg853
I7
sg854
I12
sg855
I5
ssg179
(dp1033
g763
I10
sg764
I7
sg765
I9
sg766
I10
sg771
I2
sg768
I10
sg769
I10
sg770
I12
sg767
I7
sg772
I7
sg773
I12
sg774
I9
sg775
I8
sg776
I12
sg777
I5
ssg180
I0
sg181
g61
sg183
I0
sg184
I1
sg185
I0
sg186
I18
sg187
I9
sg188
I0
sg189
S'OG'
p1034
sbsS'SA_remp2'
p1035
(ijoueur
joueur
p1036
(dp1037
g27
F9.709677419354838
sg28
I0
sg29
I0
sg30
I0
sg31
g32
(g33
g34
Ntp1038
Rp1039
(dp1040
g38
I4
sg39
S'x'
p1041
sg41
S'heros'
p1042
sbsg43
(dp1043
S'SR'
p1044
I0
sS'ST'
p1045
I0
sS'CR'
p1046
I0
sS'CT'
p1047
I0
ssg49
(dp1048
g1044
I0
sg1045
I0
sg1046
I0
sg1047
I0
ssg51
I0
sg52
I0
sg53
I00
sg54
I1
sg55
I0
sg56
I0
sg57
(S'dummy'
p1049
S'TL'
p1050
g61
g61
tp1051
sg63
I00
sg64
g32
(g33
g34
Ntp1052
Rp1053
(dp1054
g38
I5
sg39
S'**'
p1055
sg41
S'seigneur'
p1056
sbsg69
(dp1057
S'SR'
p1058
I0
sS'CT'
p1059
I13
sS'CR'
p1060
I0
sS'ST'
p1061
I0
ssg75
(dp1062
g1058
I0
sg1059
I0
sg1060
I0
sg1061
I0
ssg77
(dp1063
g1058
I0
sg1059
I0
sg1060
I0
sg1061
I0
ssg79
(dp1064
g1044
I0
sg1045
I0
sg1046
I11
sg1047
I18
ssg81
I0
sg82
I0
sg83
S'Hepelet'
p1065
sg85
I10
sg86
I0
sg87
I22
sg88
I207
sg89
S'ED'
p1066
sg91
(dp1067
S'A'
p1068
I9
sS'ME'
p1069
I9
sS'RP2'
p1070
I10
sS'E'
p1071
I10
sS'P'
p1072
I8
sS'RP1'
p1073
I10
sS'JP'
p1074
I5
sS'RP_tot'
p1075
I13
sS'TO'
p1076
I9
sS'PA'
p1077
I8
sS'M'
p1078
I11
sS'R'
p1079
I10
sS'TB'
p1080
I5
sS'PL'
p1081
I12
sS'TA'
p1082
I5
ssg108
(dp1083
S's11'
p1084
(ijoueur
joueur
p1085
(dp1086
g28
I0
sg29
I0
sg30
I0
sg31
g32
(g33
g34
Ntp1087
Rp1088
(dp1089
g38
I4
sg39
S'x'
p1090
sg41
S'heros'
p1091
sbsg43
(dp1092
S'SR'
p1093
I0
sS'ST'
p1094
I0
sS'CR'
p1095
I0
sS'CT'
p1096
I0
ssg49
(dp1097
g1093
I0
sg1094
I0
sg1095
I0
sg1096
I0
ssg51
I0
sg52
I0
sg53
I00
sg54
I0
sg55
I0
sg56
I0
sg57
(S'dummy'
p1098
S'TL'
p1099
g61
g61
tp1100
sg63
I00
sg64
g32
(g33
g34
Ntp1101
Rp1102
(dp1103
g38
I3
sg39
S'^^^'
p1104
sg41
S'rare'
p1105
sbsg69
(dp1106
g1093
I0
sg1094
I0
sg1095
I11
sg1096
I5
ssg75
(dp1107
g1093
I0
sg1094
I0
sg1095
I0
sg1096
I0
ssg77
(dp1108
g1093
I0
sg1094
I0
sg1095
I0
sg1096
I0
ssg79
(dp1109
g1093
I0
sg1094
I0
sg1095
I11
sg1096
I5
ssg81
I0
sg82
I0
sg83
S'Hepelet'
p1110
sg85
I10
sg86
I0
sg87
I22
sg88
I87
sg89
S'ED'
p1111
sg91
(dp1112
S'A'
p1113
I8
sS'ME'
p1114
I9
sS'RP2'
p1115
I9
sS'E'
p1116
I9
sS'TO'
p1117
I8
sS'RP1'
p1118
I9
sS'JP'
p1119
I4
sS'RP_tot'
p1120
I11
sS'P'
p1121
I7
sS'PA'
p1122
I7
sS'M'
p1123
I11
sS'R'
p1124
I10
sS'TB'
p1125
I4
sS'PL'
p1126
I10
sS'TA'
p1127
I5
ssg154
I0
sg155
I0
sg156
I0
sg157
I0
sg158
F9.709677419354838
sg159
I0
sg160
I0
sg161
I0
sg162
(dp1128
S'A'
p1129
I8
sS'ME'
p1130
I9
sS'RP2'
p1131
I9
sS'E'
p1132
I9
sS'TO'
p1133
I8
sS'RP1'
p1134
I9
sS'JP'
p1135
I4
sS'RP_tot'
p1136
I11
sS'P'
p1137
I7
sS'PA'
p1138
I7
sS'M'
p1139
I11
sS'R'
p1140
I10
sS'TB'
p1141
I4
sS'PL'
p1142
I10
sS'TA'
p1143
I5
ssg179
g1112
sg180
I0
sg181
g61
sg183
I0
sg184
I0
sg185
I0
sg186
I12
sg187
I1
sg188
I0
sg189
S'OG'
p1144
sbssg154
I0
sg155
I0
sg156
I0
sg157
I0
sg158
F10.612903225806452
sg159
I0
sg160
I0
sg161
I1
sg162
(dp1145
S'A'
p1146
I8
sS'ME'
p1147
I9
sS'RP2'
p1148
I9
sS'E'
p1149
I9
sS'TO'
p1150
I8
sS'RP1'
p1151
I9
sS'JP'
p1152
I4
sS'RP_tot'
p1153
I11
sS'P'
p1154
I7
sS'PA'
p1155
I7
sS'M'
p1156
I11
sS'R'
p1157
I10
sS'TB'
p1158
I4
sS'PL'
p1159
I10
sS'TA'
p1160
I5
ssg179
(dp1161
g1068
I9
sg1069
I9
sg1070
I10
sg1071
I10
sg1076
I9
sg1073
I10
sg1074
I5
sg1075
I13
sg1072
I8
sg1077
I8
sg1078
I11
sg1079
I10
sg1080
I5
sg1081
I12
sg1082
I5
ssg180
I0
sg181
g61
sg183
I0
sg184
I0
sg185
I0
sg186
I23
sg187
I2
sg188
I1
sg189
S'OG'
p1162
sbssS'totaux'
p1163
(dp1164
g19
I0
sg20
I0
sg21
I0
ssS'_compo_defaut_fatigue'
p1165
Nsg91
(dp1166
g4
I0
sg5
I0
sg6
I0
sg7
I0
sg8
I0
sg9
I0
sg10
I0
sg11
I0
sg12
I0
sg13
I0
sg14
I0
sg15
I0
sg16
I0
ssS'joueurs'
p1167
(dp1168
S'n12'
p1169
(ijoueur
joueur
p1170
(dp1171
g27
F9.517241379310345
sg28
I0
sg29
I1
sg30
I0
sg31
g32
(g33
g34
Ntp1172
Rp1173
(dp1174
g38
I4
sg39
S'x'
p1175
sg41
S'heros'
p1176
sbsg43
(dp1177
S'SR'
p1178
I0
sS'ST'
p1179
I0
sS'CR'
p1180
I2
sS'CT'
p1181
I13
ssg49
(dp1182
g1178
I0
sg1179
I0
sg1180
I0
sg1181
I0
ssg51
I0
sg52
I0
sg53
I00
sg54
I3
sg55
I0
sg56
I0
sg57
(S'dummy'
p1183
S'DM'
p1184
S'CE'
p1185
S'AI'
p1186
tp1187
sg63
I00
sg64
g32
(g33
g34
Ntp1188
Rp1189
(dp1190
g38
I5
sg39
S'**'
p1191
sg41
S'seigneur'
p1192
sbsg69
(dp1193
S'SR'
p1194
I0
sS'ST'
p1195
I0
sS'CR'
p1196
I0
sS'CT'
p1197
I0
ssg75
(dp1198
g1194
I0
sg1195
I0
sg1196
I0
sg1197
I13
ssg77
(dp1199
g1194
I0
sg1195
I0
sg1196
I0
sg1197
I0
ssg79
(dp1200
g1178
I0
sg1179
I5
sg1180
I11
sg1181
I3
ssg81
I0
sg82
I0
sg83
S'Medeuleur'
p1201
sg85
I7
sg86
I0
sg87
I15
sg88
I223
sg89
S'TO'
p1202
sg91
(dp1203
S'A'
p1204
I9
sS'ME'
p1205
I7
sS'RP2'
p1206
I9
sS'E'
p1207
I12
sS'P'
p1208
I11
sS'RP1'
p1209
I11
sS'JP'
p1210
I8
sS'RP_tot'
p1211
I13
sS'TO'
p1212
I6
sS'PA'
p1213
I9
sS'M'
p1214
I10
sS'R'
p1215
I10
sS'TB'
p1216
I9
sS'PL'
p1217
I12
sS'TA'
p1218
I6
ssg108
(dp1219
S's11'
p1220
(ijoueur
joueur
p1221
(dp1222
g28
I0
sg29
I1
sg30
I0
sg31
g32
(g33
g34
Ntp1223
Rp1224
(dp1225
g38
I4
sg39
S'x'
p1226
sg41
S'heros'
p1227
sbsg43
(dp1228
S'SR'
p1229
I0
sS'ST'
p1230
I0
sS'CR'
p1231
I2
sS'CT'
p1232
I0
ssg49
(dp1233
g1229
I0
sg1230
I0
sg1231
I0
sg1232
I0
ssg51
I0
sg52
I0
sg53
I00
sg54
I0
sg55
I0
sg56
I0
sg57
(S'dummy'
p1234
S'DM'
p1235
S'CE'
p1236
S'AI'
p1237
tp1238
sg63
I00
sg64
g32
(g33
g34
Ntp1239
Rp1240
(dp1241
g38
I4
sg39
g1226
sg41
g1227
sbsg69
(dp1242
g1229
I0
sg1230
I5
sg1231
I11
sg1232
I3
ssg75
(dp1243
g1229
I0
sg1230
I0
sg1231
I2
sg1232
I0
ssg77
(dp1244
g1229
I0
sg1230
I0
sg1231
I0
sg1232
I0
ssg79
(dp1245
g1229
I0
sg1230
I5
sg1231
I11
sg1232
I3
ssg81
I0
sg82
I0
sg83
S'Medeuleur'
p1246
sg85
I7
sg86
I0
sg87
I15
sg88
I168
sg89
S'TO'
p1247
sg91
(dp1248
S'A'
p1249
I8
sS'ME'
p1250
I7
sS'RP2'
p1251
I9
sS'E'
p1252
I11
sS'TO'
p1253
I5
sS'RP1'
p1254
I10
sS'JP'
p1255
I7
sS'RP_tot'
p1256
I12
sS'P'
p1257
I10
sS'PA'
p1258
I8
sS'M'
p1259
I10
sS'R'
p1260
I10
sS'TB'
p1261
I7
sS'PL'
p1262
I11
sS'TA'
p1263
I6
ssg154
I0
sg155
I0
sg156
I0
sg157
I0
sg158
F9.517241379310345
sg159
I0
sg160
I0
sg161
I0
sg162
(dp1264
S'A'
p1265
I8
sS'ME'
p1266
I7
sS'RP2'
p1267
I9
sS'E'
p1268
I11
sS'TO'
p1269
I5
sS'RP1'
p1270
I10
sS'JP'
p1271
I7
sS'RP_tot'
p1272
I12
sS'P'
p1273
I10
sS'PA'
p1274
I8
sS'M'
p1275
I10
sS'R'
p1276
I10
sS'TB'
p1277
I7
sS'PL'
p1278
I11
sS'TA'
p1279
I6
ssg179
g1248
sg180
I0
sg181
g61
sg183
I0
sg184
I0
sg185
I0
sg186
I11
sg187
I7
sg188
I0
sg189
S'OG'
p1280
sbssg154
I0
sg155
I0
sg156
I0
sg157
I0
sg158
F10.379310344827585
sg159
I0
sg160
I0
sg161
I0
sg162
(dp1281
S'A'
p1282
I8
sS'ME'
p1283
I7
sS'RP2'
p1284
I9
sS'E'
p1285
I11
sS'P'
p1286
I10
sS'RP1'
p1287
I10
sS'JP'
p1288
I7
sS'RP_tot'
p1289
I12
sS'TO'
p1290
I5
sS'PA'
p1291
I8
sS'M'
p1292
I10
sS'R'
p1293
I10
sS'TB'
p1294
I7
sS'PL'
p1295
I11
sS'TA'
p1296
I6
ssg179
(dp1297
g1204
I9
sg1205
I7
sg1206
I9
sg1207
I12
sg1212
I6
sg1209
I11
sg1210
I8
sg1211
I13
sg1208
I11
sg1213
I9
sg1214
I10
sg1215
I10
sg1216
I9
sg1217
I12
sg1218
I6
ssg180
I0
sg181
g61
sg183
I0
sg184
I0
sg185
I0
sg186
I16
sg187
I10
sg188
I0
sg189
S'OG'
p1298
sbsS'n13'
p1299
g211
sS'n10'
p1300
g605
sS'n11'
p1301
(ijoueur
joueur
p1302
(dp1303
g27
F9.030303030303031
sg28
I0
sg29
I0
sg30
I0
sg31
g32
(g33
g34
Ntp1304
Rp1305
(dp1306
g38
I4
sg39
S'*'
p1307
sg41
S'heros'
p1308
sbsg43
(dp1309
S'SR'
p1310
I0
sS'CT'
p1311
I25
sS'CR'
p1312
I1
sS'ST'
p1313
I0
ssg49
(dp1314
g1310
I0
sg1311
I0
sg1312
I0
sg1313
I0
ssg51
I0
sg52
I0
sg53
I00
sg54
I2
sg55
I0
sg56
I0
sg57
(S'dummy'
p1315
S'AR'
p1316
S'AI'
p1317
g61
tp1318
sg63
I00
sg64
g1305
sg69
(dp1319
S'SR'
p1320
I0
sS'CT'
p1321
I0
sS'CR'
p1322
I0
sS'ST'
p1323
I0
ssg75
(dp1324
g1320
I0
sg1321
I13
sg1322
I1
sg1323
I0
ssg77
(dp1325
g1320
I0
sg1321
I0
sg1322
I0
sg1323
I0
ssg79
(dp1326
g1310
I0
sg1311
I0
sg1312
I1
sg1313
I0
ssg81
I0
sg82
I0
sg83
S'Engret'
p1327
sg85
I9
sg86
I0
sg87
I23
sg88
I130
sg89
S'GP'
p1328
sg91
(dp1329
S'A'
p1330
I13
sS'ME'
p1331
I5
sS'RP2'
p1332
I9
sS'E'
p1333
I9
sS'TO'
p1334
I5
sS'RP1'
p1335
I9
sS'JP'
p1336
I8
sS'RP_tot'
p1337
I11
sS'P'
p1338
I9
sS'PA'
p1339
I8
sS'M'
p1340
I12
sS'R'
p1341
I7
sS'TB'
p1342
I9
sS'PL'
p1343
I9
sS'TA'
p1344
I7
ssg108
(dp1345
S's11'
p1346
(ijoueur
joueur
p1347
(dp1348
g28
I0
sg29
I0
sg30
I0
sg31
g32
(g33
g34
Ntp1349
Rp1350
(dp1351
g38
I4
sg39
S'*'
p1352
sg41
S'heros'
p1353
sbsg43
(dp1354
S'SR'
p1355
I0
sS'ST'
p1356
I0
sS'CR'
p1357
I0
sS'CT'
p1358
I12
ssg49
(dp1359
g1355
I0
sg1356
I0
sg1357
I0
sg1358
I0
ssg51
I0
sg52
I0
sg53
I00
sg54
I0
sg55
I0
sg56
I0
sg57
(S'dummy'
p1360
S'AR'
p1361
S'AI'
p1362
g61
tp1363
sg63
I00
sg64
g32
(g33
g34
Ntp1364
Rp1365
(dp1366
g38
I3
sg39
S'<<<'
p1367
sg41
S'rare'
p1368
sbsg69
(dp1369
g1355
I0
sg1356
I0
sg1357
I1
sg1358
I0
ssg75
(dp1370
g1355
I0
sg1356
I0
sg1357
I0
sg1358
I12
ssg77
(dp1371
g1355
I0
sg1356
I0
sg1357
I0
sg1358
I0
ssg79
(dp1372
g1355
I0
sg1356
I0
sg1357
I1
sg1358
I0
ssg81
I0
sg82
I0
sg83
S'Engret'
p1373
sg85
I9
sg86
I0
sg87
I23
sg88
I75
sg89
S'GP'
p1374
sg91
(dp1375
S'A'
p1376
I10
sS'ME'
p1377
I5
sS'RP2'
p1378
I9
sS'E'
p1379
I9
sS'TO'
p1380
I4
sS'RP1'
p1381
I9
sS'JP'
p1382
I3
sS'RP_tot'
p1383
I11
sS'P'
p1384
I5
sS'PA'
p1385
I8
sS'M'
p1386
I13
sS'R'
p1387
I7
sS'TB'
p1388
I4
sS'PL'
p1389
I8
sS'TA'
p1390
I7
ssg154
I0
sg155
I0
sg156
I0
sg157
I0
sg158
F9.030303030303031
sg159
I0
sg160
I0
sg161
I1
sg162
(dp1391
S'A'
p1392
I10
sS'ME'
p1393
I5
sS'RP2'
p1394
I9
sS'E'
p1395
I9
sS'TO'
p1396
I4
sS'RP1'
p1397
I9
sS'JP'
p1398
I3
sS'RP_tot'
p1399
I11
sS'P'
p1400
I5
sS'PA'
p1401
I8
sS'M'
p1402
I13
sS'R'
p1403
I7
sS'TB'
p1404
I4
sS'PL'
p1405
I8
sS'TA'
p1406
I7
ssg179
g1375
sg180
I0
sg181
g61
sg183
I0
sg184
I0
sg185
I0
sg186
I8
sg187
I0
sg188
I1
sg189
S'OG'
p1407
sbssg154
I0
sg155
I0
sg156
I0
sg157
I0
sg158
F10.181818181818182
sg159
I0
sg160
I0
sg161
I1
sg162
(dp1408
S'A'
p1409
I10
sS'ME'
p1410
I5
sS'RP2'
p1411
I9
sS'E'
p1412
I9
sS'P'
p1413
I5
sS'RP1'
p1414
I9
sS'JP'
p1415
I3
sS'RP_tot'
p1416
I11
sS'TO'
p1417
I4
sS'PA'
p1418
I8
sS'M'
p1419
I13
sS'R'
p1420
I7
sS'TB'
p1421
I4
sS'PL'
p1422
I8
sS'TA'
p1423
I7
ssg179
(dp1424
g1330
I13
sg1331
I5
sg1332
I9
sg1333
I9
sg1338
I9
sg1335
I9
sg1336
I8
sg1337
I11
sg1334
I5
sg1339
I8
sg1340
I12
sg1341
I7
sg1342
I9
sg1343
I9
sg1344
I7
ssg180
I0
sg181
g61
sg183
I0
sg184
I0
sg185
I0
sg186
I13
sg187
I2
sg188
I0
sg189
S'OG'
p1425
sbsS'n16'
p1426
(ijoueur
joueur
p1427
(dp1428
g27
F10.655172413793103
sg28
I0
sg29
I0
sg30
I0
sg31
g32
(g33
g34
Ntp1429
Rp1430
(dp1431
g38
I5
sg39
S'**'
p1432
sg41
g42
sbsg43
(dp1433
g45
I0
sg46
I0
sg47
I0
sg48
I0
ssg49
(dp1434
g45
I0
sg46
I0
sg47
I0
sg48
I0
ssg51
I0
sg52
I0
sg53
I00
sg54
I1
sg55
I0
sg56
I0
sg57
(g58
S'TA'
p1435
S'PI'
p1436
g61
tp1437
sg63
I00
sg64
g32
(g33
g34
Ntp1438
Rp1439
(dp1440
g38
I5
sg39
S'**'
p1441
sg41
g42
sbsg69
(dp1442
g71
I0
sg72
I0
sg73
I13
sg74
I2
ssg75
(dp1443
g71
I0
sg72
I0
sg73
I0
sg74
I0
ssg77
(dp1444
g71
I0
sg72
I0
sg73
I0
sg74
I0
ssg79
(dp1445
g45
I0
sg46
I5
sg47
I13
sg48
I15
ssg81
I0
sg82
I0
sg83
S'Oplet'
p1446
sg85
I7
sg86
I0
sg87
I20
sg88
I480
sg89
g90
sg91
(dp1447
g93
I10
sg94
I11
sg95
I7
sg96
I11
sg97
I5
sg98
I13
sg99
I5
sg100
I13
sg101
I7
sg102
I9
sg103
I8
sg104
I8
sg105
I7
sg106
I9
sg107
I11
ssg108
(dp1448
g110
(ijoueur
joueur
p1449
(dp1450
g28
I0
sg29
I0
sg30
I0
sg31
g32
(g33
g34
Ntp1451
Rp1452
(dp1453
g38
I5
sg39
S'**'
p1454
sg41
S'seigneur'
p1455
sbsg43
(dp1456
S'SR'
p1457
I0
sS'CT'
p1458
I0
sS'CR'
p1459
I0
sS'ST'
p1460
I0
ssg49
(dp1461
g1457
I0
sg1458
I0
sg1459
I0
sg1460
I0
ssg51
I0
sg52
I0
sg53
I00
sg54
I0
sg55
I0
sg56
I0
sg57
(S'dummy'
p1462
S'TA'
p1463
S'PI'
p1464
g61
tp1465
sg63
I00
sg64
g32
(g33
g34
Ntp1466
Rp1467
(dp1468
g38
I5
sg39
S'**'
p1469
sg41
g1455
sbsg69
(dp1470
g1457
I0
sg1458
I13
sg1459
I0
sg1460
I5
ssg75
(dp1471
g1457
I0
sg1458
I0
sg1459
I0
sg1460
I0
ssg77
(dp1472
g1457
I0
sg1458
I0
sg1459
I0
sg1460
I0
ssg79
(dp1473
g1457
I0
sg1458
I13
sg1459
I0
sg1460
I5
ssg81
I0
sg82
I0
sg83
S'Oplet'
p1474
sg85
I7
sg86
I0
sg87
I20
sg88
I480
sg89
S'KH'
p1475
sg91
(dp1476
S'A'
p1477
I10
sS'ME'
p1478
I11
sS'RP2'
p1479
I7
sS'E'
p1480
I11
sS'P'
p1481
I5
sS'RP1'
p1482
I13
sS'JP'
p1483
I5
sS'RP_tot'
p1484
I13
sS'TO'
p1485
I7
sS'PA'
p1486
I9
sS'M'
p1487
I9
sS'R'
p1488
I9
sS'TB'
p1489
I7
sS'PL'
p1490
I10
sS'TA'
p1491
I12
ssg154
I0
sg155
I0
sg156
I0
sg157
I0
sg158
F10.655172413793103
sg159
I0
sg160
I0
sg161
I0
sg162
(dp1492
S'A'
p1493
I10
sS'ME'
p1494
I11
sS'RP2'
p1495
I7
sS'E'
p1496
I11
sS'P'
p1497
I5
sS'RP1'
p1498
I13
sS'JP'
p1499
I5
sS'RP_tot'
p1500
I13
sS'TO'
p1501
I7
sS'PA'
p1502
I9
sS'M'
p1503
I9
sS'R'
p1504
I9
sS'TB'
p1505
I7
sS'PL'
p1506
I10
sS'TA'
p1507
I12
ssg179
g1476
sg180
I0
sg181
S'ED 9'
p1508
sg183
I0
sg184
I0
sg185
I0
sg186
I29
sg187
I5
sg188
I0
sg189
S'OG'
p1509
sbssg154
I0
sg155
I0
sg156
I0
sg157
I0
sg158
F10.137931034482758
sg159
I0
sg160
I0
sg161
I0
sg162
(dp1510
g192
I10
sg193
I11
sg194
I7
sg195
I11
sg196
I5
sg197
I13
sg198
I5
sg199
I13
sg200
I7
sg201
I9
sg202
I9
sg203
I9
sg204
I7
sg205
I10
sg206
I12
ssg179
(dp1511
g93
I10
sg94
I11
sg95
I7
sg96
I11
sg101
I7
sg98
I13
sg99
I5
sg100
I13
sg97
I5
sg102
I9
sg103
I8
sg104
I8
sg105
I7
sg106
I9
sg107
I11
ssg180
I0
sg181
S'ED 9'
p1512
sg183
I0
sg184
I0
sg185
I0
sg186
I29
sg187
I6
sg188
I0
sg189
S'OG'
p1513
sbsS'n17'
p1514
(ijoueur
joueur
p1515
(dp1516
g27
F10.0
sg28
I0
sg29
I0
sg30
I0
sg31
g32
(g33
g34
Ntp1517
Rp1518
(dp1519
g38
I3
sg39
S'<<<'
p1520
sg41
S'rare'
p1521
sbsg43
(dp1522
S'SR'
p1523
I5
sS'CT'
p1524
I5
sS'CR'
p1525
I12
sS'ST'
p1526
I0
ssg49
(dp1527
g1523
I0
sg1524
I0
sg1525
I0
sg1526
I0
ssg51
I0
sg52
I0
sg224
I0
sg225
I0
sg53
I00
sg54
I0
sg55
I0
sg56
I0
sg57
(S'dummy'
p1528
S'N8'
p1529
S'PI'
p1530
g61
tp1531
sg63
I00
sg64
g32
(g33
g34
Ntp1532
Rp1533
(dp1534
g38
I3
sg39
S'<<<'
p1535
sg41
g1521
sbsg69
(dp1536
S'SR'
p1537
I0
sS'ST'
p1538
I0
sS'CR'
p1539
I0
sS'CT'
p1540
I0
ssg75
(dp1541
g1537
I0
sg1538
I0
sg1539
I12
sg1540
I4
ssg77
(dp1542
g1537
I0
sg1538
I0
sg1539
I0
sg1540
I0
ssg79
(dp1543
g1523
I0
sg1524
I14
sg1525
I0
sg1526
I0
ssg81
I0
sg82
I0
sg83
S'Querelead'
p1544
sg85
I8
sg86
I0
sg87
I19
sg88
I75
sg89
S'MSL'
p1545
sg91
(dp1546
S'A'
p1547
I5
sS'ME'
p1548
I9
sS'RP2'
p1549
I7
sS'E'
p1550
I9
sS'TO'
p1551
I7
sS'RP1'
p1552
I14
sS'JP'
p1553
I1
sS'RP_tot'
p1554
I14
sS'P'
p1555
I0
sS'PA'
p1556
I5
sS'M'
p1557
I10
sS'R'
p1558
I11
sS'TB'
p1559
I2
sS'PL'
p1560
I11
sS'TA'
p1561
I7
ssg108
(dp1562
S's11'
p1563
(ijoueur
joueur
p1564
(dp1565
g28
I0
sg29
I0
sg30
I0
sg31
g32
(g33
g34
Ntp1566
Rp1567
(dp1568
g38
I3
sg39
S'<<<'
p1569
sg41
S'rare'
p1570
sbsg43
(dp1571
S'SR'
p1572
I5
sS'CT'
p1573
I1
sS'CR'
p1574
I0
sS'ST'
p1575
I0
ssg49
(dp1576
g1572
I0
sg1573
I0
sg1574
I0
sg1575
I0
ssg51
I0
sg158
F10.0
sg52
I0
sg224
I0
sg225
I0
sg54
I2
sg55
I0
sg56
I0
sg57
(S'dummy'
p1577
S'N8'
p1578
S'PI'
p1579
g61
tp1580
sg63
I01
sg64
g32
(g33
g34
Ntp1581
Rp1582
(dp1583
g38
I3
sg39
S'<<<'
p1584
sg41
g1570
sbsg69
(dp1585
g1572
I0
sg1573
I14
sg1574
I0
sg1575
I0
ssg53
I01
sg77
(dp1586
g1572
I0
sg1573
I0
sg1574
I0
sg1575
I0
ssg79
(dp1587
g1572
I0
sg1573
I14
sg1574
I0
sg1575
I0
ssg81
I0
sg82
I0
sg83
S'Querelead'
p1588
sg85
I8
sg86
I0
sg87
I19
sg88
I75
sg89
S'MSL'
p1589
sg91
(dp1590
S'A'
p1591
I5
sS'ME'
p1592
I9
sS'RP2'
p1593
I7
sS'E'
p1594
I9
sS'P'
p1595
I0
sS'RP1'
p1596
I13
sS'JP'
p1597
I1
sS'RP_tot'
p1598
I13
sS'TO'
p1599
I8
sS'PA'
p1600
I5
sS'M'
p1601
I10
sS'R'
p1602
I11
sS'TB'
p1603
I2
sS'PL'
p1604
I11
sS'TA'
p1605
I7
ssg154
I0
sg155
I0
sg156
I0
sg157
I0
sg75
(dp1606
g1572
I5
sg1573
I1
sg1574
I0
sg1575
I0
ssg159
I0
sg306
I0
sg160
I0
sg161
I0
sg162
(dp1607
S'A'
p1608
I5
sS'ME'
p1609
I9
sS'RP2'
p1610
I7
sS'E'
p1611
I9
sS'P'
p1612
I0
sS'RP1'
p1613
I13
sS'JP'
p1614
I1
sS'RP_tot'
p1615
I13
sS'TO'
p1616
I8
sS'PA'
p1617
I5
sS'M'
p1618
I10
sS'R'
p1619
I11
sS'TB'
p1620
I2
sS'PL'
p1621
I11
sS'TA'
p1622
I7
ssg179
g1590
sg180
I0
sg181
g61
sg183
I0
sg184
I0
sg185
I0
sg186
I8
sg187
I4
sg188
I0
sg189
S'OG'
p1623
sbssg154
I0
sg155
I0
sg156
I0
sg157
I0
sg158
F10.172413793103448
sg159
I0
sg306
I0
sg160
I0
sg161
I0
sg162
(dp1624
S'A'
p1625
I5
sS'ME'
p1626
I9
sS'RP2'
p1627
I7
sS'E'
p1628
I9
sS'TO'
p1629
I8
sS'RP1'
p1630
I13
sS'JP'
p1631
I1
sS'RP_tot'
p1632
I13
sS'P'
p1633
I0
sS'PA'
p1634
I5
sS'M'
p1635
I10
sS'R'
p1636
I11
sS'TB'
p1637
I2
sS'PL'
p1638
I11
sS'TA'
p1639
I7
ssg179
(dp1640
g1547
I5
sg1548
I9
sg1549
I7
sg1550
I9
sg1555
I0
sg1552
I14
sg1553
I1
sg1554
I14
sg1551
I7
sg1556
I5
sg1557
I10
sg1558
I11
sg1559
I2
sg1560
I11
sg1561
I7
ssg180
I0
sg181
g61
sg183
I0
sg184
I0
sg185
I0
sg186
I21
sg187
I4
sg188
I0
sg189
S'OG'
p1641
sbsS'n14'
p1642
(ijoueur
joueur
p1643
(dp1644
g27
F10.848484848484848
sg28
I1
sg29
I1
sg30
I0
sg31
g32
(g33
g34
Ntp1645
Rp1646
(dp1647
g38
I4
sg39
S'x'
p1648
sg41
S'heros'
p1649
sbsg43
(dp1650
S'SR'
p1651
I0
sS'ST'
p1652
I0
sS'CR'
p1653
I0
sS'CT'
p1654
I0
ssg49
(dp1655
g1651
I0
sg1652
I0
sg1653
I0
sg1654
I0
ssg51
I0
sg52
I0
sg53
I00
sg54
I7
sg55
I0
sg56
I0
sg57
(S'dummy'
p1656
S'AI'
p1657
g61
g61
tp1658
sg63
I01
sg64
g32
(g33
g34
Ntp1659
Rp1660
(dp1661
g38
I4
sg39
g1648
sg41
g1649
sbsg69
(dp1662
S'SR'
p1663
I0
sS'ST'
p1664
I0
sS'CR'
p1665
I0
sS'CT'
p1666
I14
ssg75
(dp1667
g1663
I0
sg1664
I0
sg1665
I0
sg1666
I0
ssg77
(dp1668
g1663
I0
sg1664
I0
sg1665
I0
sg1666
I0
ssg79
(dp1669
g1651
I0
sg1652
I5
sg1653
I0
sg1654
I29
ssg81
I44
sg82
I0
sg83
S'Foutor'
p1670
sg85
I6
sg86
I16
sg87
I20
sg88
I278
sg89
S'FS'
p1671
sg91
(dp1672
S'A'
p1673
I9
sS'ME'
p1674
I6
sS'RP2'
p1675
I15
sS'E'
p1676
I12
sS'P'
p1677
I8
sS'RP1'
p1678
I12
sS'JP'
p1679
I9
sS'RP_tot'
p1680
I20
sS'TO'
p1681
I3
sS'PA'
p1682
I9
sS'M'
p1683
I12
sS'R'
p1684
I11
sS'TB'
p1685
I10
sS'PL'
p1686
I7
sS'TA'
p1687
I5
ssg108
(dp1688
S's11'
p1689
(ijoueur
joueur
p1690
(dp1691
g28
I1
sg29
I0
sg30
I0
sg31
g32
(g33
g34
Ntp1692
Rp1693
(dp1694
g38
I4
sg39
S'x'
p1695
sg41
S'heros'
p1696
sbsg43
(dp1697
S'SR'
p1698
I0
sS'ST'
p1699
I0
sS'CR'
p1700
I0
sS'CT'
p1701
I0
ssg49
(dp1702
g1698
I0
sg1699
I0
sg1700
I0
sg1701
I0
ssg51
I0
sg52
I0
sg53
I00
sg54
I4
sg55
I0
sg56
I11
sg57
(S'dummy'
p1703
S'AI'
p1704
g61
g61
tp1705
sg63
I00
sg64
g32
(g33
g34
Ntp1706
Rp1707
(dp1708
g38
I4
sg39
g1695
sg41
g1696
sbsg69
(dp1709
g1698
I0
sg1699
I5
sg1700
I0
sg1701
I15
ssg75
(dp1710
g1698
I0
sg1699
I0
sg1700
I0
sg1701
I0
ssg77
(dp1711
g1698
I0
sg1699
I0
sg1700
I0
sg1701
I0
ssg79
(dp1712
g1698
I0
sg1699
I5
sg1700
I0
sg1701
I15
ssg81
I44
sg82
I36
sg83
S'Foutor'
p1713
sg85
I6
sg86
I16
sg87
I20
sg88
I278
sg89
S'FS'
p1714
sg91
(dp1715
S'A'
p1716
I9
sS'ME'
p1717
I6
sS'RP2'
p1718
I13
sS'E'
p1719
I12
sS'TO'
p1720
I3
sS'RP1'
p1721
I10
sS'JP'
p1722
I9
sS'RP_tot'
p1723
I16
sS'P'
p1724
I8
sS'PA'
p1725
I9
sS'M'
p1726
I11
sS'R'
p1727
I11
sS'TB'
p1728
I11
sS'PL'
p1729
I7
sS'TA'
p1730
I5
ssg154
I0
sg155
I0
sg156
I0
sg157
I0
sg158
F10.848484848484848
sg159
I0
sg160
I0
sg161
I0
sg162
(dp1731
S'A'
p1732
I9
sS'ME'
p1733
I6
sS'RP2'
p1734
I13
sS'E'
p1735
I12
sS'TO'
p1736
I3
sS'RP1'
p1737
I10
sS'JP'
p1738
I9
sS'RP_tot'
p1739
I16
sS'P'
p1740
I8
sS'PA'
p1741
I9
sS'M'
p1742
I11
sS'R'
p1743
I11
sS'TB'
p1744
I11
sS'PL'
p1745
I7
sS'TA'
p1746
I5
ssg179
g1715
sg180
I1
sg181
S'MDL 9'
p1747
sg183
I1
sg184
I0
sg185
I1
sg186
I39
sg187
I14
sg188
I0
sg189
S'OG'
p1748
sbssg154
I0
sg155
I0
sg156
I0
sg157
I0
sg158
F11.774193548387096
sg159
I0
sg160
I0
sg161
I0
sg162
(dp1749
S'A'
p1750
I9
sS'ME'
p1751
I6
sS'RP2'
p1752
I13
sS'E'
p1753
I12
sS'TO'
p1754
I3
sS'RP1'
p1755
I10
sS'JP'
p1756
I9
sS'RP_tot'
p1757
I16
sS'P'
p1758
I8
sS'PA'
p1759
I9
sS'M'
p1760
I11
sS'R'
p1761
I11
sS'TB'
p1762
I11
sS'PL'
p1763
I7
sS'TA'
p1764
I5
ssg179
(dp1765
g1673
I9
sg1674
I6
sg1675
I15
sg1676
I12
sg1681
I3
sg1678
I12
sg1679
I9
sg1680
I20
sg1677
I8
sg1682
I9
sg1683
I12
sg1684
I11
sg1685
I10
sg1686
I7
sg1687
I5
ssg180
I0
sg181
S'MDL 9'
p1766
sg183
I1
sg184
I1
sg185
I0
sg186
I39
sg187
I21
sg188
I0
sg189
S'OG'
p1767
sbsS'n15'
p1768
g947
sS'n18'
p1769
g861
sS'n19'
p1770
(ijoueur
joueur
p1771
(dp1772
g27
F10.586206896551724
sg28
I0
sg29
I0
sg30
I0
sg31
g32
(g33
g34
Ntp1773
Rp1774
(dp1775
g38
I4
sg39
S'*'
p1776
sg41
S'heros'
p1777
sbsg43
(dp1778
S'SR'
p1779
I0
sS'CT'
p1780
I12
sS'CR'
p1781
I0
sS'ST'
p1782
I0
ssg49
(dp1783
g1779
I0
sg1780
I0
sg1781
I0
sg1782
I0
ssg75
(dp1784
g1537
I0
sg1538
I0
sg1539
I0
sg1540
I0
ssg51
I0
sg52
I0
sg224
I0
sg225
I0
sg54
I8
sg55
I0
sg56
I0
sg57
(S'dummy'
p1785
S'N8'
p1786
S'TL'
p1787
g61
tp1788
sg63
I00
sg64
g32
(g33
g34
Ntp1789
Rp1790
(dp1791
g38
I4
sg39
g1776
sg41
g1777
sbsg69
(dp1792
g1537
I0
sg1538
I0
sg1539
I0
sg1540
I15
ssg53
I00
sg77
(dp1793
g1537
I0
sg1538
I0
sg1539
I0
sg1540
I0
ssg79
(dp1794
g1779
I0
sg1780
I16
sg1781
I0
sg1782
I5
ssg81
I0
sg82
I0
sg83
S'Gramoun'
p1795
sg85
I8
sg86
I0
sg87
I23
sg88
I244
sg89
g1545
sg91
(dp1796
S'A'
p1797
I8
sS'ME'
p1798
I11
sS'RP2'
p1799
I8
sS'E'
p1800
I9
sS'TO'
p1801
I7
sS'RP1'
p1802
I13
sS'JP'
p1803
I8
sS'RP_tot'
p1804
I14
sS'P'
p1805
I8
sS'PA'
p1806
I9
sS'M'
p1807
I10
sS'R'
p1808
I10
sS'TB'
p1809
I10
sS'PL'
p1810
I11
sS'TA'
p1811
I5
ssg108
(dp1812
g1563
(ijoueur
joueur
p1813
(dp1814
g28
I0
sg29
I0
sg30
I0
sg31
g32
(g33
g34
Ntp1815
Rp1816
(dp1817
g38
I4
sg39
S'*'
p1818
sg41
S'heros'
p1819
sbsg43
(dp1820
S'SR'
p1821
I0
sS'CT'
p1822
I12
sS'CR'
p1823
I0
sS'ST'
p1824
I0
ssg49
(dp1825
g1821
I0
sg1822
I0
sg1823
I0
sg1824
I0
ssg75
(dp1826
g1821
I0
sg1822
I12
sg1823
I0
sg1824
I0
ssg51
I0
sg52
I0
sg224
I0
sg225
I0
sg54
I1
sg55
I0
sg56
I0
sg57
(S'dummy'
p1827
S'N8'
p1828
S'TL'
p1829
g61
tp1830
sg63
I01
sg64
g32
(g33
g34
Ntp1831
Rp1832
(dp1833
g38
I4
sg39
g1818
sg41
g1819
sbsg69
(dp1834
g1821
I0
sg1822
I1
sg1823
I0
sg1824
I5
ssg53
I00
sg77
(dp1835
g1821
I0
sg1822
I0
sg1823
I0
sg1824
I0
ssg79
(dp1836
g1821
I0
sg1822
I1
sg1823
I0
sg1824
I5
ssg81
I0
sg82
I0
sg83
S'Gramoun'
p1837
sg85
I8
sg86
I0
sg87
I23
sg88
I163
sg89
S'QNL'
p1838
sg91
(dp1839
S'A'
p1840
I9
sS'ME'
p1841
I10
sS'RP2'
p1842
I8
sS'E'
p1843
I9
sS'P'
p1844
I7
sS'RP1'
p1845
I13
sS'JP'
p1846
I8
sS'RP_tot'
p1847
I14
sS'TO'
p1848
I7
sS'PA'
p1849
I9
sS'M'
p1850
I10
sS'R'
p1851
I10
sS'TB'
p1852
I9
sS'PL'
p1853
I11
sS'TA'
p1854
I5
ssg154
I0
sg155
I0
sg156
I0
sg157
I0
sg158
F10.586206896551724
sg159
I0
sg306
I0
sg160
I0
sg161
I1
sg162
(dp1855
S'A'
p1856
I9
sS'ME'
p1857
I10
sS'RP2'
p1858
I8
sS'E'
p1859
I9
sS'P'
p1860
I7
sS'RP1'
p1861
I13
sS'JP'
p1862
I8
sS'RP_tot'
p1863
I14
sS'TO'
p1864
I7
sS'PA'
p1865
I9
sS'M'
p1866
I10
sS'R'
p1867
I10
sS'TB'
p1868
I9
sS'PL'
p1869
I11
sS'TA'
p1870
I5
ssg179
g1839
sg180
I0
sg181
S'ED 10'
p1871
sg183
I0
sg184
I0
sg185
I0
sg186
I12
sg187
I4
sg188
I1
sg189
S'OG'
p1872
sbssg154
I0
sg155
I0
sg156
I0
sg157
I0
sg158
F10.586206896551724
sg159
I0
sg306
I0
sg160
I0
sg161
I1
sg162
(dp1873
S'A'
p1874
I9
sS'ME'
p1875
I10
sS'RP2'
p1876
I8
sS'E'
p1877
I9
sS'TO'
p1878
I7
sS'RP1'
p1879
I13
sS'JP'
p1880
I8
sS'RP_tot'
p1881
I14
sS'P'
p1882
I7
sS'PA'
p1883
I9
sS'M'
p1884
I10
sS'R'
p1885
I10
sS'TB'
p1886
I9
sS'PL'
p1887
I11
sS'TA'
p1888
I5
ssg179
(dp1889
g1797
I8
sg1798
I11
sg1799
I8
sg1800
I9
sg1805
I8
sg1802
I13
sg1803
I8
sg1804
I14
sg1801
I7
sg1806
I9
sg1807
I10
sg1808
I10
sg1809
I10
sg1810
I11
sg1811
I5
ssg180
I0
sg181
S'ED 10;QNL 12'
p1890
sg183
I0
sg184
I0
sg185
I0
sg186
I19
sg187
I12
sg188
I0
sg189
S'OG'
p1891
sbsS'n22'
p1892
(ijoueur
joueur
p1893
(dp1894
g27
F9.903225806451612
sg28
I0
sg29
I0
sg30
I0
sg31
g32
(g33
g34
Ntp1895
Rp1896
(dp1897
g38
I5
sg39
S'**'
p1898
sg41
S'seigneur'
p1899
sbsg43
(dp1900
S'SR'
p1901
I3
sS'ST'
p1902
I0
sS'CR'
p1903
I0
sS'CT'
p1904
I13
ssg49
(dp1905
g1901
I0
sg1902
I0
sg1903
I0
sg1904
I0
ssg51
I0
sg52
I0
sg53
I01
sg54
I2
sg55
I0
sg56
I0
sg57
(S'dummy'
p1906
S'AI'
p1907
S'AR'
p1908
g61
tp1909
sg63
I00
sg64
g32
(g33
g34
Ntp1910
Rp1911
(dp1912
g38
I5
sg39
S'**'
p1913
sg41
g1899
sbsg69
(dp1914
S'SR'
p1915
I0
sS'ST'
p1916
I0
sS'CR'
p1917
I0
sS'CT'
p1918
I1
ssg75
(dp1919
g1915
I0
sg1916
I0
sg1917
I0
sg1918
I12
ssg77
(dp1920
g1915
I0
sg1916
I0
sg1917
I0
sg1918
I0
ssg79
(dp1921
g1901
I2
sg1902
I0
sg1903
I0
sg1904
I13
ssg81
I0
sS'carton_jaunes_saison'
p1922
I1
sg82
I0
sg83
S'Patlop'
p1923
sg85
I8
sg86
I0
sg87
I21
sg88
I243
sg89
S'BRB'
p1924
sS'carton_jaunes_total'
p1925
I1
sg91
(dp1926
S'A'
p1927
I10
sS'ME'
p1928
I4
sS'RP2'
p1929
I7
sS'E'
p1930
I12
sS'P'
p1931
I7
sS'RP1'
p1932
I12
sS'JP'
p1933
I7
sS'RP_tot'
p1934
I12
sS'TO'
p1935
I4
sS'PA'
p1936
I6
sS'M'
p1937
I10
sS'R'
p1938
I6
sS'TB'
p1939
I9
sS'PL'
p1940
I11
sS'TA'
p1941
I7
ssg108
(dp1942
S's11'
p1943
(ijoueur
joueur
p1944
(dp1945
g28
I0
sg29
I0
sg30
I0
sg31
g32
(g33
g34
Ntp1946
Rp1947
(dp1948
g38
I5
sg39
S'**'
p1949
sg41
S'seigneur'
p1950
sbsg43
(dp1951
S'SR'
p1952
I3
sS'CT'
p1953
I1
sS'CR'
p1954
I0
sS'ST'
p1955
I0
ssg49
(dp1956
g1952
I0
sg1953
I0
sg1954
I0
sg1955
I0
ssg51
I0
sg52
I0
sg53
I00
sg54
I1
sg55
I0
sg56
I0
sg57
(S'dummy'
p1957
S'AI'
p1958
S'AR'
p1959
g61
tp1960
sg63
I01
sg64
g32
(g33
g34
Ntp1961
Rp1962
(dp1963
g38
I5
sg39
S'**'
p1964
sg41
g1950
sbsg69
(dp1965
g1952
I2
sg1953
I12
sg1954
I0
sg1955
I0
ssg75
(dp1966
g1952
I3
sg1953
I1
sg1954
I0
sg1955
I0
ssg77
(dp1967
g1952
I0
sg1953
I0
sg1954
I0
sg1955
I0
ssg79
(dp1968
g1952
I2
sg1953
I12
sg1954
I0
sg1955
I0
ssg81
I0
sg1922
I1
sg82
I0
sg83
S'Patlop'
p1969
sg85
I8
sg86
I0
sg87
I21
sg88
I200
sg89
S'ED'
p1970
sg1925
I1
sg91
(dp1971
S'A'
p1972
I9
sS'ME'
p1973
I4
sS'RP2'
p1974
I7
sS'E'
p1975
I12
sS'P'
p1976
I7
sS'RP1'
p1977
I12
sS'JP'
p1978
I7
sS'RP_tot'
p1979
I12
sS'TO'
p1980
I4
sS'PA'
p1981
I6
sS'M'
p1982
I11
sS'R'
p1983
I6
sS'TB'
p1984
I9
sS'PL'
p1985
I10
sS'TA'
p1986
I7
ssg154
I0
sg155
I0
sg156
I0
sg157
I0
sg158
F9.903225806451612
sg159
I0
sg160
I0
sg161
I0
sg162
(dp1987
S'A'
p1988
I9
sS'ME'
p1989
I4
sS'RP2'
p1990
I7
sS'E'
p1991
I12
sS'P'
p1992
I7
sS'RP1'
p1993
I12
sS'JP'
p1994
I7
sS'RP_tot'
p1995
I12
sS'TO'
p1996
I4
sS'PA'
p1997
I6
sS'M'
p1998
I11
sS'R'
p1999
I6
sS'TB'
p2000
I9
sS'PL'
p2001
I10
sS'TA'
p2002
I7
ssg179
g1971
sg180
I0
sg181
g61
sg183
I0
sg184
I0
sg185
I0
sg186
I20
sg187
I2
sg188
I0
sg189
S'OG'
p2003
sbssg154
I0
sg155
I0
sg156
I2
sg157
I0
sg158
F10.064516129032258
sg159
I0
sg160
I2
sg161
I0
sg162
(dp2004
S'A'
p2005
I9
sS'ME'
p2006
I4
sS'RP2'
p2007
I7
sS'E'
p2008
I12
sS'P'
p2009
I7
sS'RP1'
p2010
I12
sS'JP'
p2011
I7
sS'RP_tot'
p2012
I12
sS'TO'
p2013
I4
sS'PA'
p2014
I6
sS'M'
p2015
I11
sS'R'
p2016
I6
sS'TB'
p2017
I9
sS'PL'
p2018
I10
sS'TA'
p2019
I7
ssg179
(dp2020
g1927
I10
sg1928
I4
sg1929
I7
sg1930
I12
sg1935
I4
sg1932
I12
sg1933
I7
sg1934
I12
sg1931
I7
sg1936
I6
sg1937
I10
sg1938
I6
sg1939
I9
sg1940
I11
sg1941
I7
ssg180
I0
sg181
S'ED 12'
p2021
sg183
I0
sg184
I0
sg185
I0
sg186
I7
sg187
I4
sg188
I0
sg189
S'OG'
p2022
sbsS'n21'
p2023
(ijoueur
joueur
p2024
(dp2025
g27
F9.96551724137931
sg28
I0
sg29
I0
sg30
I0
sg31
g32
(g33
g34
Ntp2026
Rp2027
(dp2028
g38
I6
sg39
S'***'
p2029
sg41
S'personnage'
p2030
sbsg43
(dp2031
S'SR'
p2032
I0
sS'CT'
p2033
I22
sS'CR'
p2034
I1
sS'ST'
p2035
I5
ssg49
(dp2036
g2032
I0
sg2033
I0
sg2034
I0
sg2035
I0
ssg181
g61
sg52
I0
sg53
I00
sg54
I6
sg55
I0
sg56
I0
sg57
(S'dummy'
p2037
S'C2'
p2038
S'AI'
p2039
g61
tp2040
sg63
I00
sg64
g32
(g33
g34
Ntp2041
Rp2042
(dp2043
g38
I6
sg39
S'***'
p2044
sg41
g2030
sbsg69
(dp2045
S'SR'
p2046
I0
sS'ST'
p2047
I0
sS'CR'
p2048
I0
sS'CT'
p2049
I1
ssg75
(dp2050
g2046
I0
sg2047
I0
sg2048
I0
sg2049
I13
ssg77
(dp2051
g2046
I0
sg2047
I0
sg2048
I0
sg2049
I0
ssg79
(dp2052
g2032
I0
sg2033
I6
sg2034
I0
sg2035
I0
ssg81
I0
sg82
I0
sg83
S'Golfag'
p2053
sg85
I11
sg86
I0
sg87
I22
sg88
I700
sg89
S'AL'
p2054
sg91
(dp2055
S'A'
p2056
I9
sS'ME'
p2057
I6
sS'RP2'
p2058
I9
sS'E'
p2059
I10
sS'TO'
p2060
I4
sS'RP1'
p2061
I10
sS'JP'
p2062
I8
sS'RP_tot'
p2063
I12
sS'P'
p2064
I9
sS'PA'
p2065
I7
sS'M'
p2066
I11
sS'R'
p2067
I6
sS'TB'
p2068
I8
sS'PL'
p2069
I12
sS'TA'
p2070
I6
ssg179
(dp2071
g2056
I9
sg2057
I6
sg2058
I9
sg2059
I10
sg2064
I9
sg2061
I10
sg2062
I8
sg2063
I12
sg2060
I4
sg2065
I7
sg2066
I11
sg2067
I6
sg2068
I8
sg2069
I12
sg2070
I6
ssg108
(dp2072
S's11'
p2073
(ijoueur
joueur
p2074
(dp2075
g28
I0
sg29
I0
sg30
I0
sg31
g32
(g33
g34
Ntp2076
Rp2077
(dp2078
g38
I6
sg39
S'***'
p2079
sg41
S'personnage'
p2080
sbsg43
(dp2081
S'SR'
p2082
I0
sS'ST'
p2083
I5
sS'CR'
p2084
I1
sS'CT'
p2085
I9
ssg49
(dp2086
g2082
I0
sg2083
I0
sg2084
I0
sg2085
I0
ssg181
g61
sg52
I0
sg53
I00
sg54
I1
sg55
I0
sg56
I0
sg57
(S'dummy'
p2087
S'C2'
p2088
S'AI'
p2089
g61
tp2090
sg63
I00
sg64
g32
(g33
g34
Ntp2091
Rp2092
(dp2093
g38
I6
sg39
S'***'
p2094
sg41
g2080
sbsg69
(dp2095
g2082
I0
sg2083
I0
sg2084
I0
sg2085
I5
ssg75
(dp2096
g2082
I0
sg2083
I5
sg2084
I1
sg2085
I9
ssg77
(dp2097
g2082
I0
sg2083
I0
sg2084
I0
sg2085
I0
ssg79
(dp2098
g2082
I0
sg2083
I0
sg2084
I0
sg2085
I5
ssg81
I0
sg82
I0
sg83
S'Golfag'
p2099
sg85
I11
sg86
I0
sg87
I22
sg88
I700
sg89
S'AL'
p2100
sg91
(dp2101
S'A'
p2102
I10
sS'ME'
p2103
I6
sS'RP2'
p2104
I9
sS'E'
p2105
I10
sS'TO'
p2106
I4
sS'RP1'
p2107
I10
sS'JP'
p2108
I8
sS'RP_tot'
p2109
I12
sS'P'
p2110
I9
sS'PA'
p2111
I8
sS'M'
p2112
I11
sS'R'
p2113
I6
sS'TB'
p2114
I7
sS'PL'
p2115
I11
sS'TA'
p2116
I6
ssg179
g2101
sg154
I0
sg155
I0
sg156
I0
sg157
I0
sg158
F9.96551724137931
sg159
I0
sS'pas_meme_type'
p2117
(lp2118
S'EV'
p2119
asg160
I0
sg161
I1
sg162
(dp2120
S'A'
p2121
I10
sS'ME'
p2122
I6
sS'RP2'
p2123
I9
sS'E'
p2124
I10
sS'TO'
p2125
I4
sS'RP1'
p2126
I10
sS'JP'
p2127
I8
sS'RP_tot'
p2128
I12
sS'P'
p2129
I9
sS'PA'
p2130
I8
sS'M'
p2131
I11
sS'R'
p2132
I6
sS'TB'
p2133
I7
sS'PL'
p2134
I11
sS'TA'
p2135
I6
ssS'attribute_error'
p2136
(lp2137
sg180
I0
sg183
I0
sg184
I0
sg185
I0
sg186
I58
sg187
I1
sg188
I1
sg189
S'OG'
p2138
sbssg154
I2
sg155
I0
sg156
I0
sg157
I0
sg158
F9.862068965517242
sg159
I0
sg2117
(lp2139
S'EV'
p2140
asg160
I0
sg161
I1
sg162
(dp2141
S'A'
p2142
I10
sS'ME'
p2143
I6
sS'RP2'
p2144
I9
sS'E'
p2145
I10
sS'P'
p2146
I9
sS'RP1'
p2147
I10
sS'JP'
p2148
I8
sS'RP_tot'
p2149
I12
sS'TO'
p2150
I4
sS'PA'
p2151
I8
sS'M'
p2152
I11
sS'R'
p2153
I6
sS'TB'
p2154
I7
sS'PL'
p2155
I11
sS'TA'
p2156
I6
ssg2136
(lp2157
sg180
I0
sg183
I0
sg184
I0
sg185
I0
sg186
I58
sg187
I7
sg188
I0
sg189
S'OG'
p2158
sbsS'n20'
p2159
(ijoueur
joueur
p2160
(dp2161
g27
F10.166666666666666
sg28
I0
sg29
I3
sg30
I0
sg31
g32
(g33
g34
Ntp2162
Rp2163
(dp2164
g38
I4
sg39
S'x'
p2165
sg41
S'heros'
p2166
sbsg43
(dp2167
g739
I0
sg740
I0
sg741
I0
sg742
I1
ssg49
(dp2168
g739
I0
sg740
I0
sg741
I0
sg742
I1
ssg51
I0
sg52
I0
sg53
I00
sg54
I3
sg55
I3
sg56
I19
sg57
(g744
S'C1'
p2169
S'AR'
p2170
S'DO'
p2171
tp2172
sg63
I00
sg64
g32
(g33
g34
Ntp2173
Rp2174
(dp2175
g38
I4
sg39
g2165
sg41
g2166
sbsg69
(dp2176
g753
I0
sg754
I0
sg755
I1
sg756
I10
ssg75
(dp2177
g753
I0
sg754
I0
sg755
I0
sg756
I1
ssg77
(dp2178
g753
I0
sg754
I0
sg755
I0
sg756
I0
ssg79
(dp2179
g739
I0
sg740
I5
sg741
I1
sg742
I21
ssg81
I58
sg82
I15
sg83
S'Rozengh'
p2180
sg85
I1
sg86
I57
sg87
I11
sg88
I140
sg89
g761
sg91
(dp2181
g763
I9
sg764
I6
sg765
I10
sg766
I13
sg767
I8
sg768
I9
sg769
I8
sg770
I12
sg771
I3
sg772
I8
sg773
I12
sg774
I4
sg775
I10
sg776
I10
sg777
I7
ssg108
(dp2182
g779
(ijoueur
joueur
p2183
(dp2184
g28
I0
sg29
I3
sg30
I0
sg31
g32
(g33
g34
Ntp2185
Rp2186
(dp2187
g38
I4
sg39
S'x'
p2188
sg41
S'heros'
p2189
sbsg43
(dp2190
S'SR'
p2191
I0
sS'ST'
p2192
I0
sS'CR'
p2193
I0
sS'CT'
p2194
I0
ssg49
(dp2195
g2191
I0
sg2192
I0
sg2193
I0
sg2194
I1
ssg51
I0
sg52
I0
sg53
I00
sg54
I0
sg55
I1
sg56
I6
sg57
(S'dummy'
p2196
S'C1'
p2197
S'AR'
p2198
S'DO'
p2199
tp2200
sg63
I00
sg64
g32
(g33
g34
Ntp2201
Rp2202
(dp2203
g38
I4
sg39
g2188
sg41
g2189
sbsg69
(dp2204
g2191
I0
sg2192
I5
sg2193
I0
sg2194
I11
ssg75
(dp2205
g2191
I0
sg2192
I0
sg2193
I0
sg2194
I0
ssg77
(dp2206
g2191
I0
sg2192
I0
sg2193
I0
sg2194
I1
ssg79
(dp2207
g2191
I0
sg2192
I5
sg2193
I0
sg2194
I11
ssg81
I43
sg82
I20
sg83
S'Rozengh'
p2208
sg85
I1
sg86
I38
sg87
I11
sg88
I140
sg89
S'MDL'
p2209
sg91
(dp2210
S'A'
p2211
I9
sS'ME'
p2212
I6
sS'RP2'
p2213
I10
sS'E'
p2214
I13
sS'TO'
p2215
I3
sS'RP1'
p2216
I9
sS'JP'
p2217
I8
sS'RP_tot'
p2218
I12
sS'P'
p2219
I9
sS'PA'
p2220
I8
sS'M'
p2221
I13
sS'R'
p2222
I7
sS'TB'
p2223
I10
sS'PL'
p2224
I10
sS'TA'
p2225
I7
ssg154
I0
sg155
I0
sg156
I0
sg157
I0
sg158
F10.166666666666666
sg159
I1
sg160
I0
sg161
I1
sg162
(dp2226
S'A'
p2227
I9
sS'ME'
p2228
I6
sS'RP2'
p2229
I10
sS'E'
p2230
I13
sS'TO'
p2231
I3
sS'RP1'
p2232
I9
sS'JP'
p2233
I8
sS'RP_tot'
p2234
I12
sS'P'
p2235
I9
sS'PA'
p2236
I8
sS'M'
p2237
I13
sS'R'
p2238
I7
sS'TB'
p2239
I10
sS'PL'
p2240
I10
sS'TA'
p2241
I7
ssg179
g2210
sg180
I0
sg181
g61
sg183
I5
sg184
I2
sg185
I5
sg186
I15
sg187
I10
sg188
I1
sg189
S'OG'
p2242
sbssg154
I0
sg155
I0
sg156
I0
sg157
I0
sg158
F9.8125
sg159
I4
sg160
I0
sg161
I2
sg162
(dp2243
g841
I9
sg842
I6
sg843
I10
sg844
I13
sg845
I9
sg846
I9
sg847
I8
sg848
I12
sg849
I3
sg850
I8
sg851
I13
sg852
I7
sg853
I10
sg854
I10
sg855
I7
ssg179
(dp2244
g763
I9
sg764
I6
sg765
I10
sg766
I13
sg771
I3
sg768
I9
sg769
I8
sg770
I12
sg767
I8
sg772
I8
sg773
I12
sg774
I4
sg775
I10
sg776
I10
sg777
I7
ssg180
I0
sg181
g61
sg183
I11
sg184
I0
sg185
I6
sg186
I15
sg187
I13
sg188
I1
sg189
S'OG'
p2245
sbsS'n8'
p2246
g25
sS'n9'
p2247
(ijoueur
joueur
p2248
(dp2249
g27
F8.172413793103448
sg28
I0
sg29
I0
sg30
I0
sg31
g32
(g33
g34
Ntp2250
Rp2251
(dp2252
g38
I3
sg39
S'<<<'
p2253
sg41
S'rare'
p2254
sbsg43
(dp2255
g1044
I0
sg1045
I0
sg1046
I3
sg1047
I2
ssg49
(dp2256
g1044
I0
sg1045
I0
sg1046
I0
sg1047
I0
ssg51
I0
sg52
I0
sg53
I00
sg54
I3
sg55
I0
sg56
I0
sg57
(g1049
S'DM'
p2257
S'CE'
p2258
g61
tp2259
sg63
I00
sg64
g2251
sg69
(dp2260
g1058
I0
sg1059
I10
sg1060
I0
sg1061
I0
ssg75
(dp2261
g1058
I0
sg1059
I1
sg1060
I0
sg1061
I0
ssg77
(dp2262
g1058
I0
sg1059
I0
sg1060
I0
sg1061
I0
ssg79
(dp2263
g1044
I0
sg1045
I0
sg1046
I2
sg1047
I11
ssg81
I0
sg82
I0
sg83
S'Abot'
p2264
sg85
I11
sg86
I0
sg87
I22
sg88
I99
sg89
g1066
sg91
(dp2265
g1068
I9
sg1069
I7
sg1070
I10
sg1071
I12
sg1072
I6
sg1073
I11
sg1074
I7
sg1075
I14
sg1076
I4
sg1077
I10
sg1078
I14
sg1079
I7
sg1080
I6
sg1081
I6
sg1082
I5
ssg108
(dp2266
g1084
(ijoueur
joueur
p2267
(dp2268
g28
I0
sg29
I0
sg30
I0
sg31
g32
(g33
g34
Ntp2269
Rp2270
(dp2271
g38
I3
sg39
S'<<<'
p2272
sg41
S'rare'
p2273
sbsg43
(dp2274
S'SR'
p2275
I0
sS'ST'
p2276
I0
sS'CR'
p2277
I3
sS'CT'
p2278
I1
ssg49
(dp2279
g2275
I0
sg2276
I0
sg2277
I0
sg2278
I0
ssg51
I0
sg52
I0
sg53
I00
sg54
I0
sg55
I0
sg56
I0
sg57
(S'dummy'
p2280
S'DM'
p2281
S'CE'
p2282
g61
tp2283
sg63
I00
sg64
g32
(g33
g34
Ntp2284
Rp2285
(dp2286
g38
I1
sg39
S'^'
p2287
sg41
S'base'
p2288
sbsg69
(dp2289
g2275
I0
sg2276
I0
sg2277
I2
sg2278
I1
ssg75
(dp2290
g2275
I0
sg2276
I0
sg2277
I3
sg2278
I1
ssg77
(dp2291
g2275
I0
sg2276
I0
sg2277
I0
sg2278
I0
ssg79
(dp2292
g2275
I0
sg2276
I0
sg2277
I2
sg2278
I1
ssg81
I0
sg82
I0
sg83
S'Abot'
p2293
sg85
I11
sg86
I0
sg87
I22
sg88
I72
sg89
S'ED'
p2294
sg91
(dp2295
S'A'
p2296
I7
sS'ME'
p2297
I6
sS'RP2'
p2298
I10
sS'E'
p2299
I10
sS'TO'
p2300
I2
sS'RP1'
p2301
I10
sS'JP'
p2302
I6
sS'RP_tot'
p2303
I13
sS'P'
p2304
I6
sS'PA'
p2305
I8
sS'M'
p2306
I10
sS'R'
p2307
I5
sS'TB'
p2308
I6
sS'PL'
p2309
I6
sS'TA'
p2310
I4
ssg154
I0
sg155
I0
sg156
I0
sg157
I0
sg158
F8.172413793103448
sg159
I0
sg160
I0
sg161
I0
sg162
(dp2311
S'A'
p2312
I7
sS'ME'
p2313
I6
sS'RP2'
p2314
I10
sS'E'
p2315
I10
sS'TO'
p2316
I2
sS'RP1'
p2317
I10
sS'JP'
p2318
I6
sS'RP_tot'
p2319
I13
sS'P'
p2320
I6
sS'PA'
p2321
I8
sS'M'
p2322
I10
sS'R'
p2323
I5
sS'TB'
p2324
I6
sS'PL'
p2325
I6
sS'TA'
p2326
I4
ssg179
g2295
sg180
I0
sg181
g61
sg183
I0
sg184
I0
sg185
I0
sg186
I10
sg187
I0
sg188
I0
sg189
S'OG'
p2327
sbssg154
I0
sg155
I0
sg156
I1
sg157
I0
sg158
F9.758620689655173
sg159
I0
sg160
I1
sg161
I0
sg162
(dp2328
g1146
I7
sg1147
I6
sg1148
I10
sg1149
I10
sg1150
I2
sg1151
I10
sg1152
I6
sg1153
I13
sg1154
I6
sg1155
I8
sg1156
I10
sg1157
I5
sg1158
I6
sg1159
I6
sg1160
I4
ssg179
(dp2329
g1068
I9
sg1069
I7
sg1070
I10
sg1071
I12
sg1076
I4
sg1073
I11
sg1074
I7
sg1075
I14
sg1072
I6
sg1077
I10
sg1078
I14
sg1079
I7
sg1080
I6
sg1081
I6
sg1082
I5
ssg180
I0
sg181
g61
sg183
I0
sg184
I0
sg185
I0
sg186
I12
sg187
I3
sg188
I0
sg189
S'OG'
p2330
sbsS'n1'
p2331
g346
sS'n2'
p2332
(ijoueur
joueur
p2333
(dp2334
g27
F10.0
sg28
I2
sg29
I0
sg30
I0
sg31
g32
(g33
g34
Ntp2335
Rp2336
(dp2337
g38
I3
sg39
S'^^^'
p2338
sg41
g2254
sbsg43
(dp2339
g1044
I5
sg1045
I0
sg1046
I1
sg1047
I24
ssg49
(dp2340
g1044
I0
sg1045
I0
sg1046
I0
sg1047
I0
ssg51
I0
sg52
I0
sg53
I00
sg54
I1
sg55
I0
sg56
I0
sg57
(g1049
S'PI'
p2341
S'TA'
p2342
g61
tp2343
sg63
I00
sg64
g32
(g33
g34
Ntp2344
Rp2345
(dp2346
g38
I3
sg39
S'^^^'
p2347
sg41
g2254
sbsg69
(dp2348
g1058
I0
sg1059
I0
sg1060
I0
sg1061
I0
ssg75
(dp2349
g1058
I0
sg1059
I12
sg1060
I0
sg1061
I0
ssg77
(dp2350
g1058
I0
sg1059
I0
sg1060
I0
sg1061
I0
ssg79
(dp2351
g1044
I0
sg1045
I0
sg1046
I0
sg1047
I0
ssg81
I0
sg82
I0
sg83
S'Vuzgr'
p2352
sg85
I6
sg86
I0
sg87
I15
sg88
I92
sg89
g1066
sg91
(dp2353
g1068
I7
sg1069
I13
sg1070
I9
sg1071
I10
sg1072
I3
sg1073
I10
sg1074
I0
sg1075
I12
sg1076
I4
sg1077
I7
sg1078
I10
sg1079
I9
sg1080
I1
sg1081
I9
sg1082
I15
ssg108
(dp2354
g1084
(ijoueur
joueur
p2355
(dp2356
g28
I1
sg29
I0
sg30
I0
sg31
g32
(g33
g34
Ntp2357
Rp2358
(dp2359
g38
I3
sg39
S'^^^'
p2360
sg41
S'rare'
p2361
sbsg43
(dp2362
S'SR'
p2363
I5
sS'ST'
p2364
I0
sS'CR'
p2365
I1
sS'CT'
p2366
I12
ssg49
(dp2367
g2363
I0
sg2364
I0
sg2365
I0
sg2366
I0
ssg51
I0
sg52
I0
sg53
I00
sg54
I0
sg55
I0
sg56
I0
sg57
(S'dummy'
p2368
S'PI'
p2369
S'TA'
p2370
g61
tp2371
sg63
I00
sg64
g32
(g33
g34
Ntp2372
Rp2373
(dp2374
g38
I3
sg39
S'^^^'
p2375
sg41
g2361
sbsg69
(dp2376
g2363
I0
sg2364
I0
sg2365
I0
sg2366
I0
ssg75
(dp2377
g2363
I5
sg2364
I0
sg2365
I1
sg2366
I12
ssg77
(dp2378
g2363
I0
sg2364
I0
sg2365
I0
sg2366
I0
ssg79
(dp2379
g2363
I0
sg2364
I0
sg2365
I0
sg2366
I0
ssg81
I0
sg82
I0
sg83
S'Vuzgr'
p2380
sg85
I6
sg86
I0
sg87
I15
sg88
I92
sg89
S'ED'
p2381
sg91
(dp2382
S'A'
p2383
I7
sS'ME'
p2384
I13
sS'RP2'
p2385
I8
sS'E'
p2386
I10
sS'TO'
p2387
I4
sS'RP1'
p2388
I10
sS'JP'
p2389
I0
sS'RP_tot'
p2390
I11
sS'P'
p2391
I3
sS'PA'
p2392
I7
sS'M'
p2393
I10
sS'R'
p2394
I9
sS'TB'
p2395
I1
sS'PL'
p2396
I9
sS'TA'
p2397
I13
ssg154
I0
sg155
I0
sg156
I0
sg157
I0
sg158
F10.206896551724139
sg159
I0
sg160
I0
sg161
I0
sg162
(dp2398
S'A'
p2399
I7
sS'ME'
p2400
I13
sS'RP2'
p2401
I8
sS'E'
p2402
I10
sS'TO'
p2403
I4
sS'RP1'
p2404
I10
sS'JP'
p2405
I0
sS'RP_tot'
p2406
I11
sS'P'
p2407
I3
sS'PA'
p2408
I7
sS'M'
p2409
I10
sS'R'
p2410
I9
sS'TB'
p2411
I1
sS'PL'
p2412
I9
sS'TA'
p2413
I13
ssg179
g2382
sg180
I1
sg181
S'MDL 10'
p2414
sg183
I0
sg184
I0
sg185
I0
sg186
I20
sg187
I9
sg188
I0
sg189
S'OG'
p2415
sbssg154
I0
sg155
I0
sg156
I1
sg157
I0
sg158
F10.482758620689655
sg159
I0
sg160
I1
sg161
I0
sg162
(dp2416
g1146
I7
sg1147
I13
sg1148
I8
sg1149
I10
sg1150
I4
sg1151
I10
sg1152
I0
sg1153
I11
sg1154
I3
sg1155
I7
sg1156
I10
sg1157
I9
sg1158
I1
sg1159
I9
sg1160
I13
ssg179
(dp2417
g1068
I7
sg1069
I13
sg1070
I9
sg1071
I10
sg1076
I4
sg1073
I10
sg1074
I0
sg1075
I12
sg1072
I3
sg1077
I7
sg1078
I10
sg1079
I9
sg1080
I1
sg1081
I9
sg1082
I15
ssg180
I1
sg181
S'MDL 10'
p2418
sg183
I0
sg184
I0
sg185
I0
sg186
I20
sg187
I10
sg188
I0
sg189
S'OG'
p2419
sbsS'n3'
p2420
(ijoueur
joueur
p2421
(dp2422
g27
F11.814814814814815
sg28
I2
sg29
I0
sg30
I0
sg31
g32
(g33
g34
Ntp2423
Rp2424
(dp2425
g38
I6
sg39
S'***'
p2426
sg41
S'personnage'
p2427
sbsg43
(dp2428
S'SR'
p2429
I0
sS'ST'
p2430
I0
sS'CR'
p2431
I0
sS'CT'
p2432
I0
ssg49
(dp2433
g2429
I0
sg2430
I0
sg2431
I0
sg2432
I0
ssg51
I0
sg52
I0
sg224
I0
sg225
I0
sg53
I01
sg54
I3
sg55
I0
sg56
I0
sg57
(S'dummy'
p2434
S'PI'
p2435
g61
g61
tp2436
sg63
I00
sg64
g32
(g33
g34
Ntp2437
Rp2438
(dp2439
g38
I6
sg39
S'***'
p2440
sg41
g2427
sbsg69
(dp2441
S'SR'
p2442
I0
sS'ST'
p2443
I0
sS'CR'
p2444
I0
sS'CT'
p2445
I13
ssg75
(dp2446
g2442
I0
sg2443
I0
sg2444
I0
sg2445
I0
ssg77
(dp2447
g2442
I0
sg2443
I0
sg2444
I0
sg2445
I0
ssg79
(dp2448
g2429
I0
sg2430
I5
sg2431
I0
sg2432
I27
ssg81
I0
sg82
I0
sg83
S'Graissus'
p2449
sg85
I3
sg86
I0
sg87
I15
sg88
I1398
sg89
S'TA'
p2450
sg91
(dp2451
S'A'
p2452
I9
sS'ME'
p2453
I17
sS'RP2'
p2454
I8
sS'E'
p2455
I9
sS'P'
p2456
I4
sS'RP1'
p2457
I15
sS'JP'
p2458
I4
sS'RP_tot'
p2459
I16
sS'TO'
p2460
I3
sS'PA'
p2461
I5
sS'M'
p2462
I7
sS'R'
p2463
I14
sS'TB'
p2464
I3
sS'PL'
p2465
I9
sS'TA'
p2466
I8
ssg108
(dp2467
S's11'
p2468
(ijoueur
joueur
p2469
(dp2470
g28
I2
sg29
I0
sg30
I0
sg31
g32
(g33
g34
Ntp2471
Rp2472
(dp2473
g38
I6
sg39
S'***'
p2474
sg41
S'personnage'
p2475
sbsg43
(dp2476
S'SR'
p2477
I0
sS'ST'
p2478
I0
sS'CR'
p2479
I0
sS'CT'
p2480
I0
ssg49
(dp2481
g2477
I0
sg2478
I0
sg2479
I0
sg2480
I0
ssg51
I0
sg158
F11.814814814814815
sg52
I0
sg224
I0
sg225
I0
sg54
I2
sg55
I0
sg56
I0
sg57
(S'dummy'
p2482
S'PI'
p2483
g61
g61
tp2484
sg63
I01
sg64
g32
(g33
g34
Ntp2485
Rp2486
(dp2487
g38
I6
sg39
S'***'
p2488
sg41
g2475
sbsg69
(dp2489
g2477
I0
sg2478
I5
sg2479
I0
sg2480
I14
ssg53
I00
sg77
(dp2490
g2477
I0
sg2478
I0
sg2479
I0
sg2480
I0
ssg79
(dp2491
g2477
I0
sg2478
I5
sg2479
I0
sg2480
I14
ssg81
I0
sg82
I0
sg83
S'Graissus'
p2492
sg85
I3
sg86
I0
sg87
I15
sg88
I678
sg89
S'MRB'
p2493
sg91
(dp2494
S'A'
p2495
I9
sS'ME'
p2496
I17
sS'RP2'
p2497
I8
sS'E'
p2498
I9
sS'TO'
p2499
I3
sS'RP1'
p2500
I15
sS'JP'
p2501
I4
sS'RP_tot'
p2502
I16
sS'P'
p2503
I4
sS'PA'
p2504
I5
sS'M'
p2505
I7
sS'R'
p2506
I12
sS'TB'
p2507
I3
sS'PL'
p2508
I8
sS'TA'
p2509
I8
ssg154
I0
sg155
I0
sg156
I0
sg157
I0
sg75
(dp2510
g2477
I0
sg2478
I0
sg2479
I0
sg2480
I0
ssg159
I0
sg306
I0
sg160
I0
sg161
I0
sg162
(dp2511
S'A'
p2512
I9
sS'ME'
p2513
I17
sS'RP2'
p2514
I8
sS'E'
p2515
I9
sS'TO'
p2516
I3
sS'RP1'
p2517
I15
sS'JP'
p2518
I4
sS'RP_tot'
p2519
I16
sS'P'
p2520
I4
sS'PA'
p2521
I5
sS'M'
p2522
I7
sS'R'
p2523
I12
sS'TB'
p2524
I3
sS'PL'
p2525
I8
sS'TA'
p2526
I8
ssg179
g2494
sg180
I2
sg181
g61
sg183
I0
sg184
I0
sg185
I0
sg186
I62
sg187
I10
sg188
I0
sg189
S'OG'
p2527
sbssg154
I0
sg155
I0
sg156
I0
sg157
I0
sg158
F12.407407407407407
sg159
I0
sg306
I0
sg160
I0
sg161
I1
sg162
(dp2528
S'A'
p2529
I9
sS'ME'
p2530
I17
sS'RP2'
p2531
I8
sS'E'
p2532
I9
sS'TO'
p2533
I3
sS'RP1'
p2534
I15
sS'JP'
p2535
I4
sS'RP_tot'
p2536
I16
sS'P'
p2537
I4
sS'PA'
p2538
I5
sS'M'
p2539
I7
sS'R'
p2540
I12
sS'TB'
p2541
I3
sS'PL'
p2542
I8
sS'TA'
p2543
I8
ssg179
(dp2544
g2452
I9
sg2453
I17
sg2454
I8
sg2455
I9
sg2460
I3
sg2457
I15
sg2458
I4
sg2459
I16
sg2456
I4
sg2461
I5
sg2462
I7
sg2463
I14
sg2464
I3
sg2465
I9
sg2466
I8
ssg180
I0
sg181
S'MRB 12'
p2545
sg183
I0
sg184
I0
sg185
I0
sg186
I33
sg187
I13
sg188
I1
sg189
S'OG'
p2546
sbsS'n4'
p2547
g731
sS'n5'
p2548
(ijoueur
joueur
p2549
(dp2550
g27
F9.655172413793103
sg28
I0
sg29
I0
sg30
I0
sg31
g32
(g33
g34
Ntp2551
Rp2552
(dp2553
g38
I3
sg39
S'<<<'
p2554
sg41
g2254
sbsg43
(dp2555
g1044
I5
sg1045
I0
sg1046
I8
sg1047
I11
ssg49
(dp2556
g1044
I0
sg1045
I0
sg1046
I0
sg1047
I0
ssg51
I0
sg52
I0
sg53
I00
sg54
I1
sg55
I0
sg56
I0
sg57
(g1049
S'N8'
p2557
S'DL'
p2558
g61
tp2559
sg63
I00
sg64
g32
(g33
g34
Ntp2560
Rp2561
(dp2562
g38
I3
sg39
S'<<<'
p2563
sg41
g2254
sbsg69
(dp2564
g1058
I0
sg1059
I1
sg1060
I0
sg1061
I0
ssg75
(dp2565
g1058
I0
sg1059
I9
sg1060
I3
sg1061
I0
ssg77
(dp2566
g1058
I0
sg1059
I0
sg1060
I0
sg1061
I0
ssg79
(dp2567
g1044
I0
sg1045
I0
sg1046
I0
sg1047
I4
ssg81
I0
sg82
I0
sg83
S'Imetot'
p2568
sg85
I11
sg86
I0
sg87
I22
sg88
I173
sg89
g1066
sg91
(dp2569
g1068
I7
sg1069
I12
sg1070
I6
sg1071
I11
sg1072
I1
sg1073
I12
sg1074
I1
sg1075
I12
sg1076
I6
sg1077
I5
sg1078
I10
sg1079
I11
sg1080
I0
sg1081
I9
sg1082
I6
ssg108
(dp2570
g1084
(ijoueur
joueur
p2571
(dp2572
g28
I0
sg29
I0
sg30
I0
sg31
g32
(g33
g34
Ntp2573
Rp2574
(dp2575
g38
I3
sg39
S'<<<'
p2576
sg41
S'rare'
p2577
sbsg43
(dp2578
S'SR'
p2579
I5
sS'ST'
p2580
I0
sS'CR'
p2581
I5
sS'CT'
p2582
I2
ssg49
(dp2583
g2579
I0
sg2580
I0
sg2581
I0
sg2582
I0
ssg51
I0
sg52
I0
sg53
I00
sg54
I2
sg55
I0
sg56
I0
sg57
(S'dummy'
p2584
S'N8'
p2585
S'DL'
p2586
g61
tp2587
sg63
I00
sg64
g32
(g33
g34
Ntp2588
Rp2589
(dp2590
g38
I3
sg39
S'<<<'
p2591
sg41
g2577
sbsg69
(dp2592
g2579
I0
sg2580
I0
sg2581
I0
sg2582
I3
ssg75
(dp2593
g2579
I5
sg2580
I0
sg2581
I5
sg2582
I2
ssg77
(dp2594
g2579
I0
sg2580
I0
sg2581
I0
sg2582
I0
ssg79
(dp2595
g2579
I0
sg2580
I0
sg2581
I0
sg2582
I3
ssg81
I0
sg82
I0
sg83
S'Imetot'
p2596
sg85
I11
sg86
I0
sg87
I22
sg88
I173
sg89
S'ED'
p2597
sg91
(dp2598
S'A'
p2599
I6
sS'ME'
p2600
I10
sS'RP2'
p2601
I6
sS'E'
p2602
I10
sS'TO'
p2603
I5
sS'RP1'
p2604
I11
sS'JP'
p2605
I1
sS'RP_tot'
p2606
I11
sS'P'
p2607
I1
sS'PA'
p2608
I5
sS'M'
p2609
I10
sS'R'
p2610
I11
sS'TB'
p2611
I0
sS'PL'
p2612
I9
sS'TA'
p2613
I6
ssg154
I0
sg155
I0
sg156
I0
sg157
I0
sg158
F9.655172413793103
sg159
I0
sg160
I0
sg161
I0
sg162
(dp2614
S'A'
p2615
I6
sS'ME'
p2616
I10
sS'RP2'
p2617
I6
sS'E'
p2618
I10
sS'TO'
p2619
I5
sS'RP1'
p2620
I11
sS'JP'
p2621
I1
sS'RP_tot'
p2622
I11
sS'P'
p2623
I1
sS'PA'
p2624
I5
sS'M'
p2625
I10
sS'R'
p2626
I11
sS'TB'
p2627
I0
sS'PL'
p2628
I9
sS'TA'
p2629
I6
ssg179
g2598
sg180
I0
sg181
g61
sg183
I0
sg184
I0
sg185
I0
sg186
I14
sg187
I2
sg188
I0
sg189
S'OG'
p2630
sbssg154
I0
sg155
I0
sg156
I0
sg157
I0
sg158
F10.275862068965518
sg159
I0
sg160
I0
sg161
I0
sg162
(dp2631
g1146
I6
sg1147
I10
sg1148
I6
sg1149
I10
sg1150
I5
sg1151
I11
sg1152
I1
sg1153
I11
sg1154
I1
sg1155
I5
sg1156
I10
sg1157
I11
sg1158
I0
sg1159
I9
sg1160
I6
ssg179
(dp2632
g1068
I7
sg1069
I12
sg1070
I6
sg1071
I11
sg1076
I6
sg1073
I12
sg1074
I1
sg1075
I12
sg1072
I1
sg1077
I5
sg1078
I10
sg1079
I11
sg1080
I0
sg1081
I9
sg1082
I6
ssg180
I0
sg181
g61
sg183
I0
sg184
I0
sg185
I0
sg186
I14
sg187
I3
sg188
I0
sg189
S'OG'
p2633
sbsS'n6'
p2634
g476
sS'n7'
p2635
g1036
ssS'remplacements'
p2636
(dp2637
g2159
S'n0'
p2638
sg1426
g2638
sg1514
g2638
sg1892
g2638
sg1769
g2638
sg1770
g2638
sg2023
g2638
ssb.