(iclub
compo
p0
(dp1
S'caracs_old'
p2
(dp3
S'A'
p4
F165.5
sS'ME'
p5
F102.0
sS'E'
p6
I243
sS'OplusAV'
p7
F92.0
sS'TO_off'
p8
F109.5
sS'OplusAR'
p9
F75.0
sS'M'
p10
F38.0
sS'JP'
p11
F88.0
sS'OmoinsAR'
p12
F95.0
sS'PA'
p13
F113.5
sS'TO_def'
p14
F101.0
sS'OmoinsAV'
p15
F93.0
sS'R'
p16
F153.0
ssS'totaux_old'
p17
(dp18
S'T2'
p19
F183.5
sS'T3'
p20
F121.5
sS'T1'
p21
F180.125
ssS'roles'
p22
(dp23
S'drop1'
p24
(ijoueur
joueur
p25
(dp26
S'rouges_total'
p27
I0
sS'drops_total'
p28
I18
sS'blessure'
p29
I0
sS'RG_max'
p30
(ijoueur
rang
p31
(dp32
S'type_nb'
p33
I5
sS'rang'
p34
S'**'
p35
sS'type'
p36
S'seigneur'
p37
sbsS'MJ2_total'
p38
(dp39
S'SR'
p40
I0
sS'ST'
p41
I0
sS'CR'
p42
I0
sS'CT'
p43
I0
ssS'MJ3_total'
p44
(dp45
g40
I0
sg41
I0
sg42
I0
sg43
I0
ssS'anciens_clubs'
p46
S'MRB8;KHR11'
p47
sS'drop_rates_saison'
p48
I0
sS'essais_saison'
p49
I0
sS'penalite_ratees_saison'
p50
I0
sS'transformations_saison'
p51
I0
sS'postes'
p52
(S'dummy'
p53
S'DO'
p54
S'CE'
p55
S'AR'
p56
tp57
sS'RG'
p58
(ijoueur
rang
p59
(dp60
g33
I5
sg34
S'**'
p61
sg36
g37
sbsS'MJ1'
p62
(dp63
g40
I0
sg41
I0
sg42
I0
sg43
I0
ssS'MJ2'
p64
(dp65
g40
I0
sg41
I0
sg42
I0
sg43
I0
ssS'MJ3'
p66
(dp67
g40
I0
sg41
I0
sg42
I0
sg43
I0
ssS'MJ1_total'
p68
(dp69
g40
I0
sg41
I0
sg42
I0
sg43
I0
ssS'penalites_total'
p70
I236
sS'penalites_saison'
p71
I0
sS'nom'
p72
S'Veyeth'
p73
sS'C'
p74
I0
sS'transformations_total'
p75
I121
sS'D'
p76
I12
sS'VAL'
p77
I215
sS'club'
p78
S'KH'
p79
sS'caracs'
p80
(dp81
S'A'
p82
I11
sS'ME'
p83
I5
sS'RP2'
p84
I10
sS'E'
p85
I12
sS'TO'
p86
I8
sS'RP1'
p87
I7
sS'JP'
p88
I10
sS'RP_tot'
p89
I10
sS'P'
p90
I11
sS'PA'
p91
I11
sS'M'
p92
I9
sS'R'
p93
I6
sS'TB'
p94
I9
sS'PL'
p95
I10
sS'TA'
p96
I5
ssS'fatigue'
p97
I0
sS'drop_ratees_total'
p98
I0
sS'blessures_total'
p99
I0
sS'XP'
p100
I0
sS'EV'
p101
F10.424242424242424
sS'penalite_ratees_total'
p102
I0
sS'blessures_saison'
p103
I0
sS'jaunes_total'
p104
I0
sS'caracs_sans_fatigue'
p105
g81
sS'rouges_saison'
p106
I0
sS'transformation_ratees_total'
p107
I0
sS'drops_saison'
p108
I0
sS'transformation_ratees_saison'
p109
I0
sS'MS'
p110
I99
sS'essais_total'
p111
I15
sS'jaunes_saison'
p112
I0
sS'ARM'
p113
S'HE'
p114
sbsS'SA_scd'
p115
(ijoueur
joueur
p116
(dp117
g27
I0
sg28
I0
sg29
I0
sg30
(ijoueur
rang
p118
(dp119
g33
I5
sg34
S'xx'
p120
sg36
g37
sbsg38
(dp121
g40
I0
sg41
I0
sg42
I0
sg43
I0
ssg44
(dp122
g40
I0
sg41
I0
sg42
I0
sg43
I0
ssg46
S''
p123
sg48
I0
sg49
I0
sg50
I0
sg51
I0
sg52
(g53
S'DL'
p124
S'N8'
p125
g123
tp126
sg58
(ijoueur
rang
p127
(dp128
g33
I5
sg34
S'xx'
p129
sg36
g37
sbsg62
(dp130
g40
I0
sg41
I0
sg42
I0
sg43
I0
ssg64
(dp131
g40
I0
sg41
I0
sg42
I0
sg43
I0
ssg66
(dp132
g40
I0
sg41
I0
sg42
I0
sg43
I0
ssg68
(dp133
g40
I0
sg41
I0
sg42
I0
sg43
I0
ssg70
I0
sg71
I0
sg72
S'Eskendir'
p134
sg74
I2
sg75
I0
sg76
I9
sg77
I85
sg78
g79
sg80
(dp135
g82
I9
sg83
I10
sg84
I8
sg85
I11
sg86
I11
sg87
I12
sg88
I4
sg89
I13
sg90
I6
sg91
I7
sg92
I6
sg93
I8
sg94
I4
sg95
I9
sg96
I2
ssg97
I0
sg98
I0
sg99
I0
sg100
I0
sg101
F9.882352941176471
sg102
I0
sg103
I0
sg104
I0
sg105
g135
sg106
I0
sg107
I0
sg108
I0
sg109
I0
sg110
I14
sg111
I5
sg112
I0
sg113
S'N'
p136
sbsS'RJL'
p137
g25
sS'cap'
p138
(ijoueur
joueur
p139
(dp140
g27
I0
sg28
I0
sg29
I0
sg30
(ijoueur
rang
p141
(dp142
g33
I5
sg34
S'xx'
p143
sg36
g37
sbsg38
(dp144
g40
I0
sg41
I0
sg42
I0
sg43
I0
ssg44
(dp145
g40
I0
sg41
I0
sg42
I0
sg43
I0
ssg46
g123
sg48
I0
sg49
I0
sg50
I0
sg51
I0
sg52
(g53
S'C2'
p146
S'AI'
p147
g123
tp148
sg58
(ijoueur
rang
p149
(dp150
g33
I5
sg34
S'xx'
p151
sg36
g37
sbsg62
(dp152
g40
I0
sg41
I0
sg42
I0
sg43
I0
ssg64
(dp153
g40
I0
sg41
I0
sg42
I0
sg43
I0
ssg66
(dp154
g40
I0
sg41
I0
sg42
I0
sg43
I0
ssg68
(dp155
g40
I0
sg41
I0
sg42
I0
sg43
I0
ssg70
I0
sg71
I0
sg72
S'Angerith'
p156
sg74
I9
sg75
I0
sg76
I22
sg77
I148
sg78
g79
sg80
(dp157
g82
I9
sg83
I5
sg84
I8
sg85
I13
sg86
I6
sg87
I9
sg88
I8
sg89
I10
sg90
I9
sg91
I8
sg92
I9
sg93
I9
sg94
I9
sg95
I12
sg96
I5
ssg97
I0
sg98
I0
sg99
I0
sg100
I0
sg101
F10.068965517241379
sg102
I0
sg103
I0
sg104
I0
sg105
g157
sg106
I0
sg107
I0
sg108
I0
sg109
I0
sg110
I15
sg111
I1
sg112
I0
sg113
g136
sbsS'B4'
p158
(ijoueur
joueur
p159
(dp160
g27
I0
sg28
I1
sg29
I0
sg30
(ijoueur
rang
p161
(dp162
g33
I4
sg34
S'*'
p163
sg36
S'heros'
p164
sbsg38
(dp165
g40
I0
sg41
I0
sg42
I0
sg43
I0
ssg44
(dp166
g40
I0
sg41
I0
sg42
I0
sg43
I0
ssg46
S'ED11'
p167
sg48
I0
sg49
I0
sg50
I0
sg51
I0
sg52
(g53
S'DO'
p168
S'DM'
p169
g123
tp170
sg58
(ijoueur
rang
p171
(dp172
g33
I4
sg34
g163
sg36
g164
sbsg62
(dp173
g40
I0
sg41
I0
sg42
I0
sg43
I0
ssg64
(dp174
g40
I0
sg41
I0
sg42
I0
sg43
I0
ssg66
(dp175
g40
I0
sg41
I0
sg42
I0
sg43
I0
ssg68
(dp176
g40
I0
sg41
I0
sg42
I0
sg43
I0
ssg70
I40
sg71
I0
sg72
S'Gritenk'
p177
sg74
I8
sg75
I11
sg76
I18
sg77
I238
sg78
g79
sg80
(dp178
g82
I10
sg83
I5
sg84
I9
sg85
I9
sg86
I6
sg87
I8
sg88
I9
sg89
I10
sg90
I10
sg91
I14
sg92
I8
sg93
I6
sg94
I11
sg95
I8
sg96
I6
ssg97
I0
sg98
I0
sg99
I0
sg100
I0
sg101
F9.857142857142858
sg102
I0
sg103
I0
sg104
I0
sg105
g178
sg106
I0
sg107
I0
sg108
I0
sg109
I0
sg110
I13
sg111
I4
sg112
I0
sg113
S'S'
p179
sbsS'RJC'
p180
g25
sS'B1'
p181
g159
sS'B2'
p182
g159
sS'B3'
p183
g159
sS'SA_pcp2'
p184
(ijoueur
joueur
p185
(dp186
g27
I0
sg28
I0
sg29
I0
sg30
(ijoueur
rang
p187
(dp188
g33
I5
sg34
S'**'
p189
sg36
g37
sbsg38
(dp190
g40
I0
sg41
I0
sg42
I0
sg43
I0
ssg44
(dp191
g40
I0
sg41
I0
sg42
I0
sg43
I0
ssg46
S'APA9'
p192
sg48
I0
sg49
I0
sg50
I0
sg51
I0
sg52
(g53
S'TL'
p193
S'N8'
p194
g123
tp195
sg58
(ijoueur
rang
p196
(dp197
g33
I5
sg34
S'**'
p198
sg36
g37
sbsg62
(dp199
g40
I0
sg41
I0
sg42
I0
sg43
I0
ssg64
(dp200
g40
I0
sg41
I0
sg42
I0
sg43
I0
ssg66
(dp201
g40
I0
sg41
I0
sg42
I0
sg43
I0
ssg68
(dp202
g40
I0
sg41
I0
sg42
I0
sg43
I0
ssg70
I0
sg71
I0
sg72
S'Amalieth'
p203
sg74
I3
sg75
I0
sg76
I15
sg77
I165
sg78
g79
sg80
(dp204
g82
I14
sg83
I11
sg84
I9
sg85
I12
sg86
I11
sg87
I8
sg88
I7
sg89
I10
sg90
I7
sg91
I11
sg92
I9
sg93
I9
sg94
I8
sg95
I15
sg96
I4
ssg97
I0
sg98
I0
sg99
I0
sg100
I0
sg101
F11.35483870967742
sg102
I0
sg103
I0
sg104
I0
sg105
g204
sg106
I0
sg107
I0
sg108
I0
sg109
I0
sg110
I24
sg111
I4
sg112
I0
sg113
S'HE'
p205
sbsS'SA_pcp1'
p206
(ijoueur
joueur
p207
(dp208
g27
I0
sg28
I0
sg29
I0
sg30
(ijoueur
rang
p209
(dp210
g33
I5
sg34
S'**'
p211
sg36
g37
sbsg38
(dp212
g40
I0
sg41
I0
sg42
I0
sg43
I0
ssg44
(dp213
g40
I0
sg41
I0
sg42
I0
sg43
I0
ssg46
g123
sg48
I0
sg49
I0
sg50
I0
sg51
I0
sg52
(g53
S'TL'
p214
S'DL'
p215
S'N8'
p216
tp217
sg58
(ijoueur
rang
p218
(dp219
g33
I4
sg34
g163
sg36
g164
sbsg62
(dp220
g40
I0
sg41
I0
sg42
I0
sg43
I0
ssg64
(dp221
g40
I0
sg41
I0
sg42
I0
sg43
I0
ssg66
(dp222
g40
I0
sg41
I0
sg42
I0
sg43
I0
ssg68
(dp223
g40
I0
sg41
I0
sg42
I0
sg43
I0
ssg70
I0
sg71
I0
sg72
S'Plaomir'
p224
sg74
I9
sg75
I0
sg76
I21
sg77
I78
sg78
g79
sg80
(dp225
g82
I15
sg83
I8
sg84
I8
sg85
I11
sg86
I14
sg87
I9
sg88
I7
sg89
I10
sg90
I7
sg91
I12
sg92
I11
sg93
I7
sg94
I6
sg95
I13
sg96
I4
ssg97
I0
sg98
I0
sg99
I0
sg100
I0
sg101
F11.0
sg102
I0
sg103
I0
sg104
I0
sg105
g225
sg106
I0
sg107
I0
sg108
I0
sg109
I0
sg110
I9
sg111
I0
sg112
I0
sg113
S'ES'
p226
sbsS'drop3'
p227
(ijoueur
joueur
p228
(dp229
g27
I0
sg28
I6
sg29
I0
sg30
(ijoueur
rang
p230
(dp231
g33
I6
sg34
S'***'
p232
sg36
S'personnage'
p233
sbsg38
(dp234
g40
I0
sg41
I0
sg42
I0
sg43
I0
ssg44
(dp235
g40
I0
sg41
I0
sg42
I0
sg43
I0
ssg46
g123
sg48
I0
sg49
I0
sg50
I0
sg51
I0
sg52
(g53
S'DM'
p236
g123
g123
tp237
sg58
(ijoueur
rang
p238
(dp239
g33
I6
sg34
S'***'
p240
sg36
g233
sbsg62
(dp241
g40
I0
sg41
I0
sg42
I0
sg43
I0
ssg64
(dp242
g40
I0
sg41
I0
sg42
I0
sg43
I0
ssg66
(dp243
g40
I0
sg41
I0
sg42
I0
sg43
I0
ssg68
(dp244
g40
I0
sg41
I0
sg42
I0
sg43
I0
ssg70
I3
sg71
I0
sg72
S'Malekith'
p245
sg74
I3
sg75
I0
sg76
I12
sg77
I1080
sg78
g79
sg80
(dp246
g82
I11
sg83
I3
sg84
I8
sg85
I12
sg86
I10
sg87
I7
sg88
I9
sg89
I8
sg90
I10
sg91
I12
sg92
I8
sg93
I8
sg94
I9
sg95
I12
sg96
I5
ssg97
I0
sg98
I0
sg99
I0
sg100
I0
sg101
F10.413793103448276
sg102
I0
sg103
I0
sg104
I0
sg105
g246
sg106
I0
sg107
I0
sg108
I0
sg109
I0
sg110
I70
sg111
I2
sg112
I0
sg113
S'EN'
p247
sbsS'SA_remp1'
p248
(ijoueur
joueur
p249
(dp250
g27
I0
sg28
I0
sg29
I0
sg30
(ijoueur
rang
p251
(dp252
g33
I4
sg34
g163
sg36
g164
sbsg38
(dp253
g40
I0
sg41
I0
sg42
I0
sg43
I0
ssg44
(dp254
g40
I0
sg41
I0
sg42
I0
sg43
I0
ssg46
S'DKW11'
p255
sg48
I0
sg49
I0
sg50
I0
sg51
I0
sg52
(g53
S'TL'
p256
S'N8'
p257
S'DL'
p258
tp259
sg58
(ijoueur
rang
p260
(dp261
g33
I4
sg34
g163
sg36
g164
sbsg62
(dp262
g40
I0
sg41
I0
sg42
I0
sg43
I0
ssg64
(dp263
g40
I0
sg41
I0
sg42
I0
sg43
I0
ssg66
(dp264
g40
I0
sg41
I0
sg42
I0
sg43
I0
ssg68
(dp265
g40
I0
sg41
I0
sg42
I0
sg43
I0
ssg70
I0
sg71
I0
sg72
S'Tror'
p266
sg74
I4
sg75
I0
sg76
I14
sg77
I154
sg78
g79
sg80
(dp267
g82
I9
sg83
I10
sg84
I7
sg85
I9
sg86
I10
sg87
I9
sg88
I4
sg89
I9
sg90
I4
sg91
I8
sg92
I7
sg93
I10
sg94
I2
sg95
I12
sg96
I6
ssg97
I0
sg98
I0
sg99
I0
sg100
I0
sg101
F9.81578947368421
sg102
I0
sg103
I0
sg104
I0
sg105
g267
sg106
I0
sg107
I0
sg108
I0
sg109
I0
sg110
I19
sg111
I5
sg112
I0
sg113
S'HB'
p268
sbsS'drop2'
p269
g25
sS'SA_remp2'
p270
(ijoueur
joueur
p271
(dp272
g27
I0
sg28
I0
sg29
I0
sg30
(ijoueur
rang
p273
(dp274
g33
I4
sg34
g163
sg36
g164
sbsg38
(dp275
g40
I0
sg41
I0
sg42
I0
sg43
I0
ssg44
(dp276
g40
I0
sg41
I0
sg42
I0
sg43
I0
ssg46
g123
sg48
I0
sg49
I0
sg50
I0
sg51
I0
sg52
(g53
S'N8'
p277
S'TL'
p278
g123
tp279
sg58
(ijoueur
rang
p280
(dp281
g33
I4
sg34
g163
sg36
g164
sbsg62
(dp282
g40
I0
sg41
I0
sg42
I0
sg43
I0
ssg64
(dp283
g40
I0
sg41
I0
sg42
I0
sg43
I0
ssg66
(dp284
g40
I0
sg41
I0
sg42
I0
sg43
I0
ssg68
(dp285
g40
I0
sg41
I0
sg42
I0
sg43
I0
ssg70
I0
sg71
I0
sg72
S'Ravied'
p286
sg74
I8
sg75
I0
sg76
I19
sg77
I60
sg78
g79
sg80
(dp287
g82
I9
sg83
I9
sg84
I7
sg85
I13
sg86
I10
sg87
I15
sg88
I4
sg89
I15
sg90
I7
sg91
I6
sg92
I7
sg93
I9
sg94
I5
sg95
I11
sg96
I4
ssg97
I0
sg98
I0
sg99
I0
sg100
I0
sg101
F10.758620689655173
sg102
I0
sg103
I0
sg104
I0
sg105
g287
sg106
I0
sg107
I0
sg108
I0
sg109
I0
sg110
I6
sg111
I2
sg112
I0
sg113
g136
sbssS'totaux'
p288
(dp289
g19
I0
sg20
I0
sg21
I0
ssS'_compo_defaut_fatigue'
p290
Nsg80
(dp291
g4
I0
sg5
I0
sg6
I0
sg7
I0
sg8
I0
sg9
I0
sg10
I0
sg11
I0
sg12
I0
sg13
I0
sg14
I0
sg15
I0
sg16
I0
ssS'joueurs'
p292
(dp293
S'n12'
p294
g25
sS'n13'
p295
(ijoueur
joueur
p296
(dp297
g27
I0
sg28
I0
sg29
I0
sg30
(ijoueur
rang
p298
(dp299
g33
I5
sg34
S'xx'
p300
sg36
g37
sbsg38
(dp301
g40
I0
sg41
I0
sg42
I0
sg43
I0
ssg44
(dp302
g40
I0
sg41
I0
sg42
I0
sg43
I0
ssg46
g123
sg48
I0
sg49
I0
sg50
I0
sg51
I0
sg52
(g53
S'AR'
p303
S'CE'
p304
S'AI'
p305
tp306
sg58
(ijoueur
rang
p307
(dp308
g33
I5
sg34
S'xx'
p309
sg36
g37
sbsg62
(dp310
g40
I0
sg41
I0
sg42
I0
sg43
I0
ssg64
(dp311
g40
I0
sg41
I0
sg42
I0
sg43
I0
ssg66
(dp312
g40
I0
sg41
I0
sg42
I0
sg43
I0
ssg68
(dp313
g40
I0
sg41
I0
sg42
I0
sg43
I0
ssg70
I0
sg71
I0
sg72
S'Nrav'
p314
sg74
I8
sg75
I0
sg76
I15
sg77
I140
sg78
g79
sg80
(dp315
g82
I7
sg83
I6
sg84
I10
sg85
I12
sg86
I2
sg87
I11
sg88
I8
sg89
I14
sg90
I9
sg91
I13
sg92
I10
sg93
I8
sg94
I10
sg95
I15
sg96
I5
ssg97
I0
sg98
I0
sg99
I0
sg100
I0
sg101
F11.242424242424242
sg102
I0
sg103
I0
sg104
I0
sg105
g315
sg106
I0
sg107
I0
sg108
I0
sg109
I0
sg110
I14
sg111
I2
sg112
I0
sg113
g136
sbsS'n10'
p316
g159
sS'n11'
p317
g139
sS'n16'
p318
(ijoueur
joueur
p319
(dp320
g27
I0
sg28
I0
sg29
I0
sg30
(ijoueur
rang
p321
(dp322
g33
I1
sg34
S'^'
p323
sg36
S'base'
p324
sbsg38
(dp325
g40
I0
sg41
I0
sg42
I0
sg43
I0
ssg44
(dp326
g40
I0
sg41
I0
sg42
I0
sg43
I0
ssg46
g123
sg48
I0
sg49
I0
sg50
I0
sg51
I0
sg52
(g53
S'PI'
p327
S'TA'
p328
g123
tp329
sg58
(ijoueur
rang
p330
(dp331
g33
I1
sg34
g323
sg36
g324
sbsg62
(dp332
g40
I0
sg41
I0
sg42
I0
sg43
I0
ssg64
(dp333
g40
I0
sg41
I0
sg42
I0
sg43
I0
ssg66
(dp334
g40
I0
sg41
I0
sg42
I0
sg43
I0
ssg68
(dp335
g40
I0
sg41
I0
sg42
I0
sg43
I0
ssg70
I0
sg71
I0
sg72
S'Mkacoel'
p336
sg74
I10
sg75
I0
sg76
I20
sg77
I13
sg78
g79
sg80
(dp337
g82
I6
sg83
I10
sg84
I6
sg85
I11
sg86
I3
sg87
I8
sg88
I3
sg89
I8
sg90
I3
sg91
I9
sg92
I7
sg93
I8
sg94
I3
sg95
I10
sg96
I8
ssg97
I0
sg98
I0
sg99
I0
sg100
I0
sg101
F8.962962962962964
sg102
I0
sg103
I0
sg104
I0
sg105
g337
sg106
I0
sg107
I0
sg108
I0
sg109
I0
sg110
I2
sg111
I0
sg112
I0
sg113
g136
sbsS'n17'
p338
(ijoueur
joueur
p339
(dp340
g27
I0
sg28
I0
sg29
I0
sg30
(ijoueur
rang
p341
(dp342
g33
I4
sg34
g163
sg36
g164
sbsg38
(dp343
g40
I0
sg41
I0
sg42
I0
sg43
I0
ssg44
(dp344
g40
I0
sg41
I0
sg42
I0
sg43
I0
ssg46
S'SN10'
p345
sg48
I0
sg49
I0
sg50
I0
sg51
I0
sg52
(g53
S'PI'
p346
g123
g123
tp347
sg58
(ijoueur
rang
p348
(dp349
g33
I4
sg34
g163
sg36
g164
sbsg62
(dp350
g40
I0
sg41
I0
sg42
I0
sg43
I0
ssg64
(dp351
g40
I0
sg41
I0
sg42
I0
sg43
I0
ssg66
(dp352
g40
I0
sg41
I0
sg42
I0
sg43
I0
ssg68
(dp353
g40
I0
sg41
I0
sg42
I0
sg43
I0
ssg70
I0
sg71
I0
sg72
S'Gofedr'
p354
sg74
I7
sg75
I0
sg76
I17
sg77
I193
sg78
g79
sg80
(dp355
g82
I6
sg83
I12
sg84
I8
sg85
I9
sg86
I8
sg87
I10
sg88
I2
sg89
I11
sg90
I5
sg91
I10
sg92
I8
sg93
I10
sg94
I5
sg95
I9
sg96
I7
ssg97
I0
sg98
I0
sg99
I0
sg100
I0
sg101
F9.851851851851851
sg102
I0
sg103
I0
sg104
I0
sg105
g355
sg106
I0
sg107
I0
sg108
I0
sg109
I0
sg110
I19
sg111
I5
sg112
I0
sg113
S'HB'
p356
sbsS'n14'
p357
(ijoueur
joueur
p358
(dp359
g27
I0
sg28
I0
sg29
I0
sg30
(ijoueur
rang
p360
(dp361
g33
I4
sg34
g163
sg36
g164
sbsg38
(dp362
g40
I0
sg41
I0
sg42
I0
sg43
I0
ssg44
(dp363
g40
I0
sg41
I0
sg42
I0
sg43
I0
ssg46
g123
sg48
I0
sg49
I0
sg50
I0
sg51
I0
sg52
(g53
S'AI'
p364
S'CE'
p365
S'AR'
p366
tp367
sg58
(ijoueur
rang
p368
(dp369
g33
I4
sg34
g163
sg36
g164
sbsg62
(dp370
g40
I0
sg41
I0
sg42
I0
sg43
I0
ssg64
(dp371
g40
I0
sg41
I0
sg42
I0
sg43
I0
ssg66
(dp372
g40
I0
sg41
I0
sg42
I0
sg43
I0
ssg68
(dp373
g40
I0
sg41
I0
sg42
I0
sg43
I0
ssg70
I5
sg71
I0
sg72
S'Yksten'
p374
sg74
I3
sg75
I9
sg76
I17
sg77
I60
sg78
g79
sg80
(dp375
g82
I14
sg83
I6
sg84
I12
sg85
I12
sg86
I2
sg87
I8
sg88
I6
sg89
I13
sg90
I9
sg91
I8
sg92
I10
sg93
I9
sg94
I11
sg95
I9
sg96
I5
ssg97
I0
sg98
I0
sg99
I0
sg100
I0
sg101
F11.096774193548388
sg102
I0
sg103
I0
sg104
I0
sg105
g375
sg106
I0
sg107
I0
sg108
I0
sg109
I0
sg110
I6
sg111
I7
sg112
I0
sg113
g136
sbsS'n15'
p376
(ijoueur
joueur
p377
(dp378
g27
I0
sg28
I1
sg29
I0
sg30
(ijoueur
rang
p379
(dp380
g33
I5
sg34
S'**'
p381
sg36
g37
sbsg38
(dp382
g40
I0
sg41
I0
sg42
I0
sg43
I0
ssg44
(dp383
g40
I0
sg41
I0
sg42
I0
sg43
I0
ssg46
g123
sg48
I0
sg49
I0
sg50
I0
sg51
I0
sg52
(g53
S'C1'
p384
S'AR'
p385
S'DO'
p386
tp387
sg58
(ijoueur
rang
p388
(dp389
g33
I5
sg34
S'**'
p390
sg36
g37
sbsg62
(dp391
g40
I0
sg41
I0
sg42
I0
sg43
I0
ssg64
(dp392
g40
I0
sg41
I0
sg42
I0
sg43
I0
ssg66
(dp393
g40
I0
sg41
I0
sg42
I0
sg43
I0
ssg68
(dp394
g40
I0
sg41
I0
sg42
I0
sg43
I0
ssg70
I67
sg71
I0
sg72
S'Pfessyr'
p395
sg74
I8
sg75
I39
sg76
I22
sg77
I90
sg78
g79
sg80
(dp396
g82
I11
sg83
I4
sg84
I9
sg85
I11
sg86
I7
sg87
I8
sg88
I9
sg89
I10
sg90
I10
sg91
I12
sg92
I8
sg93
I8
sg94
I8
sg95
I16
sg96
I6
ssg97
I0
sg98
I0
sg99
I0
sg100
I0
sg101
F11.133333333333333
sg102
I0
sg103
I0
sg104
I0
sg105
g396
sg106
I0
sg107
I0
sg108
I0
sg109
I0
sg110
I9
sg111
I2
sg112
I0
sg113
g179
sbsS'n18'
p397
g249
sS'n19'
p398
(ijoueur
joueur
p399
(dp400
g27
I0
sg28
I0
sg29
I0
sg30
(ijoueur
rang
p401
(dp402
g33
I5
sg34
S'**'
p403
sg36
g37
sbsg38
(dp404
g40
I0
sg41
I0
sg42
I0
sg43
I0
ssg44
(dp405
g40
I0
sg41
I0
sg42
I0
sg43
I0
ssg46
S'MDL9'
p406
sg48
I0
sg49
I0
sg50
I0
sg51
I0
sg52
(g53
S'TL'
p407
S'N8'
p408
g123
tp409
sg58
(ijoueur
rang
p410
(dp411
g33
I5
sg34
S'**'
p412
sg36
g37
sbsg62
(dp413
g40
I0
sg41
I0
sg42
I0
sg43
I0
ssg64
(dp414
g40
I0
sg41
I0
sg42
I0
sg43
I0
ssg66
(dp415
g40
I0
sg41
I0
sg42
I0
sg43
I0
ssg68
(dp416
g40
I0
sg41
I0
sg42
I0
sg43
I0
ssg70
I0
sg71
I0
sg72
S'Gardot'
p417
sg74
I6
sg75
I0
sg76
I15
sg77
I323
sg78
g79
sg80
(dp418
g82
I11
sg83
I11
sg84
I7
sg85
I9
sg86
I9
sg87
I9
sg88
I5
sg89
I9
sg90
I6
sg91
I7
sg92
I10
sg93
I11
sg94
I5
sg95
I13
sg96
I8
ssg97
I0
sg98
I0
sg99
I0
sg100
I0
sg101
F10.67741935483871
sg102
I0
sg103
I0
sg104
I0
sg105
g418
sg106
I0
sg107
I0
sg108
I0
sg109
I0
sg110
I26
sg111
I6
sg112
I0
sg113
S'OG'
p419
sbsS'n22'
p420
(ijoueur
joueur
p421
(dp422
g27
I0
sg28
I0
sg29
I0
sg30
(ijoueur
rang
p423
(dp424
g33
I4
sg34
g163
sg36
g164
sbsg38
(dp425
g40
I0
sg41
I0
sg42
I0
sg43
I0
ssg44
(dp426
g40
I0
sg41
I0
sg42
I0
sg43
I0
ssg46
S'APA11'
p427
sg48
I0
sg49
I0
sg50
I0
sg51
I0
sg52
(g53
S'AR'
p428
S'CE'
p429
S'AI'
p430
tp431
sg58
(ijoueur
rang
p432
(dp433
g33
I4
sg34
g163
sg36
g164
sbsg62
(dp434
g40
I0
sg41
I0
sg42
I0
sg43
I0
ssg64
(dp435
g40
I0
sg41
I0
sg42
I0
sg43
I0
ssg66
(dp436
g40
I0
sg41
I0
sg42
I0
sg43
I0
ssg68
(dp437
g40
I0
sg41
I0
sg42
I0
sg43
I0
ssg70
I0
sg71
I0
sg72
S'Kriplets'
p438
sg74
I4
sg75
I0
sg76
I12
sg77
I116
sg78
g79
sg80
(dp439
g82
I11
sg83
I6
sg84
I9
sg85
I9
sg86
I9
sg87
I7
sg88
I8
sg89
I9
sg90
I7
sg91
I10
sg92
I11
sg93
I6
sg94
I6
sg95
I10
sg96
I5
ssg97
I0
sg98
I0
sg99
I0
sg100
I0
sg101
F9.606060606060606
sg102
I0
sg103
I0
sg104
I0
sg105
g439
sg106
I0
sg107
I0
sg108
I0
sg109
I0
sg110
I10
sg111
I5
sg112
I0
sg113
g179
sbsS'n21'
p440
(ijoueur
joueur
p441
(dp442
g27
I0
sg28
I0
sg29
I0
sg30
(ijoueur
rang
p443
(dp444
g33
I4
sg34
S'x'
p445
sg36
g164
sbsg38
(dp446
g40
I0
sg41
I0
sg42
I0
sg43
I0
ssg44
(dp447
g40
I0
sg41
I0
sg42
I0
sg43
I0
ssg46
g123
sg48
I0
sg49
I0
sg50
I0
sg51
I0
sg52
(g53
S'C2'
p448
S'AR'
p449
g123
tp450
sg58
(ijoueur
rang
p451
(dp452
g33
I4
sg34
g445
sg36
g164
sbsg62
(dp453
g40
I0
sg41
I0
sg42
I0
sg43
I0
ssg64
(dp454
g40
I0
sg41
I0
sg42
I0
sg43
I0
ssg66
(dp455
g40
I0
sg41
I0
sg42
I0
sg43
I0
ssg68
(dp456
g40
I0
sg41
I0
sg42
I0
sg43
I0
ssg70
I0
sg71
I0
sg72
S'Fraty'
p457
sg74
I7
sg75
I0
sg76
I18
sg77
I90
sg78
g79
sg80
(dp458
g82
I10
sg83
I5
sg84
I8
sg85
I11
sg86
I4
sg87
I9
sg88
I7
sg89
I10
sg90
I8
sg91
I7
sg92
I10
sg93
I7
sg94
I6
sg95
I13
sg96
I4
ssg97
I0
sg98
I0
sg99
I0
sg100
I0
sg101
F9.862068965517242
sg102
I0
sg103
I0
sg104
I0
sg105
g458
sg106
I0
sg107
I0
sg108
I0
sg109
I0
sg110
I9
sg111
I2
sg112
I0
sg113
g136
sbsS'n20'
p459
(ijoueur
joueur
p460
(dp461
g27
I0
sg28
I0
sg29
I0
sg30
(ijoueur
rang
p462
(dp463
g33
I1
sg34
S'>'
p464
sg36
g324
sbsg38
(dp465
g40
I0
sg41
I0
sg42
I0
sg43
I0
ssg44
(dp466
g40
I0
sg41
I0
sg42
I0
sg43
I0
ssg46
g123
sg48
I0
sg49
I0
sg50
I0
sg51
I0
sg52
(g53
S'DO'
p467
S'CE'
p468
g123
tp469
sg58
(ijoueur
rang
p470
(dp471
g33
I1
sg34
g464
sg36
g324
sbsg62
(dp472
g40
I0
sg41
I0
sg42
I0
sg43
I0
ssg64
(dp473
g40
I0
sg41
I0
sg42
I0
sg43
I0
ssg66
(dp474
g40
I0
sg41
I0
sg42
I0
sg43
I0
ssg68
(dp475
g40
I0
sg41
I0
sg42
I0
sg43
I0
ssg70
I0
sg71
I0
sg72
S'Traoun'
p476
sg74
I3
sg75
I0
sg76
I14
sg77
I7
sg78
g79
sg80
(dp477
g82
I8
sg83
I5
sg84
I9
sg85
I12
sg86
I4
sg87
I6
sg88
I8
sg89
I9
sg90
I11
sg91
I11
sg92
I7
sg93
I5
sg94
I6
sg95
I9
sg96
I3
ssg97
I0
sg98
I0
sg99
I0
sg100
I0
sg101
F9.424242424242424
sg102
I0
sg103
I0
sg104
I0
sg105
g477
sg106
I0
sg107
I0
sg108
I0
sg109
I0
sg110
I1
sg111
I3
sg112
I0
sg113
g136
sbsS'n8'
p478
g271
sS'n9'
p479
g228
sS'n1'
p480
(ijoueur
joueur
p481
(dp482
g27
I0
sg28
I0
sg29
I0
sg30
(ijoueur
rang
p483
(dp484
g33
I5
sg34
S'xx'
p485
sg36
g37
sbsg38
(dp486
g40
I0
sg41
I0
sg42
I0
sg43
I0
ssg44
(dp487
g40
I0
sg41
I0
sg42
I0
sg43
I0
ssg46
g123
sg48
I0
sg49
I0
sg50
I0
sg51
I0
sg52
(g53
S'PI'
p488
g123
g123
tp489
sg58
(ijoueur
rang
p490
(dp491
g33
I5
sg34
S'xx'
p492
sg36
g37
sbsg62
(dp493
g40
I0
sg41
I0
sg42
I0
sg43
I0
ssg64
(dp494
g40
I0
sg41
I0
sg42
I0
sg43
I0
ssg66
(dp495
g40
I0
sg41
I0
sg42
I0
sg43
I0
ssg68
(dp496
g40
I0
sg41
I0
sg42
I0
sg43
I0
ssg70
I0
sg71
I0
sg72
S'Niad'
p497
sg74
I5
sg75
I0
sg76
I16
sg77
I90
sg78
g79
sg80
(dp498
g82
I11
sg83
I11
sg84
I7
sg85
I12
sg86
I7
sg87
I12
sg88
I5
sg89
I12
sg90
I5
sg91
I7
sg92
I8
sg93
I9
sg94
I3
sg95
I10
sg96
I8
ssg97
I0
sg98
I0
sg99
I0
sg100
I0
sg101
F10.444444444444445
sg102
I0
sg103
I0
sg104
I0
sg105
g498
sg106
I0
sg107
I0
sg108
I0
sg109
I0
sg110
I9
sg111
I0
sg112
I0
sg113
g136
sbsS'n2'
p499
(ijoueur
joueur
p500
(dp501
g27
I0
sg28
I0
sg29
I0
sg30
(ijoueur
rang
p502
(dp503
g33
I5
sg34
S'**'
p504
sg36
g37
sbsg38
(dp505
g40
I0
sg41
I0
sg42
I0
sg43
I0
ssg44
(dp506
g40
I0
sg41
I0
sg42
I0
sg43
I0
ssg46
S'ED9'
p507
sg48
I0
sg49
I0
sg50
I0
sg51
I0
sg52
(g53
S'TA'
p508
S'PI'
p509
g123
tp510
sg58
(ijoueur
rang
p511
(dp512
g33
I5
sg34
S'**'
p513
sg36
g37
sbsg62
(dp514
g40
I0
sg41
I0
sg42
I0
sg43
I0
ssg64
(dp515
g40
I0
sg41
I0
sg42
I0
sg43
I0
ssg66
(dp516
g40
I0
sg41
I0
sg42
I0
sg43
I0
ssg68
(dp517
g40
I0
sg41
I0
sg42
I0
sg43
I0
ssg70
I0
sg71
I0
sg72
S'Oplet'
p518
sg74
I7
sg75
I0
sg76
I20
sg77
I480
sg78
g79
sg80
(dp519
g82
I10
sg83
I11
sg84
I7
sg85
I11
sg86
I7
sg87
I13
sg88
I5
sg89
I13
sg90
I5
sg91
I9
sg92
I9
sg93
I9
sg94
I7
sg95
I10
sg96
I12
ssg97
I0
sg98
I0
sg99
I0
sg100
I0
sg101
F10.655172413793103
sg102
I0
sg103
I0
sg104
I0
sg105
g519
sg106
I0
sg107
I0
sg108
I0
sg109
I0
sg110
I29
sg111
I5
sg112
I0
sg113
S'OG'
p520
sbsS'n3'
p521
(ijoueur
joueur
p522
(dp523
g27
I0
sg28
I0
sg29
I0
sg30
(ijoueur
rang
p524
(dp525
g33
I5
sg34
S'**'
p526
sg36
g37
sbsg38
(dp527
g40
I0
sg41
I0
sg42
I0
sg43
I0
ssg44
(dp528
g40
I0
sg41
I0
sg42
I0
sg43
I0
ssg46
g123
sg48
I0
sg49
I0
sg50
I0
sg51
I0
sg52
(g53
S'TA'
p529
S'PI'
p530
g123
tp531
sg58
(ijoueur
rang
p532
(dp533
g33
I5
sg34
S'**'
p534
sg36
g37
sbsg62
(dp535
g40
I0
sg41
I0
sg42
I0
sg43
I0
ssg64
(dp536
g40
I0
sg41
I0
sg42
I0
sg43
I0
ssg66
(dp537
g40
I0
sg41
I0
sg42
I0
sg43
I0
ssg68
(dp538
g40
I0
sg41
I0
sg42
I0
sg43
I0
ssg70
I0
sg71
I0
sg72
S'Jegar'
p539
sg74
I8
sg75
I0
sg76
I18
sg77
I60
sg78
g79
sg80
(dp540
g82
I12
sg83
I11
sg84
I6
sg85
I12
sg86
I7
sg87
I13
sg88
I4
sg89
I13
sg90
I6
sg91
I6
sg92
I7
sg93
I9
sg94
I4
sg95
I11
sg96
I7
ssg97
I0
sg98
I0
sg99
I0
sg100
I0
sg101
F10.206896551724139
sg102
I0
sg103
I0
sg104
I0
sg105
g540
sg106
I0
sg107
I0
sg108
I0
sg109
I0
sg110
I6
sg111
I1
sg112
I0
sg113
g136
sbsS'n4'
p541
g116
sS'n5'
p542
g207
sS'n6'
p543
(ijoueur
joueur
p544
(dp545
g27
I0
sg28
I0
sg29
I0
sg30
(ijoueur
rang
p546
(dp547
g33
I5
sg34
S'xx'
p548
sg36
g37
sbsg38
(dp549
g40
I0
sg41
I0
sg42
I0
sg43
I0
ssg44
(dp550
g40
I0
sg41
I0
sg42
I0
sg43
I0
ssg46
g123
sg48
I0
sg49
I0
sg50
I0
sg51
I0
sg52
(g53
S'TL'
p551
S'N8'
p552
g123
tp553
sg58
(ijoueur
rang
p554
(dp555
g33
I5
sg34
S'xx'
p556
sg36
g37
sbsg62
(dp557
g40
I0
sg41
I0
sg42
I0
sg43
I0
ssg64
(dp558
g40
I0
sg41
I0
sg42
I0
sg43
I0
ssg66
(dp559
g40
I0
sg41
I0
sg42
I0
sg43
I0
ssg68
(dp560
g40
I0
sg41
I0
sg42
I0
sg43
I0
ssg70
I0
sg71
I0
sg72
S'Utlen'
p561
sg74
I6
sg75
I0
sg76
I16
sg77
I140
sg78
g79
sg80
(dp562
g82
I9
sg83
I8
sg84
I6
sg85
I12
sg86
I7
sg87
I12
sg88
I5
sg89
I12
sg90
I4
sg91
I8
sg92
I9
sg93
I11
sg94
I2
sg95
I13
sg96
I4
ssg97
I0
sg98
I0
sg99
I0
sg100
I0
sg101
F11.03225806451613
sg102
I0
sg103
I0
sg104
I0
sg105
g562
sg106
I0
sg107
I0
sg108
I0
sg109
I0
sg110
I14
sg111
I3
sg112
I0
sg113
g136
sbsS'n7'
p563
g185
ssS'remplacements'
p564
(dp565
g318
S'n0'
p566
sg338
g566
sg397
g566
sg398
g566
sg420
g566
sg440
g566
sg459
g566
ssb.