(iclub
compo
p0
(dp1
S'caracs_old'
p2
(dp3
S'A'
p4
F175.0
sS'ME'
p5
F95.0
sS'E'
p6
I199
sS'OplusAV'
p7
F62.0
sS'TO_off'
p8
F126.5
sS'OplusAR'
p9
F73.0
sS'M'
p10
F51.0
sS'JP'
p11
F87.5
sS'OmoinsAR'
p12
F65.5
sS'PA'
p13
F114.5
sS'TO_def'
p14
F118.5
sS'OmoinsAV'
p15
F51.5
sS'R'
p16
F151.5
ssS'totaux_old'
p17
(dp18
S'T2'
p19
F188.5
sS'T3'
p20
F99.5
sS'T1'
p21
F184.5
ssS'roles'
p22
(dp23
S'drop1'
p24
(ijoueur
joueur
p25
(dp26
S'rouges_total'
p27
I0
sS'drops_total'
p28
I4
sS'blessure'
p29
I0
sS'RG_max'
p30
(ijoueur
rang
p31
(dp32
S'type_nb'
p33
I5
sS'rang'
p34
S'**'
p35
sS'type'
p36
S'seigneur'
p37
sbsS'MJ2_total'
p38
(dp39
S'SR'
p40
I0
sS'CT'
p41
I5
sS'CR'
p42
I0
sS'ST'
p43
I0
ssS'MJ3_total'
p44
(dp45
g40
I0
sg41
I0
sg42
I0
sg43
I0
ssS'drop_rates_total'
p46
I0
sS'drop_rates_saison'
p47
I0
sS'essais_saison'
p48
I0
sS'penalite_ratees_saison'
p49
I0
sS'transformations_saison'
p50
I0
sS'postes'
p51
(S'dummy'
p52
S'C1'
p53
S'AR'
p54
S''
p55
tp56
sS'RG'
p57
(ijoueur
rang
p58
(dp59
g33
I5
sg34
S'**'
p60
sg36
g37
sbsS'MJ1'
p61
(dp62
g40
I0
sg41
I0
sg42
I0
sg43
I0
ssS'MJ2'
p63
(dp64
g40
I0
sg41
I5
sg42
I0
sg43
I0
ssS'MJ3'
p65
(dp66
g40
I0
sg41
I0
sg42
I0
sg43
I0
ssS'MJ1_total'
p67
(dp68
g40
I0
sg41
I0
sg42
I0
sg43
I0
ssS'penalites_total'
p69
I0
sS'penalites_saison'
p70
I0
sS'nom'
p71
S'Birtan'
p72
sS'C'
p73
I4
sS'transformations_total'
p74
I0
sS'D'
p75
I21
sS'VAL'
p76
I130
sS'club'
p77
S'APA'
p78
sS'caracs'
p79
(dp80
S'A'
p81
I14
sS'ME'
p82
I2
sS'RP2'
p83
I11
sS'E'
p84
I12
sS'P'
p85
I9
sS'RP1'
p86
I9
sS'JP'
p87
I13
sS'RP_tot'
p88
I13
sS'TO'
p89
I8
sS'PA'
p90
I13
sS'M'
p91
I10
sS'R'
p92
I8
sS'TB'
p93
I9
sS'PL'
p94
I13
sS'TA'
p95
I2
ssS'fatigue'
p96
I8
sS'drop_ratees_total'
p97
I0
sS'blessures_total'
p98
I0
sS'XP'
p99
I0
sS'EV'
p100
F12.1
sS'penalite_ratees_total'
p101
I0
sS'blessures_saison'
p102
I0
sS'jaunes_total'
p103
I1
sS'caracs_sans_fatigue'
p104
g80
sS'rouges_saison'
p105
I0
sS'anciens_clubs'
p106
g55
sS'transformation_ratees_total'
p107
I0
sS'drops_saison'
p108
I1
sS'transformation_ratees_saison'
p109
I0
sS'MS'
p110
I13
sS'essais_total'
p111
I5
sS'jaunes_saison'
p112
I1
sS'ARM'
p113
S'HE'
p114
sbsS'SA_scd'
p115
(ijoueur
joueur
p116
(dp117
g27
I0
sg28
I0
sg29
I0
sg30
(ijoueur
rang
p118
(dp119
g33
I6
sg34
S'***'
p120
sg36
S'personnage'
p121
sbsg38
(dp122
g40
I0
sg41
I0
sg42
I0
sg43
I0
ssg44
(dp123
g40
I0
sg41
I0
sg42
I0
sg43
I0
ssg46
I0
sg47
I0
sg48
I0
sg49
I0
sg50
I0
sg51
(g52
S'N8'
p124
g55
g55
tp125
sg57
(ijoueur
rang
p126
(dp127
g33
I6
sg34
S'***'
p128
sg36
g121
sbsg61
(dp129
g40
I0
sg41
I5
sg42
I1
sg43
I0
ssg63
(dp130
g40
I0
sg41
I0
sg42
I0
sg43
I0
ssg65
(dp131
g40
I0
sg41
I0
sg42
I0
sg43
I0
ssg67
(dp132
g40
I0
sg41
I5
sg42
I1
sg43
I0
ssg69
I0
sg70
I0
sg71
S'Tretch'
p133
sg73
I9
sg74
I0
sg75
I18
sg76
I813
sg77
g78
sg79
(dp134
g81
I10
sg82
I10
sg83
I12
sg84
I9
sg85
I5
sg86
I12
sg87
I4
sg88
I17
sg89
I12
sg90
I9
sg91
I7
sg92
I10
sg93
I5
sg94
I11
sg95
I6
ssg96
I9
sg97
I0
sg98
I0
sg99
I0
sg100
F11.277777777777779
sg101
I0
sg102
I0
sg103
I0
sg104
g134
sg105
I0
sg106
g55
sg107
I0
sg108
I0
sg109
I0
sg110
I39
sg111
I7
sg112
I0
sg113
S'S'
p135
sbsS'RJL'
p136
(ijoueur
joueur
p137
(dp138
g27
I0
sg28
I13
sg29
I0
sg30
(ijoueur
rang
p139
(dp140
g33
I5
sg34
S'**'
p141
sg36
g37
sbsg38
(dp142
g40
I0
sg41
I5
sg42
I0
sg43
I0
ssg44
(dp143
g40
I0
sg41
I0
sg42
I0
sg43
I0
ssg46
I0
sg47
I0
sg48
I0
sg49
I0
sg50
I4
sg51
(g52
S'C1'
p144
S'DO'
p145
S'AR'
p146
tp147
sg57
(ijoueur
rang
p148
(dp149
g33
I5
sg34
S'**'
p150
sg36
g37
sbsg61
(dp151
g40
I0
sg41
I0
sg42
I0
sg43
I0
ssg63
(dp152
g40
I0
sg41
I5
sg42
I0
sg43
I0
ssg65
(dp153
g40
I0
sg41
I0
sg42
I0
sg43
I0
ssg67
(dp154
g40
I0
sg41
I0
sg42
I0
sg43
I0
ssg69
I25
sg70
I19
sg71
S'Xyden'
p155
sg73
I8
sg74
I6
sg75
I19
sg76
I130
sg77
g78
sg79
(dp156
g81
I13
sg82
I6
sg83
I10
sg84
I14
sg85
I10
sg86
I9
sg87
I10
sg88
I12
sg89
I8
sg90
I11
sg91
I9
sg92
I8
sg93
I10
sg94
I11
sg95
I5
ssg96
I6
sg97
I0
sg98
I0
sg99
I0
sg100
F11.266666666666667
sg101
I0
sg102
I0
sg103
I0
sg104
g156
sg105
I0
sg106
g55
sg107
I0
sg108
I1
sg109
I0
sg110
I13
sg111
I4
sg112
I0
sg113
S'HE'
p157
sbsS'cap'
p158
g137
sS'B4'
p159
g137
sS'RJC'
p160
g25
sS'B1'
p161
g137
sS'B2'
p162
g137
sS'B3'
p163
g137
sS'SA_pcp2'
p164
(ijoueur
joueur
p165
(dp166
g27
I0
sg28
I0
sg29
I0
sg30
(ijoueur
rang
p167
(dp168
g33
I2
sg34
S'^^'
p169
sg36
S'special'
p170
sbsg38
(dp171
g40
I0
sg41
I0
sg42
I0
sg43
I0
ssg44
(dp172
g40
I0
sg41
I0
sg42
I0
sg43
I0
ssg46
I0
sg47
I0
sg48
I1
sg49
I0
sg50
I0
sg51
(g52
S'DL'
p173
S'TL'
p174
g55
tp175
sg57
(ijoueur
rang
p176
(dp177
g33
I2
sg34
S'^^'
p178
sg36
g170
sbsg61
(dp179
g40
I0
sg41
I5
sg42
I0
sg43
I0
ssg63
(dp180
g40
I0
sg41
I0
sg42
I0
sg43
I0
ssg65
(dp181
g40
I0
sg41
I0
sg42
I0
sg43
I0
ssg67
(dp182
g40
I0
sg41
I5
sg42
I0
sg43
I0
ssg69
I0
sg70
I0
sg71
S'Daef'
p183
sg73
I9
sg74
I0
sg75
I20
sg76
I19
sg77
g78
sg79
(dp184
g81
I12
sg82
I7
sg83
I6
sg84
I10
sg85
I5
sg86
I7
sg87
I4
sg88
I7
sg89
I13
sg90
I9
sg91
I8
sg92
I7
sg93
I4
sg94
I8
sg95
I6
ssg96
I5
sg97
I0
sg98
I0
sg99
I0
sg100
F9.088235294117647
sg101
I0
sg102
I0
sg103
I0
sg104
g184
sg105
I0
sg106
g55
sg107
I0
sg108
I0
sg109
I0
sg110
I2
sg111
I1
sg112
I0
sg113
S'HE'
p185
sbsS'SA_pcp1'
p186
(ijoueur
joueur
p187
(dp188
g27
I0
sg28
I0
sg29
I0
sg30
(ijoueur
rang
p189
(dp190
g33
I4
sg34
S'*'
p191
sg36
S'heros'
p192
sbsg38
(dp193
g40
I0
sg41
I0
sg42
I0
sg43
I0
ssg44
(dp194
g40
I0
sg41
I0
sg42
I0
sg43
I0
ssg46
I0
sg47
I0
sg48
I0
sg49
I0
sg50
I0
sg51
(g52
S'TL'
p195
S'DL'
p196
g55
tp197
sg57
(ijoueur
rang
p198
(dp199
g33
I4
sg34
S'*'
p200
sg36
g192
sbsg61
(dp201
g40
I0
sg41
I5
sg42
I0
sg43
I0
ssg63
(dp202
g40
I0
sg41
I0
sg42
I0
sg43
I0
ssg65
(dp203
g40
I0
sg41
I0
sg42
I0
sg43
I0
ssg67
(dp204
g40
I0
sg41
I5
sg42
I0
sg43
I0
ssg69
I0
sg70
I0
sg71
S'Dagdear'
p205
sg73
I6
sg74
I0
sg75
I17
sg76
I60
sg77
g78
sg79
(dp206
g81
I12
sg82
I11
sg83
I7
sg84
I9
sg85
I7
sg86
I8
sg87
I6
sg88
I8
sg89
I14
sg90
I10
sg91
I8
sg92
I8
sg93
I6
sg94
I11
sg95
I5
ssg96
I7
sg97
I0
sg98
I0
sg99
I0
sg100
F10.210526315789474
sg101
I0
sg102
I0
sg103
I1
sg104
g206
sg105
I0
sg106
g55
sg107
I0
sg108
I0
sg109
I0
sg110
I6
sg111
I1
sg112
I1
sg113
S'HE'
p207
sbsS'drop3'
p208
g25
sS'SA_remp1'
p209
(ijoueur
joueur
p210
(dp211
g27
I0
sg28
I0
sg29
I0
sg30
(ijoueur
rang
p212
(dp213
g33
I6
sg34
S'***'
p214
sg36
g121
sbsg38
(dp215
g40
I0
sg41
I0
sg42
I0
sg43
I0
ssg44
(dp216
g40
I0
sg41
I0
sg42
I0
sg43
I0
ssg46
I0
sg47
I0
sg48
I0
sg49
I0
sg50
I0
sg51
(g52
S'TL'
p217
S'DL'
p218
S'CE'
p219
tp220
sg57
(ijoueur
rang
p221
(dp222
g33
I6
sg34
S'***'
p223
sg36
g121
sbsg61
(dp224
g40
I0
sg41
I6
sg42
I0
sg43
I0
ssg63
(dp225
g40
I0
sg41
I0
sg42
I0
sg43
I0
ssg65
(dp226
g40
I0
sg41
I0
sg42
I0
sg43
I0
ssg67
(dp227
g40
I0
sg41
I6
sg42
I0
sg43
I0
ssg69
I0
sg70
I0
sg71
S'Vlad Von Carstein'
p228
sg73
I9
sg74
I0
sg75
I18
sg76
I544
sg77
g78
sg79
(dp229
g81
I11
sg82
I9
sg83
I10
sg84
I10
sg85
I6
sg86
I11
sg87
I5
sg88
I14
sg89
I12
sg90
I10
sg91
I12
sg92
I10
sg93
I5
sg94
I11
sg95
I6
ssg96
I10
sg97
I0
sg98
I0
sg99
I0
sg100
F11.078947368421053
sg101
I0
sg102
I0
sg103
I0
sg104
g229
sg105
I0
sg106
g55
sg107
I0
sg108
I0
sg109
I0
sg110
I35
sg111
I3
sg112
I0
sg113
S'CV'
p230
sbsS'drop2'
p231
g25
sS'SA_remp2'
p232
(ijoueur
joueur
p233
(dp234
g27
I0
sg28
I0
sg29
I0
sg30
(ijoueur
rang
p235
(dp236
g33
I2
sg34
S'^^'
p237
sg36
g170
sbsg38
(dp238
g40
I0
sg41
I5
sg42
I0
sg43
I0
ssg44
(dp239
g40
I0
sg41
I0
sg42
I0
sg43
I0
ssg46
I0
sg47
I0
sg48
I1
sg49
I0
sg50
I0
sg51
(g52
S'PI'
p240
S'DL'
p241
g55
tp242
sg57
(ijoueur
rang
p243
(dp244
g33
I2
sg34
S'^^'
p245
sg36
g170
sbsg61
(dp246
g40
I0
sg41
I0
sg42
I0
sg43
I0
ssg63
(dp247
g40
I0
sg41
I5
sg42
I0
sg43
I0
ssg65
(dp248
g40
I0
sg41
I0
sg42
I0
sg43
I0
ssg67
(dp249
g40
I0
sg41
I0
sg42
I0
sg43
I0
ssg69
I0
sg70
I0
sg71
S'Vaelith'
p250
sg73
I4
sg74
I0
sg75
I14
sg76
I12
sg77
g78
sg79
(dp251
g81
I10
sg82
I8
sg83
I8
sg84
I10
sg85
I3
sg86
I8
sg87
I4
sg88
I9
sg89
I11
sg90
I9
sg91
I8
sg92
I10
sg93
I3
sg94
I8
sg95
I7
ssg96
I1
sg97
I0
sg98
I0
sg99
I0
sg100
F9.470588235294118
sg101
I0
sg102
I0
sg103
I0
sg104
g251
sg105
I0
sg106
g55
sg107
I0
sg108
I0
sg109
I0
sg110
I1
sg111
I1
sg112
I0
sg113
S'HE'
p252
sbssS'totaux'
p253
(dp254
g19
I0
sg20
I0
sg21
I0
ssS'_compo_defaut_fatigue'
p255
Nsg79
(dp256
g4
I0
sg5
I0
sg6
I0
sg7
I0
sg8
I0
sg9
I0
sg10
I0
sg11
I0
sg12
I0
sg13
I0
sg14
I0
sg15
I0
sg16
I0
ssS'joueurs'
p257
(dp258
S'n12'
p259
(ijoueur
joueur
p260
(dp261
g27
I0
sg28
I0
sg29
I0
sg30
(ijoueur
rang
p262
(dp263
g33
I5
sg34
S'**'
p264
sg36
g37
sbsg38
(dp265
g40
I0
sg41
I0
sg42
I0
sg43
I0
ssg44
(dp266
g40
I0
sg41
I0
sg42
I0
sg43
I0
ssg46
I0
sg47
I0
sg48
I0
sg49
I0
sg50
I0
sg51
(g52
S'C1'
p267
S'AI'
p268
S'DO'
p269
tp270
sg57
(ijoueur
rang
p271
(dp272
g33
I5
sg34
S'**'
p273
sg36
g37
sbsg61
(dp274
g40
I0
sg41
I5
sg42
I0
sg43
I0
ssg63
(dp275
g40
I0
sg41
I0
sg42
I0
sg43
I0
ssg65
(dp276
g40
I0
sg41
I0
sg42
I0
sg43
I0
ssg67
(dp277
g40
I0
sg41
I5
sg42
I0
sg43
I0
ssg69
I1
sg70
I0
sg71
S'Iqatl'
p278
sg73
I8
sg74
I0
sg75
I22
sg76
I235
sg77
g78
sg79
(dp279
g81
I8
sg82
I6
sg83
I10
sg84
I11
sg85
I10
sg86
I12
sg87
I9
sg88
I15
sg89
I7
sg90
I12
sg91
I11
sg92
I12
sg93
I7
sg94
I12
sg95
I7
ssg96
I7
sg97
I0
sg98
I0
sg99
I0
sg100
F11.3
sg101
I0
sg102
I0
sg103
I0
sg104
g279
sg105
I0
sg106
g55
sg107
I0
sg108
I0
sg109
I0
sg110
I24
sg111
I1
sg112
I0
sg113
S'HL'
p280
sbsS'n13'
p281
(ijoueur
joueur
p282
(dp283
g27
I0
sg28
I0
sg29
I0
sg30
(ijoueur
rang
p284
(dp285
g33
I1
sg34
S'<'
p286
sg36
S'base'
p287
sbsg38
(dp288
g40
I0
sg41
I0
sg42
I0
sg43
I0
ssg44
(dp289
g40
I0
sg41
I5
sg42
I0
sg43
I0
ssg46
I0
sg47
I0
sg48
I0
sg49
I0
sg50
I0
sg51
(g52
S'AI'
p290
S'AR'
p291
S'CE'
p292
tp293
sg57
(ijoueur
rang
p294
(dp295
g33
I2
sg34
S'^^'
p296
sg36
g170
sbsg61
(dp297
g40
I0
sg41
I0
sg42
I0
sg43
I0
ssg63
(dp298
g40
I0
sg41
I0
sg42
I0
sg43
I0
ssg65
(dp299
g40
I0
sg41
I5
sg42
I0
sg43
I0
ssg67
(dp300
g40
I0
sg41
I0
sg42
I0
sg43
I0
ssg69
I0
sg70
I0
sg71
S'Emparod'
p301
sg73
I10
sg74
I0
sg75
I18
sg76
I22
sg77
g78
sg79
(dp302
g81
I10
sg82
I3
sg83
I9
sg84
I11
sg85
I9
sg86
I6
sg87
I9
sg88
I9
sg89
I6
sg90
I10
sg91
I9
sg92
I7
sg93
I8
sg94
I9
sg95
I4
ssg96
I3
sg97
I0
sg98
I0
sg99
I0
sg100
F9.483870967741936
sg101
I0
sg102
I0
sg103
I0
sg104
g302
sg105
I0
sg106
g55
sg107
I0
sg108
I0
sg109
I0
sg110
I2
sg111
I0
sg112
I0
sg113
S'HE'
p303
sbsS'n10'
p304
g137
sS'n11'
p305
(ijoueur
joueur
p306
(dp307
g27
I0
sg28
I0
sg29
I0
sg30
(ijoueur
rang
p308
(dp309
g33
I3
sg34
S'^^^'
p310
sg36
S'rare'
p311
sbsg38
(dp312
g40
I0
sg41
I0
sg42
I0
sg43
I0
ssg44
(dp313
g40
I0
sg41
I0
sg42
I0
sg43
I0
ssg46
I0
sg47
I0
sg48
I0
sg49
I0
sg50
I0
sg51
(g52
S'AI'
p314
S'CE'
p315
S'AR'
p316
tp317
sg57
(ijoueur
rang
p318
(dp319
g33
I3
sg34
S'^^^'
p320
sg36
g311
sbsg61
(dp321
g40
I0
sg41
I5
sg42
I0
sg43
I0
ssg63
(dp322
g40
I0
sg41
I0
sg42
I0
sg43
I0
ssg65
(dp323
g40
I0
sg41
I0
sg42
I0
sg43
I0
ssg67
(dp324
g40
I0
sg41
I5
sg42
I0
sg43
I0
ssg69
I0
sg70
I0
sg71
S'Urtolth'
p325
sg73
I4
sg74
I0
sg75
I15
sg76
I50
sg77
g78
sg79
(dp326
g81
I14
sg82
I4
sg83
I10
sg84
I10
sg85
I5
sg86
I6
sg87
I6
sg88
I10
sg89
I6
sg90
I10
sg91
I10
sg92
I6
sg93
I9
sg94
I9
sg95
I5
ssg96
I5
sg97
I0
sg98
I0
sg99
I0
sg100
F10.225806451612904
sg101
I0
sg102
I0
sg103
I0
sg104
g326
sg105
I0
sg106
S'TO 10'
p327
sg107
I0
sg108
I0
sg109
I0
sg110
I5
sg111
I6
sg112
I0
sg113
S'EN'
p328
sbsS'n16'
p329
(ijoueur
joueur
p330
(dp331
g27
I0
sg28
I0
sg29
I0
sg30
(ijoueur
rang
p332
(dp333
g33
I5
sg34
S'**'
p334
sg36
g37
sbsg38
(dp335
g40
I0
sg41
I0
sg42
I0
sg43
I0
ssg44
(dp336
g40
I0
sg41
I0
sg42
I0
sg43
I0
ssg46
I0
sg47
I0
sg48
I0
sg49
I0
sg50
I0
sg51
(g52
S'TA'
p337
S'N8'
p338
g55
tp339
sg57
(ijoueur
rang
p340
(dp341
g33
I5
sg34
S'**'
p342
sg36
g37
sbsg61
(dp343
g40
I0
sg41
I2
sg42
I3
sg43
I0
ssg63
(dp344
g40
I0
sg41
I0
sg42
I0
sg43
I0
ssg65
(dp345
g40
I0
sg41
I0
sg42
I0
sg43
I0
ssg67
(dp346
g40
I0
sg41
I2
sg42
I3
sg43
I0
ssg69
I0
sg70
I0
sg71
S"Chaat'Sy"
p347
sg73
I1
sg74
I0
sg75
I11
sg76
I150
sg77
g78
sg79
(dp348
g81
I7
sg82
I8
sg83
I7
sg84
I10
sg85
I6
sg86
I13
sg87
I2
sg88
I13
sg89
I3
sg90
I6
sg91
I8
sg92
I8
sg93
I3
sg94
I7
sg95
I11
ssg96
I4
sg97
I0
sg98
I0
sg99
I0
sg100
F9.10344827586207
sg101
I0
sg102
I0
sg103
I0
sg104
g348
sg105
I0
sg106
g55
sg107
I0
sg108
I0
sg109
I0
sg110
I20
sg111
I11
sg112
I0
sg113
S'HL'
p349
sbsS'n17'
p350
(ijoueur
joueur
p351
(dp352
g27
I0
sg28
I0
sg29
I0
sg30
(ijoueur
rang
p353
(dp354
g33
I1
sg34
S'^'
p355
sg36
g287
sbsg38
(dp356
g40
I0
sg41
I0
sg42
I0
sg43
I0
ssg44
(dp357
g40
I0
sg41
I0
sg42
I0
sg43
I0
ssg46
I0
sg47
I0
sg48
I0
sg49
I0
sg50
I0
sg51
(g52
S'PI'
p358
S'TA'
p359
g55
tp360
sg57
(ijoueur
rang
p361
(dp362
g33
I1
sg34
S'^'
p363
sg36
g287
sbsg61
(dp364
g40
I0
sg41
I2
sg42
I3
sg43
I0
ssg63
(dp365
g40
I0
sg41
I0
sg42
I0
sg43
I0
ssg65
(dp366
g40
I0
sg41
I0
sg42
I0
sg43
I0
ssg67
(dp367
g40
I0
sg41
I2
sg42
I3
sg43
I0
ssg69
I0
sg70
I0
sg71
S"Zad'Beq"
p368
sg73
I11
sg74
I0
sg75
I22
sg76
I32
sg77
g78
sg79
(dp369
g81
I5
sg82
I10
sg83
I7
sg84
I9
sg85
I0
sg86
I8
sg87
I0
sg88
I8
sg89
I5
sg90
I7
sg91
I7
sg92
I9
sg93
I0
sg94
I10
sg95
I9
ssg96
I0
sg97
I0
sg98
I0
sg99
I0
sg100
F8.758620689655173
sg101
I0
sg102
I0
sg103
I0
sg104
g369
sg105
I0
sg106
g55
sg107
I0
sg108
I0
sg109
I0
sg110
I3
sg111
I0
sg112
I0
sg113
S'HL'
p370
sbsS'n14'
p371
(ijoueur
joueur
p372
(dp373
g27
I0
sg28
I0
sg29
I0
sg30
(ijoueur
rang
p374
(dp375
g33
I4
sg34
S'*'
p376
sg36
g192
sbsg38
(dp377
g40
I0
sg41
I0
sg42
I0
sg43
I0
ssg44
(dp378
g40
I0
sg41
I0
sg42
I0
sg43
I0
ssg46
I0
sg47
I0
sg48
I2
sg49
I0
sg50
I0
sg51
(g52
S'AI'
p379
g55
g55
tp380
sg57
(ijoueur
rang
p381
(dp382
g33
I1
sg34
S'>'
p383
sg36
g287
sbsg61
(dp384
g40
I0
sg41
I6
sg42
I0
sg43
I0
ssg63
(dp385
g40
I0
sg41
I0
sg42
I0
sg43
I0
ssg65
(dp386
g40
I0
sg41
I0
sg42
I0
sg43
I0
ssg67
(dp387
g40
I0
sg41
I6
sg42
I0
sg43
I0
ssg69
I0
sg70
I0
sg71
S'Naemahael'
p388
sg73
I11
sg74
I0
sg75
I23
sg76
I11
sg77
g78
sg79
(dp389
g81
I11
sg82
I3
sg83
I5
sg84
I10
sg85
I7
sg86
I11
sg87
I7
sg88
I11
sg89
I7
sg90
I9
sg91
I10
sg92
I5
sg93
I7
sg94
I9
sg95
I5
ssg96
I11
sg97
I0
sg98
I0
sg99
I0
sg100
F9.806451612903226
sg101
I0
sg102
I0
sg103
I0
sg104
g389
sg105
I0
sg106
g55
sg107
I0
sg108
I0
sg109
I0
sg110
I2
sg111
I2
sg112
I0
sg113
S'HE'
p390
sbsS'n15'
p391
g25
sS'n18'
p392
(ijoueur
joueur
p393
(dp394
g27
I0
sg28
I0
sg29
I0
sg30
(ijoueur
rang
p395
(dp396
g33
I1
sg34
S'<'
p397
sg36
g287
sbsg38
(dp398
g40
I0
sg41
I0
sg42
I0
sg43
I0
ssg44
(dp399
g40
I0
sg41
I0
sg42
I0
sg43
I0
ssg46
I0
sg47
I0
sg48
I0
sg49
I0
sg50
I0
sg51
(g52
S'DL'
p400
g55
g55
tp401
sg57
(ijoueur
rang
p402
(dp403
g33
I1
sg34
S'<'
p404
sg36
g287
sbsg61
(dp405
g40
I0
sg41
I1
sg42
I4
sg43
I0
ssg63
(dp406
g40
I0
sg41
I0
sg42
I0
sg43
I0
ssg65
(dp407
g40
I0
sg41
I0
sg42
I0
sg43
I0
ssg67
(dp408
g40
I0
sg41
I1
sg42
I4
sg43
I0
ssg69
I0
sg70
I0
sg71
S'Ymdar'
p409
sg73
I11
sg74
I0
sg75
I21
sg76
I31
sg77
g78
sg79
(dp410
g81
I10
sg82
I9
sg83
I6
sg84
I10
sg85
I8
sg86
I8
sg87
I6
sg88
I8
sg89
I10
sg90
I8
sg91
I9
sg92
I8
sg93
I5
sg94
I8
sg95
I4
ssg96
I0
sg97
I0
sg98
I0
sg99
I0
sg100
F8.911764705882353
sg101
I0
sg102
I0
sg103
I0
sg104
g410
sg105
I0
sg106
g55
sg107
I0
sg108
I0
sg109
I0
sg110
I2
sg111
I0
sg112
I0
sg113
S'HE'
p411
sbsS'n19'
p412
(ijoueur
joueur
p413
(dp414
g27
I0
sg28
I0
sg29
I0
sg30
(ijoueur
rang
p415
(dp416
g33
I5
sg34
S'**'
p417
sg36
g37
sbsg38
(dp418
g40
I0
sg41
I0
sg42
I0
sg43
I0
ssg44
(dp419
g40
I0
sg41
I0
sg42
I4
sg43
I0
ssg46
I0
sg47
I0
sg48
I0
sg49
I0
sg50
I0
sg51
(g52
S'N8'
p420
S'DL'
p421
S'TL'
p422
tp423
sg57
(ijoueur
rang
p424
(dp425
g33
I2
sg34
S'^^'
p426
sg36
g170
sbsg61
(dp427
g40
I0
sg41
I1
sg42
I1
sg43
I0
ssg63
(dp428
g40
I0
sg41
I0
sg42
I0
sg43
I0
ssg65
(dp429
g40
I0
sg41
I0
sg42
I4
sg43
I0
ssg67
(dp430
g40
I0
sg41
I1
sg42
I1
sg43
I0
ssg69
I0
sg70
I0
sg71
S'Italmaed'
p431
sg73
I11
sg74
I0
sg75
I26
sg76
I16
sg77
g78
sg79
(dp432
g81
I10
sg82
I8
sg83
I6
sg84
I10
sg85
I5
sg86
I9
sg87
I5
sg88
I9
sg89
I10
sg90
I10
sg91
I9
sg92
I8
sg93
I3
sg94
I8
sg95
I2
ssg96
I5
sg97
I0
sg98
I0
sg99
I0
sg100
F9.0
sg101
I0
sg102
I0
sg103
I0
sg104
g432
sg105
I0
sg106
g55
sg107
I0
sg108
I0
sg109
I0
sg110
I3
sg111
I0
sg112
I0
sg113
S'HE'
p433
sbsS'n22'
p434
(ijoueur
joueur
p435
(dp436
g27
I0
sg28
I0
sg29
I0
sg30
(ijoueur
rang
p437
(dp438
g33
I2
sg34
S'<<'
p439
sg36
g170
sbsg38
(dp440
g40
I0
sg41
I0
sg42
I0
sg43
I0
ssg44
(dp441
g40
I0
sg41
I1
sg42
I4
sg43
I0
ssg46
I0
sg47
I0
sg48
I1
sg49
I0
sg50
I0
sg51
(g52
S'TL'
p442
S'DO'
p443
S'AI'
p444
tp445
sg57
(ijoueur
rang
p446
(dp447
g33
I2
sg34
S'<<'
p448
sg36
g170
sbsg61
(dp449
g40
I0
sg41
I0
sg42
I0
sg43
I0
ssg63
(dp450
g40
I0
sg41
I0
sg42
I0
sg43
I0
ssg65
(dp451
g40
I0
sg41
I1
sg42
I4
sg43
I0
ssg67
(dp452
g40
I0
sg41
I0
sg42
I0
sg43
I0
ssg69
I0
sg70
I0
sg71
S'Rdal'
p453
sg73
I3
sg74
I0
sg75
I10
sg76
I15
sg77
g78
sg79
(dp454
g81
I9
sg82
I7
sg83
I6
sg84
I9
sg85
I8
sg86
I9
sg87
I9
sg88
I9
sg89
I9
sg90
I8
sg91
I12
sg92
I9
sg93
I10
sg94
I8
sg95
I4
ssg96
I0
sg97
I0
sg98
I0
sg99
I0
sg100
F8.925
sg101
I0
sg102
I0
sg103
I0
sg104
g454
sg105
I0
sg106
S'SN 11'
p455
sg107
I0
sg108
I0
sg109
I0
sg110
I2
sg111
I2
sg112
I0
sg113
S'S'
p456
sbsS'n21'
p457
(ijoueur
joueur
p458
(dp459
g27
I0
sg28
I15
sg29
I0
sg30
(ijoueur
rang
p460
(dp461
g33
I4
sg34
S'*'
p462
sg36
g192
sbsg38
(dp463
g40
I0
sg41
I0
sg42
I2
sg43
I0
ssg44
(dp464
g40
I0
sg41
I1
sg42
I0
sg43
I0
ssg46
I0
sg47
I0
sg48
I0
sg49
I0
sg50
I2
sg51
(g52
S'DO'
p465
S'CE'
p466
S'AR'
p467
tp468
sg57
(ijoueur
rang
p469
(dp470
g33
I4
sg34
S'*'
p471
sg36
g192
sbsg61
(dp472
g40
I0
sg41
I0
sg42
I3
sg43
I0
ssg63
(dp473
g40
I0
sg41
I0
sg42
I2
sg43
I0
ssg65
(dp474
g40
I0
sg41
I1
sg42
I0
sg43
I0
ssg67
(dp475
g40
I0
sg41
I0
sg42
I3
sg43
I0
ssg69
I119
sg70
I6
sg71
S'Enkel'
p476
sg73
I5
sg74
I17
sg75
I13
sg76
I102
sg77
g78
sg79
(dp477
g81
I11
sg82
I4
sg83
I7
sg84
I8
sg85
I10
sg86
I7
sg87
I8
sg88
I7
sg89
I7
sg90
I11
sg91
I10
sg92
I8
sg93
I11
sg94
I10
sg95
I4
ssg96
I8
sg97
I0
sg98
I0
sg99
I0
sg100
F9.457142857142857
sg101
I0
sg102
I0
sg103
I0
sg104
g477
sg105
I0
sg106
S'DKF 11'
p478
sg107
I0
sg108
I0
sg109
I0
sg110
I15
sg111
I2
sg112
I0
sg113
S'ES'
p479
sbsS'n20'
p480
(ijoueur
joueur
p481
(dp482
g27
I0
sg28
I0
sg29
I0
sg30
(ijoueur
rang
p483
(dp484
g33
I3
sg34
S'^^^'
p485
sg36
g311
sbsg38
(dp486
g40
I0
sg41
I0
sg42
I3
sg43
I0
ssg44
(dp487
g40
I0
sg41
I0
sg42
I0
sg43
I0
ssg46
I0
sg47
I0
sg48
I0
sg49
I0
sg50
I0
sg51
(g52
S'DM'
p488
S'DO'
p489
g55
tp490
sg57
(ijoueur
rang
p491
(dp492
g33
I3
sg34
S'^^^'
p493
sg36
g311
sbsg61
(dp494
g40
I0
sg41
I1
sg42
I1
sg43
I0
ssg63
(dp495
g40
I0
sg41
I0
sg42
I3
sg43
I0
ssg65
(dp496
g40
I0
sg41
I0
sg42
I0
sg43
I0
ssg67
(dp497
g40
I0
sg41
I1
sg42
I1
sg43
I0
ssg69
I0
sg70
I0
sg71
S'Umaan'
p498
sg73
I9
sg74
I0
sg75
I20
sg76
I66
sg77
g78
sg79
(dp499
g81
I9
sg82
I5
sg83
I8
sg84
I11
sg85
I9
sg86
I9
sg87
I7
sg88
I10
sg89
I7
sg90
I9
sg91
I10
sg92
I7
sg93
I8
sg94
I7
sg95
I6
ssg96
I0
sg97
I0
sg98
I0
sg99
I0
sg100
F9.0
sg101
I0
sg102
I0
sg103
I0
sg104
g499
sg105
I0
sg106
g55
sg107
I0
sg108
I0
sg109
I0
sg110
I7
sg111
I0
sg112
I0
sg113
S'HL'
p500
sbsS'n8'
p501
g116
sS'n9'
p502
(ijoueur
joueur
p503
(dp504
g27
I0
sg28
I0
sg29
I0
sg30
(ijoueur
rang
p505
(dp506
g33
I1
sg34
S'<'
p507
sg36
g287
sbsg38
(dp508
g40
I0
sg41
I4
sg42
I0
sg43
I0
ssg44
(dp509
g40
I0
sg41
I0
sg42
I0
sg43
I0
ssg46
I0
sg47
I0
sg48
I0
sg49
I0
sg50
I0
sg51
(g52
S'DO'
p510
S'DM'
p511
g55
tp512
sg57
(ijoueur
rang
p513
(dp514
g33
I1
sg34
S'<'
p515
sg36
g287
sbsg61
(dp516
g40
I0
sg41
I1
sg42
I0
sg43
I0
ssg63
(dp517
g40
I0
sg41
I4
sg42
I0
sg43
I0
ssg65
(dp518
g40
I0
sg41
I0
sg42
I0
sg43
I0
ssg67
(dp519
g40
I0
sg41
I1
sg42
I0
sg43
I0
ssg69
I22
sg70
I0
sg71
S'Kerfael'
p520
sg73
I10
sg74
I7
sg75
I18
sg76
I36
sg77
g78
sg79
(dp521
g81
I11
sg82
I5
sg83
I7
sg84
I10
sg85
I9
sg86
I6
sg87
I9
sg88
I7
sg89
I4
sg90
I14
sg91
I8
sg92
I3
sg93
I10
sg94
I11
sg95
I5
ssg96
I9
sg97
I0
sg98
I0
sg99
I0
sg100
F9.857142857142858
sg101
I0
sg102
I0
sg103
I0
sg104
g521
sg105
I0
sg106
g55
sg107
I0
sg108
I0
sg109
I0
sg110
I3
sg111
I0
sg112
I0
sg113
S'HE'
p522
sbsS'n1'
p523
(ijoueur
joueur
p524
(dp525
g27
I0
sg28
I0
sg29
I0
sg30
(ijoueur
rang
p526
(dp527
g33
I1
sg34
S'^'
p528
sg36
g287
sbsg38
(dp529
g40
I0
sg41
I4
sg42
I0
sg43
I0
ssg44
(dp530
g40
I0
sg41
I0
sg42
I0
sg43
I0
ssg46
I0
sg47
I0
sg48
I0
sg49
I0
sg50
I0
sg51
(g52
S'DL'
p531
S'PI'
p532
g55
tp533
sg57
(ijoueur
rang
p534
(dp535
g33
I1
sg34
S'^'
p536
sg36
g287
sbsg61
(dp537
g40
I0
sg41
I0
sg42
I0
sg43
I0
ssg63
(dp538
g40
I0
sg41
I4
sg42
I0
sg43
I0
ssg65
(dp539
g40
I0
sg41
I0
sg42
I0
sg43
I0
ssg67
(dp540
g40
I0
sg41
I0
sg42
I0
sg43
I0
ssg69
I0
sg70
I0
sg71
S'Froek'
p541
sg73
I11
sg74
I0
sg75
I21
sg76
I32
sg77
g78
sg79
(dp542
g81
I7
sg82
I12
sg83
I6
sg84
I10
sg85
I1
sg86
I8
sg87
I1
sg88
I8
sg89
I7
sg90
I5
sg91
I8
sg92
I7
sg93
I0
sg94
I10
sg95
I4
ssg96
I0
sg97
I0
sg98
I0
sg99
I0
sg100
F8.74074074074074
sg101
I0
sg102
I0
sg103
I0
sg104
g542
sg105
I0
sg106
g55
sg107
I0
sg108
I0
sg109
I0
sg110
I4
sg111
I0
sg112
I0
sg113
S'HL'
p543
sbsS'n2'
p544
(ijoueur
joueur
p545
(dp546
g27
I0
sg28
I0
sg29
I0
sg30
(ijoueur
rang
p547
(dp548
g33
I4
sg34
S'*'
p549
sg36
g192
sbsg38
(dp550
g40
I0
sg41
I0
sg42
I0
sg43
I0
ssg44
(dp551
g40
I0
sg41
I0
sg42
I0
sg43
I0
ssg46
I0
sg47
I0
sg48
I0
sg49
I0
sg50
I0
sg51
(g52
S'TA'
p552
S'PI'
p553
S'DL'
p554
tp555
sg57
(ijoueur
rang
p556
(dp557
g33
I4
sg34
S'*'
p558
sg36
g192
sbsg61
(dp559
g40
I0
sg41
I4
sg42
I1
sg43
I0
ssg63
(dp560
g40
I0
sg41
I0
sg42
I0
sg43
I0
ssg65
(dp561
g40
I0
sg41
I0
sg42
I0
sg43
I0
ssg67
(dp562
g40
I0
sg41
I4
sg42
I1
sg43
I0
ssg69
I0
sg70
I0
sg71
S'Mapaed'
p563
sg73
I4
sg74
I0
sg75
I17
sg76
I105
sg77
g78
sg79
(dp564
g81
I11
sg82
I9
sg83
I7
sg84
I8
sg85
I9
sg86
I9
sg87
I7
sg88
I9
sg89
I9
sg90
I12
sg91
I8
sg92
I10
sg93
I6
sg94
I9
sg95
I10
ssg96
I7
sg97
I0
sg98
I0
sg99
I0
sg100
F9.413793103448276
sg101
I0
sg102
I0
sg103
I0
sg104
g564
sg105
I0
sg106
S'AL 9'
p565
sg107
I0
sg108
I0
sg109
I0
sg110
I7
sg111
I1
sg112
I0
sg113
S'ES'
p566
sbsS'n3'
p567
(ijoueur
joueur
p568
(dp569
g27
I0
sg28
I0
sg29
I0
sg30
(ijoueur
rang
p570
(dp571
g33
I4
sg34
S'x'
p572
sg36
g192
sbsg38
(dp573
g40
I0
sg41
I0
sg42
I0
sg43
I0
ssg44
(dp574
g40
I0
sg41
I0
sg42
I0
sg43
I0
ssg46
I0
sg47
I0
sg48
I0
sg49
I0
sg50
I0
sg51
(g52
S'PI'
p575
S'TA'
p576
g55
tp577
sg57
(ijoueur
rang
p578
(dp579
g33
I4
sg34
S'x'
p580
sg36
g192
sbsg61
(dp581
g40
I0
sg41
I5
sg42
I0
sg43
I0
ssg63
(dp582
g40
I0
sg41
I0
sg42
I0
sg43
I0
ssg65
(dp583
g40
I0
sg41
I0
sg42
I0
sg43
I0
ssg67
(dp584
g40
I0
sg41
I5
sg42
I0
sg43
I0
ssg69
I0
sg70
I0
sg71
S"Doq'Petl"
p585
sg73
I5
sg74
I0
sg75
I13
sg76
I100
sg77
g78
sg79
(dp586
g81
I6
sg82
I13
sg83
I7
sg84
I10
sg85
I2
sg86
I10
sg87
I1
sg88
I10
sg89
I5
sg90
I5
sg91
I8
sg92
I11
sg93
I3
sg94
I10
sg95
I8
ssg96
I4
sg97
I0
sg98
I0
sg99
I0
sg100
F10.222222222222221
sg101
I0
sg102
I0
sg103
I0
sg104
g586
sg105
I0
sg106
g55
sg107
I0
sg108
I0
sg109
I0
sg110
I10
sg111
I2
sg112
I0
sg113
S'HL'
p587
sbsS'n4'
p588
g165
sS'n5'
p589
g233
sS'n6'
p590
g187
sS'n7'
p591
g210
ssS'remplacements'
p592
(dp593
g329
S'n0'
p594
sg350
g594
sg392
g594
sg412
g594
sg434
g594
sg457
g594
sg480
g594
ssb.