ccopy_reg
_reconstructor
p0
(cclub
club
p1
c__builtin__
object
p2
Ntp3
Rp4
(dp5
S'joues_championat'
p6
I13
sS'pour_championat'
p7
I207
sS'contre_championat'
p8
I171
sS'_compo_defaut_fatigue'
p9
NsS'perdus_championat'
p10
I6
sS'difference_championat'
p11
I36
sS'perdus_coupe'
p12
I1
sS'pour_coupe'
p13
I44
sS'gagnes_championat'
p14
I7
sS'bonus_defensif_championat'
p15
I4
sS'contre_coupe'
p16
I32
sS'joues_coupe'
p17
I2
sS'bonus_offensif_coupe'
p18
I0
sS'valeur'
p19
I1803
sS'bonus_defensif_coupe'
p20
I1
sS'joueurs'
p21
(dp22
S'DO'
p23
(lp24
(ijoueur
joueur
p25
(dp26
S'rouges_total'
p27
I0
sS'drop_ratees_total'
p28
I0
sS'drops_total'
p29
I1
sS'xp_total'
p30
F127.2054797719701
sS'poste3'
p31
S''
p32
sS'blessure'
p33
I0
sS'poste1'
p34
g32
sS'RG_max'
p35
g0
(cjoueur
rang_new
p36
g2
Ntp37
Rp38
(dp39
S'type_nb'
p40
I2
sS'rang'
p41
S'^^'
p42
sS'type'
p43
S'special'
p44
sbsS'MJ2_total'
p45
(dp46
S'SR'
p47
I0
sS'ST'
p48
I0
sS'CR'
p49
I0
sS'CT'
p50
I0
ssS'MJ3_total'
p51
(dp52
g47
I0
sg48
I0
sg49
I0
sg50
I0
ssS'D'
p53
I24
sS'anciens_clubs'
p54
g32
sS'drop_rates_saison'
p55
I0
sS'xp_saison'
p56
F127.2054797719701
sS'essais_saison'
p57
I0
sS'penalite_ratees_saison'
p58
I0
sS'transformations_saison'
p59
I0
sS'club'
p60
S'BIL'
p61
sS'veut_partir'
p62
I00
sS'RG'
p63
g38
sS'MJ1'
p64
(dp65
g47
I0
sg48
I0
sg49
I13
sg50
I1
ssS'MS_probleme'
p66
I00
sS'MJ3'
p67
(dp68
g47
I0
sg48
I0
sg49
I0
sg50
I0
ssS'MJ1_total'
p69
(dp70
g47
I0
sg48
I0
sg49
I13
sg50
I1
ssS'penalites_total'
p71
I0
sS'penalites_saison'
p72
I0
sS'nom'
p73
S'Mesteol'
p74
sS'C'
p75
I11
sS'transformations_total'
p76
I0
sS'MJ2'
p77
(dp78
g47
I0
sg48
I0
sg49
I0
sg50
I0
ssS'VAL'
p79
I33
sS'postes'
p80
(S'dummy'
p81
g23
S'CE'
p82
g32
tp83
sS'poste2'
p84
g32
sS'caracs'
p85
(dp86
S'RP1'
p87
I6
sS'ME'
p88
I5
sS'RP2'
p89
I7
sS'E'
p90
I8
sS'TO'
p91
I5
sS'M'
p92
I9
sS'JP'
p93
I10
sS'RP_tot'
p94
I7
sS'P'
p95
I10
sS'PA'
p96
I8
sS'A'
p97
I6
sS'R'
p98
I7
sS'TB'
p99
I9
sS'PL'
p100
I9
sS'TA'
p101
I3
ssS'jj_passe'
p102
(dp103
S's12'
p104
(ijoueur
joueur
p105
(dp106
g27
I0
sg28
I0
sg29
I0
sg33
I0
sg35
g0
(g36
g2
Ntp107
Rp108
(dp109
g41
g32
sbsg45
(dp110
g47
I0
sg48
I0
sg49
I0
sg50
I0
ssg51
(dp111
g47
I0
sg48
I0
sg49
I0
sg50
I0
ssg53
I0
sg54
g32
sg55
I0
sg57
I0
sg58
I0
sg59
I0
sg80
(g81
g23
g32
g32
tp112
sg62
I00
sg63
g0
(g36
g2
Ntp113
Rp114
(dp115
g41
g32
sbsg64
(dp116
g47
I0
sg48
I0
sg49
I0
sg50
I0
ssg66
I00
sg67
(dp117
g47
I0
sg48
I0
sg49
I0
sg50
I0
ssg69
(dp118
g47
I0
sg48
I0
sg49
I0
sg50
I0
ssg71
I0
sg72
I0
sg73
g32
sg75
I0
sg76
I0
sg77
(dp119
g47
I0
sg48
I0
sg49
I0
sg50
I0
ssg79
I0
sg60
g61
sg85
(dp120
g97
I0
sg88
I0
sg89
I0
sg90
I0
sg91
I0
sg87
I0
sg93
I0
sg94
I0
sg95
I0
sg96
I0
sg92
I0
sg98
I0
sg99
I0
sg100
I0
sg101
I0
ssg102
(dp121
sS'fatigue'
p122
I0
sS'changements_postes'
p123
g32
sS'blessures_total'
p124
I0
sS'XP'
p125
I0
sS'EV'
p126
F0.0
sS'penalite_ratees_total'
p127
I0
sS'blessures_saison'
p128
I0
sS'jaunes_total'
p129
I0
sS'caracs_sans_fatigue'
p130
g86
sS'rouges_saison'
p131
I0
sS'transformation_ratees_total'
p132
I0
sS'drops_saison'
p133
I0
sS'transformation_ratees_saison'
p134
I0
sS'MS'
p135
I0
sS'essais_total'
p136
I0
sS'jaunes_saison'
p137
I0
sS'ARM'
p138
g32
sbsS's11'
p139
(ijoueur
joueur
p140
(dp141
g27
I0
sg28
I0
sg29
I0
sg33
I0
sg35
g0
(g36
g2
Ntp142
Rp143
(dp144
g41
g32
sbsg45
(dp145
g47
I0
sg48
I0
sg49
I0
sg50
I0
ssg51
(dp146
g47
I0
sg48
I0
sg49
I0
sg50
I0
ssg53
I0
sg54
g32
sg55
I0
sg57
I0
sg58
I0
sg59
I0
sg80
g112
sg62
I00
sg63
g0
(g36
g2
Ntp147
Rp148
(dp149
g41
g32
sbsg64
(dp150
g47
I0
sg48
I0
sg49
I0
sg50
I0
ssg66
I00
sg67
(dp151
g47
I0
sg48
I0
sg49
I0
sg50
I0
ssg69
(dp152
g47
I0
sg48
I0
sg49
I0
sg50
I0
ssg71
I0
sg72
I0
sg73
g32
sg75
I0
sg76
I0
sg77
(dp153
g47
I0
sg48
I0
sg49
I0
sg50
I0
ssg79
I0
sg60
g61
sg85
(dp154
g97
I0
sg88
I0
sg89
I0
sg90
I0
sg91
I0
sg87
I0
sg93
I0
sg94
I0
sg95
I0
sg96
I0
sg92
I0
sg98
I0
sg99
I0
sg100
I0
sg101
I0
ssg102
(dp155
sg122
I0
sg123
g32
sg124
I0
sg125
I0
sg126
F0.0
sg127
I0
sg128
I0
sg129
I0
sg130
g86
sg131
I0
sg132
I0
sg133
I0
sg134
I0
sg135
I0
sg136
I0
sg137
I0
sg138
g32
sbssg122
I0
sg123
g32
sg124
I0
sg125
I0
sg126
F8.542857142857143
sg127
I0
sg128
I0
sg129
I0
sg130
g86
sg131
I0
sg132
I0
sg133
I1
sg134
I0
sg135
I3
sg136
I0
sg137
I0
sg138
S'EST'
p156
sba(ijoueur
joueur
p157
(dp158
g27
I0
sg28
I1
sg29
I4
sg30
F118.7876485101295
sg31
g32
sg33
I0
sg34
g32
sg35
g0
(g36
g2
Ntp159
Rp160
(dp161
g40
I5
sg41
S'**'
p162
sg43
S'seigneur'
p163
sbsg45
(dp164
g47
I0
sg48
I0
sg49
I0
sg50
I1
ssg51
(dp165
g47
I0
sg48
I0
sg49
I0
sg50
I0
ssg53
I17
sg54
g32
sg55
I1
sg56
F118.7876485101295
sg57
I4
sg58
I9
sg59
I12
sg60
g61
sg62
I00
sg63
g160
sg64
(dp166
g47
I0
sg48
I0
sg49
I0
sg50
I12
ssg66
I00
sg67
(dp167
g47
I0
sg48
I0
sg49
I0
sg50
I0
ssg69
(dp168
g47
I0
sg48
I0
sg49
I0
sg50
I12
ssg71
I32
sg72
I32
sg73
S'Moela'
p169
sg75
I10
sg76
I12
sg77
(dp170
g47
I0
sg48
I0
sg49
I0
sg50
I1
ssg79
I125
sg80
(g81
g23
S'DM'
p171
S'AR'
p172
tp173
sg84
g32
sg85
(dp174
g87
I9
sg88
I5
sg89
I12
sg90
I11
sg91
I7
sg92
I9
sg93
I9
sg94
I13
sg95
I11
sg96
I11
sg97
I10
sg98
I8
sg99
I9
sg100
I11
sg101
I7
ssg102
(dp175
S's12'
p176
(ijoueur
joueur
p177
(dp178
g27
I0
sg28
I0
sg29
I0
sg33
I0
sg35
g0
(g36
g2
Ntp179
Rp180
(dp181
g41
g32
sbsg45
(dp182
g47
I0
sg48
I0
sg49
I0
sg50
I0
ssg51
(dp183
g47
I0
sg48
I0
sg49
I0
sg50
I0
ssg53
I0
sg54
g32
sg55
I0
sg57
I0
sg58
I0
sg59
I0
sg80
(g81
g23
g32
g32
tp184
sg62
I00
sg63
g0
(g36
g2
Ntp185
Rp186
(dp187
g41
g32
sbsg64
(dp188
g47
I0
sg48
I0
sg49
I0
sg50
I0
ssg66
I00
sg67
(dp189
g47
I0
sg48
I0
sg49
I0
sg50
I0
ssg69
(dp190
g47
I0
sg48
I0
sg49
I0
sg50
I0
ssg71
I0
sg72
I0
sg73
g32
sg75
I0
sg76
I0
sg77
(dp191
g47
I0
sg48
I0
sg49
I0
sg50
I0
ssg79
I0
sg60
g61
sg85
(dp192
g97
I0
sg88
I0
sg89
I0
sg90
I0
sg91
I0
sg87
I0
sg93
I0
sg94
I0
sg95
I0
sg96
I0
sg92
I0
sg98
I0
sg99
I0
sg100
I0
sg101
I0
ssg102
(dp193
sg122
I0
sg123
g32
sg124
I0
sg125
I0
sg126
F0.0
sg127
I0
sg128
I0
sg129
I0
sg130
g174
sg131
I0
sg132
I0
sg133
I0
sg134
I0
sg135
I0
sg136
I0
sg137
I0
sg138
g32
sbsS's11'
p194
(ijoueur
joueur
p195
(dp196
g27
I0
sg28
I0
sg29
I0
sg33
I0
sg35
g0
(g36
g2
Ntp197
Rp198
(dp199
g41
g32
sbsg45
(dp200
g47
I0
sg48
I0
sg49
I0
sg50
I0
ssg51
(dp201
g47
I0
sg48
I0
sg49
I0
sg50
I0
ssg53
I0
sg54
g32
sg55
I0
sg57
I0
sg58
I0
sg59
I0
sg80
g184
sg62
I00
sg63
g0
(g36
g2
Ntp202
Rp203
(dp204
g41
g32
sbsg64
(dp205
g47
I0
sg48
I0
sg49
I0
sg50
I0
ssg66
I00
sg67
(dp206
g47
I0
sg48
I0
sg49
I0
sg50
I0
ssg69
(dp207
g47
I0
sg48
I0
sg49
I0
sg50
I0
ssg71
I0
sg72
I0
sg73
g32
sg75
I0
sg76
I0
sg77
(dp208
g47
I0
sg48
I0
sg49
I0
sg50
I0
ssg79
I0
sg60
g61
sg85
(dp209
g97
I0
sg88
I0
sg89
I0
sg90
I0
sg91
I0
sg87
I0
sg93
I0
sg94
I0
sg95
I0
sg96
I0
sg92
I0
sg98
I0
sg99
I0
sg100
I0
sg101
I0
ssg102
(dp210
sg122
I0
sg123
g32
sg124
I0
sg125
I0
sg126
F0.0
sg127
I0
sg128
I0
sg129
I0
sg130
g174
sg131
I0
sg132
I0
sg133
I0
sg134
I0
sg135
I0
sg136
I0
sg137
I0
sg138
g32
sbssg122
I0
sg123
g32
sg124
I0
sg125
I0
sg126
F10.515151515151516
sg127
I9
sg128
I0
sg129
I0
sg130
g174
sg131
I0
sg132
I3
sg133
I4
sg134
I3
sg135
I12
sg136
I4
sg137
I0
sg138
g156
sbasS'DL'
p211
(lp212
(ijoueur
joueur
p213
(dp214
g27
I0
sg28
I0
sg29
I0
sg30
F35.92732576477402
sg31
g32
sg33
I0
sg34
g32
sg35
g0
(g36
g2
Ntp215
Rp216
(dp217
g40
I2
sg41
g42
sg43
g44
sbsg45
(dp218
g47
I0
sg48
I0
sg49
I0
sg50
I0
ssg51
(dp219
g47
I0
sg48
I0
sg49
I0
sg50
I0
ssg53
I20
sg54
g32
sg55
I0
sg56
F35.92732576477402
sg57
I0
sg58
I0
sg59
I0
sg60
g61
sg62
I00
sg63
g216
sg64
(dp220
g47
I0
sg48
I0
sg49
I2
sg50
I2
ssg66
I00
sg67
(dp221
g47
I0
sg48
I0
sg49
I0
sg50
I0
ssg69
(dp222
g47
I0
sg48
I0
sg49
I2
sg50
I2
ssg71
I0
sg72
I0
sg73
S'Fieltos'
p223
sg75
I9
sg76
I0
sg77
(dp224
g47
I0
sg48
I0
sg49
I0
sg50
I0
ssg79
I36
sg80
(g81
g211
g32
g32
tp225
sg84
g32
sg85
(dp226
g87
I7
sg88
I8
sg89
I6
sg90
I9
sg91
I9
sg92
I8
sg93
I4
sg94
I7
sg95
I5
sg96
I6
sg97
I7
sg98
I9
sg99
I3
sg100
I7
sg101
I4
ssg102
(dp227
S's12'
p228
(ijoueur
joueur
p229
(dp230
g27
I0
sg28
I0
sg29
I0
sg33
I0
sg35
g0
(g36
g2
Ntp231
Rp232
(dp233
g41
g32
sbsg45
(dp234
g47
I0
sg48
I0
sg49
I0
sg50
I0
ssg51
(dp235
g47
I0
sg48
I0
sg49
I0
sg50
I0
ssg53
I0
sg54
g32
sg55
I0
sg57
I0
sg58
I0
sg59
I0
sg80
(g81
g211
g32
g32
tp236
sg62
I00
sg63
g0
(g36
g2
Ntp237
Rp238
(dp239
g41
g32
sbsg64
(dp240
g47
I0
sg48
I0
sg49
I0
sg50
I0
ssg66
I00
sg67
(dp241
g47
I0
sg48
I0
sg49
I0
sg50
I0
ssg69
(dp242
g47
I0
sg48
I0
sg49
I0
sg50
I0
ssg71
I0
sg72
I0
sg73
g32
sg75
I0
sg76
I0
sg77
(dp243
g47
I0
sg48
I0
sg49
I0
sg50
I0
ssg79
I0
sg60
g61
sg85
(dp244
g97
I0
sg88
I0
sg89
I0
sg90
I0
sg91
I0
sg87
I0
sg93
I0
sg94
I0
sg95
I0
sg96
I0
sg92
I0
sg98
I0
sg99
I0
sg100
I0
sg101
I0
ssg102
(dp245
sg122
I0
sg123
g32
sg124
I0
sg125
I0
sg126
F0.0
sg127
I0
sg128
I0
sg129
I0
sg130
g226
sg131
I0
sg132
I0
sg133
I0
sg134
I0
sg135
I0
sg136
I0
sg137
I0
sg138
g32
sbsS's11'
p246
(ijoueur
joueur
p247
(dp248
g27
I0
sg28
I0
sg29
I0
sg33
I0
sg35
g0
(g36
g2
Ntp249
Rp250
(dp251
g41
g32
sbsg45
(dp252
g47
I0
sg48
I0
sg49
I0
sg50
I0
ssg51
(dp253
g47
I0
sg48
I0
sg49
I0
sg50
I0
ssg53
I0
sg54
g32
sg55
I0
sg57
I0
sg58
I0
sg59
I0
sg80
g236
sg62
I00
sg63
g0
(g36
g2
Ntp254
Rp255
(dp256
g41
g32
sbsg64
(dp257
g47
I0
sg48
I0
sg49
I0
sg50
I0
ssg66
I00
sg67
(dp258
g47
I0
sg48
I0
sg49
I0
sg50
I0
ssg69
(dp259
g47
I0
sg48
I0
sg49
I0
sg50
I0
ssg71
I0
sg72
I0
sg73
g32
sg75
I0
sg76
I0
sg77
(dp260
g47
I0
sg48
I0
sg49
I0
sg50
I0
ssg79
I0
sg60
g61
sg85
(dp261
g97
I0
sg88
I0
sg89
I0
sg90
I0
sg91
I0
sg87
I0
sg93
I0
sg94
I0
sg95
I0
sg96
I0
sg92
I0
sg98
I0
sg99
I0
sg100
I0
sg101
I0
ssg102
(dp262
sg122
I0
sg123
g32
sg124
I0
sg125
I0
sg126
F0.0
sg127
I0
sg128
I0
sg129
I0
sg130
g226
sg131
I0
sg132
I0
sg133
I0
sg134
I0
sg135
I0
sg136
I0
sg137
I0
sg138
g32
sbssg122
I0
sg123
g32
sg124
I0
sg125
I0
sg126
F8.176470588235293
sg127
I0
sg128
I0
sg129
I0
sg130
g226
sg131
I0
sg132
I0
sg133
I0
sg134
I0
sg135
I3
sg136
I0
sg137
I0
sg138
g156
sba(ijoueur
joueur
p263
(dp264
g27
I0
sg28
I0
sg29
I0
sg30
F45.5664071854142
sg31
g32
sg33
I0
sg34
g32
sg35
g0
(g36
g2
Ntp265
Rp266
(dp267
g40
I1
sg41
S'<'
p268
sg43
S'base'
p269
sbsg45
(dp270
g47
I0
sg48
I0
sg49
I1
sg50
I0
ssg51
(dp271
g47
I0
sg48
I0
sg49
I2
sg50
I0
ssg53
I20
sg54
g32
sg55
I0
sg56
F45.5664071854142
sg57
I0
sg58
I0
sg59
I0
sg60
g61
sg62
I00
sg63
g266
sg64
(dp272
g47
I0
sg48
I0
sg49
I0
sg50
I2
ssg66
I00
sg67
(dp273
g47
I0
sg48
I0
sg49
I2
sg50
I0
ssg69
(dp274
g47
I0
sg48
I0
sg49
I0
sg50
I2
ssg71
I0
sg72
I0
sg73
S'Riendi'
p275
sg75
I10
sg76
I0
sg77
(dp276
g47
I0
sg48
I0
sg49
I1
sg50
I0
ssg79
I15
sg80
(g81
g211
S'TL'
p277
S'N8'
p278
tp279
sg84
g32
sg85
(dp280
g87
I8
sg88
I8
sg89
I6
sg90
I8
sg91
I8
sg92
I7
sg93
I2
sg94
I8
sg95
I3
sg96
I6
sg97
I7
sg98
I8
sg99
I3
sg100
I10
sg101
I3
ssg102
(dp281
S's12'
p282
(ijoueur
joueur
p283
(dp284
g27
I0
sg28
I0
sg29
I0
sg33
I0
sg35
g0
(g36
g2
Ntp285
Rp286
(dp287
g41
g32
sbsg45
(dp288
g47
I0
sg48
I0
sg49
I0
sg50
I0
ssg51
(dp289
g47
I0
sg48
I0
sg49
I0
sg50
I0
ssg53
I0
sg54
g32
sg55
I0
sg57
I0
sg58
I0
sg59
I0
sg80
(g81
g211
g32
g32
tp290
sg62
I00
sg63
g0
(g36
g2
Ntp291
Rp292
(dp293
g41
g32
sbsg64
(dp294
g47
I0
sg48
I0
sg49
I0
sg50
I0
ssg66
I00
sg67
(dp295
g47
I0
sg48
I0
sg49
I0
sg50
I0
ssg69
(dp296
g47
I0
sg48
I0
sg49
I0
sg50
I0
ssg71
I0
sg72
I0
sg73
g32
sg75
I0
sg76
I0
sg77
(dp297
g47
I0
sg48
I0
sg49
I0
sg50
I0
ssg79
I0
sg60
g61
sg85
(dp298
g97
I0
sg88
I0
sg89
I0
sg90
I0
sg91
I0
sg87
I0
sg93
I0
sg94
I0
sg95
I0
sg96
I0
sg92
I0
sg98
I0
sg99
I0
sg100
I0
sg101
I0
ssg102
(dp299
sg122
I0
sg123
g32
sg124
I0
sg125
I0
sg126
F0.0
sg127
I0
sg128
I0
sg129
I0
sg130
g280
sg131
I0
sg132
I0
sg133
I0
sg134
I0
sg135
I0
sg136
I0
sg137
I0
sg138
g32
sbsS's11'
p300
(ijoueur
joueur
p301
(dp302
g27
I0
sg28
I0
sg29
I0
sg33
I0
sg35
g0
(g36
g2
Ntp303
Rp304
(dp305
g41
g32
sbsg45
(dp306
g47
I0
sg48
I0
sg49
I0
sg50
I0
ssg51
(dp307
g47
I0
sg48
I0
sg49
I0
sg50
I0
ssg53
I0
sg54
g32
sg55
I0
sg57
I0
sg58
I0
sg59
I0
sg80
g290
sg62
I00
sg63
g0
(g36
g2
Ntp308
Rp309
(dp310
g41
g32
sbsg64
(dp311
g47
I0
sg48
I0
sg49
I0
sg50
I0
ssg66
I00
sg67
(dp312
g47
I0
sg48
I0
sg49
I0
sg50
I0
ssg69
(dp313
g47
I0
sg48
I0
sg49
I0
sg50
I0
ssg71
I0
sg72
I0
sg73
g32
sg75
I0
sg76
I0
sg77
(dp314
g47
I0
sg48
I0
sg49
I0
sg50
I0
ssg79
I0
sg60
g61
sg85
(dp315
g97
I0
sg88
I0
sg89
I0
sg90
I0
sg91
I0
sg87
I0
sg93
I0
sg94
I0
sg95
I0
sg96
I0
sg92
I0
sg98
I0
sg99
I0
sg100
I0
sg101
I0
ssg102
(dp316
sg122
I0
sg123
g32
sg124
I0
sg125
I0
sg126
F0.0
sg127
I0
sg128
I0
sg129
I0
sg130
g280
sg131
I0
sg132
I0
sg133
I0
sg134
I0
sg135
I0
sg136
I0
sg137
I0
sg138
g32
sbssg122
I0
sg123
g32
sg124
I0
sg125
I0
sg126
F8.11111111111111
sg127
I0
sg128
I0
sg129
I0
sg130
g280
sg131
I0
sg132
I0
sg133
I0
sg134
I0
sg135
I1
sg136
I0
sg137
I0
sg138
g156
sba(ijoueur
joueur
p317
(dp318
g27
I0
sg28
I0
sg29
I0
sg30
F17.45723350276741
sg31
g32
sg33
I0
sg34
g32
sg35
g0
(g36
g2
Ntp319
Rp320
(dp321
g40
I3
sg41
S'^^^'
p322
sg43
S'rare'
p323
sbsg45
(dp324
g47
I0
sg48
I0
sg49
I0
sg50
I0
ssg51
(dp325
g47
I0
sg48
I0
sg49
I0
sg50
I0
ssg53
I22
sg54
g32
sg55
I0
sg56
F17.45723350276741
sg57
I0
sg58
I0
sg59
I0
sg60
g61
sg62
I00
sg63
g0
(g36
g2
Ntp326
Rp327
(dp328
g40
I1
sg41
S'^'
p329
sg43
g269
sbsg64
(dp330
g47
I0
sg48
I0
sg49
I2
sg50
I0
ssg66
I00
sg67
(dp331
g47
I0
sg48
I0
sg49
I0
sg50
I0
ssg69
(dp332
g47
I0
sg48
I0
sg49
I2
sg50
I0
ssg71
I0
sg72
I0
sg73
S'Iumel'
p333
sg75
I13
sg76
I0
sg77
(dp334
g47
I0
sg48
I0
sg49
I0
sg50
I0
ssg79
I9
sg80
(g81
g211
S'PI'
p335
g32
tp336
sg84
g32
sg85
(dp337
g87
I9
sg88
I7
sg89
I6
sg90
I8
sg91
I7
sg92
I7
sg93
I3
sg94
I9
sg95
I3
sg96
I7
sg97
I7
sg98
I7
sg99
I4
sg100
I6
sg101
I4
ssg102
(dp338
sg122
I0
sg123
g32
sg124
I0
sg125
I0
sg126
F7.296296296296297
sg127
I0
sg128
I0
sg129
I0
sg130
g337
sg131
I0
sg132
I0
sg133
I0
sg134
I0
sg135
I0
sg136
I0
sg137
I0
sg138
g156
sba(ijoueur
joueur
p339
(dp340
g27
I0
sg28
I0
sg29
I0
sg30
F109.98439755398007
sg31
g32
sg33
I0
sg34
g32
sg35
g0
(g36
g2
Ntp341
Rp342
(dp343
g40
I4
sg41
S'x'
p344
sg43
S'heros'
p345
sbsg45
(dp346
g47
I0
sg48
I0
sg49
I0
sg50
I0
ssg51
(dp347
g47
I0
sg48
I0
sg49
I0
sg50
I0
ssg53
I19
sg54
g32
sg55
I0
sg56
F109.98439755398007
sg57
I2
sg58
I0
sg59
I0
sg60
g61
sg62
I00
sg63
g342
sg64
(dp348
g47
I0
sg48
I0
sg49
I0
sg50
I12
ssg66
I00
sg67
(dp349
g47
I0
sg48
I0
sg49
I0
sg50
I0
ssg69
(dp350
g47
I0
sg48
I0
sg49
I0
sg50
I12
ssg71
I0
sg72
I0
sg73
S'Hastic'
p351
sg75
I10
sg76
I0
sg77
(dp352
g47
I0
sg48
I0
sg49
I0
sg50
I0
ssg79
I112
sg80
(g81
g211
g32
g32
tp353
sg84
g32
sg85
(dp354
g87
I10
sg88
I8
sg89
I8
sg90
I8
sg91
I11
sg92
I6
sg93
I5
sg94
I11
sg95
I6
sg96
I9
sg97
I10
sg98
I10
sg99
I4
sg100
I10
sg101
I2
ssg102
(dp355
S's12'
p356
(ijoueur
joueur
p357
(dp358
g27
I0
sg28
I0
sg29
I0
sg33
I0
sg35
g0
(g36
g2
Ntp359
Rp360
(dp361
g41
g32
sbsg45
(dp362
g47
I0
sg48
I0
sg49
I0
sg50
I0
ssg51
(dp363
g47
I0
sg48
I0
sg49
I0
sg50
I0
ssg53
I0
sg54
g32
sg55
I0
sg57
I0
sg58
I0
sg59
I0
sg80
(g81
g211
g32
g32
tp364
sg62
I00
sg63
g0
(g36
g2
Ntp365
Rp366
(dp367
g41
g32
sbsg64
(dp368
g47
I0
sg48
I0
sg49
I0
sg50
I0
ssg66
I00
sg67
(dp369
g47
I0
sg48
I0
sg49
I0
sg50
I0
ssg69
(dp370
g47
I0
sg48
I0
sg49
I0
sg50
I0
ssg71
I0
sg72
I0
sg73
g32
sg75
I0
sg76
I0
sg77
(dp371
g47
I0
sg48
I0
sg49
I0
sg50
I0
ssg79
I0
sg60
g61
sg85
(dp372
g97
I0
sg88
I0
sg89
I0
sg90
I0
sg91
I0
sg87
I0
sg93
I0
sg94
I0
sg95
I0
sg96
I0
sg92
I0
sg98
I0
sg99
I0
sg100
I0
sg101
I0
ssg102
(dp373
sg122
I0
sg123
g32
sg124
I0
sg125
I0
sg126
F0.0
sg127
I0
sg128
I0
sg129
I0
sg130
g354
sg131
I0
sg132
I0
sg133
I0
sg134
I0
sg135
I0
sg136
I0
sg137
I0
sg138
g32
sbsS's11'
p374
(ijoueur
joueur
p375
(dp376
g27
I0
sg28
I0
sg29
I0
sg33
I0
sg35
g0
(g36
g2
Ntp377
Rp378
(dp379
g41
g32
sbsg45
(dp380
g47
I0
sg48
I0
sg49
I0
sg50
I0
ssg51
(dp381
g47
I0
sg48
I0
sg49
I0
sg50
I0
ssg53
I0
sg54
g32
sg55
I0
sg57
I0
sg58
I0
sg59
I0
sg80
g364
sg62
I00
sg63
g0
(g36
g2
Ntp382
Rp383
(dp384
g41
g32
sbsg64
(dp385
g47
I0
sg48
I0
sg49
I0
sg50
I0
ssg66
I00
sg67
(dp386
g47
I0
sg48
I0
sg49
I0
sg50
I0
ssg69
(dp387
g47
I0
sg48
I0
sg49
I0
sg50
I0
ssg71
I0
sg72
I0
sg73
g32
sg75
I0
sg76
I0
sg77
(dp388
g47
I0
sg48
I0
sg49
I0
sg50
I0
ssg79
I0
sg60
g61
sg85
(dp389
g97
I0
sg88
I0
sg89
I0
sg90
I0
sg91
I0
sg87
I0
sg93
I0
sg94
I0
sg95
I0
sg96
I0
sg92
I0
sg98
I0
sg99
I0
sg100
I0
sg101
I0
ssg102
(dp390
sg122
I0
sg123
g32
sg124
I0
sg125
I0
sg126
F0.0
sg127
I0
sg128
I0
sg129
I0
sg130
g354
sg131
I0
sg132
I0
sg133
I0
sg134
I0
sg135
I0
sg136
I0
sg137
I0
sg138
g32
sbssg122
I0
sg123
g32
sg124
I0
sg125
I0
sg126
F9.705882352941176
sg127
I0
sg128
I0
sg129
I0
sg130
g354
sg131
I0
sg132
I0
sg133
I0
sg134
I0
sg135
I11
sg136
I2
sg137
I0
sg138
g156
sbasS'DM'
p391
(lp392
(ijoueur
joueur
p393
(dp394
g27
I0
sg28
I0
sg29
I0
sg30
F17.45723350276741
sg31
g32
sg33
I0
sg34
g32
sg35
g0
(g36
g2
Ntp395
Rp396
(dp397
g40
I1
sg41
g329
sg43
g269
sbsg45
(dp398
g47
I0
sg48
I0
sg49
I0
sg50
I0
ssg51
(dp399
g47
I0
sg48
I0
sg49
I0
sg50
I0
ssg53
I23
sg54
g32
sg55
I0
sg56
F17.45723350276741
sg57
I0
sg58
I0
sg59
I0
sg60
g61
sg62
I00
sg63
g396
sg64
(dp400
g47
I0
sg48
I0
sg49
I2
sg50
I0
ssg66
I00
sg67
(dp401
g47
I0
sg48
I0
sg49
I0
sg50
I0
ssg69
(dp402
g47
I0
sg48
I0
sg49
I2
sg50
I0
ssg71
I0
sg72
I0
sg73
S'Blendo'
p403
sg75
I11
sg76
I0
sg77
(dp404
g47
I0
sg48
I0
sg49
I0
sg50
I0
ssg79
I8
sg80
(g81
g391
g32
g32
tp405
sg84
g32
sg85
(dp406
g87
I6
sg88
I5
sg89
I6
sg90
I7
sg91
I3
sg92
I7
sg93
I7
sg94
I7
sg95
I6
sg96
I6
sg97
I7
sg98
I7
sg99
I7
sg100
I8
sg101
I5
ssg102
(dp407
S's12'
p408
(ijoueur
joueur
p409
(dp410
g27
I0
sg28
I0
sg29
I0
sg33
I0
sg35
g0
(g36
g2
Ntp411
Rp412
(dp413
g41
g32
sbsg45
(dp414
g47
I0
sg48
I0
sg49
I0
sg50
I0
ssg51
(dp415
g47
I0
sg48
I0
sg49
I0
sg50
I0
ssg53
I0
sg54
g32
sg55
I0
sg57
I0
sg58
I0
sg59
I0
sg80
(g81
g391
g32
g32
tp416
sg62
I00
sg63
g0
(g36
g2
Ntp417
Rp418
(dp419
g41
g32
sbsg64
(dp420
g47
I0
sg48
I0
sg49
I0
sg50
I0
ssg66
I00
sg67
(dp421
g47
I0
sg48
I0
sg49
I0
sg50
I0
ssg69
(dp422
g47
I0
sg48
I0
sg49
I0
sg50
I0
ssg71
I0
sg72
I0
sg73
g32
sg75
I0
sg76
I0
sg77
(dp423
g47
I0
sg48
I0
sg49
I0
sg50
I0
ssg79
I0
sg60
g61
sg85
(dp424
g97
I0
sg88
I0
sg89
I0
sg90
I0
sg91
I0
sg87
I0
sg93
I0
sg94
I0
sg95
I0
sg96
I0
sg92
I0
sg98
I0
sg99
I0
sg100
I0
sg101
I0
ssg102
(dp425
sg122
I0
sg123
g32
sg124
I0
sg125
I0
sg126
F0.0
sg127
I0
sg128
I0
sg129
I0
sg130
g406
sg131
I0
sg132
I0
sg133
I0
sg134
I0
sg135
I0
sg136
I0
sg137
I0
sg138
g32
sbsS's11'
p426
(ijoueur
joueur
p427
(dp428
g27
I0
sg28
I0
sg29
I0
sg33
I0
sg35
g0
(g36
g2
Ntp429
Rp430
(dp431
g41
g32
sbsg45
(dp432
g47
I0
sg48
I0
sg49
I0
sg50
I0
ssg51
(dp433
g47
I0
sg48
I0
sg49
I0
sg50
I0
ssg53
I0
sg54
g32
sg55
I0
sg57
I0
sg58
I0
sg59
I0
sg80
g416
sg62
I00
sg63
g0
(g36
g2
Ntp434
Rp435
(dp436
g41
g32
sbsg64
(dp437
g47
I0
sg48
I0
sg49
I0
sg50
I0
ssg66
I00
sg67
(dp438
g47
I0
sg48
I0
sg49
I0
sg50
I0
ssg69
(dp439
g47
I0
sg48
I0
sg49
I0
sg50
I0
ssg71
I0
sg72
I0
sg73
g32
sg75
I0
sg76
I0
sg77
(dp440
g47
I0
sg48
I0
sg49
I0
sg50
I0
ssg79
I0
sg60
g61
sg85
(dp441
g97
I0
sg88
I0
sg89
I0
sg90
I0
sg91
I0
sg87
I0
sg93
I0
sg94
I0
sg95
I0
sg96
I0
sg92
I0
sg98
I0
sg99
I0
sg100
I0
sg101
I0
ssg102
(dp442
sg122
I0
sg123
g32
sg124
I0
sg125
I0
sg126
F0.0
sg127
I0
sg128
I0
sg129
I0
sg130
g406
sg131
I0
sg132
I0
sg133
I0
sg134
I0
sg135
I0
sg136
I0
sg137
I0
sg138
g32
sbssg122
I0
sg123
g32
sg124
I0
sg125
I0
sg126
F6.806451612903226
sg127
I0
sg128
I0
sg129
I0
sg130
g406
sg131
I0
sg132
I0
sg133
I0
sg134
I0
sg135
I0
sg136
I0
sg137
I0
sg138
g156
sba(ijoueur
joueur
p443
(dp444
g27
I0
sg28
I0
sg29
I0
sg30
F17.45723350276741
sg31
g32
sg33
I0
sg34
g32
sg35
g0
(g36
g2
Ntp445
Rp446
(dp447
g40
I1
sg41
g329
sg43
g269
sbsg45
(dp448
g47
I0
sg48
I0
sg49
I0
sg50
I0
ssg51
(dp449
g47
I0
sg48
I0
sg49
I0
sg50
I0
ssg53
I22
sg54
g32
sg55
I0
sg56
F17.45723350276741
sg57
I1
sg58
I0
sg59
I0
sg60
g61
sg62
I00
sg63
g446
sg64
(dp450
g47
I0
sg48
I0
sg49
I0
sg50
I2
ssg66
I00
sg67
(dp451
g47
I0
sg48
I0
sg49
I0
sg50
I0
ssg69
(dp452
g47
I0
sg48
I0
sg49
I0
sg50
I2
ssg71
I0
sg72
I0
sg73
S'Vies'
p453
sg75
I12
sg76
I0
sg77
(dp454
g47
I0
sg48
I0
sg49
I0
sg50
I0
ssg79
I7
sg80
(S'dummy'
p455
S'DM'
p456
S'DO'
p457
g32
tp458
sg84
g32
sg85
(dp459
g87
I7
sg88
I5
sg89
I6
sg90
I8
sg91
I3
sg92
I7
sg93
I7
sg94
I7
sg95
I8
sg96
I9
sg97
I8
sg98
I7
sg99
I6
sg100
I6
sg101
I4
ssg102
(dp460
S's12'
p461
(ijoueur
joueur
p462
(dp463
g27
I0
sg28
I0
sg29
I0
sg33
I0
sg35
g0
(g36
g2
Ntp464
Rp465
(dp466
g41
g32
sbsg45
(dp467
g47
I0
sg48
I0
sg49
I0
sg50
I0
ssg51
(dp468
g47
I0
sg48
I0
sg49
I0
sg50
I0
ssg53
I0
sg54
g32
sg55
I0
sg57
I0
sg58
I0
sg59
I0
sg80
(g81
g391
g32
g32
tp469
sg62
I00
sg63
g0
(g36
g2
Ntp470
Rp471
(dp472
g41
g32
sbsg64
(dp473
g47
I0
sg48
I0
sg49
I0
sg50
I0
ssg66
I00
sg67
(dp474
g47
I0
sg48
I0
sg49
I0
sg50
I0
ssg69
(dp475
g47
I0
sg48
I0
sg49
I0
sg50
I0
ssg71
I0
sg72
I0
sg73
g32
sg75
I0
sg76
I0
sg77
(dp476
g47
I0
sg48
I0
sg49
I0
sg50
I0
ssg79
I0
sg60
g61
sg85
(dp477
g97
I0
sg88
I0
sg89
I0
sg90
I0
sg91
I0
sg87
I0
sg93
I0
sg94
I0
sg95
I0
sg96
I0
sg92
I0
sg98
I0
sg99
I0
sg100
I0
sg101
I0
ssg102
(dp478
sg122
I0
sg123
g32
sg124
I0
sg125
I0
sg126
F0.0
sg127
I0
sg128
I0
sg129
I0
sg130
g459
sg131
I0
sg132
I0
sg133
I0
sg134
I0
sg135
I0
sg136
I0
sg137
I0
sg138
g32
sbssg122
I0
sg123
g32
sg124
I0
sg125
I0
sg126
F7.655172413793103
sg127
I0
sg128
I0
sg129
I0
sg130
g459
sg131
I0
sg132
I0
sg133
I0
sg134
I0
sg135
I0
sg136
I1
sg137
I0
sg138
g156
sba(ijoueur
joueur
p479
(dp480
S'EV_saison_11'
p481
F7.838709677419355
sg27
I0
sS'EV_saison_12'
p482
F9.241379310344827
sg123
g32
sg29
I0
sg30
F109.47504636850027
sg31
g32
sg33
I0
sg34
g32
sg35
g0
(g36
g2
Ntp483
Rp484
(dp485
g40
I2
sg41
S'<<'
p486
sg43
S'special'
p487
sbsg45
(dp488
S'SR'
p489
I0
sS'ST'
p490
I0
sS'CR'
p491
I0
sS'CT'
p492
I0
ssg51
(dp493
g489
I0
sg490
I0
sg491
I0
sg492
I0
ssS'xp'
p494
I0
sg77
(dp495
S'SR'
p496
I0
sS'ST'
p497
I0
sS'CR'
p498
I0
sS'CT'
p499
I0
ssg54
S'vide 13'
p500
sg55
I0
sg56
F109.47504636850027
sg57
I2
sg58
I0
sg59
I0
sg60
g61
sg62
I00
sg63
g484
sg64
(dp501
g496
I0
sg497
I0
sg498
I0
sg499
I12
ssg66
I00
sg67
(dp502
g496
I0
sg497
I0
sg498
I0
sg499
I0
ssg69
(dp503
g489
I0
sg490
I0
sg491
I0
sg492
I12
ssg71
I0
sg72
I0
sg73
S'Frash Mark'
p504
sg75
I11
sg76
I0
sg53
I20
sg79
I31
sg80
(S'dummy'
p505
S'DM'
p506
S'DO'
p507
g32
tp508
sg84
g32
sg85
(dp509
S'RP1'
p510
I7
sS'ME'
p511
I3
sS'RP2'
p512
I7
sS'E'
p513
I10
sS'TO'
p514
I4
sS'M'
p515
I13
sS'JP'
p516
I6
sS'RP_tot'
p517
I8
sS'P'
p518
I8
sS'PA'
p519
I11
sS'A'
p520
I11
sS'R'
p521
I6
sS'TB'
p522
I10
sS'PL'
p523
I8
sS'TA'
p524
I4
ssg102
(dp525
S's12'
p526
(ijoueur
joueur
p527
(dp528
g481
F7.838709677419355
sg27
I0
sg123
g32
sg29
I0
sg31
g32
sg33
I0
sg34
g32
sg35
g0
(g36
g2
Ntp529
Rp530
(dp531
g40
I2
sg41
S'<<'
p532
sg43
S'special'
p533
sbsg45
(dp534
S'SR'
p535
I0
sS'ST'
p536
I0
sS'CR'
p537
I0
sS'CT'
p538
I0
ssg51
(dp539
g535
I0
sg536
I0
sg537
I0
sg538
I0
ssg54
g32
sg126
F9.241379310344827
sg55
I0
sg57
I0
sg58
I0
sg59
I0
sg60
S'vide'
p540
sg62
I00
sg63
g530
sg64
(dp541
S'SR'
p542
I0
sS'ST'
p543
I0
sS'CR'
p544
I0
sS'CT'
p545
I0
ssg66
I01
sg67
(dp546
g542
I0
sg543
I0
sg544
I0
sg545
I0
ssg69
(dp547
g535
I0
sg536
I0
sg537
I0
sg538
I0
ssg71
I0
sg72
I0
sg73
S'Frash Mark'
p548
sg75
I11
sg76
I0
sg53
I20
sg79
I31
sg80
(S'dummy'
p549
S'DM'
p550
S'DO'
p551
g32
tp552
sg84
g32
sg85
(dp553
S'RP1'
p554
I7
sS'ME'
p555
I3
sS'RP2'
p556
I7
sS'E'
p557
I10
sS'TO'
p558
I4
sS'M'
p559
I13
sS'JP'
p560
I6
sS'RP_tot'
p561
I7
sS'P'
p562
I8
sS'PA'
p563
I11
sS'A'
p564
I11
sS'R'
p565
I6
sS'TB'
p566
I9
sS'PL'
p567
I7
sS'TA'
p568
I4
ssg102
(dp569
S's11'
p570
(ijoueur
joueur
p571
(dp572
g27
I0
sg29
I0
sg31
g32
sg33
I0
sg34
g32
sg35
g0
(g36
g2
Ntp573
Rp574
(dp575
g40
I2
sg41
S'<<'
p576
sg43
S'special'
p577
sbsg45
(dp578
S'SR'
p579
I0
sS'CT'
p580
I0
sS'CR'
p581
I0
sS'ST'
p582
I0
ssg51
(dp583
g579
I0
sg580
I0
sg581
I0
sg582
I0
ssg54
g32
sg55
I0
sg66
I00
sg57
I0
sg58
I0
sg59
I0
sg60
S'vide'
p584
sg62
I01
sg63
g0
(g36
g2
Ntp585
Rp586
(dp587
g40
I1
sg41
S'^'
p588
sg43
S'base'
p589
sbsg64
(dp590
g579
I0
sg580
I0
sg581
I0
sg582
I0
ssg77
(dp591
g579
I0
sg580
I0
sg581
I0
sg582
I0
ssg67
(dp592
g579
I0
sg580
I0
sg581
I0
sg582
I0
ssg69
(dp593
g579
I0
sg580
I0
sg581
I0
sg582
I0
ssg71
I0
sg72
I0
sg73
S'Frash Mark'
p594
sg75
I11
sg76
I0
sg53
I20
sg79
I12
sg80
(S'dummy'
p595
S'DM'
p596
S'DO'
p597
g32
tp598
sg84
g32
sg85
(dp599
S'RP1'
p600
I7
sS'ME'
p601
I2
sS'RP2'
p602
I7
sS'E'
p603
I8
sS'P'
p604
I8
sS'JP'
p605
I6
sS'M'
p606
I10
sS'RP_tot'
p607
I7
sS'TO'
p608
I3
sS'PA'
p609
I9
sS'A'
p610
I8
sS'R'
p611
I6
sS'TB'
p612
I8
sS'PL'
p613
I6
sS'TA'
p614
I3
ssg122
I0
sg28
I0
sg124
I0
sg125
I0
sg126
F7.838709677419355
sg127
I0
sg128
I0
sg129
I0
sS'caracs_saison_11'
p615
(dp616
S'RP1'
p617
I7
sS'ME'
p618
I2
sS'RP2'
p619
I7
sS'E'
p620
I8
sS'P'
p621
I8
sS'JP'
p622
I6
sS'M'
p623
I10
sS'RP_tot'
p624
I7
sS'TO'
p625
I3
sS'PA'
p626
I9
sS'A'
p627
I8
sS'R'
p628
I6
sS'TB'
p629
I8
sS'PL'
p630
I6
sS'TA'
p631
I3
ssg130
g599
sg131
I0
sg132
I0
sg133
I0
sg134
I0
sg135
I1
sg136
I0
sg137
I0
sg138
S'ARA'
p632
sbssg122
I0
sg28
I0
sg124
I0
sg125
I0
sg77
(dp633
g542
I0
sg543
I0
sg544
I0
sg545
I0
ssg127
I0
sg128
I0
sg129
I0
sg615
(dp634
g554
I7
sg555
I2
sg556
I7
sg557
I8
sg562
I8
sg560
I6
sg559
I10
sg561
I7
sg558
I3
sg563
I9
sg564
I8
sg565
I6
sg566
I8
sg567
I6
sg568
I3
ssg130
g553
sg131
I0
sg132
I0
sg133
I0
sg134
I0
sg135
I2
sg136
I0
sg137
I0
sg138
S'ARA'
p635
sbsS's11'
p636
(ijoueur
joueur
p637
(dp638
g27
I0
sg29
I0
sg31
g32
sg33
I0
sg34
g32
sg35
g0
(g36
g2
Ntp639
Rp640
(dp641
g40
I2
sg41
S'<<'
p642
sg43
S'special'
p643
sbsg45
(dp644
S'SR'
p645
I0
sS'CT'
p646
I0
sS'CR'
p647
I0
sS'ST'
p648
I0
ssg51
(dp649
g645
I0
sg646
I0
sg647
I0
sg648
I0
ssg54
g32
sg55
I0
sg66
I00
sg57
I0
sg58
I0
sg59
I0
sg60
S'vide'
p650
sg62
I01
sg63
g0
(g36
g2
Ntp651
Rp652
(dp653
g40
I1
sg41
S'^'
p654
sg43
S'base'
p655
sbsg64
(dp656
g645
I0
sg646
I0
sg647
I0
sg648
I0
ssg77
(dp657
g645
I0
sg646
I0
sg647
I0
sg648
I0
ssg67
(dp658
g645
I0
sg646
I0
sg647
I0
sg648
I0
ssg69
(dp659
g645
I0
sg646
I0
sg647
I0
sg648
I0
ssg71
I0
sg72
I0
sg73
S'Frash Mark'
p660
sg75
I11
sg76
I0
sg53
I20
sg79
I12
sg80
(S'dummy'
p661
S'DM'
p662
S'DO'
p663
g32
tp664
sg84
g32
sg85
(dp665
S'RP1'
p666
I7
sS'ME'
p667
I2
sS'RP2'
p668
I7
sS'E'
p669
I8
sS'P'
p670
I8
sS'JP'
p671
I6
sS'M'
p672
I10
sS'RP_tot'
p673
I7
sS'TO'
p674
I3
sS'PA'
p675
I9
sS'A'
p676
I8
sS'R'
p677
I6
sS'TB'
p678
I8
sS'PL'
p679
I6
sS'TA'
p680
I3
ssg122
I0
sg28
I0
sg124
I0
sg125
I0
sg126
F7.838709677419355
sg127
I0
sg128
I0
sg129
I0
sg615
(dp681
S'RP1'
p682
I7
sS'ME'
p683
I2
sS'RP2'
p684
I7
sS'E'
p685
I8
sS'P'
p686
I8
sS'JP'
p687
I6
sS'M'
p688
I10
sS'RP_tot'
p689
I7
sS'TO'
p690
I3
sS'PA'
p691
I9
sS'A'
p692
I8
sS'R'
p693
I6
sS'TB'
p694
I8
sS'PL'
p695
I6
sS'TA'
p696
I3
ssg130
g665
sg131
I0
sg132
I0
sg133
I0
sg134
I0
sg135
I1
sg136
I0
sg137
I0
sg138
S'ARA'
p697
sbssg122
I0
sg28
I0
sg124
I0
sg125
I0
sg126
F9.483870967741936
sg127
I0
sg128
I0
sg129
I0
sg615
(dp698
g510
I7
sg511
I2
sg512
I7
sg513
I8
sg518
I8
sg516
I6
sg515
I10
sg517
I7
sg514
I3
sg519
I9
sg520
I8
sg521
I6
sg522
I8
sg523
I6
sg524
I3
ssg130
g509
sg131
I0
sS'caracs_saison_12'
p699
(dp700
sg132
I0
sg133
I0
sg134
I0
sg135
I2
sg136
I2
sg137
I0
sg138
S'ARA'
p701
sbasS'AI'
p702
(lp703
(ijoueur
joueur
p704
(dp705
g27
I0
sg28
I0
sg29
I0
sg30
F98.68539495803935
sg31
g32
sg33
I0
sg34
g32
sg35
g0
(g36
g2
Ntp706
Rp707
(dp708
g40
I1
sg41
g268
sg43
g269
sbsg45
(dp709
g47
I0
sg48
I0
sg49
I2
sg50
I0
ssg51
(dp710
g47
I0
sg48
I0
sg49
I0
sg50
I0
ssg53
I25
sg54
g32
sg55
I0
sg56
F98.68539495803935
sg57
I0
sg58
I0
sg59
I0
sg60
g61
sg62
I00
sg63
g707
sg64
(dp711
g47
I0
sg48
I0
sg49
I6
sg50
I3
ssg66
I00
sg67
(dp712
g47
I0
sg48
I0
sg49
I0
sg50
I0
ssg69
(dp713
g47
I0
sg48
I0
sg49
I6
sg50
I3
ssg71
I0
sg72
I0
sg73
S'Tenel'
p714
sg75
I13
sg76
I0
sg77
(dp715
g47
I0
sg48
I0
sg49
I2
sg50
I0
ssg79
I9
sg80
(g81
g702
S'CE'
p716
g32
tp717
sg84
g32
sg85
(dp718
g87
I9
sg88
I5
sg89
I8
sg90
I9
sg91
I3
sg92
I7
sg93
I8
sg94
I10
sg95
I7
sg96
I7
sg97
I8
sg98
I7
sg99
I6
sg100
I7
sg101
I3
ssg102
(dp719
sg122
I0
sg123
g32
sg124
I0
sg125
I0
sg126
F8.064516129032258
sg127
I0
sg128
I0
sg129
I1
sg130
g718
sg131
I0
sg132
I0
sg133
I0
sg134
I0
sg135
I0
sg136
I0
sg137
I1
sg138
g156
sba(ijoueur
joueur
p720
(dp721
g27
I0
sg28
I0
sg29
I0
sg30
F17.45723350276741
sg31
g32
sg33
I0
sg34
g32
sg35
g0
(g36
g2
Ntp722
Rp723
(dp724
g40
I2
sg41
g42
sg43
g44
sbsg45
(dp725
g47
I0
sg48
I0
sg49
I1
sg50
I0
ssg51
(dp726
g47
I0
sg48
I0
sg49
I0
sg50
I0
ssg53
I13
sg54
g32
sg55
I0
sg56
F17.45723350276741
sg57
I0
sg58
I0
sg59
I0
sg60
g61
sg62
I00
sg63
g723
sg64
(dp727
g47
I0
sg48
I0
sg49
I1
sg50
I0
ssg66
I00
sg67
(dp728
g47
I0
sg48
I0
sg49
I0
sg50
I0
ssg69
(dp729
g47
I0
sg48
I0
sg49
I1
sg50
I0
ssg71
I0
sg72
I0
sg73
S'Tardil'
p730
sg75
I3
sg76
I0
sg77
(dp731
g47
I0
sg48
I0
sg49
I1
sg50
I0
ssg79
I26
sg80
(g81
g702
S'CE'
p732
g32
tp733
sg84
g32
sg85
(dp734
g87
I8
sg88
I5
sg89
I6
sg90
I10
sg91
I5
sg92
I8
sg93
I7
sg94
I8
sg95
I8
sg96
I6
sg97
I7
sg98
I7
sg99
I6
sg100
I7
sg101
I4
ssg102
(dp735
S's12'
p736
(ijoueur
joueur
p737
(dp738
g27
I0
sg28
I0
sg29
I0
sg33
I0
sg35
g0
(g36
g2
Ntp739
Rp740
(dp741
g41
g32
sbsg45
(dp742
g47
I0
sg48
I0
sg49
I0
sg50
I0
ssg51
(dp743
g47
I0
sg48
I0
sg49
I0
sg50
I0
ssg53
I0
sg54
g32
sg55
I0
sg57
I0
sg58
I0
sg59
I0
sg80
(g81
g702
g32
g32
tp744
sg62
I00
sg63
g0
(g36
g2
Ntp745
Rp746
(dp747
g41
g32
sbsg64
(dp748
g47
I0
sg48
I0
sg49
I0
sg50
I0
ssg66
I00
sg67
(dp749
g47
I0
sg48
I0
sg49
I0
sg50
I0
ssg69
(dp750
g47
I0
sg48
I0
sg49
I0
sg50
I0
ssg71
I0
sg72
I0
sg73
g32
sg75
I0
sg76
I0
sg77
(dp751
g47
I0
sg48
I0
sg49
I0
sg50
I0
ssg79
I0
sg60
g61
sg85
(dp752
g97
I0
sg88
I0
sg89
I0
sg90
I0
sg91
I0
sg87
I0
sg93
I0
sg94
I0
sg95
I0
sg96
I0
sg92
I0
sg98
I0
sg99
I0
sg100
I0
sg101
I0
ssg102
(dp753
sg122
I0
sg123
g32
sg124
I0
sg125
I0
sg126
F0.0
sg127
I0
sg128
I0
sg129
I0
sg130
g734
sg131
I0
sg132
I0
sg133
I0
sg134
I0
sg135
I0
sg136
I0
sg137
I0
sg138
g32
sbsS's11'
p754
(ijoueur
joueur
p755
(dp756
g27
I0
sg28
I0
sg29
I0
sg33
I0
sg35
g0
(g36
g2
Ntp757
Rp758
(dp759
g41
g32
sbsg45
(dp760
g47
I0
sg48
I0
sg49
I0
sg50
I0
ssg51
(dp761
g47
I0
sg48
I0
sg49
I0
sg50
I0
ssg53
I0
sg54
g32
sg55
I0
sg57
I0
sg58
I0
sg59
I0
sg80
g744
sg62
I00
sg63
g0
(g36
g2
Ntp762
Rp763
(dp764
g41
g32
sbsg64
(dp765
g47
I0
sg48
I0
sg49
I0
sg50
I0
ssg66
I00
sg67
(dp766
g47
I0
sg48
I0
sg49
I0
sg50
I0
ssg69
(dp767
g47
I0
sg48
I0
sg49
I0
sg50
I0
ssg71
I0
sg72
I0
sg73
g32
sg75
I0
sg76
I0
sg77
(dp768
g47
I0
sg48
I0
sg49
I0
sg50
I0
ssg79
I0
sg60
g61
sg85
(dp769
g97
I0
sg88
I0
sg89
I0
sg90
I0
sg91
I0
sg87
I0
sg93
I0
sg94
I0
sg95
I0
sg96
I0
sg92
I0
sg98
I0
sg99
I0
sg100
I0
sg101
I0
ssg102
(dp770
sg122
I0
sg123
g32
sg124
I0
sg125
I0
sg126
F0.0
sg127
I0
sg128
I0
sg129
I0
sg130
g734
sg131
I0
sg132
I0
sg133
I0
sg134
I0
sg135
I0
sg136
I0
sg137
I0
sg138
g32
sbssg122
I0
sg123
g32
sg124
I0
sg125
I0
sg126
F7.67741935483871
sg127
I0
sg128
I0
sg129
I0
sg130
g734
sg131
I0
sg132
I0
sg133
I0
sg134
I0
sg135
I2
sg136
I0
sg137
I0
sg138
g156
sba(ijoueur
joueur
p771
(dp772
g27
I1
sg28
I0
sg29
I0
sg30
F109.67059290545366
sg31
g32
sg33
I0
sg34
g32
sg35
g0
(g36
g2
Ntp773
Rp774
(dp775
g40
I4
sg41
g344
sg43
g345
sbsg45
(dp776
g47
I0
sg48
I0
sg49
I0
sg50
I0
ssg51
(dp777
g47
I0
sg48
I0
sg49
I0
sg50
I0
ssg53
I14
sg54
g32
sg55
I0
sg56
F109.67059290545366
sg57
I3
sg58
I0
sg59
I0
sg60
g61
sg62
I00
sg63
g774
sg64
(dp778
g47
I0
sg48
I0
sg49
I0
sg50
I12
ssg66
I00
sg67
(dp779
g47
I0
sg48
I0
sg49
I0
sg50
I0
ssg69
(dp780
g47
I0
sg48
I0
sg49
I0
sg50
I12
ssg71
I0
sg72
I0
sg73
S'Yolae'
p781
sg75
I4
sg76
I0
sg77
(dp782
g47
I0
sg48
I0
sg49
I0
sg50
I0
ssg79
I150
sg80
(g81
g702
g32
g32
tp783
sg84
g32
sg85
(dp784
g87
I9
sg88
I4
sg89
I11
sg90
I8
sg91
I6
sg92
I10
sg93
I7
sg94
I12
sg95
I10
sg96
I10
sg97
I11
sg98
I8
sg99
I7
sg100
I9
sg101
I4
ssg102
(dp785
S's12'
p786
(ijoueur
joueur
p787
(dp788
g27
I0
sg28
I0
sg29
I0
sg33
I0
sg35
g0
(g36
g2
Ntp789
Rp790
(dp791
g41
g32
sbsg45
(dp792
g47
I0
sg48
I0
sg49
I0
sg50
I0
ssg51
(dp793
g47
I0
sg48
I0
sg49
I0
sg50
I0
ssg53
I0
sg54
g32
sg55
I0
sg57
I0
sg58
I0
sg59
I0
sg80
(g81
g702
g32
g32
tp794
sg62
I00
sg63
g0
(g36
g2
Ntp795
Rp796
(dp797
g41
g32
sbsg64
(dp798
g47
I0
sg48
I0
sg49
I0
sg50
I0
ssg66
I00
sg67
(dp799
g47
I0
sg48
I0
sg49
I0
sg50
I0
ssg69
(dp800
g47
I0
sg48
I0
sg49
I0
sg50
I0
ssg71
I0
sg72
I0
sg73
g32
sg75
I0
sg76
I0
sg77
(dp801
g47
I0
sg48
I0
sg49
I0
sg50
I0
ssg79
I0
sg60
g61
sg85
(dp802
g97
I0
sg88
I0
sg89
I0
sg90
I0
sg91
I0
sg87
I0
sg93
I0
sg94
I0
sg95
I0
sg96
I0
sg92
I0
sg98
I0
sg99
I0
sg100
I0
sg101
I0
ssg102
(dp803
sg122
I0
sg123
g32
sg124
I0
sg125
I0
sg126
F0.0
sg127
I0
sg128
I0
sg129
I0
sg130
g784
sg131
I0
sg132
I0
sg133
I0
sg134
I0
sg135
I0
sg136
I0
sg137
I0
sg138
g32
sbsS's11'
p804
(ijoueur
joueur
p805
(dp806
g27
I0
sg28
I0
sg29
I0
sg33
I0
sg35
g0
(g36
g2
Ntp807
Rp808
(dp809
g41
g32
sbsg45
(dp810
g47
I0
sg48
I0
sg49
I0
sg50
I0
ssg51
(dp811
g47
I0
sg48
I0
sg49
I0
sg50
I0
ssg53
I0
sg54
g32
sg55
I0
sg57
I0
sg58
I0
sg59
I0
sg80
g794
sg62
I00
sg63
g0
(g36
g2
Ntp812
Rp813
(dp814
g41
g32
sbsg64
(dp815
g47
I0
sg48
I0
sg49
I0
sg50
I0
ssg66
I00
sg67
(dp816
g47
I0
sg48
I0
sg49
I0
sg50
I0
ssg69
(dp817
g47
I0
sg48
I0
sg49
I0
sg50
I0
ssg71
I0
sg72
I0
sg73
g32
sg75
I0
sg76
I0
sg77
(dp818
g47
I0
sg48
I0
sg49
I0
sg50
I0
ssg79
I0
sg60
g61
sg85
(dp819
g97
I0
sg88
I0
sg89
I0
sg90
I0
sg91
I0
sg87
I0
sg93
I0
sg94
I0
sg95
I0
sg96
I0
sg92
I0
sg98
I0
sg99
I0
sg100
I0
sg101
I0
ssg102
(dp820
sg122
I0
sg123
g32
sg124
I0
sg125
I0
sg126
F0.0
sg127
I0
sg128
I0
sg129
I0
sg130
g784
sg131
I0
sg132
I0
sg133
I0
sg134
I0
sg135
I0
sg136
I0
sg137
I0
sg138
g32
sbssg122
I0
sg123
g32
sg124
I1
sg125
I0
sg126
F10.03225806451613
sg127
I0
sg128
I1
sg129
I0
sg130
g784
sg131
I1
sg132
I0
sg133
I0
sg134
I0
sg135
I15
sg136
I3
sg137
I0
sg138
g156
sbasS'CE'
p821
(lp822
(ijoueur
joueur
p823
(dp824
g27
I0
sg28
I0
sg29
I0
sg30
F44.696507155203136
sg31
g32
sg33
I0
sg34
g32
sg35
g0
(g36
g2
Ntp825
Rp826
(dp827
g40
I1
sg41
g329
sg43
g269
sbsg45
(dp828
g47
I0
sg48
I0
sg49
I1
sg50
I0
ssg51
(dp829
g47
I0
sg48
I0
sg49
I0
sg50
I0
ssg53
I17
sg54
g32
sg55
I0
sg56
F44.696507155203136
sg57
I0
sg58
I0
sg59
I0
sg60
g61
sg62
I00
sg63
g826
sg64
(dp830
g47
I0
sg48
I0
sg49
I2
sg50
I2
ssg66
I00
sg67
(dp831
g47
I0
sg48
I0
sg49
I0
sg50
I0
ssg69
(dp832
g47
I0
sg48
I0
sg49
I2
sg50
I2
ssg71
I0
sg72
I0
sg73
S'Lomda'
p833
sg75
I4
sg76
I0
sg77
(dp834
g47
I0
sg48
I0
sg49
I1
sg50
I0
ssg79
I6
sg80
(g81
S'C2'
p835
S'AI'
p836
g32
tp837
sg84
g32
sg85
(dp838
g87
I8
sg88
I5
sg89
I7
sg90
I9
sg91
I4
sg92
I9
sg93
I7
sg94
I9
sg95
I7
sg96
I8
sg97
I7
sg98
I7
sg99
I7
sg100
I7
sg101
I3
ssg102
(dp839
S's12'
p840
(ijoueur
joueur
p841
(dp842
g27
I0
sg28
I0
sg29
I0
sg33
I0
sg35
g0
(g36
g2
Ntp843
Rp844
(dp845
g41
g32
sbsg45
(dp846
g47
I0
sg48
I0
sg49
I0
sg50
I0
ssg51
(dp847
g47
I0
sg48
I0
sg49
I0
sg50
I0
ssg53
I0
sg54
g32
sg55
I0
sg57
I0
sg58
I0
sg59
I0
sg80
(g81
g821
g32
g32
tp848
sg62
I00
sg63
g0
(g36
g2
Ntp849
Rp850
(dp851
g41
g32
sbsg64
(dp852
g47
I0
sg48
I0
sg49
I0
sg50
I0
ssg66
I00
sg67
(dp853
g47
I0
sg48
I0
sg49
I0
sg50
I0
ssg69
(dp854
g47
I0
sg48
I0
sg49
I0
sg50
I0
ssg71
I0
sg72
I0
sg73
g32
sg75
I0
sg76
I0
sg77
(dp855
g47
I0
sg48
I0
sg49
I0
sg50
I0
ssg79
I0
sg60
g61
sg85
(dp856
g97
I0
sg88
I0
sg89
I0
sg90
I0
sg91
I0
sg87
I0
sg93
I0
sg94
I0
sg95
I0
sg96
I0
sg92
I0
sg98
I0
sg99
I0
sg100
I0
sg101
I0
ssg102
(dp857
sg122
I0
sg123
g32
sg124
I0
sg125
I0
sg126
F0.0
sg127
I0
sg128
I0
sg129
I0
sg130
g838
sg131
I0
sg132
I0
sg133
I0
sg134
I0
sg135
I0
sg136
I0
sg137
I0
sg138
g32
sbsS's11'
p858
(ijoueur
joueur
p859
(dp860
g27
I0
sg28
I0
sg29
I0
sg33
I0
sg35
g0
(g36
g2
Ntp861
Rp862
(dp863
g41
g32
sbsg45
(dp864
g47
I0
sg48
I0
sg49
I0
sg50
I0
ssg51
(dp865
g47
I0
sg48
I0
sg49
I0
sg50
I0
ssg53
I0
sg54
g32
sg55
I0
sg57
I0
sg58
I0
sg59
I0
sg80
g848
sg62
I00
sg63
g0
(g36
g2
Ntp866
Rp867
(dp868
g41
g32
sbsg64
(dp869
g47
I0
sg48
I0
sg49
I0
sg50
I0
ssg66
I00
sg67
(dp870
g47
I0
sg48
I0
sg49
I0
sg50
I0
ssg69
(dp871
g47
I0
sg48
I0
sg49
I0
sg50
I0
ssg71
I0
sg72
I0
sg73
g32
sg75
I0
sg76
I0
sg77
(dp872
g47
I0
sg48
I0
sg49
I0
sg50
I0
ssg79
I0
sg60
g61
sg85
(dp873
g97
I0
sg88
I0
sg89
I0
sg90
I0
sg91
I0
sg87
I0
sg93
I0
sg94
I0
sg95
I0
sg96
I0
sg92
I0
sg98
I0
sg99
I0
sg100
I0
sg101
I0
ssg102
(dp874
sg122
I0
sg123
g32
sg124
I0
sg125
I0
sg126
F0.0
sg127
I0
sg128
I0
sg129
I0
sg130
g838
sg131
I0
sg132
I0
sg133
I0
sg134
I0
sg135
I0
sg136
I0
sg137
I0
sg138
g32
sbssg122
I0
sg123
g32
sg124
I0
sg125
I0
sg126
F7.9655172413793105
sg127
I0
sg128
I0
sg129
I0
sg130
g838
sg131
I0
sg132
I0
sg133
I0
sg134
I0
sg135
I0
sg136
I0
sg137
I0
sg138
g156
sba(ijoueur
joueur
p875
(dp876
g27
I0
sg28
I0
sg29
I0
sg30
F117.98028224756155
sg31
g32
sg33
I0
sg34
g32
sg35
g0
(g36
g2
Ntp877
Rp878
(dp879
g40
I1
sg41
g268
sg43
g269
sbsg45
(dp880
g47
I0
sg48
I0
sg49
I0
sg50
I0
ssg51
(dp881
g47
I0
sg48
I0
sg49
I0
sg50
I0
ssg53
I21
sg54
g32
sg55
I0
sg56
F117.98028224756155
sg57
I0
sg58
I0
sg59
I0
sg60
g61
sg62
I00
sg63
g878
sg64
(dp882
g47
I0
sg48
I0
sg49
I5
sg50
I8
ssg66
I00
sg67
(dp883
g47
I0
sg48
I0
sg49
I0
sg50
I0
ssg69
(dp884
g47
I0
sg48
I0
sg49
I5
sg50
I8
ssg71
I0
sg72
I0
sg73
S'Klestel'
p885
sg75
I12
sg76
I0
sg77
(dp886
g47
I0
sg48
I0
sg49
I0
sg50
I0
ssg79
I15
sg80
(g81
S'C1'
p887
g32
g32
tp888
sg84
g32
sg85
(dp889
g87
I8
sg88
I5
sg89
I8
sg90
I8
sg91
I4
sg92
I8
sg93
I7
sg94
I10
sg95
I8
sg96
I9
sg97
I9
sg98
I7
sg99
I5
sg100
I8
sg101
I3
ssg102
(dp890
S's12'
p891
(ijoueur
joueur
p892
(dp893
g27
I0
sg28
I0
sg29
I0
sg33
I0
sg35
g0
(g36
g2
Ntp894
Rp895
(dp896
g41
g32
sbsg45
(dp897
g47
I0
sg48
I0
sg49
I0
sg50
I0
ssg51
(dp898
g47
I0
sg48
I0
sg49
I0
sg50
I0
ssg53
I0
sg54
g32
sg55
I0
sg57
I0
sg58
I0
sg59
I0
sg80
(g81
g821
g32
g32
tp899
sg62
I00
sg63
g0
(g36
g2
Ntp900
Rp901
(dp902
g41
g32
sbsg64
(dp903
g47
I0
sg48
I0
sg49
I0
sg50
I0
ssg66
I00
sg67
(dp904
g47
I0
sg48
I0
sg49
I0
sg50
I0
ssg69
(dp905
g47
I0
sg48
I0
sg49
I0
sg50
I0
ssg71
I0
sg72
I0
sg73
g32
sg75
I0
sg76
I0
sg77
(dp906
g47
I0
sg48
I0
sg49
I0
sg50
I0
ssg79
I0
sg60
g61
sg85
(dp907
g97
I0
sg88
I0
sg89
I0
sg90
I0
sg91
I0
sg87
I0
sg93
I0
sg94
I0
sg95
I0
sg96
I0
sg92
I0
sg98
I0
sg99
I0
sg100
I0
sg101
I0
ssg102
(dp908
sg122
I0
sg123
g32
sg124
I0
sg125
I0
sg126
F0.0
sg127
I0
sg128
I0
sg129
I0
sg130
g889
sg131
I0
sg132
I0
sg133
I0
sg134
I0
sg135
I0
sg136
I0
sg137
I0
sg138
g32
sbssg122
I0
sg123
g32
sg124
I0
sg125
I0
sg126
F8.4
sg127
I0
sg128
I0
sg129
I0
sg130
g889
sg131
I0
sg132
I0
sg133
I0
sg134
I0
sg135
I1
sg136
I0
sg137
I0
sg138
g156
sba(ijoueur
joueur
p909
(dp910
g27
I0
sg28
I0
sg29
I0
sg30
F118.04798965159273
sg31
g32
sg33
I0
sg34
g32
sg35
g0
(g36
g2
Ntp911
Rp912
(dp913
g40
I1
sg41
g268
sg43
g269
sbsg45
(dp914
g47
I0
sg48
I0
sg49
I0
sg50
I0
ssg51
(dp915
g47
I0
sg48
I0
sg49
I0
sg50
I0
ssg53
I14
sg54
g32
sg55
I0
sg56
F118.04798965159273
sg57
I0
sg58
I0
sg59
I0
sg60
g61
sg62
I00
sg63
g912
sg64
(dp916
g47
I0
sg48
I0
sg49
I4
sg50
I9
ssg66
I00
sg67
(dp917
g47
I0
sg48
I0
sg49
I0
sg50
I0
ssg69
(dp918
g47
I0
sg48
I0
sg49
I4
sg50
I9
ssg71
I0
sg72
I0
sg73
S'Xamitiel'
p919
sg75
I5
sg76
I0
sg77
(dp920
g47
I0
sg48
I0
sg49
I0
sg50
I0
ssg79
I8
sg80
(g81
S'C2'
p921
g32
g32
tp922
sg84
g32
sg85
(dp923
g87
I7
sg88
I5
sg89
I7
sg90
I8
sg91
I3
sg92
I10
sg93
I6
sg94
I8
sg95
I8
sg96
I8
sg97
I10
sg98
I8
sg99
I7
sg100
I9
sg101
I3
ssg102
(dp924
S's12'
p925
(ijoueur
joueur
p926
(dp927
g27
I0
sg28
I0
sg29
I0
sg33
I0
sg35
g0
(g36
g2
Ntp928
Rp929
(dp930
g41
g32
sbsg45
(dp931
g47
I0
sg48
I0
sg49
I0
sg50
I0
ssg51
(dp932
g47
I0
sg48
I0
sg49
I0
sg50
I0
ssg53
I0
sg54
g32
sg55
I0
sg57
I0
sg58
I0
sg59
I0
sg80
(g81
g821
g32
g32
tp933
sg62
I00
sg63
g0
(g36
g2
Ntp934
Rp935
(dp936
g41
g32
sbsg64
(dp937
g47
I0
sg48
I0
sg49
I0
sg50
I0
ssg66
I00
sg67
(dp938
g47
I0
sg48
I0
sg49
I0
sg50
I0
ssg69
(dp939
g47
I0
sg48
I0
sg49
I0
sg50
I0
ssg71
I0
sg72
I0
sg73
g32
sg75
I0
sg76
I0
sg77
(dp940
g47
I0
sg48
I0
sg49
I0
sg50
I0
ssg79
I0
sg60
g61
sg85
(dp941
g97
I0
sg88
I0
sg89
I0
sg90
I0
sg91
I0
sg87
I0
sg93
I0
sg94
I0
sg95
I0
sg96
I0
sg92
I0
sg98
I0
sg99
I0
sg100
I0
sg101
I0
ssg102
(dp942
sg122
I0
sg123
g32
sg124
I0
sg125
I0
sg126
F0.0
sg127
I0
sg128
I0
sg129
I0
sg130
g923
sg131
I0
sg132
I0
sg133
I0
sg134
I0
sg135
I0
sg136
I0
sg137
I0
sg138
g32
sbsS's11'
p943
(ijoueur
joueur
p944
(dp945
g27
I0
sg28
I0
sg29
I0
sg33
I0
sg35
g0
(g36
g2
Ntp946
Rp947
(dp948
g41
g32
sbsg45
(dp949
g47
I0
sg48
I0
sg49
I0
sg50
I0
ssg51
(dp950
g47
I0
sg48
I0
sg49
I0
sg50
I0
ssg53
I0
sg54
g32
sg55
I0
sg57
I0
sg58
I0
sg59
I0
sg80
g933
sg62
I00
sg63
g0
(g36
g2
Ntp951
Rp952
(dp953
g41
g32
sbsg64
(dp954
g47
I0
sg48
I0
sg49
I0
sg50
I0
ssg66
I00
sg67
(dp955
g47
I0
sg48
I0
sg49
I0
sg50
I0
ssg69
(dp956
g47
I0
sg48
I0
sg49
I0
sg50
I0
ssg71
I0
sg72
I0
sg73
g32
sg75
I0
sg76
I0
sg77
(dp957
g47
I0
sg48
I0
sg49
I0
sg50
I0
ssg79
I0
sg60
g61
sg85
(dp958
g97
I0
sg88
I0
sg89
I0
sg90
I0
sg91
I0
sg87
I0
sg93
I0
sg94
I0
sg95
I0
sg96
I0
sg92
I0
sg98
I0
sg99
I0
sg100
I0
sg101
I0
ssg102
(dp959
sg122
I0
sg123
g32
sg124
I0
sg125
I0
sg126
F0.0
sg127
I0
sg128
I0
sg129
I0
sg130
g923
sg131
I0
sg132
I0
sg133
I0
sg134
I0
sg135
I0
sg136
I0
sg137
I0
sg138
g32
sbssg122
I0
sg123
g32
sg124
I0
sg125
I0
sg126
F8.586206896551724
sg127
I0
sg128
I0
sg129
I0
sg130
g923
sg131
I0
sg132
I0
sg133
I0
sg134
I0
sg135
I0
sg136
I0
sg137
I0
sg138
g156
sba(ijoueur
joueur
p960
(dp961
g27
I0
sg28
I0
sg29
I0
sg30
F110.05479953174317
sg31
g32
sg33
I0
sg34
g32
sg35
g0
(g36
g2
Ntp962
Rp963
(dp964
g40
I4
sg41
S'*'
p965
sg43
g345
sbsg45
(dp966
g47
I0
sg48
I0
sg49
I0
sg50
I2
ssg51
(dp967
g47
I0
sg48
I0
sg49
I0
sg50
I0
ssg53
I18
sg54
g32
sg55
I0
sg56
F110.05479953174317
sg57
I0
sg58
I0
sg59
I0
sg60
g61
sg62
I00
sg63
g963
sg64
(dp968
g47
I0
sg48
I0
sg49
I0
sg50
I10
ssg66
I00
sg67
(dp969
g47
I0
sg48
I0
sg49
I0
sg50
I0
ssg69
(dp970
g47
I0
sg48
I0
sg49
I0
sg50
I10
ssg71
I0
sg72
I0
sg73
S'Terel'
p971
sg75
I7
sg76
I0
sg77
(dp972
g47
I0
sg48
I0
sg49
I0
sg50
I2
ssg79
I75
sg80
(g81
S'C1'
p973
S'DO'
p974
g32
tp975
sg84
g32
sg85
(dp976
g87
I8
sg88
I6
sg89
I9
sg90
I9
sg91
I5
sg92
I8
sg93
I8
sg94
I10
sg95
I10
sg96
I9
sg97
I10
sg98
I9
sg99
I8
sg100
I9
sg101
I7
ssg102
(dp977
S's12'
p978
(ijoueur
joueur
p979
(dp980
g27
I0
sg28
I0
sg29
I0
sg33
I0
sg35
g0
(g36
g2
Ntp981
Rp982
(dp983
g41
g32
sbsg45
(dp984
g47
I0
sg48
I0
sg49
I0
sg50
I0
ssg51
(dp985
g47
I0
sg48
I0
sg49
I0
sg50
I0
ssg53
I0
sg54
g32
sg55
I0
sg57
I0
sg58
I0
sg59
I0
sg80
(g81
g821
g32
g32
tp986
sg62
I00
sg63
g0
(g36
g2
Ntp987
Rp988
(dp989
g41
g32
sbsg64
(dp990
g47
I0
sg48
I0
sg49
I0
sg50
I0
ssg66
I00
sg67
(dp991
g47
I0
sg48
I0
sg49
I0
sg50
I0
ssg69
(dp992
g47
I0
sg48
I0
sg49
I0
sg50
I0
ssg71
I0
sg72
I0
sg73
g32
sg75
I0
sg76
I0
sg77
(dp993
g47
I0
sg48
I0
sg49
I0
sg50
I0
ssg79
I0
sg60
g61
sg85
(dp994
g97
I0
sg88
I0
sg89
I0
sg90
I0
sg91
I0
sg87
I0
sg93
I0
sg94
I0
sg95
I0
sg96
I0
sg92
I0
sg98
I0
sg99
I0
sg100
I0
sg101
I0
ssg102
(dp995
sg122
I0
sg123
g32
sg124
I0
sg125
I0
sg126
F0.0
sg127
I0
sg128
I0
sg129
I0
sg130
g976
sg131
I0
sg132
I0
sg133
I0
sg134
I0
sg135
I0
sg136
I0
sg137
I0
sg138
g32
sbsS's11'
p996
(ijoueur
joueur
p997
(dp998
g27
I0
sg28
I0
sg29
I0
sg33
I0
sg35
g0
(g36
g2
Ntp999
Rp1000
(dp1001
g41
g32
sbsg45
(dp1002
g47
I0
sg48
I0
sg49
I0
sg50
I0
ssg51
(dp1003
g47
I0
sg48
I0
sg49
I0
sg50
I0
ssg53
I0
sg54
g32
sg55
I0
sg57
I0
sg58
I0
sg59
I0
sg80
g986
sg62
I00
sg63
g0
(g36
g2
Ntp1004
Rp1005
(dp1006
g41
g32
sbsg64
(dp1007
g47
I0
sg48
I0
sg49
I0
sg50
I0
ssg66
I00
sg67
(dp1008
g47
I0
sg48
I0
sg49
I0
sg50
I0
ssg69
(dp1009
g47
I0
sg48
I0
sg49
I0
sg50
I0
ssg71
I0
sg72
I0
sg73
g32
sg75
I0
sg76
I0
sg77
(dp1010
g47
I0
sg48
I0
sg49
I0
sg50
I0
ssg79
I0
sg60
g61
sg85
(dp1011
g97
I0
sg88
I0
sg89
I0
sg90
I0
sg91
I0
sg87
I0
sg93
I0
sg94
I0
sg95
I0
sg96
I0
sg92
I0
sg98
I0
sg99
I0
sg100
I0
sg101
I0
ssg102
(dp1012
sg122
I0
sg123
g32
sg124
I0
sg125
I0
sg126
F0.0
sg127
I0
sg128
I0
sg129
I0
sg130
g976
sg131
I0
sg132
I0
sg133
I0
sg134
I0
sg135
I0
sg136
I0
sg137
I0
sg138
g32
sbssg122
I0
sg123
g32
sg124
I0
sg125
I0
sg126
F9.166666666666666
sg127
I0
sg128
I0
sg129
I0
sg130
g976
sg131
I0
sg132
I0
sg133
I0
sg134
I0
sg135
I7
sg136
I0
sg137
I0
sg138
g156
sba(ijoueur
joueur
p1013
(dp1014
g27
I0
sg28
I0
sg29
I0
sg30
F118.03537871899161
sg31
g32
sg33
I0
sg34
g32
sg35
g0
(g36
g2
Ntp1015
Rp1016
(dp1017
g40
I3
sg41
g322
sg43
g323
sbsg45
(dp1018
g47
I0
sg48
I0
sg49
I5
sg50
I6
ssg51
(dp1019
g47
I0
sg48
I0
sg49
I0
sg50
I0
ssg53
I21
sg54
g32
sg55
I0
sg56
F118.03537871899161
sg57
I1
sg58
I0
sg59
I0
sg60
g61
sg62
I00
sg63
g0
(g36
g2
Ntp1020
Rp1021
(dp1022
g40
I1
sg41
g329
sg43
g269
sbsg64
(dp1023
g47
I0
sg48
I0
sg49
I1
sg50
I1
ssg66
I00
sg67
(dp1024
g47
I0
sg48
I0
sg49
I0
sg50
I0
ssg69
(dp1025
g47
I0
sg48
I0
sg49
I1
sg50
I1
ssg71
I0
sg72
I0
sg73
S'Dleo'
p1026
sg75
I12
sg76
I0
sg77
(dp1027
g47
I0
sg48
I0
sg49
I5
sg50
I6
ssg79
I12
sg80
(g81
S'C2'
p1028
S'AI'
p1029
g32
tp1030
sg84
g32
sg85
(dp1031
g87
I8
sg88
I3
sg89
I8
sg90
I9
sg91
I4
sg92
I8
sg93
I7
sg94
I10
sg95
I6
sg96
I8
sg97
I8
sg98
I8
sg99
I6
sg100
I8
sg101
I3
ssg102
(dp1032
S's12'
p1033
(ijoueur
joueur
p1034
(dp1035
g27
I0
sg28
I0
sg29
I0
sg33
I0
sg35
g0
(g36
g2
Ntp1036
Rp1037
(dp1038
g41
g32
sbsg45
(dp1039
g47
I0
sg48
I0
sg49
I0
sg50
I0
ssg51
(dp1040
g47
I0
sg48
I0
sg49
I0
sg50
I0
ssg53
I0
sg54
g32
sg55
I0
sg57
I0
sg58
I0
sg59
I0
sg80
(g81
g821
g32
g32
tp1041
sg62
I00
sg63
g0
(g36
g2
Ntp1042
Rp1043
(dp1044
g41
g32
sbsg64
(dp1045
g47
I0
sg48
I0
sg49
I0
sg50
I0
ssg66
I00
sg67
(dp1046
g47
I0
sg48
I0
sg49
I0
sg50
I0
ssg69
(dp1047
g47
I0
sg48
I0
sg49
I0
sg50
I0
ssg71
I0
sg72
I0
sg73
g32
sg75
I0
sg76
I0
sg77
(dp1048
g47
I0
sg48
I0
sg49
I0
sg50
I0
ssg79
I0
sg60
g61
sg85
(dp1049
g97
I0
sg88
I0
sg89
I0
sg90
I0
sg91
I0
sg87
I0
sg93
I0
sg94
I0
sg95
I0
sg96
I0
sg92
I0
sg98
I0
sg99
I0
sg100
I0
sg101
I0
ssg102
(dp1050
sg122
I0
sg123
g32
sg124
I0
sg125
I0
sg126
F0.0
sg127
I0
sg128
I0
sg129
I0
sg130
g1031
sg131
I0
sg132
I0
sg133
I0
sg134
I0
sg135
I0
sg136
I0
sg137
I0
sg138
g32
sbssg122
I0
sg123
g32
sg124
I0
sg125
I0
sg126
F8.379310344827585
sg127
I0
sg128
I0
sg129
I1
sg130
g1031
sg131
I0
sg132
I0
sg133
I0
sg134
I0
sg135
I1
sg136
I1
sg137
I1
sg138
g156
sbasS'N8'
p1051
(lp1052
(ijoueur
joueur
p1053
(dp1054
g27
I0
sg28
I0
sg29
I0
sg30
F108.35159044686868
sg31
g32
sg33
I0
sg34
g32
sg35
g0
(g36
g2
Ntp1055
Rp1056
(dp1057
g40
I1
sg41
g268
sg43
g269
sbsg45
(dp1058
g47
I0
sg48
I0
sg49
I1
sg50
I10
ssg51
(dp1059
g47
I0
sg48
I0
sg49
I0
sg50
I0
ssg53
I17
sg54
g32
sg55
I0
sg56
F108.35159044686868
sg57
I0
sg58
I0
sg59
I0
sg60
g61
sg62
I00
sg63
g1056
sg64
(dp1060
g47
I0
sg48
I0
sg49
I1
sg50
I0
ssg66
I00
sg67
(dp1061
g47
I0
sg48
I0
sg49
I0
sg50
I0
ssg69
(dp1062
g47
I0
sg48
I0
sg49
I1
sg50
I0
ssg71
I0
sg72
I0
sg73
S'Geol'
p1063
sg75
I4
sg76
I0
sg77
(dp1064
g47
I0
sg48
I0
sg49
I1
sg50
I10
ssg79
I14
sg80
(g81
g1051
S'TL'
p1065
g32
tp1066
sg84
g32
sg85
(dp1067
g87
I9
sg88
I7
sg89
I6
sg90
I9
sg91
I8
sg92
I8
sg93
I3
sg94
I9
sg95
I5
sg96
I9
sg97
I9
sg98
I8
sg99
I3
sg100
I9
sg101
I2
ssg102
(dp1068
S's12'
p1069
(ijoueur
joueur
p1070
(dp1071
g27
I0
sg28
I0
sg29
I0
sg33
I0
sg35
g0
(g36
g2
Ntp1072
Rp1073
(dp1074
g41
g32
sbsg45
(dp1075
g47
I0
sg48
I0
sg49
I0
sg50
I0
ssg51
(dp1076
g47
I0
sg48
I0
sg49
I0
sg50
I0
ssg53
I0
sg54
g32
sg55
I0
sg57
I0
sg58
I0
sg59
I0
sg80
(g81
g1051
g32
g32
tp1077
sg62
I00
sg63
g0
(g36
g2
Ntp1078
Rp1079
(dp1080
g41
g32
sbsg64
(dp1081
g47
I0
sg48
I0
sg49
I0
sg50
I0
ssg66
I00
sg67
(dp1082
g47
I0
sg48
I0
sg49
I0
sg50
I0
ssg69
(dp1083
g47
I0
sg48
I0
sg49
I0
sg50
I0
ssg71
I0
sg72
I0
sg73
g32
sg75
I0
sg76
I0
sg77
(dp1084
g47
I0
sg48
I0
sg49
I0
sg50
I0
ssg79
I0
sg60
g61
sg85
(dp1085
g97
I0
sg88
I0
sg89
I0
sg90
I0
sg91
I0
sg87
I0
sg93
I0
sg94
I0
sg95
I0
sg96
I0
sg92
I0
sg98
I0
sg99
I0
sg100
I0
sg101
I0
ssg102
(dp1086
sg122
I0
sg123
g32
sg124
I0
sg125
I0
sg126
F0.0
sg127
I0
sg128
I0
sg129
I0
sg130
g1067
sg131
I0
sg132
I0
sg133
I0
sg134
I0
sg135
I0
sg136
I0
sg137
I0
sg138
g32
sbsS's11'
p1087
(ijoueur
joueur
p1088
(dp1089
g27
I0
sg28
I0
sg29
I0
sg33
I0
sg35
g0
(g36
g2
Ntp1090
Rp1091
(dp1092
g41
g32
sbsg45
(dp1093
g47
I0
sg48
I0
sg49
I0
sg50
I0
ssg51
(dp1094
g47
I0
sg48
I0
sg49
I0
sg50
I0
ssg53
I0
sg54
g32
sg55
I0
sg57
I0
sg58
I0
sg59
I0
sg80
g1077
sg62
I00
sg63
g0
(g36
g2
Ntp1095
Rp1096
(dp1097
g41
g32
sbsg64
(dp1098
g47
I0
sg48
I0
sg49
I0
sg50
I0
ssg66
I00
sg67
(dp1099
g47
I0
sg48
I0
sg49
I0
sg50
I0
ssg69
(dp1100
g47
I0
sg48
I0
sg49
I0
sg50
I0
ssg71
I0
sg72
I0
sg73
g32
sg75
I0
sg76
I0
sg77
(dp1101
g47
I0
sg48
I0
sg49
I0
sg50
I0
ssg79
I0
sg60
g61
sg85
(dp1102
g97
I0
sg88
I0
sg89
I0
sg90
I0
sg91
I0
sg87
I0
sg93
I0
sg94
I0
sg95
I0
sg96
I0
sg92
I0
sg98
I0
sg99
I0
sg100
I0
sg101
I0
ssg102
(dp1103
sg122
I0
sg123
g32
sg124
I0
sg125
I0
sg126
F0.0
sg127
I0
sg128
I0
sg129
I0
sg130
g1067
sg131
I0
sg132
I0
sg133
I0
sg134
I0
sg135
I0
sg136
I0
sg137
I0
sg138
g32
sbssg122
I0
sg123
g32
sg124
I0
sg125
I0
sg126
F8.517241379310345
sg127
I0
sg128
I0
sg129
I0
sg130
g1067
sg131
I0
sg132
I0
sg133
I0
sg134
I0
sg135
I1
sg136
I0
sg137
I0
sg138
g156
sba(ijoueur
joueur
p1104
(dp1105
g27
I0
sg28
I0
sg29
I0
sg30
F117.8922859819582
sg31
g32
sg33
I0
sg34
g32
sg35
g0
(g36
g2
Ntp1106
Rp1107
(dp1108
g40
I4
sg41
g965
sg43
g345
sbsg45
(dp1109
g47
I0
sg48
I0
sg49
I8
sg50
I2
ssg51
(dp1110
g47
I0
sg48
I0
sg49
I0
sg50
I0
ssg53
I25
sg54
g32
sg55
I0
sg56
F117.8922859819582
sg57
I0
sg58
I0
sg59
I0
sg60
g61
sg62
I00
sg63
g0
(g36
g2
Ntp1111
Rp1112
(dp1113
g40
I1
sg41
g268
sg43
g269
sbsg64
(dp1114
g47
I0
sg48
I0
sg49
I1
sg50
I2
ssg66
I00
sg67
(dp1115
g47
I0
sg48
I0
sg49
I0
sg50
I0
ssg69
(dp1116
g47
I0
sg48
I0
sg49
I1
sg50
I2
ssg71
I0
sg72
I0
sg73
S'Qelemif'
p1117
sg75
I13
sg76
I0
sg77
(dp1118
g47
I0
sg48
I0
sg49
I8
sg50
I2
ssg79
I11
sg80
(g81
g1051
S'DL'
p1119
g32
tp1120
sg84
g32
sg85
(dp1121
g87
I9
sg88
I8
sg89
I6
sg90
I9
sg91
I9
sg92
I7
sg93
I4
sg94
I9
sg95
I5
sg96
I7
sg97
I9
sg98
I8
sg99
I3
sg100
I9
sg101
I4
ssg102
(dp1122
sg122
I0
sg123
g32
sg124
I0
sg125
I0
sg126
F8.61111111111111
sg127
I0
sg128
I0
sg129
I0
sg130
g1121
sg131
I0
sg132
I0
sg133
I0
sg134
I0
sg135
I1
sg136
I0
sg137
I0
sg138
g156
sba(ijoueur
joueur
p1123
(dp1124
g481
F9.75
sg27
I0
sg482
F9.972222222222221
sg123
g32
sg29
I0
sg30
F109.47504636850027
sg31
g32
sg33
I0
sg34
g32
sg35
g0
(g36
g2
Ntp1125
Rp1126
(dp1127
g40
I4
sg41
S'x'
p1128
sg43
S'heros'
p1129
sbsg45
(dp1130
S'SR'
p1131
I0
sS'ST'
p1132
I0
sS'CR'
p1133
I0
sS'CT'
p1134
I12
ssg51
(dp1135
g1131
I0
sg1132
I0
sg1133
I0
sg1134
I0
ssg494
I0
sg77
(dp1136
g496
I0
sg497
I0
sg498
I0
sg499
I12
ssg54
S'vide 13'
p1137
sg55
I0
sg56
F109.47504636850027
sg57
I0
sg58
I0
sg59
I0
sg60
g61
sg62
I00
sg63
g1126
sg64
(dp1138
g496
I0
sg497
I0
sg498
I0
sg499
I0
ssg66
I00
sg67
(dp1139
g496
I0
sg497
I0
sg498
I0
sg499
I0
ssg69
(dp1140
g1131
I0
sg1132
I10
sg1133
I0
sg1134
I0
ssg71
I0
sg72
I0
sg73
S'Vridiel'
p1141
sg75
I9
sg76
I0
sg53
I19
sg79
I180
sg80
(S'dummy'
p1142
S'N8'
p1143
S'DL'
p1144
g32
tp1145
sg84
g32
sg85
(dp1146
S'RP1'
p1147
I10
sS'ME'
p1148
I11
sS'RP2'
p1149
I10
sS'E'
p1150
I9
sS'TO'
p1151
I11
sS'M'
p1152
I7
sS'JP'
p1153
I5
sS'RP_tot'
p1154
I12
sS'P'
p1155
I6
sS'PA'
p1156
I9
sS'A'
p1157
I11
sS'R'
p1158
I6
sS'TB'
p1159
I6
sS'PL'
p1160
I10
sS'TA'
p1161
I7
ssg102
(dp1162
g526
(ijoueur
joueur
p1163
(dp1164
g481
F9.75
sg27
I0
sg123
g32
sg29
I0
sg31
g32
sg33
I0
sg34
g32
sg35
g0
(g36
g2
Ntp1165
Rp1166
(dp1167
g40
I4
sg41
S'x'
p1168
sg43
S'heros'
p1169
sbsg45
(dp1170
S'SR'
p1171
I0
sS'ST'
p1172
I0
sS'CR'
p1173
I0
sS'CT'
p1174
I0
ssg51
(dp1175
g1171
I0
sg1172
I0
sg1173
I0
sg1174
I0
ssg54
g32
sg126
F9.972222222222221
sg55
I0
sg57
I0
sg58
I0
sg59
I0
sg60
g540
sg62
I00
sg63
g1166
sg64
(dp1176
g542
I0
sg543
I7
sg544
I0
sg545
I0
ssg66
I00
sg67
(dp1177
g542
I0
sg543
I0
sg544
I0
sg545
I0
ssg69
(dp1178
g1171
I0
sg1172
I10
sg1173
I0
sg1174
I0
ssg71
I0
sg72
I0
sg73
S'Vridiel'
p1179
sg75
I9
sg76
I0
sg53
I19
sg79
I180
sg80
(S'dummy'
p1180
S'N8'
p1181
S'DL'
p1182
g32
tp1183
sg84
g32
sg85
(dp1184
S'RP1'
p1185
I10
sS'ME'
p1186
I11
sS'RP2'
p1187
I10
sS'E'
p1188
I9
sS'TO'
p1189
I11
sS'M'
p1190
I7
sS'JP'
p1191
I5
sS'RP_tot'
p1192
I13
sS'P'
p1193
I6
sS'PA'
p1194
I9
sS'A'
p1195
I11
sS'R'
p1196
I7
sS'TB'
p1197
I6
sS'PL'
p1198
I10
sS'TA'
p1199
I7
ssg102
(dp1200
g570
(ijoueur
joueur
p1201
(dp1202
g27
I0
sg29
I0
sg31
g32
sg33
I0
sg34
g32
sg35
g0
(g36
g2
Ntp1203
Rp1204
(dp1205
g40
I4
sg41
S'x'
p1206
sg43
S'heros'
p1207
sbsg45
(dp1208
S'SR'
p1209
I0
sS'CT'
p1210
I0
sS'CR'
p1211
I0
sS'ST'
p1212
I0
ssg51
(dp1213
g1209
I0
sg1210
I0
sg1211
I0
sg1212
I0
ssg54
g32
sg55
I0
sg66
I00
sg57
I1
sg58
I0
sg59
I0
sg60
S'vide'
p1214
sg62
I00
sg63
g1204
sg64
(dp1215
g1209
I0
sg1210
I0
sg1211
I0
sg1212
I3
ssg77
(dp1216
g1209
I0
sg1210
I0
sg1211
I0
sg1212
I0
ssg67
(dp1217
g1209
I0
sg1210
I0
sg1211
I0
sg1212
I0
ssg69
(dp1218
g1209
I0
sg1210
I0
sg1211
I0
sg1212
I3
ssg71
I0
sg72
I0
sg73
S'Vridiel'
p1219
sg75
I9
sg76
I0
sg53
I19
sg79
I180
sg80
(S'dummy'
p1220
S'N8'
p1221
S'DL'
p1222
g32
tp1223
sg84
g32
sg85
(dp1224
S'RP1'
p1225
I10
sS'ME'
p1226
I11
sS'RP2'
p1227
I10
sS'E'
p1228
I9
sS'P'
p1229
I7
sS'JP'
p1230
I5
sS'M'
p1231
I7
sS'RP_tot'
p1232
I13
sS'TO'
p1233
I11
sS'PA'
p1234
I9
sS'A'
p1235
I10
sS'R'
p1236
I7
sS'TB'
p1237
I6
sS'PL'
p1238
I9
sS'TA'
p1239
I7
ssg122
I0
sg28
I0
sg124
I0
sg125
I0
sg126
F9.75
sg127
I0
sg128
I0
sg129
I0
sg615
(dp1240
S'RP1'
p1241
I10
sS'ME'
p1242
I11
sS'RP2'
p1243
I10
sS'E'
p1244
I9
sS'P'
p1245
I7
sS'JP'
p1246
I5
sS'M'
p1247
I7
sS'RP_tot'
p1248
I13
sS'TO'
p1249
I11
sS'PA'
p1250
I9
sS'A'
p1251
I10
sS'R'
p1252
I7
sS'TB'
p1253
I6
sS'PL'
p1254
I9
sS'TA'
p1255
I7
ssg130
g1224
sg131
I0
sg132
I0
sg133
I0
sg134
I0
sg135
I17
sg136
I1
sg137
I0
sg138
S'EST'
p1256
sbssg122
I5
sg28
I0
sg124
I0
sg125
I0
sg77
(dp1257
g542
I0
sg543
I0
sg544
I0
sg545
I0
ssg127
I0
sg128
I0
sg129
I0
sg615
(dp1258
g1185
I10
sg1186
I11
sg1187
I10
sg1188
I9
sg1193
I7
sg1191
I5
sg1190
I7
sg1192
I13
sg1189
I11
sg1194
I9
sg1195
I10
sg1196
I7
sg1197
I6
sg1198
I9
sg1199
I7
ssg130
g1184
sg131
I0
sg132
I0
sg133
I0
sg134
I0
sg135
I17
sg136
I1
sg137
I0
sg138
S'EST'
p1259
sbsg636
(ijoueur
joueur
p1260
(dp1261
g27
I0
sg29
I0
sg31
g32
sg33
I0
sg34
g32
sg35
g0
(g36
g2
Ntp1262
Rp1263
(dp1264
g40
I4
sg41
S'x'
p1265
sg43
S'heros'
p1266
sbsg45
(dp1267
S'SR'
p1268
I0
sS'CT'
p1269
I0
sS'CR'
p1270
I0
sS'ST'
p1271
I0
ssg51
(dp1272
g1268
I0
sg1269
I0
sg1270
I0
sg1271
I0
ssg54
g32
sg55
I0
sg66
I00
sg57
I1
sg58
I0
sg59
I0
sg60
S'vide'
p1273
sg62
I00
sg63
g1263
sg64
(dp1274
g1268
I0
sg1269
I0
sg1270
I0
sg1271
I3
ssg77
(dp1275
g1268
I0
sg1269
I0
sg1270
I0
sg1271
I0
ssg67
(dp1276
g1268
I0
sg1269
I0
sg1270
I0
sg1271
I0
ssg69
(dp1277
g1268
I0
sg1269
I0
sg1270
I0
sg1271
I3
ssg71
I0
sg72
I0
sg73
S'Vridiel'
p1278
sg75
I9
sg76
I0
sg53
I19
sg79
I180
sg80
(S'dummy'
p1279
S'N8'
p1280
S'DL'
p1281
g32
tp1282
sg84
g32
sg85
(dp1283
S'RP1'
p1284
I10
sS'ME'
p1285
I11
sS'RP2'
p1286
I10
sS'E'
p1287
I9
sS'P'
p1288
I7
sS'JP'
p1289
I5
sS'M'
p1290
I7
sS'RP_tot'
p1291
I13
sS'TO'
p1292
I11
sS'PA'
p1293
I9
sS'A'
p1294
I10
sS'R'
p1295
I7
sS'TB'
p1296
I6
sS'PL'
p1297
I9
sS'TA'
p1298
I7
ssg122
I0
sg28
I0
sg124
I0
sg125
I0
sg126
F9.75
sg127
I0
sg128
I0
sg129
I0
sg615
(dp1299
S'RP1'
p1300
I10
sS'ME'
p1301
I11
sS'RP2'
p1302
I10
sS'E'
p1303
I9
sS'P'
p1304
I7
sS'JP'
p1305
I5
sS'M'
p1306
I7
sS'RP_tot'
p1307
I13
sS'TO'
p1308
I11
sS'PA'
p1309
I9
sS'A'
p1310
I10
sS'R'
p1311
I7
sS'TB'
p1312
I6
sS'PL'
p1313
I9
sS'TA'
p1314
I7
ssg130
g1283
sg131
I0
sg132
I0
sg133
I0
sg134
I0
sg135
I17
sg136
I1
sg137
I0
sg138
S'EST'
p1315
sbssg122
I0
sg28
I0
sg124
I0
sg125
I0
sg126
F9.63888888888889
sg127
I0
sg128
I0
sg129
I0
sg615
(dp1316
g1147
I10
sg1148
I11
sg1149
I10
sg1150
I9
sg1155
I7
sg1153
I5
sg1152
I7
sg1154
I13
sg1151
I11
sg1156
I9
sg1157
I10
sg1158
I7
sg1159
I6
sg1160
I9
sg1161
I7
ssg130
g1146
sg131
I0
sg699
(dp1317
sg132
I0
sg133
I0
sg134
I0
sg135
I17
sg136
I1
sg137
I0
sg138
S'EST'
p1318
sba(ijoueur
joueur
p1319
(dp1320
g481
F7.586206896551724
sg27
I0
sg482
F7.827586206896552
sg123
g32
sg29
I0
sg30
F109.47504636850027
sg31
g32
sg33
I0
sg34
g32
sg35
g0
(g36
g2
Ntp1321
Rp1322
(dp1323
g40
I4
sg41
S'*'
p1324
sg43
S'heros'
p1325
sbsg45
(dp1326
S'SR'
p1327
I0
sS'CT'
p1328
I0
sS'CR'
p1329
I0
sS'ST'
p1330
I0
ssg51
(dp1331
g1327
I0
sg1328
I0
sg1329
I0
sg1330
I0
ssg494
I0
sg77
(dp1332
g496
I0
sg497
I0
sg498
I0
sg499
I0
ssg54
S'vide 13'
p1333
sg55
I0
sg56
F109.47504636850027
sg57
I0
sg58
I0
sg59
I0
sg60
g61
sg62
I00
sg63
g1322
sg64
(dp1334
g496
I0
sg497
I0
sg498
I0
sg499
I12
ssg66
I00
sg67
(dp1335
g496
I0
sg497
I0
sg498
I0
sg499
I0
ssg69
(dp1336
g1327
I0
sg1328
I12
sg1329
I0
sg1330
I0
ssg71
I0
sg72
I0
sg73
S'Snim'
p1337
sg75
I11
sg76
I0
sg53
I20
sg79
I90
sg80
(S'dummy'
p1338
S'N8'
p1339
S'TL'
p1340
S'DL'
p1341
tp1342
sg84
g32
sg85
(dp1343
S'RP1'
p1344
I8
sS'ME'
p1345
I10
sS'RP2'
p1346
I9
sS'E'
p1347
I10
sS'P'
p1348
I6
sS'JP'
p1349
I4
sS'M'
p1350
I7
sS'RP_tot'
p1351
I10
sS'TO'
p1352
I8
sS'PA'
p1353
I8
sS'A'
p1354
I11
sS'R'
p1355
I7
sS'TB'
p1356
I6
sS'PL'
p1357
I11
sS'TA'
p1358
I4
ssg102
(dp1359
g526
(ijoueur
joueur
p1360
(dp1361
g481
F7.586206896551724
sg27
I0
sg123
g32
sg29
I0
sg31
g32
sg33
I0
sg34
g32
sg35
g0
(g36
g2
Ntp1362
Rp1363
(dp1364
g40
I4
sg41
S'*'
p1365
sg43
S'heros'
p1366
sbsg45
(dp1367
S'SR'
p1368
I0
sS'CT'
p1369
I0
sS'CR'
p1370
I0
sS'ST'
p1371
I0
ssg51
(dp1372
g1368
I0
sg1369
I0
sg1370
I0
sg1371
I0
ssg54
g32
sg126
F7.827586206896552
sg55
I0
sg57
I0
sg58
I0
sg59
I0
sg60
g540
sg62
I00
sg63
g0
(g36
g2
Ntp1373
Rp1374
(dp1375
g40
I3
sg41
S'^^^'
p1376
sg43
S'rare'
p1377
sbsg64
(dp1378
g542
I0
sg543
I0
sg544
I0
sg545
I0
ssg66
I00
sg67
(dp1379
g542
I0
sg543
I0
sg544
I0
sg545
I0
ssg69
(dp1380
g1368
I0
sg1369
I0
sg1370
I0
sg1371
I0
ssg71
I0
sg72
I0
sg73
S'Snim'
p1381
sg75
I11
sg76
I0
sg53
I20
sg79
I50
sg80
(S'dummy'
p1382
S'N8'
p1383
S'TL'
p1384
S'DL'
p1385
tp1386
sg84
g32
sg85
(dp1387
S'RP1'
p1388
I7
sS'ME'
p1389
I7
sS'RP2'
p1390
I7
sS'E'
p1391
I10
sS'P'
p1392
I5
sS'JP'
p1393
I3
sS'M'
p1394
I7
sS'RP_tot'
p1395
I7
sS'TO'
p1396
I7
sS'PA'
p1397
I7
sS'A'
p1398
I10
sS'R'
p1399
I6
sS'TB'
p1400
I5
sS'PL'
p1401
I9
sS'TA'
p1402
I3
ssg102
(dp1403
g570
(ijoueur
joueur
p1404
(dp1405
g27
I0
sg29
I0
sg31
g32
sg33
I0
sg34
g32
sg35
g0
(g36
g2
Ntp1406
Rp1407
(dp1408
g40
I4
sg41
S'*'
p1409
sg43
S'heros'
p1410
sbsg45
(dp1411
S'SR'
p1412
I0
sS'ST'
p1413
I0
sS'CR'
p1414
I0
sS'CT'
p1415
I0
ssg51
(dp1416
g1412
I0
sg1413
I0
sg1414
I0
sg1415
I0
ssg54
g32
sg55
I0
sg66
I00
sg57
I0
sg58
I0
sg59
I0
sg60
S'vide'
p1417
sg62
I01
sg63
g0
(g36
g2
Ntp1418
Rp1419
(dp1420
g40
I2
sg41
S'^^'
p1421
sg43
S'special'
p1422
sbsg64
(dp1423
g1412
I0
sg1413
I0
sg1414
I0
sg1415
I0
ssg77
(dp1424
g1412
I0
sg1413
I0
sg1414
I0
sg1415
I0
ssg67
(dp1425
g1412
I0
sg1413
I0
sg1414
I0
sg1415
I0
ssg69
(dp1426
g1412
I0
sg1413
I0
sg1414
I0
sg1415
I0
ssg71
I0
sg72
I0
sg73
S'Snim'
p1427
sg75
I11
sg76
I0
sg53
I20
sg79
I50
sg80
(S'dummy'
p1428
S'N8'
p1429
S'TL'
p1430
S'DL'
p1431
tp1432
sg84
g32
sg85
(dp1433
S'RP1'
p1434
I7
sS'ME'
p1435
I7
sS'RP2'
p1436
I7
sS'E'
p1437
I10
sS'TO'
p1438
I6
sS'M'
p1439
I7
sS'JP'
p1440
I3
sS'RP_tot'
p1441
I7
sS'P'
p1442
I5
sS'PA'
p1443
I6
sS'A'
p1444
I8
sS'R'
p1445
I6
sS'TB'
p1446
I5
sS'PL'
p1447
I9
sS'TA'
p1448
I3
ssg122
I0
sg28
I0
sg124
I0
sg125
I0
sg126
F7.586206896551724
sg127
I0
sg128
I0
sg129
I0
sg615
(dp1449
S'RP1'
p1450
I7
sS'ME'
p1451
I7
sS'RP2'
p1452
I7
sS'E'
p1453
I10
sS'TO'
p1454
I6
sS'M'
p1455
I7
sS'JP'
p1456
I3
sS'RP_tot'
p1457
I7
sS'P'
p1458
I5
sS'PA'
p1459
I6
sS'A'
p1460
I8
sS'R'
p1461
I6
sS'TB'
p1462
I5
sS'PL'
p1463
I9
sS'TA'
p1464
I3
ssg130
g1433
sg131
I0
sg132
I0
sg133
I0
sg134
I0
sg135
I4
sg136
I0
sg137
I0
sg138
S'EST'
p1465
sbssg122
I0
sg28
I0
sg124
I0
sg125
I0
sg77
(dp1466
g542
I0
sg543
I0
sg544
I0
sg545
I0
ssg127
I0
sg128
I0
sg129
I0
sg615
(dp1467
g1388
I7
sg1389
I7
sg1390
I7
sg1391
I10
sg1396
I6
sg1394
I7
sg1393
I3
sg1395
I7
sg1392
I5
sg1397
I6
sg1398
I8
sg1399
I6
sg1400
I5
sg1401
I9
sg1402
I3
ssg130
g1387
sg131
I0
sg132
I0
sg133
I0
sg134
I0
sg135
I4
sg136
I0
sg137
I0
sg138
S'EST'
p1468
sbsg636
(ijoueur
joueur
p1469
(dp1470
g27
I0
sg29
I0
sg31
g32
sg33
I0
sg34
g32
sg35
g0
(g36
g2
Ntp1471
Rp1472
(dp1473
g40
I4
sg41
S'*'
p1474
sg43
S'heros'
p1475
sbsg45
(dp1476
S'SR'
p1477
I0
sS'ST'
p1478
I0
sS'CR'
p1479
I0
sS'CT'
p1480
I0
ssg51
(dp1481
g1477
I0
sg1478
I0
sg1479
I0
sg1480
I0
ssg54
g32
sg55
I0
sg66
I00
sg57
I0
sg58
I0
sg59
I0
sg60
S'vide'
p1482
sg62
I01
sg63
g0
(g36
g2
Ntp1483
Rp1484
(dp1485
g40
I2
sg41
S'^^'
p1486
sg43
S'special'
p1487
sbsg64
(dp1488
g1477
I0
sg1478
I0
sg1479
I0
sg1480
I0
ssg77
(dp1489
g1477
I0
sg1478
I0
sg1479
I0
sg1480
I0
ssg67
(dp1490
g1477
I0
sg1478
I0
sg1479
I0
sg1480
I0
ssg69
(dp1491
g1477
I0
sg1478
I0
sg1479
I0
sg1480
I0
ssg71
I0
sg72
I0
sg73
S'Snim'
p1492
sg75
I11
sg76
I0
sg53
I20
sg79
I50
sg80
(S'dummy'
p1493
S'N8'
p1494
S'TL'
p1495
S'DL'
p1496
tp1497
sg84
g32
sg85
(dp1498
S'RP1'
p1499
I7
sS'ME'
p1500
I7
sS'RP2'
p1501
I7
sS'E'
p1502
I10
sS'TO'
p1503
I6
sS'M'
p1504
I7
sS'JP'
p1505
I3
sS'RP_tot'
p1506
I7
sS'P'
p1507
I5
sS'PA'
p1508
I6
sS'A'
p1509
I8
sS'R'
p1510
I6
sS'TB'
p1511
I5
sS'PL'
p1512
I9
sS'TA'
p1513
I3
ssg122
I0
sg28
I0
sg124
I0
sg125
I0
sg126
F7.586206896551724
sg127
I0
sg128
I0
sg129
I0
sg615
(dp1514
S'RP1'
p1515
I7
sS'ME'
p1516
I7
sS'RP2'
p1517
I7
sS'E'
p1518
I10
sS'TO'
p1519
I6
sS'M'
p1520
I7
sS'JP'
p1521
I3
sS'RP_tot'
p1522
I7
sS'P'
p1523
I5
sS'PA'
p1524
I6
sS'A'
p1525
I8
sS'R'
p1526
I6
sS'TB'
p1527
I5
sS'PL'
p1528
I9
sS'TA'
p1529
I3
ssg130
g1498
sg131
I0
sg132
I0
sg133
I0
sg134
I0
sg135
I4
sg136
I0
sg137
I0
sg138
S'EST'
p1530
sbssg122
I0
sg28
I0
sg124
I0
sg125
I0
sg126
F9.379310344827585
sg127
I0
sg128
I0
sg129
I0
sg615
(dp1531
g1344
I7
sg1345
I7
sg1346
I7
sg1347
I10
sg1352
I6
sg1350
I7
sg1349
I3
sg1351
I7
sg1348
I5
sg1353
I6
sg1354
I8
sg1355
I6
sg1356
I5
sg1357
I9
sg1358
I3
ssg130
g1343
sg131
I0
sg699
(dp1532
sg132
I0
sg133
I0
sg134
I0
sg135
I8
sg136
I0
sg137
I0
sg138
S'EST'
p1533
sbasS'TL'
p1534
(lp1535
(ijoueur
joueur
p1536
(dp1537
g27
I0
sg28
I0
sg29
I0
sg30
F17.45723350276741
sg31
g32
sg33
I0
sg34
g32
sg35
g0
(g36
g2
Ntp1538
Rp1539
(dp1540
g40
I2
sg41
S'<<'
p1541
sg43
g44
sbsg45
(dp1542
g47
I0
sg48
I0
sg49
I0
sg50
I0
ssg51
(dp1543
g47
I0
sg48
I0
sg49
I0
sg50
I0
ssg53
I23
sg54
g32
sg55
I0
sg56
F17.45723350276741
sg57
I0
sg58
I0
sg59
I0
sg60
g61
sg62
I00
sg63
g0
(g36
g2
Ntp1544
Rp1545
(dp1546
g40
I1
sg41
g329
sg43
g269
sbsg64
(dp1547
g47
I0
sg48
I0
sg49
I0
sg50
I2
ssg66
I00
sg67
(dp1548
g47
I0
sg48
I0
sg49
I0
sg50
I0
ssg69
(dp1549
g47
I0
sg48
I0
sg49
I0
sg50
I2
ssg71
I0
sg72
I0
sg73
S'Skendov'
p1550
sg75
I13
sg76
I0
sg77
(dp1551
g47
I0
sg48
I0
sg49
I0
sg50
I0
ssg79
I14
sg80
(g81
g1534
g32
g32
tp1552
sg84
g32
sg85
(dp1553
g87
I7
sg88
I8
sg89
I6
sg90
I8
sg91
I8
sg92
I7
sg93
I3
sg94
I7
sg95
I4
sg96
I8
sg97
I8
sg98
I6
sg99
I2
sg100
I10
sg101
I5
ssg102
(dp1554
sg122
I0
sg123
g32
sg124
I0
sg125
I0
sg126
F7.684210526315789
sg127
I0
sg128
I0
sg129
I0
sg130
g1553
sg131
I0
sg132
I0
sg133
I0
sg134
I0
sg135
I1
sg136
I0
sg137
I0
sg138
S'K'
p1555
sba(ijoueur
joueur
p1556
(dp1557
g27
I0
sg28
I0
sg29
I0
sg30
F127.2054797719701
sg31
g32
sg33
I0
sg34
g32
sg35
g0
(g36
g2
Ntp1558
Rp1559
(dp1560
g40
I4
sg41
g965
sg43
g345
sbsg45
(dp1561
g47
I0
sg48
I0
sg49
I3
sg50
I0
ssg51
(dp1562
g47
I0
sg48
I0
sg49
I0
sg50
I0
ssg53
I24
sg54
g32
sg55
I0
sg56
F127.2054797719701
sg57
I0
sg58
I0
sg59
I0
sg60
g61
sg62
I00
sg63
g1559
sg64
(dp1563
g47
I0
sg48
I0
sg49
I5
sg50
I6
ssg66
I00
sg67
(dp1564
g47
I0
sg48
I0
sg49
I0
sg50
I0
ssg69
(dp1565
g47
I0
sg48
I0
sg49
I5
sg50
I6
ssg71
I0
sg72
I0
sg73
S'Kertamno'
p1566
sg75
I11
sg76
I0
sg77
(dp1567
g47
I0
sg48
I0
sg49
I3
sg50
I0
ssg79
I100
sg80
(g81
g1534
S'N8'
p1568
g32
tp1569
sg84
g32
sg85
(dp1570
g87
I7
sg88
I8
sg89
I8
sg90
I9
sg91
I10
sg92
I7
sg93
I5
sg94
I9
sg95
I7
sg96
I8
sg97
I9
sg98
I9
sg99
I5
sg100
I10
sg101
I5
ssg102
(dp1571
S's12'
p1572
(ijoueur
joueur
p1573
(dp1574
g27
I0
sg28
I0
sg29
I0
sg33
I0
sg35
g0
(g36
g2
Ntp1575
Rp1576
(dp1577
g41
g32
sbsg45
(dp1578
g47
I0
sg48
I0
sg49
I0
sg50
I0
ssg51
(dp1579
g47
I0
sg48
I0
sg49
I0
sg50
I0
ssg53
I0
sg54
g32
sg55
I0
sg57
I0
sg58
I0
sg59
I0
sg80
(g81
g1534
g32
g32
tp1580
sg62
I00
sg63
g0
(g36
g2
Ntp1581
Rp1582
(dp1583
g41
g32
sbsg64
(dp1584
g47
I0
sg48
I0
sg49
I0
sg50
I0
ssg66
I00
sg67
(dp1585
g47
I0
sg48
I0
sg49
I0
sg50
I0
ssg69
(dp1586
g47
I0
sg48
I0
sg49
I0
sg50
I0
ssg71
I0
sg72
I0
sg73
g32
sg75
I0
sg76
I0
sg77
(dp1587
g47
I0
sg48
I0
sg49
I0
sg50
I0
ssg79
I0
sg60
g61
sg85
(dp1588
g97
I0
sg88
I0
sg89
I0
sg90
I0
sg91
I0
sg87
I0
sg93
I0
sg94
I0
sg95
I0
sg96
I0
sg92
I0
sg98
I0
sg99
I0
sg100
I0
sg101
I0
ssg102
(dp1589
sg122
I0
sg123
g32
sg124
I0
sg125
I0
sg126
F0.0
sg127
I0
sg128
I0
sg129
I0
sg130
g1570
sg131
I0
sg132
I0
sg133
I0
sg134
I0
sg135
I0
sg136
I0
sg137
I0
sg138
g32
sbsS's11'
p1590
(ijoueur
joueur
p1591
(dp1592
g27
I0
sg28
I0
sg29
I0
sg33
I0
sg35
g0
(g36
g2
Ntp1593
Rp1594
(dp1595
g41
g32
sbsg45
(dp1596
g47
I0
sg48
I0
sg49
I0
sg50
I0
ssg51
(dp1597
g47
I0
sg48
I0
sg49
I0
sg50
I0
ssg53
I0
sg54
g32
sg55
I0
sg57
I0
sg58
I0
sg59
I0
sg80
g1580
sg62
I00
sg63
g0
(g36
g2
Ntp1598
Rp1599
(dp1600
g41
g32
sbsg64
(dp1601
g47
I0
sg48
I0
sg49
I0
sg50
I0
ssg66
I00
sg67
(dp1602
g47
I0
sg48
I0
sg49
I0
sg50
I0
ssg69
(dp1603
g47
I0
sg48
I0
sg49
I0
sg50
I0
ssg71
I0
sg72
I0
sg73
g32
sg75
I0
sg76
I0
sg77
(dp1604
g47
I0
sg48
I0
sg49
I0
sg50
I0
ssg79
I0
sg60
g61
sg85
(dp1605
g97
I0
sg88
I0
sg89
I0
sg90
I0
sg91
I0
sg87
I0
sg93
I0
sg94
I0
sg95
I0
sg96
I0
sg92
I0
sg98
I0
sg99
I0
sg100
I0
sg101
I0
ssg102
(dp1606
sg122
I0
sg123
g32
sg124
I0
sg125
I0
sg126
F0.0
sg127
I0
sg128
I0
sg129
I0
sg130
g1570
sg131
I0
sg132
I0
sg133
I0
sg134
I0
sg135
I0
sg136
I0
sg137
I0
sg138
g32
sbssg122
I0
sg123
g32
sg124
I0
sg125
I0
sg126
F9.157894736842104
sg127
I0
sg128
I0
sg129
I0
sg130
g1570
sg131
I0
sg132
I0
sg133
I0
sg134
I0
sg135
I10
sg136
I0
sg137
I0
sg138
g156
sba(ijoueur
joueur
p1607
(dp1608
g27
I0
sg28
I0
sg29
I0
sg30
F118.7876485101295
sg31
g32
sg33
I0
sg34
g32
sg35
g0
(g36
g2
Ntp1609
Rp1610
(dp1611
g40
I5
sg41
g162
sg43
g163
sbsg45
(dp1612
g47
I0
sg48
I0
sg49
I1
sg50
I1
ssg51
(dp1613
g47
I0
sg48
I0
sg49
I0
sg50
I0
ssg53
I22
sg54
g32
sg55
I0
sg56
F118.7876485101295
sg57
I0
sg58
I0
sg59
I0
sg60
g61
sg62
I00
sg63
g1610
sg64
(dp1614
g47
I0
sg48
I0
sg49
I0
sg50
I11
ssg66
I00
sg67
(dp1615
g47
I0
sg48
I0
sg49
I0
sg50
I0
ssg69
(dp1616
g47
I0
sg48
I0
sg49
I0
sg50
I11
ssg71
I0
sg72
I0
sg73
S'Nestelie'
p1617
sg75
I11
sg76
I0
sg77
(dp1618
g47
I0
sg48
I0
sg49
I1
sg50
I1
ssg79
I153
sg80
(g81
g1534
S'N8'
p1619
g32
tp1620
sg84
g32
sg85
(dp1621
g87
I9
sg88
I9
sg89
I8
sg90
I9
sg91
I11
sg92
I8
sg93
I4
sg94
I10
sg95
I6
sg96
I10
sg97
I11
sg98
I9
sg99
I6
sg100
I10
sg101
I4
ssg102
(dp1622
S's12'
p1623
(ijoueur
joueur
p1624
(dp1625
g27
I0
sg28
I0
sg29
I0
sg33
I0
sg35
g0
(g36
g2
Ntp1626
Rp1627
(dp1628
g41
g32
sbsg45
(dp1629
g47
I0
sg48
I0
sg49
I0
sg50
I0
ssg51
(dp1630
g47
I0
sg48
I0
sg49
I0
sg50
I0
ssg53
I0
sg54
g32
sg55
I0
sg57
I0
sg58
I0
sg59
I0
sg80
(g81
g1534
g32
g32
tp1631
sg62
I00
sg63
g0
(g36
g2
Ntp1632
Rp1633
(dp1634
g41
g32
sbsg64
(dp1635
g47
I0
sg48
I0
sg49
I0
sg50
I0
ssg66
I00
sg67
(dp1636
g47
I0
sg48
I0
sg49
I0
sg50
I0
ssg69
(dp1637
g47
I0
sg48
I0
sg49
I0
sg50
I0
ssg71
I0
sg72
I0
sg73
g32
sg75
I0
sg76
I0
sg77
(dp1638
g47
I0
sg48
I0
sg49
I0
sg50
I0
ssg79
I0
sg60
g61
sg85
(dp1639
g97
I0
sg88
I0
sg89
I0
sg90
I0
sg91
I0
sg87
I0
sg93
I0
sg94
I0
sg95
I0
sg96
I0
sg92
I0
sg98
I0
sg99
I0
sg100
I0
sg101
I0
ssg102
(dp1640
sg122
I0
sg123
g32
sg124
I0
sg125
I0
sg126
F0.0
sg127
I0
sg128
I0
sg129
I0
sg130
g1621
sg131
I0
sg132
I0
sg133
I0
sg134
I0
sg135
I0
sg136
I0
sg137
I0
sg138
g32
sbsS's11'
p1641
(ijoueur
joueur
p1642
(dp1643
g27
I0
sg28
I0
sg29
I0
sg33
I0
sg35
g0
(g36
g2
Ntp1644
Rp1645
(dp1646
g41
g32
sbsg45
(dp1647
g47
I0
sg48
I0
sg49
I0
sg50
I0
ssg51
(dp1648
g47
I0
sg48
I0
sg49
I0
sg50
I0
ssg53
I0
sg54
g32
sg55
I0
sg57
I0
sg58
I0
sg59
I0
sg80
g1631
sg62
I00
sg63
g0
(g36
g2
Ntp1649
Rp1650
(dp1651
g41
g32
sbsg64
(dp1652
g47
I0
sg48
I0
sg49
I0
sg50
I0
ssg66
I00
sg67
(dp1653
g47
I0
sg48
I0
sg49
I0
sg50
I0
ssg69
(dp1654
g47
I0
sg48
I0
sg49
I0
sg50
I0
ssg71
I0
sg72
I0
sg73
g32
sg75
I0
sg76
I0
sg77
(dp1655
g47
I0
sg48
I0
sg49
I0
sg50
I0
ssg79
I0
sg60
g61
sg85
(dp1656
g97
I0
sg88
I0
sg89
I0
sg90
I0
sg91
I0
sg87
I0
sg93
I0
sg94
I0
sg95
I0
sg96
I0
sg92
I0
sg98
I0
sg99
I0
sg100
I0
sg101
I0
ssg102
(dp1657
sg122
I0
sg123
g32
sg124
I0
sg125
I0
sg126
F0.0
sg127
I0
sg128
I0
sg129
I0
sg130
g1621
sg131
I0
sg132
I0
sg133
I0
sg134
I0
sg135
I0
sg136
I0
sg137
I0
sg138
g32
sbssg122
I0
sg123
g32
sg124
I0
sg125
I0
sg126
F9.763157894736842
sg127
I0
sg128
I0
sg129
I0
sg130
g1621
sg131
I0
sg132
I0
sg133
I0
sg134
I0
sg135
I15
sg136
I0
sg137
I0
sg138
g156
sbasS'AR'
p1658
(lp1659
(ijoueur
joueur
p1660
(dp1661
g27
I1
sg28
I0
sg29
I0
sg30
F110.35060790896225
sg31
g32
sg33
I0
sg34
g32
sg35
g0
(g36
g2
Ntp1662
Rp1663
(dp1664
g40
I3
sg41
S'<<<'
p1665
sg43
g323
sbsg45
(dp1666
g47
I0
sg48
I0
sg49
I0
sg50
I9
ssg51
(dp1667
g47
I0
sg48
I0
sg49
I0
sg50
I0
ssg53
I27
sg54
g32
sg55
I0
sg56
F110.35060790896225
sg57
I0
sg58
I0
sg59
I0
sg60
g61
sg62
I00
sg63
g0
(g36
g2
Ntp1668
Rp1669
(dp1670
g40
I1
sg41
g329
sg43
g269
sbsg64
(dp1671
g47
I0
sg48
I0
sg49
I1
sg50
I2
ssg66
I00
sg67
(dp1672
g47
I0
sg48
I0
sg49
I0
sg50
I0
ssg69
(dp1673
g47
I0
sg48
I0
sg49
I1
sg50
I2
ssg71
I0
sg72
I0
sg73
S'Zanci'
p1674
sg75
I13
sg76
I0
sg77
(dp1675
g47
I0
sg48
I0
sg49
I0
sg50
I9
ssg79
I10
sg80
(g81
g1658
S'AI'
p1676
g32
tp1677
sg84
g32
sg85
(dp1678
g87
I8
sg88
I5
sg89
I9
sg90
I9
sg91
I3
sg92
I10
sg93
I6
sg94
I10
sg95
I7
sg96
I7
sg97
I9
sg98
I6
sg99
I5
sg100
I9
sg101
I4
ssg102
(dp1679
sg122
I0
sg123
g32
sg124
I0
sg125
I0
sg126
F8.696969696969697
sg127
I0
sg128
I0
sg129
I0
sg130
g1678
sg131
I1
sg132
I0
sg133
I0
sg134
I0
sg135
I1
sg136
I0
sg137
I0
sg138
g156
sba(ijoueur
joueur
p1680
(dp1681
g27
I1
sg28
I0
sg29
I6
sg30
F127.08739189251953
sg31
g32
sg33
I0
sg34
g32
sg35
g0
(g36
g2
Ntp1682
Rp1683
(dp1684
g40
I4
sg41
g344
sg43
g345
sbsg45
(dp1685
g47
I0
sg48
I0
sg49
I0
sg50
I0
ssg51
(dp1686
g47
I0
sg48
I0
sg49
I0
sg50
I0
ssg53
I16
sg54
g32
sg55
I0
sg56
F127.08739189251953
sg57
I0
sg58
I2
sg59
I2
sg60
g61
sg62
I00
sg63
g1683
sg64
(dp1687
g47
I0
sg48
I0
sg49
I1
sg50
I13
ssg66
I00
sg67
(dp1688
g47
I0
sg48
I0
sg49
I0
sg50
I0
ssg69
(dp1689
g47
I0
sg48
I0
sg49
I1
sg50
I13
ssg71
I3
sg72
I3
sg73
S'Esztel'
p1690
sg75
I5
sg76
I2
sg77
(dp1691
g47
I0
sg48
I0
sg49
I0
sg50
I0
ssg79
I135
sg80
(g81
g1658
g32
g32
tp1692
sg84
g32
sg85
(dp1693
g87
I9
sg88
I4
sg89
I10
sg90
I9
sg91
I9
sg92
I11
sg93
I10
sg94
I11
sg95
I10
sg96
I9
sg97
I10
sg98
I8
sg99
I9
sg100
I10
sg101
I5
ssg102
(dp1694
S's12'
p1695
(ijoueur
joueur
p1696
(dp1697
g27
I0
sg28
I0
sg29
I0
sg33
I0
sg35
g0
(g36
g2
Ntp1698
Rp1699
(dp1700
g41
g32
sbsg45
(dp1701
g47
I0
sg48
I0
sg49
I0
sg50
I0
ssg51
(dp1702
g47
I0
sg48
I0
sg49
I0
sg50
I0
ssg53
I0
sg54
g32
sg55
I0
sg57
I0
sg58
I0
sg59
I0
sg80
(g81
g1658
g32
g32
tp1703
sg62
I00
sg63
g0
(g36
g2
Ntp1704
Rp1705
(dp1706
g41
g32
sbsg64
(dp1707
g47
I0
sg48
I0
sg49
I0
sg50
I0
ssg66
I00
sg67
(dp1708
g47
I0
sg48
I0
sg49
I0
sg50
I0
ssg69
(dp1709
g47
I0
sg48
I0
sg49
I0
sg50
I0
ssg71
I0
sg72
I0
sg73
g32
sg75
I0
sg76
I0
sg77
(dp1710
g47
I0
sg48
I0
sg49
I0
sg50
I0
ssg79
I0
sg60
g61
sg85
(dp1711
g97
I0
sg88
I0
sg89
I0
sg90
I0
sg91
I0
sg87
I0
sg93
I0
sg94
I0
sg95
I0
sg96
I0
sg92
I0
sg98
I0
sg99
I0
sg100
I0
sg101
I0
ssg102
(dp1712
sg122
I0
sg123
g32
sg124
I0
sg125
I0
sg126
F0.0
sg127
I0
sg128
I0
sg129
I0
sg130
g1693
sg131
I0
sg132
I0
sg133
I0
sg134
I0
sg135
I0
sg136
I0
sg137
I0
sg138
g32
sbsS's11'
p1713
(ijoueur
joueur
p1714
(dp1715
g27
I0
sg28
I0
sg29
I0
sg33
I0
sg35
g0
(g36
g2
Ntp1716
Rp1717
(dp1718
g41
g32
sbsg45
(dp1719
g47
I0
sg48
I0
sg49
I0
sg50
I0
ssg51
(dp1720
g47
I0
sg48
I0
sg49
I0
sg50
I0
ssg53
I0
sg54
g32
sg55
I0
sg57
I0
sg58
I0
sg59
I0
sg80
g1703
sg62
I00
sg63
g0
(g36
g2
Ntp1721
Rp1722
(dp1723
g41
g32
sbsg64
(dp1724
g47
I0
sg48
I0
sg49
I0
sg50
I0
ssg66
I00
sg67
(dp1725
g47
I0
sg48
I0
sg49
I0
sg50
I0
ssg69
(dp1726
g47
I0
sg48
I0
sg49
I0
sg50
I0
ssg71
I0
sg72
I0
sg73
g32
sg75
I0
sg76
I0
sg77
(dp1727
g47
I0
sg48
I0
sg49
I0
sg50
I0
ssg79
I0
sg60
g61
sg85
(dp1728
g97
I0
sg88
I0
sg89
I0
sg90
I0
sg91
I0
sg87
I0
sg93
I0
sg94
I0
sg95
I0
sg96
I0
sg92
I0
sg98
I0
sg99
I0
sg100
I0
sg101
I0
ssg102
(dp1729
sg122
I0
sg123
g32
sg124
I0
sg125
I0
sg126
F0.0
sg127
I0
sg128
I0
sg129
I0
sg130
g1693
sg131
I0
sg132
I0
sg133
I0
sg134
I0
sg135
I0
sg136
I0
sg137
I0
sg138
g32
sbssg122
I0
sg123
g32
sg124
I0
sg125
I0
sg126
F10.0
sg127
I2
sg128
I0
sg129
I2
sg130
g1693
sg131
I1
sg132
I0
sg133
I6
sg134
I0
sg135
I13
sg136
I0
sg137
I2
sg138
g156
sbasS'PI'
p1730
(lp1731
(ijoueur
joueur
p1732
(dp1733
g27
I0
sg28
I0
sg29
I0
sg30
F17.45723350276741
sg31
g32
sg33
I0
sg34
g32
sg35
g0
(g36
g2
Ntp1734
Rp1735
(dp1736
g40
I3
sg41
g322
sg43
g323
sbsg45
(dp1737
g47
I0
sg48
I0
sg49
I0
sg50
I0
ssg51
(dp1738
g47
I0
sg48
I0
sg49
I0
sg50
I0
ssg53
I20
sg54
g32
sg55
I0
sg56
F17.45723350276741
sg57
I0
sg58
I0
sg59
I0
sg60
g61
sg62
I00
sg63
g1735
sg64
(dp1739
g47
I0
sg48
I0
sg49
I2
sg50
I0
ssg66
I00
sg67
(dp1740
g47
I0
sg48
I0
sg49
I0
sg50
I0
ssg69
(dp1741
g47
I0
sg48
I0
sg49
I2
sg50
I0
ssg71
I0
sg72
I0
sg73
S'Blaqui'
p1742
sg75
I7
sg76
I0
sg77
(dp1743
g47
I0
sg48
I0
sg49
I0
sg50
I0
ssg79
I16
sg80
(g81
g1730
S'DL'
p1744
g32
tp1745
sg84
g32
sg85
(dp1746
g87
I8
sg88
I8
sg89
I5
sg90
I9
sg91
I8
sg92
I9
sg93
I3
sg94
I8
sg95
I6
sg96
I7
sg97
I7
sg98
I6
sg99
I2
sg100
I9
sg101
I6
ssg102
(dp1747
S's12'
p1748
(ijoueur
joueur
p1749
(dp1750
g27
I0
sg28
I0
sg29
I0
sg33
I0
sg35
g0
(g36
g2
Ntp1751
Rp1752
(dp1753
g41
g32
sbsg45
(dp1754
g47
I0
sg48
I0
sg49
I0
sg50
I0
ssg51
(dp1755
g47
I0
sg48
I0
sg49
I0
sg50
I0
ssg53
I0
sg54
g32
sg55
I0
sg57
I0
sg58
I0
sg59
I0
sg80
(g81
g1730
g32
g32
tp1756
sg62
I00
sg63
g0
(g36
g2
Ntp1757
Rp1758
(dp1759
g41
g32
sbsg64
(dp1760
g47
I0
sg48
I0
sg49
I0
sg50
I0
ssg66
I00
sg67
(dp1761
g47
I0
sg48
I0
sg49
I0
sg50
I0
ssg69
(dp1762
g47
I0
sg48
I0
sg49
I0
sg50
I0
ssg71
I0
sg72
I0
sg73
g32
sg75
I0
sg76
I0
sg77
(dp1763
g47
I0
sg48
I0
sg49
I0
sg50
I0
ssg79
I0
sg60
g61
sg85
(dp1764
g97
I0
sg88
I0
sg89
I0
sg90
I0
sg91
I0
sg87
I0
sg93
I0
sg94
I0
sg95
I0
sg96
I0
sg92
I0
sg98
I0
sg99
I0
sg100
I0
sg101
I0
ssg102
(dp1765
sg122
I0
sg123
g32
sg124
I0
sg125
I0
sg126
F0.0
sg127
I0
sg128
I0
sg129
I0
sg130
g1746
sg131
I0
sg132
I0
sg133
I0
sg134
I0
sg135
I0
sg136
I0
sg137
I0
sg138
g32
sbsS's11'
p1766
(ijoueur
joueur
p1767
(dp1768
g27
I0
sg28
I0
sg29
I0
sg33
I0
sg35
g0
(g36
g2
Ntp1769
Rp1770
(dp1771
g41
g32
sbsg45
(dp1772
g47
I0
sg48
I0
sg49
I0
sg50
I0
ssg51
(dp1773
g47
I0
sg48
I0
sg49
I0
sg50
I0
ssg53
I0
sg54
g32
sg55
I0
sg57
I0
sg58
I0
sg59
I0
sg80
g1756
sg62
I00
sg63
g0
(g36
g2
Ntp1774
Rp1775
(dp1776
g41
g32
sbsg64
(dp1777
g47
I0
sg48
I0
sg49
I0
sg50
I0
ssg66
I00
sg67
(dp1778
g47
I0
sg48
I0
sg49
I0
sg50
I0
ssg69
(dp1779
g47
I0
sg48
I0
sg49
I0
sg50
I0
ssg71
I0
sg72
I0
sg73
g32
sg75
I0
sg76
I0
sg77
(dp1780
g47
I0
sg48
I0
sg49
I0
sg50
I0
ssg79
I0
sg60
g61
sg85
(dp1781
g97
I0
sg88
I0
sg89
I0
sg90
I0
sg91
I0
sg87
I0
sg93
I0
sg94
I0
sg95
I0
sg96
I0
sg92
I0
sg98
I0
sg99
I0
sg100
I0
sg101
I0
ssg102
(dp1782
sg122
I0
sg123
g32
sg124
I0
sg125
I0
sg126
F0.0
sg127
I0
sg128
I0
sg129
I0
sg130
g1746
sg131
I0
sg132
I0
sg133
I0
sg134
I0
sg135
I0
sg136
I0
sg137
I0
sg138
g32
sbssg122
I0
sg123
g32
sg124
I0
sg125
I0
sg126
F7.823529411764706
sg127
I0
sg128
I0
sg129
I0
sg130
g1746
sg131
I0
sg132
I0
sg133
I0
sg134
I0
sg135
I1
sg136
I0
sg137
I0
sg138
g156
sba(ijoueur
joueur
p1783
(dp1784
g27
I0
sg28
I0
sg29
I0
sg30
F35.75564456199217
sg31
g32
sg33
I0
sg34
g32
sg35
g0
(g36
g2
Ntp1785
Rp1786
(dp1787
g40
I3
sg41
g322
sg43
g323
sbsg45
(dp1788
g47
I0
sg48
I0
sg49
I0
sg50
I0
ssg51
(dp1789
g47
I0
sg48
I0
sg49
I0
sg50
I0
ssg53
I20
sg54
g32
sg55
I0
sg56
F35.75564456199217
sg57
I0
sg58
I0
sg59
I0
sg60
g61
sg62
I00
sg63
g1786
sg64
(dp1790
g47
I0
sg48
I0
sg49
I2
sg50
I2
ssg66
I00
sg67
(dp1791
g47
I0
sg48
I0
sg49
I0
sg50
I0
ssg69
(dp1792
g47
I0
sg48
I0
sg49
I2
sg50
I2
ssg71
I0
sg72
I0
sg73
S'Trem'
p1793
sg75
I11
sg76
I0
sg77
(dp1794
g47
I0
sg48
I0
sg49
I0
sg50
I0
ssg79
I23
sg80
(g81
g1730
g32
g32
tp1795
sg84
g32
sg85
(dp1796
g87
I8
sg88
I10
sg89
I8
sg90
I9
sg91
I8
sg92
I7
sg93
I3
sg94
I10
sg95
I4
sg96
I9
sg97
I7
sg98
I6
sg99
I3
sg100
I8
sg101
I6
ssg102
(dp1797
S's12'
p1798
(ijoueur
joueur
p1799
(dp1800
g27
I0
sg28
I0
sg29
I0
sg33
I0
sg35
g0
(g36
g2
Ntp1801
Rp1802
(dp1803
g41
g32
sbsg45
(dp1804
g47
I0
sg48
I0
sg49
I0
sg50
I0
ssg51
(dp1805
g47
I0
sg48
I0
sg49
I0
sg50
I0
ssg53
I0
sg54
g32
sg55
I0
sg57
I0
sg58
I0
sg59
I0
sg80
(g81
g1730
g32
g32
tp1806
sg62
I00
sg63
g0
(g36
g2
Ntp1807
Rp1808
(dp1809
g41
g32
sbsg64
(dp1810
g47
I0
sg48
I0
sg49
I0
sg50
I0
ssg66
I00
sg67
(dp1811
g47
I0
sg48
I0
sg49
I0
sg50
I0
ssg69
(dp1812
g47
I0
sg48
I0
sg49
I0
sg50
I0
ssg71
I0
sg72
I0
sg73
g32
sg75
I0
sg76
I0
sg77
(dp1813
g47
I0
sg48
I0
sg49
I0
sg50
I0
ssg79
I0
sg60
g61
sg85
(dp1814
g97
I0
sg88
I0
sg89
I0
sg90
I0
sg91
I0
sg87
I0
sg93
I0
sg94
I0
sg95
I0
sg96
I0
sg92
I0
sg98
I0
sg99
I0
sg100
I0
sg101
I0
ssg102
(dp1815
sg122
I0
sg123
g32
sg124
I0
sg125
I0
sg126
F0.0
sg127
I0
sg128
I0
sg129
I0
sg130
g1796
sg131
I0
sg132
I0
sg133
I0
sg134
I0
sg135
I0
sg136
I0
sg137
I0
sg138
g32
sbsS's11'
p1816
(ijoueur
joueur
p1817
(dp1818
g27
I0
sg28
I0
sg29
I0
sg33
I0
sg35
g0
(g36
g2
Ntp1819
Rp1820
(dp1821
g41
g32
sbsg45
(dp1822
g47
I0
sg48
I0
sg49
I0
sg50
I0
ssg51
(dp1823
g47
I0
sg48
I0
sg49
I0
sg50
I0
ssg53
I0
sg54
g32
sg55
I0
sg57
I0
sg58
I0
sg59
I0
sg80
g1806
sg62
I00
sg63
g0
(g36
g2
Ntp1824
Rp1825
(dp1826
g41
g32
sbsg64
(dp1827
g47
I0
sg48
I0
sg49
I0
sg50
I0
ssg66
I00
sg67
(dp1828
g47
I0
sg48
I0
sg49
I0
sg50
I0
ssg69
(dp1829
g47
I0
sg48
I0
sg49
I0
sg50
I0
ssg71
I0
sg72
I0
sg73
g32
sg75
I0
sg76
I0
sg77
(dp1830
g47
I0
sg48
I0
sg49
I0
sg50
I0
ssg79
I0
sg60
g61
sg85
(dp1831
g97
I0
sg88
I0
sg89
I0
sg90
I0
sg91
I0
sg87
I0
sg93
I0
sg94
I0
sg95
I0
sg96
I0
sg92
I0
sg98
I0
sg99
I0
sg100
I0
sg101
I0
ssg102
(dp1832
sg122
I0
sg123
g32
sg124
I0
sg125
I0
sg126
F0.0
sg127
I0
sg128
I0
sg129
I0
sg130
g1796
sg131
I0
sg132
I0
sg133
I0
sg134
I0
sg135
I0
sg136
I0
sg137
I0
sg138
g32
sbssg122
I0
sg123
g32
sg124
I0
sg125
I0
sg126
F8.296296296296296
sg127
I0
sg128
I0
sg129
I0
sg130
g1796
sg131
I0
sg132
I0
sg133
I0
sg134
I0
sg135
I2
sg136
I0
sg137
I0
sg138
g156
sba(ijoueur
joueur
p1833
(dp1834
g27
I0
sg28
I0
sg29
I0
sg30
F17.45723350276741
sg31
g32
sg33
I0
sg34
g32
sg35
g0
(g36
g2
Ntp1835
Rp1836
(dp1837
g40
I3
sg41
g1665
sg43
g323
sbsg45
(dp1838
g47
I0
sg48
I0
sg49
I2
sg50
I0
ssg51
(dp1839
g47
I0
sg48
I0
sg49
I0
sg50
I0
ssg53
I21
sg54
g32
sg55
I0
sg56
F17.45723350276741
sg57
I0
sg58
I0
sg59
I0
sg60
g61
sg62
I00
sg63
g0
(g36
g2
Ntp1840
Rp1841
(dp1842
g40
I1
sg41
g329
sg43
g269
sbsg64
(dp1843
g47
I0
sg48
I0
sg49
I0
sg50
I0
ssg66
I00
sg67
(dp1844
g47
I0
sg48
I0
sg49
I0
sg50
I0
ssg69
(dp1845
g47
I0
sg48
I0
sg49
I0
sg50
I0
ssg71
I0
sg72
I0
sg73
S'Suelden'
p1846
sg75
I13
sg76
I0
sg77
(dp1847
g47
I0
sg48
I0
sg49
I2
sg50
I0
ssg79
I8
sg80
(g81
g1730
S'TA'
p1848
S'DL'
p1849
tp1850
sg84
g32
sg85
(dp1851
g87
I7
sg88
I9
sg89
I6
sg90
I7
sg91
I7
sg92
I7
sg93
I3
sg94
I7
sg95
I3
sg96
I7
sg97
I7
sg98
I6
sg99
I5
sg100
I7
sg101
I9
ssg102
(dp1852
sg122
I0
sg123
g32
sg124
I0
sg125
I0
sg126
F7.275862068965517
sg127
I0
sg128
I0
sg129
I0
sg130
g1851
sg131
I0
sg132
I0
sg133
I0
sg134
I0
sg135
I0
sg136
I0
sg137
I0
sg138
g156
sba(ijoueur
joueur
p1853
(dp1854
g27
I0
sg28
I0
sg29
I0
sg30
F101.16498011863213
sg31
g32
sg33
I0
sg34
g32
sg35
g0
(g36
g2
Ntp1855
Rp1856
(dp1857
g40
I2
sg41
g42
sg43
g44
sbsg45
(dp1858
g47
I0
sg48
I0
sg49
I0
sg50
I1
ssg51
(dp1859
g47
I0
sg48
I0
sg49
I0
sg50
I0
ssg53
I17
sg54
g32
sg55
I0
sg56
F101.16498011863213
sg57
I0
sg58
I0
sg59
I0
sg60
g61
sg62
I00
sg63
g1856
sg64
(dp1860
g47
I0
sg48
I0
sg49
I0
sg50
I10
ssg66
I00
sg67
(dp1861
g47
I0
sg48
I0
sg49
I0
sg50
I0
ssg69
(dp1862
g47
I0
sg48
I0
sg49
I0
sg50
I10
ssg71
I0
sg72
I0
sg73
S'Komfo'
p1863
sg75
I9
sg76
I0
sg77
(dp1864
g47
I0
sg48
I0
sg49
I0
sg50
I1
ssg79
I23
sg80
(g81
g1730
S'TL'
p1865
g32
tp1866
sg84
g32
sg85
(dp1867
g87
I8
sg88
I8
sg89
I6
sg90
I10
sg91
I7
sg92
I9
sg93
I2
sg94
I8
sg95
I4
sg96
I6
sg97
I6
sg98
I11
sg99
I5
sg100
I8
sg101
I8
ssg102
(dp1868
S's12'
p1869
(ijoueur
joueur
p1870
(dp1871
g27
I0
sg28
I0
sg29
I0
sg33
I0
sg35
g0
(g36
g2
Ntp1872
Rp1873
(dp1874
g41
g32
sbsg45
(dp1875
g47
I0
sg48
I0
sg49
I0
sg50
I0
ssg51
(dp1876
g47
I0
sg48
I0
sg49
I0
sg50
I0
ssg53
I0
sg54
g32
sg55
I0
sg57
I0
sg58
I0
sg59
I0
sg80
(g81
g1730
g32
g32
tp1877
sg62
I00
sg63
g0
(g36
g2
Ntp1878
Rp1879
(dp1880
g41
g32
sbsg64
(dp1881
g47
I0
sg48
I0
sg49
I0
sg50
I0
ssg66
I00
sg67
(dp1882
g47
I0
sg48
I0
sg49
I0
sg50
I0
ssg69
(dp1883
g47
I0
sg48
I0
sg49
I0
sg50
I0
ssg71
I0
sg72
I0
sg73
g32
sg75
I0
sg76
I0
sg77
(dp1884
g47
I0
sg48
I0
sg49
I0
sg50
I0
ssg79
I0
sg60
g61
sg85
(dp1885
g97
I0
sg88
I0
sg89
I0
sg90
I0
sg91
I0
sg87
I0
sg93
I0
sg94
I0
sg95
I0
sg96
I0
sg92
I0
sg98
I0
sg99
I0
sg100
I0
sg101
I0
ssg102
(dp1886
sg122
I0
sg123
g32
sg124
I0
sg125
I0
sg126
F0.0
sg127
I0
sg128
I0
sg129
I0
sg130
g1867
sg131
I0
sg132
I0
sg133
I0
sg134
I0
sg135
I0
sg136
I0
sg137
I0
sg138
g32
sbsS's11'
p1887
(ijoueur
joueur
p1888
(dp1889
g27
I0
sg28
I0
sg29
I0
sg33
I0
sg35
g0
(g36
g2
Ntp1890
Rp1891
(dp1892
g41
g32
sbsg45
(dp1893
g47
I0
sg48
I0
sg49
I0
sg50
I0
ssg51
(dp1894
g47
I0
sg48
I0
sg49
I0
sg50
I0
ssg53
I0
sg54
g32
sg55
I0
sg57
I0
sg58
I0
sg59
I0
sg80
g1877
sg62
I00
sg63
g0
(g36
g2
Ntp1895
Rp1896
(dp1897
g41
g32
sbsg64
(dp1898
g47
I0
sg48
I0
sg49
I0
sg50
I0
ssg66
I00
sg67
(dp1899
g47
I0
sg48
I0
sg49
I0
sg50
I0
ssg69
(dp1900
g47
I0
sg48
I0
sg49
I0
sg50
I0
ssg71
I0
sg72
I0
sg73
g32
sg75
I0
sg76
I0
sg77
(dp1901
g47
I0
sg48
I0
sg49
I0
sg50
I0
ssg79
I0
sg60
g61
sg85
(dp1902
g97
I0
sg88
I0
sg89
I0
sg90
I0
sg91
I0
sg87
I0
sg93
I0
sg94
I0
sg95
I0
sg96
I0
sg92
I0
sg98
I0
sg99
I0
sg100
I0
sg101
I0
ssg102
(dp1903
sg122
I0
sg123
g32
sg124
I0
sg125
I0
sg126
F0.0
sg127
I0
sg128
I0
sg129
I0
sg130
g1867
sg131
I0
sg132
I0
sg133
I0
sg134
I0
sg135
I0
sg136
I0
sg137
I0
sg138
g32
sbssg122
I0
sg123
g32
sg124
I0
sg125
I0
sg126
F8.777777777777779
sg127
I0
sg128
I0
sg129
I0
sg130
g1867
sg131
I0
sg132
I0
sg133
I0
sg134
I0
sg135
I2
sg136
I0
sg137
I0
sg138
S'O'
p1904
sba(ijoueur
joueur
p1905
(dp1906
g27
I0
sg28
I0
sg29
I0
sg30
F80.8812223327702
sg31
g32
sg33
I0
sg34
g32
sg35
g0
(g36
g2
Ntp1907
Rp1908
(dp1909
g40
I3
sg41
g1665
sg43
g323
sbsg45
(dp1910
g47
I0
sg48
I0
sg49
I3
sg50
I0
ssg51
(dp1911
g47
I0
sg48
I0
sg49
I0
sg50
I0
ssg53
I20
sg54
g32
sg55
I0
sg56
F80.8812223327702
sg57
I0
sg58
I0
sg59
I0
sg60
g61
sg62
I00
sg63
g0
(g36
g2
Ntp1912
Rp1913
(dp1914
g40
I2
sg41
g42
sg43
g44
sbsg64
(dp1915
g47
I0
sg48
I0
sg49
I3
sg50
I3
ssg66
I00
sg67
(dp1916
g47
I0
sg48
I0
sg49
I0
sg50
I0
ssg69
(dp1917
g47
I0
sg48
I0
sg49
I3
sg50
I3
ssg71
I0
sg72
I0
sg73
S'Wumidel'
p1918
sg75
I13
sg76
I0
sg77
(dp1919
g47
I0
sg48
I0
sg49
I3
sg50
I0
ssg79
I36
sg80
(g81
g1730
S'DL'
p1920
g32
tp1921
sg84
g32
sg85
(dp1922
g87
I9
sg88
I11
sg89
I7
sg90
I9
sg91
I6
sg92
I8
sg93
I5
sg94
I9
sg95
I6
sg96
I6
sg97
I7
sg98
I7
sg99
I6
sg100
I8
sg101
I6
ssg102
(dp1923
sg122
I0
sg123
g32
sg124
I0
sg125
I0
sg126
F8.481481481481481
sg127
I0
sg128
I0
sg129
I0
sg130
g1922
sg131
I0
sg132
I0
sg133
I0
sg134
I0
sg135
I3
sg136
I0
sg137
I0
sg138
g156
sba(ijoueur
joueur
p1924
(dp1925
g481
F8.814814814814815
sg27
I0
sg482
F8.407407407407407
sg123
g32
sg29
I0
sg30
F109.47504636850027
sg33
I0
sg35
g0
(g36
g2
Ntp1926
Rp1927
(dp1928
g40
I4
sg41
S'x'
p1929
sg43
S'heros'
p1930
sbsg45
(dp1931
S'SR'
p1932
I0
sS'CT'
p1933
I1
sS'CR'
p1934
I0
sS'ST'
p1935
I0
ssg51
(dp1936
g1932
I0
sg1933
I0
sg1934
I0
sg1935
I0
ssg494
I0
sg77
(dp1937
g496
I0
sg497
I0
sg498
I0
sg499
I0
ssS'drop_rates_total'
p1938
I0
sg55
I0
sg56
F109.47504636850027
sg57
I3
sg58
I0
sg59
I0
sg80
(S'dummy'
p1939
S'PI'
p1940
S'TL'
p1941
g32
tp1942
sg62
I00
sg63
g1927
sg64
(dp1943
g496
I0
sg497
I0
sg498
I0
sg499
I12
ssg66
I00
sg67
(dp1944
g496
I0
sg497
I0
sg498
I0
sg499
I0
ssg69
(dp1945
g1932
I0
sg1933
I15
sg1934
I7
sg1935
I0
ssg71
I0
sg72
I0
sg73
S'Dyomendal'
p1946
sg75
I10
sg76
I0
sg53
I25
sg79
I115
sg60
g61
sg85
(dp1947
S'A'
p1948
I11
sS'ME'
p1949
I8
sS'RP2'
p1950
I8
sS'E'
p1951
I12
sS'P'
p1952
I7
sS'RP1'
p1953
I8
sS'JP'
p1954
I5
sS'RP_tot'
p1955
I10
sS'TO'
p1956
I9
sS'PA'
p1957
I13
sS'M'
p1958
I11
sS'R'
p1959
I8
sS'TB'
p1960
I9
sS'PL'
p1961
I10
sS'TA'
p1962
I7
ssg102
(dp1963
g526
(ijoueur
joueur
p1964
(dp1965
g481
F8.814814814814815
sg27
I0
sg123
g32
sg29
I0
sg33
I0
sg35
g0
(g36
g2
Ntp1966
Rp1967
(dp1968
g40
I4
sg41
S'x'
p1969
sg43
S'heros'
p1970
sbsg45
(dp1971
S'SR'
p1972
I0
sS'CT'
p1973
I1
sS'CR'
p1974
I0
sS'ST'
p1975
I0
ssg51
(dp1976
g1972
I0
sg1973
I0
sg1974
I0
sg1975
I0
ssg1938
I0
sg126
F8.407407407407407
sg55
I0
sg57
I0
sg58
I0
sg59
I0
sg80
(S'dummy'
p1977
S'PI'
p1978
S'TL'
p1979
g32
tp1980
sg62
I00
sg63
g0
(g36
g2
Ntp1981
Rp1982
(dp1983
g40
I3
sg41
g1376
sg43
g1377
sbsg64
(dp1984
g542
I0
sg543
I0
sg544
I0
sg545
I0
ssg66
I00
sg67
(dp1985
g542
I0
sg543
I0
sg544
I0
sg545
I0
ssg69
(dp1986
g1972
I0
sg1973
I3
sg1974
I7
sg1975
I0
ssg71
I0
sg72
I0
sg73
S'Dyomendal'
p1987
sg75
I10
sg76
I0
sg53
I25
sg79
I20
sg60
g540
sg85
(dp1988
S'A'
p1989
I8
sS'ME'
p1990
I7
sS'RP2'
p1991
I6
sS'E'
p1992
I11
sS'P'
p1993
I7
sS'RP1'
p1994
I7
sS'JP'
p1995
I5
sS'RP_tot'
p1996
I7
sS'TO'
p1997
I6
sS'PA'
p1998
I10
sS'M'
p1999
I12
sS'R'
p2000
I9
sS'TB'
p2001
I8
sS'PL'
p2002
I7
sS'TA'
p2003
I6
ssg102
(dp2004
g570
(ijoueur
joueur
p2005
(dp2006
g27
I0
sg29
I0
sg33
I0
sg35
g0
(g36
g2
Ntp2007
Rp2008
(dp2009
g40
I4
sg41
S'x'
p2010
sg43
S'heros'
p2011
sbsg45
(dp2012
S'SR'
p2013
I0
sS'ST'
p2014
I0
sS'CR'
p2015
I0
sS'CT'
p2016
I1
ssg51
(dp2017
g2013
I0
sg2014
I0
sg2015
I0
sg2016
I0
ssg1938
I0
sg55
I0
sg66
I00
sg57
I0
sg58
I0
sg59
I0
sg80
(S'dummy'
p2018
S'PI'
p2019
S'TL'
p2020
g32
tp2021
sg62
I01
sg63
g0
(g36
g2
Ntp2022
Rp2023
(dp2024
g40
I2
sg41
S'<<'
p2025
sg43
S'special'
p2026
sbsg64
(dp2027
g2013
I0
sg2014
I0
sg2015
I7
sg2016
I3
ssg77
(dp2028
g2013
I0
sg2014
I0
sg2015
I0
sg2016
I1
ssg67
(dp2029
g2013
I0
sg2014
I0
sg2015
I0
sg2016
I0
ssg69
(dp2030
g2013
I0
sg2014
I0
sg2015
I7
sg2016
I3
ssg71
I0
sg72
I0
sg73
S'Dyomendal'
p2031
sg75
I10
sg76
I0
sg53
I25
sg79
I20
sg60
S'GP'
p2032
sg85
(dp2033
S'A'
p2034
I8
sS'ME'
p2035
I8
sS'RP2'
p2036
I6
sS'E'
p2037
I11
sS'TO'
p2038
I6
sS'RP1'
p2039
I7
sS'JP'
p2040
I3
sS'RP_tot'
p2041
I7
sS'P'
p2042
I6
sS'PA'
p2043
I10
sS'M'
p2044
I12
sS'R'
p2045
I10
sS'TB'
p2046
I6
sS'PL'
p2047
I7
sS'TA'
p2048
I7
ssg122
I0
sg28
I0
sg124
I0
sg125
I0
sg126
F8.814814814814815
sg127
I0
sg128
I0
sg129
I0
sg615
(dp2049
S'A'
p2050
I8
sS'ME'
p2051
I8
sS'RP2'
p2052
I6
sS'E'
p2053
I11
sS'TO'
p2054
I6
sS'RP1'
p2055
I7
sS'JP'
p2056
I3
sS'RP_tot'
p2057
I7
sS'P'
p2058
I6
sS'PA'
p2059
I10
sS'M'
p2060
I12
sS'R'
p2061
I10
sS'TB'
p2062
I6
sS'PL'
p2063
I7
sS'TA'
p2064
I7
ssg130
g2033
sg131
I0
sg54
g32
sg132
I0
sg133
I0
sg134
I0
sg135
I2
sg136
I0
sg137
I0
sg138
S'ES'
p2065
sbssg122
I0
sg28
I0
sg124
I0
sg125
I0
sg77
(dp2066
g542
I0
sg543
I0
sg544
I0
sg545
I0
ssg127
I0
sg128
I0
sg129
I0
sg615
(dp2067
g1989
I8
sg1990
I8
sg1991
I6
sg1992
I11
sg1997
I6
sg1994
I7
sg1995
I3
sg1996
I7
sg1993
I6
sg1998
I10
sg1999
I12
sg2000
I10
sg2001
I6
sg2002
I7
sg2003
I7
ssg130
g1988
sg131
I0
sg54
S'GP 12'
p2068
sg132
I0
sg133
I0
sg134
I0
sg135
I2
sg136
I0
sg137
I0
sg138
S'ES'
p2069
sbsg636
(ijoueur
joueur
p2070
(dp2071
g27
I0
sg29
I0
sg33
I0
sg35
g0
(g36
g2
Ntp2072
Rp2073
(dp2074
g40
I4
sg41
S'x'
p2075
sg43
S'heros'
p2076
sbsg45
(dp2077
S'SR'
p2078
I0
sS'ST'
p2079
I0
sS'CR'
p2080
I0
sS'CT'
p2081
I1
ssg51
(dp2082
g2078
I0
sg2079
I0
sg2080
I0
sg2081
I0
ssg1938
I0
sg55
I0
sg66
I00
sg57
I0
sg58
I0
sg59
I0
sg80
(S'dummy'
p2083
S'PI'
p2084
S'TL'
p2085
g32
tp2086
sg62
I01
sg63
g0
(g36
g2
Ntp2087
Rp2088
(dp2089
g40
I2
sg41
S'<<'
p2090
sg43
S'special'
p2091
sbsg64
(dp2092
g2078
I0
sg2079
I0
sg2080
I7
sg2081
I3
ssg77
(dp2093
g2078
I0
sg2079
I0
sg2080
I0
sg2081
I1
ssg67
(dp2094
g2078
I0
sg2079
I0
sg2080
I0
sg2081
I0
ssg69
(dp2095
g2078
I0
sg2079
I0
sg2080
I7
sg2081
I3
ssg71
I0
sg72
I0
sg73
S'Dyomendal'
p2096
sg75
I10
sg76
I0
sg53
I25
sg79
I20
sg60
S'GP'
p2097
sg85
(dp2098
S'A'
p2099
I8
sS'ME'
p2100
I8
sS'RP2'
p2101
I6
sS'E'
p2102
I11
sS'TO'
p2103
I6
sS'RP1'
p2104
I7
sS'JP'
p2105
I3
sS'RP_tot'
p2106
I7
sS'P'
p2107
I6
sS'PA'
p2108
I10
sS'M'
p2109
I12
sS'R'
p2110
I10
sS'TB'
p2111
I6
sS'PL'
p2112
I7
sS'TA'
p2113
I7
ssg122
I0
sg28
I0
sg124
I0
sg125
I0
sg126
F8.814814814814815
sg127
I0
sg128
I0
sg129
I0
sg615
(dp2114
S'A'
p2115
I8
sS'ME'
p2116
I8
sS'RP2'
p2117
I6
sS'E'
p2118
I11
sS'TO'
p2119
I6
sS'RP1'
p2120
I7
sS'JP'
p2121
I3
sS'RP_tot'
p2122
I7
sS'P'
p2123
I6
sS'PA'
p2124
I10
sS'M'
p2125
I12
sS'R'
p2126
I10
sS'TB'
p2127
I6
sS'PL'
p2128
I7
sS'TA'
p2129
I7
ssg130
g2098
sg131
I0
sg54
g32
sg132
I0
sg133
I0
sg134
I0
sg135
I2
sg136
I0
sg137
I0
sg138
S'ES'
p2130
sbssg122
I0
sg28
I0
sg124
I0
sg125
I0
sg126
F9.703703703703704
sg127
I0
sg128
I0
sg129
I0
sg615
(dp2131
g1948
I8
sg1949
I8
sg1950
I6
sg1951
I11
sg1956
I6
sg1953
I7
sg1954
I3
sg1955
I7
sg1952
I6
sg1957
I10
sg1958
I12
sg1959
I10
sg1960
I6
sg1961
I7
sg1962
I7
ssg130
g1947
sg131
I0
sg699
(dp2132
sg132
I0
sg54
S'GP 12;vide 13'
p2133
sg133
I0
sg134
I0
sg135
I11
sg136
I3
sg137
I0
sg138
S'ES'
p2134
sbasg101
(lp2135
(ijoueur
joueur
p2136
(dp2137
g27
I0
sg28
I0
sg29
I0
sg30
F127.8270507510563
sg31
g32
sg33
I0
sg34
g32
sg35
g0
(g36
g2
Ntp2138
Rp2139
(dp2140
g40
I3
sg41
g1665
sg43
g323
sbsg45
(dp2141
g47
I0
sg48
I0
sg49
I0
sg50
I0
ssg51
(dp2142
g47
I0
sg48
I0
sg49
I0
sg50
I0
ssg53
I22
sg54
g32
sg55
I0
sg56
F127.8270507510563
sg57
I0
sg58
I0
sg59
I0
sg60
g61
sg62
I00
sg63
g0
(g36
g2
Ntp2143
Rp2144
(dp2145
g40
I1
sg41
g329
sg43
g269
sbsg64
(dp2146
g47
I0
sg48
I0
sg49
I13
sg50
I1
ssg66
I00
sg67
(dp2147
g47
I0
sg48
I0
sg49
I0
sg50
I0
ssg69
(dp2148
g47
I0
sg48
I0
sg49
I13
sg50
I1
ssg71
I0
sg72
I0
sg73
S'Hualmadir'
p2149
sg75
I12
sg76
I0
sg77
(dp2150
g47
I0
sg48
I0
sg49
I0
sg50
I0
ssg79
I9
sg80
(g81
g101
g32
g32
tp2151
sg84
g32
sg85
(dp2152
g87
I8
sg88
I7
sg89
I6
sg90
I9
sg91
I6
sg92
I7
sg93
I3
sg94
I8
sg95
I4
sg96
I6
sg97
I9
sg98
I8
sg99
I4
sg100
I7
sg101
I9
ssg102
(dp2153
S's12'
p2154
(ijoueur
joueur
p2155
(dp2156
g27
I0
sg28
I0
sg29
I0
sg33
I0
sg35
g0
(g36
g2
Ntp2157
Rp2158
(dp2159
g41
g32
sbsg45
(dp2160
g47
I0
sg48
I0
sg49
I0
sg50
I0
ssg51
(dp2161
g47
I0
sg48
I0
sg49
I0
sg50
I0
ssg53
I0
sg54
g32
sg55
I0
sg57
I0
sg58
I0
sg59
I0
sg80
(g81
g101
g32
g32
tp2162
sg62
I00
sg63
g0
(g36
g2
Ntp2163
Rp2164
(dp2165
g41
g32
sbsg64
(dp2166
g47
I0
sg48
I0
sg49
I0
sg50
I0
ssg66
I00
sg67
(dp2167
g47
I0
sg48
I0
sg49
I0
sg50
I0
ssg69
(dp2168
g47
I0
sg48
I0
sg49
I0
sg50
I0
ssg71
I0
sg72
I0
sg73
g32
sg75
I0
sg76
I0
sg77
(dp2169
g47
I0
sg48
I0
sg49
I0
sg50
I0
ssg79
I0
sg60
g61
sg85
(dp2170
g97
I0
sg88
I0
sg89
I0
sg90
I0
sg91
I0
sg87
I0
sg93
I0
sg94
I0
sg95
I0
sg96
I0
sg92
I0
sg98
I0
sg99
I0
sg100
I0
sg101
I0
ssg102
(dp2171
sg122
I0
sg123
g32
sg124
I0
sg125
I0
sg126
F0.0
sg127
I0
sg128
I0
sg129
I0
sg130
g2152
sg131
I0
sg132
I0
sg133
I0
sg134
I0
sg135
I0
sg136
I0
sg137
I0
sg138
g32
sbssg122
I0
sg123
g32
sg124
I0
sg125
I0
sg126
F8.0
sg127
I0
sg128
I0
sg129
I0
sg130
g2152
sg131
I0
sg132
I0
sg133
I0
sg134
I0
sg135
I0
sg136
I0
sg137
I0
sg138
g156
sba(ijoueur
joueur
p2172
(dp2173
g27
I0
sg28
I0
sg29
I0
sg30
F109.63015838975213
sg31
g32
sg33
I0
sg34
g32
sg35
g0
(g36
g2
Ntp2174
Rp2175
(dp2176
g40
I5
sg41
g162
sg43
g163
sbsg45
(dp2177
g47
I0
sg48
I0
sg49
I0
sg50
I0
ssg51
(dp2178
g47
I0
sg48
I0
sg49
I0
sg50
I0
ssg53
I19
sg54
g32
sg55
I0
sg56
F109.63015838975213
sg57
I0
sg58
I0
sg59
I0
sg60
g61
sg62
I00
sg63
g2175
sg64
(dp2179
g47
I0
sg48
I0
sg49
I0
sg50
I12
ssg66
I00
sg67
(dp2180
g47
I0
sg48
I0
sg49
I0
sg50
I0
ssg69
(dp2181
g47
I0
sg48
I0
sg49
I0
sg50
I12
ssg71
I0
sg72
I0
sg73
S'Sivielt'
p2182
sg75
I8
sg76
I0
sg77
(dp2183
g47
I0
sg48
I0
sg49
I0
sg50
I0
ssg79
I180
sg80
(g81
g101
S'N8'
p2184
g32
tp2185
sg84
g32
sg85
(dp2186
g87
I9
sg88
I9
sg89
I10
sg90
I10
sg91
I9
sg92
I8
sg93
I4
sg94
I11
sg95
I5
sg96
I9
sg97
I12
sg98
I9
sg99
I5
sg100
I11
sg101
I10
ssg102
(dp2187
S's12'
p2188
(ijoueur
joueur
p2189
(dp2190
g27
I0
sg28
I0
sg29
I0
sg33
I0
sg35
g0
(g36
g2
Ntp2191
Rp2192
(dp2193
g41
g32
sbsg45
(dp2194
g47
I0
sg48
I0
sg49
I0
sg50
I0
ssg51
(dp2195
g47
I0
sg48
I0
sg49
I0
sg50
I0
ssg53
I0
sg54
g32
sg55
I0
sg57
I0
sg58
I0
sg59
I0
sg80
(g81
g101
g32
g32
tp2196
sg62
I00
sg63
g0
(g36
g2
Ntp2197
Rp2198
(dp2199
g41
g32
sbsg64
(dp2200
g47
I0
sg48
I0
sg49
I0
sg50
I0
ssg66
I00
sg67
(dp2201
g47
I0
sg48
I0
sg49
I0
sg50
I0
ssg69
(dp2202
g47
I0
sg48
I0
sg49
I0
sg50
I0
ssg71
I0
sg72
I0
sg73
g32
sg75
I0
sg76
I0
sg77
(dp2203
g47
I0
sg48
I0
sg49
I0
sg50
I0
ssg79
I0
sg60
g61
sg85
(dp2204
g97
I0
sg88
I0
sg89
I0
sg90
I0
sg91
I0
sg87
I0
sg93
I0
sg94
I0
sg95
I0
sg96
I0
sg92
I0
sg98
I0
sg99
I0
sg100
I0
sg101
I0
ssg102
(dp2205
sg122
I0
sg123
g32
sg124
I0
sg125
I0
sg126
F0.0
sg127
I0
sg128
I0
sg129
I0
sg130
g2186
sg131
I0
sg132
I0
sg133
I0
sg134
I0
sg135
I0
sg136
I0
sg137
I0
sg138
g32
sbsS's11'
p2206
(ijoueur
joueur
p2207
(dp2208
g27
I0
sg28
I0
sg29
I0
sg33
I0
sg35
g0
(g36
g2
Ntp2209
Rp2210
(dp2211
g41
g32
sbsg45
(dp2212
g47
I0
sg48
I0
sg49
I0
sg50
I0
ssg51
(dp2213
g47
I0
sg48
I0
sg49
I0
sg50
I0
ssg53
I0
sg54
g32
sg55
I0
sg57
I0
sg58
I0
sg59
I0
sg80
g2196
sg62
I00
sg63
g0
(g36
g2
Ntp2214
Rp2215
(dp2216
g41
g32
sbsg64
(dp2217
g47
I0
sg48
I0
sg49
I0
sg50
I0
ssg66
I00
sg67
(dp2218
g47
I0
sg48
I0
sg49
I0
sg50
I0
ssg69
(dp2219
g47
I0
sg48
I0
sg49
I0
sg50
I0
ssg71
I0
sg72
I0
sg73
g32
sg75
I0
sg76
I0
sg77
(dp2220
g47
I0
sg48
I0
sg49
I0
sg50
I0
ssg79
I0
sg60
g61
sg85
(dp2221
g97
I0
sg88
I0
sg89
I0
sg90
I0
sg91
I0
sg87
I0
sg93
I0
sg94
I0
sg95
I0
sg96
I0
sg92
I0
sg98
I0
sg99
I0
sg100
I0
sg101
I0
ssg102
(dp2222
sg122
I0
sg123
g32
sg124
I0
sg125
I0
sg126
F0.0
sg127
I0
sg128
I0
sg129
I0
sg130
g2186
sg131
I0
sg132
I0
sg133
I0
sg134
I0
sg135
I0
sg136
I0
sg137
I0
sg138
g32
sbssg122
I0
sg123
g32
sg124
I0
sg125
I0
sg126
F10.0
sg127
I0
sg128
I0
sg129
I0
sg130
g2186
sg131
I0
sg132
I0
sg133
I0
sg134
I0
sg135
I18
sg136
I0
sg137
I0
sg138
g156
sba(ijoueur
joueur
p2223
(dp2224
g27
I0
sg28
I0
sg29
I0
sg30
F117.71031966889477
sg31
g32
sg33
I0
sg34
g32
sg35
g0
(g36
g2
Ntp2225
Rp2226
(dp2227
g40
I2
sg41
g42
sg43
g44
sbsg45
(dp2228
g47
I0
sg48
I0
sg49
I8
sg50
I3
ssg51
(dp2229
g47
I0
sg48
I0
sg49
I0
sg50
I0
ssg53
I25
sg54
g32
sg55
I0
sg56
F117.71031966889477
sg57
I1
sg58
I0
sg59
I0
sg60
g61
sg62
I00
sg63
g0
(g36
g2
Ntp2230
Rp2231
(dp2232
g40
I1
sg41
g268
sg43
g269
sbsg64
(dp2233
g47
I0
sg48
I0
sg49
I0
sg50
I2
ssg66
I00
sg67
(dp2234
g47
I0
sg48
I0
sg49
I0
sg50
I0
ssg69
(dp2235
g47
I0
sg48
I0
sg49
I0
sg50
I2
ssg71
I0
sg72
I0
sg73
S'Ynlea'
p2236
sg75
I12
sg76
I0
sg77
(dp2237
g47
I0
sg48
I0
sg49
I8
sg50
I3
ssg79
I9
sg80
(g81
g101
S'PI'
p2238
g32
tp2239
sg84
g32
sg85
(dp2240
g87
I8
sg88
I8
sg89
I7
sg90
I9
sg91
I7
sg92
I8
sg93
I0
sg94
I9
sg95
I2
sg96
I7
sg97
I10
sg98
I8
sg99
I1
sg100
I9
sg101
I7
ssg102
(dp2241
S's12'
p2242
(ijoueur
joueur
p2243
(dp2244
g27
I0
sg28
I0
sg29
I0
sg33
I0
sg35
g0
(g36
g2
Ntp2245
Rp2246
(dp2247
g41
g32
sbsg45
(dp2248
g47
I0
sg48
I0
sg49
I0
sg50
I0
ssg51
(dp2249
g47
I0
sg48
I0
sg49
I0
sg50
I0
ssg53
I0
sg54
g32
sg55
I0
sg57
I0
sg58
I0
sg59
I0
sg80
(g81
g101
g32
g32
tp2250
sg62
I00
sg63
g0
(g36
g2
Ntp2251
Rp2252
(dp2253
g41
g32
sbsg64
(dp2254
g47
I0
sg48
I0
sg49
I0
sg50
I0
ssg66
I00
sg67
(dp2255
g47
I0
sg48
I0
sg49
I0
sg50
I0
ssg69
(dp2256
g47
I0
sg48
I0
sg49
I0
sg50
I0
ssg71
I0
sg72
I0
sg73
g32
sg75
I0
sg76
I0
sg77
(dp2257
g47
I0
sg48
I0
sg49
I0
sg50
I0
ssg79
I0
sg60
g61
sg85
(dp2258
g97
I0
sg88
I0
sg89
I0
sg90
I0
sg91
I0
sg87
I0
sg93
I0
sg94
I0
sg95
I0
sg96
I0
sg92
I0
sg98
I0
sg99
I0
sg100
I0
sg101
I0
ssg102
(dp2259
sg122
I0
sg123
g32
sg124
I0
sg125
I0
sg126
F0.0
sg127
I0
sg128
I0
sg129
I0
sg130
g2240
sg131
I0
sg132
I0
sg133
I0
sg134
I0
sg135
I0
sg136
I0
sg137
I0
sg138
g32
sbssg122
I0
sg123
g32
sg124
I0
sg125
I0
sg126
F8.379310344827585
sg127
I0
sg128
I0
sg129
I1
sg130
g2240
sg131
I0
sg132
I0
sg133
I0
sg134
I0
sg135
I0
sg136
I1
sg137
I1
sg138
g156
sbassg73
g61
sS'masse_salariale'
p2260
I162
sS'difference_coupe'
p2261
I12
sS'bonus_offensif_championat'
p2262
I0
sS'nuls_coupe'
p2263
I0
sS'revenus'
p2264
I0
sS'gagnes_coupe'
p2265
I1
sS'budget'
p2266
I0
sS'compo_defaut'
p2267
(iclub
compo
p2268
(dp2269
S'caracs_old'
p2270
(dp2271
S'A'
p2272
F148.25
sS'ME'
p2273
F84.0
sS'E'
p2274
F177.0
sS'OplusAV'
p2275
F94.0
sS'OplusAR'
p2276
F101.5
sS'JP'
p2277
F89.75
sS'PA'
p2278
F93.25
sS'M'
p2279
F94.25
sS'OmoinsAR'
p2280
F87.5
sS'TO_off'
p2281
F94.25
sS'TO_def'
p2282
F87.0
sS'OmoinsAV'
p2283
F97.5
sS'R'
p2284
F166.5
ssS'totaux_old'
p2285
(dp2286
S'T2'
p2287
F165.75
sS'T3'
p2288
F88.5
sS'T1'
p2289
F170.5
ssS'roles'
p2290
(dp2291
S'SA_scd'
p2292
(ijoueur
joueur
p2293
(dp2294
g481
F9.75
sg27
I0
sg482
F9.972222222222221
sg123
g32
sg29
I0
sg30
I0
sg31
g32
sg33
I0
sg34
g32
sg35
g0
(g36
g2
Ntp2295
Rp2296
(dp2297
g40
I4
sg41
S'x'
p2298
sg43
S'heros'
p2299
sbsg45
(dp2300
S'SR'
p2301
I0
sS'CT'
p2302
I0
sS'CR'
p2303
I0
sS'ST'
p2304
I0
ssg51
(dp2305
g2301
I0
sg2302
I0
sg2303
I0
sg2304
I0
ssg494
I0
sg54
S'vide 13'
p2306
sg55
I0
sg56
I0
sg66
I00
sg57
I0
sg58
I0
sg59
I0
sg60
S'BIL'
p2307
sg62
I00
sg63
g2296
sg64
(dp2308
S'SR'
p2309
I0
sS'CT'
p2310
I0
sS'CR'
p2311
I0
sS'ST'
p2312
I0
ssg77
(dp2313
g2309
I0
sg2310
I0
sg2311
I0
sg2312
I0
ssg67
(dp2314
g2309
I0
sg2310
I0
sg2311
I0
sg2312
I0
ssg69
(dp2315
g2301
I0
sg2302
I0
sg2303
I0
sg2304
I10
ssg71
I0
sg72
I0
sg73
S'Vridiel'
p2316
sg75
I9
sg76
I0
sg53
I19
sg79
I180
sg80
(S'dummy'
p2317
S'N8'
p2318
S'DL'
p2319
g32
tp2320
sg84
g32
sg85
(dp2321
S'RP1'
p2322
I10
sS'ME'
p2323
I11
sS'RP2'
p2324
I10
sS'E'
p2325
I9
sS'TO'
p2326
I11
sS'M'
p2327
I7
sS'JP'
p2328
I5
sS'RP_tot'
p2329
I12
sS'P'
p2330
I6
sS'PA'
p2331
I9
sS'A'
p2332
I11
sS'R'
p2333
I6
sS'TB'
p2334
I6
sS'PL'
p2335
I10
sS'TA'
p2336
I7
ssg102
(dp2337
S's12'
p2338
(ijoueur
joueur
p2339
(dp2340
g481
F9.75
sg27
I0
sg123
g32
sg29
I0
sg31
g32
sg33
I0
sg34
g32
sg35
g0
(g36
g2
Ntp2341
Rp2342
(dp2343
g40
I4
sg41
S'x'
p2344
sg43
S'heros'
p2345
sbsg45
(dp2346
S'SR'
p2347
I0
sS'CT'
p2348
I0
sS'CR'
p2349
I0
sS'ST'
p2350
I0
ssg51
(dp2351
g2347
I0
sg2348
I0
sg2349
I0
sg2350
I0
ssg77
(dp2352
S'SR'
p2353
I0
sS'CT'
p2354
I0
sS'CR'
p2355
I0
sS'ST'
p2356
I0
ssg54
g32
sg55
I0
sg57
I0
sg58
I0
sg59
I0
sg60
S'vide'
p2357
sg62
I00
sg63
g2342
sg64
(dp2358
g2353
I0
sg2354
I0
sg2355
I0
sg2356
I7
ssg66
I00
sg67
(dp2359
g2353
I0
sg2354
I0
sg2355
I0
sg2356
I0
ssg69
(dp2360
g2347
I0
sg2348
I0
sg2349
I0
sg2350
I10
ssg71
I0
sg72
I0
sg73
S'Vridiel (12)'
p2361
sg75
I9
sg76
I0
sg53
I19
sg79
I180
sg80
(S'dummy'
p2362
S'N8'
p2363
S'DL'
p2364
g32
tp2365
sg84
g32
sg85
(dp2366
S'RP1'
p2367
I10
sS'ME'
p2368
I11
sS'RP2'
p2369
I10
sS'E'
p2370
I9
sS'P'
p2371
I6
sS'JP'
p2372
I5
sS'M'
p2373
I7
sS'RP_tot'
p2374
I12
sS'TO'
p2375
I11
sS'PA'
p2376
I9
sS'A'
p2377
I11
sS'R'
p2378
I7
sS'TB'
p2379
I6
sS'PL'
p2380
I10
sS'TA'
p2381
I7
ssg102
(dp2382
S's11'
p2383
(ijoueur
joueur
p2384
(dp2385
g27
I0
sg29
I0
sg31
g32
sg33
I0
sg34
g32
sg35
g0
(g36
g2
Ntp2386
Rp2387
(dp2388
g40
I4
sg41
S'x'
p2389
sg43
S'heros'
p2390
sbsg45
(dp2391
S'SR'
p2392
I0
sS'ST'
p2393
I0
sS'CR'
p2394
I0
sS'CT'
p2395
I0
ssg51
(dp2396
g2392
I0
sg2393
I0
sg2394
I0
sg2395
I0
ssg54
g32
sg55
I0
sg66
I00
sg57
I1
sg58
I0
sg59
I0
sg60
S'vide'
p2397
sg62
I00
sg63
g2387
sg64
(dp2398
g2392
I0
sg2393
I3
sg2394
I0
sg2395
I0
ssg77
(dp2399
g2392
I0
sg2393
I0
sg2394
I0
sg2395
I0
ssg67
(dp2400
g2392
I0
sg2393
I0
sg2394
I0
sg2395
I0
ssg69
(dp2401
g2392
I0
sg2393
I3
sg2394
I0
sg2395
I0
ssg71
I0
sg72
I0
sg73
S'Vridiel'
p2402
sg75
I9
sg76
I0
sg53
I19
sg79
I180
sg80
(S'dummy'
p2403
S'N8'
p2404
S'DL'
p2405
g32
tp2406
sg84
g32
sg85
(dp2407
S'RP1'
p2408
I10
sS'ME'
p2409
I11
sS'RP2'
p2410
I10
sS'E'
p2411
I9
sS'TO'
p2412
I11
sS'M'
p2413
I7
sS'JP'
p2414
I5
sS'RP_tot'
p2415
I13
sS'P'
p2416
I7
sS'PA'
p2417
I9
sS'A'
p2418
I10
sS'R'
p2419
I7
sS'TB'
p2420
I6
sS'PL'
p2421
I9
sS'TA'
p2422
I7
ssg122
I0
sg28
I0
sg124
I0
sg125
I0
sg126
F9.75
sg127
I0
sg128
I0
sg129
I0
sg615
(dp2423
S'RP1'
p2424
I10
sS'ME'
p2425
I11
sS'RP2'
p2426
I10
sS'E'
p2427
I9
sS'TO'
p2428
I11
sS'M'
p2429
I7
sS'JP'
p2430
I5
sS'RP_tot'
p2431
I13
sS'P'
p2432
I7
sS'PA'
p2433
I9
sS'A'
p2434
I10
sS'R'
p2435
I7
sS'TB'
p2436
I6
sS'PL'
p2437
I9
sS'TA'
p2438
I7
ssg130
g2407
sg131
I0
sg132
I0
sg133
I0
sg134
I0
sg135
I17
sg136
I1
sg137
I0
sg138
S'EST'
p2439
sbssg122
I5
sg28
I0
sg124
I0
sg125
I0
sg126
F9.972222222222221
sg127
I0
sg128
I0
sg129
I0
sg615
(dp2440
g2367
I10
sg2368
I11
sg2369
I10
sg2370
I9
sg2375
I11
sg2373
I7
sg2372
I5
sg2374
I13
sg2371
I7
sg2376
I9
sg2377
I10
sg2378
I7
sg2379
I6
sg2380
I9
sg2381
I7
ssg130
g2366
sg131
I0
sg132
I0
sg133
I0
sg134
I0
sg135
I17
sg136
I1
sg137
I0
sg138
S'EST'
p2441
sbsS's11'
p2442
(ijoueur
joueur
p2443
(dp2444
g27
I0
sg29
I0
sg31
g32
sg33
I0
sg34
g32
sg35
g0
(g36
g2
Ntp2445
Rp2446
(dp2447
g40
I4
sg41
S'x'
p2448
sg43
S'heros'
p2449
sbsg45
(dp2450
S'SR'
p2451
I0
sS'ST'
p2452
I0
sS'CR'
p2453
I0
sS'CT'
p2454
I0
ssg51
(dp2455
g2451
I0
sg2452
I0
sg2453
I0
sg2454
I0
ssg54
g32
sg55
I0
sg66
I00
sg57
I1
sg58
I0
sg59
I0
sg60
S'vide'
p2456
sg62
I00
sg63
g2446
sg64
(dp2457
g2451
I0
sg2452
I3
sg2453
I0
sg2454
I0
ssg77
(dp2458
g2451
I0
sg2452
I0
sg2453
I0
sg2454
I0
ssg67
(dp2459
g2451
I0
sg2452
I0
sg2453
I0
sg2454
I0
ssg69
(dp2460
g2451
I0
sg2452
I3
sg2453
I0
sg2454
I0
ssg71
I0
sg72
I0
sg73
S'Vridiel (11)'
p2461
sg75
I9
sg76
I0
sg53
I19
sg79
I180
sg80
(S'dummy'
p2462
S'N8'
p2463
S'DL'
p2464
g32
tp2465
sg84
g32
sg85
(dp2466
S'RP1'
p2467
I10
sS'ME'
p2468
I11
sS'RP2'
p2469
I10
sS'E'
p2470
I9
sS'TO'
p2471
I11
sS'M'
p2472
I7
sS'JP'
p2473
I5
sS'RP_tot'
p2474
I12
sS'P'
p2475
I7
sS'PA'
p2476
I9
sS'A'
p2477
I10
sS'R'
p2478
I7
sS'TB'
p2479
I6
sS'PL'
p2480
I9
sS'TA'
p2481
I7
ssg122
I0
sg28
I0
sg124
I0
sg125
I0
sg126
F9.75
sg127
I0
sg128
I0
sg129
I0
sg615
(dp2482
S'RP1'
p2483
I10
sS'ME'
p2484
I11
sS'RP2'
p2485
I10
sS'E'
p2486
I9
sS'TO'
p2487
I11
sS'M'
p2488
I7
sS'JP'
p2489
I5
sS'RP_tot'
p2490
I13
sS'P'
p2491
I7
sS'PA'
p2492
I9
sS'A'
p2493
I10
sS'R'
p2494
I7
sS'TB'
p2495
I6
sS'PL'
p2496
I9
sS'TA'
p2497
I7
ssg130
g2466
sg131
I0
sg132
I0
sg133
I0
sg134
I0
sg135
I17
sg136
I1
sg137
I0
sg138
S'EST'
p2498
sbssg122
I0
sg28
I0
sg124
I0
sg125
I0
sg126
F9.63888888888889
sg127
I0
sg128
I0
sg129
I0
sg615
(dp2499
g2322
I10
sg2323
I11
sg2324
I10
sg2325
I9
sg2326
I11
sg2327
I7
sg2328
I5
sg2329
I13
sg2330
I7
sg2331
I9
sg2332
I10
sg2333
I7
sg2334
I6
sg2335
I9
sg2336
I7
ssg130
(dp2500
g2322
I10
sg2323
I11
sg2324
I10
sg2325
I9
sg2330
I6
sg2328
I5
sg2327
I7
sg2329
I12
sg2326
I11
sg2331
I9
sg2332
I11
sg2333
I6
sg2334
I6
sg2335
I10
sg2336
I7
ssg131
I0
sg699
(dp2501
sg132
I0
sg133
I0
sg134
I0
sg135
I17
sg136
I1
sg137
I0
sg138
S'EST'
p2502
sbsS'drop3'
p2503
(ijoueur
joueur
p2504
(dp2505
g27
I0
sg28
I0
sg29
I0
sg30
F9.312602141629233
sg31
g32
sg33
I0
sg34
g32
sg35
g0
(g36
g2
Ntp2506
Rp2507
(dp2508
g40
I5
sg41
S'**'
p2509
sg43
S'seigneur'
p2510
sbsg45
(dp2511
S'SR'
p2512
I0
sS'CT'
p2513
I1
sS'CR'
p2514
I0
sS'ST'
p2515
I0
ssg51
(dp2516
g2512
I0
sg2513
I0
sg2514
I0
sg2515
I0
ssg54
g32
sg55
I0
sg56
F9.312602141629233
sg57
I1
sg58
I0
sg59
I1
sg60
g2307
sg62
I00
sg63
g2507
sg64
(dp2517
g2512
I0
sg2513
I0
sg2514
I0
sg2515
I0
ssg66
I00
sg67
(dp2518
g2512
I0
sg2513
I0
sg2514
I0
sg2515
I0
ssg69
(dp2519
g2512
I0
sg2513
I0
sg2514
I0
sg2515
I0
ssg71
I2
sg72
I2
sg73
S'Moela'
p2520
sg75
I10
sg76
I1
sg53
I17
sg79
I125
sg80
(S'dummy'
p2521
S'DO'
p2522
S'DM'
p2523
S'AR'
p2524
tp2525
sg84
g32
sg85
(dp2526
S'RP1'
p2527
I9
sS'ME'
p2528
I5
sS'RP2'
p2529
I12
sS'E'
p2530
I11
sS'TO'
p2531
I7
sS'M'
p2532
I9
sS'JP'
p2533
I9
sS'RP_tot'
p2534
I13
sS'P'
p2535
I11
sS'PA'
p2536
I11
sS'A'
p2537
I10
sS'R'
p2538
I8
sS'TB'
p2539
I9
sS'PL'
p2540
I11
sS'TA'
p2541
I7
ssg102
(dp2542
S's12'
p2543
(ijoueur
joueur
p2544
(dp2545
g27
I0
sg28
I0
sg29
I0
sg33
I0
sg35
g0
(g36
g2
Ntp2546
Rp2547
(dp2548
g41
g32
sbsg45
(dp2549
g2512
I0
sg2513
I0
sg2514
I0
sg2515
I0
ssg51
(dp2550
g2512
I0
sg2513
I0
sg2514
I0
sg2515
I0
ssg54
g32
sg55
I0
sg57
I0
sg58
I0
sg59
I0
sg80
(g2521
g2522
g32
g32
tp2551
sg62
I00
sg63
g0
(g36
g2
Ntp2552
Rp2553
(dp2554
g41
g32
sbsg64
(dp2555
g2512
I0
sg2513
I0
sg2514
I0
sg2515
I0
ssg66
I00
sg67
(dp2556
g2512
I0
sg2513
I0
sg2514
I0
sg2515
I0
ssg69
(dp2557
g2512
I0
sg2513
I0
sg2514
I0
sg2515
I0
ssg71
I0
sg72
I0
sg73
g32
sg75
I0
sg76
I0
sg53
I0
sg79
I0
sg60
g2307
sg85
(dp2558
g2537
I0
sg2528
I0
sg2529
I0
sg2530
I0
sg2535
I0
sg2527
I0
sg2533
I0
sg2534
I0
sg2531
I0
sg2536
I0
sg2532
I0
sg2538
I0
sg2539
I0
sg2540
I0
sg2541
I0
ssg102
(dp2559
sg122
I0
sg123
g32
sg124
I0
sg128
I0
sg125
I0
sg126
F0.0
sg127
I0
sg77
(dp2560
g2512
I0
sg2513
I0
sg2514
I0
sg2515
I0
ssg129
I0
sg130
(dp2561
g2527
I9
sg2528
I5
sg2529
I12
sg2530
I11
sg2535
I11
sg2533
I9
sg2532
I9
sg2534
I13
sg2531
I7
sg2536
I11
sg2537
I10
sg2538
I8
sg2539
I9
sg2540
I11
sg2541
I7
ssg131
I0
sg132
I0
sg133
I0
sg134
I0
sg135
I0
sg136
I0
sg137
I0
sg138
g32
sbsS's11'
p2562
(ijoueur
joueur
p2563
(dp2564
g27
I0
sg28
I0
sg29
I0
sg33
I0
sg35
g0
(g36
g2
Ntp2565
Rp2566
(dp2567
g41
g32
sbsg45
(dp2568
g2512
I0
sg2513
I0
sg2514
I0
sg2515
I0
ssg51
(dp2569
g2512
I0
sg2513
I0
sg2514
I0
sg2515
I0
ssg54
g32
sg55
I0
sg57
I0
sg58
I0
sg59
I0
sg80
g2551
sg62
I00
sg63
g0
(g36
g2
Ntp2570
Rp2571
(dp2572
g41
g32
sbsg64
(dp2573
g2512
I0
sg2513
I0
sg2514
I0
sg2515
I0
ssg66
I00
sg67
(dp2574
g2512
I0
sg2513
I0
sg2514
I0
sg2515
I0
ssg69
(dp2575
g2512
I0
sg2513
I0
sg2514
I0
sg2515
I0
ssg71
I0
sg72
I0
sg73
g32
sg75
I0
sg76
I0
sg53
I0
sg79
I0
sg60
g2307
sg85
(dp2576
g2537
I0
sg2528
I0
sg2529
I0
sg2530
I0
sg2535
I0
sg2527
I0
sg2533
I0
sg2534
I0
sg2531
I0
sg2536
I0
sg2532
I0
sg2538
I0
sg2539
I0
sg2540
I0
sg2541
I0
ssg102
(dp2577
sg122
I0
sg123
g32
sg124
I0
sg128
I0
sg125
I0
sg126
F0.0
sg127
I0
sg77
(dp2578
g2512
I0
sg2513
I0
sg2514
I0
sg2515
I0
ssg129
I0
sg130
g2561
sg131
I0
sg132
I0
sg133
I0
sg134
I0
sg135
I0
sg136
I0
sg137
I0
sg138
g32
sbssg122
I3
sg123
g32
sg124
I0
sg128
I0
sg125
I0
sg126
F10.515151515151516
sg127
I0
sg77
(dp2579
g2512
I0
sg2513
I1
sg2514
I0
sg2515
I0
ssg129
I0
sg130
g2561
sg131
I0
sg132
I0
sg133
I0
sg134
I0
sg135
I12
sg136
I1
sg137
I0
sg138
S'EST'
p2580
sbsS'cap'
p2581
g2504
sS'B4'
p2582
g2504
sS'RJC'
p2583
(ijoueur
joueur
p2584
(dp2585
g27
I0
sg28
I0
sg29
I2
sg30
F9.312602141629233
sg31
g32
sg33
I0
sg34
g32
sg35
g0
(g36
g2
Ntp2586
Rp2587
(dp2588
g40
I4
sg41
S'x'
p2589
sg43
S'heros'
p2590
sbsg45
(dp2591
g2512
I0
sg2513
I0
sg2514
I0
sg2515
I0
ssg51
(dp2592
g2512
I0
sg2513
I0
sg2514
I0
sg2515
I0
ssg54
g32
sg55
I0
sg56
F9.312602141629233
sg57
I0
sg58
I0
sg59
I0
sg60
g2307
sg62
I00
sg63
g2587
sg64
(dp2593
g2512
I0
sg2513
I1
sg2514
I0
sg2515
I0
ssg66
I00
sg67
(dp2594
g2512
I0
sg2513
I0
sg2514
I0
sg2515
I0
ssg69
(dp2595
g2512
I0
sg2513
I1
sg2514
I0
sg2515
I0
ssg71
I0
sg72
I0
sg73
S'Esztel'
p2596
sg75
I5
sg76
I0
sg53
I16
sg79
I135
sg80
(g2521
S'AR'
p2597
g32
g32
tp2598
sg84
g32
sg85
(dp2599
g2527
I9
sg2528
I4
sg2529
I10
sg2530
I9
sg2531
I9
sg2532
I11
sg2533
I10
sg2534
I11
sg2535
I10
sg2536
I9
sg2537
I10
sg2538
I8
sg2539
I9
sg2540
I10
sg2541
I5
ssg102
(dp2600
S's12'
p2601
(ijoueur
joueur
p2602
(dp2603
g27
I0
sg28
I0
sg29
I0
sg33
I0
sg35
g0
(g36
g2
Ntp2604
Rp2605
(dp2606
g41
g32
sbsg45
(dp2607
g2512
I0
sg2513
I0
sg2514
I0
sg2515
I0
ssg51
(dp2608
g2512
I0
sg2513
I0
sg2514
I0
sg2515
I0
ssg54
g32
sg55
I0
sg57
I0
sg58
I0
sg59
I0
sg80
(g2521
g2597
g32
g32
tp2609
sg62
I00
sg63
g0
(g36
g2
Ntp2610
Rp2611
(dp2612
g41
g32
sbsg64
(dp2613
g2512
I0
sg2513
I0
sg2514
I0
sg2515
I0
ssg66
I00
sg67
(dp2614
g2512
I0
sg2513
I0
sg2514
I0
sg2515
I0
ssg69
(dp2615
g2512
I0
sg2513
I0
sg2514
I0
sg2515
I0
ssg71
I0
sg72
I0
sg73
g32
sg75
I0
sg76
I0
sg53
I0
sg79
I0
sg60
g2307
sg85
(dp2616
g2537
I0
sg2528
I0
sg2529
I0
sg2530
I0
sg2535
I0
sg2527
I0
sg2533
I0
sg2534
I0
sg2531
I0
sg2536
I0
sg2532
I0
sg2538
I0
sg2539
I0
sg2540
I0
sg2541
I0
ssg102
(dp2617
sg122
I0
sg123
g32
sg124
I0
sg128
I0
sg125
I0
sg126
F0.0
sg127
I0
sg77
(dp2618
g2512
I0
sg2513
I0
sg2514
I0
sg2515
I0
ssg129
I0
sg130
(dp2619
g2527
I9
sg2528
I4
sg2529
I10
sg2530
I9
sg2535
I10
sg2533
I10
sg2532
I11
sg2534
I11
sg2531
I9
sg2536
I9
sg2537
I10
sg2538
I8
sg2539
I9
sg2540
I10
sg2541
I5
ssg131
I0
sg132
I0
sg133
I0
sg134
I0
sg135
I0
sg136
I0
sg137
I0
sg138
g32
sbsS's11'
p2620
(ijoueur
joueur
p2621
(dp2622
g27
I0
sg28
I0
sg29
I0
sg33
I0
sg35
g0
(g36
g2
Ntp2623
Rp2624
(dp2625
g41
g32
sbsg45
(dp2626
g2512
I0
sg2513
I0
sg2514
I0
sg2515
I0
ssg51
(dp2627
g2512
I0
sg2513
I0
sg2514
I0
sg2515
I0
ssg54
g32
sg55
I0
sg57
I0
sg58
I0
sg59
I0
sg80
g2609
sg62
I00
sg63
g0
(g36
g2
Ntp2628
Rp2629
(dp2630
g41
g32
sbsg64
(dp2631
g2512
I0
sg2513
I0
sg2514
I0
sg2515
I0
ssg66
I00
sg67
(dp2632
g2512
I0
sg2513
I0
sg2514
I0
sg2515
I0
ssg69
(dp2633
g2512
I0
sg2513
I0
sg2514
I0
sg2515
I0
ssg71
I0
sg72
I0
sg73
g32
sg75
I0
sg76
I0
sg53
I0
sg79
I0
sg60
g2307
sg85
(dp2634
g2537
I0
sg2528
I0
sg2529
I0
sg2530
I0
sg2535
I0
sg2527
I0
sg2533
I0
sg2534
I0
sg2531
I0
sg2536
I0
sg2532
I0
sg2538
I0
sg2539
I0
sg2540
I0
sg2541
I0
ssg102
(dp2635
sg122
I0
sg123
g32
sg124
I0
sg128
I0
sg125
I0
sg126
F0.0
sg127
I0
sg77
(dp2636
g2512
I0
sg2513
I0
sg2514
I0
sg2515
I0
ssg129
I0
sg130
g2619
sg131
I0
sg132
I0
sg133
I0
sg134
I0
sg135
I0
sg136
I0
sg137
I0
sg138
g32
sbssg122
I3
sg123
g32
sg124
I0
sg128
I0
sg125
I0
sg126
F10.0
sg127
I0
sg77
(dp2637
g2512
I0
sg2513
I0
sg2514
I0
sg2515
I0
ssg129
I0
sg130
g2619
sg131
I0
sg132
I0
sg133
I2
sg134
I0
sg135
I13
sg136
I0
sg137
I0
sg138
g2580
sbsS'B1'
p2638
g2504
sS'B2'
p2639
g2504
sS'B3'
p2640
g2504
sS'SA_pcp2'
p2641
(ijoueur
joueur
p2642
(dp2643
g27
I0
sg28
I0
sg29
I0
sg30
F9.312602141629233
sg31
g32
sg33
I0
sg34
g32
sg35
g0
(g36
g2
Ntp2644
Rp2645
(dp2646
g40
I4
sg41
g2589
sg43
g2590
sbsg45
(dp2647
g2512
I0
sg2513
I0
sg2514
I0
sg2515
I0
ssg51
(dp2648
g2512
I0
sg2513
I0
sg2514
I0
sg2515
I0
ssg54
g32
sg55
I0
sg56
F9.312602141629233
sg57
I0
sg58
I0
sg59
I0
sg60
g2307
sg62
I00
sg63
g2645
sg64
(dp2649
g2512
I0
sg2513
I1
sg2514
I0
sg2515
I0
ssg66
I00
sg67
(dp2650
g2512
I0
sg2513
I0
sg2514
I0
sg2515
I0
ssg69
(dp2651
g2512
I0
sg2513
I1
sg2514
I0
sg2515
I0
ssg71
I0
sg72
I0
sg73
S'Hastic'
p2652
sg75
I10
sg76
I0
sg53
I19
sg79
I112
sg80
(g2521
S'DL'
p2653
g32
g32
tp2654
sg84
g32
sg85
(dp2655
g2527
I10
sg2528
I8
sg2529
I8
sg2530
I8
sg2531
I11
sg2532
I6
sg2533
I5
sg2534
I11
sg2535
I6
sg2536
I9
sg2537
I10
sg2538
I10
sg2539
I4
sg2540
I10
sg2541
I2
ssg102
(dp2656
S's12'
p2657
(ijoueur
joueur
p2658
(dp2659
g27
I0
sg28
I0
sg29
I0
sg33
I0
sg35
g0
(g36
g2
Ntp2660
Rp2661
(dp2662
g41
g32
sbsg45
(dp2663
g2512
I0
sg2513
I0
sg2514
I0
sg2515
I0
ssg51
(dp2664
g2512
I0
sg2513
I0
sg2514
I0
sg2515
I0
ssg54
g32
sg55
I0
sg57
I0
sg58
I0
sg59
I0
sg80
(g2521
g2653
g32
g32
tp2665
sg62
I00
sg63
g0
(g36
g2
Ntp2666
Rp2667
(dp2668
g41
g32
sbsg64
(dp2669
g2512
I0
sg2513
I0
sg2514
I0
sg2515
I0
ssg66
I00
sg67
(dp2670
g2512
I0
sg2513
I0
sg2514
I0
sg2515
I0
ssg69
(dp2671
g2512
I0
sg2513
I0
sg2514
I0
sg2515
I0
ssg71
I0
sg72
I0
sg73
S'Hastic (12)'
p2672
sg75
I0
sg76
I0
sg53
I0
sg79
I0
sg60
g2307
sg85
(dp2673
g2537
I0
sg2528
I0
sg2529
I0
sg2530
I0
sg2535
I0
sg2527
I0
sg2533
I0
sg2534
I0
sg2531
I0
sg2536
I0
sg2532
I0
sg2538
I0
sg2539
I0
sg2540
I0
sg2541
I0
ssg102
(dp2674
sg122
I0
sg123
g32
sg124
I0
sg128
I0
sg125
I0
sg126
F0.0
sg127
I0
sg77
(dp2675
g2512
I0
sg2513
I0
sg2514
I0
sg2515
I0
ssg129
I0
sg130
(dp2676
g2527
I10
sg2528
I8
sg2529
I8
sg2530
I8
sg2535
I6
sg2533
I5
sg2532
I6
sg2534
I11
sg2531
I11
sg2536
I9
sg2537
I10
sg2538
I10
sg2539
I4
sg2540
I10
sg2541
I2
ssg131
I0
sg132
I0
sg133
I0
sg134
I0
sg135
I0
sg136
I0
sg137
I0
sg138
g32
sbsS's11'
p2677
(ijoueur
joueur
p2678
(dp2679
g27
I0
sg28
I0
sg29
I0
sg33
I0
sg35
g0
(g36
g2
Ntp2680
Rp2681
(dp2682
g41
g32
sbsg45
(dp2683
g2512
I0
sg2513
I0
sg2514
I0
sg2515
I0
ssg51
(dp2684
g2512
I0
sg2513
I0
sg2514
I0
sg2515
I0
ssg54
g32
sg55
I0
sg57
I0
sg58
I0
sg59
I0
sg80
g2665
sg62
I00
sg63
g0
(g36
g2
Ntp2685
Rp2686
(dp2687
g41
g32
sbsg64
(dp2688
g2512
I0
sg2513
I0
sg2514
I0
sg2515
I0
ssg66
I00
sg67
(dp2689
g2512
I0
sg2513
I0
sg2514
I0
sg2515
I0
ssg69
(dp2690
g2512
I0
sg2513
I0
sg2514
I0
sg2515
I0
ssg71
I0
sg72
I0
sg73
S'Hastic (11)'
p2691
sg75
I0
sg76
I0
sg53
I0
sg79
I0
sg60
g2307
sg85
(dp2692
g2537
I0
sg2528
I0
sg2529
I0
sg2530
I0
sg2535
I0
sg2527
I0
sg2533
I0
sg2534
I0
sg2531
I0
sg2536
I0
sg2532
I0
sg2538
I0
sg2539
I0
sg2540
I0
sg2541
I0
ssg102
(dp2693
sg122
I0
sg123
g32
sg124
I0
sg128
I0
sg125
I0
sg126
F0.0
sg127
I0
sg77
(dp2694
g2512
I0
sg2513
I0
sg2514
I0
sg2515
I0
ssg129
I0
sg130
g2676
sg131
I0
sg132
I0
sg133
I0
sg134
I0
sg135
I0
sg136
I0
sg137
I0
sg138
g32
sbssg122
I4
sg123
g32
sg124
I0
sg128
I0
sg125
I0
sg126
F9.705882352941176
sg127
I0
sg77
(dp2695
g2512
I0
sg2513
I0
sg2514
I0
sg2515
I0
ssg129
I0
sg130
g2676
sg131
I0
sg132
I0
sg133
I0
sg134
I0
sg135
I11
sg136
I0
sg137
I0
sg138
g2580
sbsS'SA_pcp1'
p2696
(ijoueur
joueur
p2697
(dp2698
g27
I0
sg28
I0
sg29
I0
sg30
F9.312602141629233
sg31
g32
sg33
I0
sg34
g32
sg35
g0
(g36
g2
Ntp2699
Rp2700
(dp2701
g40
I5
sg41
g2509
sg43
g2510
sbsg45
(dp2702
g2512
I0
sg2513
I1
sg2514
I0
sg2515
I0
ssg51
(dp2703
g2512
I0
sg2513
I0
sg2514
I0
sg2515
I0
ssg54
g32
sg55
I0
sg56
F9.312602141629233
sg57
I0
sg58
I0
sg59
I0
sg60
g2307
sg62
I00
sg63
g2700
sg64
(dp2704
g2512
I0
sg2513
I0
sg2514
I0
sg2515
I0
ssg66
I00
sg67
(dp2705
g2512
I0
sg2513
I0
sg2514
I0
sg2515
I0
ssg69
(dp2706
g2512
I0
sg2513
I0
sg2514
I0
sg2515
I0
ssg71
I0
sg72
I0
sg73
S'Nestelie'
p2707
sg75
I11
sg76
I0
sg53
I22
sg79
I153
sg80
(g2521
S'TL'
p2708
S'N8'
p2709
g32
tp2710
sg84
g32
sg85
(dp2711
g2527
I9
sg2528
I9
sg2529
I8
sg2530
I9
sg2531
I11
sg2532
I8
sg2533
I4
sg2534
I10
sg2535
I6
sg2536
I10
sg2537
I11
sg2538
I9
sg2539
I6
sg2540
I10
sg2541
I4
ssg102
(dp2712
S's12'
p2713
(ijoueur
joueur
p2714
(dp2715
g27
I0
sg28
I0
sg29
I0
sg33
I0
sg35
g0
(g36
g2
Ntp2716
Rp2717
(dp2718
g41
g32
sbsg45
(dp2719
g2512
I0
sg2513
I0
sg2514
I0
sg2515
I0
ssg51
(dp2720
g2512
I0
sg2513
I0
sg2514
I0
sg2515
I0
ssg54
g32
sg55
I0
sg57
I0
sg58
I0
sg59
I0
sg80
(g2521
g2708
g32
g32
tp2721
sg62
I00
sg63
g0
(g36
g2
Ntp2722
Rp2723
(dp2724
g41
g32
sbsg64
(dp2725
g2512
I0
sg2513
I0
sg2514
I0
sg2515
I0
ssg66
I00
sg67
(dp2726
g2512
I0
sg2513
I0
sg2514
I0
sg2515
I0
ssg69
(dp2727
g2512
I0
sg2513
I0
sg2514
I0
sg2515
I0
ssg71
I0
sg72
I0
sg73
S'Nestelie (12)'
p2728
sg75
I0
sg76
I0
sg53
I0
sg79
I0
sg60
g2307
sg85
(dp2729
g2537
I0
sg2528
I0
sg2529
I0
sg2530
I0
sg2535
I0
sg2527
I0
sg2533
I0
sg2534
I0
sg2531
I0
sg2536
I0
sg2532
I0
sg2538
I0
sg2539
I0
sg2540
I0
sg2541
I0
ssg102
(dp2730
sg122
I0
sg123
g32
sg124
I0
sg128
I0
sg125
I0
sg126
F0.0
sg127
I0
sg77
(dp2731
g2512
I0
sg2513
I0
sg2514
I0
sg2515
I0
ssg129
I0
sg130
(dp2732
g2527
I9
sg2528
I9
sg2529
I8
sg2530
I9
sg2535
I6
sg2533
I4
sg2532
I8
sg2534
I10
sg2531
I11
sg2536
I10
sg2537
I11
sg2538
I9
sg2539
I6
sg2540
I10
sg2541
I4
ssg131
I0
sg132
I0
sg133
I0
sg134
I0
sg135
I0
sg136
I0
sg137
I0
sg138
g32
sbsS's11'
p2733
(ijoueur
joueur
p2734
(dp2735
g27
I0
sg28
I0
sg29
I0
sg33
I0
sg35
g0
(g36
g2
Ntp2736
Rp2737
(dp2738
g41
g32
sbsg45
(dp2739
g2512
I0
sg2513
I0
sg2514
I0
sg2515
I0
ssg51
(dp2740
g2512
I0
sg2513
I0
sg2514
I0
sg2515
I0
ssg54
g32
sg55
I0
sg57
I0
sg58
I0
sg59
I0
sg80
g2721
sg62
I00
sg63
g0
(g36
g2
Ntp2741
Rp2742
(dp2743
g41
g32
sbsg64
(dp2744
g2512
I0
sg2513
I0
sg2514
I0
sg2515
I0
ssg66
I00
sg67
(dp2745
g2512
I0
sg2513
I0
sg2514
I0
sg2515
I0
ssg69
(dp2746
g2512
I0
sg2513
I0
sg2514
I0
sg2515
I0
ssg71
I0
sg72
I0
sg73
S'Nestelie (11)'
p2747
sg75
I0
sg76
I0
sg53
I0
sg79
I0
sg60
g2307
sg85
(dp2748
g2537
I0
sg2528
I0
sg2529
I0
sg2530
I0
sg2535
I0
sg2527
I0
sg2533
I0
sg2534
I0
sg2531
I0
sg2536
I0
sg2532
I0
sg2538
I0
sg2539
I0
sg2540
I0
sg2541
I0
ssg102
(dp2749
sg122
I0
sg123
g32
sg124
I0
sg128
I0
sg125
I0
sg126
F0.0
sg127
I0
sg77
(dp2750
g2512
I0
sg2513
I0
sg2514
I0
sg2515
I0
ssg129
I0
sg130
g2732
sg131
I0
sg132
I0
sg133
I0
sg134
I0
sg135
I0
sg136
I0
sg137
I0
sg138
g32
sbssg122
I4
sg123
g32
sg124
I0
sg128
I0
sg125
I0
sg126
F9.763157894736842
sg127
I0
sg77
(dp2751
g2512
I0
sg2513
I1
sg2514
I0
sg2515
I0
ssg129
I0
sg130
g2732
sg131
I0
sg132
I0
sg133
I0
sg134
I0
sg135
I15
sg136
I0
sg137
I0
sg138
g2580
sbsS'RJL'
p2752
g2504
sS'SA_remp1'
p2753
(ijoueur
joueur
p2754
(dp2755
g27
I0
sg28
I0
sg29
I0
sg30
F9.312602141629233
sg31
g32
sg33
I0
sg34
g32
sg35
g0
(g36
g2
Ntp2756
Rp2757
(dp2758
g40
I4
sg41
S'*'
p2759
sg43
g2590
sbsg45
(dp2760
g2512
I0
sg2513
I0
sg2514
I0
sg2515
I0
ssg51
(dp2761
g2512
I0
sg2513
I0
sg2514
I0
sg2515
I0
ssg54
g32
sg55
I0
sg56
F9.312602141629233
sg57
I0
sg58
I0
sg59
I0
sg60
g2307
sg62
I00
sg63
g2757
sg64
(dp2762
g2512
I0
sg2513
I1
sg2514
I0
sg2515
I0
ssg66
I00
sg67
(dp2763
g2512
I0
sg2513
I0
sg2514
I0
sg2515
I0
ssg69
(dp2764
g2512
I0
sg2513
I1
sg2514
I0
sg2515
I0
ssg71
I0
sg72
I0
sg73
S'Kertamno'
p2765
sg75
I11
sg76
I0
sg53
I24
sg79
I100
sg80
(g2521
g2708
S'N8'
p2766
g32
tp2767
sg84
g32
sg85
(dp2768
g2527
I7
sg2528
I8
sg2529
I8
sg2530
I9
sg2531
I10
sg2532
I7
sg2533
I5
sg2534
I9
sg2535
I7
sg2536
I8
sg2537
I9
sg2538
I9
sg2539
I5
sg2540
I10
sg2541
I5
ssg102
(dp2769
S's12'
p2770
(ijoueur
joueur
p2771
(dp2772
g27
I0
sg28
I0
sg29
I0
sg33
I0
sg35
g0
(g36
g2
Ntp2773
Rp2774
(dp2775
g41
g32
sbsg45
(dp2776
g2512
I0
sg2513
I0
sg2514
I0
sg2515
I0
ssg51
(dp2777
g2512
I0
sg2513
I0
sg2514
I0
sg2515
I0
ssg54
g32
sg55
I0
sg57
I0
sg58
I0
sg59
I0
sg80
(g2521
g2708
g32
g32
tp2778
sg62
I00
sg63
g0
(g36
g2
Ntp2779
Rp2780
(dp2781
g41
g32
sbsg64
(dp2782
g2512
I0
sg2513
I0
sg2514
I0
sg2515
I0
ssg66
I00
sg67
(dp2783
g2512
I0
sg2513
I0
sg2514
I0
sg2515
I0
ssg69
(dp2784
g2512
I0
sg2513
I0
sg2514
I0
sg2515
I0
ssg71
I0
sg72
I0
sg73
S'Kertamno (12)'
p2785
sg75
I0
sg76
I0
sg53
I0
sg79
I0
sg60
g2307
sg85
(dp2786
g2537
I0
sg2528
I0
sg2529
I0
sg2530
I0
sg2535
I0
sg2527
I0
sg2533
I0
sg2534
I0
sg2531
I0
sg2536
I0
sg2532
I0
sg2538
I0
sg2539
I0
sg2540
I0
sg2541
I0
ssg102
(dp2787
sg122
I0
sg123
g32
sg124
I0
sg128
I0
sg125
I0
sg126
F0.0
sg127
I0
sg77
(dp2788
g2512
I0
sg2513
I0
sg2514
I0
sg2515
I0
ssg129
I0
sg130
(dp2789
g2527
I7
sg2528
I8
sg2529
I8
sg2530
I9
sg2535
I7
sg2533
I5
sg2532
I7
sg2534
I9
sg2531
I10
sg2536
I8
sg2537
I9
sg2538
I9
sg2539
I5
sg2540
I10
sg2541
I5
ssg131
I0
sg132
I0
sg133
I0
sg134
I0
sg135
I0
sg136
I0
sg137
I0
sg138
g32
sbsS's11'
p2790
(ijoueur
joueur
p2791
(dp2792
g27
I0
sg28
I0
sg29
I0
sg33
I0
sg35
g0
(g36
g2
Ntp2793
Rp2794
(dp2795
g41
g32
sbsg45
(dp2796
g2512
I0
sg2513
I0
sg2514
I0
sg2515
I0
ssg51
(dp2797
g2512
I0
sg2513
I0
sg2514
I0
sg2515
I0
ssg54
g32
sg55
I0
sg57
I0
sg58
I0
sg59
I0
sg80
g2778
sg62
I00
sg63
g0
(g36
g2
Ntp2798
Rp2799
(dp2800
g41
g32
sbsg64
(dp2801
g2512
I0
sg2513
I0
sg2514
I0
sg2515
I0
ssg66
I00
sg67
(dp2802
g2512
I0
sg2513
I0
sg2514
I0
sg2515
I0
ssg69
(dp2803
g2512
I0
sg2513
I0
sg2514
I0
sg2515
I0
ssg71
I0
sg72
I0
sg73
S'Kertamno (11)'
p2804
sg75
I0
sg76
I0
sg53
I0
sg79
I0
sg60
g2307
sg85
(dp2805
g2537
I0
sg2528
I0
sg2529
I0
sg2530
I0
sg2535
I0
sg2527
I0
sg2533
I0
sg2534
I0
sg2531
I0
sg2536
I0
sg2532
I0
sg2538
I0
sg2539
I0
sg2540
I0
sg2541
I0
ssg102
(dp2806
sg122
I0
sg123
g32
sg124
I0
sg128
I0
sg125
I0
sg126
F0.0
sg127
I0
sg77
(dp2807
g2512
I0
sg2513
I0
sg2514
I0
sg2515
I0
ssg129
I0
sg130
g2789
sg131
I0
sg132
I0
sg133
I0
sg134
I0
sg135
I0
sg136
I0
sg137
I0
sg138
g32
sbssg122
I2
sg123
g32
sg124
I0
sg128
I0
sg125
I0
sg126
F9.157894736842104
sg127
I0
sg77
(dp2808
g2512
I0
sg2513
I0
sg2514
I0
sg2515
I0
ssg129
I0
sg130
g2789
sg131
I0
sg132
I0
sg133
I0
sg134
I0
sg135
I10
sg136
I0
sg137
I0
sg138
g2580
sbsS'drop1'
p2809
g2584
sS'drop2'
p2810
g2584
sS'SA_remp2'
p2811
(ijoueur
joueur
p2812
(dp2813
g481
F8.814814814814815
sg27
I0
sg482
F8.407407407407407
sg123
g32
sg29
I0
sg30
I0
sg33
I0
sg35
g0
(g36
g2
Ntp2814
Rp2815
(dp2816
g40
I4
sg41
S'x'
p2817
sg43
S'heros'
p2818
sbsg45
(dp2819
S'SR'
p2820
I0
sS'ST'
p2821
I0
sS'CR'
p2822
I0
sS'CT'
p2823
I1
ssg51
(dp2824
g2820
I0
sg2821
I0
sg2822
I0
sg2823
I0
ssg494
I0
sg1938
I0
sg55
I0
sg56
I0
sg66
I00
sg57
I0
sg58
I0
sg59
I0
sg80
(S'dummy'
p2825
S'PI'
p2826
S'TL'
p2827
g32
tp2828
sg62
I00
sg63
g2815
sg64
(dp2829
g2309
I0
sg2310
I0
sg2311
I0
sg2312
I0
ssg77
(dp2830
g2309
I0
sg2310
I0
sg2311
I0
sg2312
I0
ssg67
(dp2831
g2309
I0
sg2310
I0
sg2311
I0
sg2312
I0
ssg69
(dp2832
g2820
I0
sg2821
I0
sg2822
I7
sg2823
I3
ssg71
I0
sg72
I0
sg73
S'Dyomendal'
p2833
sg75
I10
sg76
I0
sg53
I25
sg79
I115
sg60
g2307
sg85
(dp2834
S'A'
p2835
I11
sS'ME'
p2836
I8
sS'RP2'
p2837
I8
sS'E'
p2838
I12
sS'P'
p2839
I7
sS'RP1'
p2840
I8
sS'JP'
p2841
I5
sS'RP_tot'
p2842
I10
sS'TO'
p2843
I9
sS'PA'
p2844
I13
sS'M'
p2845
I11
sS'R'
p2846
I8
sS'TB'
p2847
I9
sS'PL'
p2848
I10
sS'TA'
p2849
I7
ssg102
(dp2850
g2338
(ijoueur
joueur
p2851
(dp2852
g481
F8.814814814814815
sg27
I0
sg123
g32
sg29
I0
sg33
I0
sg35
g0
(g36
g2
Ntp2853
Rp2854
(dp2855
g40
I4
sg41
S'x'
p2856
sg43
S'heros'
p2857
sbsg45
(dp2858
S'SR'
p2859
I0
sS'ST'
p2860
I0
sS'CR'
p2861
I0
sS'CT'
p2862
I1
ssg51
(dp2863
g2859
I0
sg2860
I0
sg2861
I0
sg2862
I0
ssg77
(dp2864
g2353
I0
sg2354
I0
sg2355
I0
sg2356
I0
ssg1938
I0
sg55
I0
sg57
I0
sg58
I0
sg59
I0
sg80
(S'dummy'
p2865
S'PI'
p2866
S'TL'
p2867
g32
tp2868
sg62
I00
sg63
g0
(g36
g2
Ntp2869
Rp2870
(dp2871
g40
I3
sg41
S'^^^'
p2872
sg43
S'rare'
p2873
sbsg64
(dp2874
g2353
I0
sg2354
I0
sg2355
I0
sg2356
I0
ssg66
I00
sg67
(dp2875
g2353
I0
sg2354
I0
sg2355
I0
sg2356
I0
ssg69
(dp2876
g2859
I0
sg2860
I0
sg2861
I7
sg2862
I3
ssg71
I0
sg72
I0
sg73
S'Dyomendal (12)'
p2877
sg75
I10
sg76
I0
sg53
I25
sg79
I20
sg60
g2357
sg85
(dp2878
S'A'
p2879
I8
sS'ME'
p2880
I7
sS'RP2'
p2881
I6
sS'E'
p2882
I11
sS'TO'
p2883
I6
sS'RP1'
p2884
I7
sS'JP'
p2885
I5
sS'RP_tot'
p2886
I7
sS'P'
p2887
I7
sS'PA'
p2888
I10
sS'M'
p2889
I12
sS'R'
p2890
I9
sS'TB'
p2891
I8
sS'PL'
p2892
I7
sS'TA'
p2893
I6
ssg102
(dp2894
g2383
(ijoueur
joueur
p2895
(dp2896
g27
I0
sg29
I0
sg33
I0
sg35
g0
(g36
g2
Ntp2897
Rp2898
(dp2899
g40
I4
sg41
S'x'
p2900
sg43
S'heros'
p2901
sbsg45
(dp2902
S'SR'
p2903
I0
sS'CT'
p2904
I1
sS'CR'
p2905
I0
sS'ST'
p2906
I0
ssg51
(dp2907
g2903
I0
sg2904
I0
sg2905
I0
sg2906
I0
ssg1938
I0
sg55
I0
sg66
I00
sg57
I0
sg58
I0
sg59
I0
sg80
(S'dummy'
p2908
S'PI'
p2909
S'TL'
p2910
g32
tp2911
sg62
I01
sg63
g0
(g36
g2
Ntp2912
Rp2913
(dp2914
g40
I2
sg41
S'<<'
p2915
sg43
S'special'
p2916
sbsg64
(dp2917
g2903
I0
sg2904
I3
sg2905
I7
sg2906
I0
ssg77
(dp2918
g2903
I0
sg2904
I1
sg2905
I0
sg2906
I0
ssg67
(dp2919
g2903
I0
sg2904
I0
sg2905
I0
sg2906
I0
ssg69
(dp2920
g2903
I0
sg2904
I3
sg2905
I7
sg2906
I0
ssg71
I0
sg72
I0
sg73
S'Dyomendal'
p2921
sg75
I10
sg76
I0
sg53
I25
sg79
I20
sg60
S'GP'
p2922
sg85
(dp2923
S'A'
p2924
I8
sS'ME'
p2925
I8
sS'RP2'
p2926
I6
sS'E'
p2927
I11
sS'P'
p2928
I6
sS'RP1'
p2929
I7
sS'JP'
p2930
I3
sS'RP_tot'
p2931
I7
sS'TO'
p2932
I6
sS'PA'
p2933
I10
sS'M'
p2934
I12
sS'R'
p2935
I10
sS'TB'
p2936
I6
sS'PL'
p2937
I7
sS'TA'
p2938
I7
ssg122
I0
sg28
I0
sg124
I0
sg125
I0
sg126
F8.814814814814815
sg127
I0
sg128
I0
sg129
I0
sg615
(dp2939
S'A'
p2940
I8
sS'ME'
p2941
I8
sS'RP2'
p2942
I6
sS'E'
p2943
I11
sS'P'
p2944
I6
sS'RP1'
p2945
I7
sS'JP'
p2946
I3
sS'RP_tot'
p2947
I7
sS'TO'
p2948
I6
sS'PA'
p2949
I10
sS'M'
p2950
I12
sS'R'
p2951
I10
sS'TB'
p2952
I6
sS'PL'
p2953
I7
sS'TA'
p2954
I7
ssg130
g2923
sg131
I0
sg54
g32
sg132
I0
sg133
I0
sg134
I0
sg135
I2
sg136
I0
sg137
I0
sg138
S'ES'
p2955
sbssg122
I0
sg28
I0
sg124
I0
sg125
I0
sg126
F8.407407407407407
sg127
I0
sg128
I0
sg129
I0
sg615
(dp2956
g2879
I8
sg2880
I8
sg2881
I6
sg2882
I11
sg2887
I6
sg2884
I7
sg2885
I3
sg2886
I7
sg2883
I6
sg2888
I10
sg2889
I12
sg2890
I10
sg2891
I6
sg2892
I7
sg2893
I7
ssg130
g2878
sg131
I0
sg54
S'GP 12'
p2957
sg132
I0
sg133
I0
sg134
I0
sg135
I2
sg136
I0
sg137
I0
sg138
S'ES'
p2958
sbsg2442
(ijoueur
joueur
p2959
(dp2960
g27
I0
sg29
I0
sg33
I0
sg35
g0
(g36
g2
Ntp2961
Rp2962
(dp2963
g40
I4
sg41
S'x'
p2964
sg43
S'heros'
p2965
sbsg45
(dp2966
S'SR'
p2967
I0
sS'CT'
p2968
I1
sS'CR'
p2969
I0
sS'ST'
p2970
I0
ssg51
(dp2971
g2967
I0
sg2968
I0
sg2969
I0
sg2970
I0
ssg1938
I0
sg55
I0
sg66
I00
sg57
I0
sg58
I0
sg59
I0
sg80
(S'dummy'
p2972
S'PI'
p2973
S'TL'
p2974
g32
tp2975
sg62
I01
sg63
g0
(g36
g2
Ntp2976
Rp2977
(dp2978
g40
I2
sg41
S'<<'
p2979
sg43
S'special'
p2980
sbsg64
(dp2981
g2967
I0
sg2968
I3
sg2969
I7
sg2970
I0
ssg77
(dp2982
g2967
I0
sg2968
I1
sg2969
I0
sg2970
I0
ssg67
(dp2983
g2967
I0
sg2968
I0
sg2969
I0
sg2970
I0
ssg69
(dp2984
g2967
I0
sg2968
I3
sg2969
I7
sg2970
I0
ssg71
I0
sg72
I0
sg73
S'Dyomendal (11)'
p2985
sg75
I10
sg76
I0
sg53
I25
sg79
I20
sg60
S'GP'
p2986
sg85
(dp2987
S'A'
p2988
I8
sS'ME'
p2989
I8
sS'RP2'
p2990
I6
sS'E'
p2991
I11
sS'P'
p2992
I6
sS'RP1'
p2993
I7
sS'JP'
p2994
I3
sS'RP_tot'
p2995
I7
sS'TO'
p2996
I6
sS'PA'
p2997
I10
sS'M'
p2998
I12
sS'R'
p2999
I10
sS'TB'
p3000
I6
sS'PL'
p3001
I7
sS'TA'
p3002
I7
ssg122
I0
sg28
I0
sg124
I0
sg125
I0
sg126
F8.814814814814815
sg127
I0
sg128
I0
sg129
I0
sg615
(dp3003
S'A'
p3004
I8
sS'ME'
p3005
I8
sS'RP2'
p3006
I6
sS'E'
p3007
I11
sS'P'
p3008
I6
sS'RP1'
p3009
I7
sS'JP'
p3010
I3
sS'RP_tot'
p3011
I7
sS'TO'
p3012
I6
sS'PA'
p3013
I10
sS'M'
p3014
I12
sS'R'
p3015
I10
sS'TB'
p3016
I6
sS'PL'
p3017
I7
sS'TA'
p3018
I7
ssg130
g2987
sg131
I0
sg54
g32
sg132
I0
sg133
I0
sg134
I0
sg135
I2
sg136
I0
sg137
I0
sg138
S'ES'
p3019
sbssg122
I0
sg28
I0
sg124
I0
sg125
I0
sg126
F9.703703703703704
sg127
I0
sg128
I0
sg129
I0
sg615
(dp3020
g2835
I8
sg2836
I8
sg2837
I6
sg2838
I11
sg2839
I6
sg2840
I7
sg2841
I3
sg2842
I7
sg2843
I6
sg2844
I10
sg2845
I12
sg2846
I10
sg2847
I6
sg2848
I7
sg2849
I7
ssg130
(dp3021
g2835
I11
sg2836
I8
sg2837
I8
sg2838
I12
sg2843
I9
sg2840
I8
sg2841
I5
sg2842
I10
sg2839
I7
sg2844
I13
sg2845
I11
sg2846
I8
sg2847
I9
sg2848
I10
sg2849
I7
ssg131
I0
sg699
(dp3022
sg132
I0
sg54
S'GP 12;vide 13'
p3023
sg133
I0
sg134
I0
sg135
I11
sg136
I0
sg137
I0
sg138
S'ES'
p3024
sbssg73
S'BIL_defaut'
p3025
sS'totaux'
p3026
(dp3027
g2287
I0
sg2288
I0
sg2289
I0
ssg9
Nsg85
(dp3028
g2272
I0
sg2273
I0
sg2274
I0
sg2275
I0
sg2276
I0
sg2277
I0
sg2278
I0
sg2279
I0
sg2280
I0
sg2281
I0
sg2282
I0
sg2283
I0
sg2284
I0
ssg21
(dp3029
S'n12'
p3030
(ijoueur
joueur
p3031
(dp3032
g27
I0
sg28
I0
sg29
I0
sg30
F9.312602141629233
sg31
g32
sg33
I0
sg34
g32
sg35
g0
(g36
g2
Ntp3033
Rp3034
(dp3035
g40
I4
sg41
S'*'
p3036
sg43
S'heros'
p3037
sbsg45
(dp3038
S'SR'
p3039
I0
sS'CT'
p3040
I1
sS'CR'
p3041
I0
sS'ST'
p3042
I0
ssg51
(dp3043
g3039
I0
sg3040
I0
sg3041
I0
sg3042
I0
ssg53
I18
sg54
g32
sg55
I0
sg56
F9.312602141629233
sg57
I0
sg58
I0
sg59
I0
sg60
S'BIL'
p3044
sg62
I00
sg63
g3034
sg64
(dp3045
g3039
I0
sg3040
I0
sg3041
I0
sg3042
I0
ssg77
(dp3046
g3039
I0
sg3040
I1
sg3041
I0
sg3042
I0
ssg67
(dp3047
g3039
I0
sg3040
I0
sg3041
I0
sg3042
I0
ssg69
(dp3048
g3039
I0
sg3040
I0
sg3041
I0
sg3042
I0
ssg71
I0
sg72
I0
sg73
S'Terel'
p3049
sg75
I7
sg76
I0
sg66
I00
sg79
I75
sg80
(S'dummy'
p3050
S'C1'
p3051
S'DO'
p3052
g32
tp3053
sg84
g32
sg85
(dp3054
S'RP1'
p3055
I8
sS'ME'
p3056
I6
sS'RP2'
p3057
I9
sS'E'
p3058
I9
sS'TO'
p3059
I5
sS'M'
p3060
I8
sS'JP'
p3061
I8
sS'RP_tot'
p3062
I10
sS'P'
p3063
I10
sS'PA'
p3064
I9
sS'A'
p3065
I10
sS'R'
p3066
I9
sS'TB'
p3067
I8
sS'PL'
p3068
I9
sS'TA'
p3069
I7
ssg102
(dp3070
S's12'
p3071
(ijoueur
joueur
p3072
(dp3073
g27
I0
sg28
I0
sg29
I0
sg33
I0
sg35
g0
(g36
g2
Ntp3074
Rp3075
(dp3076
g41
g32
sbsg45
(dp3077
g3039
I0
sg3040
I0
sg3041
I0
sg3042
I0
ssg51
(dp3078
g3039
I0
sg3040
I0
sg3041
I0
sg3042
I0
ssg53
I0
sg54
g32
sg55
I0
sg57
I0
sg58
I0
sg59
I0
sg80
(g3050
S'CE'
p3079
g32
g32
tp3080
sg62
I00
sg63
g0
(g36
g2
Ntp3081
Rp3082
(dp3083
g41
g32
sbsg64
(dp3084
g3039
I0
sg3040
I0
sg3041
I0
sg3042
I0
ssg77
(dp3085
g3039
I0
sg3040
I0
sg3041
I0
sg3042
I0
ssg67
(dp3086
g3039
I0
sg3040
I0
sg3041
I0
sg3042
I0
ssg69
(dp3087
g3039
I0
sg3040
I0
sg3041
I0
sg3042
I0
ssg71
I0
sg72
I0
sg73
S'Terel (12)'
p3088
sg75
I0
sg76
I0
sg66
I00
sg79
I0
sg60
g3044
sg85
(dp3089
g3065
I0
sg3056
I0
sg3057
I0
sg3058
I0
sg3063
I0
sg3055
I0
sg3061
I0
sg3062
I0
sg3059
I0
sg3064
I0
sg3060
I0
sg3066
I0
sg3067
I0
sg3068
I0
sg3069
I0
ssg102
(dp3090
sg122
I0
sg123
g32
sg124
I0
sg125
I0
sg126
F0.0
sg127
I0
sg128
I0
sg129
I0
sg130
(dp3091
g3055
I8
sg3056
I6
sg3057
I9
sg3058
I9
sg3063
I10
sg3061
I8
sg3060
I8
sg3062
I10
sg3059
I5
sg3064
I9
sg3065
I10
sg3066
I9
sg3067
I8
sg3068
I9
sg3069
I7
ssg131
I0
sg132
I0
sg133
I0
sg134
I0
sg135
I0
sg136
I0
sg137
I0
sg138
g32
sbsS's11'
p3092
(ijoueur
joueur
p3093
(dp3094
g27
I0
sg28
I0
sg29
I0
sg33
I0
sg35
g0
(g36
g2
Ntp3095
Rp3096
(dp3097
g41
g32
sbsg45
(dp3098
g3039
I0
sg3040
I0
sg3041
I0
sg3042
I0
ssg51
(dp3099
g3039
I0
sg3040
I0
sg3041
I0
sg3042
I0
ssg53
I0
sg54
g32
sg55
I0
sg57
I0
sg58
I0
sg59
I0
sg80
g3080
sg62
I00
sg63
g0
(g36
g2
Ntp3100
Rp3101
(dp3102
g41
g32
sbsg64
(dp3103
g3039
I0
sg3040
I0
sg3041
I0
sg3042
I0
ssg77
(dp3104
g3039
I0
sg3040
I0
sg3041
I0
sg3042
I0
ssg67
(dp3105
g3039
I0
sg3040
I0
sg3041
I0
sg3042
I0
ssg69
(dp3106
g3039
I0
sg3040
I0
sg3041
I0
sg3042
I0
ssg71
I0
sg72
I0
sg73
S'Terel (11)'
p3107
sg75
I0
sg76
I0
sg66
I00
sg79
I0
sg60
g3044
sg85
(dp3108
g3065
I0
sg3056
I0
sg3057
I0
sg3058
I0
sg3063
I0
sg3055
I0
sg3061
I0
sg3062
I0
sg3059
I0
sg3064
I0
sg3060
I0
sg3066
I0
sg3067
I0
sg3068
I0
sg3069
I0
ssg102
(dp3109
sg122
I0
sg123
g32
sg124
I0
sg125
I0
sg126
F0.0
sg127
I0
sg128
I0
sg129
I0
sg130
g3091
sg131
I0
sg132
I0
sg133
I0
sg134
I0
sg135
I0
sg136
I0
sg137
I0
sg138
g32
sbssg122
I4
sg123
g32
sg124
I0
sg125
I0
sg126
F9.166666666666666
sg127
I0
sg128
I0
sg129
I0
sg130
g3091
sg131
I0
sg132
I0
sg133
I0
sg134
I0
sg135
I7
sg136
I0
sg137
I0
sg138
S'EST'
p3110
sbsS'n13'
p3111
(ijoueur
joueur
p3112
(dp3113
g27
I0
sg28
I0
sg29
I0
sg30
F9.312602141629233
sg31
g32
sg33
I0
sg34
g32
sg35
g0
(g36
g2
Ntp3114
Rp3115
(dp3116
g40
I1
sg41
S'<'
p3117
sg43
S'base'
p3118
sbsg45
(dp3119
g3039
I0
sg3040
I0
sg3041
I0
sg3042
I0
ssg51
(dp3120
g3039
I0
sg3040
I0
sg3041
I0
sg3042
I0
ssg53
I14
sg54
g32
sg55
I0
sg56
F9.312602141629233
sg57
I0
sg58
I0
sg59
I0
sg60
g3044
sg62
I00
sg63
g3115
sg64
(dp3121
g3039
I0
sg3040
I1
sg3041
I0
sg3042
I0
ssg77
(dp3122
g3039
I0
sg3040
I0
sg3041
I0
sg3042
I0
ssg67
(dp3123
g3039
I0
sg3040
I0
sg3041
I0
sg3042
I0
ssg69
(dp3124
g3039
I0
sg3040
I1
sg3041
I0
sg3042
I0
ssg71
I0
sg72
I0
sg73
S'Xamitiel'
p3125
sg75
I5
sg76
I0
sg66
I00
sg79
I8
sg80
(g3050
S'C2'
p3126
g32
g32
tp3127
sg84
g32
sg85
(dp3128
g3055
I7
sg3056
I5
sg3057
I7
sg3058
I8
sg3059
I3
sg3060
I10
sg3061
I6
sg3062
I8
sg3063
I8
sg3064
I8
sg3065
I10
sg3066
I8
sg3067
I7
sg3068
I9
sg3069
I3
ssg102
(dp3129
S's12'
p3130
(ijoueur
joueur
p3131
(dp3132
g27
I0
sg28
I0
sg29
I0
sg33
I0
sg35
g0
(g36
g2
Ntp3133
Rp3134
(dp3135
g41
g32
sbsg45
(dp3136
g3039
I0
sg3040
I0
sg3041
I0
sg3042
I0
ssg51
(dp3137
g3039
I0
sg3040
I0
sg3041
I0
sg3042
I0
ssg53
I0
sg54
g32
sg55
I0
sg57
I0
sg58
I0
sg59
I0
sg80
(g3050
g3079
g32
g32
tp3138
sg62
I00
sg63
g0
(g36
g2
Ntp3139
Rp3140
(dp3141
g41
g32
sbsg64
(dp3142
g3039
I0
sg3040
I0
sg3041
I0
sg3042
I0
ssg77
(dp3143
g3039
I0
sg3040
I0
sg3041
I0
sg3042
I0
ssg67
(dp3144
g3039
I0
sg3040
I0
sg3041
I0
sg3042
I0
ssg69
(dp3145
g3039
I0
sg3040
I0
sg3041
I0
sg3042
I0
ssg71
I0
sg72
I0
sg73
S'Xamitiel (12)'
p3146
sg75
I0
sg76
I0
sg66
I00
sg79
I0
sg60
g3044
sg85
(dp3147
g3065
I0
sg3056
I0
sg3057
I0
sg3058
I0
sg3063
I0
sg3055
I0
sg3061
I0
sg3062
I0
sg3059
I0
sg3064
I0
sg3060
I0
sg3066
I0
sg3067
I0
sg3068
I0
sg3069
I0
ssg102
(dp3148
sg122
I0
sg123
g32
sg124
I0
sg125
I0
sg126
F0.0
sg127
I0
sg128
I0
sg129
I0
sg130
(dp3149
g3055
I7
sg3056
I5
sg3057
I7
sg3058
I8
sg3063
I8
sg3061
I6
sg3060
I10
sg3062
I8
sg3059
I3
sg3064
I8
sg3065
I10
sg3066
I8
sg3067
I7
sg3068
I9
sg3069
I3
ssg131
I0
sg132
I0
sg133
I0
sg134
I0
sg135
I0
sg136
I0
sg137
I0
sg138
g32
sbsS's11'
p3150
(ijoueur
joueur
p3151
(dp3152
g27
I0
sg28
I0
sg29
I0
sg33
I0
sg35
g0
(g36
g2
Ntp3153
Rp3154
(dp3155
g41
g32
sbsg45
(dp3156
g3039
I0
sg3040
I0
sg3041
I0
sg3042
I0
ssg51
(dp3157
g3039
I0
sg3040
I0
sg3041
I0
sg3042
I0
ssg53
I0
sg54
g32
sg55
I0
sg57
I0
sg58
I0
sg59
I0
sg80
g3138
sg62
I00
sg63
g0
(g36
g2
Ntp3158
Rp3159
(dp3160
g41
g32
sbsg64
(dp3161
g3039
I0
sg3040
I0
sg3041
I0
sg3042
I0
ssg77
(dp3162
g3039
I0
sg3040
I0
sg3041
I0
sg3042
I0
ssg67
(dp3163
g3039
I0
sg3040
I0
sg3041
I0
sg3042
I0
ssg69
(dp3164
g3039
I0
sg3040
I0
sg3041
I0
sg3042
I0
ssg71
I0
sg72
I0
sg73
S'Xamitiel (11)'
p3165
sg75
I0
sg76
I0
sg66
I00
sg79
I0
sg60
g3044
sg85
(dp3166
g3065
I0
sg3056
I0
sg3057
I0
sg3058
I0
sg3063
I0
sg3055
I0
sg3061
I0
sg3062
I0
sg3059
I0
sg3064
I0
sg3060
I0
sg3066
I0
sg3067
I0
sg3068
I0
sg3069
I0
ssg102
(dp3167
sg122
I0
sg123
g32
sg124
I0
sg125
I0
sg126
F0.0
sg127
I0
sg128
I0
sg129
I0
sg130
g3149
sg131
I0
sg132
I0
sg133
I0
sg134
I0
sg135
I0
sg136
I0
sg137
I0
sg138
g32
sbssg122
I3
sg123
g32
sg124
I0
sg125
I0
sg126
F8.586206896551724
sg127
I0
sg128
I0
sg129
I0
sg130
g3149
sg131
I0
sg132
I0
sg133
I0
sg134
I0
sg135
I0
sg136
I0
sg137
I0
sg138
g3110
sbsS'n10'
p3168
(ijoueur
joueur
p3169
(dp3170
g27
I0
sg28
I0
sg29
I0
sg30
F9.312602141629233
sg31
g32
sg33
I0
sg34
g32
sg35
g0
(g36
g2
Ntp3171
Rp3172
(dp3173
g40
I5
sg41
S'**'
p3174
sg43
S'seigneur'
p3175
sbsg45
(dp3176
g3039
I0
sg3040
I1
sg3041
I0
sg3042
I0
ssg51
(dp3177
g3039
I0
sg3040
I0
sg3041
I0
sg3042
I0
ssg53
I17
sg54
g32
sg55
I0
sg56
F9.312602141629233
sg57
I1
sg58
I0
sg59
I1
sg60
g3044
sg62
I00
sg63
g3172
sg64
(dp3178
g3039
I0
sg3040
I0
sg3041
I0
sg3042
I0
ssg77
(dp3179
g3039
I0
sg3040
I1
sg3041
I0
sg3042
I0
ssg67
(dp3180
g3039
I0
sg3040
I0
sg3041
I0
sg3042
I0
ssg69
(dp3181
g3039
I0
sg3040
I0
sg3041
I0
sg3042
I0
ssg71
I2
sg72
I2
sg73
S'Moela'
p3182
sg75
I10
sg76
I1
sg66
I00
sg79
I125
sg80
(g3050
S'DO'
p3183
S'DM'
p3184
S'AR'
p3185
tp3186
sg84
g32
sg85
(dp3187
g3055
I9
sg3056
I5
sg3057
I12
sg3058
I11
sg3059
I7
sg3060
I9
sg3061
I9
sg3062
I13
sg3063
I11
sg3064
I11
sg3065
I10
sg3066
I8
sg3067
I9
sg3068
I11
sg3069
I7
ssg102
(dp3188
S's12'
p3189
(ijoueur
joueur
p3190
(dp3191
g27
I0
sg28
I0
sg29
I0
sg33
I0
sg35
g0
(g36
g2
Ntp3192
Rp3193
(dp3194
g41
g32
sbsg45
(dp3195
g3039
I0
sg3040
I0
sg3041
I0
sg3042
I0
ssg51
(dp3196
g3039
I0
sg3040
I0
sg3041
I0
sg3042
I0
ssg53
I0
sg54
g32
sg55
I0
sg57
I0
sg58
I0
sg59
I0
sg80
(g3050
g3183
g32
g32
tp3197
sg62
I00
sg63
g0
(g36
g2
Ntp3198
Rp3199
(dp3200
g41
g32
sbsg64
(dp3201
g3039
I0
sg3040
I0
sg3041
I0
sg3042
I0
ssg77
(dp3202
g3039
I0
sg3040
I0
sg3041
I0
sg3042
I0
ssg67
(dp3203
g3039
I0
sg3040
I0
sg3041
I0
sg3042
I0
ssg69
(dp3204
g3039
I0
sg3040
I0
sg3041
I0
sg3042
I0
ssg71
I0
sg72
I0
sg73
g32
sg75
I0
sg76
I0
sg66
I00
sg79
I0
sg60
g3044
sg85
(dp3205
g3065
I0
sg3056
I0
sg3057
I0
sg3058
I0
sg3063
I0
sg3055
I0
sg3061
I0
sg3062
I0
sg3059
I0
sg3064
I0
sg3060
I0
sg3066
I0
sg3067
I0
sg3068
I0
sg3069
I0
ssg102
(dp3206
sg122
I0
sg123
g32
sg124
I0
sg125
I0
sg126
F0.0
sg127
I0
sg128
I0
sg129
I0
sg130
(dp3207
g3055
I9
sg3056
I5
sg3057
I12
sg3058
I11
sg3063
I11
sg3061
I9
sg3060
I9
sg3062
I13
sg3059
I7
sg3064
I11
sg3065
I10
sg3066
I8
sg3067
I9
sg3068
I11
sg3069
I7
ssg131
I0
sg132
I0
sg133
I0
sg134
I0
sg135
I0
sg136
I0
sg137
I0
sg138
g32
sbsS's11'
p3208
(ijoueur
joueur
p3209
(dp3210
g27
I0
sg28
I0
sg29
I0
sg33
I0
sg35
g0
(g36
g2
Ntp3211
Rp3212
(dp3213
g41
g32
sbsg45
(dp3214
g3039
I0
sg3040
I0
sg3041
I0
sg3042
I0
ssg51
(dp3215
g3039
I0
sg3040
I0
sg3041
I0
sg3042
I0
ssg53
I0
sg54
g32
sg55
I0
sg57
I0
sg58
I0
sg59
I0
sg80
g3197
sg62
I00
sg63
g0
(g36
g2
Ntp3216
Rp3217
(dp3218
g41
g32
sbsg64
(dp3219
g3039
I0
sg3040
I0
sg3041
I0
sg3042
I0
ssg77
(dp3220
g3039
I0
sg3040
I0
sg3041
I0
sg3042
I0
ssg67
(dp3221
g3039
I0
sg3040
I0
sg3041
I0
sg3042
I0
ssg69
(dp3222
g3039
I0
sg3040
I0
sg3041
I0
sg3042
I0
ssg71
I0
sg72
I0
sg73
g32
sg75
I0
sg76
I0
sg66
I00
sg79
I0
sg60
g3044
sg85
(dp3223
g3065
I0
sg3056
I0
sg3057
I0
sg3058
I0
sg3063
I0
sg3055
I0
sg3061
I0
sg3062
I0
sg3059
I0
sg3064
I0
sg3060
I0
sg3066
I0
sg3067
I0
sg3068
I0
sg3069
I0
ssg102
(dp3224
sg122
I0
sg123
g32
sg124
I0
sg125
I0
sg126
F0.0
sg127
I0
sg128
I0
sg129
I0
sg130
g3207
sg131
I0
sg132
I0
sg133
I0
sg134
I0
sg135
I0
sg136
I0
sg137
I0
sg138
g32
sbssg122
I3
sg123
g32
sg124
I0
sg125
I0
sg126
F10.515151515151516
sg127
I0
sg128
I0
sg129
I0
sg130
g3207
sg131
I0
sg132
I0
sg133
I0
sg134
I0
sg135
I12
sg136
I1
sg137
I0
sg138
g3110
sbsS'n11'
p3225
(ijoueur
joueur
p3226
(dp3227
g27
I0
sg28
I0
sg29
I0
sg30
F9.312602141629233
sg31
g32
sg33
I0
sg34
g32
sg35
g0
(g36
g2
Ntp3228
Rp3229
(dp3230
g40
I4
sg41
g2589
sg43
g2590
sbsg45
(dp3231
g2512
I0
sg2513
I0
sg2514
I0
sg2515
I0
ssg51
(dp3232
g2512
I0
sg2513
I0
sg2514
I0
sg2515
I0
ssg54
g32
sg55
I0
sg56
F9.312602141629233
sg57
I0
sg58
I0
sg59
I0
sg60
g2307
sg62
I00
sg63
g3229
sg64
(dp3233
g2512
I0
sg2513
I1
sg2514
I0
sg2515
I0
ssg66
I00
sg67
(dp3234
g2512
I0
sg2513
I0
sg2514
I0
sg2515
I0
ssg69
(dp3235
g2512
I0
sg2513
I1
sg2514
I0
sg2515
I0
ssg71
I0
sg72
I0
sg73
S'Yolae'
p3236
sg75
I4
sg76
I0
sg53
I14
sg79
I150
sg80
(g2521
S'AI'
p3237
g32
g32
tp3238
sg84
g32
sg85
(dp3239
g2527
I9
sg2528
I4
sg2529
I11
sg2530
I8
sg2531
I6
sg2532
I10
sg2533
I7
sg2534
I12
sg2535
I10
sg2536
I10
sg2537
I11
sg2538
I8
sg2539
I7
sg2540
I9
sg2541
I4
ssg102
(dp3240
S's12'
p3241
(ijoueur
joueur
p3242
(dp3243
g27
I0
sg28
I0
sg29
I0
sg33
I0
sg35
g0
(g36
g2
Ntp3244
Rp3245
(dp3246
g41
g32
sbsg45
(dp3247
g2512
I0
sg2513
I0
sg2514
I0
sg2515
I0
ssg51
(dp3248
g2512
I0
sg2513
I0
sg2514
I0
sg2515
I0
ssg54
g32
sg55
I0
sg57
I0
sg58
I0
sg59
I0
sg80
(g2521
g3237
g32
g32
tp3249
sg62
I00
sg63
g0
(g36
g2
Ntp3250
Rp3251
(dp3252
g41
g32
sbsg64
(dp3253
g2512
I0
sg2513
I0
sg2514
I0
sg2515
I0
ssg66
I00
sg67
(dp3254
g2512
I0
sg2513
I0
sg2514
I0
sg2515
I0
ssg69
(dp3255
g2512
I0
sg2513
I0
sg2514
I0
sg2515
I0
ssg71
I0
sg72
I0
sg73
g32
sg75
I0
sg76
I0
sg53
I0
sg79
I0
sg60
g2307
sg85
(dp3256
g2537
I0
sg2528
I0
sg2529
I0
sg2530
I0
sg2535
I0
sg2527
I0
sg2533
I0
sg2534
I0
sg2531
I0
sg2536
I0
sg2532
I0
sg2538
I0
sg2539
I0
sg2540
I0
sg2541
I0
ssg102
(dp3257
sg122
I0
sg123
g32
sg124
I0
sg128
I0
sg125
I0
sg126
F0.0
sg127
I0
sg77
(dp3258
g2512
I0
sg2513
I0
sg2514
I0
sg2515
I0
ssg129
I0
sg130
(dp3259
g2527
I9
sg2528
I4
sg2529
I11
sg2530
I8
sg2535
I10
sg2533
I7
sg2532
I10
sg2534
I12
sg2531
I6
sg2536
I10
sg2537
I11
sg2538
I8
sg2539
I7
sg2540
I9
sg2541
I4
ssg131
I0
sg132
I0
sg133
I0
sg134
I0
sg135
I0
sg136
I0
sg137
I0
sg138
g32
sbsS's11'
p3260
(ijoueur
joueur
p3261
(dp3262
g27
I0
sg28
I0
sg29
I0
sg33
I0
sg35
g0
(g36
g2
Ntp3263
Rp3264
(dp3265
g41
g32
sbsg45
(dp3266
g2512
I0
sg2513
I0
sg2514
I0
sg2515
I0
ssg51
(dp3267
g2512
I0
sg2513
I0
sg2514
I0
sg2515
I0
ssg54
g32
sg55
I0
sg57
I0
sg58
I0
sg59
I0
sg80
g3249
sg62
I00
sg63
g0
(g36
g2
Ntp3268
Rp3269
(dp3270
g41
g32
sbsg64
(dp3271
g2512
I0
sg2513
I0
sg2514
I0
sg2515
I0
ssg66
I00
sg67
(dp3272
g2512
I0
sg2513
I0
sg2514
I0
sg2515
I0
ssg69
(dp3273
g2512
I0
sg2513
I0
sg2514
I0
sg2515
I0
ssg71
I0
sg72
I0
sg73
g32
sg75
I0
sg76
I0
sg53
I0
sg79
I0
sg60
g2307
sg85
(dp3274
g2537
I0
sg2528
I0
sg2529
I0
sg2530
I0
sg2535
I0
sg2527
I0
sg2533
I0
sg2534
I0
sg2531
I0
sg2536
I0
sg2532
I0
sg2538
I0
sg2539
I0
sg2540
I0
sg2541
I0
ssg102
(dp3275
sg122
I0
sg123
g32
sg124
I0
sg128
I0
sg125
I0
sg126
F0.0
sg127
I0
sg77
(dp3276
g2512
I0
sg2513
I0
sg2514
I0
sg2515
I0
ssg129
I0
sg130
g3259
sg131
I0
sg132
I0
sg133
I0
sg134
I0
sg135
I0
sg136
I0
sg137
I0
sg138
g32
sbssg122
I3
sg123
g32
sg124
I0
sg128
I0
sg125
I0
sg126
F10.03225806451613
sg127
I0
sg77
(dp3277
g2512
I0
sg2513
I0
sg2514
I0
sg2515
I0
ssg129
I0
sg130
g3259
sg131
I0
sg132
I0
sg133
I0
sg134
I0
sg135
I15
sg136
I0
sg137
I0
sg138
g2580
sbsS'n16'
p3278
(ijoueur
joueur
p3279
(dp3280
g27
I0
sg28
I0
sg29
I0
sg30
F9.312602141629233
sg31
g32
sg33
I0
sg34
g32
sg35
g0
(g36
g2
Ntp3281
Rp3282
(dp3283
g40
I3
sg41
S'<<<'
p3284
sg43
S'rare'
p3285
sbsg45
(dp3286
g2512
I0
sg2513
I0
sg2514
I0
sg2515
I0
ssg51
(dp3287
g2512
I0
sg2513
I0
sg2514
I0
sg2515
I0
ssg54
g32
sg55
I0
sg56
F9.312602141629233
sg57
I0
sg58
I0
sg59
I0
sg60
g2307
sg62
I00
sg63
g0
(g36
g2
Ntp3288
Rp3289
(dp3290
g40
I1
sg41
S'^'
p3291
sg43
S'base'
p3292
sbsg64
(dp3293
g2512
I0
sg2513
I0
sg2514
I1
sg2515
I0
ssg66
I00
sg67
(dp3294
g2512
I0
sg2513
I0
sg2514
I0
sg2515
I0
ssg69
(dp3295
g2512
I0
sg2513
I0
sg2514
I1
sg2515
I0
ssg71
I0
sg72
I0
sg73
S'Hualmadir'
p3296
sg75
I12
sg76
I0
sg53
I22
sg79
I9
sg80
(g2521
g2541
g32
g32
tp3297
sg84
g32
sg85
(dp3298
g2527
I8
sg2528
I7
sg2529
I6
sg2530
I9
sg2531
I6
sg2532
I7
sg2533
I3
sg2534
I8
sg2535
I4
sg2536
I6
sg2537
I9
sg2538
I8
sg2539
I4
sg2540
I7
sg2541
I9
ssg102
(dp3299
S's12'
p3300
(ijoueur
joueur
p3301
(dp3302
g27
I0
sg28
I0
sg29
I0
sg33
I0
sg35
g0
(g36
g2
Ntp3303
Rp3304
(dp3305
g41
g32
sbsg45
(dp3306
g2512
I0
sg2513
I0
sg2514
I0
sg2515
I0
ssg51
(dp3307
g2512
I0
sg2513
I0
sg2514
I0
sg2515
I0
ssg54
g32
sg55
I0
sg57
I0
sg58
I0
sg59
I0
sg80
(g2521
g2541
g32
g32
tp3308
sg62
I00
sg63
g0
(g36
g2
Ntp3309
Rp3310
(dp3311
g41
g32
sbsg64
(dp3312
g2512
I0
sg2513
I0
sg2514
I0
sg2515
I0
ssg66
I00
sg67
(dp3313
g2512
I0
sg2513
I0
sg2514
I0
sg2515
I0
ssg69
(dp3314
g2512
I0
sg2513
I0
sg2514
I0
sg2515
I0
ssg71
I0
sg72
I0
sg73
S'Hualmadir (12)'
p3315
sg75
I0
sg76
I0
sg53
I0
sg79
I0
sg60
g2307
sg85
(dp3316
g2537
I0
sg2528
I0
sg2529
I0
sg2530
I0
sg2535
I0
sg2527
I0
sg2533
I0
sg2534
I0
sg2531
I0
sg2536
I0
sg2532
I0
sg2538
I0
sg2539
I0
sg2540
I0
sg2541
I0
ssg102
(dp3317
sg122
I0
sg123
g32
sg124
I0
sg128
I0
sg125
I0
sg126
F0.0
sg127
I0
sg77
(dp3318
g2512
I0
sg2513
I0
sg2514
I0
sg2515
I0
ssg129
I0
sg130
(dp3319
g2527
I8
sg2528
I7
sg2529
I6
sg2530
I9
sg2535
I4
sg2533
I3
sg2532
I7
sg2534
I8
sg2531
I6
sg2536
I6
sg2537
I9
sg2538
I8
sg2539
I4
sg2540
I7
sg2541
I9
ssg131
I0
sg132
I0
sg133
I0
sg134
I0
sg135
I0
sg136
I0
sg137
I0
sg138
g32
sbssg122
I0
sg123
g32
sg124
I0
sg128
I0
sg125
I0
sg126
F8.0
sg127
I0
sg77
(dp3320
g2512
I0
sg2513
I0
sg2514
I0
sg2515
I0
ssg129
I0
sg130
g3319
sg131
I0
sg132
I0
sg133
I0
sg134
I0
sg135
I0
sg136
I0
sg137
I0
sg138
g2580
sbsS'n17'
p3321
(ijoueur
joueur
p3322
(dp3323
g27
I0
sg28
I0
sg29
I0
sg30
F9.312602141629233
sg31
g32
sg33
I0
sg34
g32
sg35
g0
(g36
g2
Ntp3324
Rp3325
(dp3326
g40
I2
sg41
S'^^'
p3327
sg43
S'special'
p3328
sbsg45
(dp3329
g2512
I0
sg2513
I1
sg2514
I0
sg2515
I0
ssg51
(dp3330
g2512
I0
sg2513
I0
sg2514
I0
sg2515
I0
ssg54
g32
sg55
I0
sg56
F9.312602141629233
sg57
I0
sg58
I0
sg59
I0
sg60
g2307
sg62
I00
sg63
g0
(g36
g2
Ntp3331
Rp3332
(dp3333
g40
I1
sg41
S'<'
p3334
sg43
g3292
sbsg64
(dp3335
g2512
I0
sg2513
I0
sg2514
I0
sg2515
I0
ssg66
I00
sg67
(dp3336
g2512
I0
sg2513
I0
sg2514
I0
sg2515
I0
ssg69
(dp3337
g2512
I0
sg2513
I0
sg2514
I0
sg2515
I0
ssg71
I0
sg72
I0
sg73
S'Ynlea'
p3338
sg75
I12
sg76
I0
sg53
I25
sg79
I9
sg80
(g2521
g2541
S'PI'
p3339
g32
tp3340
sg84
g32
sg85
(dp3341
g2527
I8
sg2528
I8
sg2529
I7
sg2530
I9
sg2531
I7
sg2532
I8
sg2533
I0
sg2534
I9
sg2535
I2
sg2536
I7
sg2537
I10
sg2538
I8
sg2539
I1
sg2540
I9
sg2541
I7
ssg102
(dp3342
S's12'
p3343
(ijoueur
joueur
p3344
(dp3345
g27
I0
sg28
I0
sg29
I0
sg33
I0
sg35
g0
(g36
g2
Ntp3346
Rp3347
(dp3348
g41
g32
sbsg45
(dp3349
g2512
I0
sg2513
I0
sg2514
I0
sg2515
I0
ssg51
(dp3350
g2512
I0
sg2513
I0
sg2514
I0
sg2515
I0
ssg54
g32
sg55
I0
sg57
I0
sg58
I0
sg59
I0
sg80
(g2521
g2541
g32
g32
tp3351
sg62
I00
sg63
g0
(g36
g2
Ntp3352
Rp3353
(dp3354
g41
g32
sbsg64
(dp3355
g2512
I0
sg2513
I0
sg2514
I0
sg2515
I0
ssg66
I00
sg67
(dp3356
g2512
I0
sg2513
I0
sg2514
I0
sg2515
I0
ssg69
(dp3357
g2512
I0
sg2513
I0
sg2514
I0
sg2515
I0
ssg71
I0
sg72
I0
sg73
S'Ynlea (12)'
p3358
sg75
I0
sg76
I0
sg53
I0
sg79
I0
sg60
g2307
sg85
(dp3359
g2537
I0
sg2528
I0
sg2529
I0
sg2530
I0
sg2535
I0
sg2527
I0
sg2533
I0
sg2534
I0
sg2531
I0
sg2536
I0
sg2532
I0
sg2538
I0
sg2539
I0
sg2540
I0
sg2541
I0
ssg102
(dp3360
sg122
I0
sg123
g32
sg124
I0
sg128
I0
sg125
I0
sg126
F0.0
sg127
I0
sg77
(dp3361
g2512
I0
sg2513
I0
sg2514
I0
sg2515
I0
ssg129
I0
sg130
(dp3362
g2527
I8
sg2528
I8
sg2529
I7
sg2530
I9
sg2535
I2
sg2533
I0
sg2532
I8
sg2534
I9
sg2531
I7
sg2536
I7
sg2537
I10
sg2538
I8
sg2539
I1
sg2540
I9
sg2541
I7
ssg131
I0
sg132
I0
sg133
I0
sg134
I0
sg135
I0
sg136
I0
sg137
I0
sg138
g32
sbssg122
I2
sg123
g32
sg124
I0
sg128
I0
sg125
I0
sg126
F8.379310344827585
sg127
I0
sg77
(dp3363
g2512
I0
sg2513
I1
sg2514
I0
sg2515
I0
ssg129
I0
sg130
g3362
sg131
I0
sg132
I0
sg133
I0
sg134
I0
sg135
I0
sg136
I0
sg137
I0
sg138
g2580
sbsS'n14'
p3364
(ijoueur
joueur
p3365
(dp3366
g27
I0
sg28
I0
sg29
I0
sg30
F9.312602141629233
sg31
g32
sg33
I0
sg34
g32
sg35
g0
(g36
g2
Ntp3367
Rp3368
(dp3369
g40
I3
sg41
g3284
sg43
g3285
sbsg45
(dp3370
g2512
I0
sg2513
I1
sg2514
I0
sg2515
I0
ssg51
(dp3371
g2512
I0
sg2513
I0
sg2514
I0
sg2515
I0
ssg54
g32
sg55
I0
sg56
F9.312602141629233
sg57
I0
sg58
I0
sg59
I0
sg60
g2307
sg62
I00
sg63
g0
(g36
g2
Ntp3372
Rp3373
(dp3374
g40
I1
sg41
g3291
sg43
g3292
sbsg64
(dp3375
g2512
I0
sg2513
I0
sg2514
I0
sg2515
I0
ssg66
I00
sg67
(dp3376
g2512
I0
sg2513
I0
sg2514
I0
sg2515
I0
ssg69
(dp3377
g2512
I0
sg2513
I0
sg2514
I0
sg2515
I0
ssg71
I0
sg72
I0
sg73
S'Zanci'
p3378
sg75
I13
sg76
I0
sg53
I27
sg79
I10
sg80
(g2521
g2597
S'AI'
p3379
g32
tp3380
sg84
g32
sg85
(dp3381
g2527
I8
sg2528
I5
sg2529
I9
sg2530
I9
sg2531
I3
sg2532
I10
sg2533
I6
sg2534
I10
sg2535
I7
sg2536
I7
sg2537
I9
sg2538
I6
sg2539
I5
sg2540
I9
sg2541
I4
ssg102
(dp3382
sg122
I1
sg123
g32
sg124
I0
sg128
I0
sg125
I0
sg126
F8.696969696969697
sg127
I0
sg77
(dp3383
g2512
I0
sg2513
I1
sg2514
I0
sg2515
I0
ssg129
I0
sg130
(dp3384
g2527
I8
sg2528
I5
sg2529
I9
sg2530
I9
sg2535
I7
sg2533
I6
sg2532
I10
sg2534
I10
sg2531
I3
sg2536
I7
sg2537
I9
sg2538
I6
sg2539
I5
sg2540
I9
sg2541
I4
ssg131
I0
sg132
I0
sg133
I0
sg134
I0
sg135
I1
sg136
I0
sg137
I0
sg138
g2580
sbsS'n15'
p3385
g2584
sS'n18'
p3386
(ijoueur
joueur
p3387
(dp3388
g27
I0
sg28
I0
sg29
I0
sg30
F9.312602141629233
sg31
g32
sg33
I0
sg34
g32
sg35
g0
(g36
g2
Ntp3389
Rp3390
(dp3391
g40
I4
sg41
g2759
sg43
g2590
sbsg45
(dp3392
g2512
I0
sg2513
I1
sg2514
I0
sg2515
I0
ssg51
(dp3393
g2512
I0
sg2513
I0
sg2514
I0
sg2515
I0
ssg54
g32
sg55
I0
sg56
F9.312602141629233
sg57
I0
sg58
I0
sg59
I0
sg60
g2307
sg62
I00
sg63
g0
(g36
g2
Ntp3394
Rp3395
(dp3396
g40
I1
sg41
g3334
sg43
g3292
sbsg64
(dp3397
g2512
I0
sg2513
I0
sg2514
I0
sg2515
I0
ssg66
I00
sg67
(dp3398
g2512
I0
sg2513
I0
sg2514
I0
sg2515
I0
ssg69
(dp3399
g2512
I0
sg2513
I0
sg2514
I0
sg2515
I0
ssg71
I0
sg72
I0
sg73
S'Qelemif'
p3400
sg75
I13
sg76
I0
sg53
I25
sg79
I11
sg80
(g2521
S'N8'
p3401
S'DL'
p3402
g32
tp3403
sg84
g32
sg85
(dp3404
g2527
I9
sg2528
I8
sg2529
I6
sg2530
I9
sg2531
I9
sg2532
I7
sg2533
I4
sg2534
I9
sg2535
I5
sg2536
I7
sg2537
I9
sg2538
I8
sg2539
I3
sg2540
I9
sg2541
I4
ssg102
(dp3405
sg122
I3
sg123
g32
sg124
I0
sg128
I0
sg125
I0
sg126
F8.61111111111111
sg127
I0
sg77
(dp3406
g2512
I0
sg2513
I1
sg2514
I0
sg2515
I0
ssg129
I0
sg130
(dp3407
g2527
I9
sg2528
I8
sg2529
I6
sg2530
I9
sg2535
I5
sg2533
I4
sg2532
I7
sg2534
I9
sg2531
I9
sg2536
I7
sg2537
I9
sg2538
I8
sg2539
I3
sg2540
I9
sg2541
I4
ssg131
I0
sg132
I0
sg133
I0
sg134
I0
sg135
I1
sg136
I0
sg137
I0
sg138
g2580
sbsS'n19'
p3408
g2754
sS'n22'
p3409
(ijoueur
joueur
p3410
(dp3411
g27
I0
sg28
I0
sg29
I0
sg30
F9.312602141629233
sg31
g32
sg33
I0
sg34
g32
sg35
g0
(g36
g2
Ntp3412
Rp3413
(dp3414
g40
I3
sg41
S'^^^'
p3415
sg43
S'rare'
p3416
sbsg45
(dp3417
g3039
I0
sg3040
I0
sg3041
I0
sg3042
I0
ssg51
(dp3418
g3039
I0
sg3040
I0
sg3041
I0
sg3042
I0
ssg53
I21
sg54
g32
sg55
I0
sg56
F9.312602141629233
sg57
I0
sg58
I0
sg59
I0
sg60
g3044
sg62
I00
sg63
g0
(g36
g2
Ntp3419
Rp3420
(dp3421
g40
I1
sg41
S'^'
p3422
sg43
g3118
sbsg64
(dp3423
g3039
I0
sg3040
I0
sg3041
I1
sg3042
I0
ssg77
(dp3424
g3039
I0
sg3040
I0
sg3041
I0
sg3042
I0
ssg67
(dp3425
g3039
I0
sg3040
I0
sg3041
I0
sg3042
I0
ssg69
(dp3426
g3039
I0
sg3040
I0
sg3041
I1
sg3042
I0
ssg71
I0
sg72
I0
sg73
S'Dleo'
p3427
sg75
I12
sg76
I0
sg66
I00
sg79
I12
sg80
(g3050
S'C2'
p3428
S'AI'
p3429
g32
tp3430
sg84
g32
sg85
(dp3431
g3055
I8
sg3056
I3
sg3057
I8
sg3058
I9
sg3059
I4
sg3060
I8
sg3061
I7
sg3062
I10
sg3063
I6
sg3064
I8
sg3065
I8
sg3066
I8
sg3067
I6
sg3068
I8
sg3069
I3
ssg102
(dp3432
S's12'
p3433
(ijoueur
joueur
p3434
(dp3435
g27
I0
sg28
I0
sg29
I0
sg33
I0
sg35
g0
(g36
g2
Ntp3436
Rp3437
(dp3438
g41
g32
sbsg45
(dp3439
g3039
I0
sg3040
I0
sg3041
I0
sg3042
I0
ssg51
(dp3440
g3039
I0
sg3040
I0
sg3041
I0
sg3042
I0
ssg53
I0
sg54
g32
sg55
I0
sg57
I0
sg58
I0
sg59
I0
sg80
(g3050
g3079
g32
g32
tp3441
sg62
I00
sg63
g0
(g36
g2
Ntp3442
Rp3443
(dp3444
g41
g32
sbsg64
(dp3445
g3039
I0
sg3040
I0
sg3041
I0
sg3042
I0
ssg77
(dp3446
g3039
I0
sg3040
I0
sg3041
I0
sg3042
I0
ssg67
(dp3447
g3039
I0
sg3040
I0
sg3041
I0
sg3042
I0
ssg69
(dp3448
g3039
I0
sg3040
I0
sg3041
I0
sg3042
I0
ssg71
I0
sg72
I0
sg73
g32
sg75
I0
sg76
I0
sg66
I00
sg79
I0
sg60
g3044
sg85
(dp3449
g3065
I0
sg3056
I0
sg3057
I0
sg3058
I0
sg3063
I0
sg3055
I0
sg3061
I0
sg3062
I0
sg3059
I0
sg3064
I0
sg3060
I0
sg3066
I0
sg3067
I0
sg3068
I0
sg3069
I0
ssg102
(dp3450
sg122
I0
sg123
g32
sg124
I0
sg125
I0
sg126
F0.0
sg127
I0
sg128
I0
sg129
I0
sg130
(dp3451
g3055
I8
sg3056
I3
sg3057
I8
sg3058
I9
sg3063
I6
sg3061
I7
sg3060
I8
sg3062
I10
sg3059
I4
sg3064
I8
sg3065
I8
sg3066
I8
sg3067
I6
sg3068
I8
sg3069
I3
ssg131
I0
sg132
I0
sg133
I0
sg134
I0
sg135
I0
sg136
I0
sg137
I0
sg138
g32
sbssg122
I1
sg123
g32
sg124
I0
sg125
I0
sg126
F8.379310344827585
sg127
I0
sg128
I0
sg129
I0
sg130
g3451
sg131
I0
sg132
I0
sg133
I0
sg134
I0
sg135
I1
sg136
I0
sg137
I0
sg138
g3110
sbsS'n21'
p3452
(ijoueur
joueur
p3453
(dp3454
g27
I0
sg28
I0
sg29
I0
sg30
F9.312602141629233
sg31
g32
sg33
I0
sg34
g32
sg35
g0
(g36
g2
Ntp3455
Rp3456
(dp3457
g40
I1
sg41
g3117
sg43
g3118
sbsg45
(dp3458
g3039
I0
sg3040
I0
sg3041
I0
sg3042
I0
ssg51
(dp3459
g3039
I0
sg3040
I0
sg3041
I0
sg3042
I0
ssg53
I21
sg54
g32
sg55
I0
sg56
F9.312602141629233
sg57
I0
sg58
I0
sg59
I0
sg60
g3044
sg62
I00
sg63
g3456
sg64
(dp3460
g3039
I0
sg3040
I1
sg3041
I0
sg3042
I0
ssg77
(dp3461
g3039
I0
sg3040
I0
sg3041
I0
sg3042
I0
ssg67
(dp3462
g3039
I0
sg3040
I0
sg3041
I0
sg3042
I0
ssg69
(dp3463
g3039
I0
sg3040
I1
sg3041
I0
sg3042
I0
ssg71
I0
sg72
I0
sg73
S'Klestel'
p3464
sg75
I12
sg76
I0
sg66
I00
sg79
I15
sg80
(g3050
S'C1'
p3465
g32
g32
tp3466
sg84
g32
sg85
(dp3467
g3055
I8
sg3056
I5
sg3057
I8
sg3058
I8
sg3059
I4
sg3060
I8
sg3061
I7
sg3062
I10
sg3063
I8
sg3064
I9
sg3065
I9
sg3066
I7
sg3067
I5
sg3068
I8
sg3069
I3
ssg102
(dp3468
S's12'
p3469
(ijoueur
joueur
p3470
(dp3471
g27
I0
sg28
I0
sg29
I0
sg33
I0
sg35
g0
(g36
g2
Ntp3472
Rp3473
(dp3474
g41
g32
sbsg45
(dp3475
g3039
I0
sg3040
I0
sg3041
I0
sg3042
I0
ssg51
(dp3476
g3039
I0
sg3040
I0
sg3041
I0
sg3042
I0
ssg53
I0
sg54
g32
sg55
I0
sg57
I0
sg58
I0
sg59
I0
sg80
(g3050
g3079
g32
g32
tp3477
sg62
I00
sg63
g0
(g36
g2
Ntp3478
Rp3479
(dp3480
g41
g32
sbsg64
(dp3481
g3039
I0
sg3040
I0
sg3041
I0
sg3042
I0
ssg77
(dp3482
g3039
I0
sg3040
I0
sg3041
I0
sg3042
I0
ssg67
(dp3483
g3039
I0
sg3040
I0
sg3041
I0
sg3042
I0
ssg69
(dp3484
g3039
I0
sg3040
I0
sg3041
I0
sg3042
I0
ssg71
I0
sg72
I0
sg73
g32
sg75
I0
sg76
I0
sg66
I00
sg79
I0
sg60
g3044
sg85
(dp3485
g3065
I0
sg3056
I0
sg3057
I0
sg3058
I0
sg3063
I0
sg3055
I0
sg3061
I0
sg3062
I0
sg3059
I0
sg3064
I0
sg3060
I0
sg3066
I0
sg3067
I0
sg3068
I0
sg3069
I0
ssg102
(dp3486
sg122
I0
sg123
g32
sg124
I0
sg125
I0
sg126
F0.0
sg127
I0
sg128
I0
sg129
I0
sg130
(dp3487
g3055
I8
sg3056
I5
sg3057
I8
sg3058
I8
sg3063
I8
sg3061
I7
sg3060
I8
sg3062
I10
sg3059
I4
sg3064
I9
sg3065
I9
sg3066
I7
sg3067
I5
sg3068
I8
sg3069
I3
ssg131
I0
sg132
I0
sg133
I0
sg134
I0
sg135
I0
sg136
I0
sg137
I0
sg138
g32
sbssg122
I2
sg123
g32
sg124
I0
sg125
I0
sg126
F8.4
sg127
I0
sg128
I0
sg129
I0
sg130
g3487
sg131
I0
sg132
I0
sg133
I0
sg134
I0
sg135
I1
sg136
I0
sg137
I0
sg138
g3110
sbsS'n20'
p3488
(ijoueur
joueur
p3489
(dp3490
g27
I0
sg28
I0
sg29
I0
sg30
F9.312602141629233
sg31
g32
sg33
I0
sg34
g32
sg35
g0
(g36
g2
Ntp3491
Rp3492
(dp3493
g40
I2
sg41
S'^^'
p3494
sg43
S'special'
p3495
sbsg45
(dp3496
g3039
I0
sg3040
I0
sg3041
I0
sg3042
I0
ssg51
(dp3497
g3039
I0
sg3040
I0
sg3041
I0
sg3042
I0
ssg53
I24
sg54
g32
sg55
I0
sg56
F9.312602141629233
sg57
I0
sg58
I0
sg59
I0
sg60
g3044
sg62
I00
sg63
g3492
sg64
(dp3498
g3039
I0
sg3040
I0
sg3041
I1
sg3042
I0
ssg77
(dp3499
g3039
I0
sg3040
I0
sg3041
I0
sg3042
I0
ssg67
(dp3500
g3039
I0
sg3040
I0
sg3041
I0
sg3042
I0
ssg69
(dp3501
g3039
I0
sg3040
I0
sg3041
I1
sg3042
I0
ssg71
I0
sg72
I0
sg73
S'Mesteol'
p3502
sg75
I11
sg76
I0
sg66
I00
sg79
I33
sg80
(g3050
g3183
S'CE'
p3503
g32
tp3504
sg84
g32
sg85
(dp3505
g3055
I6
sg3056
I5
sg3057
I7
sg3058
I8
sg3059
I5
sg3060
I9
sg3061
I10
sg3062
I7
sg3063
I10
sg3064
I8
sg3065
I6
sg3066
I7
sg3067
I9
sg3068
I9
sg3069
I3
ssg102
(dp3506
S's12'
p3507
(ijoueur
joueur
p3508
(dp3509
g27
I0
sg28
I0
sg29
I0
sg33
I0
sg35
g0
(g36
g2
Ntp3510
Rp3511
(dp3512
g41
g32
sbsg45
(dp3513
g3039
I0
sg3040
I0
sg3041
I0
sg3042
I0
ssg51
(dp3514
g3039
I0
sg3040
I0
sg3041
I0
sg3042
I0
ssg53
I0
sg54
g32
sg55
I0
sg57
I0
sg58
I0
sg59
I0
sg80
(g3050
g3183
g32
g32
tp3515
sg62
I00
sg63
g0
(g36
g2
Ntp3516
Rp3517
(dp3518
g41
g32
sbsg64
(dp3519
g3039
I0
sg3040
I0
sg3041
I0
sg3042
I0
ssg77
(dp3520
g3039
I0
sg3040
I0
sg3041
I0
sg3042
I0
ssg67
(dp3521
g3039
I0
sg3040
I0
sg3041
I0
sg3042
I0
ssg69
(dp3522
g3039
I0
sg3040
I0
sg3041
I0
sg3042
I0
ssg71
I0
sg72
I0
sg73
g32
sg75
I0
sg76
I0
sg66
I00
sg79
I0
sg60
g3044
sg85
(dp3523
g3065
I0
sg3056
I0
sg3057
I0
sg3058
I0
sg3063
I0
sg3055
I0
sg3061
I0
sg3062
I0
sg3059
I0
sg3064
I0
sg3060
I0
sg3066
I0
sg3067
I0
sg3068
I0
sg3069
I0
ssg102
(dp3524
sg122
I0
sg123
g32
sg124
I0
sg125
I0
sg126
F0.0
sg127
I0
sg128
I0
sg129
I0
sg130
(dp3525
g3055
I6
sg3056
I5
sg3057
I7
sg3058
I8
sg3063
I10
sg3061
I10
sg3060
I9
sg3062
I7
sg3059
I5
sg3064
I8
sg3065
I6
sg3066
I7
sg3067
I9
sg3068
I9
sg3069
I3
ssg131
I0
sg132
I0
sg133
I0
sg134
I0
sg135
I0
sg136
I0
sg137
I0
sg138
g32
sbsS's11'
p3526
(ijoueur
joueur
p3527
(dp3528
g27
I0
sg28
I0
sg29
I0
sg33
I0
sg35
g0
(g36
g2
Ntp3529
Rp3530
(dp3531
g41
g32
sbsg45
(dp3532
g3039
I0
sg3040
I0
sg3041
I0
sg3042
I0
ssg51
(dp3533
g3039
I0
sg3040
I0
sg3041
I0
sg3042
I0
ssg53
I0
sg54
g32
sg55
I0
sg57
I0
sg58
I0
sg59
I0
sg80
g3515
sg62
I00
sg63
g0
(g36
g2
Ntp3534
Rp3535
(dp3536
g41
g32
sbsg64
(dp3537
g3039
I0
sg3040
I0
sg3041
I0
sg3042
I0
ssg77
(dp3538
g3039
I0
sg3040
I0
sg3041
I0
sg3042
I0
ssg67
(dp3539
g3039
I0
sg3040
I0
sg3041
I0
sg3042
I0
ssg69
(dp3540
g3039
I0
sg3040
I0
sg3041
I0
sg3042
I0
ssg71
I0
sg72
I0
sg73
g32
sg75
I0
sg76
I0
sg66
I00
sg79
I0
sg60
g3044
sg85
(dp3541
g3065
I0
sg3056
I0
sg3057
I0
sg3058
I0
sg3063
I0
sg3055
I0
sg3061
I0
sg3062
I0
sg3059
I0
sg3064
I0
sg3060
I0
sg3066
I0
sg3067
I0
sg3068
I0
sg3069
I0
ssg102
(dp3542
sg122
I0
sg123
g32
sg124
I0
sg125
I0
sg126
F0.0
sg127
I0
sg128
I0
sg129
I0
sg130
g3525
sg131
I0
sg132
I0
sg133
I0
sg134
I0
sg135
I0
sg136
I0
sg137
I0
sg138
g32
sbssg122
I2
sg123
g32
sg124
I0
sg125
I0
sg126
F8.542857142857143
sg127
I0
sg128
I0
sg129
I0
sg130
g3525
sg131
I0
sg132
I0
sg133
I0
sg134
I0
sg135
I3
sg136
I0
sg137
I0
sg138
g3110
sbsS'n8'
p3543
(ijoueur
joueur
p3544
(dp3545
g481
F7.586206896551724
sg27
I0
sg482
F7.827586206896552
sg123
g32
sg29
I0
sg30
I0
sg31
g32
sg33
I0
sg34
g32
sg35
g0
(g36
g2
Ntp3546
Rp3547
(dp3548
g40
I4
sg41
S'*'
p3549
sg43
S'heros'
p3550
sbsg45
(dp3551
S'SR'
p3552
I0
sS'ST'
p3553
I0
sS'CR'
p3554
I0
sS'CT'
p3555
I0
ssg51
(dp3556
g3552
I0
sg3553
I0
sg3554
I0
sg3555
I0
ssg494
I0
sg54
S'vide 13'
p3557
sg55
I0
sg56
I0
sg66
I00
sg57
I0
sg58
I0
sg59
I0
sg60
g2307
sg62
I00
sg63
g3547
sg64
(dp3558
g2309
I0
sg2310
I0
sg2311
I0
sg2312
I0
ssg77
(dp3559
g2309
I0
sg2310
I0
sg2311
I0
sg2312
I0
ssg67
(dp3560
g2309
I0
sg2310
I0
sg2311
I0
sg2312
I0
ssg69
(dp3561
g3552
I0
sg3553
I0
sg3554
I0
sg3555
I0
ssg71
I0
sg72
I0
sg73
S'Snim'
p3562
sg75
I11
sg76
I0
sg53
I20
sg79
I90
sg80
(S'dummy'
p3563
S'N8'
p3564
S'TL'
p3565
S'DL'
p3566
tp3567
sg84
g32
sg85
(dp3568
S'RP1'
p3569
I8
sS'ME'
p3570
I10
sS'RP2'
p3571
I9
sS'E'
p3572
I10
sS'P'
p3573
I6
sS'JP'
p3574
I4
sS'M'
p3575
I7
sS'RP_tot'
p3576
I10
sS'TO'
p3577
I8
sS'PA'
p3578
I8
sS'A'
p3579
I11
sS'R'
p3580
I7
sS'TB'
p3581
I6
sS'PL'
p3582
I11
sS'TA'
p3583
I4
ssg102
(dp3584
g2338
(ijoueur
joueur
p3585
(dp3586
g481
F7.586206896551724
sg27
I0
sg123
g32
sg29
I0
sg31
g32
sg33
I0
sg34
g32
sg35
g0
(g36
g2
Ntp3587
Rp3588
(dp3589
g40
I4
sg41
S'*'
p3590
sg43
S'heros'
p3591
sbsg45
(dp3592
S'SR'
p3593
I0
sS'ST'
p3594
I0
sS'CR'
p3595
I0
sS'CT'
p3596
I0
ssg51
(dp3597
g3593
I0
sg3594
I0
sg3595
I0
sg3596
I0
ssg77
(dp3598
g2353
I0
sg2354
I0
sg2355
I0
sg2356
I0
ssg54
g32
sg55
I0
sg57
I0
sg58
I0
sg59
I0
sg60
g2357
sg62
I00
sg63
g0
(g36
g2
Ntp3599
Rp3600
(dp3601
g40
I3
sg41
g2872
sg43
g2873
sbsg64
(dp3602
g2353
I0
sg2354
I0
sg2355
I0
sg2356
I0
ssg66
I00
sg67
(dp3603
g2353
I0
sg2354
I0
sg2355
I0
sg2356
I0
ssg69
(dp3604
g3593
I0
sg3594
I0
sg3595
I0
sg3596
I0
ssg71
I0
sg72
I0
sg73
S'Snim (12)'
p3605
sg75
I11
sg76
I0
sg53
I20
sg79
I50
sg80
(S'dummy'
p3606
S'N8'
p3607
S'TL'
p3608
S'DL'
p3609
tp3610
sg84
g32
sg85
(dp3611
S'RP1'
p3612
I7
sS'ME'
p3613
I7
sS'RP2'
p3614
I7
sS'E'
p3615
I10
sS'TO'
p3616
I7
sS'M'
p3617
I7
sS'JP'
p3618
I3
sS'RP_tot'
p3619
I8
sS'P'
p3620
I5
sS'PA'
p3621
I7
sS'A'
p3622
I10
sS'R'
p3623
I6
sS'TB'
p3624
I5
sS'PL'
p3625
I9
sS'TA'
p3626
I3
ssg102
(dp3627
g2383
(ijoueur
joueur
p3628
(dp3629
g27
I0
sg29
I0
sg31
g32
sg33
I0
sg34
g32
sg35
g0
(g36
g2
Ntp3630
Rp3631
(dp3632
g40
I4
sg41
S'*'
p3633
sg43
S'heros'
p3634
sbsg45
(dp3635
S'SR'
p3636
I0
sS'CT'
p3637
I0
sS'CR'
p3638
I0
sS'ST'
p3639
I0
ssg51
(dp3640
g3636
I0
sg3637
I0
sg3638
I0
sg3639
I0
ssg54
g32
sg55
I0
sg66
I00
sg57
I0
sg58
I0
sg59
I0
sg60
S'vide'
p3641
sg62
I01
sg63
g0
(g36
g2
Ntp3642
Rp3643
(dp3644
g40
I2
sg41
S'^^'
p3645
sg43
S'special'
p3646
sbsg64
(dp3647
g3636
I0
sg3637
I0
sg3638
I0
sg3639
I0
ssg77
(dp3648
g3636
I0
sg3637
I0
sg3638
I0
sg3639
I0
ssg67
(dp3649
g3636
I0
sg3637
I0
sg3638
I0
sg3639
I0
ssg69
(dp3650
g3636
I0
sg3637
I0
sg3638
I0
sg3639
I0
ssg71
I0
sg72
I0
sg73
S'Snim'
p3651
sg75
I11
sg76
I0
sg53
I20
sg79
I50
sg80
(S'dummy'
p3652
S'N8'
p3653
S'TL'
p3654
S'DL'
p3655
tp3656
sg84
g32
sg85
(dp3657
S'RP1'
p3658
I7
sS'ME'
p3659
I7
sS'RP2'
p3660
I7
sS'E'
p3661
I10
sS'P'
p3662
I5
sS'JP'
p3663
I3
sS'M'
p3664
I7
sS'RP_tot'
p3665
I7
sS'TO'
p3666
I6
sS'PA'
p3667
I6
sS'A'
p3668
I8
sS'R'
p3669
I6
sS'TB'
p3670
I5
sS'PL'
p3671
I9
sS'TA'
p3672
I3
ssg122
I0
sg28
I0
sg124
I0
sg125
I0
sg126
F7.586206896551724
sg127
I0
sg128
I0
sg129
I0
sg615
(dp3673
S'RP1'
p3674
I7
sS'ME'
p3675
I7
sS'RP2'
p3676
I7
sS'E'
p3677
I10
sS'P'
p3678
I5
sS'JP'
p3679
I3
sS'M'
p3680
I7
sS'RP_tot'
p3681
I7
sS'TO'
p3682
I6
sS'PA'
p3683
I6
sS'A'
p3684
I8
sS'R'
p3685
I6
sS'TB'
p3686
I5
sS'PL'
p3687
I9
sS'TA'
p3688
I3
ssg130
g3657
sg131
I0
sg132
I0
sg133
I0
sg134
I0
sg135
I4
sg136
I0
sg137
I0
sg138
S'EST'
p3689
sbssg122
I0
sg28
I0
sg124
I0
sg125
I0
sg126
F7.827586206896552
sg127
I0
sg128
I0
sg129
I0
sg615
(dp3690
g3612
I7
sg3613
I7
sg3614
I7
sg3615
I10
sg3620
I5
sg3618
I3
sg3617
I7
sg3619
I7
sg3616
I6
sg3621
I6
sg3622
I8
sg3623
I6
sg3624
I5
sg3625
I9
sg3626
I3
ssg130
g3611
sg131
I0
sg132
I0
sg133
I0
sg134
I0
sg135
I4
sg136
I0
sg137
I0
sg138
S'EST'
p3691
sbsg2442
(ijoueur
joueur
p3692
(dp3693
g27
I0
sg29
I0
sg31
g32
sg33
I0
sg34
g32
sg35
g0
(g36
g2
Ntp3694
Rp3695
(dp3696
g40
I4
sg41
S'*'
p3697
sg43
S'heros'
p3698
sbsg45
(dp3699
S'SR'
p3700
I0
sS'CT'
p3701
I0
sS'CR'
p3702
I0
sS'ST'
p3703
I0
ssg51
(dp3704
g3700
I0
sg3701
I0
sg3702
I0
sg3703
I0
ssg54
g32
sg55
I0
sg66
I00
sg57
I0
sg58
I0
sg59
I0
sg60
S'vide'
p3705
sg62
I01
sg63
g0
(g36
g2
Ntp3706
Rp3707
(dp3708
g40
I2
sg41
S'^^'
p3709
sg43
S'special'
p3710
sbsg64
(dp3711
g3700
I0
sg3701
I0
sg3702
I0
sg3703
I0
ssg77
(dp3712
g3700
I0
sg3701
I0
sg3702
I0
sg3703
I0
ssg67
(dp3713
g3700
I0
sg3701
I0
sg3702
I0
sg3703
I0
ssg69
(dp3714
g3700
I0
sg3701
I0
sg3702
I0
sg3703
I0
ssg71
I0
sg72
I0
sg73
S'Snim (11)'
p3715
sg75
I11
sg76
I0
sg53
I20
sg79
I50
sg80
(S'dummy'
p3716
S'N8'
p3717
S'TL'
p3718
S'DL'
p3719
tp3720
sg84
g32
sg85
(dp3721
S'RP1'
p3722
I7
sS'ME'
p3723
I7
sS'RP2'
p3724
I7
sS'E'
p3725
I10
sS'P'
p3726
I5
sS'JP'
p3727
I3
sS'M'
p3728
I7
sS'RP_tot'
p3729
I8
sS'TO'
p3730
I6
sS'PA'
p3731
I6
sS'A'
p3732
I8
sS'R'
p3733
I6
sS'TB'
p3734
I5
sS'PL'
p3735
I9
sS'TA'
p3736
I3
ssg122
I0
sg28
I0
sg124
I0
sg125
I0
sg126
F7.586206896551724
sg127
I0
sg128
I0
sg129
I0
sg615
(dp3737
S'RP1'
p3738
I7
sS'ME'
p3739
I7
sS'RP2'
p3740
I7
sS'E'
p3741
I10
sS'P'
p3742
I5
sS'JP'
p3743
I3
sS'M'
p3744
I7
sS'RP_tot'
p3745
I7
sS'TO'
p3746
I6
sS'PA'
p3747
I6
sS'A'
p3748
I8
sS'R'
p3749
I6
sS'TB'
p3750
I5
sS'PL'
p3751
I9
sS'TA'
p3752
I3
ssg130
g3721
sg131
I0
sg132
I0
sg133
I0
sg134
I0
sg135
I4
sg136
I0
sg137
I0
sg138
S'EST'
p3753
sbssg122
I0
sg28
I0
sg124
I0
sg125
I0
sg126
F9.379310344827585
sg127
I0
sg128
I0
sg129
I0
sg615
(dp3754
g3569
I7
sg3570
I7
sg3571
I7
sg3572
I10
sg3573
I5
sg3574
I3
sg3575
I7
sg3576
I7
sg3577
I6
sg3578
I6
sg3579
I8
sg3580
I6
sg3581
I5
sg3582
I9
sg3583
I3
ssg130
(dp3755
g3569
I8
sg3570
I10
sg3571
I9
sg3572
I10
sg3577
I8
sg3575
I7
sg3574
I4
sg3576
I10
sg3573
I6
sg3578
I8
sg3579
I11
sg3580
I7
sg3581
I6
sg3582
I11
sg3583
I4
ssg131
I0
sg699
(dp3756
sg132
I0
sg133
I0
sg134
I0
sg135
I8
sg136
I0
sg137
I0
sg138
S'EST'
p3757
sbsS'n9'
p3758
(ijoueur
joueur
p3759
(dp3760
g481
F7.838709677419355
sg27
I0
sg482
F9.241379310344827
sg123
g32
sg29
I0
sg30
I0
sg31
g32
sg33
I0
sg34
g32
sg35
g0
(g36
g2
Ntp3761
Rp3762
(dp3763
g40
I2
sg41
S'<<'
p3764
sg43
S'special'
p3765
sbsg45
(dp3766
S'SR'
p3767
I0
sS'CT'
p3768
I0
sS'CR'
p3769
I0
sS'ST'
p3770
I0
ssg51
(dp3771
g3767
I0
sg3768
I0
sg3769
I0
sg3770
I0
ssg494
I0
sg54
S'vide 13'
p3772
sg126
F9.483870967741936
sg55
I0
sg56
I0
sg57
I0
sg58
I0
sg59
I0
sg60
g3044
sg62
I00
sg63
g3762
sg64
(dp3773
S'SR'
p3774
I0
sS'CT'
p3775
I0
sS'CR'
p3776
I0
sS'ST'
p3777
I0
ssg66
I00
sg67
(dp3778
g3774
I0
sg3775
I0
sg3776
I0
sg3777
I0
ssg69
(dp3779
g3767
I0
sg3768
I0
sg3769
I0
sg3770
I0
ssg71
I0
sg72
I0
sg73
S'Frash Mark'
p3780
sg75
I11
sg76
I0
sg53
I20
sg79
I31
sg80
(S'dummy'
p3781
S'DM'
p3782
S'DO'
p3783
g32
tp3784
sg84
g32
sg85
(dp3785
S'RP1'
p3786
I7
sS'ME'
p3787
I3
sS'RP2'
p3788
I7
sS'E'
p3789
I10
sS'TO'
p3790
I4
sS'M'
p3791
I13
sS'JP'
p3792
I6
sS'RP_tot'
p3793
I8
sS'P'
p3794
I8
sS'PA'
p3795
I11
sS'A'
p3796
I11
sS'R'
p3797
I6
sS'TB'
p3798
I10
sS'PL'
p3799
I8
sS'TA'
p3800
I4
ssg102
(dp3801
S's12'
p3802
(ijoueur
joueur
p3803
(dp3804
g481
F7.838709677419355
sg27
I0
sg123
g32
sg29
I0
sg31
g32
sg33
I0
sg34
g32
sg35
g0
(g36
g2
Ntp3805
Rp3806
(dp3807
g40
I2
sg41
S'<<'
p3808
sg43
S'special'
p3809
sbsg45
(dp3810
S'SR'
p3811
I0
sS'CT'
p3812
I0
sS'CR'
p3813
I0
sS'ST'
p3814
I0
ssg51
(dp3815
g3811
I0
sg3812
I0
sg3813
I0
sg3814
I0
ssg54
g32
sg55
I0
sg66
I01
sg57
I0
sg58
I0
sg59
I0
sg60
S'vide'
p3816
sg62
I00
sg63
g3806
sg64
(dp3817
S'SR'
p3818
I0
sS'CT'
p3819
I0
sS'CR'
p3820
I0
sS'ST'
p3821
I0
ssg77
(dp3822
g3818
I0
sg3819
I0
sg3820
I0
sg3821
I0
ssg67
(dp3823
g3818
I0
sg3819
I0
sg3820
I0
sg3821
I0
ssg69
(dp3824
g3811
I0
sg3812
I0
sg3813
I0
sg3814
I0
ssg71
I0
sg72
I0
sg73
S'Frash Mark'
p3825
sg75
I11
sg76
I0
sg53
I20
sg79
I31
sg80
(S'dummy'
p3826
S'DM'
p3827
S'DO'
p3828
g32
tp3829
sg84
g32
sg85
(dp3830
S'RP1'
p3831
I7
sS'ME'
p3832
I3
sS'RP2'
p3833
I7
sS'E'
p3834
I10
sS'P'
p3835
I8
sS'JP'
p3836
I6
sS'M'
p3837
I13
sS'RP_tot'
p3838
I7
sS'TO'
p3839
I4
sS'PA'
p3840
I11
sS'A'
p3841
I11
sS'R'
p3842
I6
sS'TB'
p3843
I9
sS'PL'
p3844
I7
sS'TA'
p3845
I4
ssg102
(dp3846
S's11'
p3847
(ijoueur
joueur
p3848
(dp3849
g27
I0
sg29
I0
sg31
g32
sg33
I0
sg34
g32
sg35
g0
(g36
g2
Ntp3850
Rp3851
(dp3852
g40
I2
sg41
S'<<'
p3853
sg43
S'special'
p3854
sbsg45
(dp3855
S'SR'
p3856
I0
sS'ST'
p3857
I0
sS'CR'
p3858
I0
sS'CT'
p3859
I0
ssg51
(dp3860
g3856
I0
sg3857
I0
sg3858
I0
sg3859
I0
ssg54
g32
sg55
I0
sg66
I00
sg57
I0
sg58
I0
sg59
I0
sg60
S'vide'
p3861
sg62
I01
sg63
g0
(g36
g2
Ntp3862
Rp3863
(dp3864
g40
I1
sg41
S'^'
p3865
sg43
S'base'
p3866
sbsg64
(dp3867
g3856
I0
sg3857
I0
sg3858
I0
sg3859
I0
ssg77
(dp3868
g3856
I0
sg3857
I0
sg3858
I0
sg3859
I0
ssg67
(dp3869
g3856
I0
sg3857
I0
sg3858
I0
sg3859
I0
ssg69
(dp3870
g3856
I0
sg3857
I0
sg3858
I0
sg3859
I0
ssg71
I0
sg72
I0
sg73
S'Frash Mark'
p3871
sg75
I11
sg76
I0
sg53
I20
sg79
I12
sg80
(S'dummy'
p3872
S'DM'
p3873
S'DO'
p3874
g32
tp3875
sg84
g32
sg85
(dp3876
S'RP1'
p3877
I7
sS'ME'
p3878
I2
sS'RP2'
p3879
I7
sS'E'
p3880
I8
sS'TO'
p3881
I3
sS'M'
p3882
I10
sS'JP'
p3883
I6
sS'RP_tot'
p3884
I7
sS'P'
p3885
I8
sS'PA'
p3886
I9
sS'A'
p3887
I8
sS'R'
p3888
I6
sS'TB'
p3889
I8
sS'PL'
p3890
I6
sS'TA'
p3891
I3
ssg122
I0
sg28
I0
sg124
I0
sg125
I0
sg126
F7.838709677419355
sg127
I0
sg128
I0
sg129
I0
sg615
(dp3892
S'RP1'
p3893
I7
sS'ME'
p3894
I2
sS'RP2'
p3895
I7
sS'E'
p3896
I8
sS'TO'
p3897
I3
sS'M'
p3898
I10
sS'JP'
p3899
I6
sS'RP_tot'
p3900
I7
sS'P'
p3901
I8
sS'PA'
p3902
I9
sS'A'
p3903
I8
sS'R'
p3904
I6
sS'TB'
p3905
I8
sS'PL'
p3906
I6
sS'TA'
p3907
I3
ssg130
g3876
sg131
I0
sg132
I0
sg133
I0
sg134
I0
sg135
I1
sg136
I0
sg137
I0
sg138
S'ARA'
p3908
sbssg122
I0
sg28
I0
sg124
I0
sg125
I0
sg126
F9.241379310344827
sg127
I0
sg128
I0
sg129
I0
sg615
(dp3909
g3831
I7
sg3832
I2
sg3833
I7
sg3834
I8
sg3839
I3
sg3837
I10
sg3836
I6
sg3838
I7
sg3835
I8
sg3840
I9
sg3841
I8
sg3842
I6
sg3843
I8
sg3844
I6
sg3845
I3
ssg130
g3830
sg131
I0
sg132
I0
sg133
I0
sg134
I0
sg135
I2
sg136
I0
sg137
I0
sg138
S'ARA'
p3910
sbsS's11'
p3911
(ijoueur
joueur
p3912
(dp3913
g27
I0
sg29
I0
sg31
g32
sg33
I0
sg34
g32
sg35
g0
(g36
g2
Ntp3914
Rp3915
(dp3916
g40
I2
sg41
S'<<'
p3917
sg43
S'special'
p3918
sbsg45
(dp3919
S'SR'
p3920
I0
sS'ST'
p3921
I0
sS'CR'
p3922
I0
sS'CT'
p3923
I0
ssg51
(dp3924
g3920
I0
sg3921
I0
sg3922
I0
sg3923
I0
ssg54
g32
sg55
I0
sg66
I00
sg57
I0
sg58
I0
sg59
I0
sg60
S'vide'
p3925
sg62
I01
sg63
g0
(g36
g2
Ntp3926
Rp3927
(dp3928
g40
I1
sg41
S'^'
p3929
sg43
S'base'
p3930
sbsg64
(dp3931
g3920
I0
sg3921
I0
sg3922
I0
sg3923
I0
ssg77
(dp3932
g3920
I0
sg3921
I0
sg3922
I0
sg3923
I0
ssg67
(dp3933
g3920
I0
sg3921
I0
sg3922
I0
sg3923
I0
ssg69
(dp3934
g3920
I0
sg3921
I0
sg3922
I0
sg3923
I0
ssg71
I0
sg72
I0
sg73
S'Frash Mark'
p3935
sg75
I11
sg76
I0
sg53
I20
sg79
I12
sg80
(S'dummy'
p3936
S'DM'
p3937
S'DO'
p3938
g32
tp3939
sg84
g32
sg85
(dp3940
S'RP1'
p3941
I7
sS'ME'
p3942
I2
sS'RP2'
p3943
I7
sS'E'
p3944
I8
sS'TO'
p3945
I3
sS'M'
p3946
I10
sS'JP'
p3947
I6
sS'RP_tot'
p3948
I7
sS'P'
p3949
I8
sS'PA'
p3950
I9
sS'A'
p3951
I8
sS'R'
p3952
I6
sS'TB'
p3953
I8
sS'PL'
p3954
I6
sS'TA'
p3955
I3
ssg122
I0
sg28
I0
sg124
I0
sg125
I0
sg126
F7.838709677419355
sg127
I0
sg128
I0
sg129
I0
sg615
(dp3956
S'RP1'
p3957
I7
sS'ME'
p3958
I2
sS'RP2'
p3959
I7
sS'E'
p3960
I8
sS'TO'
p3961
I3
sS'M'
p3962
I10
sS'JP'
p3963
I6
sS'RP_tot'
p3964
I7
sS'P'
p3965
I8
sS'PA'
p3966
I9
sS'A'
p3967
I8
sS'R'
p3968
I6
sS'TB'
p3969
I8
sS'PL'
p3970
I6
sS'TA'
p3971
I3
ssg130
g3940
sg131
I0
sg132
I0
sg133
I0
sg134
I0
sg135
I1
sg136
I0
sg137
I0
sg138
S'ARA'
p3972
sbssg122
I0
sg28
I0
sg124
I0
sg125
I0
sg77
(dp3973
g3774
I0
sg3775
I0
sg3776
I0
sg3777
I0
ssg127
I0
sg128
I0
sg129
I0
sg615
(dp3974
g3786
I7
sg3787
I2
sg3788
I7
sg3789
I8
sg3790
I3
sg3791
I10
sg3792
I6
sg3793
I7
sg3794
I8
sg3795
I9
sg3796
I8
sg3797
I6
sg3798
I8
sg3799
I6
sg3800
I3
ssg130
(dp3975
g3786
I7
sg3787
I3
sg3788
I7
sg3789
I10
sg3794
I8
sg3792
I6
sg3791
I13
sg3793
I8
sg3790
I4
sg3795
I11
sg3796
I11
sg3797
I6
sg3798
I10
sg3799
I8
sg3800
I4
ssg131
I0
sg699
(dp3976
sg132
I0
sg133
I0
sg134
I0
sg135
I2
sg136
I0
sg137
I0
sg138
S'ARA'
p3977
sbsS'n1'
p3978
(ijoueur
joueur
p3979
(dp3980
g27
I0
sg28
I0
sg29
I0
sg30
F9.312602141629233
sg31
g32
sg33
I0
sg34
g32
sg35
g0
(g36
g2
Ntp3981
Rp3982
(dp3983
g40
I2
sg41
g3327
sg43
g3328
sbsg45
(dp3984
g2512
I0
sg2513
I0
sg2514
I0
sg2515
I0
ssg51
(dp3985
g2512
I0
sg2513
I0
sg2514
I0
sg2515
I0
ssg54
g32
sg55
I0
sg56
F9.312602141629233
sg57
I0
sg58
I0
sg59
I0
sg60
g2307
sg62
I00
sg63
g3982
sg64
(dp3986
g2512
I0
sg2513
I1
sg2514
I0
sg2515
I0
ssg66
I00
sg67
(dp3987
g2512
I0
sg2513
I0
sg2514
I0
sg2515
I0
ssg69
(dp3988
g2512
I0
sg2513
I1
sg2514
I0
sg2515
I0
ssg71
I0
sg72
I0
sg73
S'Komfo'
p3989
sg75
I9
sg76
I0
sg53
I17
sg79
I23
sg80
(g2521
S'PI'
p3990
S'TL'
p3991
g32
tp3992
sg84
g32
sg85
(dp3993
g2527
I8
sg2528
I8
sg2529
I6
sg2530
I10
sg2531
I7
sg2532
I9
sg2533
I2
sg2534
I8
sg2535
I4
sg2536
I6
sg2537
I6
sg2538
I11
sg2539
I5
sg2540
I8
sg2541
I8
ssg102
(dp3994
S's12'
p3995
(ijoueur
joueur
p3996
(dp3997
g27
I0
sg28
I0
sg29
I0
sg33
I0
sg35
g0
(g36
g2
Ntp3998
Rp3999
(dp4000
g41
g32
sbsg45
(dp4001
g2512
I0
sg2513
I0
sg2514
I0
sg2515
I0
ssg51
(dp4002
g2512
I0
sg2513
I0
sg2514
I0
sg2515
I0
ssg54
g32
sg55
I0
sg57
I0
sg58
I0
sg59
I0
sg80
(g2521
g3990
g32
g32
tp4003
sg62
I00
sg63
g0
(g36
g2
Ntp4004
Rp4005
(dp4006
g41
g32
sbsg64
(dp4007
g2512
I0
sg2513
I0
sg2514
I0
sg2515
I0
ssg66
I00
sg67
(dp4008
g2512
I0
sg2513
I0
sg2514
I0
sg2515
I0
ssg69
(dp4009
g2512
I0
sg2513
I0
sg2514
I0
sg2515
I0
ssg71
I0
sg72
I0
sg73
S'Komfo (12)'
p4010
sg75
I0
sg76
I0
sg53
I0
sg79
I0
sg60
g2307
sg85
(dp4011
g2537
I0
sg2528
I0
sg2529
I0
sg2530
I0
sg2535
I0
sg2527
I0
sg2533
I0
sg2534
I0
sg2531
I0
sg2536
I0
sg2532
I0
sg2538
I0
sg2539
I0
sg2540
I0
sg2541
I0
ssg102
(dp4012
sg122
I0
sg123
g32
sg124
I0
sg128
I0
sg125
I0
sg126
F0.0
sg127
I0
sg77
(dp4013
g2512
I0
sg2513
I0
sg2514
I0
sg2515
I0
ssg129
I0
sg130
(dp4014
g2527
I8
sg2528
I8
sg2529
I6
sg2530
I10
sg2535
I4
sg2533
I2
sg2532
I9
sg2534
I8
sg2531
I7
sg2536
I6
sg2537
I6
sg2538
I11
sg2539
I5
sg2540
I8
sg2541
I8
ssg131
I0
sg132
I0
sg133
I0
sg134
I0
sg135
I0
sg136
I0
sg137
I0
sg138
g32
sbsS's11'
p4015
(ijoueur
joueur
p4016
(dp4017
g27
I0
sg28
I0
sg29
I0
sg33
I0
sg35
g0
(g36
g2
Ntp4018
Rp4019
(dp4020
g41
g32
sbsg45
(dp4021
g2512
I0
sg2513
I0
sg2514
I0
sg2515
I0
ssg51
(dp4022
g2512
I0
sg2513
I0
sg2514
I0
sg2515
I0
ssg54
g32
sg55
I0
sg57
I0
sg58
I0
sg59
I0
sg80
g4003
sg62
I00
sg63
g0
(g36
g2
Ntp4023
Rp4024
(dp4025
g41
g32
sbsg64
(dp4026
g2512
I0
sg2513
I0
sg2514
I0
sg2515
I0
ssg66
I00
sg67
(dp4027
g2512
I0
sg2513
I0
sg2514
I0
sg2515
I0
ssg69
(dp4028
g2512
I0
sg2513
I0
sg2514
I0
sg2515
I0
ssg71
I0
sg72
I0
sg73
S'Komfo (11)'
p4029
sg75
I0
sg76
I0
sg53
I0
sg79
I0
sg60
g2307
sg85
(dp4030
g2537
I0
sg2528
I0
sg2529
I0
sg2530
I0
sg2535
I0
sg2527
I0
sg2533
I0
sg2534
I0
sg2531
I0
sg2536
I0
sg2532
I0
sg2538
I0
sg2539
I0
sg2540
I0
sg2541
I0
ssg102
(dp4031
sg122
I0
sg123
g32
sg124
I0
sg128
I0
sg125
I0
sg126
F0.0
sg127
I0
sg77
(dp4032
g2512
I0
sg2513
I0
sg2514
I0
sg2515
I0
ssg129
I0
sg130
g4014
sg131
I0
sg132
I0
sg133
I0
sg134
I0
sg135
I0
sg136
I0
sg137
I0
sg138
g32
sbssg122
I6
sg123
g32
sg124
I0
sg128
I0
sg125
I0
sg126
F8.777777777777779
sg127
I0
sg77
(dp4033
g2512
I0
sg2513
I0
sg2514
I0
sg2515
I0
ssg129
I0
sg130
g4014
sg131
I0
sg132
I0
sg133
I0
sg134
I0
sg135
I2
sg136
I0
sg137
I0
sg138
S'O'
p4034
sbsS'n2'
p4035
(ijoueur
joueur
p4036
(dp4037
g27
I0
sg28
I0
sg29
I0
sg30
F9.312602141629233
sg31
g32
sg33
I0
sg34
g32
sg35
g0
(g36
g2
Ntp4038
Rp4039
(dp4040
g40
I5
sg41
g2509
sg43
g2510
sbsg45
(dp4041
g2512
I0
sg2513
I0
sg2514
I0
sg2515
I0
ssg51
(dp4042
g2512
I0
sg2513
I0
sg2514
I0
sg2515
I0
ssg54
g32
sg55
I0
sg56
F9.312602141629233
sg57
I0
sg58
I0
sg59
I0
sg60
g2307
sg62
I00
sg63
g4039
sg64
(dp4043
g2512
I0
sg2513
I1
sg2514
I0
sg2515
I0
ssg66
I00
sg67
(dp4044
g2512
I0
sg2513
I0
sg2514
I0
sg2515
I0
ssg69
(dp4045
g2512
I0
sg2513
I1
sg2514
I0
sg2515
I0
ssg71
I0
sg72
I0
sg73
S'Sivielt'
p4046
sg75
I8
sg76
I0
sg53
I19
sg79
I180
sg80
(g2521
g2541
S'N8'
p4047
g32
tp4048
sg84
g32
sg85
(dp4049
g2527
I9
sg2528
I9
sg2529
I10
sg2530
I10
sg2531
I9
sg2532
I8
sg2533
I4
sg2534
I11
sg2535
I5
sg2536
I9
sg2537
I12
sg2538
I9
sg2539
I5
sg2540
I11
sg2541
I10
ssg102
(dp4050
S's12'
p4051
(ijoueur
joueur
p4052
(dp4053
g27
I0
sg28
I0
sg29
I0
sg33
I0
sg35
g0
(g36
g2
Ntp4054
Rp4055
(dp4056
g41
g32
sbsg45
(dp4057
g2512
I0
sg2513
I0
sg2514
I0
sg2515
I0
ssg51
(dp4058
g2512
I0
sg2513
I0
sg2514
I0
sg2515
I0
ssg54
g32
sg55
I0
sg57
I0
sg58
I0
sg59
I0
sg80
(g2521
g2541
g32
g32
tp4059
sg62
I00
sg63
g0
(g36
g2
Ntp4060
Rp4061
(dp4062
g41
g32
sbsg64
(dp4063
g2512
I0
sg2513
I0
sg2514
I0
sg2515
I0
ssg66
I00
sg67
(dp4064
g2512
I0
sg2513
I0
sg2514
I0
sg2515
I0
ssg69
(dp4065
g2512
I0
sg2513
I0
sg2514
I0
sg2515
I0
ssg71
I0
sg72
I0
sg73
S'Sivielt (12)'
p4066
sg75
I0
sg76
I0
sg53
I0
sg79
I0
sg60
g2307
sg85
(dp4067
g2537
I0
sg2528
I0
sg2529
I0
sg2530
I0
sg2535
I0
sg2527
I0
sg2533
I0
sg2534
I0
sg2531
I0
sg2536
I0
sg2532
I0
sg2538
I0
sg2539
I0
sg2540
I0
sg2541
I0
ssg102
(dp4068
sg122
I0
sg123
g32
sg124
I0
sg128
I0
sg125
I0
sg126
F0.0
sg127
I0
sg77
(dp4069
g2512
I0
sg2513
I0
sg2514
I0
sg2515
I0
ssg129
I0
sg130
(dp4070
g2527
I9
sg2528
I9
sg2529
I10
sg2530
I10
sg2535
I5
sg2533
I4
sg2532
I8
sg2534
I11
sg2531
I9
sg2536
I9
sg2537
I12
sg2538
I9
sg2539
I5
sg2540
I11
sg2541
I10
ssg131
I0
sg132
I0
sg133
I0
sg134
I0
sg135
I0
sg136
I0
sg137
I0
sg138
g32
sbsS's11'
p4071
(ijoueur
joueur
p4072
(dp4073
g27
I0
sg28
I0
sg29
I0
sg33
I0
sg35
g0
(g36
g2
Ntp4074
Rp4075
(dp4076
g41
g32
sbsg45
(dp4077
g2512
I0
sg2513
I0
sg2514
I0
sg2515
I0
ssg51
(dp4078
g2512
I0
sg2513
I0
sg2514
I0
sg2515
I0
ssg54
g32
sg55
I0
sg57
I0
sg58
I0
sg59
I0
sg80
g4059
sg62
I00
sg63
g0
(g36
g2
Ntp4079
Rp4080
(dp4081
g41
g32
sbsg64
(dp4082
g2512
I0
sg2513
I0
sg2514
I0
sg2515
I0
ssg66
I00
sg67
(dp4083
g2512
I0
sg2513
I0
sg2514
I0
sg2515
I0
ssg69
(dp4084
g2512
I0
sg2513
I0
sg2514
I0
sg2515
I0
ssg71
I0
sg72
I0
sg73
S'Sivielt (11)'
p4085
sg75
I0
sg76
I0
sg53
I0
sg79
I0
sg60
g2307
sg85
(dp4086
g2537
I0
sg2528
I0
sg2529
I0
sg2530
I0
sg2535
I0
sg2527
I0
sg2533
I0
sg2534
I0
sg2531
I0
sg2536
I0
sg2532
I0
sg2538
I0
sg2539
I0
sg2540
I0
sg2541
I0
ssg102
(dp4087
sg122
I0
sg123
g32
sg124
I0
sg128
I0
sg125
I0
sg126
F0.0
sg127
I0
sg77
(dp4088
g2512
I0
sg2513
I0
sg2514
I0
sg2515
I0
ssg129
I0
sg130
g4070
sg131
I0
sg132
I0
sg133
I0
sg134
I0
sg135
I0
sg136
I0
sg137
I0
sg138
g32
sbssg122
I2
sg123
g32
sg124
I0
sg128
I0
sg125
I0
sg126
F10.0
sg127
I0
sg77
(dp4089
g2512
I0
sg2513
I0
sg2514
I0
sg2515
I0
ssg129
I0
sg130
g4070
sg131
I0
sg132
I0
sg133
I0
sg134
I0
sg135
I18
sg136
I0
sg137
I0
sg138
g2580
sbsS'n3'
p4090
g2812
sS'n4'
p4091
g2642
sS'n5'
p4092
g2293
sS'n6'
p4093
(ijoueur
joueur
p4094
(dp4095
g27
I0
sg28
I0
sg29
I0
sg30
F9.312602141629233
sg31
g32
sg33
I0
sg34
g32
sg35
g0
(g36
g2
Ntp4096
Rp4097
(dp4098
g40
I1
sg41
g3334
sg43
g3292
sbsg45
(dp4099
g2512
I0
sg2513
I1
sg2514
I0
sg2515
I0
ssg51
(dp4100
g2512
I0
sg2513
I0
sg2514
I0
sg2515
I0
ssg54
g32
sg55
I0
sg56
F9.312602141629233
sg57
I0
sg58
I0
sg59
I0
sg60
g2307
sg62
I00
sg63
g4097
sg64
(dp4101
g2512
I0
sg2513
I0
sg2514
I0
sg2515
I0
ssg66
I00
sg67
(dp4102
g2512
I0
sg2513
I0
sg2514
I0
sg2515
I0
ssg69
(dp4103
g2512
I0
sg2513
I0
sg2514
I0
sg2515
I0
ssg71
I0
sg72
I0
sg73
S'Geol'
p4104
sg75
I4
sg76
I0
sg53
I17
sg79
I14
sg80
(g2521
g3401
S'TL'
p4105
g32
tp4106
sg84
g32
sg85
(dp4107
g2527
I9
sg2528
I7
sg2529
I6
sg2530
I9
sg2531
I8
sg2532
I8
sg2533
I3
sg2534
I9
sg2535
I5
sg2536
I9
sg2537
I9
sg2538
I8
sg2539
I3
sg2540
I9
sg2541
I2
ssg102
(dp4108
S's12'
p4109
(ijoueur
joueur
p4110
(dp4111
g27
I0
sg28
I0
sg29
I0
sg33
I0
sg35
g0
(g36
g2
Ntp4112
Rp4113
(dp4114
g41
g32
sbsg45
(dp4115
g2512
I0
sg2513
I0
sg2514
I0
sg2515
I0
ssg51
(dp4116
g2512
I0
sg2513
I0
sg2514
I0
sg2515
I0
ssg54
g32
sg55
I0
sg57
I0
sg58
I0
sg59
I0
sg80
(g2521
g3401
g32
g32
tp4117
sg62
I00
sg63
g0
(g36
g2
Ntp4118
Rp4119
(dp4120
g41
g32
sbsg64
(dp4121
g2512
I0
sg2513
I0
sg2514
I0
sg2515
I0
ssg66
I00
sg67
(dp4122
g2512
I0
sg2513
I0
sg2514
I0
sg2515
I0
ssg69
(dp4123
g2512
I0
sg2513
I0
sg2514
I0
sg2515
I0
ssg71
I0
sg72
I0
sg73
S'Geol (12)'
p4124
sg75
I0
sg76
I0
sg53
I0
sg79
I0
sg60
g2307
sg85
(dp4125
g2537
I0
sg2528
I0
sg2529
I0
sg2530
I0
sg2535
I0
sg2527
I0
sg2533
I0
sg2534
I0
sg2531
I0
sg2536
I0
sg2532
I0
sg2538
I0
sg2539
I0
sg2540
I0
sg2541
I0
ssg102
(dp4126
sg122
I0
sg123
g32
sg124
I0
sg128
I0
sg125
I0
sg126
F0.0
sg127
I0
sg77
(dp4127
g2512
I0
sg2513
I0
sg2514
I0
sg2515
I0
ssg129
I0
sg130
(dp4128
g2527
I9
sg2528
I7
sg2529
I6
sg2530
I9
sg2535
I5
sg2533
I3
sg2532
I8
sg2534
I9
sg2531
I8
sg2536
I9
sg2537
I9
sg2538
I8
sg2539
I3
sg2540
I9
sg2541
I2
ssg131
I0
sg132
I0
sg133
I0
sg134
I0
sg135
I0
sg136
I0
sg137
I0
sg138
g32
sbsS's11'
p4129
(ijoueur
joueur
p4130
(dp4131
g27
I0
sg28
I0
sg29
I0
sg33
I0
sg35
g0
(g36
g2
Ntp4132
Rp4133
(dp4134
g41
g32
sbsg45
(dp4135
g2512
I0
sg2513
I0
sg2514
I0
sg2515
I0
ssg51
(dp4136
g2512
I0
sg2513
I0
sg2514
I0
sg2515
I0
ssg54
g32
sg55
I0
sg57
I0
sg58
I0
sg59
I0
sg80
g4117
sg62
I00
sg63
g0
(g36
g2
Ntp4137
Rp4138
(dp4139
g41
g32
sbsg64
(dp4140
g2512
I0
sg2513
I0
sg2514
I0
sg2515
I0
ssg66
I00
sg67
(dp4141
g2512
I0
sg2513
I0
sg2514
I0
sg2515
I0
ssg69
(dp4142
g2512
I0
sg2513
I0
sg2514
I0
sg2515
I0
ssg71
I0
sg72
I0
sg73
S'Geol (11)'
p4143
sg75
I0
sg76
I0
sg53
I0
sg79
I0
sg60
g2307
sg85
(dp4144
g2537
I0
sg2528
I0
sg2529
I0
sg2530
I0
sg2535
I0
sg2527
I0
sg2533
I0
sg2534
I0
sg2531
I0
sg2536
I0
sg2532
I0
sg2538
I0
sg2539
I0
sg2540
I0
sg2541
I0
ssg102
(dp4145
sg122
I0
sg123
g32
sg124
I0
sg128
I0
sg125
I0
sg126
F0.0
sg127
I0
sg77
(dp4146
g2512
I0
sg2513
I0
sg2514
I0
sg2515
I0
ssg129
I0
sg130
g4128
sg131
I0
sg132
I0
sg133
I0
sg134
I0
sg135
I0
sg136
I0
sg137
I0
sg138
g32
sbssg122
I2
sg123
g32
sg124
I0
sg128
I0
sg125
I0
sg126
F8.517241379310345
sg127
I0
sg77
(dp4147
g2512
I0
sg2513
I1
sg2514
I0
sg2515
I0
ssg129
I0
sg130
g4128
sg131
I0
sg132
I0
sg133
I0
sg134
I0
sg135
I1
sg136
I0
sg137
I0
sg138
g2580
sbsS'n7'
p4148
g2697
ssS'remplacements'
p4149
(dp4150
g3278
S'n0'
p4151
sg3321
g4151
sg3386
g4151
sg3408
g4151
sg3409
g4151
sg3452
g4151
sg3488
g4151
ssbsS'fatigue_prise_en_compte'
p4152
I01
sS'nuls_championat'
p4153
I0
sb.