(iclub
compo
p0
(dp1
S'caracs_old'
p2
(dp3
S'A'
p4
F171.25
sS'ME'
p5
F108.0
sS'E'
p6
F212.0
sS'OplusAV'
p7
F101.25
sS'TO_off'
p8
F139.75
sS'OplusAR'
p9
F118.5
sS'M'
p10
F94.75
sS'JP'
p11
F100.75
sS'OmoinsAR'
p12
F101.5
sS'PA'
p13
F119.0
sS'TO_def'
p14
F132.0
sS'OmoinsAV'
p15
F100.0
sS'R'
p16
F194.5
ssS'totaux_old'
p17
(dp18
S'T2'
p19
F195.5
sS'T3'
p20
F106.0
sS'T1'
p21
F219.25
ssS'roles'
p22
(dp23
S'drop1'
p24
(ijoueur
joueur
p25
(dp26
S'EV_saison_11'
p27
F11.741935483870968
sS'rouges_total'
p28
I1
sS'EV_saison_12'
p29
F11.741935483870968
sS'changements_postes'
p30
S''
p31
sS'drops_total'
p32
I6
sS'xp_total'
p33
F21.17512692714172
sS'blessure'
p34
I0
sS'RG_max'
p35
ccopy_reg
_reconstructor
p36
(cjoueur
rang_new
p37
c__builtin__
object
p38
Ntp39
Rp40
(dp41
S'type_nb'
p42
I5
sS'rang'
p43
S'**'
p44
sS'type'
p45
S'seigneur'
p46
sbsS'MJ2_total'
p47
(dp48
S'SR'
p49
I0
sS'CT'
p50
I1
sS'CR'
p51
I0
sS'ST'
p52
I0
ssS'MJ3_total'
p53
(dp54
g49
I0
sg50
I16
sg51
I0
sg52
I0
ssS'xp'
p55
I0
sS'MJ2'
p56
(dp57
S'SR'
p58
I0
sS'CT'
p59
I1
sS'CR'
p60
I0
sS'ST'
p61
I0
ssS'drop_rates_total'
p62
I0
sS'drop_rates_saison'
p63
I0
sS'xp_saison'
p64
F21.17512692714172
sS'essais_saison'
p65
I0
sS'penalite_ratees_saison'
p66
I0
sS'transformations_saison'
p67
I0
sS'postes'
p68
(S'dummy'
p69
S'AI'
p70
S'AR'
p71
S'DM'
p72
tp73
sS'veut_partir'
p74
I00
sS'RG'
p75
g36
(g37
g38
Ntp76
Rp77
(dp78
g42
I5
sg43
S'**'
p79
sg45
g46
sbsS'MJ1'
p80
(dp81
g58
I0
sg59
I0
sg60
I0
sg61
I0
ssS'MS_probleme'
p82
I00
sS'MJ3'
p83
(dp84
g58
I0
sg59
I1
sg60
I0
sg61
I0
ssS'MJ1_total'
p85
(dp86
g49
I0
sg50
I9
sg51
I0
sg52
I12
ssS'penalites_total'
p87
I24
sS'penalites_saison'
p88
I0
sS'nom'
p89
S'Uthimol'
p90
sS'C'
p91
I4
sS'transformations_total'
p92
I16
sS'D'
p93
I14
sS'VAL'
p94
I633
sS'club'
p95
S'HTH'
p96
sS'caracs'
p97
(dp98
S'A'
p99
I11
sS'ME'
p100
I6
sS'RP2'
p101
I11
sS'E'
p102
I12
sS'TO'
p103
I9
sS'RP1'
p104
I11
sS'JP'
p105
I10
sS'RP_tot'
p106
I14
sS'P'
p107
I10
sS'PA'
p108
I14
sS'M'
p109
I10
sS'R'
p110
I3
sS'TB'
p111
I9
sS'PL'
p112
I10
sS'TA'
p113
I6
ssS'jj_passe'
p114
(dp115
S's12'
p116
(ijoueur
joueur
p117
(dp118
g27
F11.741935483870968
sg28
I1
sg30
g31
sg32
I5
sg34
I0
sg35
g36
(g37
g38
Ntp119
Rp120
(dp121
g42
I5
sg43
S'**'
p122
sg45
S'seigneur'
p123
sbsg47
(dp124
S'SR'
p125
I0
sS'CT'
p126
I0
sS'CR'
p127
I0
sS'ST'
p128
I0
ssg53
(dp129
g125
I0
sg126
I15
sg127
I0
sg128
I0
ssg62
I0
sS'EV'
p130
F11.741935483870968
sg63
I0
sg65
I5
sg66
I0
sg67
I0
sg68
(S'dummy'
p131
S'AI'
p132
S'AR'
p133
S'DM'
p134
tp135
sg74
I00
sg75
g36
(g37
g38
Ntp136
Rp137
(dp138
g42
I5
sg43
S'**'
p139
sg45
g123
sbsg80
(dp140
S'SR'
p141
I0
sS'CT'
p142
I9
sS'CR'
p143
I0
sS'ST'
p144
I7
ssg82
I00
sg83
(dp145
g141
I0
sg142
I1
sg143
I0
sg144
I0
ssg85
(dp146
g125
I0
sg126
I9
sg127
I0
sg128
I12
ssg87
I24
sg88
I0
sg89
S'Uthimol'
p147
sg91
I4
sg92
I16
sg93
I14
sg94
I633
sg95
S'HTH'
p148
sg97
(dp149
S'A'
p150
I12
sS'ME'
p151
I6
sS'RP2'
p152
I10
sS'E'
p153
I12
sS'P'
p154
I10
sS'RP1'
p155
I11
sS'JP'
p156
I10
sS'RP_tot'
p157
I14
sS'TO'
p158
I9
sS'PA'
p159
I14
sS'M'
p160
I10
sS'R'
p161
I4
sS'TB'
p162
I8
sS'PL'
p163
I11
sS'TA'
p164
I6
ssg114
(dp165
S's11'
p166
(ijoueur
joueur
p167
(dp168
g28
I1
sg32
I0
sg34
I0
sg35
g36
(g37
g38
Ntp169
Rp170
(dp171
g42
I5
sg43
S'**'
p172
sg45
S'seigneur'
p173
sbsg47
(dp174
S'SR'
p175
I0
sS'CT'
p176
I0
sS'CR'
p177
I0
sS'ST'
p178
I0
ssg53
(dp179
g175
I0
sg176
I14
sg177
I0
sg178
I0
ssg62
I0
sg63
I0
sg82
I00
sg65
I1
sg66
I0
sg67
I0
sg68
(S'dummy'
p180
S'AI'
p181
S'AR'
p182
S'DM'
p183
tp184
sg74
I00
sg75
g36
(g37
g38
Ntp185
Rp186
(dp187
g42
I5
sg43
S'**'
p188
sg45
g173
sbsg80
(dp189
g175
I0
sg176
I0
sg177
I0
sg178
I5
ssg56
(dp190
g175
I0
sg176
I0
sg177
I0
sg178
I0
ssg83
(dp191
g175
I0
sg176
I14
sg177
I0
sg178
I0
ssg85
(dp192
g175
I0
sg176
I0
sg177
I0
sg178
I5
ssg87
I24
sg88
I0
sg89
S'Uthimol'
p193
sg91
I4
sg92
I16
sg93
I14
sg94
I633
sg95
S'HTH'
p194
sg97
(dp195
S'A'
p196
I13
sS'ME'
p197
I6
sS'RP2'
p198
I10
sS'E'
p199
I12
sS'P'
p200
I11
sS'RP1'
p201
I10
sS'JP'
p202
I9
sS'RP_tot'
p203
I13
sS'TO'
p204
I9
sS'PA'
p205
I14
sS'M'
p206
I10
sS'R'
p207
I4
sS'TB'
p208
I7
sS'PL'
p209
I11
sS'TA'
p210
I6
ssS'fatigue'
p211
I0
sS'drop_ratees_total'
p212
I0
sS'blessures_total'
p213
I0
sS'XP'
p214
I0
sg130
F11.741935483870968
sS'penalite_ratees_total'
p215
I0
sS'blessures_saison'
p216
I0
sS'jaunes_total'
p217
I0
sS'caracs_saison_11'
p218
(dp219
S'A'
p220
I13
sS'ME'
p221
I6
sS'RP2'
p222
I10
sS'E'
p223
I12
sS'P'
p224
I11
sS'RP1'
p225
I10
sS'JP'
p226
I9
sS'RP_tot'
p227
I13
sS'TO'
p228
I9
sS'PA'
p229
I14
sS'M'
p230
I10
sS'R'
p231
I4
sS'TB'
p232
I7
sS'PL'
p233
I11
sS'TA'
p234
I6
ssS'caracs_sans_fatigue'
p235
g195
sS'rouges_saison'
p236
I1
sS'anciens_clubs'
p237
S'MRB 9;MDL 11'
p238
sS'transformation_ratees_total'
p239
I0
sS'drops_saison'
p240
I0
sS'transformation_ratees_saison'
p241
I0
sS'MS'
p242
I50
sS'essais_total'
p243
I18
sS'jaunes_saison'
p244
I0
sS'ARM'
p245
S'EN'
p246
sbssg211
I3
sg212
I0
sg213
I1
sg214
I0
sg56
(dp247
g141
I0
sg142
I0
sg143
I0
sg144
I0
ssg215
I0
sg216
I1
sg217
I0
sg218
(dp248
S'A'
p249
I13
sS'ME'
p250
I6
sS'RP2'
p251
I10
sS'E'
p252
I12
sS'TO'
p253
I9
sS'RP1'
p254
I10
sS'JP'
p255
I9
sS'RP_tot'
p256
I13
sS'P'
p257
I11
sS'PA'
p258
I14
sS'M'
p259
I10
sS'R'
p260
I4
sS'TB'
p261
I7
sS'PL'
p262
I11
sS'TA'
p263
I6
ssg235
g149
sg236
I0
sg237
S'MRB 9;MDL 11'
p264
sg239
I0
sg240
I5
sg241
I0
sg242
I50
sg243
I23
sg244
I0
sg245
S'EN'
p265
sbsS's11'
p266
(ijoueur
joueur
p267
(dp268
g28
I1
sg32
I0
sg34
I0
sg35
g36
(g37
g38
Ntp269
Rp270
(dp271
g42
I5
sg43
S'**'
p272
sg45
S'seigneur'
p273
sbsg47
(dp274
S'SR'
p275
I0
sS'CT'
p276
I0
sS'CR'
p277
I0
sS'ST'
p278
I0
ssg53
(dp279
g275
I0
sg276
I14
sg277
I0
sg278
I0
ssg62
I0
sg63
I0
sg82
I00
sg65
I1
sg66
I0
sg67
I0
sg68
(S'dummy'
p280
S'AI'
p281
S'AR'
p282
S'DM'
p283
tp284
sg74
I00
sg75
g36
(g37
g38
Ntp285
Rp286
(dp287
g42
I5
sg43
S'**'
p288
sg45
g273
sbsg80
(dp289
g275
I0
sg276
I0
sg277
I0
sg278
I5
ssg56
(dp290
g275
I0
sg276
I0
sg277
I0
sg278
I0
ssg83
(dp291
g275
I0
sg276
I14
sg277
I0
sg278
I0
ssg85
(dp292
g275
I0
sg276
I0
sg277
I0
sg278
I5
ssg87
I24
sg88
I0
sg89
S'Uthimol'
p293
sg91
I4
sg92
I16
sg93
I14
sg94
I633
sg95
S'HTH'
p294
sg97
(dp295
S'A'
p296
I13
sS'ME'
p297
I6
sS'RP2'
p298
I10
sS'E'
p299
I12
sS'P'
p300
I11
sS'RP1'
p301
I10
sS'JP'
p302
I9
sS'RP_tot'
p303
I13
sS'TO'
p304
I9
sS'PA'
p305
I14
sS'M'
p306
I10
sS'R'
p307
I4
sS'TB'
p308
I7
sS'PL'
p309
I11
sS'TA'
p310
I6
ssg211
I0
sg212
I0
sg213
I0
sg214
I0
sg130
F11.741935483870968
sg215
I0
sg216
I0
sg217
I0
sg218
(dp311
S'A'
p312
I13
sS'ME'
p313
I6
sS'RP2'
p314
I10
sS'E'
p315
I12
sS'P'
p316
I11
sS'RP1'
p317
I10
sS'JP'
p318
I9
sS'RP_tot'
p319
I13
sS'TO'
p320
I9
sS'PA'
p321
I14
sS'M'
p322
I10
sS'R'
p323
I4
sS'TB'
p324
I7
sS'PL'
p325
I11
sS'TA'
p326
I6
ssg235
g295
sg236
I1
sg237
S'MRB 9;MDL 11'
p327
sg239
I0
sg240
I0
sg241
I0
sg242
I50
sg243
I18
sg244
I0
sg245
S'EN'
p328
sbssg211
I8
sg212
I0
sg213
I1
sg214
I0
sg130
F11.741935483870968
sg215
I0
sg216
I0
sg217
I0
sg218
(dp329
S'A'
p330
I13
sS'ME'
p331
I6
sS'RP2'
p332
I10
sS'E'
p333
I12
sS'TO'
p334
I9
sS'RP1'
p335
I10
sS'JP'
p336
I9
sS'RP_tot'
p337
I13
sS'P'
p338
I11
sS'PA'
p339
I14
sS'M'
p340
I10
sS'R'
p341
I4
sS'TB'
p342
I7
sS'PL'
p343
I11
sS'TA'
p344
I6
ssg235
(dp345
g99
I12
sg100
I6
sg101
I11
sg102
I12
sg107
I10
sg104
I11
sg105
I10
sg106
I14
sg103
I9
sg108
I14
sg109
I10
sg110
I4
sg111
I9
sg112
I11
sg113
I6
ssg236
I0
sS'caracs_saison_12'
p346
(dp347
sg239
I0
sg237
S'MRB 9;MDL 11'
p348
sg240
I1
sg241
I0
sg242
I50
sg243
I23
sg244
I0
sg245
S'EN'
p349
sbsS'SA_scd'
p350
(ijoueur
joueur
p351
(dp352
g28
I0
sg29
F9.558823529411764
sg30
g31
sg32
I0
sg33
F21.17512692714172
sS'poste3'
p353
g31
sg34
I0
sS'poste1'
p354
g31
sg35
g36
(g37
g38
Ntp355
Rp356
(dp357
g42
I5
sg43
S'**'
p358
sg45
S'seigneur'
p359
sbsg47
(dp360
S'SR'
p361
I0
sS'CT'
p362
I0
sS'CR'
p363
I0
sS'ST'
p364
I0
ssg53
(dp365
g361
I0
sg362
I0
sg363
I0
sg364
I0
ssg55
I0
sg56
(dp366
g58
I0
sg59
I0
sg60
I0
sg61
I0
ssg237
g31
sg63
I0
sg64
F21.17512692714172
sg65
I0
sg66
I0
sg67
I0
sg95
g96
sg74
I00
sg75
g36
(g37
g38
Ntp367
Rp368
(dp369
g42
I4
sg43
S'*'
p370
sg45
S'heros'
p371
sbsg80
(dp372
g58
I0
sg59
I2
sg60
I0
sg61
I0
ssg82
I00
sg83
(dp373
g58
I0
sg59
I0
sg60
I0
sg61
I0
ssg85
(dp374
g361
I0
sg362
I14
sg363
I0
sg364
I7
ssg87
I0
sg88
I0
sg89
S'Haeltodil'
p375
sg91
I12
sg92
I0
sg93
I21
sg94
I75
sg68
(S'dummy'
p376
S'PI'
p377
S'DL'
p378
g31
tp379
sS'poste2'
p380
g31
sg97
(dp381
S'RP1'
p382
I7
sS'ME'
p383
I10
sS'RP2'
p384
I8
sS'E'
p385
I10
sS'TO'
p386
I13
sS'M'
p387
I9
sS'JP'
p388
I8
sS'RP_tot'
p389
I9
sS'P'
p390
I9
sS'PA'
p391
I12
sS'A'
p392
I9
sS'R'
p393
I7
sS'TB'
p394
I8
sS'PL'
p395
I8
sS'TA'
p396
I8
ssg114
(dp397
g116
(ijoueur
joueur
p398
(dp399
g28
I0
sg30
g31
sg32
I0
sg353
g31
sg34
I0
sg354
g31
sg35
g36
(g37
g38
Ntp400
Rp401
(dp402
g42
I5
sg43
S'**'
p403
sg45
S'seigneur'
p404
sbsg47
(dp405
S'SR'
p406
I0
sS'CT'
p407
I0
sS'CR'
p408
I0
sS'ST'
p409
I0
ssg53
(dp410
g406
I0
sg407
I0
sg408
I0
sg409
I0
ssg237
g31
sg130
F9.558823529411764
sg63
I0
sg65
I0
sg66
I0
sg67
I0
sg95
g148
sg74
I00
sg75
g36
(g37
g38
Ntp411
Rp412
(dp413
g42
I3
sg43
S'^^^'
p414
sg45
S'rare'
p415
sbsg80
(dp416
g406
I0
sg407
I12
sg408
I0
sg409
I7
ssg82
I01
sg83
(dp417
g406
I0
sg407
I0
sg408
I0
sg409
I0
ssg85
(dp418
g406
I0
sg407
I12
sg408
I0
sg409
I7
ssg87
I0
sg88
I0
sg89
S'Haeltodil'
p419
sg91
I12
sg92
I0
sg93
I21
sg94
I40
sg68
(S'dummy'
p420
S'PI'
p421
S'DL'
p422
g31
tp423
sg380
g31
sg97
(dp424
S'RP1'
p425
I7
sS'ME'
p426
I9
sS'RP2'
p427
I6
sS'E'
p428
I10
sS'P'
p429
I6
sS'JP'
p430
I5
sS'M'
p431
I9
sS'RP_tot'
p432
I7
sS'TO'
p433
I12
sS'PA'
p434
I11
sS'A'
p435
I9
sS'R'
p436
I9
sS'TB'
p437
I5
sS'PL'
p438
I9
sS'TA'
p439
I7
ssg114
(dp440
sg211
I7
sg212
I0
sg213
I0
sg214
I0
sg56
(dp441
g406
I0
sg407
I0
sg408
I0
sg409
I0
ssg215
I0
sg216
I0
sg217
I0
sg235
g424
sg236
I0
sg239
I0
sg240
I0
sg241
I0
sg242
I4
sg243
I0
sg244
I0
sg245
S'HE'
p442
sbssg211
I10
sg212
I0
sg213
I0
sg214
I0
sg130
F10.058823529411764
sg215
I0
sg216
I0
sg217
I0
sg235
(dp443
g382
I7
sg383
I10
sg384
I8
sg385
I10
sg390
I9
sg388
I8
sg387
I9
sg389
I9
sg386
I13
sg391
I12
sg392
I10
sg393
I8
sg394
I8
sg395
I9
sg396
I8
ssg236
I0
sg346
(dp444
sg239
I0
sg240
I0
sg241
I0
sg242
I7
sg243
I0
sg244
I0
sg245
S'HE'
p445
sbsS'RJL'
p446
(ijoueur
joueur
p447
(dp448
g27
F10.971428571428572
sg28
I0
sg29
F10.8
sg30
g31
sg32
I17
sg33
F21.17512692714172
sg34
I0
sg35
g36
(g37
g38
Ntp449
Rp450
(dp451
g42
I6
sg43
S'***'
p452
sg45
S'personnage'
p453
sbsg47
(dp454
g49
I0
sg50
I0
sg51
I0
sg52
I0
ssg53
(dp455
g49
I0
sg50
I0
sg51
I0
sg52
I0
ssg55
I0
sg56
(dp456
g58
I0
sg59
I0
sg60
I0
sg61
I0
ssg62
I0
sg63
I0
sg64
F21.17512692714172
sg65
I0
sg66
I0
sg67
I4
sg68
(g69
S'DO'
p457
g31
g31
tp458
sg74
I00
sg75
g36
(g37
g38
Ntp459
Rp460
(dp461
g42
I6
sg43
S'***'
p462
sg45
g453
sbsg80
(dp463
g58
I0
sg59
I2
sg60
I0
sg61
I0
ssg82
I00
sg83
(dp464
g58
I0
sg59
I0
sg60
I0
sg61
I0
ssg85
(dp465
g49
I0
sg50
I29
sg51
I0
sg52
I0
ssg87
I192
sg88
I7
sg89
S'Naestra'
p466
sg91
I8
sg92
I101
sg93
I17
sg94
I828
sg95
g96
sg97
(dp467
g99
I11
sg100
I3
sg101
I10
sg102
I11
sg103
I4
sg104
I8
sg105
I12
sg106
I11
sg107
I11
sg108
I12
sg109
I9
sg110
I9
sg111
I12
sg112
I10
sg113
I5
ssg114
(dp468
g116
(ijoueur
joueur
p469
(dp470
g27
F10.971428571428572
sg28
I0
sg30
g31
sg32
I17
sg34
I0
sg35
g36
(g37
g38
Ntp471
Rp472
(dp473
g42
I6
sg43
S'***'
p474
sg45
S'personnage'
p475
sbsg47
(dp476
g125
I0
sg126
I0
sg127
I0
sg128
I0
ssg53
(dp477
g125
I0
sg126
I0
sg127
I0
sg128
I0
ssg62
I0
sg130
F10.8
sg63
I1
sg65
I1
sg66
I0
sg67
I27
sg68
(g131
S'DO'
p478
g31
g31
tp479
sg74
I00
sg75
g36
(g37
g38
Ntp480
Rp481
(dp482
g42
I6
sg43
S'***'
p483
sg45
g475
sbsg80
(dp484
g141
I0
sg142
I13
sg143
I0
sg144
I0
ssg82
I00
sg83
(dp485
g141
I0
sg142
I0
sg143
I0
sg144
I0
ssg85
(dp486
g125
I0
sg126
I27
sg127
I0
sg128
I0
ssg87
I185
sg88
I42
sg89
S'Naestra'
p487
sg91
I8
sg92
I97
sg93
I17
sg94
I828
sg95
g148
sg97
(dp488
g150
I11
sg151
I3
sg152
I10
sg153
I11
sg154
I11
sg155
I8
sg156
I11
sg157
I11
sg158
I4
sg159
I12
sg160
I9
sg161
I9
sg162
I11
sg163
I10
sg164
I5
ssg114
(dp489
g166
(ijoueur
joueur
p490
(dp491
g28
I0
sg32
I13
sg34
I0
sg35
g36
(g37
g38
Ntp492
Rp493
(dp494
g42
I6
sg43
S'***'
p495
sg45
S'personnage'
p496
sbsg47
(dp497
S'SR'
p498
I0
sS'CT'
p499
I0
sS'CR'
p500
I0
sS'ST'
p501
I0
ssg53
(dp502
g498
I0
sg499
I0
sg500
I0
sg501
I0
ssg62
I0
sg63
I0
sg82
I00
sg65
I0
sg66
I2
sg67
I8
sg68
(S'dummy'
p503
S'DO'
p504
g31
g31
tp505
sg74
I00
sg75
g36
(g37
g38
Ntp506
Rp507
(dp508
g42
I6
sg43
S'***'
p509
sg45
g496
sbsg80
(dp510
g498
I0
sg499
I14
sg500
I0
sg501
I0
ssg56
(dp511
g498
I0
sg499
I0
sg500
I0
sg501
I0
ssg83
(dp512
g498
I0
sg499
I0
sg500
I0
sg501
I0
ssg85
(dp513
g498
I0
sg499
I14
sg500
I0
sg501
I0
ssg87
I143
sg88
I48
sg89
S'Naestra'
p514
sg91
I8
sg92
I70
sg93
I17
sg94
I828
sg95
S'HTH'
p515
sg97
(dp516
S'A'
p517
I12
sS'ME'
p518
I3
sS'RP2'
p519
I10
sS'E'
p520
I11
sS'P'
p521
I11
sS'RP1'
p522
I8
sS'JP'
p523
I11
sS'RP_tot'
p524
I11
sS'TO'
p525
I4
sS'PA'
p526
I12
sS'M'
p527
I10
sS'R'
p528
I9
sS'TB'
p529
I11
sS'PL'
p530
I10
sS'TA'
p531
I5
ssg211
I0
sg212
I0
sg213
I0
sg214
I0
sg130
F10.971428571428572
sg215
I2
sg216
I0
sg217
I0
sg218
(dp532
S'A'
p533
I12
sS'ME'
p534
I3
sS'RP2'
p535
I10
sS'E'
p536
I11
sS'P'
p537
I11
sS'RP1'
p538
I8
sS'JP'
p539
I11
sS'RP_tot'
p540
I11
sS'TO'
p541
I4
sS'PA'
p542
I12
sS'M'
p543
I10
sS'R'
p544
I9
sS'TB'
p545
I11
sS'PL'
p546
I10
sS'TA'
p547
I5
ssg235
g516
sg236
I0
sg237
S'MRB 10'
p548
sg239
I0
sg240
I6
sg241
I0
sg242
I38
sg243
I4
sg244
I0
sg245
S'ES'
p549
sbssg211
I0
sg212
I1
sg213
I0
sg214
I0
sg56
(dp550
g141
I0
sg142
I0
sg143
I0
sg144
I0
ssg215
I2
sg216
I0
sg217
I2
sg218
(dp551
g249
I12
sg250
I3
sg251
I10
sg252
I11
sg253
I4
sg254
I8
sg255
I11
sg256
I11
sg257
I11
sg258
I12
sg259
I10
sg260
I9
sg261
I11
sg262
I10
sg263
I5
ssg235
g488
sg236
I0
sg237
S'MRB 10'
p552
sg239
I1
sg240
I4
sg241
I1
sg242
I38
sg243
I5
sg244
I2
sg245
S'ES'
p553
sbsg266
(ijoueur
joueur
p554
(dp555
g28
I0
sg32
I13
sg34
I0
sg35
g36
(g37
g38
Ntp556
Rp557
(dp558
g42
I6
sg43
S'***'
p559
sg45
S'personnage'
p560
sbsg47
(dp561
S'SR'
p562
I0
sS'CT'
p563
I0
sS'CR'
p564
I0
sS'ST'
p565
I0
ssg53
(dp566
g562
I0
sg563
I0
sg564
I0
sg565
I0
ssg62
I0
sg63
I0
sg82
I00
sg65
I0
sg66
I2
sg67
I8
sg68
(S'dummy'
p567
S'DO'
p568
g31
g31
tp569
sg74
I00
sg75
g36
(g37
g38
Ntp570
Rp571
(dp572
g42
I6
sg43
S'***'
p573
sg45
g560
sbsg80
(dp574
g562
I0
sg563
I14
sg564
I0
sg565
I0
ssg56
(dp575
g562
I0
sg563
I0
sg564
I0
sg565
I0
ssg83
(dp576
g562
I0
sg563
I0
sg564
I0
sg565
I0
ssg85
(dp577
g562
I0
sg563
I14
sg564
I0
sg565
I0
ssg87
I143
sg88
I48
sg89
S'Naestra'
p578
sg91
I8
sg92
I70
sg93
I17
sg94
I828
sg95
S'HTH'
p579
sg97
(dp580
S'A'
p581
I12
sS'ME'
p582
I3
sS'RP2'
p583
I10
sS'E'
p584
I11
sS'P'
p585
I11
sS'RP1'
p586
I8
sS'JP'
p587
I11
sS'RP_tot'
p588
I11
sS'TO'
p589
I4
sS'PA'
p590
I12
sS'M'
p591
I10
sS'R'
p592
I9
sS'TB'
p593
I11
sS'PL'
p594
I10
sS'TA'
p595
I5
ssg211
I0
sg212
I0
sg213
I0
sg214
I0
sg130
F10.971428571428572
sg215
I2
sg216
I0
sg217
I0
sg218
(dp596
S'A'
p597
I12
sS'ME'
p598
I3
sS'RP2'
p599
I10
sS'E'
p600
I11
sS'P'
p601
I11
sS'RP1'
p602
I8
sS'JP'
p603
I11
sS'RP_tot'
p604
I11
sS'TO'
p605
I4
sS'PA'
p606
I12
sS'M'
p607
I10
sS'R'
p608
I9
sS'TB'
p609
I11
sS'PL'
p610
I10
sS'TA'
p611
I5
ssg235
g580
sg236
I0
sg237
S'MRB 10'
p612
sg239
I0
sg240
I6
sg241
I0
sg242
I38
sg243
I4
sg244
I0
sg245
S'ES'
p613
sbssg211
I4
sg212
I1
sg213
I0
sg214
I0
sg130
F11.0
sg215
I2
sg216
I0
sg217
I2
sg218
(dp614
g330
I12
sg331
I3
sg332
I10
sg333
I11
sg334
I4
sg335
I8
sg336
I11
sg337
I11
sg338
I11
sg339
I12
sg340
I10
sg341
I9
sg342
I11
sg343
I10
sg344
I5
ssg235
(dp615
g99
I11
sg100
I3
sg101
I10
sg102
I11
sg107
I11
sg104
I8
sg105
I12
sg106
I11
sg103
I4
sg108
I12
sg109
I9
sg110
I9
sg111
I12
sg112
I10
sg113
I5
ssg236
I0
sg346
(dp616
sg239
I1
sg237
S'MRB 10'
p617
sg240
I0
sg241
I0
sg242
I38
sg243
I5
sg244
I0
sg245
S'ES'
p618
sbsS'cap'
p619
(ijoueur
joueur
p620
(dp621
g27
F10.558823529411764
sg28
I0
sg29
F11.058823529411764
sg30
g31
sg32
I0
sg33
F21.17512692714172
sg34
I0
sg35
g36
(g37
g38
Ntp622
Rp623
(dp624
g42
I4
sg43
S'*'
p625
sg45
S'heros'
p626
sbsg47
(dp627
S'SR'
p628
I0
sS'CT'
p629
I0
sS'CR'
p630
I0
sS'ST'
p631
I0
ssg53
(dp632
g628
I0
sg629
I0
sg630
I0
sg631
I0
ssg55
I0
sg56
(dp633
g58
I0
sg59
I0
sg60
I0
sg61
I0
ssg62
I0
sg63
I0
sg64
F21.17512692714172
sg65
I0
sg66
I0
sg67
I0
sg68
(g69
S'DL'
p634
g31
g31
tp635
sg74
I00
sg75
g36
(g37
g38
Ntp636
Rp637
(dp638
g42
I4
sg43
g625
sg45
g626
sbsg80
(dp639
g58
I0
sg59
I2
sg60
I0
sg61
I0
ssg82
I00
sg83
(dp640
g58
I0
sg59
I0
sg60
I0
sg61
I0
ssg85
(dp641
g628
I0
sg629
I29
sg630
I0
sg631
I15
ssg87
I0
sg88
I0
sg89
S'Daethyl'
p642
sg91
I8
sg92
I0
sg93
I23
sg94
I78
sg95
g96
sg97
(dp643
S'A'
p644
I13
sS'ME'
p645
I15
sS'RP2'
p646
I8
sS'E'
p647
I13
sS'TO'
p648
I14
sS'RP1'
p649
I9
sS'JP'
p650
I6
sS'RP_tot'
p651
I10
sS'P'
p652
I8
sS'PA'
p653
I9
sS'M'
p654
I10
sS'R'
p655
I8
sS'TB'
p656
I9
sS'PL'
p657
I10
sS'TA'
p658
I7
ssg114
(dp659
g116
(ijoueur
joueur
p660
(dp661
g27
F10.558823529411764
sg28
I0
sg30
g31
sg32
I0
sg34
I0
sg35
g36
(g37
g38
Ntp662
Rp663
(dp664
g42
I4
sg43
S'*'
p665
sg45
S'heros'
p666
sbsg47
(dp667
S'SR'
p668
I0
sS'CT'
p669
I0
sS'CR'
p670
I0
sS'ST'
p671
I0
ssg53
(dp672
g668
I0
sg669
I0
sg670
I0
sg671
I0
ssg62
I0
sg130
F11.058823529411764
sg63
I0
sg65
I1
sg66
I0
sg67
I0
sg68
(g131
S'DL'
p673
g31
g31
tp674
sg74
I00
sg75
g36
(g37
g38
Ntp675
Rp676
(dp677
g42
I4
sg43
g665
sg45
g666
sbsg80
(dp678
g141
I0
sg142
I13
sg143
I0
sg144
I7
ssg82
I00
sg83
(dp679
g141
I0
sg142
I0
sg143
I0
sg144
I0
ssg85
(dp680
g668
I0
sg669
I27
sg670
I0
sg671
I15
ssg87
I0
sg88
I0
sg89
S'Daethyl'
p681
sg91
I8
sg92
I0
sg93
I23
sg94
I78
sg95
g148
sg97
(dp682
S'A'
p683
I13
sS'ME'
p684
I14
sS'RP2'
p685
I8
sS'E'
p686
I12
sS'P'
p687
I8
sS'RP1'
p688
I9
sS'JP'
p689
I7
sS'RP_tot'
p690
I10
sS'TO'
p691
I13
sS'PA'
p692
I9
sS'M'
p693
I10
sS'R'
p694
I8
sS'TB'
p695
I10
sS'PL'
p696
I10
sS'TA'
p697
I7
ssg114
(dp698
g166
(ijoueur
joueur
p699
(dp700
g28
I0
sg32
I0
sg34
I0
sg35
g36
(g37
g38
Ntp701
Rp702
(dp703
g42
I4
sg43
S'*'
p704
sg45
S'heros'
p705
sbsg47
(dp706
S'SR'
p707
I0
sS'CT'
p708
I0
sS'CR'
p709
I0
sS'ST'
p710
I0
ssg53
(dp711
g707
I0
sg708
I0
sg709
I0
sg710
I0
ssg62
I0
sg63
I0
sg82
I01
sg65
I0
sg66
I0
sg67
I0
sg68
(S'dummy'
p712
S'DL'
p713
g31
g31
tp714
sg74
I01
sg75
g36
(g37
g38
Ntp715
Rp716
(dp717
g42
I4
sg43
g704
sg45
g705
sbsg80
(dp718
g707
I0
sg708
I14
sg709
I0
sg710
I8
ssg56
(dp719
g707
I0
sg708
I0
sg709
I0
sg710
I0
ssg83
(dp720
g707
I0
sg708
I0
sg709
I0
sg710
I0
ssg85
(dp721
g707
I0
sg708
I14
sg709
I0
sg710
I8
ssg87
I0
sg88
I0
sg89
S'Daethyl'
p722
sg91
I8
sg92
I0
sg93
I23
sg94
I78
sg95
S'HTH'
p723
sg97
(dp724
S'A'
p725
I13
sS'ME'
p726
I11
sS'RP2'
p727
I8
sS'E'
p728
I12
sS'P'
p729
I7
sS'RP1'
p730
I8
sS'JP'
p731
I8
sS'RP_tot'
p732
I9
sS'TO'
p733
I13
sS'PA'
p734
I9
sS'M'
p735
I9
sS'R'
p736
I8
sS'TB'
p737
I9
sS'PL'
p738
I10
sS'TA'
p739
I7
ssg211
I0
sg212
I0
sg213
I0
sg214
I0
sg130
F10.558823529411764
sg215
I0
sg216
I0
sg217
I1
sg218
(dp740
S'A'
p741
I13
sS'ME'
p742
I11
sS'RP2'
p743
I8
sS'E'
p744
I12
sS'P'
p745
I7
sS'RP1'
p746
I8
sS'JP'
p747
I8
sS'RP_tot'
p748
I9
sS'TO'
p749
I13
sS'PA'
p750
I9
sS'M'
p751
I9
sS'R'
p752
I8
sS'TB'
p753
I9
sS'PL'
p754
I10
sS'TA'
p755
I7
ssg235
g724
sg236
I0
sg237
g31
sg239
I0
sg240
I0
sg241
I0
sg242
I7
sg243
I0
sg244
I1
sg245
S'HE'
p756
sbssg211
I13
sg212
I0
sg213
I0
sg214
I0
sg56
(dp757
g141
I0
sg142
I0
sg143
I0
sg144
I0
ssg215
I0
sg216
I0
sg217
I1
sg218
(dp758
S'A'
p759
I13
sS'ME'
p760
I11
sS'RP2'
p761
I8
sS'E'
p762
I12
sS'TO'
p763
I13
sS'RP1'
p764
I8
sS'JP'
p765
I8
sS'RP_tot'
p766
I9
sS'P'
p767
I7
sS'PA'
p768
I9
sS'M'
p769
I9
sS'R'
p770
I8
sS'TB'
p771
I9
sS'PL'
p772
I10
sS'TA'
p773
I7
ssg235
g682
sg236
I0
sg237
g31
sg239
I0
sg240
I0
sg241
I0
sg242
I23
sg243
I1
sg244
I0
sg245
S'HE'
p774
sbsg266
(ijoueur
joueur
p775
(dp776
g28
I0
sg32
I0
sg34
I0
sg35
g36
(g37
g38
Ntp777
Rp778
(dp779
g42
I4
sg43
S'*'
p780
sg45
S'heros'
p781
sbsg47
(dp782
S'SR'
p783
I0
sS'CT'
p784
I0
sS'CR'
p785
I0
sS'ST'
p786
I0
ssg53
(dp787
g783
I0
sg784
I0
sg785
I0
sg786
I0
ssg62
I0
sg63
I0
sg82
I01
sg65
I0
sg66
I0
sg67
I0
sg68
(S'dummy'
p788
S'DL'
p789
g31
g31
tp790
sg74
I01
sg75
g36
(g37
g38
Ntp791
Rp792
(dp793
g42
I4
sg43
g780
sg45
g781
sbsg80
(dp794
g783
I0
sg784
I14
sg785
I0
sg786
I8
ssg56
(dp795
g783
I0
sg784
I0
sg785
I0
sg786
I0
ssg83
(dp796
g783
I0
sg784
I0
sg785
I0
sg786
I0
ssg85
(dp797
g783
I0
sg784
I14
sg785
I0
sg786
I8
ssg87
I0
sg88
I0
sg89
S'Daethyl'
p798
sg91
I8
sg92
I0
sg93
I23
sg94
I78
sg95
S'HTH'
p799
sg97
(dp800
S'A'
p801
I13
sS'ME'
p802
I11
sS'RP2'
p803
I8
sS'E'
p804
I12
sS'P'
p805
I7
sS'RP1'
p806
I8
sS'JP'
p807
I8
sS'RP_tot'
p808
I9
sS'TO'
p809
I13
sS'PA'
p810
I9
sS'M'
p811
I9
sS'R'
p812
I8
sS'TB'
p813
I9
sS'PL'
p814
I10
sS'TA'
p815
I7
ssg211
I0
sg212
I0
sg213
I0
sg214
I0
sg130
F10.558823529411764
sg215
I0
sg216
I0
sg217
I1
sg218
(dp816
S'A'
p817
I13
sS'ME'
p818
I11
sS'RP2'
p819
I8
sS'E'
p820
I12
sS'P'
p821
I7
sS'RP1'
p822
I8
sS'JP'
p823
I8
sS'RP_tot'
p824
I9
sS'TO'
p825
I13
sS'PA'
p826
I9
sS'M'
p827
I9
sS'R'
p828
I8
sS'TB'
p829
I9
sS'PL'
p830
I10
sS'TA'
p831
I7
ssg235
g800
sg236
I0
sg237
g31
sg239
I0
sg240
I0
sg241
I0
sg242
I7
sg243
I0
sg244
I1
sg245
S'HE'
p832
sbssg211
I5
sg212
I0
sg213
I0
sg214
I0
sg130
F11.5
sg215
I0
sg216
I0
sg217
I1
sg218
(dp833
S'A'
p834
I13
sS'ME'
p835
I11
sS'RP2'
p836
I8
sS'E'
p837
I12
sS'TO'
p838
I13
sS'RP1'
p839
I8
sS'JP'
p840
I8
sS'RP_tot'
p841
I9
sS'P'
p842
I7
sS'PA'
p843
I9
sS'M'
p844
I9
sS'R'
p845
I8
sS'TB'
p846
I9
sS'PL'
p847
I10
sS'TA'
p848
I7
ssg235
(dp849
g644
I13
sg645
I15
sg646
I8
sg647
I13
sg652
I8
sg649
I9
sg650
I6
sg651
I10
sg648
I14
sg653
I9
sg654
I10
sg655
I8
sg656
I9
sg657
I10
sg658
I7
ssg236
I0
sg346
(dp850
sg239
I0
sg237
g31
sg240
I0
sg241
I0
sg242
I23
sg243
I1
sg244
I0
sg245
S'HE'
p851
sbsS'B4'
p852
g447
sS'RJC'
p853
g447
sS'B1'
p854
g447
sS'B2'
p855
g447
sS'B3'
p856
g447
sS'SA_pcp2'
p857
g620
sS'SA_pcp1'
p858
(ijoueur
joueur
p859
(dp860
g27
F10.441176470588236
sg28
I0
sg29
F11.088235294117647
sg30
g31
sg32
I0
sg33
F21.17512692714172
sg34
I0
sg35
g36
(g37
g38
Ntp861
Rp862
(dp863
g42
I5
sg43
S'**'
p864
sg45
S'seigneur'
p865
sbsg47
(dp866
S'SR'
p867
I0
sS'ST'
p868
I0
sS'CR'
p869
I0
sS'CT'
p870
I0
ssg53
(dp871
g867
I0
sg868
I0
sg869
I0
sg870
I0
ssg55
I0
sg56
(dp872
g58
I0
sg59
I0
sg60
I0
sg61
I0
ssg62
I0
sg63
I0
sg64
F21.17512692714172
sg65
I0
sg66
I0
sg67
I0
sg68
(S'dummy'
p873
S'DL'
p874
g31
g31
tp875
sg74
I00
sg75
g862
sg80
(dp876
g58
I0
sg59
I2
sg60
I0
sg61
I0
ssg82
I00
sg83
(dp877
g58
I0
sg59
I0
sg60
I0
sg61
I0
ssg85
(dp878
g867
I0
sg868
I12
sg869
I9
sg870
I21
ssg87
I0
sg88
I0
sg89
S'Tretab'
p879
sg91
I8
sg92
I0
sg93
I26
sg94
I150
sg95
g96
sg97
(dp880
S'A'
p881
I11
sS'ME'
p882
I9
sS'RP2'
p883
I9
sS'E'
p884
I13
sS'P'
p885
I5
sS'RP1'
p886
I10
sS'JP'
p887
I4
sS'RP_tot'
p888
I11
sS'TO'
p889
I15
sS'PA'
p890
I11
sS'M'
p891
I8
sS'R'
p892
I9
sS'TB'
p893
I4
sS'PL'
p894
I9
sS'TA'
p895
I4
ssg114
(dp896
g116
(ijoueur
joueur
p897
(dp898
g27
F10.441176470588236
sg28
I0
sg30
g31
sg32
I0
sg34
I0
sg35
g36
(g37
g38
Ntp899
Rp900
(dp901
g42
I5
sg43
S'**'
p902
sg45
S'seigneur'
p903
sbsg47
(dp904
S'SR'
p905
I0
sS'ST'
p906
I0
sS'CR'
p907
I0
sS'CT'
p908
I0
ssg53
(dp909
g905
I0
sg906
I0
sg907
I0
sg908
I0
ssg62
I0
sg130
F11.088235294117647
sg63
I0
sg65
I3
sg66
I0
sg67
I0
sg68
(S'dummy'
p910
S'DL'
p911
g31
g31
tp912
sg74
I00
sg75
g900
sg80
(dp913
g141
I0
sg142
I14
sg143
I0
sg144
I7
ssg82
I00
sg83
(dp914
g141
I0
sg142
I0
sg143
I0
sg144
I0
ssg85
(dp915
g905
I0
sg906
I12
sg907
I9
sg908
I19
ssg87
I0
sg88
I0
sg89
S'Tretab'
p916
sg91
I8
sg92
I0
sg93
I26
sg94
I150
sg95
g148
sg97
(dp917
S'A'
p918
I11
sS'ME'
p919
I9
sS'RP2'
p920
I8
sS'E'
p921
I13
sS'TO'
p922
I15
sS'RP1'
p923
I10
sS'JP'
p924
I4
sS'RP_tot'
p925
I11
sS'P'
p926
I5
sS'PA'
p927
I11
sS'M'
p928
I8
sS'R'
p929
I9
sS'TB'
p930
I4
sS'PL'
p931
I9
sS'TA'
p932
I4
ssg114
(dp933
g166
(ijoueur
joueur
p934
(dp935
g28
I0
sg32
I0
sg34
I0
sg35
g36
(g37
g38
Ntp936
Rp937
(dp938
g42
I5
sg43
S'**'
p939
sg45
S'seigneur'
p940
sbsg47
(dp941
S'SR'
p942
I0
sS'ST'
p943
I0
sS'CR'
p944
I0
sS'CT'
p945
I0
ssg53
(dp946
g942
I0
sg943
I0
sg944
I0
sg945
I0
ssg62
I0
sg63
I0
sg82
I01
sg65
I0
sg66
I0
sg67
I0
sg68
(S'dummy'
p947
S'DL'
p948
g31
g31
tp949
sg74
I01
sg75
g36
(g37
g38
Ntp950
Rp951
(dp952
g42
I4
sg43
S'*'
p953
sg45
S'heros'
p954
sbsg80
(dp955
g942
I0
sg943
I5
sg944
I9
sg945
I5
ssg56
(dp956
g942
I0
sg943
I0
sg944
I0
sg945
I0
ssg83
(dp957
g942
I0
sg943
I0
sg944
I0
sg945
I0
ssg85
(dp958
g942
I0
sg943
I5
sg944
I9
sg945
I5
ssg87
I0
sg88
I0
sg89
S'Tretab'
p959
sg91
I8
sg92
I0
sg93
I26
sg94
I60
sg95
S'ED'
p960
sg97
(dp961
S'A'
p962
I10
sS'ME'
p963
I9
sS'RP2'
p964
I7
sS'E'
p965
I12
sS'TO'
p966
I14
sS'RP1'
p967
I10
sS'JP'
p968
I4
sS'RP_tot'
p969
I10
sS'P'
p970
I5
sS'PA'
p971
I10
sS'M'
p972
I8
sS'R'
p973
I9
sS'TB'
p974
I4
sS'PL'
p975
I8
sS'TA'
p976
I4
ssg211
I0
sg212
I0
sg213
I0
sg214
I0
sg130
F10.441176470588236
sg215
I0
sg216
I0
sg217
I0
sg218
(dp977
S'A'
p978
I10
sS'ME'
p979
I9
sS'RP2'
p980
I7
sS'E'
p981
I12
sS'TO'
p982
I14
sS'RP1'
p983
I10
sS'JP'
p984
I4
sS'RP_tot'
p985
I10
sS'P'
p986
I5
sS'PA'
p987
I10
sS'M'
p988
I8
sS'R'
p989
I9
sS'TB'
p990
I4
sS'PL'
p991
I8
sS'TA'
p992
I4
ssg235
g961
sg236
I0
sg237
g31
sg239
I0
sg240
I0
sg241
I0
sg242
I6
sg243
I0
sg244
I0
sg245
S'B'
p993
sbssg211
I10
sg212
I0
sg213
I0
sg214
I0
sg56
(dp994
g141
I0
sg142
I0
sg143
I0
sg144
I0
ssg215
I0
sg216
I0
sg217
I0
sg218
(dp995
S'A'
p996
I10
sS'ME'
p997
I9
sS'RP2'
p998
I7
sS'E'
p999
I12
sS'P'
p1000
I5
sS'RP1'
p1001
I10
sS'JP'
p1002
I4
sS'RP_tot'
p1003
I10
sS'TO'
p1004
I14
sS'PA'
p1005
I10
sS'M'
p1006
I8
sS'R'
p1007
I9
sS'TB'
p1008
I4
sS'PL'
p1009
I8
sS'TA'
p1010
I4
ssg235
g917
sg236
I0
sg237
S'ED 12'
p1011
sg239
I0
sg240
I0
sg241
I0
sg242
I20
sg243
I3
sg244
I0
sg245
S'B'
p1012
sbsg266
(ijoueur
joueur
p1013
(dp1014
g28
I0
sg32
I0
sg34
I0
sg35
g36
(g37
g38
Ntp1015
Rp1016
(dp1017
g42
I5
sg43
S'**'
p1018
sg45
S'seigneur'
p1019
sbsg47
(dp1020
S'SR'
p1021
I0
sS'ST'
p1022
I0
sS'CR'
p1023
I0
sS'CT'
p1024
I0
ssg53
(dp1025
g1021
I0
sg1022
I0
sg1023
I0
sg1024
I0
ssg62
I0
sg63
I0
sg82
I01
sg65
I0
sg66
I0
sg67
I0
sg68
(S'dummy'
p1026
S'DL'
p1027
g31
g31
tp1028
sg74
I01
sg75
g36
(g37
g38
Ntp1029
Rp1030
(dp1031
g42
I4
sg43
S'*'
p1032
sg45
S'heros'
p1033
sbsg80
(dp1034
g1021
I0
sg1022
I5
sg1023
I9
sg1024
I5
ssg56
(dp1035
g1021
I0
sg1022
I0
sg1023
I0
sg1024
I0
ssg83
(dp1036
g1021
I0
sg1022
I0
sg1023
I0
sg1024
I0
ssg85
(dp1037
g1021
I0
sg1022
I5
sg1023
I9
sg1024
I5
ssg87
I0
sg88
I0
sg89
S'Tretab'
p1038
sg91
I8
sg92
I0
sg93
I26
sg94
I60
sg95
S'ED'
p1039
sg97
(dp1040
S'A'
p1041
I10
sS'ME'
p1042
I9
sS'RP2'
p1043
I7
sS'E'
p1044
I12
sS'TO'
p1045
I14
sS'RP1'
p1046
I10
sS'JP'
p1047
I4
sS'RP_tot'
p1048
I10
sS'P'
p1049
I5
sS'PA'
p1050
I10
sS'M'
p1051
I8
sS'R'
p1052
I9
sS'TB'
p1053
I4
sS'PL'
p1054
I8
sS'TA'
p1055
I4
ssg211
I0
sg212
I0
sg213
I0
sg214
I0
sg130
F10.441176470588236
sg215
I0
sg216
I0
sg217
I0
sg218
(dp1056
S'A'
p1057
I10
sS'ME'
p1058
I9
sS'RP2'
p1059
I7
sS'E'
p1060
I12
sS'TO'
p1061
I14
sS'RP1'
p1062
I10
sS'JP'
p1063
I4
sS'RP_tot'
p1064
I10
sS'P'
p1065
I5
sS'PA'
p1066
I10
sS'M'
p1067
I8
sS'R'
p1068
I9
sS'TB'
p1069
I4
sS'PL'
p1070
I8
sS'TA'
p1071
I4
ssg235
g1040
sg236
I0
sg237
g31
sg239
I0
sg240
I0
sg241
I0
sg242
I6
sg243
I0
sg244
I0
sg245
S'B'
p1072
sbssg211
I4
sg212
I0
sg213
I0
sg214
I0
sg130
F11.088235294117647
sg215
I0
sg216
I0
sg217
I0
sg218
(dp1073
S'A'
p1074
I10
sS'ME'
p1075
I9
sS'RP2'
p1076
I7
sS'E'
p1077
I12
sS'P'
p1078
I5
sS'RP1'
p1079
I10
sS'JP'
p1080
I4
sS'RP_tot'
p1081
I10
sS'TO'
p1082
I14
sS'PA'
p1083
I10
sS'M'
p1084
I8
sS'R'
p1085
I9
sS'TB'
p1086
I4
sS'PL'
p1087
I8
sS'TA'
p1088
I4
ssg235
(dp1089
g881
I11
sg882
I9
sg883
I9
sg884
I13
sg889
I15
sg886
I10
sg887
I4
sg888
I11
sg885
I5
sg890
I11
sg891
I8
sg892
I9
sg893
I4
sg894
I9
sg895
I4
ssg236
I0
sg346
(dp1090
sg239
I0
sg237
S'ED 12'
p1091
sg240
I0
sg241
I0
sg242
I20
sg243
I3
sg244
I0
sg245
S'B'
p1092
sbsS'drop3'
p1093
(ijoueur
joueur
p1094
(dp1095
g27
F9.285714285714286
sg28
I0
sg29
F9.428571428571429
sg30
g31
sg32
I1
sg33
F21.17512692714172
sg34
I0
sg35
g36
(g37
g38
Ntp1096
Rp1097
(dp1098
g42
I3
sg43
S'^^^'
p1099
sg45
S'rare'
p1100
sbsg47
(dp1101
g49
I0
sg50
I1
sg51
I0
sg52
I0
ssg53
(dp1102
g49
I0
sg50
I0
sg51
I0
sg52
I0
ssg55
I0
sg56
(dp1103
g58
I0
sg59
I0
sg60
I0
sg61
I0
ssg62
I0
sg63
I0
sg64
F21.17512692714172
sg65
I0
sg66
I0
sg67
I0
sg68
(g69
S'DO'
p1104
S'AR'
p1105
g31
tp1106
sg74
I00
sg75
g36
(g37
g38
Ntp1107
Rp1108
(dp1109
g42
I3
sg43
S'^^^'
p1110
sg45
g1100
sbsg80
(dp1111
g58
I0
sg59
I0
sg60
I2
sg61
I0
ssg82
I00
sg83
(dp1112
g58
I0
sg59
I0
sg60
I0
sg61
I0
ssg85
(dp1113
g49
I0
sg50
I4
sg51
I18
sg52
I0
ssg87
I4
sg88
I0
sg89
S'Latael'
p1114
sg91
I8
sg92
I9
sg93
I16
sg94
I58
sg95
g96
sg97
(dp1115
g99
I13
sg100
I5
sg101
I5
sg102
I9
sg103
I8
sg104
I5
sg105
I11
sg106
I6
sg107
I10
sg108
I9
sg109
I9
sg110
I8
sg111
I12
sg112
I13
sg113
I4
ssg114
(dp1116
g116
(ijoueur
joueur
p1117
(dp1118
g27
F9.285714285714286
sg28
I0
sg30
g31
sg32
I1
sg34
I0
sg35
g36
(g37
g38
Ntp1119
Rp1120
(dp1121
g42
I3
sg43
S'^^^'
p1122
sg45
S'rare'
p1123
sbsg47
(dp1124
g125
I0
sg126
I1
sg127
I0
sg128
I0
ssg53
(dp1125
g125
I0
sg126
I0
sg127
I0
sg128
I0
ssg62
I0
sg130
F9.428571428571429
sg63
I0
sg65
I0
sg66
I0
sg67
I6
sg68
(g131
S'DO'
p1126
S'AR'
p1127
g31
tp1128
sg74
I00
sg75
g36
(g37
g38
Ntp1129
Rp1130
(dp1131
g42
I3
sg43
S'^^^'
p1132
sg45
g1123
sbsg80
(dp1133
g141
I0
sg142
I3
sg143
I12
sg144
I0
ssg82
I00
sg83
(dp1134
g141
I0
sg142
I0
sg143
I0
sg144
I0
ssg85
(dp1135
g125
I0
sg126
I4
sg127
I16
sg128
I0
ssg87
I4
sg88
I4
sg89
S'Latael'
p1136
sg91
I8
sg92
I9
sg93
I16
sg94
I58
sg95
g148
sg97
(dp1137
g150
I12
sg151
I5
sg152
I5
sg153
I9
sg154
I9
sg155
I5
sg156
I10
sg157
I5
sg158
I8
sg159
I9
sg160
I9
sg161
I8
sg162
I12
sg163
I11
sg164
I4
ssg114
(dp1138
g166
(ijoueur
joueur
p1139
(dp1140
g28
I0
sg32
I0
sg34
I0
sg35
g36
(g37
g38
Ntp1141
Rp1142
(dp1143
g42
I3
sg43
S'^^^'
p1144
sg45
S'rare'
p1145
sbsg47
(dp1146
S'SR'
p1147
I0
sS'CT'
p1148
I1
sS'CR'
p1149
I0
sS'ST'
p1150
I0
ssg53
(dp1151
g1147
I0
sg1148
I0
sg1149
I0
sg1150
I0
ssg62
I0
sg63
I0
sg82
I01
sg65
I0
sg66
I0
sg67
I3
sg68
(S'dummy'
p1152
S'DO'
p1153
S'AR'
p1154
g31
tp1155
sg74
I01
sg75
g36
(g37
g38
Ntp1156
Rp1157
(dp1158
g42
I3
sg43
S'^^^'
p1159
sg45
g1145
sbsg80
(dp1160
g1147
I0
sg1148
I1
sg1149
I4
sg1150
I0
ssg56
(dp1161
g1147
I0
sg1148
I1
sg1149
I0
sg1150
I0
ssg83
(dp1162
g1147
I0
sg1148
I0
sg1149
I0
sg1150
I0
ssg85
(dp1163
g1147
I0
sg1148
I1
sg1149
I4
sg1150
I0
ssg87
I0
sg88
I0
sg89
S'Latael'
p1164
sg91
I8
sg92
I3
sg93
I16
sg94
I58
sg95
S'HTH'
p1165
sg97
(dp1166
S'A'
p1167
I12
sS'ME'
p1168
I5
sS'RP2'
p1169
I6
sS'E'
p1170
I10
sS'P'
p1171
I8
sS'RP1'
p1172
I6
sS'JP'
p1173
I9
sS'RP_tot'
p1174
I6
sS'TO'
p1175
I8
sS'PA'
p1176
I9
sS'M'
p1177
I9
sS'R'
p1178
I8
sS'TB'
p1179
I11
sS'PL'
p1180
I11
sS'TA'
p1181
I4
ssg211
I0
sg212
I0
sg213
I0
sg214
I0
sg130
F9.285714285714286
sg215
I0
sg216
I0
sg217
I0
sg218
(dp1182
S'A'
p1183
I12
sS'ME'
p1184
I5
sS'RP2'
p1185
I6
sS'E'
p1186
I10
sS'P'
p1187
I8
sS'RP1'
p1188
I6
sS'JP'
p1189
I9
sS'RP_tot'
p1190
I6
sS'TO'
p1191
I8
sS'PA'
p1192
I9
sS'M'
p1193
I9
sS'R'
p1194
I8
sS'TB'
p1195
I11
sS'PL'
p1196
I11
sS'TA'
p1197
I4
ssg235
g1166
sg236
I0
sg237
g31
sg239
I0
sg240
I0
sg241
I0
sg242
I3
sg243
I2
sg244
I0
sg245
S'HE'
p1198
sbssg211
I0
sg212
I0
sg213
I0
sg214
I0
sg56
(dp1199
g141
I0
sg142
I0
sg143
I0
sg144
I0
ssg215
I0
sg216
I0
sg217
I1
sg218
(dp1200
g249
I12
sg250
I5
sg251
I6
sg252
I10
sg253
I8
sg254
I6
sg255
I9
sg256
I6
sg257
I8
sg258
I9
sg259
I9
sg260
I8
sg261
I11
sg262
I11
sg263
I4
ssg235
g1137
sg236
I0
sg237
g31
sg239
I0
sg240
I1
sg241
I0
sg242
I7
sg243
I2
sg244
I1
sg245
S'HE'
p1201
sbsg266
(ijoueur
joueur
p1202
(dp1203
g28
I0
sg32
I0
sg34
I0
sg35
g36
(g37
g38
Ntp1204
Rp1205
(dp1206
g42
I3
sg43
S'^^^'
p1207
sg45
S'rare'
p1208
sbsg47
(dp1209
S'SR'
p1210
I0
sS'CT'
p1211
I1
sS'CR'
p1212
I0
sS'ST'
p1213
I0
ssg53
(dp1214
g1210
I0
sg1211
I0
sg1212
I0
sg1213
I0
ssg62
I0
sg63
I0
sg82
I01
sg65
I0
sg66
I0
sg67
I3
sg68
(S'dummy'
p1215
S'DO'
p1216
S'AR'
p1217
g31
tp1218
sg74
I01
sg75
g36
(g37
g38
Ntp1219
Rp1220
(dp1221
g42
I3
sg43
S'^^^'
p1222
sg45
g1208
sbsg80
(dp1223
g1210
I0
sg1211
I1
sg1212
I4
sg1213
I0
ssg56
(dp1224
g1210
I0
sg1211
I1
sg1212
I0
sg1213
I0
ssg83
(dp1225
g1210
I0
sg1211
I0
sg1212
I0
sg1213
I0
ssg85
(dp1226
g1210
I0
sg1211
I1
sg1212
I4
sg1213
I0
ssg87
I0
sg88
I0
sg89
S'Latael'
p1227
sg91
I8
sg92
I3
sg93
I16
sg94
I58
sg95
S'HTH'
p1228
sg97
(dp1229
S'A'
p1230
I12
sS'ME'
p1231
I5
sS'RP2'
p1232
I6
sS'E'
p1233
I10
sS'P'
p1234
I8
sS'RP1'
p1235
I6
sS'JP'
p1236
I9
sS'RP_tot'
p1237
I6
sS'TO'
p1238
I8
sS'PA'
p1239
I9
sS'M'
p1240
I9
sS'R'
p1241
I8
sS'TB'
p1242
I11
sS'PL'
p1243
I11
sS'TA'
p1244
I4
ssg211
I0
sg212
I0
sg213
I0
sg214
I0
sg130
F9.285714285714286
sg215
I0
sg216
I0
sg217
I0
sg218
(dp1245
S'A'
p1246
I12
sS'ME'
p1247
I5
sS'RP2'
p1248
I6
sS'E'
p1249
I10
sS'P'
p1250
I8
sS'RP1'
p1251
I6
sS'JP'
p1252
I9
sS'RP_tot'
p1253
I6
sS'TO'
p1254
I8
sS'PA'
p1255
I9
sS'M'
p1256
I9
sS'R'
p1257
I8
sS'TB'
p1258
I11
sS'PL'
p1259
I11
sS'TA'
p1260
I4
ssg235
g1229
sg236
I0
sg237
g31
sg239
I0
sg240
I0
sg241
I0
sg242
I3
sg243
I2
sg244
I0
sg245
S'HE'
p1261
sbssg211
I4
sg212
I0
sg213
I0
sg214
I0
sg130
F10.114285714285714
sg215
I0
sg216
I0
sg217
I1
sg218
(dp1262
g330
I12
sg331
I5
sg332
I6
sg333
I10
sg334
I8
sg335
I6
sg336
I9
sg337
I6
sg338
I8
sg339
I9
sg340
I9
sg341
I8
sg342
I11
sg343
I11
sg344
I4
ssg235
(dp1263
g99
I13
sg100
I5
sg101
I5
sg102
I9
sg107
I10
sg104
I5
sg105
I11
sg106
I6
sg103
I8
sg108
I9
sg109
I9
sg110
I8
sg111
I12
sg112
I13
sg113
I4
ssg236
I0
sg346
(dp1264
sg239
I0
sg237
g31
sg240
I0
sg241
I0
sg242
I7
sg243
I2
sg244
I0
sg245
S'HE'
p1265
sbsS'SA_remp1'
p1266
(ijoueur
joueur
p1267
(dp1268
g27
F10.0
sg28
I2
sg29
F11.710526315789474
sg30
g31
sg32
I0
sg33
F21.17512692714172
sg34
I0
sg35
g36
(g37
g38
Ntp1269
Rp1270
(dp1271
g42
I5
sg43
S'**'
p1272
sg45
g46
sbsg47
(dp1273
g628
I0
sg629
I0
sg630
I0
sg631
I0
ssg53
(dp1274
g628
I0
sg629
I0
sg630
I0
sg631
I0
ssg55
I0
sg56
(dp1275
g58
I0
sg59
I0
sg60
I0
sg61
I0
ssg62
I0
sg63
I0
sg64
F21.17512692714172
sg65
I0
sg66
I0
sg67
I0
sg68
(g69
S'TL'
p1276
g31
g31
tp1277
sg74
I00
sg75
g1270
sg80
(dp1278
g58
I0
sg59
I2
sg60
I0
sg61
I0
ssg82
I00
sg83
(dp1279
g58
I0
sg59
I0
sg60
I0
sg61
I0
ssg85
(dp1280
g628
I0
sg629
I25
sg630
I2
sg631
I11
ssg87
I0
sg88
I0
sg89
S'Le Catel'
p1281
sg91
I8
sg92
I0
sg93
I24
sg94
I116
sg95
g96
sg97
(dp1282
g644
I13
sg645
I12
sg646
I10
sg647
I11
sg648
I12
sg649
I9
sg650
I5
sg651
I11
sg652
I4
sg653
I10
sg654
I8
sg655
I13
sg656
I5
sg657
I13
sg658
I5
ssg114
(dp1283
g116
(ijoueur
joueur
p1284
(dp1285
g27
F10.0
sg28
I2
sg30
g31
sg32
I0
sg34
I0
sg35
g36
(g37
g38
Ntp1286
Rp1287
(dp1288
g42
I5
sg43
S'**'
p1289
sg45
g123
sbsg47
(dp1290
g668
I0
sg669
I0
sg670
I0
sg671
I0
ssg53
(dp1291
g668
I0
sg669
I0
sg670
I0
sg671
I0
ssg62
I0
sg130
F11.710526315789474
sg63
I0
sg65
I4
sg66
I0
sg67
I0
sg68
(g131
S'TL'
p1292
g31
g31
tp1293
sg74
I00
sg75
g1287
sg80
(dp1294
g141
I0
sg142
I12
sg143
I0
sg144
I7
ssg82
I01
sg83
(dp1295
g141
I0
sg142
I0
sg143
I0
sg144
I0
ssg85
(dp1296
g668
I0
sg669
I23
sg670
I2
sg671
I11
ssg87
I0
sg88
I0
sg89
S'Le Catel'
p1297
sg91
I8
sg92
I0
sg93
I24
sg94
I116
sg95
g148
sg97
(dp1298
g683
I13
sg684
I12
sg685
I10
sg686
I11
sg687
I4
sg688
I9
sg689
I5
sg690
I12
sg691
I12
sg692
I10
sg693
I8
sg694
I12
sg695
I5
sg696
I12
sg697
I5
ssg114
(dp1299
g166
(ijoueur
joueur
p1300
(dp1301
g28
I2
sg32
I0
sg34
I0
sg35
g36
(g37
g38
Ntp1302
Rp1303
(dp1304
g42
I5
sg43
S'**'
p1305
sg45
S'seigneur'
p1306
sbsg47
(dp1307
S'SR'
p1308
I0
sS'CT'
p1309
I0
sS'CR'
p1310
I0
sS'ST'
p1311
I0
ssg53
(dp1312
g1308
I0
sg1309
I0
sg1310
I0
sg1311
I0
ssg62
I0
sg63
I0
sg82
I01
sg65
I1
sg66
I0
sg67
I0
sg68
(S'dummy'
p1313
S'TL'
p1314
g31
g31
tp1315
sg74
I00
sg75
g36
(g37
g38
Ntp1316
Rp1317
(dp1318
g42
I4
sg43
S'*'
p1319
sg45
S'heros'
p1320
sbsg80
(dp1321
g1308
I0
sg1309
I11
sg1310
I2
sg1311
I4
ssg56
(dp1322
g1308
I0
sg1309
I0
sg1310
I0
sg1311
I0
ssg83
(dp1323
g1308
I0
sg1309
I0
sg1310
I0
sg1311
I0
ssg85
(dp1324
g1308
I0
sg1309
I11
sg1310
I2
sg1311
I4
ssg87
I0
sg88
I0
sg89
S'Le Catel'
p1325
sg91
I8
sg92
I0
sg93
I24
sg94
I66
sg95
S'HTH'
p1326
sg97
(dp1327
S'A'
p1328
I10
sS'ME'
p1329
I10
sS'RP2'
p1330
I8
sS'E'
p1331
I10
sS'P'
p1332
I4
sS'RP1'
p1333
I8
sS'JP'
p1334
I5
sS'RP_tot'
p1335
I9
sS'TO'
p1336
I10
sS'PA'
p1337
I9
sS'M'
p1338
I8
sS'R'
p1339
I11
sS'TB'
p1340
I5
sS'PL'
p1341
I10
sS'TA'
p1342
I5
ssg211
I0
sg212
I0
sg213
I0
sg214
I0
sg130
F10.0
sg215
I0
sg216
I0
sg217
I0
sg218
(dp1343
S'A'
p1344
I10
sS'ME'
p1345
I10
sS'RP2'
p1346
I8
sS'E'
p1347
I10
sS'P'
p1348
I4
sS'RP1'
p1349
I8
sS'JP'
p1350
I5
sS'RP_tot'
p1351
I9
sS'TO'
p1352
I10
sS'PA'
p1353
I9
sS'M'
p1354
I8
sS'R'
p1355
I11
sS'TB'
p1356
I5
sS'PL'
p1357
I10
sS'TA'
p1358
I5
ssg235
g1327
sg236
I2
sg237
g31
sg239
I0
sg240
I0
sg241
I0
sg242
I6
sg243
I1
sg244
I0
sg245
S'B'
p1359
sbssg211
I8
sg212
I0
sg213
I0
sg214
I0
sg56
(dp1360
g141
I0
sg142
I0
sg143
I0
sg144
I0
ssg215
I0
sg216
I0
sg217
I0
sg218
(dp1361
g759
I10
sg760
I10
sg761
I8
sg762
I10
sg763
I10
sg764
I8
sg765
I5
sg766
I9
sg767
I4
sg768
I9
sg769
I8
sg770
I11
sg771
I5
sg772
I10
sg773
I5
ssg235
g1298
sg236
I0
sg237
g31
sg239
I0
sg240
I0
sg241
I0
sg242
I11
sg243
I5
sg244
I0
sg245
S'B'
p1362
sbsg266
(ijoueur
joueur
p1363
(dp1364
g28
I2
sg32
I0
sg34
I0
sg35
g36
(g37
g38
Ntp1365
Rp1366
(dp1367
g42
I5
sg43
S'**'
p1368
sg45
S'seigneur'
p1369
sbsg47
(dp1370
S'SR'
p1371
I0
sS'CT'
p1372
I0
sS'CR'
p1373
I0
sS'ST'
p1374
I0
ssg53
(dp1375
g1371
I0
sg1372
I0
sg1373
I0
sg1374
I0
ssg62
I0
sg63
I0
sg82
I01
sg65
I1
sg66
I0
sg67
I0
sg68
(S'dummy'
p1376
S'TL'
p1377
g31
g31
tp1378
sg74
I00
sg75
g36
(g37
g38
Ntp1379
Rp1380
(dp1381
g42
I4
sg43
S'*'
p1382
sg45
S'heros'
p1383
sbsg80
(dp1384
g1371
I0
sg1372
I11
sg1373
I2
sg1374
I4
ssg56
(dp1385
g1371
I0
sg1372
I0
sg1373
I0
sg1374
I0
ssg83
(dp1386
g1371
I0
sg1372
I0
sg1373
I0
sg1374
I0
ssg85
(dp1387
g1371
I0
sg1372
I11
sg1373
I2
sg1374
I4
ssg87
I0
sg88
I0
sg89
S'Le Catel'
p1388
sg91
I8
sg92
I0
sg93
I24
sg94
I66
sg95
S'HTH'
p1389
sg97
(dp1390
S'A'
p1391
I10
sS'ME'
p1392
I10
sS'RP2'
p1393
I8
sS'E'
p1394
I10
sS'P'
p1395
I4
sS'RP1'
p1396
I8
sS'JP'
p1397
I5
sS'RP_tot'
p1398
I9
sS'TO'
p1399
I10
sS'PA'
p1400
I9
sS'M'
p1401
I8
sS'R'
p1402
I11
sS'TB'
p1403
I5
sS'PL'
p1404
I10
sS'TA'
p1405
I5
ssg211
I0
sg212
I0
sg213
I0
sg214
I0
sg130
F10.0
sg215
I0
sg216
I0
sg217
I0
sg218
(dp1406
S'A'
p1407
I10
sS'ME'
p1408
I10
sS'RP2'
p1409
I8
sS'E'
p1410
I10
sS'P'
p1411
I4
sS'RP1'
p1412
I8
sS'JP'
p1413
I5
sS'RP_tot'
p1414
I9
sS'TO'
p1415
I10
sS'PA'
p1416
I9
sS'M'
p1417
I8
sS'R'
p1418
I11
sS'TB'
p1419
I5
sS'PL'
p1420
I10
sS'TA'
p1421
I5
ssg235
g1390
sg236
I2
sg237
g31
sg239
I0
sg240
I0
sg241
I0
sg242
I6
sg243
I1
sg244
I0
sg245
S'B'
p1422
sbssg211
I5
sg212
I0
sg213
I0
sg214
I0
sg130
F12.0
sg215
I0
sg216
I0
sg217
I0
sg218
(dp1423
g834
I10
sg835
I10
sg836
I8
sg837
I10
sg838
I10
sg839
I8
sg840
I5
sg841
I9
sg842
I4
sg843
I9
sg844
I8
sg845
I11
sg846
I5
sg847
I10
sg848
I5
ssg235
(dp1424
g644
I13
sg645
I12
sg646
I10
sg647
I11
sg652
I4
sg649
I9
sg650
I5
sg651
I11
sg648
I12
sg653
I10
sg654
I8
sg655
I13
sg656
I5
sg657
I13
sg658
I5
ssg236
I0
sg346
(dp1425
sg239
I0
sg237
g31
sg240
I0
sg241
I0
sg242
I11
sg243
I5
sg244
I0
sg245
S'B'
p1426
sbsS'drop2'
p1427
g447
sS'SA_remp2'
p1428
(ijoueur
joueur
p1429
(dp1430
g27
F9.823529411764707
sg28
I0
sg29
F9.529411764705882
sg30
g31
sg32
I0
sg33
F21.17512692714172
sg34
I0
sg35
g36
(g37
g38
Ntp1431
Rp1432
(dp1433
g42
I3
sg43
S'^^^'
p1434
sg45
g1100
sbsg47
(dp1435
g628
I0
sg629
I0
sg630
I0
sg631
I0
ssg53
(dp1436
g628
I0
sg629
I0
sg630
I0
sg631
I0
ssg55
I0
sg56
(dp1437
g58
I0
sg59
I0
sg60
I0
sg61
I0
ssg62
I0
sg63
I0
sg64
F21.17512692714172
sg65
I0
sg66
I0
sg67
I0
sg68
(g69
S'DL'
p1438
g31
g31
tp1439
sg74
I00
sg75
g36
(g37
g38
Ntp1440
Rp1441
(dp1442
g42
I3
sg43
S'^^^'
p1443
sg45
g1100
sbsg80
(dp1444
g58
I0
sg59
I0
sg60
I2
sg61
I0
ssg82
I00
sg83
(dp1445
g58
I0
sg59
I0
sg60
I0
sg61
I0
ssg85
(dp1446
g628
I0
sg629
I17
sg630
I14
sg631
I0
ssg87
I0
sg88
I0
sg89
S'Noroel'
p1447
sg91
I6
sg92
I0
sg93
I19
sg94
I25
sg95
g96
sg97
(dp1448
g644
I8
sg645
I11
sg646
I6
sg647
I10
sg648
I12
sg649
I9
sg650
I5
sg651
I9
sg652
I6
sg653
I8
sg654
I7
sg655
I10
sg656
I4
sg657
I12
sg658
I5
ssg114
(dp1449
g116
(ijoueur
joueur
p1450
(dp1451
g27
F9.823529411764707
sg28
I0
sg30
g31
sg32
I0
sg34
I0
sg35
g36
(g37
g38
Ntp1452
Rp1453
(dp1454
g42
I3
sg43
S'^^^'
p1455
sg45
g1123
sbsg47
(dp1456
g668
I0
sg669
I0
sg670
I0
sg671
I0
ssg53
(dp1457
g668
I0
sg669
I0
sg670
I0
sg671
I0
ssg62
I0
sg130
F9.529411764705882
sg63
I0
sg65
I0
sg66
I0
sg67
I0
sg68
(g131
S'DL'
p1458
g31
g31
tp1459
sg74
I00
sg75
g36
(g37
g38
Ntp1460
Rp1461
(dp1462
g42
I3
sg43
S'^^^'
p1463
sg45
g1123
sbsg80
(dp1464
g141
I0
sg142
I4
sg143
I11
sg144
I0
ssg82
I00
sg83
(dp1465
g141
I0
sg142
I0
sg143
I0
sg144
I0
ssg85
(dp1466
g668
I0
sg669
I17
sg670
I12
sg671
I0
ssg87
I0
sg88
I0
sg89
S'Noroel'
p1467
sg91
I6
sg92
I0
sg93
I19
sg94
I25
sg95
g148
sg97
(dp1468
g683
I8
sg684
I10
sg685
I6
sg686
I10
sg687
I6
sg688
I9
sg689
I5
sg690
I9
sg691
I10
sg692
I8
sg693
I7
sg694
I9
sg695
I4
sg696
I11
sg697
I5
ssg114
(dp1469
g166
(ijoueur
joueur
p1470
(dp1471
g28
I0
sg32
I0
sg34
I0
sg35
g36
(g37
g38
Ntp1472
Rp1473
(dp1474
g42
I3
sg43
S'^^^'
p1475
sg45
S'rare'
p1476
sbsg47
(dp1477
S'SR'
p1478
I0
sS'CT'
p1479
I0
sS'CR'
p1480
I0
sS'ST'
p1481
I0
ssg53
(dp1482
g1478
I0
sg1479
I0
sg1480
I0
sg1481
I0
ssg62
I0
sg63
I0
sg82
I01
sg65
I0
sg66
I0
sg67
I0
sg68
(S'dummy'
p1483
S'DL'
p1484
g31
g31
tp1485
sg74
I01
sg75
g36
(g37
g38
Ntp1486
Rp1487
(dp1488
g42
I3
sg43
S'^^^'
p1489
sg45
g1476
sbsg80
(dp1490
g1478
I0
sg1479
I13
sg1480
I1
sg1481
I0
ssg56
(dp1491
g1478
I0
sg1479
I0
sg1480
I0
sg1481
I0
ssg83
(dp1492
g1478
I0
sg1479
I0
sg1480
I0
sg1481
I0
ssg85
(dp1493
g1478
I0
sg1479
I13
sg1480
I1
sg1481
I0
ssg87
I0
sg88
I0
sg89
S'Noroel'
p1494
sg91
I6
sg92
I0
sg93
I19
sg94
I25
sg95
S'HTH'
p1495
sg97
(dp1496
S'A'
p1497
I9
sS'ME'
p1498
I10
sS'RP2'
p1499
I6
sS'E'
p1500
I10
sS'P'
p1501
I6
sS'RP1'
p1502
I9
sS'JP'
p1503
I5
sS'RP_tot'
p1504
I9
sS'TO'
p1505
I11
sS'PA'
p1506
I8
sS'M'
p1507
I8
sS'R'
p1508
I9
sS'TB'
p1509
I4
sS'PL'
p1510
I11
sS'TA'
p1511
I5
ssg211
I0
sg212
I0
sg213
I0
sg214
I0
sg130
F9.823529411764707
sg215
I0
sg216
I0
sg217
I0
sg218
(dp1512
S'A'
p1513
I9
sS'ME'
p1514
I10
sS'RP2'
p1515
I6
sS'E'
p1516
I10
sS'P'
p1517
I6
sS'RP1'
p1518
I9
sS'JP'
p1519
I5
sS'RP_tot'
p1520
I9
sS'TO'
p1521
I11
sS'PA'
p1522
I8
sS'M'
p1523
I8
sS'R'
p1524
I9
sS'TB'
p1525
I4
sS'PL'
p1526
I11
sS'TA'
p1527
I5
ssg235
g1496
sg236
I0
sg237
g31
sg239
I0
sg240
I0
sg241
I0
sg242
I2
sg243
I2
sg244
I0
sg245
S'EN'
p1528
sbssg211
I0
sg212
I0
sg213
I0
sg214
I0
sg56
(dp1529
g141
I0
sg142
I0
sg143
I0
sg144
I0
ssg215
I0
sg216
I0
sg217
I0
sg218
(dp1530
g759
I9
sg760
I10
sg761
I6
sg762
I10
sg763
I11
sg764
I9
sg765
I5
sg766
I9
sg767
I6
sg768
I8
sg769
I8
sg770
I9
sg771
I4
sg772
I11
sg773
I5
ssg235
g1468
sg236
I0
sg237
g31
sg239
I0
sg240
I0
sg241
I0
sg242
I10
sg243
I2
sg244
I0
sg245
S'EN'
p1531
sbsg266
(ijoueur
joueur
p1532
(dp1533
g28
I0
sg32
I0
sg34
I0
sg35
g36
(g37
g38
Ntp1534
Rp1535
(dp1536
g42
I3
sg43
S'^^^'
p1537
sg45
S'rare'
p1538
sbsg47
(dp1539
S'SR'
p1540
I0
sS'CT'
p1541
I0
sS'CR'
p1542
I0
sS'ST'
p1543
I0
ssg53
(dp1544
g1540
I0
sg1541
I0
sg1542
I0
sg1543
I0
ssg62
I0
sg63
I0
sg82
I01
sg65
I0
sg66
I0
sg67
I0
sg68
(S'dummy'
p1545
S'DL'
p1546
g31
g31
tp1547
sg74
I01
sg75
g36
(g37
g38
Ntp1548
Rp1549
(dp1550
g42
I3
sg43
S'^^^'
p1551
sg45
g1538
sbsg80
(dp1552
g1540
I0
sg1541
I13
sg1542
I1
sg1543
I0
ssg56
(dp1553
g1540
I0
sg1541
I0
sg1542
I0
sg1543
I0
ssg83
(dp1554
g1540
I0
sg1541
I0
sg1542
I0
sg1543
I0
ssg85
(dp1555
g1540
I0
sg1541
I13
sg1542
I1
sg1543
I0
ssg87
I0
sg88
I0
sg89
S'Noroel'
p1556
sg91
I6
sg92
I0
sg93
I19
sg94
I25
sg95
S'HTH'
p1557
sg97
(dp1558
S'A'
p1559
I9
sS'ME'
p1560
I10
sS'RP2'
p1561
I6
sS'E'
p1562
I10
sS'P'
p1563
I6
sS'RP1'
p1564
I9
sS'JP'
p1565
I5
sS'RP_tot'
p1566
I9
sS'TO'
p1567
I11
sS'PA'
p1568
I8
sS'M'
p1569
I8
sS'R'
p1570
I9
sS'TB'
p1571
I4
sS'PL'
p1572
I11
sS'TA'
p1573
I5
ssg211
I0
sg212
I0
sg213
I0
sg214
I0
sg130
F9.823529411764707
sg215
I0
sg216
I0
sg217
I0
sg218
(dp1574
S'A'
p1575
I9
sS'ME'
p1576
I10
sS'RP2'
p1577
I6
sS'E'
p1578
I10
sS'P'
p1579
I6
sS'RP1'
p1580
I9
sS'JP'
p1581
I5
sS'RP_tot'
p1582
I9
sS'TO'
p1583
I11
sS'PA'
p1584
I8
sS'M'
p1585
I8
sS'R'
p1586
I9
sS'TB'
p1587
I4
sS'PL'
p1588
I11
sS'TA'
p1589
I5
ssg235
g1558
sg236
I0
sg237
g31
sg239
I0
sg240
I0
sg241
I0
sg242
I2
sg243
I2
sg244
I0
sg245
S'EN'
p1590
sbssg211
I5
sg212
I0
sg213
I0
sg214
I0
sg130
F10.382352941176471
sg215
I0
sg216
I0
sg217
I0
sg218
(dp1591
g834
I9
sg835
I10
sg836
I6
sg837
I10
sg838
I11
sg839
I9
sg840
I5
sg841
I9
sg842
I6
sg843
I8
sg844
I8
sg845
I9
sg846
I4
sg847
I11
sg848
I5
ssg235
(dp1592
g644
I8
sg645
I11
sg646
I6
sg647
I10
sg652
I6
sg649
I9
sg650
I5
sg651
I9
sg648
I12
sg653
I8
sg654
I7
sg655
I10
sg656
I4
sg657
I12
sg658
I5
ssg236
I0
sg346
(dp1593
sg239
I0
sg237
g31
sg240
I0
sg241
I0
sg242
I10
sg243
I2
sg244
I0
sg245
S'EN'
p1594
sbssg89
S'HTH_KH'
p1595
sS'totaux'
p1596
(dp1597
g19
I0
sg20
I0
sg21
I0
ssS'_compo_defaut_fatigue'
p1598
Nsg97
(dp1599
g4
I0
sg5
I0
sg6
I0
sg7
I0
sg8
I0
sg9
I0
sg10
I0
sg11
I0
sg12
I0
sg13
I0
sg14
I0
sg15
I0
sg16
I0
ssS'joueurs'
p1600
(dp1601
S'n12'
p1602
(ijoueur
joueur
p1603
(dp1604
g27
F11.793103448275861
sg28
I0
sg29
F11.793103448275861
sg30
g31
sg32
I0
sg33
F21.17512692714172
sg34
I0
sg35
g36
(g37
g38
Ntp1605
Rp1606
(dp1607
g42
I6
sg43
S'***'
p1608
sg45
g453
sbsg47
(dp1609
g49
I0
sg50
I19
sg51
I0
sg52
I6
ssg53
(dp1610
g49
I0
sg50
I1
sg51
I1
sg52
I0
ssg55
I0
sg56
(dp1611
g58
I0
sg59
I0
sg60
I0
sg61
I0
ssg62
I0
sg63
I0
sg64
F21.17512692714172
sg65
I1
sg66
I0
sg67
I0
sg68
(g69
S'C2'
p1612
S'AR'
p1613
S'AI'
p1614
tp1615
sg74
I00
sg75
g36
(g37
g38
Ntp1616
Rp1617
(dp1618
g42
I6
sg43
S'***'
p1619
sg45
g453
sbsg80
(dp1620
g58
I0
sg59
I2
sg60
I0
sg61
I0
ssg82
I00
sg83
(dp1621
g58
I0
sg59
I0
sg60
I0
sg61
I0
ssg85
(dp1622
g49
I0
sg50
I9
sg51
I0
sg52
I7
ssg87
I0
sg88
I0
sg89
S'Karl Franz'
p1623
sg91
I9
sg92
I0
sg93
I21
sg94
I397
sg95
g96
sg97
(dp1624
g99
I13
sg100
I7
sg101
I12
sg102
I12
sg103
I9
sg104
I10
sg105
I9
sg106
I13
sg107
I11
sg108
I11
sg109
I10
sg110
I8
sg111
I8
sg112
I14
sg113
I4
ssg114
(dp1625
g116
(ijoueur
joueur
p1626
(dp1627
g27
F11.793103448275861
sg28
I0
sg30
g31
sg32
I0
sg34
I0
sg35
g36
(g37
g38
Ntp1628
Rp1629
(dp1630
g42
I6
sg43
S'***'
p1631
sg45
g475
sbsg47
(dp1632
g125
I0
sg126
I19
sg127
I0
sg128
I6
ssg53
(dp1633
g125
I0
sg126
I1
sg127
I1
sg128
I0
ssg62
I0
sg130
F11.793103448275861
sg63
I0
sg65
I5
sg66
I0
sg67
I0
sg68
(g131
S'C2'
p1634
S'AR'
p1635
S'AI'
p1636
tp1637
sg74
I00
sg75
g36
(g37
g38
Ntp1638
Rp1639
(dp1640
g42
I6
sg43
S'***'
p1641
sg45
g475
sbsg80
(dp1642
g141
I0
sg142
I6
sg143
I0
sg144
I1
ssg82
I00
sg83
(dp1643
g141
I0
sg142
I1
sg143
I0
sg144
I0
ssg85
(dp1644
g125
I0
sg126
I7
sg127
I0
sg128
I7
ssg87
I0
sg88
I0
sg89
S'Karl Franz'
p1645
sg91
I9
sg92
I0
sg93
I21
sg94
I397
sg95
g148
sg97
(dp1646
g150
I13
sg151
I7
sg152
I10
sg153
I12
sg154
I9
sg155
I10
sg156
I8
sg157
I13
sg158
I9
sg159
I11
sg160
I10
sg161
I8
sg162
I7
sg163
I14
sg164
I4
ssg114
(dp1647
g166
(ijoueur
joueur
p1648
(dp1649
g28
I0
sg32
I0
sg34
I0
sg35
g36
(g37
g38
Ntp1650
Rp1651
(dp1652
g42
I6
sg43
S'***'
p1653
sg45
S'personnage'
p1654
sbsg47
(dp1655
S'SR'
p1656
I0
sS'CT'
p1657
I12
sS'CR'
p1658
I0
sS'ST'
p1659
I0
ssg53
(dp1660
g1656
I0
sg1657
I0
sg1658
I1
sg1659
I0
ssg62
I0
sg63
I0
sg82
I00
sg65
I2
sg66
I0
sg67
I0
sg68
(S'dummy'
p1661
S'C2'
p1662
S'AR'
p1663
S'AI'
p1664
tp1665
sg74
I00
sg75
g36
(g37
g38
Ntp1666
Rp1667
(dp1668
g42
I6
sg43
S'***'
p1669
sg45
g1654
sbsg80
(dp1670
g1656
I0
sg1657
I1
sg1658
I0
sg1659
I6
ssg56
(dp1671
g1656
I0
sg1657
I12
sg1658
I0
sg1659
I0
ssg83
(dp1672
g1656
I0
sg1657
I0
sg1658
I1
sg1659
I0
ssg85
(dp1673
g1656
I0
sg1657
I1
sg1658
I0
sg1659
I6
ssg87
I0
sg88
I0
sg89
S'Karl Franz'
p1674
sg91
I9
sg92
I0
sg93
I21
sg94
I397
sg95
S'HTH'
p1675
sg97
(dp1676
S'A'
p1677
I12
sS'ME'
p1678
I7
sS'RP2'
p1679
I10
sS'E'
p1680
I12
sS'P'
p1681
I10
sS'RP1'
p1682
I11
sS'JP'
p1683
I8
sS'RP_tot'
p1684
I14
sS'TO'
p1685
I9
sS'PA'
p1686
I11
sS'M'
p1687
I10
sS'R'
p1688
I7
sS'TB'
p1689
I7
sS'PL'
p1690
I14
sS'TA'
p1691
I4
ssg211
I0
sg212
I0
sg213
I0
sg214
I0
sg130
F11.793103448275861
sg215
I0
sg216
I0
sg217
I0
sg218
(dp1692
S'A'
p1693
I12
sS'ME'
p1694
I7
sS'RP2'
p1695
I10
sS'E'
p1696
I12
sS'P'
p1697
I10
sS'RP1'
p1698
I11
sS'JP'
p1699
I8
sS'RP_tot'
p1700
I14
sS'TO'
p1701
I9
sS'PA'
p1702
I11
sS'M'
p1703
I10
sS'R'
p1704
I7
sS'TB'
p1705
I7
sS'PL'
p1706
I14
sS'TA'
p1707
I4
ssg235
g1676
sg236
I0
sg237
g31
sg239
I0
sg240
I0
sg241
I0
sg242
I26
sg243
I5
sg244
I0
sg245
S'EMP'
p1708
sbssg211
I15
sg212
I0
sg213
I0
sg214
I0
sg56
(dp1709
g141
I0
sg142
I7
sg143
I0
sg144
I6
ssg215
I0
sg216
I0
sg217
I1
sg218
(dp1710
g249
I12
sg250
I7
sg251
I10
sg252
I12
sg253
I9
sg254
I11
sg255
I8
sg256
I14
sg257
I10
sg258
I11
sg259
I10
sg260
I7
sg261
I7
sg262
I14
sg263
I4
ssg235
g1646
sg236
I0
sg237
g31
sg239
I0
sg240
I0
sg241
I0
sg242
I26
sg243
I10
sg244
I1
sg245
S'EMP'
p1711
sbsg266
(ijoueur
joueur
p1712
(dp1713
g28
I0
sg32
I0
sg34
I0
sg35
g36
(g37
g38
Ntp1714
Rp1715
(dp1716
g42
I6
sg43
S'***'
p1717
sg45
S'personnage'
p1718
sbsg47
(dp1719
S'SR'
p1720
I0
sS'CT'
p1721
I12
sS'CR'
p1722
I0
sS'ST'
p1723
I0
ssg53
(dp1724
g1720
I0
sg1721
I0
sg1722
I1
sg1723
I0
ssg62
I0
sg63
I0
sg82
I00
sg65
I2
sg66
I0
sg67
I0
sg68
(S'dummy'
p1725
S'C2'
p1726
S'AR'
p1727
S'AI'
p1728
tp1729
sg74
I00
sg75
g36
(g37
g38
Ntp1730
Rp1731
(dp1732
g42
I6
sg43
S'***'
p1733
sg45
g1718
sbsg80
(dp1734
g1720
I0
sg1721
I1
sg1722
I0
sg1723
I6
ssg56
(dp1735
g1720
I0
sg1721
I12
sg1722
I0
sg1723
I0
ssg83
(dp1736
g1720
I0
sg1721
I0
sg1722
I1
sg1723
I0
ssg85
(dp1737
g1720
I0
sg1721
I1
sg1722
I0
sg1723
I6
ssg87
I0
sg88
I0
sg89
S'Karl Franz'
p1738
sg91
I9
sg92
I0
sg93
I21
sg94
I397
sg95
S'HTH'
p1739
sg97
(dp1740
S'A'
p1741
I12
sS'ME'
p1742
I7
sS'RP2'
p1743
I10
sS'E'
p1744
I12
sS'P'
p1745
I10
sS'RP1'
p1746
I11
sS'JP'
p1747
I8
sS'RP_tot'
p1748
I14
sS'TO'
p1749
I9
sS'PA'
p1750
I11
sS'M'
p1751
I10
sS'R'
p1752
I7
sS'TB'
p1753
I7
sS'PL'
p1754
I14
sS'TA'
p1755
I4
ssg211
I0
sg212
I0
sg213
I0
sg214
I0
sg130
F11.793103448275861
sg215
I0
sg216
I0
sg217
I0
sg218
(dp1756
S'A'
p1757
I12
sS'ME'
p1758
I7
sS'RP2'
p1759
I10
sS'E'
p1760
I12
sS'P'
p1761
I10
sS'RP1'
p1762
I11
sS'JP'
p1763
I8
sS'RP_tot'
p1764
I14
sS'TO'
p1765
I9
sS'PA'
p1766
I11
sS'M'
p1767
I10
sS'R'
p1768
I7
sS'TB'
p1769
I7
sS'PL'
p1770
I14
sS'TA'
p1771
I4
ssg235
g1740
sg236
I0
sg237
g31
sg239
I0
sg240
I0
sg241
I0
sg242
I26
sg243
I5
sg244
I0
sg245
S'EMP'
p1772
sbssg211
I6
sg212
I0
sg213
I0
sg214
I0
sg130
F11.89655172413793
sg215
I0
sg216
I0
sg217
I1
sg218
(dp1773
g330
I12
sg331
I7
sg332
I10
sg333
I12
sg334
I9
sg335
I11
sg336
I8
sg337
I14
sg338
I10
sg339
I11
sg340
I10
sg341
I7
sg342
I7
sg343
I14
sg344
I4
ssg235
(dp1774
g99
I13
sg100
I7
sg101
I12
sg102
I12
sg107
I11
sg104
I10
sg105
I9
sg106
I13
sg103
I9
sg108
I11
sg109
I10
sg110
I8
sg111
I8
sg112
I14
sg113
I4
ssg236
I0
sg346
(dp1775
sg239
I0
sg237
g31
sg240
I0
sg241
I0
sg242
I26
sg243
I11
sg244
I0
sg245
S'EMP'
p1776
sbsS'n13'
p1777
(ijoueur
joueur
p1778
(dp1779
g27
F12.2
sg28
I0
sg29
F12.3
sg30
g31
sg32
I0
sg33
F21.17512692714172
sg34
I0
sg35
g36
(g37
g38
Ntp1780
Rp1781
(dp1782
g42
I5
sg43
S'xx'
p1783
sg45
S'seigneur'
p1784
sbsg47
(dp1785
S'SR'
p1786
I0
sS'ST'
p1787
I0
sS'CR'
p1788
I0
sS'CT'
p1789
I0
ssg53
(dp1790
g1786
I0
sg1787
I0
sg1788
I0
sg1789
I15
ssg55
I0
sg56
(dp1791
g58
I0
sg59
I0
sg60
I0
sg61
I0
ssg62
I0
sg63
I0
sS'transformations'
p1792
I0
sS'penalites'
p1793
I0
sg65
I0
sg66
I0
sg67
I0
sg68
(S'dummy'
p1794
S'C1'
p1795
S'DO'
p1796
S'DM'
p1797
tp1798
sg74
I00
sg75
g36
(g37
g38
Ntp1799
Rp1800
(dp1801
g42
I5
sg43
S'xx'
p1802
sg45
g1784
sbsg80
(dp1803
g58
I0
sg59
I2
sg60
I0
sg61
I0
ssg82
I00
sg83
(dp1804
g58
I0
sg59
I0
sg60
I0
sg61
I0
ssg85
(dp1805
g1786
I0
sg1787
I13
sg1788
I0
sg1789
I14
ssg87
I26
sg88
I0
sg89
S'Von Dokhoff'
p1806
sg91
I7
sg92
I15
sg93
I19
sg94
I562
sg95
g96
sg97
(dp1807
S'A'
p1808
I13
sS'ME'
p1809
I8
sS'RP2'
p1810
I14
sS'E'
p1811
I12
sS'P'
p1812
I10
sS'RP1'
p1813
I7
sS'JP'
p1814
I6
sS'RP_tot'
p1815
I14
sS'TO'
p1816
I9
sS'PA'
p1817
I15
sS'M'
p1818
I9
sS'R'
p1819
I5
sS'TB'
p1820
I9
sS'PL'
p1821
I13
sS'TA'
p1822
I5
ssg114
(dp1823
g116
(ijoueur
joueur
p1824
(dp1825
g27
F12.2
sg28
I0
sg30
g31
sg32
I0
sg34
I0
sg35
g36
(g37
g38
Ntp1826
Rp1827
(dp1828
g42
I5
sg43
S'xx'
p1829
sg45
S'seigneur'
p1830
sbsg47
(dp1831
S'SR'
p1832
I0
sS'ST'
p1833
I0
sS'CR'
p1834
I0
sS'CT'
p1835
I0
ssg53
(dp1836
g1832
I0
sg1833
I0
sg1834
I0
sg1835
I15
ssg62
I0
sg130
F12.3
sg63
I0
sg1792
I0
sg1793
I0
sg65
I5
sg66
I2
sg67
I15
sg68
(S'dummy'
p1837
S'C1'
p1838
S'DO'
p1839
S'DM'
p1840
tp1841
sg74
I00
sg75
g36
(g37
g38
Ntp1842
Rp1843
(dp1844
g42
I5
sg43
S'xx'
p1845
sg45
g1830
sbsg80
(dp1846
g141
I0
sg142
I12
sg143
I0
sg144
I6
ssg82
I00
sg83
(dp1847
g141
I0
sg142
I1
sg143
I0
sg144
I0
ssg85
(dp1848
g1832
I0
sg1833
I13
sg1834
I0
sg1835
I12
ssg87
I26
sg88
I22
sg89
S'Von Dokhoff'
p1849
sg91
I7
sg92
I15
sg93
I19
sg94
I562
sg95
g148
sg97
(dp1850
S'A'
p1851
I14
sS'ME'
p1852
I8
sS'RP2'
p1853
I15
sS'E'
p1854
I12
sS'TO'
p1855
I9
sS'RP1'
p1856
I7
sS'JP'
p1857
I8
sS'RP_tot'
p1858
I15
sS'P'
p1859
I10
sS'PA'
p1860
I15
sS'M'
p1861
I9
sS'R'
p1862
I6
sS'TB'
p1863
I10
sS'PL'
p1864
I14
sS'TA'
p1865
I5
ssg114
(dp1866
g166
(ijoueur
joueur
p1867
(dp1868
g28
I0
sg32
I0
sg34
I0
sg35
g36
(g37
g38
Ntp1869
Rp1870
(dp1871
g42
I5
sg43
S'xx'
p1872
sg45
S'seigneur'
p1873
sbsg47
(dp1874
S'SR'
p1875
I0
sS'ST'
p1876
I0
sS'CR'
p1877
I0
sS'CT'
p1878
I0
ssg53
(dp1879
g1875
I0
sg1876
I0
sg1877
I0
sg1878
I14
ssg62
I0
sg130
F12.2
sg63
I0
sg1792
I0
sg1793
I0
sg65
I0
sg66
I0
sg67
I0
sg68
(S'dummy'
p1880
S'C1'
p1881
S'DO'
p1882
S'DM'
p1883
tp1884
sg74
I01
sg75
g36
(g37
g38
Ntp1885
Rp1886
(dp1887
g42
I5
sg43
S'xx'
p1888
sg45
g1873
sbsg80
(dp1889
g1875
I0
sg1876
I6
sg1877
I0
sg1878
I0
ssg82
I01
sg83
(dp1890
g1875
I0
sg1876
I0
sg1877
I0
sg1878
I14
ssg85
(dp1891
g1875
I0
sg1876
I6
sg1877
I0
sg1878
I0
ssg87
I4
sg88
I4
sg89
S'Von Dokhoff'
p1892
sg91
I7
sg92
I0
sg93
I19
sg94
I500
sg95
S'QNL'
p1893
sg97
(dp1894
S'A'
p1895
I14
sS'ME'
p1896
I8
sS'RP2'
p1897
I14
sS'E'
p1898
I14
sS'TO'
p1899
I9
sS'RP1'
p1900
I7
sS'JP'
p1901
I8
sS'RP_tot'
p1902
I14
sS'P'
p1903
I10
sS'PA'
p1904
I15
sS'M'
p1905
I10
sS'R'
p1906
I6
sS'TB'
p1907
I9
sS'PL'
p1908
I12
sS'TA'
p1909
I5
ssg211
I0
sg212
I0
sg213
I1
sg214
I0
sg56
(dp1910
g1875
I0
sg1876
I0
sg1877
I0
sg1878
I0
ssg215
I0
sS'drops'
p1911
I0
sg216
I1
sg217
I0
sg218
(dp1912
S'A'
p1913
I14
sS'ME'
p1914
I8
sS'RP2'
p1915
I14
sS'E'
p1916
I14
sS'TO'
p1917
I9
sS'RP1'
p1918
I7
sS'JP'
p1919
I8
sS'RP_tot'
p1920
I14
sS'P'
p1921
I10
sS'PA'
p1922
I15
sS'M'
p1923
I10
sS'R'
p1924
I6
sS'TB'
p1925
I9
sS'PL'
p1926
I12
sS'TA'
p1927
I5
ssg235
g1894
sg236
I0
sg237
g31
sg239
I0
sg240
I0
sg241
I0
sg242
I43
sg243
I7
sg244
I0
sg245
S'CV'
p1928
sbssg211
I14
sg212
I0
sg213
I1
sg214
I0
sg56
(dp1929
g141
I0
sg142
I0
sg143
I0
sg144
I0
ssg215
I2
sg1911
I0
sg216
I0
sg217
I0
sg218
(dp1930
S'A'
p1931
I14
sS'ME'
p1932
I8
sS'RP2'
p1933
I14
sS'E'
p1934
I14
sS'P'
p1935
I10
sS'RP1'
p1936
I7
sS'JP'
p1937
I8
sS'RP_tot'
p1938
I14
sS'TO'
p1939
I9
sS'PA'
p1940
I15
sS'M'
p1941
I10
sS'R'
p1942
I6
sS'TB'
p1943
I9
sS'PL'
p1944
I12
sS'TA'
p1945
I5
ssg235
g1850
sg236
I0
sg237
S'QNL 12'
p1946
sg239
I2
sg240
I0
sg241
I2
sg242
I89
sg243
I12
sg244
I0
sg245
S'CV'
p1947
sbsg266
(ijoueur
joueur
p1948
(dp1949
g28
I0
sg32
I0
sg34
I0
sg35
g36
(g37
g38
Ntp1950
Rp1951
(dp1952
g42
I5
sg43
S'xx'
p1953
sg45
S'seigneur'
p1954
sbsg47
(dp1955
S'SR'
p1956
I0
sS'ST'
p1957
I0
sS'CR'
p1958
I0
sS'CT'
p1959
I0
ssg53
(dp1960
g1956
I0
sg1957
I0
sg1958
I0
sg1959
I14
ssg62
I0
sg130
F12.2
sg63
I0
sg1792
I0
sg1793
I0
sg65
I0
sg66
I0
sg67
I0
sg68
(S'dummy'
p1961
S'C1'
p1962
S'DO'
p1963
S'DM'
p1964
tp1965
sg74
I01
sg75
g36
(g37
g38
Ntp1966
Rp1967
(dp1968
g42
I5
sg43
S'xx'
p1969
sg45
g1954
sbsg80
(dp1970
g1956
I0
sg1957
I6
sg1958
I0
sg1959
I0
ssg82
I01
sg83
(dp1971
g1956
I0
sg1957
I0
sg1958
I0
sg1959
I14
ssg85
(dp1972
g1956
I0
sg1957
I6
sg1958
I0
sg1959
I0
ssg87
I4
sg88
I4
sg89
S'Von Dokhoff'
p1973
sg91
I7
sg92
I0
sg93
I19
sg94
I500
sg95
S'QNL'
p1974
sg97
(dp1975
S'A'
p1976
I14
sS'ME'
p1977
I8
sS'RP2'
p1978
I14
sS'E'
p1979
I14
sS'TO'
p1980
I9
sS'RP1'
p1981
I7
sS'JP'
p1982
I8
sS'RP_tot'
p1983
I14
sS'P'
p1984
I10
sS'PA'
p1985
I15
sS'M'
p1986
I10
sS'R'
p1987
I6
sS'TB'
p1988
I9
sS'PL'
p1989
I12
sS'TA'
p1990
I5
ssg211
I0
sg212
I0
sg213
I1
sg214
I0
sg56
(dp1991
g1956
I0
sg1957
I0
sg1958
I0
sg1959
I0
ssg215
I0
sg1911
I0
sg216
I1
sg217
I0
sg218
(dp1992
S'A'
p1993
I14
sS'ME'
p1994
I8
sS'RP2'
p1995
I14
sS'E'
p1996
I14
sS'TO'
p1997
I9
sS'RP1'
p1998
I7
sS'JP'
p1999
I8
sS'RP_tot'
p2000
I14
sS'P'
p2001
I10
sS'PA'
p2002
I15
sS'M'
p2003
I10
sS'R'
p2004
I6
sS'TB'
p2005
I9
sS'PL'
p2006
I12
sS'TA'
p2007
I5
ssg235
g1975
sg236
I0
sg237
g31
sg239
I0
sg240
I0
sg241
I0
sg242
I43
sg243
I7
sg244
I0
sg245
S'CV'
p2008
sbssg211
I8
sg212
I0
sg213
I1
sg214
I0
sg130
F12.033333333333333
sg215
I2
sg64
F21.17512692714172
sg1911
I0
sg216
I0
sg217
I1
sg218
(dp2009
S'A'
p2010
I14
sS'ME'
p2011
I8
sS'RP2'
p2012
I14
sS'E'
p2013
I14
sS'P'
p2014
I10
sS'RP1'
p2015
I7
sS'JP'
p2016
I8
sS'RP_tot'
p2017
I14
sS'TO'
p2018
I9
sS'PA'
p2019
I15
sS'M'
p2020
I10
sS'R'
p2021
I6
sS'TB'
p2022
I9
sS'PL'
p2023
I12
sS'TA'
p2024
I5
ssg235
(dp2025
g1808
I14
sg1809
I8
sg1810
I14
sg1811
I12
sg1816
I9
sg1813
I7
sg1814
I6
sg1815
I14
sg1812
I10
sg1817
I15
sg1818
I9
sg1819
I6
sg1820
I9
sg1821
I14
sg1822
I5
ssg236
I0
sg346
(dp2026
sg239
I2
sg237
S'QNL 12'
p2027
sg240
I0
sg241
I0
sg242
I89
sg243
I12
sg244
I1
sg245
S'CV'
p2028
sbsS'n10'
p2029
g447
sS'n11'
p2030
(ijoueur
joueur
p2031
(dp2032
g27
F9.129032258064516
sg28
I0
sg29
F9.290322580645162
sg30
g31
sg32
I0
sg33
F21.17512692714172
sg34
I0
sg35
g36
(g37
g38
Ntp2033
Rp2034
(dp2035
g42
I5
sg43
S'**'
p2036
sg45
g46
sbsg47
(dp2037
g49
I0
sg50
I0
sg51
I0
sg52
I0
ssg53
(dp2038
g49
I0
sg50
I0
sg51
I0
sg52
I0
ssg55
I0
sg56
(dp2039
g58
I0
sg59
I0
sg60
I0
sg61
I0
ssg62
I0
sg63
I0
sg64
F21.17512692714172
sg65
I2
sg66
I0
sg67
I0
sg68
(g69
S'AI'
p2040
g31
g31
tp2041
sg74
I00
sg75
g36
(g37
g38
Ntp2042
Rp2043
(dp2044
g42
I4
sg43
g370
sg45
g371
sbsg80
(dp2045
g58
I0
sg59
I2
sg60
I0
sg61
I0
ssg82
I00
sg83
(dp2046
g58
I0
sg59
I0
sg60
I0
sg61
I0
ssg85
(dp2047
g49
I0
sg50
I3
sg51
I2
sg52
I0
ssg87
I0
sg88
I0
sg89
S'Harthaeth'
p2048
sg91
I11
sg92
I0
sg93
I25
sg94
I66
sg95
g96
sg97
(dp2049
g99
I13
sg100
I6
sg101
I8
sg102
I9
sg103
I9
sg104
I9
sg105
I8
sg106
I10
sg107
I10
sg108
I11
sg109
I10
sg110
I6
sg111
I9
sg112
I9
sg113
I6
ssg114
(dp2050
g116
(ijoueur
joueur
p2051
(dp2052
g27
F9.129032258064516
sg28
I0
sg30
g31
sg32
I0
sg34
I0
sg35
g36
(g37
g38
Ntp2053
Rp2054
(dp2055
g42
I5
sg43
S'**'
p2056
sg45
g123
sbsg47
(dp2057
g125
I0
sg126
I0
sg127
I0
sg128
I0
ssg53
(dp2058
g125
I0
sg126
I0
sg127
I0
sg128
I0
ssg62
I0
sg130
F9.290322580645162
sg63
I0
sg65
I0
sg66
I0
sg67
I0
sg68
(g131
S'AI'
p2059
g31
g31
tp2060
sg74
I00
sg75
g36
(g37
g38
Ntp2061
Rp2062
(dp2063
g42
I3
sg43
S'^^^'
p2064
sg45
S'rare'
p2065
sbsg80
(dp2066
g141
I0
sg142
I0
sg143
I1
sg144
I0
ssg82
I01
sg83
(dp2067
g141
I0
sg142
I0
sg143
I0
sg144
I0
ssg85
(dp2068
g125
I0
sg126
I1
sg127
I2
sg128
I0
ssg87
I0
sg88
I0
sg89
S'Harthaeth'
p2069
sg91
I11
sg92
I0
sg93
I25
sg94
I31
sg95
g148
sg97
(dp2070
g150
I12
sg151
I5
sg152
I6
sg153
I9
sg154
I8
sg155
I8
sg156
I6
sg157
I8
sg158
I8
sg159
I10
sg160
I10
sg161
I6
sg162
I6
sg163
I8
sg164
I5
ssg114
(dp2071
g166
(ijoueur
joueur
p2072
(dp2073
g28
I0
sg32
I0
sg34
I0
sg35
g36
(g37
g38
Ntp2074
Rp2075
(dp2076
g42
I5
sg43
S'**'
p2077
sg45
S'seigneur'
p2078
sbsg47
(dp2079
S'SR'
p2080
I0
sS'CT'
p2081
I0
sS'CR'
p2082
I0
sS'ST'
p2083
I0
ssg53
(dp2084
g2080
I0
sg2081
I0
sg2082
I0
sg2083
I0
ssg62
I0
sg63
I0
sg82
I01
sg65
I0
sg66
I0
sg67
I0
sg68
(S'dummy'
p2085
S'AI'
p2086
g31
g31
tp2087
sg74
I00
sg75
g36
(g37
g38
Ntp2088
Rp2089
(dp2090
g42
I1
sg43
S'^'
p2091
sg45
S'base'
p2092
sbsg80
(dp2093
g2080
I0
sg2081
I1
sg2082
I1
sg2083
I0
ssg56
(dp2094
g2080
I0
sg2081
I0
sg2082
I0
sg2083
I0
ssg83
(dp2095
g2080
I0
sg2081
I0
sg2082
I0
sg2083
I0
ssg85
(dp2096
g2080
I0
sg2081
I1
sg2082
I1
sg2083
I0
ssg87
I0
sg88
I0
sg89
S'Harthaeth'
p2097
sg91
I11
sg92
I0
sg93
I25
sg94
I17
sg95
S'HTH'
p2098
sg97
(dp2099
S'A'
p2100
I12
sS'ME'
p2101
I4
sS'RP2'
p2102
I7
sS'E'
p2103
I8
sS'P'
p2104
I8
sS'RP1'
p2105
I9
sS'JP'
p2106
I7
sS'RP_tot'
p2107
I9
sS'TO'
p2108
I7
sS'PA'
p2109
I9
sS'M'
p2110
I9
sS'R'
p2111
I6
sS'TB'
p2112
I6
sS'PL'
p2113
I8
sS'TA'
p2114
I5
ssg211
I0
sg212
I0
sg213
I0
sg214
I0
sg130
F9.129032258064516
sg215
I0
sg216
I0
sg217
I0
sg218
(dp2115
S'A'
p2116
I12
sS'ME'
p2117
I4
sS'RP2'
p2118
I7
sS'E'
p2119
I8
sS'P'
p2120
I8
sS'RP1'
p2121
I9
sS'JP'
p2122
I7
sS'RP_tot'
p2123
I9
sS'TO'
p2124
I7
sS'PA'
p2125
I9
sS'M'
p2126
I9
sS'R'
p2127
I6
sS'TB'
p2128
I6
sS'PL'
p2129
I8
sS'TA'
p2130
I5
ssg235
g2099
sg236
I0
sg237
g31
sg239
I0
sg240
I0
sg241
I0
sg242
I2
sg243
I0
sg244
I0
sg245
S'HE'
p2131
sbssg211
I0
sg212
I0
sg213
I0
sg214
I0
sg56
(dp2132
g141
I0
sg142
I0
sg143
I0
sg144
I0
ssg215
I0
sg216
I0
sg217
I0
sg218
(dp2133
g249
I12
sg250
I4
sg251
I7
sg252
I8
sg253
I7
sg254
I9
sg255
I7
sg256
I9
sg257
I8
sg258
I9
sg259
I9
sg260
I6
sg261
I6
sg262
I8
sg263
I5
ssg235
g2070
sg236
I0
sg237
g31
sg239
I0
sg240
I0
sg241
I0
sg242
I3
sg243
I0
sg244
I0
sg245
S'HE'
p2134
sbsg266
(ijoueur
joueur
p2135
(dp2136
g28
I0
sg32
I0
sg34
I0
sg35
g36
(g37
g38
Ntp2137
Rp2138
(dp2139
g42
I5
sg43
S'**'
p2140
sg45
S'seigneur'
p2141
sbsg47
(dp2142
S'SR'
p2143
I0
sS'CT'
p2144
I0
sS'CR'
p2145
I0
sS'ST'
p2146
I0
ssg53
(dp2147
g2143
I0
sg2144
I0
sg2145
I0
sg2146
I0
ssg62
I0
sg63
I0
sg82
I01
sg65
I0
sg66
I0
sg67
I0
sg68
(S'dummy'
p2148
S'AI'
p2149
g31
g31
tp2150
sg74
I00
sg75
g36
(g37
g38
Ntp2151
Rp2152
(dp2153
g42
I1
sg43
S'^'
p2154
sg45
S'base'
p2155
sbsg80
(dp2156
g2143
I0
sg2144
I1
sg2145
I1
sg2146
I0
ssg56
(dp2157
g2143
I0
sg2144
I0
sg2145
I0
sg2146
I0
ssg83
(dp2158
g2143
I0
sg2144
I0
sg2145
I0
sg2146
I0
ssg85
(dp2159
g2143
I0
sg2144
I1
sg2145
I1
sg2146
I0
ssg87
I0
sg88
I0
sg89
S'Harthaeth'
p2160
sg91
I11
sg92
I0
sg93
I25
sg94
I17
sg95
S'HTH'
p2161
sg97
(dp2162
S'A'
p2163
I12
sS'ME'
p2164
I4
sS'RP2'
p2165
I7
sS'E'
p2166
I8
sS'P'
p2167
I8
sS'RP1'
p2168
I9
sS'JP'
p2169
I7
sS'RP_tot'
p2170
I9
sS'TO'
p2171
I7
sS'PA'
p2172
I9
sS'M'
p2173
I9
sS'R'
p2174
I6
sS'TB'
p2175
I6
sS'PL'
p2176
I8
sS'TA'
p2177
I5
ssg211
I0
sg212
I0
sg213
I0
sg214
I0
sg130
F9.129032258064516
sg215
I0
sg216
I0
sg217
I0
sg218
(dp2178
S'A'
p2179
I12
sS'ME'
p2180
I4
sS'RP2'
p2181
I7
sS'E'
p2182
I8
sS'P'
p2183
I8
sS'RP1'
p2184
I9
sS'JP'
p2185
I7
sS'RP_tot'
p2186
I9
sS'TO'
p2187
I7
sS'PA'
p2188
I9
sS'M'
p2189
I9
sS'R'
p2190
I6
sS'TB'
p2191
I6
sS'PL'
p2192
I8
sS'TA'
p2193
I5
ssg235
g2162
sg236
I0
sg237
g31
sg239
I0
sg240
I0
sg241
I0
sg242
I2
sg243
I0
sg244
I0
sg245
S'HE'
p2194
sbssg211
I6
sg212
I0
sg213
I1
sg214
I0
sg130
F10.225806451612904
sg215
I0
sg216
I1
sg217
I0
sg218
(dp2195
g330
I12
sg331
I4
sg332
I7
sg333
I8
sg334
I7
sg335
I9
sg336
I7
sg337
I9
sg338
I8
sg339
I9
sg340
I9
sg341
I6
sg342
I6
sg343
I8
sg344
I5
ssg235
(dp2196
g99
I13
sg100
I6
sg101
I8
sg102
I9
sg107
I10
sg104
I9
sg105
I8
sg106
I10
sg103
I9
sg108
I11
sg109
I10
sg110
I6
sg111
I9
sg112
I9
sg113
I6
ssg236
I0
sg346
(dp2197
sg239
I0
sg237
g31
sg240
I0
sg241
I0
sg242
I6
sg243
I2
sg244
I0
sg245
S'HE'
p2198
sbsS'n16'
p2199
(ijoueur
joueur
p2200
(dp2201
g27
F8.655172413793103
sg28
I0
sg29
F8.586206896551724
sg30
g31
sg32
I0
sg33
F21.17512692714172
sg34
I0
sg35
g36
(g37
g38
Ntp2202
Rp2203
(dp2204
g42
I2
sg43
S'<<'
p2205
sg45
S'special'
p2206
sbsg47
(dp2207
S'SR'
p2208
I0
sS'ST'
p2209
I0
sS'CR'
p2210
I7
sS'CT'
p2211
I1
ssg53
(dp2212
g2208
I0
sg2209
I0
sg2210
I0
sg2211
I0
ssg55
I0
sg56
(dp2213
g58
I0
sg59
I0
sg60
I0
sg61
I0
ssg237
S'AL 12'
p2214
sg63
I0
sg64
F21.17512692714172
sg65
I0
sg66
I0
sg67
I0
sg68
(S'dummy'
p2215
S'TA'
p2216
S'PI'
p2217
g31
tp2218
sg74
I00
sg75
g36
(g37
g38
Ntp2219
Rp2220
(dp2221
g42
I2
sg43
S'<<'
p2222
sg45
g2206
sbsg80
(dp2223
g58
I0
sg59
I0
sg60
I2
sg61
I0
ssg82
I00
sg83
(dp2224
g58
I0
sg59
I0
sg60
I0
sg61
I0
ssg85
(dp2225
g2208
I0
sg2209
I0
sg2210
I19
sg2211
I1
ssg87
I0
sg88
I0
sg89
S'Hegard'
p2226
sg91
I5
sg92
I0
sg93
I16
sg94
I60
sg95
g96
sg97
(dp2227
S'A'
p2228
I6
sS'ME'
p2229
I11
sS'RP2'
p2230
I5
sS'E'
p2231
I7
sS'P'
p2232
I3
sS'RP1'
p2233
I9
sS'JP'
p2234
I2
sS'RP_tot'
p2235
I9
sS'TO'
p2236
I5
sS'PA'
p2237
I6
sS'M'
p2238
I8
sS'R'
p2239
I11
sS'TB'
p2240
I3
sS'PL'
p2241
I7
sS'TA'
p2242
I9
ssg235
(dp2243
g2228
I6
sg2229
I11
sg2230
I5
sg2231
I7
sg2236
I5
sg2233
I9
sg2234
I2
sg2235
I9
sg2232
I3
sg2237
I6
sg2238
I8
sg2239
I11
sg2240
I3
sg2241
I7
sg2242
I9
ssg114
(dp2244
g116
(ijoueur
joueur
p2245
(dp2246
g27
F8.655172413793103
sg28
I0
sg30
g31
sg32
I0
sg34
I0
sg35
g36
(g37
g38
Ntp2247
Rp2248
(dp2249
g42
I2
sg43
S'<<'
p2250
sg45
S'special'
p2251
sbsg47
(dp2252
S'SR'
p2253
I0
sS'ST'
p2254
I0
sS'CR'
p2255
I7
sS'CT'
p2256
I1
ssg53
(dp2257
g2253
I0
sg2254
I0
sg2255
I0
sg2256
I0
ssg237
S'AL 12'
p2258
sg130
F8.586206896551724
sg63
I0
sg65
I0
sg66
I0
sg67
I0
sg68
(S'dummy'
p2259
S'TA'
p2260
S'PI'
p2261
g31
tp2262
sg74
I00
sg75
g36
(g37
g38
Ntp2263
Rp2264
(dp2265
g42
I2
sg43
S'<<'
p2266
sg45
g2251
sbsg80
(dp2267
g141
I0
sg142
I0
sg143
I4
sg144
I0
ssg82
I00
sg83
(dp2268
g141
I0
sg142
I0
sg143
I0
sg144
I0
ssg85
(dp2269
g2253
I0
sg2254
I0
sg2255
I17
sg2256
I1
ssg87
I0
sg88
I0
sg89
S'Hegard'
p2270
sg91
I5
sg92
I0
sg93
I16
sg94
I60
sg95
g148
sg97
(dp2271
S'A'
p2272
I6
sS'ME'
p2273
I11
sS'RP2'
p2274
I5
sS'E'
p2275
I7
sS'TO'
p2276
I5
sS'RP1'
p2277
I8
sS'JP'
p2278
I2
sS'RP_tot'
p2279
I8
sS'P'
p2280
I3
sS'PA'
p2281
I6
sS'M'
p2282
I8
sS'R'
p2283
I11
sS'TB'
p2284
I3
sS'PL'
p2285
I7
sS'TA'
p2286
I9
ssg235
g2271
sg114
(dp2287
g166
(ijoueur
joueur
p2288
(dp2289
g28
I0
sg32
I0
sg34
I0
sg35
g36
(g37
g38
Ntp2290
Rp2291
(dp2292
g42
I2
sg43
S'<<'
p2293
sg45
S'special'
p2294
sbsg47
(dp2295
S'SR'
p2296
I0
sS'ST'
p2297
I0
sS'CR'
p2298
I3
sS'CT'
p2299
I0
ssg53
(dp2300
g2296
I0
sg2297
I0
sg2298
I0
sg2299
I0
ssg237
g31
sg63
I0
sg82
I00
sg65
I0
sg66
I0
sg67
I0
sg68
(S'dummy'
p2301
S'TA'
p2302
S'PI'
p2303
g31
tp2304
sg74
I01
sg75
g36
(g37
g38
Ntp2305
Rp2306
(dp2307
g42
I2
sg43
S'<<'
p2308
sg45
g2294
sbsg80
(dp2309
g2296
I0
sg2297
I0
sg2298
I13
sg2299
I1
ssg56
(dp2310
g2296
I0
sg2297
I0
sg2298
I3
sg2299
I0
ssg83
(dp2311
g2296
I0
sg2297
I0
sg2298
I0
sg2299
I0
ssg85
(dp2312
g2296
I0
sg2297
I0
sg2298
I13
sg2299
I1
ssg87
I0
sg88
I0
sg89
S'Hegard'
p2313
sg91
I5
sg92
I0
sg93
I16
sg94
I28
sg95
S'AL'
p2314
sg97
(dp2315
S'A'
p2316
I6
sS'ME'
p2317
I11
sS'RP2'
p2318
I6
sS'E'
p2319
I7
sS'TO'
p2320
I5
sS'RP1'
p2321
I8
sS'JP'
p2322
I2
sS'RP_tot'
p2323
I8
sS'P'
p2324
I3
sS'PA'
p2325
I6
sS'M'
p2326
I8
sS'R'
p2327
I10
sS'TB'
p2328
I3
sS'PL'
p2329
I8
sS'TA'
p2330
I10
ssg235
g2315
sg211
I0
sg212
I0
sg213
I0
sg214
I0
sg130
F8.655172413793103
sg215
I0
sS'pas_meme_type'
p2331
(lp2332
S'EV'
p2333
asg216
I0
sg217
I1
sg218
(dp2334
S'A'
p2335
I6
sS'ME'
p2336
I11
sS'RP2'
p2337
I6
sS'E'
p2338
I7
sS'TO'
p2339
I5
sS'RP1'
p2340
I8
sS'JP'
p2341
I2
sS'RP_tot'
p2342
I8
sS'P'
p2343
I3
sS'PA'
p2344
I6
sS'M'
p2345
I8
sS'R'
p2346
I10
sS'TB'
p2347
I3
sS'PL'
p2348
I8
sS'TA'
p2349
I10
ssS'attribute_error'
p2350
(lp2351
sg236
I0
sg239
I0
sg240
I0
sg241
I0
sg242
I3
sg243
I0
sg244
I1
sg245
S'B'
p2352
sbssg211
I0
sg212
I0
sg213
I0
sg214
I0
sg56
(dp2353
g141
I0
sg142
I1
sg143
I4
sg144
I0
ssg215
I0
sg2331
(lp2354
S'EV'
p2355
asg216
I0
sg217
I1
sg218
(dp2356
S'A'
p2357
I6
sS'ME'
p2358
I11
sS'RP2'
p2359
I6
sS'E'
p2360
I7
sS'P'
p2361
I3
sS'RP1'
p2362
I8
sS'JP'
p2363
I2
sS'RP_tot'
p2364
I8
sS'TO'
p2365
I5
sS'PA'
p2366
I6
sS'M'
p2367
I8
sS'R'
p2368
I10
sS'TB'
p2369
I3
sS'PL'
p2370
I8
sS'TA'
p2371
I10
ssg2350
(lp2372
sg236
I0
sg239
I0
sg240
I0
sg241
I0
sg242
I4
sg243
I0
sg244
I0
sg245
S'B'
p2373
sbsg266
(ijoueur
joueur
p2374
(dp2375
g28
I0
sg32
I0
sg34
I0
sg35
g36
(g37
g38
Ntp2376
Rp2377
(dp2378
g42
I2
sg43
S'<<'
p2379
sg45
S'special'
p2380
sbsg47
(dp2381
S'SR'
p2382
I0
sS'ST'
p2383
I0
sS'CR'
p2384
I3
sS'CT'
p2385
I0
ssg53
(dp2386
g2382
I0
sg2383
I0
sg2384
I0
sg2385
I0
ssg237
g31
sg63
I0
sg82
I00
sg65
I0
sg66
I0
sg67
I0
sg68
(S'dummy'
p2387
S'TA'
p2388
S'PI'
p2389
g31
tp2390
sg74
I01
sg75
g36
(g37
g38
Ntp2391
Rp2392
(dp2393
g42
I2
sg43
S'<<'
p2394
sg45
g2380
sbsg80
(dp2395
g2382
I0
sg2383
I0
sg2384
I13
sg2385
I1
ssg56
(dp2396
g2382
I0
sg2383
I0
sg2384
I3
sg2385
I0
ssg83
(dp2397
g2382
I0
sg2383
I0
sg2384
I0
sg2385
I0
ssg85
(dp2398
g2382
I0
sg2383
I0
sg2384
I13
sg2385
I1
ssg87
I0
sg88
I0
sg89
S'Hegard'
p2399
sg91
I5
sg92
I0
sg93
I16
sg94
I28
sg95
S'AL'
p2400
sg97
(dp2401
S'A'
p2402
I6
sS'ME'
p2403
I11
sS'RP2'
p2404
I6
sS'E'
p2405
I7
sS'TO'
p2406
I5
sS'RP1'
p2407
I8
sS'JP'
p2408
I2
sS'RP_tot'
p2409
I8
sS'P'
p2410
I3
sS'PA'
p2411
I6
sS'M'
p2412
I8
sS'R'
p2413
I10
sS'TB'
p2414
I3
sS'PL'
p2415
I8
sS'TA'
p2416
I10
ssg235
g2401
sg211
I0
sg212
I0
sg213
I0
sg214
I0
sg130
F8.655172413793103
sg215
I0
sg2331
(lp2417
S'EV'
p2418
asg216
I0
sg217
I1
sg218
(dp2419
S'A'
p2420
I6
sS'ME'
p2421
I11
sS'RP2'
p2422
I6
sS'E'
p2423
I7
sS'TO'
p2424
I5
sS'RP1'
p2425
I8
sS'JP'
p2426
I2
sS'RP_tot'
p2427
I8
sS'P'
p2428
I3
sS'PA'
p2429
I6
sS'M'
p2430
I8
sS'R'
p2431
I10
sS'TB'
p2432
I3
sS'PL'
p2433
I8
sS'TA'
p2434
I10
ssg2350
(lp2435
sg236
I0
sg239
I0
sg240
I0
sg241
I0
sg242
I3
sg243
I0
sg244
I1
sg245
S'B'
p2436
sbssg211
I4
sg212
I0
sg213
I0
sg214
I0
sg130
F8.724137931034482
sg215
I0
sg2331
(lp2437
S'EV'
p2438
asg216
I0
sg217
I1
sg218
(dp2439
S'A'
p2440
I6
sS'ME'
p2441
I11
sS'RP2'
p2442
I6
sS'E'
p2443
I7
sS'P'
p2444
I3
sS'RP1'
p2445
I8
sS'JP'
p2446
I2
sS'RP_tot'
p2447
I8
sS'TO'
p2448
I5
sS'PA'
p2449
I6
sS'M'
p2450
I8
sS'R'
p2451
I10
sS'TB'
p2452
I3
sS'PL'
p2453
I8
sS'TA'
p2454
I10
ssg2350
(lp2455
sg236
I0
sg346
(dp2456
sg239
I0
sg240
I0
sg241
I0
sg242
I4
sg243
I0
sg244
I0
sg245
S'B'
p2457
sbsS'n17'
p2458
(ijoueur
joueur
p2459
(dp2460
g27
F9.777777777777779
sg28
I0
sg29
F9.481481481481481
sg30
g31
sg32
I0
sg33
F21.17512692714172
sg34
I0
sg35
g36
(g37
g38
Ntp2461
Rp2462
(dp2463
g42
I4
sg43
g625
sg45
g626
sbsg47
(dp2464
g628
I0
sg629
I0
sg630
I0
sg631
I0
ssg53
(dp2465
g628
I0
sg629
I0
sg630
I0
sg631
I0
ssg55
I0
sg56
(dp2466
g58
I0
sg59
I0
sg60
I0
sg61
I0
ssg62
I0
sg63
I0
sg64
F21.17512692714172
sg65
I1
sg66
I0
sg67
I0
sg68
(g69
S'PI'
p2467
S'N8'
p2468
g31
tp2469
sg74
I00
sg75
g36
(g37
g38
Ntp2470
Rp2471
(dp2472
g42
I4
sg43
g625
sg45
g626
sbsg80
(dp2473
g58
I0
sg59
I0
sg60
I2
sg61
I0
ssg82
I00
sg83
(dp2474
g58
I0
sg59
I0
sg60
I0
sg61
I0
ssg85
(dp2475
g628
I0
sg629
I25
sg630
I3
sg631
I0
ssg87
I0
sg88
I0
sg89
S'Mortord'
p2476
sg91
I4
sg92
I0
sg93
I11
sg94
I310
sg95
g96
sg97
(dp2477
g644
I5
sg645
I9
sg646
I5
sg647
I11
sg648
I3
sg649
I12
sg650
I2
sg651
I12
sg652
I3
sg653
I6
sg654
I6
sg655
I10
sg656
I0
sg657
I9
sg658
I7
ssg114
(dp2478
g116
(ijoueur
joueur
p2479
(dp2480
g27
F9.777777777777779
sg28
I0
sg30
g31
sg32
I0
sg34
I0
sg35
g36
(g37
g38
Ntp2481
Rp2482
(dp2483
g42
I4
sg43
g665
sg45
g666
sbsg47
(dp2484
g668
I0
sg669
I0
sg670
I0
sg671
I0
ssg53
(dp2485
g668
I0
sg669
I0
sg670
I0
sg671
I0
ssg62
I0
sg130
F9.481481481481481
sg63
I0
sg65
I3
sg66
I0
sg67
I0
sg68
(g131
S'PI'
p2486
S'N8'
p2487
g31
tp2488
sg74
I00
sg75
g36
(g37
g38
Ntp2489
Rp2490
(dp2491
g42
I4
sg43
g665
sg45
g666
sbsg80
(dp2492
g141
I0
sg142
I13
sg143
I0
sg144
I0
ssg82
I00
sg83
(dp2493
g141
I0
sg142
I0
sg143
I0
sg144
I0
ssg85
(dp2494
g668
I0
sg669
I25
sg670
I1
sg671
I0
ssg87
I0
sg88
I0
sg89
S'Mortord'
p2495
sg91
I4
sg92
I0
sg93
I11
sg94
I310
sg95
g148
sg97
(dp2496
g683
I5
sg684
I9
sg685
I6
sg686
I11
sg687
I3
sg688
I12
sg689
I2
sg690
I12
sg691
I3
sg692
I6
sg693
I7
sg694
I10
sg695
I0
sg696
I9
sg697
I7
ssg114
(dp2497
g166
(ijoueur
joueur
p2498
(dp2499
g28
I0
sg32
I0
sg34
I0
sg35
g36
(g37
g38
Ntp2500
Rp2501
(dp2502
g42
I4
sg43
S'*'
p2503
sg45
S'heros'
p2504
sbsg47
(dp2505
S'SR'
p2506
I0
sS'CT'
p2507
I0
sS'CR'
p2508
I0
sS'ST'
p2509
I0
ssg53
(dp2510
g2506
I0
sg2507
I0
sg2508
I0
sg2509
I0
ssg62
I0
sg63
I0
sg82
I00
sg65
I0
sg66
I0
sg67
I0
sg68
(S'dummy'
p2511
S'PI'
p2512
S'N8'
p2513
g31
tp2514
sg74
I00
sg75
g36
(g37
g38
Ntp2515
Rp2516
(dp2517
g42
I4
sg43
g2503
sg45
g2504
sbsg80
(dp2518
g2506
I0
sg2507
I12
sg2508
I1
sg2509
I0
ssg56
(dp2519
g2506
I0
sg2507
I0
sg2508
I0
sg2509
I0
ssg83
(dp2520
g2506
I0
sg2507
I0
sg2508
I0
sg2509
I0
ssg85
(dp2521
g2506
I0
sg2507
I12
sg2508
I1
sg2509
I0
ssg87
I0
sg88
I0
sg89
S'Mortord'
p2522
sg91
I4
sg92
I0
sg93
I11
sg94
I310
sg95
S'HTH'
p2523
sg97
(dp2524
S'A'
p2525
I5
sS'ME'
p2526
I9
sS'RP2'
p2527
I7
sS'E'
p2528
I11
sS'P'
p2529
I3
sS'RP1'
p2530
I12
sS'JP'
p2531
I2
sS'RP_tot'
p2532
I12
sS'TO'
p2533
I3
sS'PA'
p2534
I6
sS'M'
p2535
I9
sS'R'
p2536
I11
sS'TB'
p2537
I0
sS'PL'
p2538
I9
sS'TA'
p2539
I8
ssg211
I0
sg212
I0
sg213
I0
sg214
I0
sg130
F9.777777777777779
sg215
I0
sg216
I0
sg217
I0
sg218
(dp2540
S'A'
p2541
I5
sS'ME'
p2542
I9
sS'RP2'
p2543
I7
sS'E'
p2544
I11
sS'P'
p2545
I3
sS'RP1'
p2546
I12
sS'JP'
p2547
I2
sS'RP_tot'
p2548
I12
sS'TO'
p2549
I3
sS'PA'
p2550
I6
sS'M'
p2551
I9
sS'R'
p2552
I11
sS'TB'
p2553
I0
sS'PL'
p2554
I9
sS'TA'
p2555
I8
ssg235
g2524
sg236
I0
sg237
S'MDL 8'
p2556
sg239
I0
sg240
I0
sg241
I0
sg242
I40
sg243
I7
sg244
I0
sg245
S'OG'
p2557
sbssg211
I0
sg212
I0
sg213
I0
sg214
I0
sg56
(dp2558
g141
I0
sg142
I0
sg143
I0
sg144
I0
ssg215
I0
sg216
I0
sg217
I0
sg218
(dp2559
g759
I5
sg760
I9
sg761
I7
sg762
I11
sg763
I3
sg764
I12
sg765
I2
sg766
I12
sg767
I3
sg768
I6
sg769
I9
sg770
I11
sg771
I0
sg772
I9
sg773
I8
ssg235
g2496
sg236
I0
sg237
S'MDL 8'
p2560
sg239
I0
sg240
I0
sg241
I0
sg242
I40
sg243
I10
sg244
I0
sg245
S'OG'
p2561
sbsg266
(ijoueur
joueur
p2562
(dp2563
g28
I0
sg32
I0
sg34
I0
sg35
g36
(g37
g38
Ntp2564
Rp2565
(dp2566
g42
I4
sg43
S'*'
p2567
sg45
S'heros'
p2568
sbsg47
(dp2569
S'SR'
p2570
I0
sS'CT'
p2571
I0
sS'CR'
p2572
I0
sS'ST'
p2573
I0
ssg53
(dp2574
g2570
I0
sg2571
I0
sg2572
I0
sg2573
I0
ssg62
I0
sg63
I0
sg82
I00
sg65
I0
sg66
I0
sg67
I0
sg68
(S'dummy'
p2575
S'PI'
p2576
S'N8'
p2577
g31
tp2578
sg74
I00
sg75
g36
(g37
g38
Ntp2579
Rp2580
(dp2581
g42
I4
sg43
g2567
sg45
g2568
sbsg80
(dp2582
g2570
I0
sg2571
I12
sg2572
I1
sg2573
I0
ssg56
(dp2583
g2570
I0
sg2571
I0
sg2572
I0
sg2573
I0
ssg83
(dp2584
g2570
I0
sg2571
I0
sg2572
I0
sg2573
I0
ssg85
(dp2585
g2570
I0
sg2571
I12
sg2572
I1
sg2573
I0
ssg87
I0
sg88
I0
sg89
S'Mortord'
p2586
sg91
I4
sg92
I0
sg93
I11
sg94
I310
sg95
S'HTH'
p2587
sg97
(dp2588
S'A'
p2589
I5
sS'ME'
p2590
I9
sS'RP2'
p2591
I7
sS'E'
p2592
I11
sS'P'
p2593
I3
sS'RP1'
p2594
I12
sS'JP'
p2595
I2
sS'RP_tot'
p2596
I12
sS'TO'
p2597
I3
sS'PA'
p2598
I6
sS'M'
p2599
I9
sS'R'
p2600
I11
sS'TB'
p2601
I0
sS'PL'
p2602
I9
sS'TA'
p2603
I8
ssg211
I0
sg212
I0
sg213
I0
sg214
I0
sg130
F9.777777777777779
sg215
I0
sg216
I0
sg217
I0
sg218
(dp2604
S'A'
p2605
I5
sS'ME'
p2606
I9
sS'RP2'
p2607
I7
sS'E'
p2608
I11
sS'P'
p2609
I3
sS'RP1'
p2610
I12
sS'JP'
p2611
I2
sS'RP_tot'
p2612
I12
sS'TO'
p2613
I3
sS'PA'
p2614
I6
sS'M'
p2615
I9
sS'R'
p2616
I11
sS'TB'
p2617
I0
sS'PL'
p2618
I9
sS'TA'
p2619
I8
ssg235
g2588
sg236
I0
sg237
S'MDL 8'
p2620
sg239
I0
sg240
I0
sg241
I0
sg242
I40
sg243
I7
sg244
I0
sg245
S'OG'
p2621
sbssg211
I0
sg212
I0
sg213
I0
sg214
I0
sg130
F9.444444444444445
sg215
I0
sg216
I0
sg217
I0
sg218
(dp2622
g834
I5
sg835
I9
sg836
I7
sg837
I11
sg838
I3
sg839
I12
sg840
I2
sg841
I12
sg842
I3
sg843
I6
sg844
I9
sg845
I11
sg846
I0
sg847
I9
sg848
I8
ssg235
(dp2623
g644
I5
sg645
I9
sg646
I5
sg647
I11
sg652
I3
sg649
I12
sg650
I2
sg651
I12
sg648
I3
sg653
I6
sg654
I6
sg655
I10
sg656
I0
sg657
I9
sg658
I7
ssg236
I0
sg346
(dp2624
sg239
I0
sg237
S'MDL 8'
p2625
sg240
I0
sg241
I0
sg242
I40
sg243
I11
sg244
I0
sg245
S'OG'
p2626
sbsS'n14'
p2627
(ijoueur
joueur
p2628
(dp2629
g27
F11.793103448275861
sg28
I0
sg29
F11.793103448275861
sg30
g31
sg32
I0
sg33
F21.17512692714172
sg34
I0
sg35
g36
(g37
g38
Ntp2630
Rp2631
(dp2632
g42
I5
sg43
S'xx'
p2633
sg45
g46
sbsg47
(dp2634
g49
I3
sg50
I0
sg51
I0
sg52
I0
ssg53
(dp2635
g49
I2
sg50
I20
sg51
I0
sg52
I1
ssg55
I0
sg56
(dp2636
g58
I0
sg59
I0
sg60
I0
sg61
I0
ssg62
I0
sg63
I0
sg64
F21.17512692714172
sg65
I0
sg66
I0
sg67
I0
sg68
(g69
S'C2'
p2637
S'AR'
p2638
S'AI'
p2639
tp2640
sg74
I00
sg75
g36
(g37
g38
Ntp2641
Rp2642
(dp2643
g42
I5
sg43
S'xx'
p2644
sg45
g46
sbsg80
(dp2645
g58
I0
sg59
I0
sg60
I0
sg61
I0
ssg82
I00
sg83
(dp2646
g58
I0
sg59
I2
sg60
I0
sg61
I0
ssg85
(dp2647
g49
I7
sg50
I10
sg51
I0
sg52
I3
ssg87
I0
sg88
I0
sg89
S'Skergn'
p2648
sg91
I3
sg92
I0
sg93
I15
sg94
I1603
sg95
g96
sg97
(dp2649
g99
I14
sg100
I6
sg101
I14
sg102
I10
sg103
I11
sg104
I6
sg105
I4
sg106
I14
sg107
I9
sg108
I13
sg109
I11
sg110
I9
sg111
I4
sg112
I7
sg113
I8
ssg114
(dp2650
g116
(ijoueur
joueur
p2651
(dp2652
g27
F11.793103448275861
sg28
I0
sg30
g31
sg32
I0
sg34
I0
sg35
g36
(g37
g38
Ntp2653
Rp2654
(dp2655
g42
I5
sg43
S'xx'
p2656
sg45
g123
sbsg47
(dp2657
g125
I3
sg126
I0
sg127
I0
sg128
I0
ssg53
(dp2658
g125
I2
sg126
I18
sg127
I0
sg128
I1
ssg62
I0
sg130
F11.793103448275861
sg63
I0
sg65
I7
sg66
I0
sg67
I0
sg68
(g131
S'C2'
p2659
S'AR'
p2660
S'AI'
p2661
tp2662
sg74
I00
sg75
g36
(g37
g38
Ntp2663
Rp2664
(dp2665
g42
I5
sg43
S'xx'
p2666
sg45
g123
sbsg80
(dp2667
g141
I0
sg142
I8
sg143
I0
sg144
I1
ssg82
I00
sg83
(dp2668
g141
I2
sg142
I6
sg143
I0
sg144
I1
ssg85
(dp2669
g125
I7
sg126
I10
sg127
I0
sg128
I3
ssg87
I0
sg88
I0
sg89
S'Skergn'
p2670
sg91
I3
sg92
I0
sg93
I15
sg94
I1603
sg95
g148
sg97
(dp2671
g150
I15
sg151
I6
sg152
I14
sg153
I10
sg154
I9
sg155
I6
sg156
I4
sg157
I14
sg158
I11
sg159
I14
sg160
I11
sg161
I10
sg162
I4
sg163
I10
sg164
I8
ssg114
(dp2672
g166
(ijoueur
joueur
p2673
(dp2674
g28
I0
sg32
I0
sg34
I0
sg35
g36
(g37
g38
Ntp2675
Rp2676
(dp2677
g42
I5
sg43
S'xx'
p2678
sg45
S'seigneur'
p2679
sbsg47
(dp2680
S'SR'
p2681
I0
sS'CT'
p2682
I0
sS'CR'
p2683
I0
sS'ST'
p2684
I0
ssg53
(dp2685
g2681
I0
sg2682
I12
sg2683
I0
sg2684
I0
ssg62
I0
sg63
I0
sg82
I00
sg65
I0
sg66
I0
sg67
I0
sg68
(S'dummy'
p2686
S'C2'
p2687
S'AR'
p2688
S'AI'
p2689
tp2690
sg74
I00
sg75
g36
(g37
g38
Ntp2691
Rp2692
(dp2693
g42
I5
sg43
S'xx'
p2694
sg45
g2679
sbsg80
(dp2695
g2681
I7
sg2682
I2
sg2683
I0
sg2684
I2
ssg56
(dp2696
g2681
I0
sg2682
I0
sg2683
I0
sg2684
I0
ssg83
(dp2697
g2681
I0
sg2682
I12
sg2683
I0
sg2684
I0
ssg85
(dp2698
g2681
I7
sg2682
I2
sg2683
I0
sg2684
I2
ssg87
I0
sg88
I0
sg89
S'Skergn'
p2699
sg91
I3
sg92
I0
sg93
I15
sg94
I1603
sg95
S'HTH'
p2700
sg97
(dp2701
S'A'
p2702
I15
sS'ME'
p2703
I6
sS'RP2'
p2704
I14
sS'E'
p2705
I10
sS'P'
p2706
I9
sS'RP1'
p2707
I6
sS'JP'
p2708
I4
sS'RP_tot'
p2709
I14
sS'TO'
p2710
I11
sS'PA'
p2711
I14
sS'M'
p2712
I11
sS'R'
p2713
I10
sS'TB'
p2714
I4
sS'PL'
p2715
I10
sS'TA'
p2716
I8
ssg211
I0
sg212
I0
sg213
I0
sg214
I0
sg130
F11.793103448275861
sg215
I0
sg216
I0
sg217
I1
sg218
(dp2717
S'A'
p2718
I15
sS'ME'
p2719
I6
sS'RP2'
p2720
I14
sS'E'
p2721
I10
sS'P'
p2722
I9
sS'RP1'
p2723
I6
sS'JP'
p2724
I4
sS'RP_tot'
p2725
I14
sS'TO'
p2726
I11
sS'PA'
p2727
I14
sS'M'
p2728
I11
sS'R'
p2729
I10
sS'TB'
p2730
I4
sS'PL'
p2731
I10
sS'TA'
p2732
I8
ssg235
g2701
sg236
I0
sg237
S'SN 11'
p2733
sg239
I0
sg240
I0
sg241
I0
sg242
I155
sg243
I46
sg244
I1
sg245
S'S'
p2734
sbssg211
I6
sg212
I0
sg213
I0
sg214
I0
sg56
(dp2735
g141
I2
sg142
I0
sg143
I0
sg144
I0
ssg215
I0
sg216
I0
sg217
I1
sg218
(dp2736
g249
I15
sg250
I6
sg251
I14
sg252
I10
sg253
I11
sg254
I6
sg255
I4
sg256
I14
sg257
I9
sg258
I14
sg259
I11
sg260
I10
sg261
I4
sg262
I10
sg263
I8
ssg235
g2671
sg236
I0
sg237
S'SN 11'
p2737
sg239
I0
sg240
I0
sg241
I0
sg242
I155
sg243
I53
sg244
I0
sg245
S'S'
p2738
sbsg266
(ijoueur
joueur
p2739
(dp2740
g28
I0
sg32
I0
sg34
I0
sg35
g36
(g37
g38
Ntp2741
Rp2742
(dp2743
g42
I5
sg43
S'xx'
p2744
sg45
S'seigneur'
p2745
sbsg47
(dp2746
S'SR'
p2747
I0
sS'CT'
p2748
I0
sS'CR'
p2749
I0
sS'ST'
p2750
I0
ssg53
(dp2751
g2747
I0
sg2748
I12
sg2749
I0
sg2750
I0
ssg62
I0
sg63
I0
sg82
I00
sg65
I0
sg66
I0
sg67
I0
sg68
(S'dummy'
p2752
S'C2'
p2753
S'AR'
p2754
S'AI'
p2755
tp2756
sg74
I00
sg75
g36
(g37
g38
Ntp2757
Rp2758
(dp2759
g42
I5
sg43
S'xx'
p2760
sg45
g2745
sbsg80
(dp2761
g2747
I7
sg2748
I2
sg2749
I0
sg2750
I2
ssg56
(dp2762
g2747
I0
sg2748
I0
sg2749
I0
sg2750
I0
ssg83
(dp2763
g2747
I0
sg2748
I12
sg2749
I0
sg2750
I0
ssg85
(dp2764
g2747
I7
sg2748
I2
sg2749
I0
sg2750
I2
ssg87
I0
sg88
I0
sg89
S'Skergn'
p2765
sg91
I3
sg92
I0
sg93
I15
sg94
I1603
sg95
S'HTH'
p2766
sg97
(dp2767
S'A'
p2768
I15
sS'ME'
p2769
I6
sS'RP2'
p2770
I14
sS'E'
p2771
I10
sS'P'
p2772
I9
sS'RP1'
p2773
I6
sS'JP'
p2774
I4
sS'RP_tot'
p2775
I14
sS'TO'
p2776
I11
sS'PA'
p2777
I14
sS'M'
p2778
I11
sS'R'
p2779
I10
sS'TB'
p2780
I4
sS'PL'
p2781
I10
sS'TA'
p2782
I8
ssg211
I0
sg212
I0
sg213
I0
sg214
I0
sg130
F11.793103448275861
sg215
I0
sg216
I0
sg217
I1
sg218
(dp2783
S'A'
p2784
I15
sS'ME'
p2785
I6
sS'RP2'
p2786
I14
sS'E'
p2787
I10
sS'P'
p2788
I9
sS'RP1'
p2789
I6
sS'JP'
p2790
I4
sS'RP_tot'
p2791
I14
sS'TO'
p2792
I11
sS'PA'
p2793
I14
sS'M'
p2794
I11
sS'R'
p2795
I10
sS'TB'
p2796
I4
sS'PL'
p2797
I10
sS'TA'
p2798
I8
ssg235
g2767
sg236
I0
sg237
S'SN 11'
p2799
sg239
I0
sg240
I0
sg241
I0
sg242
I155
sg243
I46
sg244
I1
sg245
S'S'
p2800
sbssg211
I8
sg212
I0
sg213
I0
sg214
I0
sg130
F11.310344827586206
sg215
I0
sg216
I0
sg217
I1
sg218
(dp2801
g330
I15
sg331
I6
sg332
I14
sg333
I10
sg334
I11
sg335
I6
sg336
I4
sg337
I14
sg338
I9
sg339
I14
sg340
I11
sg341
I10
sg342
I4
sg343
I10
sg344
I8
ssg235
(dp2802
g99
I15
sg100
I6
sg101
I14
sg102
I10
sg107
I9
sg104
I6
sg105
I4
sg106
I14
sg103
I11
sg108
I13
sg109
I11
sg110
I10
sg111
I4
sg112
I8
sg113
I8
ssg236
I0
sg346
(dp2803
sg239
I0
sg237
S'SN 11'
p2804
sg240
I0
sg241
I0
sg242
I155
sg243
I53
sg244
I0
sg245
S'S'
p2805
sbsS'n15'
p2806
g25
sS'n18'
p2807
g1429
sS'n19'
p2808
(ijoueur
joueur
p2809
(dp2810
g27
F9.833333333333334
sg28
I0
sg29
F9.833333333333334
sg30
g31
sg32
I0
sg33
F21.17512692714172
sg34
I0
sg35
g36
(g37
g38
Ntp2811
Rp2812
(dp2813
g42
I4
sg43
g625
sg45
g626
sbsg47
(dp2814
g628
I0
sg629
I11
sg630
I5
sg631
I0
ssg53
(dp2815
g628
I0
sg629
I0
sg630
I0
sg631
I0
ssg55
I0
sg56
(dp2816
g58
I0
sg59
I0
sg60
I0
sg61
I0
ssg62
I0
sg63
I0
sg64
F21.17512692714172
sg65
I0
sg66
I0
sg67
I0
sg68
(g69
S'N8'
p2817
S'TL'
p2818
g31
tp2819
sg74
I00
sg75
g36
(g37
g38
Ntp2820
Rp2821
(dp2822
g42
I4
sg43
g625
sg45
g626
sbsg80
(dp2823
g58
I0
sg59
I1
sg60
I1
sg61
I0
ssg82
I00
sg83
(dp2824
g58
I0
sg59
I0
sg60
I0
sg61
I0
ssg85
(dp2825
g628
I0
sg629
I4
sg630
I6
sg631
I0
ssg87
I0
sg88
I0
sg89
S'Ibign'
p2826
sg91
I6
sg92
I0
sg93
I18
sg94
I181
sg95
g96
sg97
(dp2827
g644
I10
sg645
I8
sg646
I6
sg647
I11
sg648
I10
sg649
I10
sg650
I4
sg651
I10
sg652
I3
sg653
I8
sg654
I8
sg655
I9
sg656
I3
sg657
I10
sg658
I4
ssg114
(dp2828
g116
(ijoueur
joueur
p2829
(dp2830
g27
F9.833333333333334
sg28
I0
sg30
g31
sg32
I0
sg34
I0
sg35
g36
(g37
g38
Ntp2831
Rp2832
(dp2833
g42
I4
sg43
g665
sg45
g666
sbsg47
(dp2834
g668
I0
sg669
I11
sg670
I5
sg671
I0
ssg53
(dp2835
g668
I0
sg669
I0
sg670
I0
sg671
I0
ssg62
I0
sg130
F9.833333333333334
sg63
I0
sg65
I2
sg66
I0
sg67
I0
sg68
(g131
S'N8'
p2836
S'TL'
p2837
g31
tp2838
sg74
I00
sg75
g36
(g37
g38
Ntp2839
Rp2840
(dp2841
g42
I4
sg43
g665
sg45
g666
sbsg80
(dp2842
g141
I0
sg142
I3
sg143
I4
sg144
I0
ssg82
I00
sg83
(dp2843
g141
I0
sg142
I0
sg143
I0
sg144
I0
ssg85
(dp2844
g668
I0
sg669
I3
sg670
I5
sg671
I0
ssg87
I0
sg88
I0
sg89
S'Ibign'
p2845
sg91
I6
sg92
I0
sg93
I18
sg94
I181
sg95
g148
sg97
(dp2846
g683
I10
sg684
I8
sg685
I6
sg686
I11
sg687
I3
sg688
I10
sg689
I4
sg690
I10
sg691
I10
sg692
I8
sg693
I8
sg694
I10
sg695
I3
sg696
I10
sg697
I4
ssg114
(dp2847
g166
(ijoueur
joueur
p2848
(dp2849
g28
I0
sg32
I0
sg34
I0
sg35
g36
(g37
g38
Ntp2850
Rp2851
(dp2852
g42
I4
sg43
S'*'
p2853
sg45
S'heros'
p2854
sbsg47
(dp2855
S'SR'
p2856
I0
sS'CT'
p2857
I8
sS'CR'
p2858
I1
sS'ST'
p2859
I0
ssg53
(dp2860
g2856
I0
sg2857
I0
sg2858
I0
sg2859
I0
ssg62
I0
sg63
I0
sg82
I00
sg65
I1
sg66
I0
sg67
I0
sg68
(S'dummy'
p2861
S'N8'
p2862
S'TL'
p2863
g31
tp2864
sg74
I01
sg75
g36
(g37
g38
Ntp2865
Rp2866
(dp2867
g42
I4
sg43
g2853
sg45
g2854
sbsg80
(dp2868
g2856
I0
sg2857
I0
sg2858
I1
sg2859
I0
ssg56
(dp2869
g2856
I0
sg2857
I8
sg2858
I1
sg2859
I0
ssg83
(dp2870
g2856
I0
sg2857
I0
sg2858
I0
sg2859
I0
ssg85
(dp2871
g2856
I0
sg2857
I0
sg2858
I1
sg2859
I0
ssg87
I0
sg88
I0
sg89
S'Ibign'
p2872
sg91
I6
sg92
I0
sg93
I18
sg94
I181
sg95
S'HTH'
p2873
sg97
(dp2874
S'A'
p2875
I10
sS'ME'
p2876
I8
sS'RP2'
p2877
I6
sS'E'
p2878
I11
sS'P'
p2879
I3
sS'RP1'
p2880
I10
sS'JP'
p2881
I4
sS'RP_tot'
p2882
I10
sS'TO'
p2883
I10
sS'PA'
p2884
I8
sS'M'
p2885
I8
sS'R'
p2886
I10
sS'TB'
p2887
I3
sS'PL'
p2888
I10
sS'TA'
p2889
I4
ssg211
I0
sg212
I0
sg213
I0
sg214
I0
sg130
F9.833333333333334
sg215
I0
sg216
I0
sg217
I0
sg218
(dp2890
S'A'
p2891
I10
sS'ME'
p2892
I8
sS'RP2'
p2893
I6
sS'E'
p2894
I11
sS'P'
p2895
I3
sS'RP1'
p2896
I10
sS'JP'
p2897
I4
sS'RP_tot'
p2898
I10
sS'TO'
p2899
I10
sS'PA'
p2900
I8
sS'M'
p2901
I8
sS'R'
p2902
I10
sS'TB'
p2903
I3
sS'PL'
p2904
I10
sS'TA'
p2905
I4
ssg235
g2874
sg236
I0
sg237
S'MRB 9;MDL 11'
p2906
sg239
I0
sg240
I0
sg241
I0
sg242
I18
sg243
I4
sg244
I0
sg245
S'HB'
p2907
sbssg211
I0
sg212
I0
sg213
I0
sg214
I0
sg56
(dp2908
g141
I0
sg142
I3
sg143
I4
sg144
I0
ssg215
I0
sg216
I0
sg217
I0
sg218
(dp2909
g759
I10
sg760
I8
sg761
I6
sg762
I11
sg763
I10
sg764
I10
sg765
I4
sg766
I10
sg767
I3
sg768
I8
sg769
I8
sg770
I10
sg771
I3
sg772
I10
sg773
I4
ssg235
g2846
sg236
I0
sg237
S'MRB 9;MDL 11'
p2910
sg239
I0
sg240
I0
sg241
I0
sg242
I18
sg243
I6
sg244
I0
sg245
S'HB'
p2911
sbsg266
(ijoueur
joueur
p2912
(dp2913
g28
I0
sg32
I0
sg34
I0
sg35
g36
(g37
g38
Ntp2914
Rp2915
(dp2916
g42
I4
sg43
S'*'
p2917
sg45
S'heros'
p2918
sbsg47
(dp2919
S'SR'
p2920
I0
sS'CT'
p2921
I8
sS'CR'
p2922
I1
sS'ST'
p2923
I0
ssg53
(dp2924
g2920
I0
sg2921
I0
sg2922
I0
sg2923
I0
ssg62
I0
sg63
I0
sg82
I00
sg65
I1
sg66
I0
sg67
I0
sg68
(S'dummy'
p2925
S'N8'
p2926
S'TL'
p2927
g31
tp2928
sg74
I01
sg75
g36
(g37
g38
Ntp2929
Rp2930
(dp2931
g42
I4
sg43
g2917
sg45
g2918
sbsg80
(dp2932
g2920
I0
sg2921
I0
sg2922
I1
sg2923
I0
ssg56
(dp2933
g2920
I0
sg2921
I8
sg2922
I1
sg2923
I0
ssg83
(dp2934
g2920
I0
sg2921
I0
sg2922
I0
sg2923
I0
ssg85
(dp2935
g2920
I0
sg2921
I0
sg2922
I1
sg2923
I0
ssg87
I0
sg88
I0
sg89
S'Ibign'
p2936
sg91
I6
sg92
I0
sg93
I18
sg94
I181
sg95
S'HTH'
p2937
sg97
(dp2938
S'A'
p2939
I10
sS'ME'
p2940
I8
sS'RP2'
p2941
I6
sS'E'
p2942
I11
sS'P'
p2943
I3
sS'RP1'
p2944
I10
sS'JP'
p2945
I4
sS'RP_tot'
p2946
I10
sS'TO'
p2947
I10
sS'PA'
p2948
I8
sS'M'
p2949
I8
sS'R'
p2950
I10
sS'TB'
p2951
I3
sS'PL'
p2952
I10
sS'TA'
p2953
I4
ssg211
I0
sg212
I0
sg213
I0
sg214
I0
sg130
F9.833333333333334
sg215
I0
sg216
I0
sg217
I0
sg218
(dp2954
S'A'
p2955
I10
sS'ME'
p2956
I8
sS'RP2'
p2957
I6
sS'E'
p2958
I11
sS'P'
p2959
I3
sS'RP1'
p2960
I10
sS'JP'
p2961
I4
sS'RP_tot'
p2962
I10
sS'TO'
p2963
I10
sS'PA'
p2964
I8
sS'M'
p2965
I8
sS'R'
p2966
I10
sS'TB'
p2967
I3
sS'PL'
p2968
I10
sS'TA'
p2969
I4
ssg235
g2938
sg236
I0
sg237
S'MRB 9;MDL 11'
p2970
sg239
I0
sg240
I0
sg241
I0
sg242
I18
sg243
I4
sg244
I0
sg245
S'HB'
p2971
sbssg211
I5
sg212
I0
sg213
I0
sg214
I0
sg130
F9.63888888888889
sg215
I0
sg216
I0
sg217
I0
sg218
(dp2972
g834
I10
sg835
I8
sg836
I6
sg837
I11
sg838
I10
sg839
I10
sg840
I4
sg841
I10
sg842
I3
sg843
I8
sg844
I8
sg845
I10
sg846
I3
sg847
I10
sg848
I4
ssg235
(dp2973
g644
I10
sg645
I8
sg646
I6
sg647
I11
sg652
I3
sg649
I10
sg650
I4
sg651
I10
sg648
I10
sg653
I8
sg654
I8
sg655
I9
sg656
I3
sg657
I10
sg658
I4
ssg236
I0
sg346
(dp2974
sg239
I0
sg237
S'MRB 9;MDL 11'
p2975
sg240
I0
sg241
I0
sg242
I18
sg243
I6
sg244
I0
sg245
S'HB'
p2976
sbsS'n22'
p2977
(ijoueur
joueur
p2978
(dp2979
g28
I0
sg212
I0
sg32
I0
sg33
F21.17512692714172
sg353
g31
sg34
I0
sg354
g31
sg35
g36
(g37
g38
Ntp2980
Rp2981
(dp2982
g42
I1
sg43
S'>'
p2983
sg45
S'base'
p2984
sbsg47
(dp2985
S'SR'
p2986
I0
sS'CT'
p2987
I0
sS'CR'
p2988
I0
sS'ST'
p2989
I0
ssg53
(dp2990
g2986
I0
sg2987
I0
sg2988
I0
sg2989
I0
ssg55
I0
sg93
I21
sg237
g31
sg63
I0
sg64
F21.17512692714172
sg65
I0
sg66
I0
sg67
I0
sg95
g96
sg74
I00
sg75
g2981
sg80
(dp2991
g2986
I0
sg2987
I0
sg2988
I2
sg2989
I0
ssg82
I00
sg83
(dp2992
g2986
I0
sg2987
I0
sg2988
I0
sg2989
I0
ssg85
(dp2993
g2986
I0
sg2987
I0
sg2988
I2
sg2989
I0
ssg87
I0
sg88
I0
sg89
S'Haohaeldil'
p2994
sg91
I13
sg92
I0
sg56
(dp2995
g2986
I0
sg2987
I0
sg2988
I0
sg2989
I0
ssg94
I17
sg68
(S'dummy'
p2996
S'AI'
p2997
g31
g31
tp2998
sg380
g31
sg97
(dp2999
S'RP1'
p3000
I8
sS'ME'
p3001
I3
sS'RP2'
p3002
I11
sS'E'
p3003
I10
sS'TO'
p3004
I6
sS'M'
p3005
I11
sS'JP'
p3006
I8
sS'RP_tot'
p3007
I12
sS'P'
p3008
I8
sS'PA'
p3009
I11
sS'A'
p3010
I10
sS'R'
p3011
I7
sS'TB'
p3012
I6
sS'PL'
p3013
I8
sS'TA'
p3014
I3
ssg211
I3
sg30
g31
sg213
I0
sg214
I0
sg130
F10.161290322580646
sg215
I0
sg216
I0
sg217
I0
sg235
(dp3015
g3000
I8
sg3001
I3
sg3002
I11
sg3003
I10
sg3008
I8
sg3006
I8
sg3005
I11
sg3007
I12
sg3004
I6
sg3009
I11
sg3010
I10
sg3011
I7
sg3012
I6
sg3013
I8
sg3014
I3
ssg236
I0
sg239
I0
sg240
I0
sg241
I0
sg242
I1
sg243
I0
sg244
I0
sg245
S'HE'
p3016
sbsS'n21'
p3017
(ijoueur
joueur
p3018
(dp3019
g27
F10.121212121212121
sg28
I0
sg29
F10.028571428571428
sg30
g31
sg32
I0
sg33
F21.17512692714172
sg34
I0
sg35
g36
(g37
g38
Ntp3020
Rp3021
(dp3022
g42
I3
sg43
S'^^^'
p3023
sg45
g1100
sbsg47
(dp3024
g49
I2
sg50
I2
sg51
I3
sg52
I1
ssg53
(dp3025
g49
I1
sg50
I3
sg51
I6
sg52
I0
ssg55
I0
sg56
(dp3026
g58
I0
sg59
I0
sg60
I0
sg61
I0
ssg62
I0
sg63
I0
sg64
F21.17512692714172
sg65
I0
sg66
I0
sg67
I0
sg68
(g69
S'AR'
p3027
S'AI'
p3028
S'CE'
p3029
tp3030
sg74
I00
sg75
g36
(g37
g38
Ntp3031
Rp3032
(dp3033
g42
I3
sg43
S'^^^'
p3034
sg45
g1100
sbsg80
(dp3035
g58
I0
sg59
I0
sg60
I1
sg61
I0
ssg82
I00
sg83
(dp3036
g58
I0
sg59
I0
sg60
I1
sg61
I0
ssg85
(dp3037
g49
I2
sg50
I3
sg51
I9
sg52
I1
ssg87
I0
sg88
I0
sg89
S'Neffair'
p3038
sg91
I11
sg92
I0
sg93
I21
sg94
I35
sg95
g96
sg97
(dp3039
g99
I12
sg100
I3
sg101
I7
sg102
I11
sg103
I7
sg104
I7
sg105
I9
sg106
I8
sg107
I10
sg108
I11
sg109
I10
sg110
I6
sg111
I11
sg112
I11
sg113
I4
ssg114
(dp3040
g116
(ijoueur
joueur
p3041
(dp3042
g27
F10.121212121212121
sg28
I0
sg30
g31
sg32
I0
sg34
I0
sg35
g36
(g37
g38
Ntp3043
Rp3044
(dp3045
g42
I3
sg43
S'^^^'
p3046
sg45
g1123
sbsg47
(dp3047
g125
I2
sg126
I2
sg127
I3
sg128
I1
ssg53
(dp3048
g125
I1
sg126
I3
sg127
I5
sg128
I0
ssg62
I0
sg130
F10.028571428571428
sg63
I0
sg65
I1
sg66
I0
sg67
I0
sg68
(g131
S'AR'
p3049
S'AI'
p3050
S'CE'
p3051
tp3052
sg74
I00
sg75
g36
(g37
g38
Ntp3053
Rp3054
(dp3055
g42
I3
sg43
S'^^^'
p3056
sg45
g1123
sbsg80
(dp3057
g141
I0
sg142
I0
sg143
I3
sg144
I0
ssg82
I01
sg83
(dp3058
g141
I0
sg142
I3
sg143
I0
sg144
I0
ssg85
(dp3059
g125
I2
sg126
I3
sg127
I8
sg128
I1
ssg87
I0
sg88
I0
sg89
S'Neffair'
p3060
sg91
I11
sg92
I0
sg93
I21
sg94
I35
sg95
g148
sg97
(dp3061
g150
I12
sg151
I3
sg152
I7
sg153
I11
sg154
I10
sg155
I6
sg156
I8
sg157
I7
sg158
I7
sg159
I10
sg160
I10
sg161
I6
sg162
I11
sg163
I11
sg164
I4
ssg114
(dp3062
g166
(ijoueur
joueur
p3063
(dp3064
g28
I0
sg32
I0
sg34
I0
sg35
g36
(g37
g38
Ntp3065
Rp3066
(dp3067
g42
I3
sg43
S'^^^'
p3068
sg45
S'rare'
p3069
sbsg47
(dp3070
S'SR'
p3071
I2
sS'CT'
p3072
I1
sS'CR'
p3073
I1
sS'ST'
p3074
I1
ssg53
(dp3075
g3071
I1
sg3072
I0
sg3073
I5
sg3074
I0
ssg62
I0
sg63
I0
sg82
I01
sg65
I0
sg66
I0
sg67
I0
sg68
(S'dummy'
p3076
S'AR'
p3077
S'AI'
p3078
S'CE'
p3079
tp3080
sg74
I00
sg75
g36
(g37
g38
Ntp3081
Rp3082
(dp3083
g42
I3
sg43
S'^^^'
p3084
sg45
g3069
sbsg80
(dp3085
g3071
I2
sg3072
I3
sg3073
I5
sg3074
I1
ssg56
(dp3086
g3071
I2
sg3072
I1
sg3073
I1
sg3074
I1
ssg83
(dp3087
g3071
I1
sg3072
I0
sg3073
I5
sg3074
I0
ssg85
(dp3088
g3071
I2
sg3072
I3
sg3073
I5
sg3074
I1
ssg87
I0
sg88
I0
sg89
S'Neffair'
p3089
sg91
I11
sg92
I0
sg93
I21
sg94
I35
sg95
S'HTH'
p3090
sg97
(dp3091
S'A'
p3092
I13
sS'ME'
p3093
I3
sS'RP2'
p3094
I7
sS'E'
p3095
I11
sS'P'
p3096
I9
sS'RP1'
p3097
I6
sS'JP'
p3098
I8
sS'RP_tot'
p3099
I7
sS'TO'
p3100
I7
sS'PA'
p3101
I10
sS'M'
p3102
I10
sS'R'
p3103
I7
sS'TB'
p3104
I10
sS'PL'
p3105
I11
sS'TA'
p3106
I4
ssg211
I0
sg212
I0
sg213
I0
sg214
I0
sg130
F10.121212121212121
sg215
I0
sg216
I0
sg217
I1
sg218
(dp3107
S'A'
p3108
I13
sS'ME'
p3109
I3
sS'RP2'
p3110
I7
sS'E'
p3111
I11
sS'P'
p3112
I9
sS'RP1'
p3113
I6
sS'JP'
p3114
I8
sS'RP_tot'
p3115
I7
sS'TO'
p3116
I7
sS'PA'
p3117
I10
sS'M'
p3118
I10
sS'R'
p3119
I7
sS'TB'
p3120
I10
sS'PL'
p3121
I11
sS'TA'
p3122
I4
ssg235
g3091
sg236
I0
sg237
g31
sg239
I0
sg240
I0
sg241
I0
sg242
I4
sg243
I0
sg244
I1
sg245
S'HE'
p3123
sbssg211
I0
sg212
I0
sg213
I0
sg214
I0
sg56
(dp3124
g141
I0
sg142
I1
sg143
I2
sg144
I0
ssg215
I0
sg216
I0
sg217
I1
sg218
(dp3125
g249
I13
sg250
I3
sg251
I7
sg252
I11
sg253
I7
sg254
I6
sg255
I8
sg256
I7
sg257
I9
sg258
I10
sg259
I10
sg260
I7
sg261
I10
sg262
I11
sg263
I4
ssg235
g3061
sg236
I0
sg237
g31
sg239
I0
sg240
I0
sg241
I0
sg242
I4
sg243
I1
sg244
I0
sg245
S'HE'
p3126
sbsg266
(ijoueur
joueur
p3127
(dp3128
g28
I0
sg32
I0
sg34
I0
sg35
g36
(g37
g38
Ntp3129
Rp3130
(dp3131
g42
I3
sg43
S'^^^'
p3132
sg45
S'rare'
p3133
sbsg47
(dp3134
S'SR'
p3135
I2
sS'CT'
p3136
I1
sS'CR'
p3137
I1
sS'ST'
p3138
I1
ssg53
(dp3139
g3135
I1
sg3136
I0
sg3137
I5
sg3138
I0
ssg62
I0
sg63
I0
sg82
I01
sg65
I0
sg66
I0
sg67
I0
sg68
(S'dummy'
p3140
S'AR'
p3141
S'AI'
p3142
S'CE'
p3143
tp3144
sg74
I00
sg75
g36
(g37
g38
Ntp3145
Rp3146
(dp3147
g42
I3
sg43
S'^^^'
p3148
sg45
g3133
sbsg80
(dp3149
g3135
I2
sg3136
I3
sg3137
I5
sg3138
I1
ssg56
(dp3150
g3135
I2
sg3136
I1
sg3137
I1
sg3138
I1
ssg83
(dp3151
g3135
I1
sg3136
I0
sg3137
I5
sg3138
I0
ssg85
(dp3152
g3135
I2
sg3136
I3
sg3137
I5
sg3138
I1
ssg87
I0
sg88
I0
sg89
S'Neffair'
p3153
sg91
I11
sg92
I0
sg93
I21
sg94
I35
sg95
S'HTH'
p3154
sg97
(dp3155
S'A'
p3156
I13
sS'ME'
p3157
I3
sS'RP2'
p3158
I7
sS'E'
p3159
I11
sS'P'
p3160
I9
sS'RP1'
p3161
I6
sS'JP'
p3162
I8
sS'RP_tot'
p3163
I7
sS'TO'
p3164
I7
sS'PA'
p3165
I10
sS'M'
p3166
I10
sS'R'
p3167
I7
sS'TB'
p3168
I10
sS'PL'
p3169
I11
sS'TA'
p3170
I4
ssg211
I0
sg212
I0
sg213
I0
sg214
I0
sg130
F10.121212121212121
sg215
I0
sg216
I0
sg217
I1
sg218
(dp3171
S'A'
p3172
I13
sS'ME'
p3173
I3
sS'RP2'
p3174
I7
sS'E'
p3175
I11
sS'P'
p3176
I9
sS'RP1'
p3177
I6
sS'JP'
p3178
I8
sS'RP_tot'
p3179
I7
sS'TO'
p3180
I7
sS'PA'
p3181
I10
sS'M'
p3182
I10
sS'R'
p3183
I7
sS'TB'
p3184
I10
sS'PL'
p3185
I11
sS'TA'
p3186
I4
ssg235
g3155
sg236
I0
sg237
g31
sg239
I0
sg240
I0
sg241
I0
sg242
I4
sg243
I0
sg244
I1
sg245
S'HE'
p3187
sbssg211
I2
sg212
I0
sg213
I0
sg214
I0
sg130
F10.314285714285715
sg215
I0
sg216
I0
sg217
I1
sg218
(dp3188
g330
I13
sg331
I3
sg332
I7
sg333
I11
sg334
I7
sg335
I6
sg336
I8
sg337
I7
sg338
I9
sg339
I10
sg340
I10
sg341
I7
sg342
I10
sg343
I11
sg344
I4
ssg235
(dp3189
g99
I12
sg100
I3
sg101
I7
sg102
I11
sg107
I10
sg104
I7
sg105
I9
sg106
I8
sg103
I7
sg108
I11
sg109
I10
sg110
I6
sg111
I11
sg112
I11
sg113
I4
ssg236
I0
sg346
(dp3190
sg239
I0
sg237
g31
sg240
I0
sg241
I0
sg242
I4
sg243
I1
sg244
I0
sg245
S'HE'
p3191
sbsS'n20'
p3192
g1094
sS'n8'
p3193
(ijoueur
joueur
p3194
(dp3195
g27
F12.137931034482758
sg28
I0
sg29
F11.793103448275861
sg30
g31
sg32
I0
sg33
F10.856487039296283
sg34
I0
sg35
g36
(g37
g38
Ntp3196
Rp3197
(dp3198
g42
I5
sg43
S'xx'
p3199
sg45
g46
sbsg47
(dp3200
g628
I1
sg629
I0
sg630
I0
sg631
I0
ssg53
(dp3201
g628
I0
sg629
I0
sg630
I0
sg631
I0
ssg55
I0
sg56
(dp3202
g58
I0
sg59
I0
sg60
I0
sg61
I0
ssg62
I0
sg63
I0
sg64
F10.856487039296283
sg65
I0
sg66
I0
sg67
I0
sg68
(g69
S'N8'
p3203
S'TL'
p3204
g31
tp3205
sg74
I00
sg75
g36
(g37
g38
Ntp3206
Rp3207
(dp3208
g42
I5
sg43
S'xx'
p3209
sg45
g46
sbsg80
(dp3210
g58
I0
sg59
I1
sg60
I0
sg61
I0
ssg82
I00
sg83
(dp3211
g58
I0
sg59
I0
sg60
I0
sg61
I0
ssg85
(dp3212
g628
I0
sg629
I27
sg630
I1
sg631
I11
ssg87
I0
sg88
I0
sg89
S"Rak'Daq"
p3213
sg91
I5
sg92
I0
sg93
I15
sg94
I525
sg95
g96
sg97
(dp3214
g644
I9
sg645
I13
sg646
I9
sg647
I13
sg648
I8
sg649
I14
sg650
I2
sg651
I15
sg652
I4
sg653
I7
sg654
I6
sg655
I12
sg656
I2
sg657
I8
sg658
I8
ssg114
(dp3215
g116
(ijoueur
joueur
p3216
(dp3217
g27
F12.137931034482758
sg28
I0
sg30
g31
sg32
I0
sg34
I0
sg35
g36
(g37
g38
Ntp3218
Rp3219
(dp3220
g42
I5
sg43
S'xx'
p3221
sg45
g123
sbsg47
(dp3222
g668
I1
sg669
I0
sg670
I0
sg671
I0
ssg53
(dp3223
g668
I0
sg669
I0
sg670
I0
sg671
I0
ssg62
I0
sg130
F11.793103448275861
sg63
I0
sg65
I2
sg66
I0
sg67
I0
sg68
(g131
S'N8'
p3224
S'TL'
p3225
g31
tp3226
sg74
I00
sg75
g36
(g37
g38
Ntp3227
Rp3228
(dp3229
g42
I5
sg43
S'xx'
p3230
sg45
g123
sbsg80
(dp3231
g141
I0
sg142
I13
sg143
I0
sg144
I5
ssg82
I00
sg83
(dp3232
g141
I0
sg142
I0
sg143
I0
sg144
I0
ssg85
(dp3233
g668
I0
sg669
I26
sg670
I1
sg671
I11
ssg87
I0
sg88
I0
sg89
S"Rak'Daq"
p3234
sg91
I5
sg92
I0
sg93
I15
sg94
I525
sg95
g148
sg97
(dp3235
g683
I11
sg684
I13
sg685
I9
sg686
I13
sg687
I4
sg688
I14
sg689
I2
sg690
I16
sg691
I8
sg692
I7
sg693
I7
sg694
I12
sg695
I2
sg696
I8
sg697
I8
ssg114
(dp3236
g166
(ijoueur
joueur
p3237
(dp3238
g28
I0
sg32
I0
sg34
I0
sg35
g36
(g37
g38
Ntp3239
Rp3240
(dp3241
g42
I5
sg43
S'xx'
p3242
sg45
S'seigneur'
p3243
sbsg47
(dp3244
S'SR'
p3245
I0
sS'CT'
p3246
I0
sS'CR'
p3247
I0
sS'ST'
p3248
I0
ssg53
(dp3249
g3245
I0
sg3246
I0
sg3247
I0
sg3248
I0
ssg62
I0
sg63
I0
sg82
I00
sg65
I1
sg66
I0
sg67
I0
sg68
(S'dummy'
p3250
S'N8'
p3251
S'TL'
p3252
g31
tp3253
sg74
I00
sg75
g36
(g37
g38
Ntp3254
Rp3255
(dp3256
g42
I5
sg43
S'xx'
p3257
sg45
g3243
sbsg80
(dp3258
g3245
I0
sg3246
I13
sg3247
I1
sg3248
I6
ssg56
(dp3259
g3245
I0
sg3246
I0
sg3247
I0
sg3248
I0
ssg83
(dp3260
g3245
I0
sg3246
I0
sg3247
I0
sg3248
I0
ssg85
(dp3261
g3245
I0
sg3246
I13
sg3247
I1
sg3248
I6
ssg87
I0
sg88
I0
sg89
S"Rak'Daq"
p3262
sg91
I5
sg92
I0
sg93
I15
sg94
I525
sg95
S'HTH'
p3263
sg97
(dp3264
S'A'
p3265
I11
sS'ME'
p3266
I13
sS'RP2'
p3267
I9
sS'E'
p3268
I13
sS'P'
p3269
I4
sS'RP1'
p3270
I15
sS'JP'
p3271
I2
sS'RP_tot'
p3272
I17
sS'TO'
p3273
I9
sS'PA'
p3274
I7
sS'M'
p3275
I7
sS'R'
p3276
I12
sS'TB'
p3277
I2
sS'PL'
p3278
I9
sS'TA'
p3279
I8
ssg211
I0
sg212
I0
sg213
I0
sg214
I0
sg130
F12.137931034482758
sg215
I0
sg216
I0
sg217
I0
sg218
(dp3280
S'A'
p3281
I11
sS'ME'
p3282
I13
sS'RP2'
p3283
I9
sS'E'
p3284
I13
sS'P'
p3285
I4
sS'RP1'
p3286
I15
sS'JP'
p3287
I2
sS'RP_tot'
p3288
I17
sS'TO'
p3289
I9
sS'PA'
p3290
I7
sS'M'
p3291
I7
sS'R'
p3292
I12
sS'TB'
p3293
I2
sS'PL'
p3294
I9
sS'TA'
p3295
I8
ssg235
g3264
sg236
I0
sg237
g31
sg239
I0
sg240
I0
sg241
I0
sg242
I70
sg243
I17
sg244
I0
sg245
S'HL'
p3296
sbssg211
I8
sg212
I0
sg213
I0
sg214
I0
sg56
(dp3297
g141
I1
sg142
I0
sg143
I0
sg144
I0
ssg215
I0
sg216
I0
sg217
I1
sg218
(dp3298
g759
I11
sg760
I13
sg761
I9
sg762
I13
sg763
I9
sg764
I15
sg765
I2
sg766
I17
sg767
I4
sg768
I7
sg769
I7
sg770
I12
sg771
I2
sg772
I9
sg773
I8
ssg235
g3235
sg236
I0
sg237
g31
sg239
I0
sg240
I0
sg241
I0
sg242
I70
sg243
I19
sg244
I1
sg245
S'HL'
p3299
sbsg266
(ijoueur
joueur
p3300
(dp3301
g28
I0
sg32
I0
sg34
I0
sg35
g36
(g37
g38
Ntp3302
Rp3303
(dp3304
g42
I5
sg43
S'xx'
p3305
sg45
S'seigneur'
p3306
sbsg47
(dp3307
S'SR'
p3308
I0
sS'CT'
p3309
I0
sS'CR'
p3310
I0
sS'ST'
p3311
I0
ssg53
(dp3312
g3308
I0
sg3309
I0
sg3310
I0
sg3311
I0
ssg62
I0
sg63
I0
sg82
I00
sg65
I1
sg66
I0
sg67
I0
sg68
(S'dummy'
p3313
S'N8'
p3314
S'TL'
p3315
g31
tp3316
sg74
I00
sg75
g36
(g37
g38
Ntp3317
Rp3318
(dp3319
g42
I5
sg43
S'xx'
p3320
sg45
g3306
sbsg80
(dp3321
g3308
I0
sg3309
I13
sg3310
I1
sg3311
I6
ssg56
(dp3322
g3308
I0
sg3309
I0
sg3310
I0
sg3311
I0
ssg83
(dp3323
g3308
I0
sg3309
I0
sg3310
I0
sg3311
I0
ssg85
(dp3324
g3308
I0
sg3309
I13
sg3310
I1
sg3311
I6
ssg87
I0
sg88
I0
sg89
S"Rak'Daq"
p3325
sg91
I5
sg92
I0
sg93
I15
sg94
I525
sg95
S'HTH'
p3326
sg97
(dp3327
S'A'
p3328
I11
sS'ME'
p3329
I13
sS'RP2'
p3330
I9
sS'E'
p3331
I13
sS'P'
p3332
I4
sS'RP1'
p3333
I15
sS'JP'
p3334
I2
sS'RP_tot'
p3335
I17
sS'TO'
p3336
I9
sS'PA'
p3337
I7
sS'M'
p3338
I7
sS'R'
p3339
I12
sS'TB'
p3340
I2
sS'PL'
p3341
I9
sS'TA'
p3342
I8
ssg211
I0
sg212
I0
sg213
I0
sg214
I0
sg130
F12.137931034482758
sg215
I0
sg216
I0
sg217
I0
sg218
(dp3343
S'A'
p3344
I11
sS'ME'
p3345
I13
sS'RP2'
p3346
I9
sS'E'
p3347
I13
sS'P'
p3348
I4
sS'RP1'
p3349
I15
sS'JP'
p3350
I2
sS'RP_tot'
p3351
I17
sS'TO'
p3352
I9
sS'PA'
p3353
I7
sS'M'
p3354
I7
sS'R'
p3355
I12
sS'TB'
p3356
I2
sS'PL'
p3357
I9
sS'TA'
p3358
I8
ssg235
g3327
sg236
I0
sg237
g31
sg239
I0
sg240
I0
sg241
I0
sg242
I70
sg243
I17
sg244
I0
sg245
S'HL'
p3359
sbssg211
I2
sg212
I0
sg213
I0
sg214
I0
sg130
F11.379310344827585
sg215
I0
sg216
I0
sg217
I1
sg218
(dp3360
g834
I11
sg835
I13
sg836
I9
sg837
I13
sg838
I9
sg839
I15
sg840
I2
sg841
I17
sg842
I4
sg843
I7
sg844
I7
sg845
I12
sg846
I2
sg847
I9
sg848
I8
ssg235
(dp3361
g644
I9
sg645
I13
sg646
I9
sg647
I13
sg652
I4
sg649
I14
sg650
I2
sg651
I15
sg648
I8
sg653
I7
sg654
I6
sg655
I12
sg656
I2
sg657
I8
sg658
I8
ssg236
I0
sg346
(dp3362
sg239
I0
sg237
g31
sg240
I0
sg241
I0
sg242
I70
sg243
I19
sg244
I0
sg245
S'HL'
p3363
sbsS'n9'
p3364
(ijoueur
joueur
p3365
(dp3366
g27
F9.620689655172415
sg28
I0
sg29
F10.379310344827585
sg30
g31
sg32
I0
sg33
F10.856487039296283
sg34
I0
sg35
g36
(g37
g38
Ntp3367
Rp3368
(dp3369
g42
I5
sg43
S'**'
p3370
sg45
g46
sbsg47
(dp3371
g49
I0
sg50
I0
sg51
I0
sg52
I0
ssg53
(dp3372
g49
I0
sg50
I0
sg51
I0
sg52
I0
ssg55
I0
sg56
(dp3373
g58
I0
sg59
I0
sg60
I0
sg61
I0
ssg62
I0
sg63
I0
sg64
F10.856487039296283
sg65
I0
sg66
I0
sg67
I0
sg68
(g69
S'DM'
p3374
g31
g31
tp3375
sg74
I00
sg75
g3368
sg80
(dp3376
g58
I0
sg59
I1
sg60
I0
sg61
I0
ssg82
I00
sg83
(dp3377
g58
I0
sg59
I0
sg60
I0
sg61
I0
ssg85
(dp3378
g49
I0
sg50
I17
sg51
I14
sg52
I0
ssg87
I0
sg88
I0
sg89
S'Zimloeth'
p3379
sg91
I11
sg92
I0
sg93
I23
sg94
I141
sg95
g96
sg97
(dp3380
g99
I13
sg100
I7
sg101
I9
sg102
I12
sg103
I8
sg104
I7
sg105
I9
sg106
I9
sg107
I9
sg108
I14
sg109
I10
sg110
I6
sg111
I9
sg112
I10
sg113
I5
ssg114
(dp3381
g116
(ijoueur
joueur
p3382
(dp3383
g27
F9.620689655172415
sg28
I0
sg30
g31
sg32
I0
sg34
I0
sg35
g36
(g37
g38
Ntp3384
Rp3385
(dp3386
g42
I5
sg43
S'**'
p3387
sg45
g123
sbsg47
(dp3388
g125
I0
sg126
I0
sg127
I0
sg128
I0
ssg53
(dp3389
g125
I0
sg126
I0
sg127
I0
sg128
I0
ssg62
I0
sg130
F10.379310344827585
sg63
I0
sg65
I0
sg66
I0
sg67
I0
sg68
(g131
S'DM'
p3390
g31
g31
tp3391
sg74
I00
sg75
g36
(g37
g38
Ntp3392
Rp3393
(dp3394
g42
I4
sg43
S'*'
p3395
sg45
S'heros'
p3396
sbsg80
(dp3397
g141
I0
sg142
I14
sg143
I0
sg144
I0
ssg82
I01
sg83
(dp3398
g141
I0
sg142
I0
sg143
I0
sg144
I0
ssg85
(dp3399
g125
I0
sg126
I16
sg127
I14
sg128
I0
ssg87
I0
sg88
I0
sg89
S'Zimloeth'
p3400
sg91
I11
sg92
I0
sg93
I23
sg94
I71
sg95
g148
sg97
(dp3401
g150
I12
sg151
I7
sg152
I8
sg153
I11
sg154
I10
sg155
I7
sg156
I9
sg157
I8
sg158
I7
sg159
I13
sg160
I10
sg161
I5
sg162
I10
sg163
I9
sg164
I5
ssg114
(dp3402
g166
(ijoueur
joueur
p3403
(dp3404
g28
I0
sg32
I0
sg34
I0
sg35
g36
(g37
g38
Ntp3405
Rp3406
(dp3407
g42
I5
sg43
S'**'
p3408
sg45
S'seigneur'
p3409
sbsg47
(dp3410
S'SR'
p3411
I0
sS'CT'
p3412
I0
sS'CR'
p3413
I0
sS'ST'
p3414
I0
ssg53
(dp3415
g3411
I0
sg3412
I0
sg3413
I0
sg3414
I0
ssg62
I0
sg63
I0
sg82
I01
sg65
I0
sg66
I0
sg67
I0
sg68
(S'dummy'
p3416
S'DM'
p3417
g31
g31
tp3418
sg74
I00
sg75
g36
(g37
g38
Ntp3419
Rp3420
(dp3421
g42
I2
sg43
S'^^'
p3422
sg45
S'special'
p3423
sbsg80
(dp3424
g3411
I0
sg3412
I2
sg3413
I14
sg3414
I0
ssg56
(dp3425
g3411
I0
sg3412
I0
sg3413
I0
sg3414
I0
ssg83
(dp3426
g3411
I0
sg3412
I0
sg3413
I0
sg3414
I0
ssg85
(dp3427
g3411
I0
sg3412
I2
sg3413
I14
sg3414
I0
ssg87
I0
sg88
I0
sg89
S'Zimloeth'
p3428
sg91
I11
sg92
I0
sg93
I23
sg94
I23
sg95
S'HTH'
p3429
sg97
(dp3430
S'A'
p3431
I11
sS'ME'
p3432
I6
sS'RP2'
p3433
I6
sS'E'
p3434
I10
sS'P'
p3435
I9
sS'RP1'
p3436
I6
sS'JP'
p3437
I7
sS'RP_tot'
p3438
I6
sS'TO'
p3439
I6
sS'PA'
p3440
I14
sS'M'
p3441
I9
sS'R'
p3442
I5
sS'TB'
p3443
I7
sS'PL'
p3444
I8
sS'TA'
p3445
I4
ssg211
I0
sg212
I0
sg213
I0
sg214
I0
sg130
F9.620689655172415
sg215
I0
sg216
I0
sg217
I0
sg218
(dp3446
S'A'
p3447
I11
sS'ME'
p3448
I6
sS'RP2'
p3449
I6
sS'E'
p3450
I10
sS'P'
p3451
I9
sS'RP1'
p3452
I6
sS'JP'
p3453
I7
sS'RP_tot'
p3454
I6
sS'TO'
p3455
I6
sS'PA'
p3456
I14
sS'M'
p3457
I9
sS'R'
p3458
I5
sS'TB'
p3459
I7
sS'PL'
p3460
I8
sS'TA'
p3461
I4
ssg235
g3430
sg236
I0
sg237
g31
sg239
I0
sg240
I0
sg241
I0
sg242
I2
sg243
I0
sg244
I0
sg245
S'HE'
p3462
sbssg211
I0
sg212
I0
sg213
I0
sg214
I0
sg56
(dp3463
g141
I0
sg142
I0
sg143
I0
sg144
I0
ssg215
I0
sg216
I0
sg217
I0
sg218
(dp3464
g249
I11
sg250
I6
sg251
I6
sg252
I10
sg253
I6
sg254
I6
sg255
I7
sg256
I6
sg257
I9
sg258
I14
sg259
I9
sg260
I5
sg261
I7
sg262
I8
sg263
I4
ssg235
g3401
sg236
I0
sg237
g31
sg239
I0
sg240
I0
sg241
I0
sg242
I6
sg243
I0
sg244
I0
sg245
S'HE'
p3465
sbsg266
(ijoueur
joueur
p3466
(dp3467
g28
I0
sg32
I0
sg34
I0
sg35
g36
(g37
g38
Ntp3468
Rp3469
(dp3470
g42
I5
sg43
S'**'
p3471
sg45
S'seigneur'
p3472
sbsg47
(dp3473
S'SR'
p3474
I0
sS'CT'
p3475
I0
sS'CR'
p3476
I0
sS'ST'
p3477
I0
ssg53
(dp3478
g3474
I0
sg3475
I0
sg3476
I0
sg3477
I0
ssg62
I0
sg63
I0
sg82
I01
sg65
I0
sg66
I0
sg67
I0
sg68
(S'dummy'
p3479
S'DM'
p3480
g31
g31
tp3481
sg74
I00
sg75
g36
(g37
g38
Ntp3482
Rp3483
(dp3484
g42
I2
sg43
S'^^'
p3485
sg45
S'special'
p3486
sbsg80
(dp3487
g3474
I0
sg3475
I2
sg3476
I14
sg3477
I0
ssg56
(dp3488
g3474
I0
sg3475
I0
sg3476
I0
sg3477
I0
ssg83
(dp3489
g3474
I0
sg3475
I0
sg3476
I0
sg3477
I0
ssg85
(dp3490
g3474
I0
sg3475
I2
sg3476
I14
sg3477
I0
ssg87
I0
sg88
I0
sg89
S'Zimloeth'
p3491
sg91
I11
sg92
I0
sg93
I23
sg94
I23
sg95
S'HTH'
p3492
sg97
(dp3493
S'A'
p3494
I11
sS'ME'
p3495
I6
sS'RP2'
p3496
I6
sS'E'
p3497
I10
sS'P'
p3498
I9
sS'RP1'
p3499
I6
sS'JP'
p3500
I7
sS'RP_tot'
p3501
I6
sS'TO'
p3502
I6
sS'PA'
p3503
I14
sS'M'
p3504
I9
sS'R'
p3505
I5
sS'TB'
p3506
I7
sS'PL'
p3507
I8
sS'TA'
p3508
I4
ssg211
I0
sg212
I0
sg213
I0
sg214
I0
sg130
F9.620689655172415
sg215
I0
sg216
I0
sg217
I0
sg218
(dp3509
S'A'
p3510
I11
sS'ME'
p3511
I6
sS'RP2'
p3512
I6
sS'E'
p3513
I10
sS'P'
p3514
I9
sS'RP1'
p3515
I6
sS'JP'
p3516
I7
sS'RP_tot'
p3517
I6
sS'TO'
p3518
I6
sS'PA'
p3519
I14
sS'M'
p3520
I9
sS'R'
p3521
I5
sS'TB'
p3522
I7
sS'PL'
p3523
I8
sS'TA'
p3524
I4
ssg235
g3493
sg236
I0
sg237
g31
sg239
I0
sg240
I0
sg241
I0
sg242
I2
sg243
I0
sg244
I0
sg245
S'HE'
p3525
sbssg211
I4
sg212
I0
sg213
I0
sg214
I0
sg130
F10.96551724137931
sg215
I0
sg216
I0
sg217
I0
sg218
(dp3526
g330
I11
sg331
I6
sg332
I6
sg333
I10
sg334
I6
sg335
I6
sg336
I7
sg337
I6
sg338
I9
sg339
I14
sg340
I9
sg341
I5
sg342
I7
sg343
I8
sg344
I4
ssg235
(dp3527
g99
I13
sg100
I7
sg101
I9
sg102
I12
sg107
I9
sg104
I7
sg105
I9
sg106
I9
sg103
I8
sg108
I14
sg109
I10
sg110
I6
sg111
I9
sg112
I10
sg113
I5
ssg236
I0
sg346
(dp3528
sg239
I0
sg237
g31
sg240
I0
sg241
I0
sg242
I13
sg243
I0
sg244
I0
sg245
S'HE'
p3529
sbsS'n1'
p3530
(ijoueur
joueur
p3531
(dp3532
g27
F8.172413793103448
sg28
I0
sg29
F8.620689655172415
sg30
g31
sg32
I0
sg33
F21.17512692714172
sg34
I0
sg35
g36
(g37
g38
Ntp3533
Rp3534
(dp3535
g42
I4
sg43
g625
sg45
g626
sbsg47
(dp3536
g628
I1
sg629
I6
sg630
I7
sg631
I0
ssg53
(dp3537
g628
I0
sg629
I0
sg630
I0
sg631
I0
ssg55
I0
sg56
(dp3538
g58
I0
sg59
I2
sg60
I0
sg61
I0
ssg62
I0
sg63
I0
sg64
F21.17512692714172
sg65
I0
sg66
I0
sg67
I0
sg68
(g69
S'TA'
p3539
S'PI'
p3540
g31
tp3541
sg74
I00
sg75
g3534
sg80
(dp3542
g58
I0
sg59
I0
sg60
I0
sg61
I0
ssg82
I00
sg83
(dp3543
g58
I0
sg59
I0
sg60
I0
sg61
I0
ssg85
(dp3544
g628
I7
sg629
I1
sg630
I0
sg631
I0
ssg87
I0
sg88
I0
sg89
S'Jitaeth'
p3545
sg91
I11
sg92
I0
sg93
I26
sg94
I67
sg95
g96
sg97
(dp3546
g644
I9
sg645
I11
sg646
I8
sg647
I12
sg648
I8
sg649
I10
sg650
I6
sg651
I11
sg652
I9
sg653
I10
sg654
I9
sg655
I7
sg656
I4
sg657
I9
sg658
I8
ssg114
(dp3547
g116
(ijoueur
joueur
p3548
(dp3549
g27
F8.172413793103448
sg28
I0
sg30
g31
sg32
I0
sg34
I0
sg35
g36
(g37
g38
Ntp3550
Rp3551
(dp3552
g42
I4
sg43
g665
sg45
g666
sbsg47
(dp3553
g668
I1
sg669
I4
sg670
I7
sg671
I0
ssg53
(dp3554
g668
I0
sg669
I0
sg670
I0
sg671
I0
ssg62
I0
sg130
F8.620689655172415
sg63
I0
sg65
I0
sg66
I0
sg67
I0
sg68
(g131
S'TA'
p3555
S'PI'
p3556
g31
tp3557
sg74
I00
sg75
g36
(g37
g38
Ntp3558
Rp3559
(dp3560
g42
I3
sg43
g2064
sg45
g2065
sbsg80
(dp3561
g141
I7
sg142
I0
sg143
I0
sg144
I0
ssg82
I00
sg83
(dp3562
g141
I0
sg142
I0
sg143
I0
sg144
I0
ssg85
(dp3563
g668
I7
sg669
I1
sg670
I0
sg671
I0
ssg87
I0
sg88
I0
sg89
S'Jitaeth'
p3564
sg91
I11
sg92
I0
sg93
I26
sg94
I32
sg95
g148
sg97
(dp3565
g683
I8
sg684
I10
sg685
I6
sg686
I12
sg687
I6
sg688
I9
sg689
I4
sg690
I9
sg691
I7
sg692
I9
sg693
I9
sg694
I7
sg695
I2
sg696
I8
sg697
I7
ssg114
(dp3566
g166
(ijoueur
joueur
p3567
(dp3568
g28
I0
sg32
I0
sg34
I0
sg35
g36
(g37
g38
Ntp3569
Rp3570
(dp3571
g42
I4
sg43
S'*'
p3572
sg45
S'heros'
p3573
sbsg47
(dp3574
S'SR'
p3575
I1
sS'CT'
p3576
I0
sS'CR'
p3577
I0
sS'ST'
p3578
I0
ssg53
(dp3579
g3575
I0
sg3576
I0
sg3577
I0
sg3578
I0
ssg62
I0
sg63
I0
sg82
I01
sg65
I0
sg66
I0
sg67
I0
sg68
(S'dummy'
p3580
S'TA'
p3581
S'PI'
p3582
g31
tp3583
sg74
I01
sg75
g36
(g37
g38
Ntp3584
Rp3585
(dp3586
g42
I1
sg43
S'>'
p3587
sg45
S'base'
p3588
sbsg80
(dp3589
g3575
I0
sg3576
I1
sg3577
I0
sg3578
I0
ssg56
(dp3590
g3575
I1
sg3576
I0
sg3577
I0
sg3578
I0
ssg83
(dp3591
g3575
I0
sg3576
I0
sg3577
I0
sg3578
I0
ssg85
(dp3592
g3575
I0
sg3576
I1
sg3577
I0
sg3578
I0
ssg87
I0
sg88
I0
sg89
S'Jitaeth'
p3593
sg91
I11
sg92
I0
sg93
I26
sg94
I17
sg95
S'HTH'
p3594
sg97
(dp3595
S'A'
p3596
I9
sS'ME'
p3597
I9
sS'RP2'
p3598
I6
sS'E'
p3599
I10
sS'P'
p3600
I6
sS'RP1'
p3601
I8
sS'JP'
p3602
I4
sS'RP_tot'
p3603
I8
sS'TO'
p3604
I6
sS'PA'
p3605
I8
sS'M'
p3606
I8
sS'R'
p3607
I8
sS'TB'
p3608
I2
sS'PL'
p3609
I7
sS'TA'
p3610
I7
ssg211
I0
sg212
I0
sg213
I0
sg214
I0
sg130
F8.172413793103448
sg215
I0
sg216
I0
sg217
I0
sg218
(dp3611
S'A'
p3612
I9
sS'ME'
p3613
I9
sS'RP2'
p3614
I6
sS'E'
p3615
I10
sS'P'
p3616
I6
sS'RP1'
p3617
I8
sS'JP'
p3618
I4
sS'RP_tot'
p3619
I8
sS'TO'
p3620
I6
sS'PA'
p3621
I8
sS'M'
p3622
I8
sS'R'
p3623
I8
sS'TB'
p3624
I2
sS'PL'
p3625
I7
sS'TA'
p3626
I7
ssg235
g3595
sg236
I0
sg237
g31
sg239
I0
sg240
I0
sg241
I0
sg242
I1
sg243
I0
sg244
I0
sg245
S'HE'
p3627
sbssg211
I3
sg212
I0
sg213
I2
sg214
I0
sg56
(dp3628
g141
I0
sg142
I4
sg143
I7
sg144
I0
ssg215
I0
sg216
I2
sg217
I1
sg218
(dp3629
g759
I9
sg760
I9
sg761
I6
sg762
I10
sg763
I6
sg764
I8
sg765
I4
sg766
I8
sg767
I6
sg768
I8
sg769
I8
sg770
I8
sg771
I2
sg772
I7
sg773
I7
ssg235
g3565
sg236
I0
sg237
g31
sg239
I0
sg240
I0
sg241
I0
sg242
I2
sg243
I0
sg244
I1
sg245
S'HE'
p3630
sbsg266
(ijoueur
joueur
p3631
(dp3632
g28
I0
sg32
I0
sg34
I0
sg35
g36
(g37
g38
Ntp3633
Rp3634
(dp3635
g42
I4
sg43
S'*'
p3636
sg45
S'heros'
p3637
sbsg47
(dp3638
S'SR'
p3639
I1
sS'CT'
p3640
I0
sS'CR'
p3641
I0
sS'ST'
p3642
I0
ssg53
(dp3643
g3639
I0
sg3640
I0
sg3641
I0
sg3642
I0
ssg62
I0
sg63
I0
sg82
I01
sg65
I0
sg66
I0
sg67
I0
sg68
(S'dummy'
p3644
S'TA'
p3645
S'PI'
p3646
g31
tp3647
sg74
I01
sg75
g36
(g37
g38
Ntp3648
Rp3649
(dp3650
g42
I1
sg43
S'>'
p3651
sg45
S'base'
p3652
sbsg80
(dp3653
g3639
I0
sg3640
I1
sg3641
I0
sg3642
I0
ssg56
(dp3654
g3639
I1
sg3640
I0
sg3641
I0
sg3642
I0
ssg83
(dp3655
g3639
I0
sg3640
I0
sg3641
I0
sg3642
I0
ssg85
(dp3656
g3639
I0
sg3640
I1
sg3641
I0
sg3642
I0
ssg87
I0
sg88
I0
sg89
S'Jitaeth'
p3657
sg91
I11
sg92
I0
sg93
I26
sg94
I17
sg95
S'HTH'
p3658
sg97
(dp3659
S'A'
p3660
I9
sS'ME'
p3661
I9
sS'RP2'
p3662
I6
sS'E'
p3663
I10
sS'P'
p3664
I6
sS'RP1'
p3665
I8
sS'JP'
p3666
I4
sS'RP_tot'
p3667
I8
sS'TO'
p3668
I6
sS'PA'
p3669
I8
sS'M'
p3670
I8
sS'R'
p3671
I8
sS'TB'
p3672
I2
sS'PL'
p3673
I7
sS'TA'
p3674
I7
ssg211
I0
sg212
I0
sg213
I0
sg214
I0
sg130
F8.172413793103448
sg215
I0
sg216
I0
sg217
I0
sg218
(dp3675
S'A'
p3676
I9
sS'ME'
p3677
I9
sS'RP2'
p3678
I6
sS'E'
p3679
I10
sS'P'
p3680
I6
sS'RP1'
p3681
I8
sS'JP'
p3682
I4
sS'RP_tot'
p3683
I8
sS'TO'
p3684
I6
sS'PA'
p3685
I8
sS'M'
p3686
I8
sS'R'
p3687
I8
sS'TB'
p3688
I2
sS'PL'
p3689
I7
sS'TA'
p3690
I7
ssg235
g3659
sg236
I0
sg237
g31
sg239
I0
sg240
I0
sg241
I0
sg242
I1
sg243
I0
sg244
I0
sg245
S'HE'
p3691
sbssg211
I3
sg212
I0
sg213
I2
sg214
I0
sg130
F9.379310344827585
sg215
I0
sg216
I0
sg217
I2
sg218
(dp3692
g834
I9
sg835
I9
sg836
I6
sg837
I10
sg838
I6
sg839
I8
sg840
I4
sg841
I8
sg842
I6
sg843
I8
sg844
I8
sg845
I8
sg846
I2
sg847
I7
sg848
I7
ssg235
(dp3693
g644
I9
sg645
I11
sg646
I8
sg647
I12
sg652
I9
sg649
I10
sg650
I6
sg651
I11
sg648
I8
sg653
I10
sg654
I9
sg655
I7
sg656
I4
sg657
I9
sg658
I8
ssg236
I0
sg346
(dp3694
sg239
I0
sg237
g31
sg240
I0
sg241
I0
sg242
I5
sg243
I0
sg244
I1
sg245
S'HE'
p3695
sbsS'n2'
p3696
(ijoueur
joueur
p3697
(dp3698
g27
F10.689655172413794
sg28
I0
sg29
F10.793103448275861
sg30
g31
sg32
I0
sg33
F21.17512692714172
sg34
I0
sg35
g36
(g37
g38
Ntp3699
Rp3700
(dp3701
g42
I5
sg43
S'**'
p3702
sg45
g46
sbsg47
(dp3703
g628
I0
sg629
I0
sg630
I0
sg631
I0
ssg53
(dp3704
g628
I0
sg629
I0
sg630
I0
sg631
I0
ssg55
I0
sg56
(dp3705
g58
I0
sg59
I0
sg60
I0
sg61
I0
ssg62
I0
sg63
I0
sg64
F21.17512692714172
sg65
I0
sg66
I0
sg67
I0
sg68
(g69
S'TA'
p3706
g31
g31
tp3707
sg74
I00
sg75
g36
(g37
g38
Ntp3708
Rp3709
(dp3710
g42
I5
sg43
S'**'
p3711
sg45
g46
sbsg80
(dp3712
g58
I0
sg59
I2
sg60
I0
sg61
I0
ssg82
I00
sg83
(dp3713
g58
I0
sg59
I0
sg60
I0
sg61
I0
ssg85
(dp3714
g628
I13
sg629
I31
sg630
I0
sg631
I1
ssg87
I0
sg88
I0
sg89
S'Uurghizul'
p3715
sg91
I6
sg92
I0
sg93
I15
sg94
I120
sg95
g96
sg97
(dp3716
g644
I12
sg645
I12
sg646
I7
sg647
I11
sg648
I8
sg649
I9
sg650
I2
sg651
I9
sg652
I3
sg653
I8
sg654
I7
sg655
I13
sg656
I1
sg657
I9
sg658
I11
ssg114
(dp3717
g116
(ijoueur
joueur
p3718
(dp3719
g27
F10.689655172413794
sg28
I0
sg30
g31
sg32
I0
sg34
I0
sg35
g36
(g37
g38
Ntp3720
Rp3721
(dp3722
g42
I5
sg43
S'**'
p3723
sg45
g123
sbsg47
(dp3724
g668
I0
sg669
I0
sg670
I0
sg671
I0
ssg53
(dp3725
g668
I0
sg669
I0
sg670
I0
sg671
I0
ssg62
I0
sg130
F10.793103448275861
sg63
I0
sg65
I2
sg66
I0
sg67
I0
sg68
(g131
S'TA'
p3726
g31
g31
tp3727
sg74
I00
sg75
g36
(g37
g38
Ntp3728
Rp3729
(dp3730
g42
I5
sg43
S'**'
p3731
sg45
g123
sbsg80
(dp3732
g141
I5
sg142
I14
sg143
I0
sg144
I1
ssg82
I00
sg83
(dp3733
g141
I0
sg142
I0
sg143
I0
sg144
I0
ssg85
(dp3734
g668
I13
sg669
I29
sg670
I0
sg671
I1
ssg87
I0
sg88
I0
sg89
S'Uurghizul'
p3735
sg91
I6
sg92
I0
sg93
I15
sg94
I120
sg95
g148
sg97
(dp3736
g683
I12
sg684
I12
sg685
I7
sg686
I11
sg687
I3
sg688
I9
sg689
I2
sg690
I9
sg691
I8
sg692
I8
sg693
I7
sg694
I13
sg695
I1
sg696
I9
sg697
I11
ssg114
(dp3737
g166
(ijoueur
joueur
p3738
(dp3739
g28
I0
sg32
I0
sg34
I0
sg35
g36
(g37
g38
Ntp3740
Rp3741
(dp3742
g42
I5
sg43
S'**'
p3743
sg45
S'seigneur'
p3744
sbsg47
(dp3745
S'SR'
p3746
I0
sS'CT'
p3747
I0
sS'CR'
p3748
I0
sS'ST'
p3749
I0
ssg53
(dp3750
g3746
I0
sg3747
I0
sg3748
I0
sg3749
I0
ssg62
I0
sg63
I0
sg82
I00
sg65
I1
sg66
I0
sg67
I0
sg68
(S'dummy'
p3751
S'TA'
p3752
g31
g31
tp3753
sg74
I00
sg75
g36
(g37
g38
Ntp3754
Rp3755
(dp3756
g42
I5
sg43
S'**'
p3757
sg45
g3744
sbsg80
(dp3758
g3746
I7
sg3747
I15
sg3748
I0
sg3749
I0
ssg56
(dp3759
g3746
I0
sg3747
I0
sg3748
I0
sg3749
I0
ssg83
(dp3760
g3746
I0
sg3747
I0
sg3748
I0
sg3749
I0
ssg85
(dp3761
g3746
I7
sg3747
I15
sg3748
I0
sg3749
I0
ssg87
I0
sg88
I0
sg89
S'Uurghizul'
p3762
sg91
I6
sg92
I0
sg93
I15
sg94
I120
sg95
S'HTH'
p3763
sg97
(dp3764
S'A'
p3765
I11
sS'ME'
p3766
I11
sS'RP2'
p3767
I7
sS'E'
p3768
I11
sS'P'
p3769
I3
sS'RP1'
p3770
I9
sS'JP'
p3771
I2
sS'RP_tot'
p3772
I9
sS'TO'
p3773
I8
sS'PA'
p3774
I8
sS'M'
p3775
I7
sS'R'
p3776
I12
sS'TB'
p3777
I1
sS'PL'
p3778
I10
sS'TA'
p3779
I12
ssg211
I0
sg212
I0
sg213
I1
sg214
I0
sg130
F10.689655172413794
sg215
I0
sg216
I1
sg217
I1
sg218
(dp3780
S'A'
p3781
I11
sS'ME'
p3782
I11
sS'RP2'
p3783
I7
sS'E'
p3784
I11
sS'P'
p3785
I3
sS'RP1'
p3786
I9
sS'JP'
p3787
I2
sS'RP_tot'
p3788
I9
sS'TO'
p3789
I8
sS'PA'
p3790
I8
sS'M'
p3791
I7
sS'R'
p3792
I12
sS'TB'
p3793
I1
sS'PL'
p3794
I10
sS'TA'
p3795
I12
ssg235
g3764
sg236
I0
sg237
g31
sg239
I0
sg240
I0
sg241
I0
sg242
I12
sg243
I9
sg244
I1
sg245
S'HB'
p3796
sbssg211
I2
sg212
I0
sg213
I1
sg214
I0
sg56
(dp3797
g141
I0
sg142
I0
sg143
I0
sg144
I0
ssg215
I0
sg216
I0
sg217
I1
sg218
(dp3798
g759
I11
sg760
I11
sg761
I7
sg762
I11
sg763
I8
sg764
I9
sg765
I2
sg766
I9
sg767
I3
sg768
I8
sg769
I7
sg770
I12
sg771
I1
sg772
I10
sg773
I12
ssg235
g3736
sg236
I0
sg237
g31
sg239
I0
sg240
I0
sg241
I0
sg242
I12
sg243
I11
sg244
I0
sg245
S'HB'
p3799
sbsg266
(ijoueur
joueur
p3800
(dp3801
g28
I0
sg32
I0
sg34
I0
sg35
g36
(g37
g38
Ntp3802
Rp3803
(dp3804
g42
I5
sg43
S'**'
p3805
sg45
S'seigneur'
p3806
sbsg47
(dp3807
S'SR'
p3808
I0
sS'CT'
p3809
I0
sS'CR'
p3810
I0
sS'ST'
p3811
I0
ssg53
(dp3812
g3808
I0
sg3809
I0
sg3810
I0
sg3811
I0
ssg62
I0
sg63
I0
sg82
I00
sg65
I1
sg66
I0
sg67
I0
sg68
(S'dummy'
p3813
S'TA'
p3814
g31
g31
tp3815
sg74
I00
sg75
g36
(g37
g38
Ntp3816
Rp3817
(dp3818
g42
I5
sg43
S'**'
p3819
sg45
g3806
sbsg80
(dp3820
g3808
I7
sg3809
I15
sg3810
I0
sg3811
I0
ssg56
(dp3821
g3808
I0
sg3809
I0
sg3810
I0
sg3811
I0
ssg83
(dp3822
g3808
I0
sg3809
I0
sg3810
I0
sg3811
I0
ssg85
(dp3823
g3808
I7
sg3809
I15
sg3810
I0
sg3811
I0
ssg87
I0
sg88
I0
sg89
S'Uurghizul'
p3824
sg91
I6
sg92
I0
sg93
I15
sg94
I120
sg95
S'HTH'
p3825
sg97
(dp3826
S'A'
p3827
I11
sS'ME'
p3828
I11
sS'RP2'
p3829
I7
sS'E'
p3830
I11
sS'P'
p3831
I3
sS'RP1'
p3832
I9
sS'JP'
p3833
I2
sS'RP_tot'
p3834
I9
sS'TO'
p3835
I8
sS'PA'
p3836
I8
sS'M'
p3837
I7
sS'R'
p3838
I12
sS'TB'
p3839
I1
sS'PL'
p3840
I10
sS'TA'
p3841
I12
ssg211
I0
sg212
I0
sg213
I1
sg214
I0
sg130
F10.689655172413794
sg215
I0
sg216
I1
sg217
I1
sg218
(dp3842
S'A'
p3843
I11
sS'ME'
p3844
I11
sS'RP2'
p3845
I7
sS'E'
p3846
I11
sS'P'
p3847
I3
sS'RP1'
p3848
I9
sS'JP'
p3849
I2
sS'RP_tot'
p3850
I9
sS'TO'
p3851
I8
sS'PA'
p3852
I8
sS'M'
p3853
I7
sS'R'
p3854
I12
sS'TB'
p3855
I1
sS'PL'
p3856
I10
sS'TA'
p3857
I12
ssg235
g3826
sg236
I0
sg237
g31
sg239
I0
sg240
I0
sg241
I0
sg242
I12
sg243
I9
sg244
I1
sg245
S'HB'
p3858
sbssg211
I4
sg212
I0
sg213
I1
sg214
I0
sg130
F10.793103448275861
sg215
I0
sg216
I0
sg217
I1
sg218
(dp3859
g834
I11
sg835
I11
sg836
I7
sg837
I11
sg838
I8
sg839
I9
sg840
I2
sg841
I9
sg842
I3
sg843
I8
sg844
I7
sg845
I12
sg846
I1
sg847
I10
sg848
I12
ssg235
(dp3860
g644
I12
sg645
I12
sg646
I7
sg647
I11
sg652
I3
sg649
I9
sg650
I2
sg651
I9
sg648
I8
sg653
I8
sg654
I7
sg655
I13
sg656
I1
sg657
I9
sg658
I11
ssg236
I0
sg346
(dp3861
sg239
I0
sg237
g31
sg240
I0
sg241
I0
sg242
I12
sg243
I11
sg244
I0
sg245
S'HB'
p3862
sbsS'n3'
p3863
g351
sS'n4'
p3864
g620
sS'n5'
p3865
g859
sS'n6'
p3866
(ijoueur
joueur
p3867
(dp3868
g27
F10.0
sg28
I0
sg29
F10.448275862068966
sg30
g31
sg32
I0
sg33
F21.17512692714172
sg34
I0
sg35
g36
(g37
g38
Ntp3869
Rp3870
(dp3871
g42
I5
sg43
S'xx'
p3872
sg45
g46
sbsg47
(dp3873
g628
I3
sg629
I25
sg630
I2
sg631
I1
ssg53
(dp3874
g628
I0
sg629
I0
sg630
I0
sg631
I0
ssg55
I0
sg56
(dp3875
g58
I0
sg59
I2
sg60
I0
sg61
I0
ssg62
I0
sg63
I0
sg64
F21.17512692714172
sg65
I0
sg66
I0
sg67
I0
sg68
(g69
S'N8'
p3876
S'TL'
p3877
g31
tp3878
sg74
I00
sg75
g36
(g37
g38
Ntp3879
Rp3880
(dp3881
g42
I5
sg43
S'xx'
p3882
sg45
g46
sbsg80
(dp3883
g58
I0
sg59
I0
sg60
I0
sg61
I0
ssg82
I00
sg83
(dp3884
g58
I0
sg59
I0
sg60
I0
sg61
I0
ssg85
(dp3885
g628
I7
sg629
I0
sg630
I1
sg631
I0
ssg87
I0
sg88
I0
sg89
S'Mredug'
p3886
sg91
I6
sg92
I0
sg93
I13
sg94
I190
sg95
g96
sg97
(dp3887
g644
I7
sg645
I11
sg646
I7
sg647
I10
sg648
I9
sg649
I9
sg650
I4
sg651
I9
sg652
I4
sg653
I7
sg654
I7
sg655
I12
sg656
I4
sg657
I13
sg658
I5
ssg114
(dp3888
g116
(ijoueur
joueur
p3889
(dp3890
g27
F10.0
sg28
I0
sg30
g31
sg32
I0
sg34
I0
sg35
g36
(g37
g38
Ntp3891
Rp3892
(dp3893
g42
I5
sg43
S'xx'
p3894
sg45
g123
sbsg47
(dp3895
g668
I3
sg669
I23
sg670
I2
sg671
I1
ssg53
(dp3896
g668
I0
sg669
I0
sg670
I0
sg671
I0
ssg62
I0
sg130
F10.448275862068966
sg63
I0
sg65
I0
sg66
I0
sg67
I0
sg68
(g131
S'N8'
p3897
S'TL'
p3898
g31
tp3899
sg74
I00
sg75
g36
(g37
g38
Ntp3900
Rp3901
(dp3902
g42
I5
sg43
S'xx'
p3903
sg45
g123
sbsg80
(dp3904
g141
I4
sg142
I0
sg143
I0
sg144
I0
ssg82
I01
sg83
(dp3905
g141
I0
sg142
I0
sg143
I0
sg144
I0
ssg85
(dp3906
g668
I7
sg669
I0
sg670
I1
sg671
I0
ssg87
I0
sg88
I0
sg89
S'Mredug'
p3907
sg91
I6
sg92
I0
sg93
I13
sg94
I190
sg95
g148
sg97
(dp3908
g683
I7
sg684
I11
sg685
I7
sg686
I10
sg687
I4
sg688
I9
sg689
I4
sg690
I9
sg691
I9
sg692
I7
sg693
I8
sg694
I12
sg695
I4
sg696
I13
sg697
I5
ssg114
(dp3909
g166
(ijoueur
joueur
p3910
(dp3911
g28
I0
sg32
I0
sg34
I0
sg35
g36
(g37
g38
Ntp3912
Rp3913
(dp3914
g42
I5
sg43
S'xx'
p3915
sg45
S'seigneur'
p3916
sbsg47
(dp3917
S'SR'
p3918
I2
sS'CT'
p3919
I10
sS'CR'
p3920
I2
sS'ST'
p3921
I0
ssg53
(dp3922
g3918
I0
sg3919
I0
sg3920
I0
sg3921
I0
ssg62
I0
sg63
I0
sg82
I01
sg65
I0
sg66
I0
sg67
I0
sg68
(S'dummy'
p3923
S'N8'
p3924
S'TL'
p3925
g31
tp3926
sg74
I00
sg75
g36
(g37
g38
Ntp3927
Rp3928
(dp3929
g42
I5
sg43
S'xx'
p3930
sg45
g3916
sbsg80
(dp3931
g3918
I3
sg3919
I0
sg3920
I1
sg3921
I0
ssg56
(dp3932
g3918
I2
sg3919
I10
sg3920
I2
sg3921
I0
ssg83
(dp3933
g3918
I0
sg3919
I0
sg3920
I0
sg3921
I0
ssg85
(dp3934
g3918
I3
sg3919
I0
sg3920
I1
sg3921
I0
ssg87
I0
sg88
I0
sg89
S'Mredug'
p3935
sg91
I6
sg92
I0
sg93
I13
sg94
I190
sg95
S'HTH'
p3936
sg97
(dp3937
S'A'
p3938
I7
sS'ME'
p3939
I9
sS'RP2'
p3940
I6
sS'E'
p3941
I10
sS'P'
p3942
I4
sS'RP1'
p3943
I9
sS'JP'
p3944
I4
sS'RP_tot'
p3945
I9
sS'TO'
p3946
I7
sS'PA'
p3947
I7
sS'M'
p3948
I8
sS'R'
p3949
I11
sS'TB'
p3950
I4
sS'PL'
p3951
I13
sS'TA'
p3952
I5
ssg211
I0
sg212
I0
sg213
I0
sg214
I0
sg130
F10.0
sg215
I0
sg216
I0
sg217
I0
sg218
(dp3953
S'A'
p3954
I7
sS'ME'
p3955
I9
sS'RP2'
p3956
I6
sS'E'
p3957
I10
sS'P'
p3958
I4
sS'RP1'
p3959
I9
sS'JP'
p3960
I4
sS'RP_tot'
p3961
I9
sS'TO'
p3962
I7
sS'PA'
p3963
I7
sS'M'
p3964
I8
sS'R'
p3965
I11
sS'TB'
p3966
I4
sS'PL'
p3967
I13
sS'TA'
p3968
I5
ssg235
g3937
sg236
I0
sg237
S'FS 11'
p3969
sg239
I0
sg240
I0
sg241
I0
sg242
I9
sg243
I4
sg244
I0
sg245
S'O'
p3970
sbssg211
I3
sg212
I0
sg213
I0
sg214
I0
sg56
(dp3971
g141
I1
sg142
I13
sg143
I0
sg144
I1
ssg215
I0
sg216
I0
sg217
I0
sg218
(dp3972
g759
I7
sg760
I9
sg761
I6
sg762
I10
sg763
I7
sg764
I9
sg765
I4
sg766
I9
sg767
I4
sg768
I7
sg769
I8
sg770
I11
sg771
I4
sg772
I13
sg773
I5
ssg235
g3908
sg236
I0
sg237
S'FS 11'
p3973
sg239
I0
sg240
I0
sg241
I0
sg242
I9
sg243
I4
sg244
I0
sg245
S'O'
p3974
sbsg266
(ijoueur
joueur
p3975
(dp3976
g28
I0
sg32
I0
sg34
I0
sg35
g36
(g37
g38
Ntp3977
Rp3978
(dp3979
g42
I5
sg43
S'xx'
p3980
sg45
S'seigneur'
p3981
sbsg47
(dp3982
S'SR'
p3983
I2
sS'CT'
p3984
I10
sS'CR'
p3985
I2
sS'ST'
p3986
I0
ssg53
(dp3987
g3983
I0
sg3984
I0
sg3985
I0
sg3986
I0
ssg62
I0
sg63
I0
sg82
I01
sg65
I0
sg66
I0
sg67
I0
sg68
(S'dummy'
p3988
S'N8'
p3989
S'TL'
p3990
g31
tp3991
sg74
I00
sg75
g36
(g37
g38
Ntp3992
Rp3993
(dp3994
g42
I5
sg43
S'xx'
p3995
sg45
g3981
sbsg80
(dp3996
g3983
I3
sg3984
I0
sg3985
I1
sg3986
I0
ssg56
(dp3997
g3983
I2
sg3984
I10
sg3985
I2
sg3986
I0
ssg83
(dp3998
g3983
I0
sg3984
I0
sg3985
I0
sg3986
I0
ssg85
(dp3999
g3983
I3
sg3984
I0
sg3985
I1
sg3986
I0
ssg87
I0
sg88
I0
sg89
S'Mredug'
p4000
sg91
I6
sg92
I0
sg93
I13
sg94
I190
sg95
S'HTH'
p4001
sg97
(dp4002
S'A'
p4003
I7
sS'ME'
p4004
I9
sS'RP2'
p4005
I6
sS'E'
p4006
I10
sS'P'
p4007
I4
sS'RP1'
p4008
I9
sS'JP'
p4009
I4
sS'RP_tot'
p4010
I9
sS'TO'
p4011
I7
sS'PA'
p4012
I7
sS'M'
p4013
I8
sS'R'
p4014
I11
sS'TB'
p4015
I4
sS'PL'
p4016
I13
sS'TA'
p4017
I5
ssg211
I0
sg212
I0
sg213
I0
sg214
I0
sg130
F10.0
sg215
I0
sg216
I0
sg217
I0
sg218
(dp4018
S'A'
p4019
I7
sS'ME'
p4020
I9
sS'RP2'
p4021
I6
sS'E'
p4022
I10
sS'P'
p4023
I4
sS'RP1'
p4024
I9
sS'JP'
p4025
I4
sS'RP_tot'
p4026
I9
sS'TO'
p4027
I7
sS'PA'
p4028
I7
sS'M'
p4029
I8
sS'R'
p4030
I11
sS'TB'
p4031
I4
sS'PL'
p4032
I13
sS'TA'
p4033
I5
ssg235
g4002
sg236
I0
sg237
S'FS 11'
p4034
sg239
I0
sg240
I0
sg241
I0
sg242
I9
sg243
I4
sg244
I0
sg245
S'O'
p4035
sbssg211
I6
sg212
I0
sg213
I0
sg214
I0
sg130
F10.413793103448276
sg215
I0
sg216
I0
sg217
I0
sg218
(dp4036
g834
I7
sg835
I9
sg836
I6
sg837
I10
sg838
I7
sg839
I9
sg840
I4
sg841
I9
sg842
I4
sg843
I7
sg844
I8
sg845
I11
sg846
I4
sg847
I13
sg848
I5
ssg235
(dp4037
g644
I7
sg645
I11
sg646
I7
sg647
I10
sg652
I4
sg649
I9
sg650
I4
sg651
I9
sg648
I9
sg653
I7
sg654
I7
sg655
I12
sg656
I4
sg657
I13
sg658
I5
ssg236
I0
sg346
(dp4038
sg239
I0
sg237
S'FS 11'
p4039
sg240
I0
sg241
I0
sg242
I9
sg243
I4
sg244
I0
sg245
S'O'
p4040
sbsS'n7'
p4041
g1267
ssS'remplacements'
p4042
(dp4043
g2199
S'n0'
p4044
sg2458
g4044
sg2807
g4044
sg2808
g4044
sg2977
g4044
sg3017
g4044
sg3192
g4044
ssb.