(iclub
compo
p0
(dp1
S'caracs_old'
p2
(dp3
S'A'
p4
F154.75
sS'ME'
p5
F85.25
sS'E'
p6
F194.5
sS'OplusAV'
p7
F87.75
sS'TO_off'
p8
F116.75
sS'OplusAR'
p9
F99.0
sS'M'
p10
F105.5
sS'JP'
p11
F94.75
sS'OmoinsAR'
p12
F94.25
sS'PA'
p13
F105.25
sS'TO_def'
p14
F109.5
sS'OmoinsAV'
p15
F99.75
sS'R'
p16
F163.5
ssS'totaux_old'
p17
(dp18
S'T2'
p19
F177.5
sS'T3'
p20
F97.25
sS'T1'
p21
F181.0
ssS'roles'
p22
(dp23
S'SA_scd'
p24
(ijoueur
joueur
p25
(dp26
S'rouges_total'
p27
I0
sS'EV_saison_12'
p28
F8.735294117647058
sS'changements_postes'
p29
S''
p30
sS'drops_total'
p31
I0
sS'xp_total'
p32
I0
sS'poste3'
p33
g30
sS'blessure'
p34
I0
sS'poste1'
p35
g30
sS'RG_max'
p36
ccopy_reg
_reconstructor
p37
(cjoueur
rang_new
p38
c__builtin__
object
p39
Ntp40
Rp41
(dp42
S'type_nb'
p43
I4
sS'rang'
p44
S'*'
p45
sS'type'
p46
S'heros'
p47
sbsS'MJ2_total'
p48
(dp49
S'SR'
p50
I0
sS'CT'
p51
I0
sS'CR'
p52
I0
sS'ST'
p53
I0
ssS'MJ3_total'
p54
(dp55
g50
I0
sg51
I0
sg52
I0
sg53
I0
ssS'xp'
p56
I0
sS'anciens_clubs'
p57
g30
sS'drop_rates_saison'
p58
I0
sS'xp_saison'
p59
I0
sS'MS_probleme'
p60
I00
sS'essais_saison'
p61
I0
sS'penalite_ratees_saison'
p62
I0
sS'transformations_saison'
p63
I0
sS'club'
p64
S'SN'
p65
sS'veut_partir'
p66
I00
sS'RG'
p67
g37
(g38
g39
Ntp68
Rp69
(dp70
g43
I2
sg44
S'^^'
p71
sg46
S'special'
p72
sbsS'MJ1'
p73
(dp74
S'SR'
p75
I0
sS'CT'
p76
I0
sS'CR'
p77
I0
sS'ST'
p78
I0
ssS'MJ2'
p79
(dp80
g75
I0
sg76
I0
sg77
I0
sg78
I0
ssS'MJ3'
p81
(dp82
g75
I0
sg76
I0
sg77
I0
sg78
I0
ssS'MJ1_total'
p83
(dp84
g50
I0
sg51
I0
sg52
I2
sg53
I0
ssS'penalites_total'
p85
I0
sS'penalites_saison'
p86
I0
sS'nom'
p87
S'Nahor'
p88
sS'C'
p89
I12
sS'transformations_total'
p90
I0
sS'D'
p91
I25
sS'VAL'
p92
I30
sS'postes'
p93
(S'dummy'
p94
S'DL'
p95
S'PI'
p96
S'TL'
p97
tp98
sS'poste2'
p99
g30
sS'caracs'
p100
(dp101
S'RP1'
p102
I9
sS'ME'
p103
I10
sS'RP2'
p104
I8
sS'E'
p105
I8
sS'TO'
p106
I10
sS'M'
p107
I9
sS'JP'
p108
I4
sS'RP_tot'
p109
I10
sS'P'
p110
I4
sS'PA'
p111
I9
sS'A'
p112
I10
sS'R'
p113
I8
sS'TB'
p114
I4
sS'PL'
p115
I10
sS'TA'
p116
I1
ssS'jj_passe'
p117
(dp118
S's12'
p119
(ijoueur
joueur
p120
(dp121
g27
I0
sg29
g30
sg31
I0
sg33
g30
sg34
I0
sg35
g30
sg36
g37
(g38
g39
Ntp122
Rp123
(dp124
g43
I4
sg44
S'*'
p125
sg46
S'heros'
p126
sbsg48
(dp127
S'SR'
p128
I0
sS'CT'
p129
I0
sS'CR'
p130
I0
sS'ST'
p131
I0
ssg54
(dp132
g128
I0
sg129
I0
sg130
I0
sg131
I0
ssg79
(dp133
g128
I0
sg129
I0
sg130
I0
sg131
I0
ssg57
g30
sg58
I0
sg61
I0
sg62
I0
sg63
I0
sg64
S'SN'
p134
sg66
I00
sg67
g37
(g38
g39
Ntp135
Rp136
(dp137
g43
I1
sg44
S'^'
p138
sg46
S'base'
p139
sbsg73
(dp140
g128
I0
sg129
I0
sg130
I2
sg131
I0
ssg60
I01
sg81
(dp141
g128
I0
sg129
I0
sg130
I0
sg131
I0
ssg83
(dp142
g128
I0
sg129
I0
sg130
I2
sg131
I0
ssg85
I0
sg86
I0
sg87
S'Nahor (12)'
p143
sg89
I12
sg90
I0
sg91
I25
sg92
I9
sg93
(S'dummy'
p144
S'DL'
p145
S'PI'
p146
S'TL'
p147
tp148
sg99
g30
sg100
(dp149
S'RP1'
p150
I8
sS'ME'
p151
I10
sS'RP2'
p152
I8
sS'E'
p153
I8
sS'P'
p154
I4
sS'JP'
p155
I4
sS'M'
p156
I8
sS'RP_tot'
p157
I10
sS'TO'
p158
I9
sS'PA'
p159
I8
sS'A'
p160
I9
sS'R'
p161
I8
sS'TB'
p162
I4
sS'PL'
p163
I9
sS'TA'
p164
I1
ssg117
(dp165
sS'fatigue'
p166
I0
sS'drop_ratees_total'
p167
I0
sS'blessures_total'
p168
I0
sS'XP'
p169
I0
sS'EV'
p170
F8.735294117647058
sS'penalite_ratees_total'
p171
I0
sS'blessures_saison'
p172
I0
sS'jaunes_total'
p173
I0
sS'caracs_sans_fatigue'
p174
g149
sS'rouges_saison'
p175
I0
sS'transformation_ratees_total'
p176
I0
sS'drops_saison'
p177
I0
sS'transformation_ratees_saison'
p178
I0
sS'MS'
p179
I0
sS'essais_total'
p180
I0
sS'jaunes_saison'
p181
I0
sS'ARM'
p182
S'EN'
p183
sbssg166
I0
sg167
I0
sg168
I0
sg169
I0
sg170
F9.294117647058824
sg171
I0
sg172
I0
sg173
I0
sg174
(dp184
g102
I9
sg103
I10
sg104
I8
sg105
I8
sg110
I4
sg108
I4
sg107
I9
sg109
I10
sg106
I10
sg111
I9
sg112
I10
sg113
I8
sg114
I4
sg115
I10
sg116
I1
ssg175
I0
sS'caracs_saison_12'
p185
(dp186
sg176
I0
sg177
I0
sg178
I0
sg179
I2
sg180
I0
sg181
I0
sg182
S'EN'
p187
sbsS'RJL'
p188
(ijoueur
joueur
p189
(dp190
S'EV_saison_11'
p191
F10.517241379310345
sg27
I0
sg28
F10.206896551724139
sg29
g30
sg31
I4
sg32
F31.966126218602312
sg34
I0
sg36
g37
(g38
g39
Ntp192
Rp193
(dp194
g43
I5
sg44
S'**'
p195
sg46
S'seigneur'
p196
sbsg48
(dp197
S'SR'
p198
I0
sS'CT'
p199
I4
sS'CR'
p200
I5
sS'ST'
p201
I0
ssg54
(dp202
g198
I0
sg199
I0
sg200
I0
sg201
I0
ssg56
I0
sS'drop_rates_total'
p203
I1
sg58
I0
sg59
F31.966126218602312
sg60
I00
sg61
I0
sg62
I0
sg63
I0
sg93
(S'dummy'
p204
S'DM'
p205
S'DO'
p206
g30
tp207
sg66
I00
sg67
g37
(g38
g39
Ntp208
Rp209
(dp210
g43
I5
sg44
S'**'
p211
sg46
g196
sbsg73
(dp212
g75
I0
sg76
I0
sg77
I3
sg78
I0
ssg79
(dp213
g75
I0
sg76
I0
sg77
I0
sg78
I0
ssg81
(dp214
g75
I0
sg76
I0
sg77
I0
sg78
I0
ssg83
(dp215
g198
I0
sg199
I14
sg200
I10
sg201
I0
ssg85
I0
sS'carton_jaunes_saison'
p216
I1
sg86
I0
sg87
S'Ludalr'
p217
sg89
I6
sg90
I0
sg91
I14
sg92
I207
sg64
g65
sS'carton_jaunes_total'
p218
I1
sg100
(dp219
S'A'
p220
I8
sS'ME'
p221
I5
sS'RP2'
p222
I10
sS'E'
p223
I11
sS'TO'
p224
I9
sS'RP1'
p225
I8
sS'JP'
p226
I11
sS'RP_tot'
p227
I11
sS'P'
p228
I11
sS'PA'
p229
I11
sS'M'
p230
I8
sS'R'
p231
I5
sS'TB'
p232
I9
sS'PL'
p233
I9
sS'TA'
p234
I4
ssg117
(dp235
S's12'
p236
(ijoueur
joueur
p237
(dp238
g191
F10.517241379310345
sg27
I0
sg29
g30
sg31
I4
sg34
I0
sg36
g37
(g38
g39
Ntp239
Rp240
(dp241
g43
I5
sg44
S'**'
p242
sg46
S'seigneur'
p243
sbsg48
(dp244
S'SR'
p245
I0
sS'CT'
p246
I4
sS'CR'
p247
I5
sS'ST'
p248
I0
ssg54
(dp249
g245
I0
sg246
I0
sg247
I0
sg248
I0
ssg79
(dp250
S'SR'
p251
I0
sS'CT'
p252
I3
sS'CR'
p253
I5
sS'ST'
p254
I0
ssg203
I1
sg58
I0
sg61
I2
sg62
I0
sg63
I0
sg93
(S'dummy'
p255
S'DM'
p256
S'DO'
p257
g30
tp258
sg66
I01
sg67
g37
(g38
g39
Ntp259
Rp260
(dp261
g43
I5
sg44
S'**'
p262
sg46
g243
sbsg73
(dp263
g251
I0
sg252
I0
sg253
I7
sg254
I0
ssg60
I00
sg81
(dp264
g251
I0
sg252
I0
sg253
I0
sg254
I0
ssg83
(dp265
g245
I0
sg246
I14
sg247
I7
sg248
I0
ssg85
I0
sg216
I1
sg86
I0
sg87
S'Ludalr (12)'
p266
sg89
I6
sg90
I0
sg91
I14
sg92
I126
sg64
S'TO'
p267
sg218
I1
sg100
(dp268
S'A'
p269
I9
sS'ME'
p270
I5
sS'RP2'
p271
I10
sS'E'
p272
I11
sS'P'
p273
I11
sS'RP1'
p274
I8
sS'JP'
p275
I11
sS'RP_tot'
p276
I11
sS'TO'
p277
I9
sS'PA'
p278
I11
sS'M'
p279
I8
sS'R'
p280
I6
sS'TB'
p281
I9
sS'PL'
p282
I10
sS'TA'
p283
I4
ssg117
(dp284
S's11'
p285
(ijoueur
joueur
p286
(dp287
g27
I0
sg31
I2
sg34
I0
sg36
g37
(g38
g39
Ntp288
Rp289
(dp290
g43
I5
sg44
S'**'
p291
sg46
S'seigneur'
p292
sbsg48
(dp293
S'SR'
p294
I0
sS'CT'
p295
I1
sS'CR'
p296
I0
sS'ST'
p297
I0
ssg54
(dp298
g294
I0
sg295
I0
sg296
I0
sg297
I0
ssg203
I1
sg58
I1
sg60
I00
sg61
I0
sg62
I0
sg63
I0
sg93
(S'dummy'
p299
S'DM'
p300
S'DO'
p301
g30
tp302
sg66
I00
sg67
g37
(g38
g39
Ntp303
Rp304
(dp305
g43
I5
sg44
S'**'
p306
sg46
g292
sbsg73
(dp307
g294
I0
sg295
I14
sg296
I0
sg297
I0
ssg79
(dp308
g294
I0
sg295
I1
sg296
I0
sg297
I0
ssg81
(dp309
g294
I0
sg295
I0
sg296
I0
sg297
I0
ssg83
(dp310
g294
I0
sg295
I14
sg296
I0
sg297
I0
ssg85
I0
sg216
I1
sg86
I0
sg87
S'Ludalr'
p311
sg89
I6
sg90
I0
sg91
I14
sg92
I126
sg64
S'TO'
p312
sg218
I1
sg100
(dp313
S'A'
p314
I9
sS'ME'
p315
I5
sS'RP2'
p316
I10
sS'E'
p317
I11
sS'P'
p318
I12
sS'RP1'
p319
I8
sS'JP'
p320
I11
sS'RP_tot'
p321
I11
sS'TO'
p322
I9
sS'PA'
p323
I12
sS'M'
p324
I8
sS'R'
p325
I6
sS'TB'
p326
I8
sS'PL'
p327
I10
sS'TA'
p328
I4
ssg166
I0
sg167
I0
sg168
I0
sg169
I0
sg170
F10.517241379310345
sg171
I0
sg172
I0
sg173
I2
sS'caracs_saison_11'
p329
(dp330
S'A'
p331
I9
sS'ME'
p332
I5
sS'RP2'
p333
I10
sS'E'
p334
I11
sS'P'
p335
I12
sS'RP1'
p336
I8
sS'JP'
p337
I11
sS'RP_tot'
p338
I11
sS'TO'
p339
I9
sS'PA'
p340
I12
sS'M'
p341
I8
sS'R'
p342
I6
sS'TB'
p343
I8
sS'PL'
p344
I10
sS'TA'
p345
I4
ssg174
g313
sg175
I0
sg57
g30
sg176
I0
sg177
I1
sg178
I0
sg179
I14
sg180
I7
sg181
I2
sg182
S'S'
p346
sbssg166
I0
sg167
I0
sg168
I0
sg169
I0
sg170
F10.206896551724139
sg171
I0
sg172
I0
sg173
I2
sg329
(dp347
S'A'
p348
I9
sS'ME'
p349
I5
sS'RP2'
p350
I10
sS'E'
p351
I11
sS'TO'
p352
I9
sS'RP1'
p353
I8
sS'JP'
p354
I11
sS'RP_tot'
p355
I11
sS'P'
p356
I12
sS'PA'
p357
I12
sS'M'
p358
I8
sS'R'
p359
I6
sS'TB'
p360
I8
sS'PL'
p361
I10
sS'TA'
p362
I4
ssg174
g268
sg175
I0
sg57
g30
sg176
I0
sg177
I2
sg178
I0
sg179
I14
sg180
I9
sg181
I0
sg182
S'S'
p363
sbsS's11'
p364
(ijoueur
joueur
p365
(dp366
g27
I0
sg31
I2
sg34
I0
sg36
g37
(g38
g39
Ntp367
Rp368
(dp369
g43
I5
sg44
S'**'
p370
sg46
S'seigneur'
p371
sbsg48
(dp372
S'SR'
p373
I0
sS'CT'
p374
I1
sS'CR'
p375
I0
sS'ST'
p376
I0
ssg54
(dp377
g373
I0
sg374
I0
sg375
I0
sg376
I0
ssg203
I1
sg58
I1
sg60
I00
sg61
I0
sg62
I0
sg63
I0
sg93
(S'dummy'
p378
S'DM'
p379
S'DO'
p380
g30
tp381
sg66
I00
sg67
g37
(g38
g39
Ntp382
Rp383
(dp384
g43
I5
sg44
S'**'
p385
sg46
g371
sbsg73
(dp386
g373
I0
sg374
I14
sg375
I0
sg376
I0
ssg79
(dp387
g373
I0
sg374
I1
sg375
I0
sg376
I0
ssg81
(dp388
g373
I0
sg374
I0
sg375
I0
sg376
I0
ssg83
(dp389
g373
I0
sg374
I14
sg375
I0
sg376
I0
ssg85
I0
sg216
I1
sg86
I0
sg87
S'Ludalr (11)'
p390
sg89
I6
sg90
I0
sg91
I14
sg92
I126
sg64
S'TO'
p391
sg218
I1
sg100
(dp392
S'A'
p393
I9
sS'ME'
p394
I5
sS'RP2'
p395
I10
sS'E'
p396
I11
sS'P'
p397
I12
sS'RP1'
p398
I8
sS'JP'
p399
I11
sS'RP_tot'
p400
I11
sS'TO'
p401
I9
sS'PA'
p402
I12
sS'M'
p403
I8
sS'R'
p404
I6
sS'TB'
p405
I8
sS'PL'
p406
I10
sS'TA'
p407
I4
ssg166
I0
sg167
I0
sg168
I0
sg169
I0
sg170
F10.517241379310345
sg171
I0
sg172
I0
sg173
I2
sg329
(dp408
S'A'
p409
I9
sS'ME'
p410
I5
sS'RP2'
p411
I10
sS'E'
p412
I11
sS'P'
p413
I12
sS'RP1'
p414
I8
sS'JP'
p415
I11
sS'RP_tot'
p416
I11
sS'TO'
p417
I9
sS'PA'
p418
I12
sS'M'
p419
I8
sS'R'
p420
I6
sS'TB'
p421
I8
sS'PL'
p422
I10
sS'TA'
p423
I4
ssg174
g392
sg175
I0
sg57
g30
sg176
I0
sg177
I1
sg178
I0
sg179
I14
sg180
I7
sg181
I2
sg182
S'S'
p424
sbssg166
I4
sg167
I0
sg168
I0
sg169
I0
sg170
F9.96551724137931
sg171
I0
sg172
I0
sg173
I2
sg329
(dp425
S'A'
p426
I9
sS'ME'
p427
I5
sS'RP2'
p428
I10
sS'E'
p429
I11
sS'TO'
p430
I9
sS'RP1'
p431
I8
sS'JP'
p432
I11
sS'RP_tot'
p433
I11
sS'P'
p434
I12
sS'PA'
p435
I12
sS'M'
p436
I8
sS'R'
p437
I6
sS'TB'
p438
I8
sS'PL'
p439
I10
sS'TA'
p440
I4
ssg174
(dp441
g220
I8
sg221
I5
sg222
I10
sg223
I11
sg228
I11
sg225
I8
sg226
I11
sg227
I11
sg224
I9
sg229
I11
sg230
I8
sg231
I5
sg232
I9
sg233
I9
sg234
I4
ssg175
I0
sg185
(dp442
sg176
I0
sg57
S'TO 13'
p443
sg177
I0
sg178
I0
sg179
I12
sg180
I9
sg181
I0
sg182
S'S'
p444
sbsS'cap'
p445
(ijoueur
joueur
p446
(dp447
g191
F9.368421052631579
sg27
I1
sg28
F12.263157894736842
sg29
g30
sg31
I3
sg32
F31.966126218602312
sg34
I0
sg36
g37
(g38
g39
Ntp448
Rp449
(dp450
g43
I5
sg44
S'**'
p451
sg46
S'seigneur'
p452
sbsg48
(dp453
S'SR'
p454
I0
sS'ST'
p455
I0
sS'CR'
p456
I8
sS'CT'
p457
I0
ssg54
(dp458
g454
I0
sg455
I0
sg456
I0
sg457
I0
ssg56
I0
sg79
(dp459
S'SR'
p460
I0
sS'CT'
p461
I0
sS'CR'
p462
I0
sS'ST'
p463
I0
ssg203
I0
sg58
I0
sg59
F31.966126218602312
sg61
I0
sg62
I0
sg63
I0
sg93
(S'dummy'
p464
S'TL'
p465
S'N8'
p466
g30
tp467
sg66
I00
sg67
g449
sg73
(dp468
g460
I0
sg461
I3
sg462
I0
sg463
I0
ssg60
I00
sg81
(dp469
g460
I0
sg461
I0
sg462
I0
sg463
I0
ssg83
(dp470
g454
I0
sg455
I7
sg456
I3
sg457
I19
ssg85
I0
sg86
I0
sg87
S'Xarmaod'
p471
sg89
I11
sg90
I0
sg91
I24
sg92
I253
sg64
S'SN'
p472
sg100
(dp473
S'A'
p474
I16
sS'ME'
p475
I9
sS'RP2'
p476
I9
sS'E'
p477
I14
sS'P'
p478
I9
sS'RP1'
p479
I10
sS'JP'
p480
I10
sS'RP_tot'
p481
I11
sS'TO'
p482
I15
sS'PA'
p483
I12
sS'M'
p484
I10
sS'R'
p485
I9
sS'TB'
p486
I11
sS'PL'
p487
I13
sS'TA'
p488
I6
ssg117
(dp489
S's12'
p490
(ijoueur
joueur
p491
(dp492
g191
F9.368421052631579
sg27
I1
sg29
g30
sg31
I3
sg34
I0
sg36
g37
(g38
g39
Ntp493
Rp494
(dp495
g43
I5
sg44
S'**'
p496
sg46
S'seigneur'
p497
sbsg48
(dp498
S'SR'
p499
I0
sS'ST'
p500
I0
sS'CR'
p501
I8
sS'CT'
p502
I0
ssg54
(dp503
g499
I0
sg500
I0
sg501
I0
sg502
I0
ssg203
I0
sg170
F12.263157894736842
sg58
I0
sg61
I4
sg62
I0
sg63
I0
sg93
(S'dummy'
p504
S'TL'
p505
S'N8'
p506
g30
tp507
sg66
I00
sg67
g494
sg73
(dp508
S'SR'
p509
I0
sS'CT'
p510
I14
sS'CR'
p511
I0
sS'ST'
p512
I7
ssg60
I01
sg81
(dp513
g509
I0
sg510
I0
sg511
I0
sg512
I0
ssg83
(dp514
g499
I0
sg500
I7
sg501
I3
sg502
I16
ssg85
I0
sg86
I0
sg87
S'Xarmaod'
p515
sg89
I11
sg90
I0
sg91
I24
sg92
I253
sg64
S'SN'
p516
sg100
(dp517
S'A'
p518
I16
sS'ME'
p519
I9
sS'RP2'
p520
I9
sS'E'
p521
I14
sS'TO'
p522
I15
sS'RP1'
p523
I10
sS'JP'
p524
I10
sS'RP_tot'
p525
I12
sS'P'
p526
I10
sS'PA'
p527
I12
sS'M'
p528
I10
sS'R'
p529
I9
sS'TB'
p530
I10
sS'PL'
p531
I13
sS'TA'
p532
I6
ssg117
(dp533
S's11'
p534
(ijoueur
joueur
p535
(dp536
g27
I0
sg31
I0
sg34
I0
sg36
g37
(g38
g39
Ntp537
Rp538
(dp539
g43
I5
sg44
S'**'
p540
sg46
S'seigneur'
p541
sbsg48
(dp542
S'SR'
p543
I0
sS'CT'
p544
I0
sS'CR'
p545
I8
sS'ST'
p546
I0
ssg54
(dp547
g543
I0
sg544
I0
sg545
I0
sg546
I0
ssg203
I0
sg58
I0
sg60
I01
sg61
I0
sg62
I0
sg63
I0
sg93
(S'dummy'
p548
S'TL'
p549
S'N8'
p550
g30
tp551
sg66
I00
sg67
g37
(g38
g39
Ntp552
Rp553
(dp554
g43
I3
sg44
S'^^^'
p555
sg46
S'rare'
p556
sbsg73
(dp557
g543
I0
sg544
I2
sg545
I3
sg546
I0
ssg79
(dp558
g543
I0
sg544
I0
sg545
I8
sg546
I0
ssg81
(dp559
g543
I0
sg544
I0
sg545
I0
sg546
I0
ssg83
(dp560
g543
I0
sg544
I2
sg545
I3
sg546
I0
ssg85
I0
sg86
I0
sg87
S'Xarmaod'
p561
sg89
I11
sg90
I0
sg91
I24
sg92
I16
sg64
S'SN'
p562
sg100
(dp563
S'A'
p564
I11
sS'ME'
p565
I9
sS'RP2'
p566
I6
sS'E'
p567
I12
sS'P'
p568
I5
sS'RP1'
p569
I9
sS'JP'
p570
I5
sS'RP_tot'
p571
I9
sS'TO'
p572
I10
sS'PA'
p573
I7
sS'M'
p574
I9
sS'R'
p575
I8
sS'TB'
p576
I4
sS'PL'
p577
I9
sS'TA'
p578
I6
ssg166
I0
sg167
I0
sg168
I1
sg169
I0
sg170
F9.368421052631579
sg171
I0
sg172
I1
sg173
I0
sg329
(dp579
S'A'
p580
I11
sS'ME'
p581
I9
sS'RP2'
p582
I6
sS'E'
p583
I12
sS'P'
p584
I5
sS'RP1'
p585
I9
sS'JP'
p586
I5
sS'RP_tot'
p587
I9
sS'TO'
p588
I10
sS'PA'
p589
I7
sS'M'
p590
I9
sS'R'
p591
I8
sS'TB'
p592
I4
sS'PL'
p593
I9
sS'TA'
p594
I6
ssg174
g563
sg175
I0
sg57
g30
sg176
I0
sg177
I0
sg178
I0
sg179
I2
sg180
I0
sg181
I0
sg182
S'EN'
p595
sbssg166
I4
sg167
I0
sg168
I1
sg169
I0
sg79
(dp596
g509
I0
sg510
I0
sg511
I0
sg512
I0
ssg171
I0
sg172
I0
sg173
I1
sg329
(dp597
S'A'
p598
I11
sS'ME'
p599
I9
sS'RP2'
p600
I6
sS'E'
p601
I12
sS'P'
p602
I5
sS'RP1'
p603
I9
sS'JP'
p604
I5
sS'RP_tot'
p605
I9
sS'TO'
p606
I10
sS'PA'
p607
I7
sS'M'
p608
I9
sS'R'
p609
I8
sS'TB'
p610
I4
sS'PL'
p611
I9
sS'TA'
p612
I6
ssg174
g517
sg175
I1
sg57
g30
sg176
I0
sg177
I3
sg178
I0
sg179
I25
sg180
I4
sg181
I1
sg182
S'EN'
p613
sbsS's11'
p614
(ijoueur
joueur
p615
(dp616
g27
I0
sg31
I0
sg34
I0
sg36
g37
(g38
g39
Ntp617
Rp618
(dp619
g43
I5
sg44
S'**'
p620
sg46
S'seigneur'
p621
sbsg48
(dp622
S'SR'
p623
I0
sS'CT'
p624
I0
sS'CR'
p625
I8
sS'ST'
p626
I0
ssg54
(dp627
g623
I0
sg624
I0
sg625
I0
sg626
I0
ssg203
I0
sg58
I0
sg60
I01
sg61
I0
sg62
I0
sg63
I0
sg93
(S'dummy'
p628
S'TL'
p629
S'N8'
p630
g30
tp631
sg66
I00
sg67
g37
(g38
g39
Ntp632
Rp633
(dp634
g43
I3
sg44
S'^^^'
p635
sg46
S'rare'
p636
sbsg73
(dp637
g623
I0
sg624
I2
sg625
I3
sg626
I0
ssg79
(dp638
g623
I0
sg624
I0
sg625
I8
sg626
I0
ssg81
(dp639
g623
I0
sg624
I0
sg625
I0
sg626
I0
ssg83
(dp640
g623
I0
sg624
I2
sg625
I3
sg626
I0
ssg85
I0
sg86
I0
sg87
S'Xarmaod'
p641
sg89
I11
sg90
I0
sg91
I24
sg92
I16
sg64
S'SN'
p642
sg100
(dp643
S'A'
p644
I11
sS'ME'
p645
I9
sS'RP2'
p646
I6
sS'E'
p647
I12
sS'P'
p648
I5
sS'RP1'
p649
I9
sS'JP'
p650
I5
sS'RP_tot'
p651
I9
sS'TO'
p652
I10
sS'PA'
p653
I7
sS'M'
p654
I9
sS'R'
p655
I8
sS'TB'
p656
I4
sS'PL'
p657
I9
sS'TA'
p658
I6
ssg166
I0
sg167
I0
sg168
I1
sg169
I0
sg170
F9.368421052631579
sg171
I0
sg172
I1
sg173
I0
sg329
(dp659
S'A'
p660
I11
sS'ME'
p661
I9
sS'RP2'
p662
I6
sS'E'
p663
I12
sS'P'
p664
I5
sS'RP1'
p665
I9
sS'JP'
p666
I5
sS'RP_tot'
p667
I9
sS'TO'
p668
I10
sS'PA'
p669
I7
sS'M'
p670
I9
sS'R'
p671
I8
sS'TB'
p672
I4
sS'PL'
p673
I9
sS'TA'
p674
I6
ssg174
g643
sg175
I0
sg57
g30
sg176
I0
sg177
I0
sg178
I0
sg179
I2
sg180
I0
sg181
I0
sg182
S'EN'
p675
sbssg166
I5
sg167
I0
sg168
I1
sg169
I0
sg170
F12.157894736842104
sg171
I0
sg172
I0
sg173
I1
sg329
(dp676
S'A'
p677
I11
sS'ME'
p678
I9
sS'RP2'
p679
I6
sS'E'
p680
I12
sS'P'
p681
I5
sS'RP1'
p682
I9
sS'JP'
p683
I5
sS'RP_tot'
p684
I9
sS'TO'
p685
I10
sS'PA'
p686
I7
sS'M'
p687
I9
sS'R'
p688
I8
sS'TB'
p689
I4
sS'PL'
p690
I9
sS'TA'
p691
I6
ssg174
(dp692
g474
I16
sg475
I9
sg476
I9
sg477
I14
sg482
I15
sg479
I10
sg480
I10
sg481
I11
sg478
I9
sg483
I12
sg484
I10
sg485
I9
sg486
I11
sg487
I13
sg488
I6
ssg175
I0
sg185
(dp693
sg176
I0
sg57
g30
sg177
I0
sg178
I0
sg179
I25
sg180
I4
sg181
I0
sg182
S'EN'
p694
sbsS'B4'
p695
(ijoueur
joueur
p696
(dp697
g191
F10.21875
sg27
I0
sg28
F10.09375
sg29
g30
sg31
I11
sg32
F10.615691961382563
sg34
I0
sg36
g37
(g38
g39
Ntp698
Rp699
(dp700
g43
I5
sg44
S'**'
p701
sg46
S'seigneur'
p702
sbsg48
(dp703
S'SR'
p704
I0
sS'ST'
p705
I0
sS'CR'
p706
I5
sS'CT'
p707
I2
ssg54
(dp708
g704
I3
sg705
I0
sg706
I6
sg707
I16
ssg56
I0
sg203
I0
sg58
I0
sg59
F10.615691961382563
sg60
I00
sg61
I0
sg62
I0
sg63
I0
sg93
(S'dummy'
p709
S'C1'
p710
S'DO'
p711
S'DM'
p712
tp713
sg66
I00
sg67
g37
(g38
g39
Ntp714
Rp715
(dp716
g43
I5
sg44
S'**'
p717
sg46
g702
sbsg73
(dp718
g75
I0
sg76
I0
sg77
I0
sg78
I0
ssg79
(dp719
g75
I0
sg76
I0
sg77
I0
sg78
I0
ssg81
(dp720
g75
I0
sg76
I1
sg77
I0
sg78
I0
ssg83
(dp721
g704
I0
sg705
I0
sg706
I1
sg707
I0
ssg85
I10
sg86
I0
sg87
S'Ridk'
p722
sg89
I3
sg90
I0
sg91
I13
sg92
I90
sg64
g65
sg100
(dp723
S'A'
p724
I10
sS'ME'
p725
I4
sS'RP2'
p726
I9
sS'E'
p727
I10
sS'P'
p728
I10
sS'RP1'
p729
I6
sS'JP'
p730
I9
sS'RP_tot'
p731
I9
sS'TO'
p732
I7
sS'PA'
p733
I13
sS'M'
p734
I9
sS'R'
p735
I7
sS'TB'
p736
I11
sS'PL'
p737
I10
sS'TA'
p738
I4
ssg117
(dp739
g119
(ijoueur
joueur
p740
(dp741
g191
F10.21875
sg27
I0
sg29
g30
sg31
I11
sg34
I0
sg36
g37
(g38
g39
Ntp742
Rp743
(dp744
g43
I5
sg44
S'**'
p745
sg46
S'seigneur'
p746
sbsg48
(dp747
S'SR'
p748
I0
sS'ST'
p749
I0
sS'CR'
p750
I5
sS'CT'
p751
I2
ssg54
(dp752
g748
I3
sg749
I0
sg750
I6
sg751
I15
ssg79
(dp753
S'SR'
p754
I0
sS'CT'
p755
I2
sS'CR'
p756
I5
sS'ST'
p757
I0
ssg203
I0
sg58
I0
sg61
I0
sg62
I1
sg63
I0
sg93
(S'dummy'
p758
S'C1'
p759
S'DO'
p760
S'DM'
p761
tp762
sg66
I00
sg67
g37
(g38
g39
Ntp763
Rp764
(dp765
g43
I5
sg44
S'**'
p766
sg46
g746
sbsg73
(dp767
g754
I0
sg755
I0
sg756
I1
sg757
I0
ssg60
I01
sg81
(dp768
g754
I2
sg755
I3
sg756
I6
sg757
I0
ssg83
(dp769
g748
I0
sg749
I0
sg750
I1
sg751
I0
ssg85
I10
sg86
I9
sg87
S'Ridk (12)'
p770
sg89
I3
sg90
I0
sg91
I13
sg92
I90
sg64
g134
sg100
(dp771
S'A'
p772
I11
sS'ME'
p773
I4
sS'RP2'
p774
I9
sS'E'
p775
I10
sS'TO'
p776
I7
sS'RP1'
p777
I6
sS'JP'
p778
I9
sS'RP_tot'
p779
I9
sS'P'
p780
I10
sS'PA'
p781
I13
sS'M'
p782
I9
sS'R'
p783
I7
sS'TB'
p784
I11
sS'PL'
p785
I10
sS'TA'
p786
I4
ssg117
(dp787
S's11'
p788
(ijoueur
joueur
p789
(dp790
g27
I0
sg31
I11
sg34
I0
sg36
g37
(g38
g39
Ntp791
Rp792
(dp793
g43
I5
sg44
S'**'
p794
sg46
S'seigneur'
p795
sbsg48
(dp796
S'SR'
p797
I0
sS'CT'
p798
I0
sS'CR'
p799
I0
sS'ST'
p800
I0
ssg54
(dp801
g797
I0
sg798
I12
sg799
I0
sg800
I0
ssg203
I0
sg58
I0
sg60
I01
sg61
I0
sg62
I0
sg63
I0
sg93
(S'dummy'
p802
S'C1'
p803
S'DO'
p804
S'DM'
p805
tp806
sg66
I00
sg67
g37
(g38
g39
Ntp807
Rp808
(dp809
g43
I5
sg44
S'**'
p810
sg46
g795
sbsg73
(dp811
g797
I0
sg798
I0
sg799
I0
sg800
I0
ssg79
(dp812
g797
I0
sg798
I0
sg799
I0
sg800
I0
ssg81
(dp813
g797
I0
sg798
I12
sg799
I0
sg800
I0
ssg83
(dp814
g797
I0
sg798
I0
sg799
I0
sg800
I0
ssg85
I1
sg86
I0
sg87
S'Ridk'
p815
sg89
I3
sg90
I0
sg91
I13
sg92
I90
sg64
S'SN'
p816
sg100
(dp817
S'A'
p818
I11
sS'ME'
p819
I4
sS'RP2'
p820
I9
sS'E'
p821
I10
sS'P'
p822
I10
sS'RP1'
p823
I7
sS'JP'
p824
I10
sS'RP_tot'
p825
I9
sS'TO'
p826
I7
sS'PA'
p827
I13
sS'M'
p828
I9
sS'R'
p829
I8
sS'TB'
p830
I11
sS'PL'
p831
I10
sS'TA'
p832
I4
ssg166
I0
sg167
I0
sg168
I0
sg169
I0
sg170
F10.21875
sg171
I0
sg172
I0
sg173
I0
sg329
(dp833
S'A'
p834
I11
sS'ME'
p835
I4
sS'RP2'
p836
I9
sS'E'
p837
I10
sS'P'
p838
I10
sS'RP1'
p839
I7
sS'JP'
p840
I10
sS'RP_tot'
p841
I9
sS'TO'
p842
I7
sS'PA'
p843
I13
sS'M'
p844
I9
sS'R'
p845
I8
sS'TB'
p846
I11
sS'PL'
p847
I10
sS'TA'
p848
I4
ssg174
g817
sg175
I0
sg57
g30
sg176
I0
sg177
I0
sg178
I0
sg179
I9
sg180
I17
sg181
I0
sg182
S'S'
p849
sbssg166
I1
sg167
I0
sg168
I0
sg169
I0
sg170
F10.09375
sg171
I1
sg172
I0
sg173
I0
sg329
(dp850
S'A'
p851
I11
sS'ME'
p852
I4
sS'RP2'
p853
I9
sS'E'
p854
I10
sS'P'
p855
I10
sS'RP1'
p856
I7
sS'JP'
p857
I10
sS'RP_tot'
p858
I9
sS'TO'
p859
I7
sS'PA'
p860
I13
sS'M'
p861
I9
sS'R'
p862
I8
sS'TB'
p863
I11
sS'PL'
p864
I10
sS'TA'
p865
I4
ssg174
g771
sg175
I0
sg57
g30
sg176
I0
sg177
I0
sg178
I0
sg179
I9
sg180
I17
sg181
I0
sg182
S'S'
p866
sbsS's11'
p867
(ijoueur
joueur
p868
(dp869
g27
I0
sg31
I11
sg34
I0
sg36
g37
(g38
g39
Ntp870
Rp871
(dp872
g43
I5
sg44
S'**'
p873
sg46
S'seigneur'
p874
sbsg48
(dp875
S'SR'
p876
I0
sS'CT'
p877
I0
sS'CR'
p878
I0
sS'ST'
p879
I0
ssg54
(dp880
g876
I0
sg877
I12
sg878
I0
sg879
I0
ssg203
I0
sg58
I0
sg60
I01
sg61
I0
sg62
I0
sg63
I0
sg93
(S'dummy'
p881
S'C1'
p882
S'DO'
p883
S'DM'
p884
tp885
sg66
I00
sg67
g37
(g38
g39
Ntp886
Rp887
(dp888
g43
I5
sg44
S'**'
p889
sg46
g874
sbsg73
(dp890
g876
I0
sg877
I0
sg878
I0
sg879
I0
ssg79
(dp891
g876
I0
sg877
I0
sg878
I0
sg879
I0
ssg81
(dp892
g876
I0
sg877
I12
sg878
I0
sg879
I0
ssg83
(dp893
g876
I0
sg877
I0
sg878
I0
sg879
I0
ssg85
I1
sg86
I0
sg87
S'Ridk (11)'
p894
sg89
I3
sg90
I0
sg91
I13
sg92
I90
sg64
S'SN'
p895
sg100
(dp896
S'A'
p897
I11
sS'ME'
p898
I4
sS'RP2'
p899
I9
sS'E'
p900
I10
sS'P'
p901
I10
sS'RP1'
p902
I7
sS'JP'
p903
I10
sS'RP_tot'
p904
I9
sS'TO'
p905
I7
sS'PA'
p906
I13
sS'M'
p907
I9
sS'R'
p908
I8
sS'TB'
p909
I11
sS'PL'
p910
I10
sS'TA'
p911
I4
ssg166
I0
sg167
I0
sg168
I0
sg169
I0
sg170
F10.21875
sg171
I0
sg172
I0
sg173
I0
sg329
(dp912
S'A'
p913
I11
sS'ME'
p914
I4
sS'RP2'
p915
I9
sS'E'
p916
I10
sS'P'
p917
I10
sS'RP1'
p918
I7
sS'JP'
p919
I10
sS'RP_tot'
p920
I9
sS'TO'
p921
I7
sS'PA'
p922
I13
sS'M'
p923
I9
sS'R'
p924
I8
sS'TB'
p925
I11
sS'PL'
p926
I10
sS'TA'
p927
I4
ssg174
g896
sg175
I0
sg57
g30
sg176
I0
sg177
I0
sg178
I0
sg179
I9
sg180
I17
sg181
I0
sg182
S'S'
p928
sbssg166
I3
sg167
I0
sg168
I0
sg169
I0
sg170
F9.96875
sg171
I1
sg172
I0
sg173
I0
sg329
(dp929
S'A'
p930
I11
sS'ME'
p931
I4
sS'RP2'
p932
I9
sS'E'
p933
I10
sS'P'
p934
I10
sS'RP1'
p935
I7
sS'JP'
p936
I10
sS'RP_tot'
p937
I9
sS'TO'
p938
I7
sS'PA'
p939
I13
sS'M'
p940
I9
sS'R'
p941
I8
sS'TB'
p942
I11
sS'PL'
p943
I10
sS'TA'
p944
I4
ssg174
(dp945
g724
I10
sg725
I4
sg726
I9
sg727
I10
sg732
I7
sg729
I6
sg730
I9
sg731
I9
sg728
I10
sg733
I13
sg734
I9
sg735
I7
sg736
I11
sg737
I10
sg738
I4
ssg175
I0
sg185
(dp946
sg176
I0
sg57
g30
sg177
I0
sg178
I0
sg179
I9
sg180
I17
sg181
I0
sg182
S'S'
p947
sbsS'RJC'
p948
g189
sS'B1'
p949
g696
sS'B2'
p950
g696
sS'B3'
p951
g696
sS'SA_pcp2'
p952
(ijoueur
joueur
p953
(dp954
g27
I0
sg29
g30
sg31
I0
sg32
F31.966126218602312
sg33
g30
sg34
I0
sg35
g30
sg36
g37
(g38
g39
Ntp955
Rp956
(dp957
g43
I5
sg44
S'**'
p958
sg46
S'seigneur'
p959
sbsg48
(dp960
S'SR'
p961
I0
sS'ST'
p962
I0
sS'CR'
p963
I0
sS'CT'
p964
I0
ssg54
(dp965
g961
I0
sg962
I0
sg963
I0
sg964
I0
ssg56
I0
sg57
g30
sg58
I0
sg59
F31.966126218602312
sg61
I0
sg62
I0
sg63
I0
sg64
g65
sg67
g37
(g38
g39
Ntp966
Rp967
(dp968
g43
I2
sg44
S'^^'
p969
sg46
S'special'
p970
sbsg73
(dp971
g961
I0
sg962
I0
sg963
I3
sg964
I0
ssg79
(dp972
g961
I0
sg962
I0
sg963
I0
sg964
I0
ssg81
(dp973
g961
I0
sg962
I0
sg963
I0
sg964
I0
ssg83
(dp974
g961
I0
sg962
I0
sg963
I3
sg964
I0
ssg85
I0
sg86
I0
sg87
S'Smarlaoth'
p975
sg89
I13
sg90
I0
sg91
I23
sg92
I50
sg93
(S'dummy'
p976
S'DL'
p977
g30
g30
tp978
sg99
g30
sg100
(dp979
S'RP1'
p980
I8
sS'ME'
p981
I8
sS'RP2'
p982
I6
sS'E'
p983
I10
sS'P'
p984
I5
sS'JP'
p985
I4
sS'M'
p986
I9
sS'RP_tot'
p987
I8
sS'TO'
p988
I12
sS'PA'
p989
I9
sS'A'
p990
I11
sS'R'
p991
I9
sS'TB'
p992
I4
sS'PL'
p993
I9
sS'TA'
p994
I3
ssg166
I5
sg167
I0
sg168
I0
sg169
I0
sg170
F9.617647058823529
sg171
I0
sg172
I0
sg173
I0
sg174
(dp995
g980
I8
sg981
I8
sg982
I6
sg983
I10
sg988
I12
sg986
I9
sg985
I4
sg987
I8
sg984
I5
sg989
I9
sg990
I11
sg991
I9
sg992
I4
sg993
I9
sg994
I3
ssg175
I0
sg176
I0
sg177
I0
sg178
I0
sg179
I5
sg180
I0
sg181
I0
sg182
S'EN'
p996
sbsS'SA_pcp1'
p997
(ijoueur
joueur
p998
(dp999
g191
F9.368421052631579
sg27
I1
sg28
F12.263157894736842
sg29
g30
sg31
I3
sg32
F31.966126218602312
sg34
I0
sg36
g37
(g38
g39
Ntp1000
Rp1001
(dp1002
g43
I5
sg44
S'**'
p1003
sg46
g702
sbsg48
(dp1004
g704
I0
sg705
I0
sg706
I8
sg707
I0
ssg54
(dp1005
g704
I0
sg705
I0
sg706
I0
sg707
I0
ssg56
I0
sg203
I0
sg58
I0
sg59
F31.966126218602312
sg60
I00
sg61
I0
sg62
I0
sg63
I0
sg93
(g709
S'TL'
p1006
S'N8'
p1007
g30
tp1008
sg66
I00
sg67
g1001
sg73
(dp1009
g75
I0
sg76
I3
sg77
I0
sg78
I0
ssg79
(dp1010
g75
I0
sg76
I0
sg77
I0
sg78
I0
ssg81
(dp1011
g75
I0
sg76
I0
sg77
I0
sg78
I0
ssg83
(dp1012
g704
I0
sg705
I7
sg706
I3
sg707
I19
ssg85
I0
sg86
I0
sg87
S'Xarmaod'
p1013
sg89
I11
sg90
I0
sg91
I24
sg92
I253
sg64
g65
sg100
(dp1014
g724
I16
sg725
I9
sg726
I9
sg727
I14
sg728
I9
sg729
I10
sg730
I10
sg731
I11
sg732
I15
sg733
I12
sg734
I10
sg735
I9
sg736
I11
sg737
I13
sg738
I6
ssg117
(dp1015
g119
(ijoueur
joueur
p1016
(dp1017
g191
F9.368421052631579
sg27
I1
sg29
g30
sg31
I3
sg34
I0
sg36
g37
(g38
g39
Ntp1018
Rp1019
(dp1020
g43
I5
sg44
S'**'
p1021
sg46
g746
sbsg48
(dp1022
g748
I0
sg749
I0
sg750
I8
sg751
I0
ssg54
(dp1023
g748
I0
sg749
I0
sg750
I0
sg751
I0
ssg79
(dp1024
g754
I0
sg755
I0
sg756
I0
sg757
I0
ssg203
I0
sg58
I0
sg61
I4
sg62
I0
sg63
I0
sg93
(g758
S'TL'
p1025
S'N8'
p1026
g30
tp1027
sg66
I00
sg67
g1019
sg73
(dp1028
g754
I0
sg755
I14
sg756
I0
sg757
I7
ssg60
I01
sg81
(dp1029
g754
I0
sg755
I0
sg756
I0
sg757
I0
ssg83
(dp1030
g748
I0
sg749
I7
sg750
I3
sg751
I16
ssg85
I0
sg86
I0
sg87
S'Xarmaod (12)'
p1031
sg89
I11
sg90
I0
sg91
I24
sg92
I253
sg64
g134
sg100
(dp1032
g772
I16
sg773
I9
sg774
I9
sg775
I14
sg776
I15
sg777
I10
sg778
I10
sg779
I11
sg780
I10
sg781
I12
sg782
I10
sg783
I9
sg784
I10
sg785
I13
sg786
I6
ssg117
(dp1033
g788
(ijoueur
joueur
p1034
(dp1035
g27
I0
sg31
I0
sg34
I0
sg36
g37
(g38
g39
Ntp1036
Rp1037
(dp1038
g43
I5
sg44
S'**'
p1039
sg46
S'seigneur'
p1040
sbsg48
(dp1041
S'SR'
p1042
I0
sS'CT'
p1043
I0
sS'CR'
p1044
I8
sS'ST'
p1045
I0
ssg54
(dp1046
g1042
I0
sg1043
I0
sg1044
I0
sg1045
I0
ssg203
I0
sg58
I0
sg60
I01
sg61
I0
sg62
I0
sg63
I0
sg93
(S'dummy'
p1047
S'TL'
p1048
S'N8'
p1049
g30
tp1050
sg66
I00
sg67
g37
(g38
g39
Ntp1051
Rp1052
(dp1053
g43
I3
sg44
S'^^^'
p1054
sg46
S'rare'
p1055
sbsg73
(dp1056
g1042
I0
sg1043
I2
sg1044
I3
sg1045
I0
ssg79
(dp1057
g1042
I0
sg1043
I0
sg1044
I8
sg1045
I0
ssg81
(dp1058
g1042
I0
sg1043
I0
sg1044
I0
sg1045
I0
ssg83
(dp1059
g1042
I0
sg1043
I2
sg1044
I3
sg1045
I0
ssg85
I0
sg86
I0
sg87
S'Xarmaod'
p1060
sg89
I11
sg90
I0
sg91
I24
sg92
I16
sg64
S'SN'
p1061
sg100
(dp1062
S'A'
p1063
I11
sS'ME'
p1064
I9
sS'RP2'
p1065
I6
sS'E'
p1066
I12
sS'P'
p1067
I5
sS'RP1'
p1068
I9
sS'JP'
p1069
I5
sS'RP_tot'
p1070
I9
sS'TO'
p1071
I10
sS'PA'
p1072
I7
sS'M'
p1073
I9
sS'R'
p1074
I8
sS'TB'
p1075
I4
sS'PL'
p1076
I9
sS'TA'
p1077
I6
ssg166
I0
sg167
I0
sg168
I1
sg169
I0
sg170
F9.368421052631579
sg171
I0
sg172
I1
sg173
I0
sg329
(dp1078
S'A'
p1079
I11
sS'ME'
p1080
I9
sS'RP2'
p1081
I6
sS'E'
p1082
I12
sS'P'
p1083
I5
sS'RP1'
p1084
I9
sS'JP'
p1085
I5
sS'RP_tot'
p1086
I9
sS'TO'
p1087
I10
sS'PA'
p1088
I7
sS'M'
p1089
I9
sS'R'
p1090
I8
sS'TB'
p1091
I4
sS'PL'
p1092
I9
sS'TA'
p1093
I6
ssg174
g1062
sg175
I0
sg57
g30
sg176
I0
sg177
I0
sg178
I0
sg179
I2
sg180
I0
sg181
I0
sg182
S'EN'
p1094
sbssg166
I4
sg167
I0
sg168
I1
sg169
I0
sg170
F12.263157894736842
sg171
I0
sg172
I0
sg173
I1
sg329
(dp1095
g851
I11
sg852
I9
sg853
I6
sg854
I12
sg855
I5
sg856
I9
sg857
I5
sg858
I9
sg859
I10
sg860
I7
sg861
I9
sg862
I8
sg863
I4
sg864
I9
sg865
I6
ssg174
g1032
sg175
I1
sg57
g30
sg176
I0
sg177
I3
sg178
I0
sg179
I25
sg180
I4
sg181
I1
sg182
S'EN'
p1096
sbsg867
(ijoueur
joueur
p1097
(dp1098
g27
I0
sg31
I0
sg34
I0
sg36
g37
(g38
g39
Ntp1099
Rp1100
(dp1101
g43
I5
sg44
S'**'
p1102
sg46
S'seigneur'
p1103
sbsg48
(dp1104
S'SR'
p1105
I0
sS'CT'
p1106
I0
sS'CR'
p1107
I8
sS'ST'
p1108
I0
ssg54
(dp1109
g1105
I0
sg1106
I0
sg1107
I0
sg1108
I0
ssg203
I0
sg58
I0
sg60
I01
sg61
I0
sg62
I0
sg63
I0
sg93
(S'dummy'
p1110
S'TL'
p1111
S'N8'
p1112
g30
tp1113
sg66
I00
sg67
g37
(g38
g39
Ntp1114
Rp1115
(dp1116
g43
I3
sg44
S'^^^'
p1117
sg46
S'rare'
p1118
sbsg73
(dp1119
g1105
I0
sg1106
I2
sg1107
I3
sg1108
I0
ssg79
(dp1120
g1105
I0
sg1106
I0
sg1107
I8
sg1108
I0
ssg81
(dp1121
g1105
I0
sg1106
I0
sg1107
I0
sg1108
I0
ssg83
(dp1122
g1105
I0
sg1106
I2
sg1107
I3
sg1108
I0
ssg85
I0
sg86
I0
sg87
S'Xarmaod (11)'
p1123
sg89
I11
sg90
I0
sg91
I24
sg92
I16
sg64
S'SN'
p1124
sg100
(dp1125
S'A'
p1126
I11
sS'ME'
p1127
I9
sS'RP2'
p1128
I6
sS'E'
p1129
I12
sS'P'
p1130
I5
sS'RP1'
p1131
I9
sS'JP'
p1132
I5
sS'RP_tot'
p1133
I9
sS'TO'
p1134
I10
sS'PA'
p1135
I7
sS'M'
p1136
I9
sS'R'
p1137
I8
sS'TB'
p1138
I4
sS'PL'
p1139
I9
sS'TA'
p1140
I6
ssg166
I0
sg167
I0
sg168
I1
sg169
I0
sg170
F9.368421052631579
sg171
I0
sg172
I1
sg173
I0
sg329
(dp1141
S'A'
p1142
I11
sS'ME'
p1143
I9
sS'RP2'
p1144
I6
sS'E'
p1145
I12
sS'P'
p1146
I5
sS'RP1'
p1147
I9
sS'JP'
p1148
I5
sS'RP_tot'
p1149
I9
sS'TO'
p1150
I10
sS'PA'
p1151
I7
sS'M'
p1152
I9
sS'R'
p1153
I8
sS'TB'
p1154
I4
sS'PL'
p1155
I9
sS'TA'
p1156
I6
ssg174
g1125
sg175
I0
sg57
g30
sg176
I0
sg177
I0
sg178
I0
sg179
I2
sg180
I0
sg181
I0
sg182
S'EN'
p1157
sbssg166
I5
sg167
I0
sg168
I1
sg169
I0
sg170
F12.157894736842104
sg171
I0
sg172
I0
sg173
I1
sg329
(dp1158
g930
I11
sg931
I9
sg932
I6
sg933
I12
sg934
I5
sg935
I9
sg936
I5
sg937
I9
sg938
I10
sg939
I7
sg940
I9
sg941
I8
sg942
I4
sg943
I9
sg944
I6
ssg174
(dp1159
g724
I16
sg725
I9
sg726
I9
sg727
I14
sg732
I15
sg729
I10
sg730
I10
sg731
I11
sg728
I9
sg733
I12
sg734
I10
sg735
I9
sg736
I11
sg737
I13
sg738
I6
ssg175
I0
sg185
(dp1160
sg176
I0
sg57
g30
sg177
I0
sg178
I0
sg179
I25
sg180
I4
sg181
I0
sg182
S'EN'
p1161
sbsS'drop3'
p1162
g189
sS'SA_remp1'
p1163
(ijoueur
joueur
p1164
(dp1165
g191
F9.558823529411764
sg27
I0
sg28
F9.205882352941176
sg29
g30
sg31
I0
sg32
I0
sg34
I0
sg36
g37
(g38
g39
Ntp1166
Rp1167
(dp1168
g43
I3
sg44
S'^^^'
p1169
sg46
S'rare'
p1170
sbsg48
(dp1171
g704
I0
sg705
I0
sg706
I11
sg707
I5
ssg54
(dp1172
g704
I0
sg705
I0
sg706
I0
sg707
I0
ssg56
I0
sg203
I0
sg58
I0
sg59
I0
sg60
I00
sg61
I0
sg62
I0
sg63
I0
sg93
(g709
S'DL'
p1173
S'PI'
p1174
g30
tp1175
sg66
I00
sg67
g37
(g38
g39
Ntp1176
Rp1177
(dp1178
g43
I3
sg44
S'^^^'
p1179
sg46
g1170
sbsg73
(dp1180
g75
I0
sg76
I0
sg77
I0
sg78
I0
ssg79
(dp1181
g75
I0
sg76
I0
sg77
I0
sg78
I0
ssg81
(dp1182
g75
I0
sg76
I0
sg77
I0
sg78
I0
ssg83
(dp1183
g704
I0
sg705
I0
sg706
I3
sg707
I2
ssg85
I0
sg86
I0
sg87
S'Lesyl'
p1184
sg89
I3
sg90
I0
sg91
I11
sg92
I11
sg64
g65
sg100
(dp1185
g724
I10
sg725
I9
sg726
I7
sg727
I10
sg728
I6
sg729
I7
sg730
I5
sg731
I8
sg732
I12
sg733
I8
sg734
I8
sg735
I6
sg736
I6
sg737
I9
sg738
I4
ssg117
(dp1186
g119
(ijoueur
joueur
p1187
(dp1188
g191
F9.558823529411764
sg27
I0
sg29
g30
sg31
I0
sg34
I0
sg36
g37
(g38
g39
Ntp1189
Rp1190
(dp1191
g43
I3
sg44
S'^^^'
p1192
sg46
S'rare'
p1193
sbsg48
(dp1194
g748
I0
sg749
I0
sg750
I11
sg751
I5
ssg54
(dp1195
g748
I0
sg749
I0
sg750
I0
sg751
I0
ssg79
(dp1196
g754
I0
sg755
I0
sg756
I2
sg757
I0
ssg203
I0
sg58
I0
sg61
I0
sg62
I0
sg63
I0
sg93
(g758
S'DL'
p1197
S'PI'
p1198
g30
tp1199
sg66
I01
sg67
g37
(g38
g39
Ntp1200
Rp1201
(dp1202
g43
I3
sg44
S'^^^'
p1203
sg46
g1193
sbsg73
(dp1204
g754
I0
sg755
I2
sg756
I3
sg757
I0
ssg60
I01
sg81
(dp1205
g754
I0
sg755
I0
sg756
I0
sg757
I0
ssg83
(dp1206
g748
I0
sg749
I0
sg750
I3
sg751
I2
ssg85
I0
sg86
I0
sg87
S'Lesyl (12)'
p1207
sg89
I3
sg90
I0
sg91
I11
sg92
I11
sg64
g134
sg100
(dp1208
g772
I10
sg773
I9
sg774
I7
sg775
I10
sg776
I12
sg777
I7
sg778
I5
sg779
I8
sg780
I6
sg781
I8
sg782
I8
sg783
I7
sg784
I6
sg785
I10
sg786
I4
ssg117
(dp1209
g788
(ijoueur
joueur
p1210
(dp1211
g27
I0
sg31
I0
sg34
I0
sg36
g37
(g38
g39
Ntp1212
Rp1213
(dp1214
g43
I3
sg44
S'^^^'
p1215
sg46
S'rare'
p1216
sbsg48
(dp1217
S'SR'
p1218
I0
sS'CT'
p1219
I5
sS'CR'
p1220
I9
sS'ST'
p1221
I0
ssg54
(dp1222
g1218
I0
sg1219
I0
sg1220
I0
sg1221
I0
ssg203
I0
sg58
I0
sg60
I01
sg61
I0
sg62
I0
sg63
I0
sg93
(S'dummy'
p1223
S'DL'
p1224
S'PI'
p1225
g30
tp1226
sg66
I00
sg67
g37
(g38
g39
Ntp1227
Rp1228
(dp1229
g43
I3
sg44
S'^^^'
p1230
sg46
g1216
sbsg73
(dp1231
g1218
I0
sg1219
I0
sg1220
I0
sg1221
I0
ssg79
(dp1232
g1218
I0
sg1219
I5
sg1220
I9
sg1221
I0
ssg81
(dp1233
g1218
I0
sg1219
I0
sg1220
I0
sg1221
I0
ssg83
(dp1234
g1218
I0
sg1219
I0
sg1220
I0
sg1221
I0
ssg85
I0
sg86
I0
sg87
S'Lesyl'
p1235
sg89
I3
sg90
I0
sg91
I11
sg92
I11
sg64
S'SN'
p1236
sg100
(dp1237
S'A'
p1238
I10
sS'ME'
p1239
I12
sS'RP2'
p1240
I7
sS'E'
p1241
I10
sS'P'
p1242
I6
sS'RP1'
p1243
I7
sS'JP'
p1244
I5
sS'RP_tot'
p1245
I7
sS'TO'
p1246
I12
sS'PA'
p1247
I8
sS'M'
p1248
I8
sS'R'
p1249
I7
sS'TB'
p1250
I6
sS'PL'
p1251
I10
sS'TA'
p1252
I4
ssg166
I0
sg167
I0
sg168
I0
sg169
I0
sg170
F9.558823529411764
sg171
I0
sg172
I0
sg173
I0
sg329
(dp1253
S'A'
p1254
I10
sS'ME'
p1255
I12
sS'RP2'
p1256
I7
sS'E'
p1257
I10
sS'P'
p1258
I6
sS'RP1'
p1259
I7
sS'JP'
p1260
I5
sS'RP_tot'
p1261
I7
sS'TO'
p1262
I12
sS'PA'
p1263
I8
sS'M'
p1264
I8
sS'R'
p1265
I7
sS'TB'
p1266
I6
sS'PL'
p1267
I10
sS'TA'
p1268
I4
ssg174
g1237
sg175
I0
sg57
g30
sg176
I0
sg177
I0
sg178
I0
sg179
I1
sg180
I5
sg181
I0
sg182
S'EN'
p1269
sbssg166
I0
sg167
I0
sg168
I0
sg169
I0
sg170
F9.205882352941176
sg171
I0
sg172
I0
sg173
I0
sg329
(dp1270
g851
I10
sg852
I12
sg853
I7
sg854
I10
sg855
I6
sg856
I7
sg857
I5
sg858
I7
sg859
I12
sg860
I8
sg861
I8
sg862
I7
sg863
I6
sg864
I10
sg865
I4
ssg174
g1208
sg175
I0
sg57
g30
sg176
I0
sg177
I0
sg178
I0
sg179
I1
sg180
I5
sg181
I0
sg182
S'EN'
p1271
sbsg867
(ijoueur
joueur
p1272
(dp1273
g27
I0
sg31
I0
sg34
I0
sg36
g37
(g38
g39
Ntp1274
Rp1275
(dp1276
g43
I3
sg44
S'^^^'
p1277
sg46
S'rare'
p1278
sbsg48
(dp1279
S'SR'
p1280
I0
sS'CT'
p1281
I5
sS'CR'
p1282
I9
sS'ST'
p1283
I0
ssg54
(dp1284
g1280
I0
sg1281
I0
sg1282
I0
sg1283
I0
ssg203
I0
sg58
I0
sg60
I01
sg61
I0
sg62
I0
sg63
I0
sg93
(S'dummy'
p1285
S'DL'
p1286
S'PI'
p1287
g30
tp1288
sg66
I00
sg67
g37
(g38
g39
Ntp1289
Rp1290
(dp1291
g43
I3
sg44
S'^^^'
p1292
sg46
g1278
sbsg73
(dp1293
g1280
I0
sg1281
I0
sg1282
I0
sg1283
I0
ssg79
(dp1294
g1280
I0
sg1281
I5
sg1282
I9
sg1283
I0
ssg81
(dp1295
g1280
I0
sg1281
I0
sg1282
I0
sg1283
I0
ssg83
(dp1296
g1280
I0
sg1281
I0
sg1282
I0
sg1283
I0
ssg85
I0
sg86
I0
sg87
S'Lesyl (11)'
p1297
sg89
I3
sg90
I0
sg91
I11
sg92
I11
sg64
S'SN'
p1298
sg100
(dp1299
S'A'
p1300
I10
sS'ME'
p1301
I12
sS'RP2'
p1302
I7
sS'E'
p1303
I10
sS'P'
p1304
I6
sS'RP1'
p1305
I7
sS'JP'
p1306
I5
sS'RP_tot'
p1307
I8
sS'TO'
p1308
I12
sS'PA'
p1309
I8
sS'M'
p1310
I8
sS'R'
p1311
I7
sS'TB'
p1312
I6
sS'PL'
p1313
I10
sS'TA'
p1314
I4
ssg166
I0
sg167
I0
sg168
I0
sg169
I0
sg170
F9.558823529411764
sg171
I0
sg172
I0
sg173
I0
sg329
(dp1315
S'A'
p1316
I10
sS'ME'
p1317
I12
sS'RP2'
p1318
I7
sS'E'
p1319
I10
sS'P'
p1320
I6
sS'RP1'
p1321
I7
sS'JP'
p1322
I5
sS'RP_tot'
p1323
I7
sS'TO'
p1324
I12
sS'PA'
p1325
I8
sS'M'
p1326
I8
sS'R'
p1327
I7
sS'TB'
p1328
I6
sS'PL'
p1329
I10
sS'TA'
p1330
I4
ssg174
g1299
sg175
I0
sg57
g30
sg176
I0
sg177
I0
sg178
I0
sg179
I1
sg180
I5
sg181
I0
sg182
S'EN'
p1331
sbssg166
I0
sg167
I0
sg168
I0
sg169
I0
sg170
F9.0
sg171
I0
sg172
I0
sg173
I0
sg329
(dp1332
g930
I10
sg931
I12
sg932
I7
sg933
I10
sg934
I6
sg935
I7
sg936
I5
sg937
I7
sg938
I12
sg939
I8
sg940
I8
sg941
I7
sg942
I6
sg943
I10
sg944
I4
ssg174
(dp1333
g724
I10
sg725
I9
sg726
I7
sg727
I10
sg732
I12
sg729
I7
sg730
I5
sg731
I8
sg728
I6
sg733
I8
sg734
I8
sg735
I6
sg736
I6
sg737
I9
sg738
I4
ssg175
I0
sg185
(dp1334
sg176
I0
sg57
g30
sg177
I0
sg178
I0
sg179
I5
sg180
I5
sg181
I0
sg182
S'EN'
p1335
sbsS'drop1'
p1336
(ijoueur
joueur
p1337
(dp1338
g191
F9.633333333333333
sg27
I0
sg28
F9.9
sg29
g30
sg31
I1
sg32
F21.35043425721975
sg34
I0
sg36
g37
(g38
g39
Ntp1339
Rp1340
(dp1341
g43
I2
sg44
S'<<'
p1342
sg46
S'special'
p1343
sbsg48
(dp1344
g704
I0
sg705
I0
sg706
I11
sg707
I2
ssg54
(dp1345
g704
I0
sg705
I0
sg706
I0
sg707
I0
ssg56
I0
sg203
I0
sg58
I0
sg59
F21.35043425721975
sg60
I00
sg61
I0
sg62
I0
sg63
I0
sg93
(g709
S'C1'
p1346
S'DO'
p1347
g30
tp1348
sg66
I00
sg67
g37
(g38
g39
Ntp1349
Rp1350
(dp1351
g43
I2
sg44
S'<<'
p1352
sg46
g1343
sbsg73
(dp1353
g75
I0
sg76
I0
sg77
I0
sg78
I0
ssg79
(dp1354
g75
I0
sg76
I2
sg77
I0
sg78
I0
ssg81
(dp1355
g75
I0
sg76
I0
sg77
I0
sg78
I0
ssg83
(dp1356
g704
I0
sg705
I0
sg706
I3
sg707
I1
ssg85
I0
sg86
I0
sg87
S'Croess'
p1357
sg89
I11
sg90
I0
sg91
I21
sg92
I32
sg64
g65
sg100
(dp1358
g724
I12
sg725
I4
sg726
I8
sg727
I10
sg728
I9
sg729
I6
sg730
I10
sg731
I8
sg732
I5
sg733
I12
sg734
I11
sg735
I7
sg736
I8
sg737
I10
sg738
I7
ssg117
(dp1359
g119
(ijoueur
joueur
p1360
(dp1361
g191
F9.633333333333333
sg27
I0
sg29
g30
sg31
I1
sg34
I0
sg36
g37
(g38
g39
Ntp1362
Rp1363
(dp1364
g43
I2
sg44
S'<<'
p1365
sg46
S'special'
p1366
sbsg48
(dp1367
g748
I0
sg749
I0
sg750
I11
sg751
I0
ssg54
(dp1368
g748
I0
sg749
I0
sg750
I0
sg751
I0
ssg79
(dp1369
g754
I0
sg755
I0
sg756
I7
sg757
I0
ssg203
I0
sg58
I0
sg61
I0
sg62
I0
sg63
I0
sg93
(g758
S'C1'
p1370
S'DO'
p1371
g30
tp1372
sg66
I00
sg67
g37
(g38
g39
Ntp1373
Rp1374
(dp1375
g43
I2
sg44
S'<<'
p1376
sg46
g1366
sbsg73
(dp1377
g754
I0
sg755
I1
sg756
I2
sg757
I0
ssg60
I01
sg81
(dp1378
g754
I0
sg755
I0
sg756
I0
sg757
I0
ssg83
(dp1379
g748
I0
sg749
I0
sg750
I3
sg751
I1
ssg85
I0
sg86
I0
sg87
S'Croess (12)'
p1380
sg89
I11
sg90
I0
sg91
I21
sg92
I32
sg64
g134
sg100
(dp1381
g772
I12
sg773
I4
sg774
I8
sg775
I10
sg776
I5
sg777
I6
sg778
I10
sg779
I8
sg780
I8
sg781
I11
sg782
I11
sg783
I7
sg784
I8
sg785
I10
sg786
I7
ssg117
(dp1382
g788
(ijoueur
joueur
p1383
(dp1384
g27
I0
sg31
I0
sg34
I0
sg36
g37
(g38
g39
Ntp1385
Rp1386
(dp1387
g43
I2
sg44
S'<<'
p1388
sg46
S'special'
p1389
sbsg48
(dp1390
S'SR'
p1391
I0
sS'CT'
p1392
I0
sS'CR'
p1393
I4
sS'ST'
p1394
I0
ssg54
(dp1395
g1391
I0
sg1392
I0
sg1393
I0
sg1394
I0
ssg203
I0
sg58
I0
sg60
I01
sg61
I0
sg62
I0
sg63
I0
sg93
(S'dummy'
p1396
S'C1'
p1397
S'DO'
p1398
g30
tp1399
sg66
I00
sg67
g37
(g38
g39
Ntp1400
Rp1401
(dp1402
g43
I2
sg44
S'<<'
p1403
sg46
g1389
sbsg73
(dp1404
g1391
I0
sg1392
I0
sg1393
I1
sg1394
I0
ssg79
(dp1405
g1391
I0
sg1392
I0
sg1393
I4
sg1394
I0
ssg81
(dp1406
g1391
I0
sg1392
I0
sg1393
I0
sg1394
I0
ssg83
(dp1407
g1391
I0
sg1392
I0
sg1393
I1
sg1394
I0
ssg85
I0
sg86
I0
sg87
S'Croess'
p1408
sg89
I11
sg90
I0
sg91
I21
sg92
I32
sg64
S'SN'
p1409
sg100
(dp1410
S'A'
p1411
I12
sS'ME'
p1412
I4
sS'RP2'
p1413
I8
sS'E'
p1414
I10
sS'P'
p1415
I8
sS'RP1'
p1416
I6
sS'JP'
p1417
I10
sS'RP_tot'
p1418
I8
sS'TO'
p1419
I5
sS'PA'
p1420
I11
sS'M'
p1421
I10
sS'R'
p1422
I7
sS'TB'
p1423
I8
sS'PL'
p1424
I9
sS'TA'
p1425
I7
ssg166
I0
sg167
I0
sg168
I0
sg169
I0
sg170
F9.633333333333333
sg171
I0
sg172
I0
sg173
I0
sg329
(dp1426
S'A'
p1427
I12
sS'ME'
p1428
I4
sS'RP2'
p1429
I8
sS'E'
p1430
I10
sS'P'
p1431
I8
sS'RP1'
p1432
I6
sS'JP'
p1433
I10
sS'RP_tot'
p1434
I8
sS'TO'
p1435
I5
sS'PA'
p1436
I11
sS'M'
p1437
I10
sS'R'
p1438
I7
sS'TB'
p1439
I8
sS'PL'
p1440
I9
sS'TA'
p1441
I7
ssg174
g1410
sg175
I0
sg57
g30
sg176
I0
sg177
I0
sg178
I0
sg179
I3
sg180
I0
sg181
I0
sg182
S'S'
p1442
sbssg166
I0
sg167
I0
sg168
I0
sg169
I0
sg170
F9.9
sg171
I0
sg172
I0
sg173
I1
sg329
(dp1443
g851
I12
sg852
I4
sg853
I8
sg854
I10
sg855
I8
sg856
I6
sg857
I10
sg858
I8
sg859
I5
sg860
I11
sg861
I10
sg862
I7
sg863
I8
sg864
I9
sg865
I7
ssg174
g1381
sg175
I0
sg57
g30
sg176
I0
sg177
I1
sg178
I0
sg179
I3
sg180
I0
sg181
I1
sg182
g866
sbsg867
(ijoueur
joueur
p1444
(dp1445
g27
I0
sg31
I0
sg34
I0
sg36
g37
(g38
g39
Ntp1446
Rp1447
(dp1448
g43
I2
sg44
S'<<'
p1449
sg46
S'special'
p1450
sbsg48
(dp1451
S'SR'
p1452
I0
sS'CT'
p1453
I0
sS'CR'
p1454
I4
sS'ST'
p1455
I0
ssg54
(dp1456
g1452
I0
sg1453
I0
sg1454
I0
sg1455
I0
ssg203
I0
sg58
I0
sg60
I01
sg61
I0
sg62
I0
sg63
I0
sg93
(S'dummy'
p1457
S'C1'
p1458
S'DO'
p1459
g30
tp1460
sg66
I00
sg67
g37
(g38
g39
Ntp1461
Rp1462
(dp1463
g43
I2
sg44
S'<<'
p1464
sg46
g1450
sbsg73
(dp1465
g1452
I0
sg1453
I0
sg1454
I1
sg1455
I0
ssg79
(dp1466
g1452
I0
sg1453
I0
sg1454
I4
sg1455
I0
ssg81
(dp1467
g1452
I0
sg1453
I0
sg1454
I0
sg1455
I0
ssg83
(dp1468
g1452
I0
sg1453
I0
sg1454
I1
sg1455
I0
ssg85
I0
sg86
I0
sg87
S'Croess (11)'
p1469
sg89
I11
sg90
I0
sg91
I21
sg92
I32
sg64
S'SN'
p1470
sg100
(dp1471
S'A'
p1472
I12
sS'ME'
p1473
I4
sS'RP2'
p1474
I8
sS'E'
p1475
I10
sS'P'
p1476
I8
sS'RP1'
p1477
I6
sS'JP'
p1478
I10
sS'RP_tot'
p1479
I8
sS'TO'
p1480
I5
sS'PA'
p1481
I11
sS'M'
p1482
I10
sS'R'
p1483
I7
sS'TB'
p1484
I8
sS'PL'
p1485
I9
sS'TA'
p1486
I7
ssg166
I0
sg167
I0
sg168
I0
sg169
I0
sg170
F9.633333333333333
sg171
I0
sg172
I0
sg173
I0
sg329
(dp1487
S'A'
p1488
I12
sS'ME'
p1489
I4
sS'RP2'
p1490
I8
sS'E'
p1491
I10
sS'P'
p1492
I8
sS'RP1'
p1493
I6
sS'JP'
p1494
I10
sS'RP_tot'
p1495
I8
sS'TO'
p1496
I5
sS'PA'
p1497
I11
sS'M'
p1498
I10
sS'R'
p1499
I7
sS'TB'
p1500
I8
sS'PL'
p1501
I9
sS'TA'
p1502
I7
ssg174
g1471
sg175
I0
sg57
g30
sg176
I0
sg177
I0
sg178
I0
sg179
I3
sg180
I0
sg181
I0
sg182
S'S'
p1503
sbssg166
I3
sg167
I0
sg168
I0
sg169
I0
sg170
F10.1
sg171
I0
sg172
I0
sg173
I1
sg329
(dp1504
g930
I12
sg931
I4
sg932
I8
sg933
I10
sg934
I8
sg935
I6
sg936
I10
sg937
I8
sg938
I5
sg939
I11
sg940
I10
sg941
I7
sg942
I8
sg943
I9
sg944
I7
ssg174
(dp1505
g724
I12
sg725
I4
sg726
I8
sg727
I10
sg732
I5
sg729
I6
sg730
I10
sg731
I8
sg728
I9
sg733
I12
sg734
I11
sg735
I7
sg736
I8
sg737
I10
sg738
I7
ssg175
I0
sg185
(dp1506
sg176
I0
sg57
g30
sg177
I0
sg178
I0
sg179
I3
sg180
I0
sg181
I0
sg182
g947
sbsS'drop2'
p1507
g189
sS'SA_remp2'
p1508
(ijoueur
joueur
p1509
(dp1510
g191
F9.764705882352942
sg27
I0
sg28
F9.205882352941176
sg29
g30
sg31
I0
sg32
I0
sg34
I0
sg36
g37
(g38
g39
Ntp1511
Rp1512
(dp1513
g43
I5
sg44
S'**'
p1514
sg46
g702
sbsg48
(dp1515
g704
I0
sg705
I1
sg706
I0
sg707
I0
ssg54
(dp1516
g704
I0
sg705
I0
sg706
I0
sg707
I0
ssg56
I0
sg203
I0
sg58
I0
sg59
I0
sg60
I00
sg61
I0
sg62
I0
sg63
I0
sg93
(g709
S'DL'
p1517
S'TL'
p1518
g30
tp1519
sg66
I00
sg67
g37
(g38
g39
Ntp1520
Rp1521
(dp1522
g43
I5
sg44
S'**'
p1523
sg46
g702
sbsg73
(dp1524
g75
I0
sg76
I0
sg77
I0
sg78
I0
ssg79
(dp1525
g75
I0
sg76
I0
sg77
I0
sg78
I0
ssg81
(dp1526
g75
I0
sg76
I0
sg77
I0
sg78
I0
ssg83
(dp1527
g704
I0
sg705
I0
sg706
I20
sg707
I9
ssg85
I0
sg86
I0
sg87
S'Le Daho'
p1528
sg89
I3
sg90
I0
sg91
I12
sg92
I254
sg64
g65
sg100
(dp1529
g724
I11
sg725
I9
sg726
I7
sg727
I10
sg728
I6
sg729
I8
sg730
I4
sg731
I9
sg732
I10
sg733
I10
sg734
I8
sg735
I9
sg736
I2
sg737
I7
sg738
I3
ssg117
(dp1530
g119
(ijoueur
joueur
p1531
(dp1532
g191
F9.764705882352942
sg27
I0
sg29
g30
sg31
I0
sg34
I0
sg36
g37
(g38
g39
Ntp1533
Rp1534
(dp1535
g43
I5
sg44
S'**'
p1536
sg46
g746
sbsg48
(dp1537
g748
I0
sg749
I1
sg750
I0
sg751
I0
ssg54
(dp1538
g748
I0
sg749
I0
sg750
I0
sg751
I0
ssg79
(dp1539
g754
I0
sg755
I0
sg756
I0
sg757
I0
ssg203
I0
sg58
I0
sg61
I2
sg62
I0
sg63
I0
sg93
(g758
S'DL'
p1540
S'TL'
p1541
g30
tp1542
sg66
I00
sg67
g37
(g38
g39
Ntp1543
Rp1544
(dp1545
g43
I5
sg44
S'**'
p1546
sg46
g746
sbsg73
(dp1547
g754
I0
sg755
I3
sg756
I12
sg757
I0
ssg60
I00
sg81
(dp1548
g754
I0
sg755
I0
sg756
I0
sg757
I0
ssg83
(dp1549
g748
I0
sg749
I0
sg750
I20
sg751
I9
ssg85
I0
sg86
I0
sg87
S'Le Daho (12)'
p1550
sg89
I3
sg90
I0
sg91
I12
sg92
I254
sg64
g134
sg100
(dp1551
g772
I11
sg773
I10
sg774
I7
sg775
I10
sg776
I10
sg777
I8
sg778
I4
sg779
I9
sg780
I6
sg781
I10
sg782
I8
sg783
I9
sg784
I2
sg785
I7
sg786
I3
ssg117
(dp1552
g788
(ijoueur
joueur
p1553
(dp1554
g27
I0
sg31
I0
sg34
I0
sg36
g37
(g38
g39
Ntp1555
Rp1556
(dp1557
g43
I5
sg44
S'**'
p1558
sg46
S'seigneur'
p1559
sbsg48
(dp1560
S'SR'
p1561
I0
sS'CT'
p1562
I0
sS'CR'
p1563
I0
sS'ST'
p1564
I1
ssg54
(dp1565
g1561
I0
sg1562
I0
sg1563
I0
sg1564
I0
ssg203
I0
sg58
I0
sg60
I00
sg61
I0
sg62
I0
sg63
I0
sg93
(S'dummy'
p1566
S'DL'
p1567
S'TL'
p1568
g30
tp1569
sg66
I00
sg67
g37
(g38
g39
Ntp1570
Rp1571
(dp1572
g43
I5
sg44
S'**'
p1573
sg46
g1559
sbsg73
(dp1574
g1561
I0
sg1562
I6
sg1563
I8
sg1564
I0
ssg79
(dp1575
g1561
I0
sg1562
I0
sg1563
I0
sg1564
I1
ssg81
(dp1576
g1561
I0
sg1562
I0
sg1563
I0
sg1564
I0
ssg83
(dp1577
g1561
I0
sg1562
I6
sg1563
I8
sg1564
I0
ssg85
I0
sg86
I0
sg87
S'Le Daho'
p1578
sg89
I3
sg90
I0
sg91
I12
sg92
I254
sg64
S'SN'
p1579
sg100
(dp1580
S'A'
p1581
I11
sS'ME'
p1582
I10
sS'RP2'
p1583
I7
sS'E'
p1584
I11
sS'P'
p1585
I6
sS'RP1'
p1586
I8
sS'JP'
p1587
I4
sS'RP_tot'
p1588
I8
sS'TO'
p1589
I11
sS'PA'
p1590
I10
sS'M'
p1591
I8
sS'R'
p1592
I9
sS'TB'
p1593
I2
sS'PL'
p1594
I9
sS'TA'
p1595
I3
ssg166
I0
sg167
I0
sg168
I0
sg169
I0
sg170
F9.764705882352942
sg171
I0
sg172
I0
sg173
I1
sg329
(dp1596
S'A'
p1597
I11
sS'ME'
p1598
I10
sS'RP2'
p1599
I7
sS'E'
p1600
I11
sS'P'
p1601
I6
sS'RP1'
p1602
I8
sS'JP'
p1603
I4
sS'RP_tot'
p1604
I8
sS'TO'
p1605
I11
sS'PA'
p1606
I10
sS'M'
p1607
I8
sS'R'
p1608
I9
sS'TB'
p1609
I2
sS'PL'
p1610
I9
sS'TA'
p1611
I3
ssg174
g1580
sg175
I0
sg57
S'KHR 8'
p1612
sg176
I0
sg177
I0
sg178
I0
sg179
I24
sg180
I10
sg181
I1
sg182
S'B'
p1613
sbssg166
I2
sg167
I0
sg168
I0
sg169
I0
sg170
F9.205882352941176
sg171
I0
sg172
I0
sg173
I1
sg329
(dp1614
g851
I11
sg852
I10
sg853
I7
sg854
I11
sg855
I6
sg856
I8
sg857
I4
sg858
I8
sg859
I11
sg860
I10
sg861
I8
sg862
I9
sg863
I2
sg864
I9
sg865
I3
ssg174
g1551
sg175
I0
sg57
S'KHR 8'
p1615
sg176
I0
sg177
I0
sg178
I0
sg179
I24
sg180
I12
sg181
I0
sg182
S'B'
p1616
sbsg867
(ijoueur
joueur
p1617
(dp1618
g27
I0
sg31
I0
sg34
I0
sg36
g37
(g38
g39
Ntp1619
Rp1620
(dp1621
g43
I5
sg44
S'**'
p1622
sg46
S'seigneur'
p1623
sbsg48
(dp1624
S'SR'
p1625
I0
sS'CT'
p1626
I0
sS'CR'
p1627
I0
sS'ST'
p1628
I1
ssg54
(dp1629
g1625
I0
sg1626
I0
sg1627
I0
sg1628
I0
ssg203
I0
sg58
I0
sg60
I00
sg61
I0
sg62
I0
sg63
I0
sg93
(S'dummy'
p1630
S'DL'
p1631
S'TL'
p1632
g30
tp1633
sg66
I00
sg67
g37
(g38
g39
Ntp1634
Rp1635
(dp1636
g43
I5
sg44
S'**'
p1637
sg46
g1623
sbsg73
(dp1638
g1625
I0
sg1626
I6
sg1627
I8
sg1628
I0
ssg79
(dp1639
g1625
I0
sg1626
I0
sg1627
I0
sg1628
I1
ssg81
(dp1640
g1625
I0
sg1626
I0
sg1627
I0
sg1628
I0
ssg83
(dp1641
g1625
I0
sg1626
I6
sg1627
I8
sg1628
I0
ssg85
I0
sg86
I0
sg87
S'Le Daho (11)'
p1642
sg89
I3
sg90
I0
sg91
I12
sg92
I254
sg64
S'SN'
p1643
sg100
(dp1644
S'A'
p1645
I11
sS'ME'
p1646
I10
sS'RP2'
p1647
I7
sS'E'
p1648
I11
sS'P'
p1649
I6
sS'RP1'
p1650
I8
sS'JP'
p1651
I4
sS'RP_tot'
p1652
I9
sS'TO'
p1653
I11
sS'PA'
p1654
I10
sS'M'
p1655
I8
sS'R'
p1656
I9
sS'TB'
p1657
I2
sS'PL'
p1658
I9
sS'TA'
p1659
I3
ssg166
I0
sg167
I0
sg168
I0
sg169
I0
sg170
F9.764705882352942
sg171
I0
sg172
I0
sg173
I1
sg329
(dp1660
S'A'
p1661
I11
sS'ME'
p1662
I10
sS'RP2'
p1663
I7
sS'E'
p1664
I11
sS'P'
p1665
I6
sS'RP1'
p1666
I8
sS'JP'
p1667
I4
sS'RP_tot'
p1668
I8
sS'TO'
p1669
I11
sS'PA'
p1670
I10
sS'M'
p1671
I8
sS'R'
p1672
I9
sS'TB'
p1673
I2
sS'PL'
p1674
I9
sS'TA'
p1675
I3
ssg174
g1644
sg175
I0
sg57
S'KHR 8'
p1676
sg176
I0
sg177
I0
sg178
I0
sg179
I24
sg180
I10
sg181
I1
sg182
S'B'
p1677
sbssg166
I0
sg167
I0
sg168
I0
sg169
I0
sg170
F9.205882352941176
sg171
I0
sg172
I0
sg173
I1
sg329
(dp1678
g930
I11
sg931
I10
sg932
I7
sg933
I11
sg934
I6
sg935
I8
sg936
I4
sg937
I8
sg938
I11
sg939
I10
sg940
I8
sg941
I9
sg942
I2
sg943
I9
sg944
I3
ssg174
(dp1679
g724
I11
sg725
I9
sg726
I7
sg727
I10
sg732
I10
sg729
I8
sg730
I4
sg731
I9
sg728
I6
sg733
I10
sg734
I8
sg735
I9
sg736
I2
sg737
I7
sg738
I3
ssg175
I0
sg185
(dp1680
sg176
I0
sg57
S'KHR 8'
p1681
sg177
I0
sg178
I0
sg179
I24
sg180
I12
sg181
I0
sg182
S'B'
p1682
sbssg87
S'SN_TLB_c'
p1683
sS'totaux'
p1684
(dp1685
g19
I0
sg20
I0
sg21
I0
ssS'_compo_defaut_fatigue'
p1686
Nsg100
(dp1687
g4
I0
sg5
I0
sg6
I0
sg7
I0
sg8
I0
sg9
I0
sg10
I0
sg11
I0
sg12
I0
sg13
I0
sg14
I0
sg15
I0
sg16
I0
ssS'joueurs'
p1688
(dp1689
S'n12'
p1690
g1337
sS'n13'
p1691
(ijoueur
joueur
p1692
(dp1693
g27
I0
sg167
I0
sg31
I0
sg32
I0
sg33
g30
sg34
I0
sg35
g30
sg36
g37
(g38
g39
Ntp1694
Rp1695
(dp1696
g43
I2
sg44
S'<<'
p1697
sg46
S'special'
p1698
sbsg48
(dp1699
S'SR'
p1700
I0
sS'ST'
p1701
I0
sS'CR'
p1702
I0
sS'CT'
p1703
I0
ssg54
(dp1704
g1700
I0
sg1701
I0
sg1702
I0
sg1703
I0
ssg56
I0
sg91
I20
sg57
g30
sg58
I0
sg59
I0
sg61
I0
sg62
I0
sg63
I0
sg64
g65
sg66
I00
sg67
g1695
sg73
(dp1705
g1700
I0
sg1701
I0
sg1702
I0
sg1703
I0
ssg79
(dp1706
g1700
I0
sg1701
I0
sg1702
I0
sg1703
I0
ssg81
(dp1707
g1700
I0
sg1701
I0
sg1702
I0
sg1703
I0
ssg83
(dp1708
g1700
I0
sg1701
I0
sg1702
I0
sg1703
I0
ssg85
I0
sg86
I0
sg87
S'Gsalet'
p1709
sg89
I13
sg90
I0
sg60
I00
sg92
I15
sg93
(S'dummy'
p1710
S'C2'
p1711
g30
g30
tp1712
sg99
g30
sg100
(dp1713
S'RP1'
p1714
I8
sS'ME'
p1715
I7
sS'RP2'
p1716
I8
sS'E'
p1717
I9
sS'P'
p1718
I9
sS'JP'
p1719
I8
sS'M'
p1720
I10
sS'RP_tot'
p1721
I10
sS'TO'
p1722
I6
sS'PA'
p1723
I10
sS'A'
p1724
I10
sS'R'
p1725
I8
sS'TB'
p1726
I10
sS'PL'
p1727
I9
sS'TA'
p1728
I5
ssg166
I0
sg29
g30
sg168
I0
sg169
I0
sg170
F9.483870967741936
sg171
I0
sg172
I0
sg173
I0
sg174
(dp1729
g1714
I8
sg1715
I7
sg1716
I8
sg1717
I9
sg1722
I6
sg1720
I10
sg1719
I8
sg1721
I10
sg1718
I9
sg1723
I10
sg1724
I10
sg1725
I8
sg1726
I10
sg1727
I9
sg1728
I5
ssg175
I0
sg176
I0
sg177
I0
sg178
I0
sg179
I1
sg180
I0
sg181
I0
sg182
S'S'
p1730
sbsS'n10'
p1731
g696
sS'n11'
p1732
(ijoueur
joueur
p1733
(dp1734
g191
F10.419354838709678
sg27
I0
sg28
F10.419354838709678
sg29
g30
sg31
I0
sg32
F31.966126218602312
sg34
I0
sg36
g37
(g38
g39
Ntp1735
Rp1736
(dp1737
g43
I4
sg44
S'*'
p1738
sg46
S'heros'
p1739
sbsg48
(dp1740
S'SR'
p1741
I2
sS'ST'
p1742
I0
sS'CR'
p1743
I0
sS'CT'
p1744
I0
ssg54
(dp1745
g1741
I0
sg1742
I0
sg1743
I0
sg1744
I0
ssg56
I0
sg203
I0
sg58
I0
sg59
F31.966126218602312
sg60
I00
sg61
I0
sg62
I0
sg63
I0
sg93
(S'dummy'
p1746
S'AI'
p1747
S'CE'
p1748
g30
tp1749
sg66
I00
sg67
g37
(g38
g39
Ntp1750
Rp1751
(dp1752
g43
I4
sg44
g1738
sg46
g1739
sbsg73
(dp1753
g75
I0
sg76
I0
sg77
I3
sg78
I0
ssg79
(dp1754
g75
I0
sg76
I0
sg77
I0
sg78
I0
ssg81
(dp1755
g75
I0
sg76
I0
sg77
I0
sg78
I0
ssg83
(dp1756
g1741
I5
sg1742
I1
sg1743
I13
sg1744
I18
ssg85
I0
sg86
I0
sg87
S'Haloepl'
p1757
sg89
I5
sg90
I0
sg91
I18
sg92
I236
sg64
g65
sg100
(dp1758
S'A'
p1759
I9
sS'ME'
p1760
I5
sS'RP2'
p1761
I10
sS'E'
p1762
I10
sS'P'
p1763
I8
sS'RP1'
p1764
I10
sS'JP'
p1765
I6
sS'RP_tot'
p1766
I12
sS'TO'
p1767
I5
sS'PA'
p1768
I9
sS'M'
p1769
I13
sS'R'
p1770
I8
sS'TB'
p1771
I6
sS'PL'
p1772
I8
sS'TA'
p1773
I7
ssg117
(dp1774
g119
(ijoueur
joueur
p1775
(dp1776
g191
F10.419354838709678
sg27
I0
sg29
g30
sg31
I0
sg34
I0
sg36
g37
(g38
g39
Ntp1777
Rp1778
(dp1779
g43
I4
sg44
S'*'
p1780
sg46
S'heros'
p1781
sbsg48
(dp1782
S'SR'
p1783
I2
sS'ST'
p1784
I0
sS'CR'
p1785
I0
sS'CT'
p1786
I0
ssg54
(dp1787
g1783
I0
sg1784
I0
sg1785
I0
sg1786
I0
ssg79
(dp1788
g754
I2
sg755
I0
sg756
I0
sg757
I0
ssg203
I0
sg58
I0
sg61
I1
sg62
I0
sg63
I0
sg93
(S'dummy'
p1789
S'AI'
p1790
S'CE'
p1791
g30
tp1792
sg66
I00
sg67
g37
(g38
g39
Ntp1793
Rp1794
(dp1795
g43
I4
sg44
g1780
sg46
g1781
sbsg73
(dp1796
g754
I0
sg755
I5
sg756
I10
sg757
I0
ssg60
I00
sg81
(dp1797
g754
I0
sg755
I0
sg756
I0
sg757
I0
ssg83
(dp1798
g1783
I5
sg1784
I1
sg1785
I10
sg1786
I18
ssg85
I0
sg86
I0
sg87
S'Haloepl (12)'
p1799
sg89
I5
sg90
I0
sg91
I18
sg92
I236
sg64
g134
sg100
(dp1800
S'A'
p1801
I9
sS'ME'
p1802
I5
sS'RP2'
p1803
I10
sS'E'
p1804
I10
sS'TO'
p1805
I5
sS'RP1'
p1806
I10
sS'JP'
p1807
I6
sS'RP_tot'
p1808
I12
sS'P'
p1809
I8
sS'PA'
p1810
I9
sS'M'
p1811
I14
sS'R'
p1812
I8
sS'TB'
p1813
I6
sS'PL'
p1814
I8
sS'TA'
p1815
I7
ssg117
(dp1816
g788
(ijoueur
joueur
p1817
(dp1818
g27
I0
sg31
I0
sg34
I0
sg36
g37
(g38
g39
Ntp1819
Rp1820
(dp1821
g43
I4
sg44
S'*'
p1822
sg46
S'heros'
p1823
sbsg48
(dp1824
S'SR'
p1825
I0
sS'CT'
p1826
I0
sS'CR'
p1827
I0
sS'ST'
p1828
I0
ssg54
(dp1829
g1825
I0
sg1826
I0
sg1827
I0
sg1828
I0
ssg203
I0
sg58
I0
sg60
I00
sg61
I0
sg62
I0
sg63
I0
sg93
(S'dummy'
p1830
S'AI'
p1831
S'CE'
p1832
g30
tp1833
sg66
I01
sg67
g37
(g38
g39
Ntp1834
Rp1835
(dp1836
g43
I4
sg44
g1822
sg46
g1823
sbsg73
(dp1837
g1825
I5
sg1826
I13
sg1827
I0
sg1828
I1
ssg79
(dp1838
g1825
I0
sg1826
I0
sg1827
I0
sg1828
I0
ssg81
(dp1839
g1825
I0
sg1826
I0
sg1827
I0
sg1828
I0
ssg83
(dp1840
g1825
I5
sg1826
I13
sg1827
I0
sg1828
I1
ssg85
I0
sg86
I0
sg87
S'Haloepl'
p1841
sg89
I5
sg90
I0
sg91
I18
sg92
I150
sg64
S'GP'
p1842
sg100
(dp1843
S'A'
p1844
I9
sS'ME'
p1845
I5
sS'RP2'
p1846
I10
sS'E'
p1847
I10
sS'P'
p1848
I8
sS'RP1'
p1849
I10
sS'JP'
p1850
I6
sS'RP_tot'
p1851
I13
sS'TO'
p1852
I5
sS'PA'
p1853
I9
sS'M'
p1854
I14
sS'R'
p1855
I8
sS'TB'
p1856
I6
sS'PL'
p1857
I8
sS'TA'
p1858
I7
ssg166
I0
sg167
I0
sg168
I0
sg169
I0
sg170
F10.419354838709678
sg171
I0
sg172
I0
sg173
I0
sg329
(dp1859
S'A'
p1860
I9
sS'ME'
p1861
I5
sS'RP2'
p1862
I10
sS'E'
p1863
I10
sS'P'
p1864
I8
sS'RP1'
p1865
I10
sS'JP'
p1866
I6
sS'RP_tot'
p1867
I13
sS'TO'
p1868
I5
sS'PA'
p1869
I9
sS'M'
p1870
I14
sS'R'
p1871
I8
sS'TB'
p1872
I6
sS'PL'
p1873
I8
sS'TA'
p1874
I7
ssg174
g1843
sg175
I0
sg57
g30
sg176
I0
sg177
I0
sg178
I0
sg179
I14
sg180
I0
sg181
I0
sg182
S'HL'
p1875
sbssg166
I0
sg167
I0
sg168
I0
sg169
I0
sg170
F10.419354838709678
sg171
I0
sg172
I0
sg173
I0
sg329
(dp1876
S'A'
p1877
I9
sS'ME'
p1878
I5
sS'RP2'
p1879
I10
sS'E'
p1880
I10
sS'P'
p1881
I8
sS'RP1'
p1882
I10
sS'JP'
p1883
I6
sS'RP_tot'
p1884
I13
sS'TO'
p1885
I5
sS'PA'
p1886
I9
sS'M'
p1887
I14
sS'R'
p1888
I8
sS'TB'
p1889
I6
sS'PL'
p1890
I8
sS'TA'
p1891
I7
ssg174
g1800
sg175
I0
sg57
S'GP 12'
p1892
sg176
I0
sg177
I0
sg178
I0
sg179
I12
sg180
I1
sg181
I0
sg182
S'HL'
p1893
sbsg867
(ijoueur
joueur
p1894
(dp1895
g27
I0
sg31
I0
sg34
I0
sg36
g37
(g38
g39
Ntp1896
Rp1897
(dp1898
g43
I4
sg44
S'*'
p1899
sg46
S'heros'
p1900
sbsg48
(dp1901
S'SR'
p1902
I0
sS'CT'
p1903
I0
sS'CR'
p1904
I0
sS'ST'
p1905
I0
ssg54
(dp1906
g1902
I0
sg1903
I0
sg1904
I0
sg1905
I0
ssg203
I0
sg58
I0
sg60
I00
sg61
I0
sg62
I0
sg63
I0
sg93
(S'dummy'
p1907
S'AI'
p1908
S'CE'
p1909
g30
tp1910
sg66
I01
sg67
g37
(g38
g39
Ntp1911
Rp1912
(dp1913
g43
I4
sg44
g1899
sg46
g1900
sbsg73
(dp1914
g1902
I5
sg1903
I13
sg1904
I0
sg1905
I1
ssg79
(dp1915
g1902
I0
sg1903
I0
sg1904
I0
sg1905
I0
ssg81
(dp1916
g1902
I0
sg1903
I0
sg1904
I0
sg1905
I0
ssg83
(dp1917
g1902
I5
sg1903
I13
sg1904
I0
sg1905
I1
ssg85
I0
sg86
I0
sg87
S'Haloepl (11)'
p1918
sg89
I5
sg90
I0
sg91
I18
sg92
I150
sg64
S'GP'
p1919
sg100
(dp1920
S'A'
p1921
I9
sS'ME'
p1922
I5
sS'RP2'
p1923
I10
sS'E'
p1924
I10
sS'P'
p1925
I8
sS'RP1'
p1926
I10
sS'JP'
p1927
I6
sS'RP_tot'
p1928
I12
sS'TO'
p1929
I5
sS'PA'
p1930
I9
sS'M'
p1931
I14
sS'R'
p1932
I8
sS'TB'
p1933
I6
sS'PL'
p1934
I8
sS'TA'
p1935
I7
ssg166
I0
sg167
I0
sg168
I0
sg169
I0
sg170
F10.419354838709678
sg171
I0
sg172
I0
sg173
I0
sg329
(dp1936
S'A'
p1937
I9
sS'ME'
p1938
I5
sS'RP2'
p1939
I10
sS'E'
p1940
I10
sS'P'
p1941
I8
sS'RP1'
p1942
I10
sS'JP'
p1943
I6
sS'RP_tot'
p1944
I13
sS'TO'
p1945
I5
sS'PA'
p1946
I9
sS'M'
p1947
I14
sS'R'
p1948
I8
sS'TB'
p1949
I6
sS'PL'
p1950
I8
sS'TA'
p1951
I7
ssg174
g1920
sg175
I0
sg57
g30
sg176
I0
sg177
I0
sg178
I0
sg179
I14
sg180
I0
sg181
I0
sg182
S'HL'
p1952
sbssg166
I6
sg167
I0
sg168
I0
sg169
I0
sg170
F10.064516129032258
sg171
I0
sg172
I0
sg173
I0
sg329
(dp1953
S'A'
p1954
I9
sS'ME'
p1955
I5
sS'RP2'
p1956
I10
sS'E'
p1957
I10
sS'P'
p1958
I8
sS'RP1'
p1959
I10
sS'JP'
p1960
I6
sS'RP_tot'
p1961
I13
sS'TO'
p1962
I5
sS'PA'
p1963
I9
sS'M'
p1964
I14
sS'R'
p1965
I8
sS'TB'
p1966
I6
sS'PL'
p1967
I8
sS'TA'
p1968
I7
ssg174
(dp1969
g1759
I9
sg1760
I5
sg1761
I10
sg1762
I10
sg1767
I5
sg1764
I10
sg1765
I6
sg1766
I12
sg1763
I8
sg1768
I9
sg1769
I13
sg1770
I8
sg1771
I6
sg1772
I8
sg1773
I7
ssg175
I0
sg185
(dp1970
sg176
I0
sg57
S'GP 12'
p1971
sg177
I0
sg178
I0
sg179
I12
sg180
I1
sg181
I0
sg182
S'HL'
p1972
sbsS'n16'
p1973
(ijoueur
joueur
p1974
(dp1975
g191
F8.482758620689655
sg27
I0
sg28
F8.344827586206897
sg29
g30
sg31
I0
sg32
I0
sg34
I0
sg36
g37
(g38
g39
Ntp1976
Rp1977
(dp1978
g43
I5
sg44
S'**'
p1979
sg46
S'seigneur'
p1980
sbsg48
(dp1981
S'SR'
p1982
I0
sS'CT'
p1983
I0
sS'CR'
p1984
I0
sS'ST'
p1985
I0
ssg54
(dp1986
g1982
I0
sg1983
I0
sg1984
I0
sg1985
I0
ssg56
I0
sg203
I0
sg170
F8.137931034482758
sg58
I0
sg59
I0
sg61
I0
sg62
I0
sg63
I0
sg93
(S'dummy'
p1987
S'TA'
p1988
S'N8'
p1989
g30
tp1990
sg66
I00
sg67
g37
(g38
g39
Ntp1991
Rp1992
(dp1993
g43
I5
sg44
S'**'
p1994
sg46
g1980
sbsg73
(dp1995
S'SR'
p1996
I0
sS'ST'
p1997
I0
sS'CR'
p1998
I0
sS'CT'
p1999
I0
ssg60
I00
sg81
(dp2000
g1996
I0
sg1997
I0
sg1998
I0
sg1999
I0
ssg83
(dp2001
g1982
I0
sg1983
I0
sg1984
I2
sg1985
I0
ssg85
I0
sg86
I0
sg87
S'Vlaaner'
p2002
sg89
I3
sg90
I0
sg91
I13
sg92
I290
sg64
S'SN'
p2003
sg100
(dp2004
S'A'
p2005
I7
sS'ME'
p2006
I8
sS'RP2'
p2007
I7
sS'E'
p2008
I8
sS'TO'
p2009
I6
sS'RP1'
p2010
I11
sS'JP'
p2011
I3
sS'RP_tot'
p2012
I11
sS'P'
p2013
I4
sS'PA'
p2014
I6
sS'M'
p2015
I8
sS'R'
p2016
I8
sS'TB'
p2017
I3
sS'PL'
p2018
I6
sS'TA'
p2019
I9
ssg117
(dp2020
S's12'
p2021
(ijoueur
joueur
p2022
(dp2023
g191
F8.482758620689655
sg27
I0
sg29
g30
sg31
I0
sg34
I0
sg36
g37
(g38
g39
Ntp2024
Rp2025
(dp2026
g43
I5
sg44
S'**'
p2027
sg46
S'seigneur'
p2028
sbsg48
(dp2029
S'SR'
p2030
I0
sS'CT'
p2031
I0
sS'CR'
p2032
I0
sS'ST'
p2033
I0
ssg54
(dp2034
g2030
I0
sg2031
I0
sg2032
I0
sg2033
I0
ssg203
I0
sg58
I0
sg60
I00
sg61
I0
sg62
I0
sg63
I0
sg93
(S'dummy'
p2035
S'TA'
p2036
S'N8'
p2037
g30
tp2038
sg66
I00
sg67
g37
(g38
g39
Ntp2039
Rp2040
(dp2041
g43
I5
sg44
S'**'
p2042
sg46
g2028
sbsg73
(dp2043
S'SR'
p2044
I0
sS'ST'
p2045
I0
sS'CR'
p2046
I2
sS'CT'
p2047
I0
ssg79
(dp2048
g2044
I0
sg2045
I0
sg2046
I0
sg2047
I0
ssg81
(dp2049
g2044
I0
sg2045
I0
sg2046
I0
sg2047
I0
ssg83
(dp2050
g2030
I0
sg2031
I0
sg2032
I2
sg2033
I0
ssg85
I0
sg86
I0
sg87
S'Vlaaner'
p2051
sg89
I3
sg90
I0
sg91
I13
sg92
I290
sg64
S'SN'
p2052
sg100
(dp2053
S'A'
p2054
I7
sS'ME'
p2055
I8
sS'RP2'
p2056
I7
sS'E'
p2057
I8
sS'P'
p2058
I4
sS'RP1'
p2059
I11
sS'JP'
p2060
I3
sS'RP_tot'
p2061
I11
sS'TO'
p2062
I6
sS'PA'
p2063
I6
sS'M'
p2064
I8
sS'R'
p2065
I9
sS'TB'
p2066
I3
sS'PL'
p2067
I6
sS'TA'
p2068
I9
ssg117
(dp2069
S's11'
p2070
(ijoueur
joueur
p2071
(dp2072
g27
I0
sg31
I0
sg34
I0
sg36
g37
(g38
g39
Ntp2073
Rp2074
(dp2075
g43
I5
sg44
S'**'
p2076
sg46
S'seigneur'
p2077
sbsg48
(dp2078
S'SR'
p2079
I0
sS'ST'
p2080
I0
sS'CR'
p2081
I0
sS'CT'
p2082
I0
ssg54
(dp2083
g2079
I0
sg2080
I0
sg2081
I0
sg2082
I0
ssg203
I0
sg58
I0
sg60
I00
sg61
I0
sg62
I0
sg63
I0
sg93
(S'dummy'
p2084
S'TA'
p2085
S'N8'
p2086
g30
tp2087
sg66
I00
sg67
g37
(g38
g39
Ntp2088
Rp2089
(dp2090
g43
I5
sg44
S'**'
p2091
sg46
g2077
sbsg73
(dp2092
g2079
I0
sg2080
I0
sg2081
I0
sg2082
I0
ssg79
(dp2093
g2079
I0
sg2080
I0
sg2081
I0
sg2082
I0
ssg81
(dp2094
g2079
I0
sg2080
I0
sg2081
I0
sg2082
I0
ssg83
(dp2095
g2079
I0
sg2080
I0
sg2081
I0
sg2082
I0
ssg85
I0
sg86
I0
sg87
S'Vlaaner'
p2096
sg89
I3
sg90
I0
sg91
I13
sg92
I290
sg64
S'SN'
p2097
sg100
(dp2098
S'A'
p2099
I7
sS'ME'
p2100
I8
sS'RP2'
p2101
I7
sS'E'
p2102
I8
sS'TO'
p2103
I6
sS'RP1'
p2104
I11
sS'JP'
p2105
I3
sS'RP_tot'
p2106
I11
sS'P'
p2107
I4
sS'PA'
p2108
I6
sS'M'
p2109
I8
sS'R'
p2110
I9
sS'TB'
p2111
I3
sS'PL'
p2112
I7
sS'TA'
p2113
I9
ssg166
I0
sg167
I0
sg168
I0
sg169
I0
sg170
F8.482758620689655
sg171
I0
sg172
I0
sg173
I0
sg329
(dp2114
S'A'
p2115
I7
sS'ME'
p2116
I8
sS'RP2'
p2117
I7
sS'E'
p2118
I8
sS'TO'
p2119
I6
sS'RP1'
p2120
I11
sS'JP'
p2121
I3
sS'RP_tot'
p2122
I11
sS'P'
p2123
I4
sS'PA'
p2124
I6
sS'M'
p2125
I8
sS'R'
p2126
I9
sS'TB'
p2127
I3
sS'PL'
p2128
I7
sS'TA'
p2129
I9
ssg174
g2098
sg175
I0
sg57
S'TO 11'
p2130
sg176
I0
sg177
I0
sg178
I0
sg179
I29
sg180
I21
sg181
I0
sg182
S'HL'
p2131
sbssg166
I0
sg167
I0
sg168
I0
sg169
I0
sg170
F8.344827586206897
sg171
I0
sg172
I0
sg173
I0
sg329
(dp2132
S'A'
p2133
I7
sS'ME'
p2134
I8
sS'RP2'
p2135
I7
sS'E'
p2136
I8
sS'TO'
p2137
I6
sS'RP1'
p2138
I11
sS'JP'
p2139
I3
sS'RP_tot'
p2140
I11
sS'P'
p2141
I4
sS'PA'
p2142
I6
sS'M'
p2143
I8
sS'R'
p2144
I9
sS'TB'
p2145
I3
sS'PL'
p2146
I7
sS'TA'
p2147
I9
ssg174
g2053
sg175
I0
sg57
S'TO 11'
p2148
sg176
I0
sg177
I0
sg178
I0
sg179
I29
sg180
I21
sg181
I0
sg182
S'HL'
p2149
sbsS's11'
p2150
(ijoueur
joueur
p2151
(dp2152
g27
I0
sg31
I0
sg34
I0
sg36
g37
(g38
g39
Ntp2153
Rp2154
(dp2155
g43
I5
sg44
S'**'
p2156
sg46
S'seigneur'
p2157
sbsg48
(dp2158
S'SR'
p2159
I0
sS'ST'
p2160
I0
sS'CR'
p2161
I0
sS'CT'
p2162
I0
ssg54
(dp2163
g2159
I0
sg2160
I0
sg2161
I0
sg2162
I0
ssg203
I0
sg58
I0
sg60
I00
sg61
I0
sg62
I0
sg63
I0
sg93
(S'dummy'
p2164
S'TA'
p2165
S'N8'
p2166
g30
tp2167
sg66
I00
sg67
g37
(g38
g39
Ntp2168
Rp2169
(dp2170
g43
I5
sg44
S'**'
p2171
sg46
g2157
sbsg73
(dp2172
g2159
I0
sg2160
I0
sg2161
I0
sg2162
I0
ssg79
(dp2173
g2159
I0
sg2160
I0
sg2161
I0
sg2162
I0
ssg81
(dp2174
g2159
I0
sg2160
I0
sg2161
I0
sg2162
I0
ssg83
(dp2175
g2159
I0
sg2160
I0
sg2161
I0
sg2162
I0
ssg85
I0
sg86
I0
sg87
S'Vlaaner'
p2176
sg89
I3
sg90
I0
sg91
I13
sg92
I290
sg64
S'SN'
p2177
sg100
(dp2178
S'A'
p2179
I7
sS'ME'
p2180
I8
sS'RP2'
p2181
I7
sS'E'
p2182
I8
sS'TO'
p2183
I6
sS'RP1'
p2184
I11
sS'JP'
p2185
I3
sS'RP_tot'
p2186
I11
sS'P'
p2187
I4
sS'PA'
p2188
I6
sS'M'
p2189
I8
sS'R'
p2190
I9
sS'TB'
p2191
I3
sS'PL'
p2192
I7
sS'TA'
p2193
I9
ssg166
I0
sg167
I0
sg168
I0
sg169
I0
sg170
F8.482758620689655
sg171
I0
sg172
I0
sg173
I0
sg329
(dp2194
S'A'
p2195
I7
sS'ME'
p2196
I8
sS'RP2'
p2197
I7
sS'E'
p2198
I8
sS'TO'
p2199
I6
sS'RP1'
p2200
I11
sS'JP'
p2201
I3
sS'RP_tot'
p2202
I11
sS'P'
p2203
I4
sS'PA'
p2204
I6
sS'M'
p2205
I8
sS'R'
p2206
I9
sS'TB'
p2207
I3
sS'PL'
p2208
I7
sS'TA'
p2209
I9
ssg174
g2178
sg175
I0
sg57
S'TO 11'
p2210
sg176
I0
sg177
I0
sg178
I0
sg179
I29
sg180
I21
sg181
I0
sg182
S'HL'
p2211
sbssg166
I0
sg167
I0
sg168
I0
sg169
I0
sg79
(dp2212
g1996
I0
sg1997
I0
sg1998
I0
sg1999
I0
ssg171
I0
sg172
I0
sg173
I0
sg329
(dp2213
S'A'
p2214
I7
sS'ME'
p2215
I8
sS'RP2'
p2216
I7
sS'E'
p2217
I8
sS'TO'
p2218
I6
sS'RP1'
p2219
I11
sS'JP'
p2220
I3
sS'RP_tot'
p2221
I11
sS'P'
p2222
I4
sS'PA'
p2223
I6
sS'M'
p2224
I8
sS'R'
p2225
I9
sS'TB'
p2226
I3
sS'PL'
p2227
I7
sS'TA'
p2228
I9
ssg174
(dp2229
g2005
I7
sg2006
I8
sg2007
I7
sg2008
I8
sg2013
I4
sg2010
I11
sg2011
I3
sg2012
I11
sg2009
I6
sg2014
I6
sg2015
I8
sg2016
I8
sg2017
I3
sg2018
I6
sg2019
I9
ssg175
I0
sg185
(dp2230
sg176
I0
sg57
S'TO 11'
p2231
sg177
I0
sg178
I0
sg179
I29
sg180
I21
sg181
I0
sg182
S'HL'
p2232
sbsS'n17'
p2233
(ijoueur
joueur
p2234
(dp2235
g191
F9.558823529411764
sg27
I0
sg28
F9.205882352941176
sg29
g30
sg31
I0
sg32
I0
sg34
I0
sg36
g37
(g38
g39
Ntp2236
Rp2237
(dp2238
g43
I3
sg44
S'^^^'
p2239
sg46
S'rare'
p2240
sbsg48
(dp2241
g1982
I0
sg1983
I5
sg1984
I11
sg1985
I0
ssg54
(dp2242
g1982
I0
sg1983
I0
sg1984
I0
sg1985
I0
ssg56
I0
sg203
I0
sg170
F9.0
sg58
I0
sg59
I0
sg61
I0
sg62
I0
sg63
I0
sg93
(g1987
S'DL'
p2243
S'PI'
p2244
g30
tp2245
sg66
I00
sg67
g37
(g38
g39
Ntp2246
Rp2247
(dp2248
g43
I3
sg44
S'^^^'
p2249
sg46
g2240
sbsg73
(dp2250
g1996
I0
sg1997
I0
sg1998
I0
sg1999
I0
ssg60
I00
sg81
(dp2251
g1996
I0
sg1997
I0
sg1998
I0
sg1999
I0
ssg83
(dp2252
g1982
I0
sg1983
I2
sg1984
I3
sg1985
I0
ssg85
I0
sg86
I0
sg87
S'Lesyl'
p2253
sg89
I3
sg90
I0
sg91
I11
sg92
I11
sg64
g2003
sg100
(dp2254
g2005
I10
sg2006
I9
sg2007
I7
sg2008
I10
sg2009
I12
sg2010
I7
sg2011
I5
sg2012
I8
sg2013
I6
sg2014
I8
sg2015
I8
sg2016
I6
sg2017
I6
sg2018
I9
sg2019
I4
ssg117
(dp2255
g2021
(ijoueur
joueur
p2256
(dp2257
g191
F9.558823529411764
sg27
I0
sg29
g30
sg31
I0
sg34
I0
sg36
g37
(g38
g39
Ntp2258
Rp2259
(dp2260
g43
I3
sg44
S'^^^'
p2261
sg46
S'rare'
p2262
sbsg48
(dp2263
g2030
I0
sg2031
I5
sg2032
I11
sg2033
I0
ssg54
(dp2264
g2030
I0
sg2031
I0
sg2032
I0
sg2033
I0
ssg203
I0
sg58
I0
sg60
I01
sg61
I0
sg62
I0
sg63
I0
sg93
(g2035
S'DL'
p2265
S'PI'
p2266
g30
tp2267
sg66
I01
sg67
g37
(g38
g39
Ntp2268
Rp2269
(dp2270
g43
I3
sg44
S'^^^'
p2271
sg46
g2262
sbsg73
(dp2272
g2044
I0
sg2045
I0
sg2046
I3
sg2047
I2
ssg79
(dp2273
g2044
I0
sg2045
I0
sg2046
I2
sg2047
I0
ssg81
(dp2274
g2044
I0
sg2045
I0
sg2046
I0
sg2047
I0
ssg83
(dp2275
g2030
I0
sg2031
I2
sg2032
I3
sg2033
I0
ssg85
I0
sg86
I0
sg87
S'Lesyl'
p2276
sg89
I3
sg90
I0
sg91
I11
sg92
I11
sg64
g2052
sg100
(dp2277
g2054
I10
sg2055
I9
sg2056
I7
sg2057
I10
sg2058
I6
sg2059
I7
sg2060
I5
sg2061
I7
sg2062
I12
sg2063
I8
sg2064
I8
sg2065
I7
sg2066
I6
sg2067
I10
sg2068
I4
ssg117
(dp2278
g2070
(ijoueur
joueur
p2279
(dp2280
g27
I0
sg31
I0
sg34
I0
sg36
g37
(g38
g39
Ntp2281
Rp2282
(dp2283
g43
I3
sg44
S'^^^'
p2284
sg46
S'rare'
p2285
sbsg48
(dp2286
S'SR'
p2287
I0
sS'ST'
p2288
I0
sS'CR'
p2289
I9
sS'CT'
p2290
I5
ssg54
(dp2291
g2287
I0
sg2288
I0
sg2289
I0
sg2290
I0
ssg203
I0
sg58
I0
sg60
I01
sg61
I0
sg62
I0
sg63
I0
sg93
(S'dummy'
p2292
S'DL'
p2293
S'PI'
p2294
g30
tp2295
sg66
I00
sg67
g37
(g38
g39
Ntp2296
Rp2297
(dp2298
g43
I3
sg44
S'^^^'
p2299
sg46
g2285
sbsg73
(dp2300
g2287
I0
sg2288
I0
sg2289
I0
sg2290
I0
ssg79
(dp2301
g2287
I0
sg2288
I0
sg2289
I9
sg2290
I5
ssg81
(dp2302
g2287
I0
sg2288
I0
sg2289
I0
sg2290
I0
ssg83
(dp2303
g2287
I0
sg2288
I0
sg2289
I0
sg2290
I0
ssg85
I0
sg86
I0
sg87
S'Lesyl'
p2304
sg89
I3
sg90
I0
sg91
I11
sg92
I11
sg64
S'SN'
p2305
sg100
(dp2306
S'A'
p2307
I10
sS'ME'
p2308
I12
sS'RP2'
p2309
I7
sS'E'
p2310
I10
sS'TO'
p2311
I12
sS'RP1'
p2312
I7
sS'JP'
p2313
I5
sS'RP_tot'
p2314
I7
sS'P'
p2315
I6
sS'PA'
p2316
I8
sS'M'
p2317
I8
sS'R'
p2318
I7
sS'TB'
p2319
I6
sS'PL'
p2320
I10
sS'TA'
p2321
I4
ssg166
I0
sg167
I0
sg168
I0
sg169
I0
sg170
F9.558823529411764
sg171
I0
sg172
I0
sg173
I0
sg329
(dp2322
S'A'
p2323
I10
sS'ME'
p2324
I12
sS'RP2'
p2325
I7
sS'E'
p2326
I10
sS'TO'
p2327
I12
sS'RP1'
p2328
I7
sS'JP'
p2329
I5
sS'RP_tot'
p2330
I7
sS'P'
p2331
I6
sS'PA'
p2332
I8
sS'M'
p2333
I8
sS'R'
p2334
I7
sS'TB'
p2335
I6
sS'PL'
p2336
I10
sS'TA'
p2337
I4
ssg174
g2306
sg175
I0
sg57
g30
sg176
I0
sg177
I0
sg178
I0
sg179
I1
sg180
I5
sg181
I0
sg182
S'EN'
p2338
sbssg166
I0
sg167
I0
sg168
I0
sg169
I0
sg170
F9.205882352941176
sg171
I0
sg172
I0
sg173
I0
sg329
(dp2339
g2133
I10
sg2134
I12
sg2135
I7
sg2136
I10
sg2137
I12
sg2138
I7
sg2139
I5
sg2140
I7
sg2141
I6
sg2142
I8
sg2143
I8
sg2144
I7
sg2145
I6
sg2146
I10
sg2147
I4
ssg174
g2277
sg175
I0
sg57
g30
sg176
I0
sg177
I0
sg178
I0
sg179
I1
sg180
I5
sg181
I0
sg182
S'EN'
p2340
sbsg2150
(ijoueur
joueur
p2341
(dp2342
g27
I0
sg31
I0
sg34
I0
sg36
g37
(g38
g39
Ntp2343
Rp2344
(dp2345
g43
I3
sg44
S'^^^'
p2346
sg46
S'rare'
p2347
sbsg48
(dp2348
S'SR'
p2349
I0
sS'ST'
p2350
I0
sS'CR'
p2351
I9
sS'CT'
p2352
I5
ssg54
(dp2353
g2349
I0
sg2350
I0
sg2351
I0
sg2352
I0
ssg203
I0
sg58
I0
sg60
I01
sg61
I0
sg62
I0
sg63
I0
sg93
(S'dummy'
p2354
S'DL'
p2355
S'PI'
p2356
g30
tp2357
sg66
I00
sg67
g37
(g38
g39
Ntp2358
Rp2359
(dp2360
g43
I3
sg44
S'^^^'
p2361
sg46
g2347
sbsg73
(dp2362
g2349
I0
sg2350
I0
sg2351
I0
sg2352
I0
ssg79
(dp2363
g2349
I0
sg2350
I0
sg2351
I9
sg2352
I5
ssg81
(dp2364
g2349
I0
sg2350
I0
sg2351
I0
sg2352
I0
ssg83
(dp2365
g2349
I0
sg2350
I0
sg2351
I0
sg2352
I0
ssg85
I0
sg86
I0
sg87
S'Lesyl'
p2366
sg89
I3
sg90
I0
sg91
I11
sg92
I11
sg64
S'SN'
p2367
sg100
(dp2368
S'A'
p2369
I10
sS'ME'
p2370
I12
sS'RP2'
p2371
I7
sS'E'
p2372
I10
sS'TO'
p2373
I12
sS'RP1'
p2374
I7
sS'JP'
p2375
I5
sS'RP_tot'
p2376
I7
sS'P'
p2377
I6
sS'PA'
p2378
I8
sS'M'
p2379
I8
sS'R'
p2380
I7
sS'TB'
p2381
I6
sS'PL'
p2382
I10
sS'TA'
p2383
I4
ssg166
I0
sg167
I0
sg168
I0
sg169
I0
sg170
F9.558823529411764
sg171
I0
sg172
I0
sg173
I0
sg329
(dp2384
S'A'
p2385
I10
sS'ME'
p2386
I12
sS'RP2'
p2387
I7
sS'E'
p2388
I10
sS'TO'
p2389
I12
sS'RP1'
p2390
I7
sS'JP'
p2391
I5
sS'RP_tot'
p2392
I7
sS'P'
p2393
I6
sS'PA'
p2394
I8
sS'M'
p2395
I8
sS'R'
p2396
I7
sS'TB'
p2397
I6
sS'PL'
p2398
I10
sS'TA'
p2399
I4
ssg174
g2368
sg175
I0
sg57
g30
sg176
I0
sg177
I0
sg178
I0
sg179
I1
sg180
I5
sg181
I0
sg182
S'EN'
p2400
sbssg166
I0
sg167
I0
sg168
I0
sg169
I0
sg79
(dp2401
g1996
I0
sg1997
I0
sg1998
I0
sg1999
I0
ssg171
I0
sg172
I0
sg173
I0
sg329
(dp2402
g2214
I10
sg2215
I12
sg2216
I7
sg2217
I10
sg2218
I12
sg2219
I7
sg2220
I5
sg2221
I7
sg2222
I6
sg2223
I8
sg2224
I8
sg2225
I7
sg2226
I6
sg2227
I10
sg2228
I4
ssg174
(dp2403
g2005
I10
sg2006
I9
sg2007
I7
sg2008
I10
sg2013
I6
sg2010
I7
sg2011
I5
sg2012
I8
sg2009
I12
sg2014
I8
sg2015
I8
sg2016
I6
sg2017
I6
sg2018
I9
sg2019
I4
ssg175
I0
sg185
(dp2404
sg176
I0
sg57
g30
sg177
I0
sg178
I0
sg179
I5
sg180
I5
sg181
I0
sg182
S'EN'
p2405
sbsS'n14'
p2406
(ijoueur
joueur
p2407
(dp2408
g191
F10.7
sg27
I0
sg28
F10.766666666666667
sg29
g30
sg31
I0
sg32
F31.966126218602312
sg34
I0
sg36
g37
(g38
g39
Ntp2409
Rp2410
(dp2411
g43
I4
sg44
S'x'
p2412
sg46
S'heros'
p2413
sbsg48
(dp2414
S'SR'
p2415
I3
sS'ST'
p2416
I0
sS'CR'
p2417
I0
sS'CT'
p2418
I1
ssg54
(dp2419
g2415
I4
sg2416
I1
sg2417
I0
sg2418
I4
ssg56
I0
sg203
I0
sg58
I0
sg59
F31.966126218602312
sg60
I00
sg61
I0
sg62
I0
sg63
I0
sg93
(S'dummy'
p2420
S'C1'
p2421
S'AR'
p2422
S'AI'
p2423
tp2424
sg66
I00
sg67
g37
(g38
g39
Ntp2425
Rp2426
(dp2427
g43
I4
sg44
g2412
sg46
g2413
sbsg73
(dp2428
g75
I0
sg76
I0
sg77
I0
sg78
I0
ssg79
(dp2429
g75
I0
sg76
I0
sg77
I0
sg78
I0
ssg81
(dp2430
g75
I0
sg76
I3
sg77
I0
sg78
I0
ssg83
(dp2431
g2415
I3
sg2416
I0
sg2417
I0
sg2418
I25
ssg85
I0
sg86
I0
sg87
S'Farifend'
p2432
sg89
I7
sg90
I0
sg91
I22
sg92
I123
sg64
g65
sg100
(dp2433
S'A'
p2434
I11
sS'ME'
p2435
I3
sS'RP2'
p2436
I8
sS'E'
p2437
I11
sS'P'
p2438
I11
sS'RP1'
p2439
I9
sS'JP'
p2440
I9
sS'RP_tot'
p2441
I10
sS'TO'
p2442
I10
sS'PA'
p2443
I12
sS'M'
p2444
I13
sS'R'
p2445
I6
sS'TB'
p2446
I8
sS'PL'
p2447
I9
sS'TA'
p2448
I3
ssg117
(dp2449
g119
(ijoueur
joueur
p2450
(dp2451
g191
F10.7
sg27
I0
sg29
g30
sg31
I0
sg34
I0
sg36
g37
(g38
g39
Ntp2452
Rp2453
(dp2454
g43
I4
sg44
S'x'
p2455
sg46
S'heros'
p2456
sbsg48
(dp2457
S'SR'
p2458
I3
sS'ST'
p2459
I0
sS'CR'
p2460
I0
sS'CT'
p2461
I1
ssg54
(dp2462
g2458
I4
sg2459
I1
sg2460
I0
sg2461
I1
ssg79
(dp2463
g754
I3
sg755
I1
sg756
I0
sg757
I0
ssg203
I0
sg58
I0
sg61
I2
sg62
I0
sg63
I0
sg93
(S'dummy'
p2464
S'C1'
p2465
S'AR'
p2466
S'AI'
p2467
tp2468
sg66
I00
sg67
g37
(g38
g39
Ntp2469
Rp2470
(dp2471
g43
I4
sg44
g2455
sg46
g2456
sbsg73
(dp2472
g754
I0
sg755
I11
sg756
I0
sg757
I0
ssg60
I00
sg81
(dp2473
g754
I3
sg755
I1
sg756
I0
sg757
I1
ssg83
(dp2474
g2458
I3
sg2459
I0
sg2460
I0
sg2461
I25
ssg85
I0
sg86
I0
sg87
S'Farifend (12)'
p2475
sg89
I7
sg90
I0
sg91
I22
sg92
I123
sg64
g134
sg100
(dp2476
S'A'
p2477
I12
sS'ME'
p2478
I3
sS'RP2'
p2479
I8
sS'E'
p2480
I11
sS'TO'
p2481
I10
sS'RP1'
p2482
I9
sS'JP'
p2483
I9
sS'RP_tot'
p2484
I10
sS'P'
p2485
I11
sS'PA'
p2486
I12
sS'M'
p2487
I13
sS'R'
p2488
I7
sS'TB'
p2489
I9
sS'PL'
p2490
I10
sS'TA'
p2491
I3
ssg117
(dp2492
g788
(ijoueur
joueur
p2493
(dp2494
g27
I0
sg31
I0
sg34
I0
sg36
g37
(g38
g39
Ntp2495
Rp2496
(dp2497
g43
I4
sg44
S'x'
p2498
sg46
S'heros'
p2499
sbsg48
(dp2500
S'SR'
p2501
I0
sS'CT'
p2502
I0
sS'CR'
p2503
I0
sS'ST'
p2504
I0
ssg54
(dp2505
g2501
I1
sg2502
I0
sg2503
I0
sg2504
I0
ssg203
I0
sg58
I0
sg60
I00
sg61
I2
sg62
I0
sg63
I0
sg93
(S'dummy'
p2506
S'C1'
p2507
S'AR'
p2508
S'AI'
p2509
tp2510
sg66
I01
sg67
g37
(g38
g39
Ntp2511
Rp2512
(dp2513
g43
I4
sg44
g2498
sg46
g2499
sbsg73
(dp2514
g2501
I3
sg2502
I14
sg2503
I0
sg2504
I0
ssg79
(dp2515
g2501
I0
sg2502
I0
sg2503
I0
sg2504
I0
ssg81
(dp2516
g2501
I1
sg2502
I0
sg2503
I0
sg2504
I0
ssg83
(dp2517
g2501
I3
sg2502
I14
sg2503
I0
sg2504
I0
ssg85
I0
sg86
I0
sg87
S'Farifend'
p2518
sg89
I7
sg90
I0
sg91
I22
sg92
I120
sg64
S'HTH'
p2519
sg100
(dp2520
S'A'
p2521
I12
sS'ME'
p2522
I3
sS'RP2'
p2523
I8
sS'E'
p2524
I11
sS'P'
p2525
I11
sS'RP1'
p2526
I9
sS'JP'
p2527
I8
sS'RP_tot'
p2528
I10
sS'TO'
p2529
I10
sS'PA'
p2530
I12
sS'M'
p2531
I13
sS'R'
p2532
I7
sS'TB'
p2533
I9
sS'PL'
p2534
I10
sS'TA'
p2535
I3
ssg166
I0
sg167
I0
sg168
I0
sg169
I0
sg170
F10.7
sg171
I0
sg172
I0
sg173
I0
sg329
(dp2536
S'A'
p2537
I12
sS'ME'
p2538
I3
sS'RP2'
p2539
I8
sS'E'
p2540
I11
sS'P'
p2541
I11
sS'RP1'
p2542
I9
sS'JP'
p2543
I8
sS'RP_tot'
p2544
I10
sS'TO'
p2545
I10
sS'PA'
p2546
I12
sS'M'
p2547
I13
sS'R'
p2548
I7
sS'TB'
p2549
I9
sS'PL'
p2550
I10
sS'TA'
p2551
I3
ssg174
g2520
sg175
I0
sg57
g30
sg176
I0
sg177
I0
sg178
I0
sg179
I14
sg180
I5
sg181
I0
sg182
S'ES'
p2552
sbssg166
I2
sg167
I0
sg168
I1
sg169
I0
sg170
F10.766666666666667
sg171
I0
sg172
I1
sg173
I0
sg329
(dp2553
S'A'
p2554
I12
sS'ME'
p2555
I3
sS'RP2'
p2556
I8
sS'E'
p2557
I11
sS'P'
p2558
I11
sS'RP1'
p2559
I9
sS'JP'
p2560
I8
sS'RP_tot'
p2561
I10
sS'TO'
p2562
I10
sS'PA'
p2563
I12
sS'M'
p2564
I13
sS'R'
p2565
I7
sS'TB'
p2566
I9
sS'PL'
p2567
I10
sS'TA'
p2568
I3
ssg174
g2476
sg175
I0
sg57
S'HTH 12'
p2569
sg176
I0
sg177
I0
sg178
I0
sg179
I18
sg180
I7
sg181
I0
sg182
S'ES'
p2570
sbsg867
(ijoueur
joueur
p2571
(dp2572
g27
I0
sg31
I0
sg34
I0
sg36
g37
(g38
g39
Ntp2573
Rp2574
(dp2575
g43
I4
sg44
S'x'
p2576
sg46
S'heros'
p2577
sbsg48
(dp2578
S'SR'
p2579
I0
sS'CT'
p2580
I0
sS'CR'
p2581
I0
sS'ST'
p2582
I0
ssg54
(dp2583
g2579
I1
sg2580
I0
sg2581
I0
sg2582
I0
ssg203
I0
sg58
I0
sg60
I00
sg61
I2
sg62
I0
sg63
I0
sg93
(S'dummy'
p2584
S'C1'
p2585
S'AR'
p2586
S'AI'
p2587
tp2588
sg66
I01
sg67
g37
(g38
g39
Ntp2589
Rp2590
(dp2591
g43
I4
sg44
g2576
sg46
g2577
sbsg73
(dp2592
g2579
I3
sg2580
I14
sg2581
I0
sg2582
I0
ssg79
(dp2593
g2579
I0
sg2580
I0
sg2581
I0
sg2582
I0
ssg81
(dp2594
g2579
I1
sg2580
I0
sg2581
I0
sg2582
I0
ssg83
(dp2595
g2579
I3
sg2580
I14
sg2581
I0
sg2582
I0
ssg85
I0
sg86
I0
sg87
S'Farifend (11)'
p2596
sg89
I7
sg90
I0
sg91
I22
sg92
I120
sg64
S'HTH'
p2597
sg100
(dp2598
S'A'
p2599
I12
sS'ME'
p2600
I3
sS'RP2'
p2601
I8
sS'E'
p2602
I11
sS'P'
p2603
I11
sS'RP1'
p2604
I9
sS'JP'
p2605
I8
sS'RP_tot'
p2606
I10
sS'TO'
p2607
I10
sS'PA'
p2608
I12
sS'M'
p2609
I13
sS'R'
p2610
I7
sS'TB'
p2611
I9
sS'PL'
p2612
I10
sS'TA'
p2613
I3
ssg166
I0
sg167
I0
sg168
I0
sg169
I0
sg170
F10.7
sg171
I0
sg172
I0
sg173
I0
sg329
(dp2614
S'A'
p2615
I12
sS'ME'
p2616
I3
sS'RP2'
p2617
I8
sS'E'
p2618
I11
sS'P'
p2619
I11
sS'RP1'
p2620
I9
sS'JP'
p2621
I8
sS'RP_tot'
p2622
I10
sS'TO'
p2623
I10
sS'PA'
p2624
I12
sS'M'
p2625
I13
sS'R'
p2626
I7
sS'TB'
p2627
I9
sS'PL'
p2628
I10
sS'TA'
p2629
I3
ssg174
g2598
sg175
I0
sg57
g30
sg176
I0
sg177
I0
sg178
I0
sg179
I14
sg180
I5
sg181
I0
sg182
S'ES'
p2630
sbssg166
I8
sg167
I0
sg168
I1
sg169
I0
sg170
F10.766666666666667
sg171
I0
sg172
I0
sg173
I0
sg329
(dp2631
S'A'
p2632
I12
sS'ME'
p2633
I3
sS'RP2'
p2634
I8
sS'E'
p2635
I11
sS'P'
p2636
I11
sS'RP1'
p2637
I9
sS'JP'
p2638
I8
sS'RP_tot'
p2639
I10
sS'TO'
p2640
I10
sS'PA'
p2641
I12
sS'M'
p2642
I13
sS'R'
p2643
I7
sS'TB'
p2644
I9
sS'PL'
p2645
I10
sS'TA'
p2646
I3
ssg174
(dp2647
g2434
I12
sg2435
I3
sg2436
I8
sg2437
I11
sg2442
I10
sg2439
I9
sg2440
I9
sg2441
I10
sg2438
I11
sg2443
I12
sg2444
I13
sg2445
I7
sg2446
I8
sg2447
I10
sg2448
I3
ssg175
I0
sg185
(dp2648
sg176
I0
sg57
S'HTH 12'
p2649
sg177
I0
sg178
I0
sg179
I18
sg180
I7
sg181
I0
sg182
S'ES'
p2650
sbsS'n15'
p2651
(ijoueur
joueur
p2652
(dp2653
g191
F10.727272727272727
sg27
I0
sg28
F10.424242424242424
sg29
g30
sg31
I2
sg32
F31.966126218602312
sg34
I0
sg36
g37
(g38
g39
Ntp2654
Rp2655
(dp2656
g43
I3
sg44
S'^^^'
p2657
sg46
S'rare'
p2658
sbsg48
(dp2659
S'SR'
p2660
I0
sS'CT'
p2661
I26
sS'CR'
p2662
I0
sS'ST'
p2663
I0
ssg54
(dp2664
g2660
I0
sg2661
I0
sg2662
I2
sg2663
I0
ssg56
I0
sg203
I1
sg58
I0
sg59
F31.966126218602312
sg60
I00
sg61
I0
sg62
I0
sg63
I0
sg93
(S'dummy'
p2665
S'AR'
p2666
S'AI'
p2667
S'CE'
p2668
tp2669
sg66
I00
sg67
g37
(g38
g39
Ntp2670
Rp2671
(dp2672
g43
I3
sg44
S'^^^'
p2673
sg46
g2658
sbsg73
(dp2674
g75
I0
sg76
I0
sg77
I1
sg78
I0
ssg79
(dp2675
g75
I0
sg76
I0
sg77
I0
sg78
I0
ssg81
(dp2676
g75
I0
sg76
I0
sg77
I2
sg78
I0
ssg83
(dp2677
g2660
I0
sg2661
I1
sg2662
I1
sg2663
I10
ssg85
I0
sg86
I0
sg87
S'Mentre'
p2678
sg89
I8
sg90
I0
sg91
I18
sg92
I163
sg64
g65
sg100
(dp2679
S'A'
p2680
I10
sS'ME'
p2681
I7
sS'RP2'
p2682
I8
sS'E'
p2683
I10
sS'TO'
p2684
I2
sS'RP1'
p2685
I10
sS'JP'
p2686
I8
sS'RP_tot'
p2687
I11
sS'P'
p2688
I7
sS'PA'
p2689
I7
sS'M'
p2690
I12
sS'R'
p2691
I9
sS'TB'
p2692
I9
sS'PL'
p2693
I12
sS'TA'
p2694
I5
ssg117
(dp2695
S's12'
p2696
(ijoueur
joueur
p2697
(dp2698
g191
F10.727272727272727
sg27
I0
sg29
g30
sg31
I2
sg34
I0
sg36
g37
(g38
g39
Ntp2699
Rp2700
(dp2701
g43
I3
sg44
S'^^^'
p2702
sg46
S'rare'
p2703
sbsg48
(dp2704
S'SR'
p2705
I0
sS'CT'
p2706
I26
sS'CR'
p2707
I0
sS'ST'
p2708
I0
ssg54
(dp2709
g2705
I0
sg2706
I0
sg2707
I0
sg2708
I0
ssg79
(dp2710
S'SR'
p2711
I0
sS'CT'
p2712
I12
sS'CR'
p2713
I0
sS'ST'
p2714
I0
ssg203
I1
sg58
I0
sg61
I0
sg62
I0
sg63
I0
sg93
(S'dummy'
p2715
S'AR'
p2716
S'AI'
p2717
S'CE'
p2718
tp2719
sg66
I01
sg67
g37
(g38
g39
Ntp2720
Rp2721
(dp2722
g43
I3
sg44
S'^^^'
p2723
sg46
g2703
sbsg73
(dp2724
g2711
I0
sg2712
I0
sg2713
I0
sg2714
I5
ssg60
I00
sg81
(dp2725
g2711
I0
sg2712
I0
sg2713
I0
sg2714
I0
ssg83
(dp2726
g2705
I0
sg2706
I1
sg2707
I0
sg2708
I10
ssg85
I0
sg86
I0
sg87
S'Mentre (12)'
p2727
sg89
I8
sg90
I0
sg91
I18
sg92
I136
sg64
S'MDL'
p2728
sg100
(dp2729
S'A'
p2730
I10
sS'ME'
p2731
I7
sS'RP2'
p2732
I9
sS'E'
p2733
I10
sS'P'
p2734
I7
sS'RP1'
p2735
I10
sS'JP'
p2736
I10
sS'RP_tot'
p2737
I11
sS'TO'
p2738
I2
sS'PA'
p2739
I7
sS'M'
p2740
I12
sS'R'
p2741
I9
sS'TB'
p2742
I8
sS'PL'
p2743
I12
sS'TA'
p2744
I5
ssg117
(dp2745
S's11'
p2746
(ijoueur
joueur
p2747
(dp2748
g27
I0
sg31
I1
sg34
I0
sg36
g37
(g38
g39
Ntp2749
Rp2750
(dp2751
g43
I3
sg44
S'^^^'
p2752
sg46
S'rare'
p2753
sbsg48
(dp2754
S'SR'
p2755
I0
sS'CT'
p2756
I14
sS'CR'
p2757
I0
sS'ST'
p2758
I0
ssg54
(dp2759
g2755
I0
sg2756
I0
sg2757
I0
sg2758
I0
ssg203
I1
sg58
I1
sg60
I00
sg61
I4
sg62
I0
sg63
I0
sg93
(S'dummy'
p2760
S'AR'
p2761
S'AI'
p2762
S'CE'
p2763
tp2764
sg66
I00
sg67
g37
(g38
g39
Ntp2765
Rp2766
(dp2767
g43
I3
sg44
S'^^^'
p2768
sg46
g2753
sbsg73
(dp2769
g2755
I0
sg2756
I1
sg2757
I0
sg2758
I5
ssg79
(dp2770
g2755
I0
sg2756
I14
sg2757
I0
sg2758
I0
ssg81
(dp2771
g2755
I0
sg2756
I0
sg2757
I0
sg2758
I0
ssg83
(dp2772
g2755
I0
sg2756
I1
sg2757
I0
sg2758
I5
ssg85
I0
sg86
I0
sg87
S'Mentre'
p2773
sg89
I8
sg90
I0
sg91
I18
sg92
I136
sg64
S'MDL'
p2774
sg100
(dp2775
S'A'
p2776
I10
sS'ME'
p2777
I7
sS'RP2'
p2778
I11
sS'E'
p2779
I10
sS'P'
p2780
I7
sS'RP1'
p2781
I10
sS'JP'
p2782
I10
sS'RP_tot'
p2783
I14
sS'TO'
p2784
I2
sS'PA'
p2785
I7
sS'M'
p2786
I12
sS'R'
p2787
I9
sS'TB'
p2788
I7
sS'PL'
p2789
I12
sS'TA'
p2790
I5
ssg166
I0
sg167
I0
sg168
I0
sg169
I0
sg170
F10.727272727272727
sg171
I0
sg172
I0
sg173
I0
sg329
(dp2791
S'A'
p2792
I10
sS'ME'
p2793
I7
sS'RP2'
p2794
I11
sS'E'
p2795
I10
sS'P'
p2796
I7
sS'RP1'
p2797
I10
sS'JP'
p2798
I10
sS'RP_tot'
p2799
I14
sS'TO'
p2800
I2
sS'PA'
p2801
I7
sS'M'
p2802
I12
sS'R'
p2803
I9
sS'TB'
p2804
I7
sS'PL'
p2805
I12
sS'TA'
p2806
I5
ssg174
g2775
sg175
I0
sg57
g30
sg176
I0
sg177
I1
sg178
I0
sg179
I18
sg180
I9
sg181
I0
sg182
S'OG'
p2807
sbssg166
I0
sg167
I0
sg168
I0
sg169
I0
sg170
F10.424242424242424
sg171
I0
sg172
I0
sg173
I0
sg329
(dp2808
S'A'
p2809
I10
sS'ME'
p2810
I7
sS'RP2'
p2811
I11
sS'E'
p2812
I10
sS'TO'
p2813
I2
sS'RP1'
p2814
I10
sS'JP'
p2815
I10
sS'RP_tot'
p2816
I14
sS'P'
p2817
I7
sS'PA'
p2818
I7
sS'M'
p2819
I12
sS'R'
p2820
I9
sS'TB'
p2821
I7
sS'PL'
p2822
I12
sS'TA'
p2823
I5
ssg174
g2729
sg175
I0
sg57
g30
sg176
I0
sg177
I1
sg178
I0
sg179
I18
sg180
I9
sg181
I0
sg182
S'OG'
p2824
sbsS's11'
p2825
(ijoueur
joueur
p2826
(dp2827
g27
I0
sg31
I1
sg34
I0
sg36
g37
(g38
g39
Ntp2828
Rp2829
(dp2830
g43
I3
sg44
S'^^^'
p2831
sg46
S'rare'
p2832
sbsg48
(dp2833
S'SR'
p2834
I0
sS'CT'
p2835
I14
sS'CR'
p2836
I0
sS'ST'
p2837
I0
ssg54
(dp2838
g2834
I0
sg2835
I0
sg2836
I0
sg2837
I0
ssg203
I1
sg58
I1
sg60
I00
sg61
I4
sg62
I0
sg63
I0
sg93
(S'dummy'
p2839
S'AR'
p2840
S'AI'
p2841
S'CE'
p2842
tp2843
sg66
I00
sg67
g37
(g38
g39
Ntp2844
Rp2845
(dp2846
g43
I3
sg44
S'^^^'
p2847
sg46
g2832
sbsg73
(dp2848
g2834
I0
sg2835
I1
sg2836
I0
sg2837
I5
ssg79
(dp2849
g2834
I0
sg2835
I14
sg2836
I0
sg2837
I0
ssg81
(dp2850
g2834
I0
sg2835
I0
sg2836
I0
sg2837
I0
ssg83
(dp2851
g2834
I0
sg2835
I1
sg2836
I0
sg2837
I5
ssg85
I0
sg86
I0
sg87
S'Mentre (11)'
p2852
sg89
I8
sg90
I0
sg91
I18
sg92
I136
sg64
S'MDL'
p2853
sg100
(dp2854
S'A'
p2855
I10
sS'ME'
p2856
I7
sS'RP2'
p2857
I11
sS'E'
p2858
I10
sS'P'
p2859
I7
sS'RP1'
p2860
I10
sS'JP'
p2861
I10
sS'RP_tot'
p2862
I13
sS'TO'
p2863
I2
sS'PA'
p2864
I7
sS'M'
p2865
I12
sS'R'
p2866
I9
sS'TB'
p2867
I7
sS'PL'
p2868
I12
sS'TA'
p2869
I5
ssg166
I0
sg167
I0
sg168
I0
sg169
I0
sg170
F10.727272727272727
sg171
I0
sg172
I0
sg173
I0
sg329
(dp2870
S'A'
p2871
I10
sS'ME'
p2872
I7
sS'RP2'
p2873
I11
sS'E'
p2874
I10
sS'P'
p2875
I7
sS'RP1'
p2876
I10
sS'JP'
p2877
I10
sS'RP_tot'
p2878
I14
sS'TO'
p2879
I2
sS'PA'
p2880
I7
sS'M'
p2881
I12
sS'R'
p2882
I9
sS'TB'
p2883
I7
sS'PL'
p2884
I12
sS'TA'
p2885
I5
ssg174
g2854
sg175
I0
sg57
g30
sg176
I0
sg177
I1
sg178
I0
sg179
I18
sg180
I9
sg181
I0
sg182
S'OG'
p2886
sbssg166
I6
sg167
I0
sg168
I0
sg169
I0
sg170
F10.151515151515152
sg171
I0
sg172
I0
sg173
I0
sg329
(dp2887
S'A'
p2888
I10
sS'ME'
p2889
I7
sS'RP2'
p2890
I11
sS'E'
p2891
I10
sS'TO'
p2892
I2
sS'RP1'
p2893
I10
sS'JP'
p2894
I10
sS'RP_tot'
p2895
I14
sS'P'
p2896
I7
sS'PA'
p2897
I7
sS'M'
p2898
I12
sS'R'
p2899
I9
sS'TB'
p2900
I7
sS'PL'
p2901
I12
sS'TA'
p2902
I5
ssg174
(dp2903
g2680
I10
sg2681
I7
sg2682
I8
sg2683
I10
sg2688
I7
sg2685
I10
sg2686
I8
sg2687
I11
sg2684
I2
sg2689
I7
sg2690
I12
sg2691
I9
sg2692
I9
sg2693
I12
sg2694
I5
ssg175
I0
sg185
(dp2904
sg176
I0
sg57
S'MDL 13'
p2905
sg177
I0
sg178
I0
sg179
I11
sg180
I9
sg181
I0
sg182
S'OG'
p2906
sbsS'n18'
p2907
(ijoueur
joueur
p2908
(dp2909
g191
F9.764705882352942
sg27
I0
sg28
F9.205882352941176
sg29
g30
sg31
I0
sg32
I0
sg34
I0
sg36
g37
(g38
g39
Ntp2910
Rp2911
(dp2912
g43
I5
sg44
S'**'
p2913
sg46
g1980
sbsg48
(dp2914
g1982
I0
sg1983
I0
sg1984
I0
sg1985
I1
ssg54
(dp2915
g1982
I0
sg1983
I0
sg1984
I0
sg1985
I0
ssg56
I0
sg203
I0
sg170
F9.205882352941176
sg58
I0
sg59
I0
sg61
I0
sg62
I0
sg63
I0
sg93
(g1987
S'DL'
p2916
S'TL'
p2917
g30
tp2918
sg66
I00
sg67
g37
(g38
g39
Ntp2919
Rp2920
(dp2921
g43
I5
sg44
S'**'
p2922
sg46
g1980
sbsg73
(dp2923
g1996
I0
sg1997
I0
sg1998
I0
sg1999
I0
ssg60
I00
sg81
(dp2924
g1996
I0
sg1997
I0
sg1998
I0
sg1999
I0
ssg83
(dp2925
g1982
I0
sg1983
I9
sg1984
I20
sg1985
I0
ssg85
I0
sg86
I0
sg87
S'Le Daho'
p2926
sg89
I3
sg90
I0
sg91
I12
sg92
I254
sg64
g2003
sg100
(dp2927
g2005
I11
sg2006
I9
sg2007
I7
sg2008
I10
sg2009
I10
sg2010
I8
sg2011
I4
sg2012
I9
sg2013
I6
sg2014
I10
sg2015
I8
sg2016
I9
sg2017
I2
sg2018
I7
sg2019
I3
ssg117
(dp2928
g2021
(ijoueur
joueur
p2929
(dp2930
g191
F9.764705882352942
sg27
I0
sg29
g30
sg31
I0
sg34
I0
sg36
g37
(g38
g39
Ntp2931
Rp2932
(dp2933
g43
I5
sg44
S'**'
p2934
sg46
g2028
sbsg48
(dp2935
g2030
I0
sg2031
I0
sg2032
I0
sg2033
I1
ssg54
(dp2936
g2030
I0
sg2031
I0
sg2032
I0
sg2033
I0
ssg203
I0
sg58
I0
sg60
I00
sg61
I2
sg62
I0
sg63
I0
sg93
(g2035
S'DL'
p2937
S'TL'
p2938
g30
tp2939
sg66
I00
sg67
g37
(g38
g39
Ntp2940
Rp2941
(dp2942
g43
I5
sg44
S'**'
p2943
sg46
g2028
sbsg73
(dp2944
g2044
I0
sg2045
I0
sg2046
I12
sg2047
I3
ssg79
(dp2945
g2044
I0
sg2045
I0
sg2046
I0
sg2047
I0
ssg81
(dp2946
g2044
I0
sg2045
I0
sg2046
I0
sg2047
I0
ssg83
(dp2947
g2030
I0
sg2031
I9
sg2032
I20
sg2033
I0
ssg85
I0
sg86
I0
sg87
S'Le Daho'
p2948
sg89
I3
sg90
I0
sg91
I12
sg92
I254
sg64
g2052
sg100
(dp2949
g2054
I11
sg2055
I10
sg2056
I7
sg2057
I10
sg2058
I6
sg2059
I8
sg2060
I4
sg2061
I8
sg2062
I10
sg2063
I10
sg2064
I8
sg2065
I9
sg2066
I2
sg2067
I7
sg2068
I3
ssg117
(dp2950
g2070
(ijoueur
joueur
p2951
(dp2952
g27
I0
sg31
I0
sg34
I0
sg36
g37
(g38
g39
Ntp2953
Rp2954
(dp2955
g43
I5
sg44
S'**'
p2956
sg46
S'seigneur'
p2957
sbsg48
(dp2958
S'SR'
p2959
I0
sS'ST'
p2960
I1
sS'CR'
p2961
I0
sS'CT'
p2962
I0
ssg54
(dp2963
g2959
I0
sg2960
I0
sg2961
I0
sg2962
I0
ssg203
I0
sg58
I0
sg60
I00
sg61
I0
sg62
I0
sg63
I0
sg93
(S'dummy'
p2964
S'DL'
p2965
S'TL'
p2966
g30
tp2967
sg66
I00
sg67
g37
(g38
g39
Ntp2968
Rp2969
(dp2970
g43
I5
sg44
S'**'
p2971
sg46
g2957
sbsg73
(dp2972
g2959
I0
sg2960
I0
sg2961
I8
sg2962
I6
ssg79
(dp2973
g2959
I0
sg2960
I1
sg2961
I0
sg2962
I0
ssg81
(dp2974
g2959
I0
sg2960
I0
sg2961
I0
sg2962
I0
ssg83
(dp2975
g2959
I0
sg2960
I0
sg2961
I8
sg2962
I6
ssg85
I0
sg86
I0
sg87
S'Le Daho'
p2976
sg89
I3
sg90
I0
sg91
I12
sg92
I254
sg64
S'SN'
p2977
sg100
(dp2978
S'A'
p2979
I11
sS'ME'
p2980
I10
sS'RP2'
p2981
I7
sS'E'
p2982
I11
sS'TO'
p2983
I11
sS'RP1'
p2984
I8
sS'JP'
p2985
I4
sS'RP_tot'
p2986
I8
sS'P'
p2987
I6
sS'PA'
p2988
I10
sS'M'
p2989
I8
sS'R'
p2990
I9
sS'TB'
p2991
I2
sS'PL'
p2992
I9
sS'TA'
p2993
I3
ssg166
I0
sg167
I0
sg168
I0
sg169
I0
sg170
F9.764705882352942
sg171
I0
sg172
I0
sg173
I1
sg329
(dp2994
S'A'
p2995
I11
sS'ME'
p2996
I10
sS'RP2'
p2997
I7
sS'E'
p2998
I11
sS'TO'
p2999
I11
sS'RP1'
p3000
I8
sS'JP'
p3001
I4
sS'RP_tot'
p3002
I8
sS'P'
p3003
I6
sS'PA'
p3004
I10
sS'M'
p3005
I8
sS'R'
p3006
I9
sS'TB'
p3007
I2
sS'PL'
p3008
I9
sS'TA'
p3009
I3
ssg174
g2978
sg175
I0
sg57
S'KHR 8'
p3010
sg176
I0
sg177
I0
sg178
I0
sg179
I24
sg180
I10
sg181
I1
sg182
S'B'
p3011
sbssg166
I2
sg167
I0
sg168
I0
sg169
I0
sg170
F9.205882352941176
sg171
I0
sg172
I0
sg173
I1
sg329
(dp3012
g2133
I11
sg2134
I10
sg2135
I7
sg2136
I11
sg2137
I11
sg2138
I8
sg2139
I4
sg2140
I8
sg2141
I6
sg2142
I10
sg2143
I8
sg2144
I9
sg2145
I2
sg2146
I9
sg2147
I3
ssg174
g2949
sg175
I0
sg57
S'KHR 8'
p3013
sg176
I0
sg177
I0
sg178
I0
sg179
I24
sg180
I12
sg181
I0
sg182
S'B'
p3014
sbsg2150
(ijoueur
joueur
p3015
(dp3016
g27
I0
sg31
I0
sg34
I0
sg36
g37
(g38
g39
Ntp3017
Rp3018
(dp3019
g43
I5
sg44
S'**'
p3020
sg46
S'seigneur'
p3021
sbsg48
(dp3022
S'SR'
p3023
I0
sS'ST'
p3024
I1
sS'CR'
p3025
I0
sS'CT'
p3026
I0
ssg54
(dp3027
g3023
I0
sg3024
I0
sg3025
I0
sg3026
I0
ssg203
I0
sg58
I0
sg60
I00
sg61
I0
sg62
I0
sg63
I0
sg93
(S'dummy'
p3028
S'DL'
p3029
S'TL'
p3030
g30
tp3031
sg66
I00
sg67
g37
(g38
g39
Ntp3032
Rp3033
(dp3034
g43
I5
sg44
S'**'
p3035
sg46
g3021
sbsg73
(dp3036
g3023
I0
sg3024
I0
sg3025
I8
sg3026
I6
ssg79
(dp3037
g3023
I0
sg3024
I1
sg3025
I0
sg3026
I0
ssg81
(dp3038
g3023
I0
sg3024
I0
sg3025
I0
sg3026
I0
ssg83
(dp3039
g3023
I0
sg3024
I0
sg3025
I8
sg3026
I6
ssg85
I0
sg86
I0
sg87
S'Le Daho'
p3040
sg89
I3
sg90
I0
sg91
I12
sg92
I254
sg64
S'SN'
p3041
sg100
(dp3042
S'A'
p3043
I11
sS'ME'
p3044
I10
sS'RP2'
p3045
I7
sS'E'
p3046
I11
sS'TO'
p3047
I11
sS'RP1'
p3048
I8
sS'JP'
p3049
I4
sS'RP_tot'
p3050
I8
sS'P'
p3051
I6
sS'PA'
p3052
I10
sS'M'
p3053
I8
sS'R'
p3054
I9
sS'TB'
p3055
I2
sS'PL'
p3056
I9
sS'TA'
p3057
I3
ssg166
I0
sg167
I0
sg168
I0
sg169
I0
sg170
F9.764705882352942
sg171
I0
sg172
I0
sg173
I1
sg329
(dp3058
S'A'
p3059
I11
sS'ME'
p3060
I10
sS'RP2'
p3061
I7
sS'E'
p3062
I11
sS'TO'
p3063
I11
sS'RP1'
p3064
I8
sS'JP'
p3065
I4
sS'RP_tot'
p3066
I8
sS'P'
p3067
I6
sS'PA'
p3068
I10
sS'M'
p3069
I8
sS'R'
p3070
I9
sS'TB'
p3071
I2
sS'PL'
p3072
I9
sS'TA'
p3073
I3
ssg174
g3042
sg175
I0
sg57
S'KHR 8'
p3074
sg176
I0
sg177
I0
sg178
I0
sg179
I24
sg180
I10
sg181
I1
sg182
S'B'
p3075
sbssg166
I0
sg167
I0
sg168
I0
sg169
I0
sg79
(dp3076
g1996
I0
sg1997
I0
sg1998
I0
sg1999
I0
ssg171
I0
sg172
I0
sg173
I1
sg329
(dp3077
g2214
I11
sg2215
I10
sg2216
I7
sg2217
I11
sg2218
I11
sg2219
I8
sg2220
I4
sg2221
I8
sg2222
I6
sg2223
I10
sg2224
I8
sg2225
I9
sg2226
I2
sg2227
I9
sg2228
I3
ssg174
(dp3078
g2005
I11
sg2006
I9
sg2007
I7
sg2008
I10
sg2013
I6
sg2010
I8
sg2011
I4
sg2012
I9
sg2009
I10
sg2014
I10
sg2015
I8
sg2016
I9
sg2017
I2
sg2018
I7
sg2019
I3
ssg175
I0
sg185
(dp3079
sg176
I0
sg57
S'KHR 8'
p3080
sg177
I0
sg178
I0
sg179
I24
sg180
I12
sg181
I0
sg182
S'B'
p3081
sbsS'n19'
p3082
(ijoueur
joueur
p3083
(dp3084
g191
F9.210526315789474
sg27
I0
sg28
F9.18421052631579
sg29
g30
sg31
I0
sg32
I0
sg34
I0
sg36
g37
(g38
g39
Ntp3085
Rp3086
(dp3087
g43
I2
sg44
S'<<'
p3088
sg46
g1343
sbsg48
(dp3089
g704
I0
sg705
I0
sg706
I0
sg707
I0
ssg54
(dp3090
g704
I0
sg705
I0
sg706
I0
sg707
I0
ssg56
I0
sg203
I0
sg58
I0
sg59
I0
sg60
I00
sg61
I0
sg62
I0
sg63
I0
sg93
(g709
S'TL'
p3091
g30
g30
tp3092
sg66
I00
sg67
g3086
sg73
(dp3093
g75
I0
sg76
I0
sg77
I0
sg78
I0
ssg79
(dp3094
g75
I0
sg76
I0
sg77
I0
sg78
I0
ssg81
(dp3095
g75
I0
sg76
I0
sg77
I0
sg78
I0
ssg83
(dp3096
g704
I0
sg705
I0
sg706
I4
sg707
I2
ssg85
I0
sg86
I0
sg87
S'Moreod'
p3097
sg89
I10
sg90
I0
sg91
I18
sg92
I18
sg64
g65
sg100
(dp3098
g724
I14
sg725
I7
sg726
I5
sg727
I9
sg728
I5
sg729
I6
sg730
I3
sg731
I6
sg732
I11
sg733
I10
sg734
I8
sg735
I5
sg736
I5
sg737
I11
sg738
I5
ssg117
(dp3099
g119
(ijoueur
joueur
p3100
(dp3101
g191
F9.210526315789474
sg27
I0
sg29
g30
sg31
I0
sg34
I0
sg36
g37
(g38
g39
Ntp3102
Rp3103
(dp3104
g43
I2
sg44
S'<<'
p3105
sg46
g1366
sbsg48
(dp3106
g748
I0
sg749
I0
sg750
I0
sg751
I0
ssg54
(dp3107
g748
I0
sg749
I0
sg750
I0
sg751
I0
ssg79
(dp3108
g754
I0
sg755
I0
sg756
I0
sg757
I0
ssg203
I0
sg58
I0
sg61
I0
sg62
I0
sg63
I0
sg93
(g758
S'TL'
p3109
g30
g30
tp3110
sg66
I00
sg67
g3103
sg73
(dp3111
g754
I0
sg755
I2
sg756
I2
sg757
I0
ssg60
I01
sg81
(dp3112
g754
I0
sg755
I0
sg756
I0
sg757
I0
ssg83
(dp3113
g748
I0
sg749
I0
sg750
I4
sg751
I2
ssg85
I0
sg86
I0
sg87
S'Moreod (12)'
p3114
sg89
I10
sg90
I0
sg91
I18
sg92
I18
sg64
g134
sg100
(dp3115
g772
I14
sg773
I7
sg774
I5
sg775
I9
sg776
I11
sg777
I7
sg778
I3
sg779
I7
sg780
I5
sg781
I10
sg782
I8
sg783
I6
sg784
I5
sg785
I12
sg786
I5
ssg117
(dp3116
g788
(ijoueur
joueur
p3117
(dp3118
g27
I0
sg31
I0
sg34
I0
sg36
g37
(g38
g39
Ntp3119
Rp3120
(dp3121
g43
I2
sg44
S'<<'
p3122
sg46
S'special'
p3123
sbsg48
(dp3124
S'SR'
p3125
I0
sS'CT'
p3126
I0
sS'CR'
p3127
I0
sS'ST'
p3128
I0
ssg54
(dp3129
g3125
I0
sg3126
I0
sg3127
I0
sg3128
I0
ssg203
I0
sg58
I0
sg60
I01
sg61
I0
sg62
I0
sg63
I0
sg93
(S'dummy'
p3130
S'TL'
p3131
g30
g30
tp3132
sg66
I00
sg67
g37
(g38
g39
Ntp3133
Rp3134
(dp3135
g43
I1
sg44
S'^'
p3136
sg46
S'base'
p3137
sbsg73
(dp3138
g3125
I0
sg3126
I0
sg3127
I2
sg3128
I0
ssg79
(dp3139
g3125
I0
sg3126
I0
sg3127
I0
sg3128
I0
ssg81
(dp3140
g3125
I0
sg3126
I0
sg3127
I0
sg3128
I0
ssg83
(dp3141
g3125
I0
sg3126
I0
sg3127
I2
sg3128
I0
ssg85
I0
sg86
I0
sg87
S'Moreod'
p3142
sg89
I10
sg90
I0
sg91
I18
sg92
I14
sg64
S'SN'
p3143
sg100
(dp3144
S'A'
p3145
I13
sS'ME'
p3146
I7
sS'RP2'
p3147
I5
sS'E'
p3148
I9
sS'P'
p3149
I5
sS'RP1'
p3150
I7
sS'JP'
p3151
I3
sS'RP_tot'
p3152
I7
sS'TO'
p3153
I10
sS'PA'
p3154
I9
sS'M'
p3155
I8
sS'R'
p3156
I8
sS'TB'
p3157
I5
sS'PL'
p3158
I11
sS'TA'
p3159
I5
ssg166
I0
sg167
I0
sg168
I0
sg169
I0
sg170
F9.210526315789474
sg171
I0
sg172
I0
sg173
I0
sg329
(dp3160
S'A'
p3161
I13
sS'ME'
p3162
I7
sS'RP2'
p3163
I5
sS'E'
p3164
I9
sS'P'
p3165
I5
sS'RP1'
p3166
I7
sS'JP'
p3167
I3
sS'RP_tot'
p3168
I7
sS'TO'
p3169
I10
sS'PA'
p3170
I9
sS'M'
p3171
I8
sS'R'
p3172
I8
sS'TB'
p3173
I5
sS'PL'
p3174
I11
sS'TA'
p3175
I5
ssg174
g3144
sg175
I0
sg57
g30
sg176
I0
sg177
I0
sg178
I0
sg179
I1
sg180
I1
sg181
I0
sg182
S'EN'
p3176
sbssg166
I0
sg167
I0
sg168
I0
sg169
I0
sg170
F9.18421052631579
sg171
I0
sg172
I0
sg173
I0
sg329
(dp3177
g851
I13
sg852
I7
sg853
I5
sg854
I9
sg855
I5
sg856
I7
sg857
I3
sg858
I7
sg859
I10
sg860
I9
sg861
I8
sg862
I8
sg863
I5
sg864
I11
sg865
I5
ssg174
g3115
sg175
I0
sg57
g30
sg176
I0
sg177
I0
sg178
I0
sg179
I1
sg180
I1
sg181
I0
sg182
S'EN'
p3178
sbsg867
(ijoueur
joueur
p3179
(dp3180
g27
I0
sg31
I0
sg34
I0
sg36
g37
(g38
g39
Ntp3181
Rp3182
(dp3183
g43
I2
sg44
S'<<'
p3184
sg46
S'special'
p3185
sbsg48
(dp3186
S'SR'
p3187
I0
sS'CT'
p3188
I0
sS'CR'
p3189
I0
sS'ST'
p3190
I0
ssg54
(dp3191
g3187
I0
sg3188
I0
sg3189
I0
sg3190
I0
ssg203
I0
sg58
I0
sg60
I01
sg61
I0
sg62
I0
sg63
I0
sg93
(S'dummy'
p3192
S'TL'
p3193
g30
g30
tp3194
sg66
I00
sg67
g37
(g38
g39
Ntp3195
Rp3196
(dp3197
g43
I1
sg44
S'^'
p3198
sg46
S'base'
p3199
sbsg73
(dp3200
g3187
I0
sg3188
I0
sg3189
I2
sg3190
I0
ssg79
(dp3201
g3187
I0
sg3188
I0
sg3189
I0
sg3190
I0
ssg81
(dp3202
g3187
I0
sg3188
I0
sg3189
I0
sg3190
I0
ssg83
(dp3203
g3187
I0
sg3188
I0
sg3189
I2
sg3190
I0
ssg85
I0
sg86
I0
sg87
S'Moreod (11)'
p3204
sg89
I10
sg90
I0
sg91
I18
sg92
I14
sg64
S'SN'
p3205
sg100
(dp3206
S'A'
p3207
I13
sS'ME'
p3208
I7
sS'RP2'
p3209
I5
sS'E'
p3210
I9
sS'P'
p3211
I5
sS'RP1'
p3212
I7
sS'JP'
p3213
I3
sS'RP_tot'
p3214
I7
sS'TO'
p3215
I10
sS'PA'
p3216
I9
sS'M'
p3217
I8
sS'R'
p3218
I8
sS'TB'
p3219
I5
sS'PL'
p3220
I11
sS'TA'
p3221
I5
ssg166
I0
sg167
I0
sg168
I0
sg169
I0
sg170
F9.210526315789474
sg171
I0
sg172
I0
sg173
I0
sg329
(dp3222
S'A'
p3223
I13
sS'ME'
p3224
I7
sS'RP2'
p3225
I5
sS'E'
p3226
I9
sS'P'
p3227
I5
sS'RP1'
p3228
I7
sS'JP'
p3229
I3
sS'RP_tot'
p3230
I7
sS'TO'
p3231
I10
sS'PA'
p3232
I9
sS'M'
p3233
I8
sS'R'
p3234
I8
sS'TB'
p3235
I5
sS'PL'
p3236
I11
sS'TA'
p3237
I5
ssg174
g3206
sg175
I0
sg57
g30
sg176
I0
sg177
I0
sg178
I0
sg179
I1
sg180
I1
sg181
I0
sg182
S'EN'
p3238
sbssg166
I0
sg167
I0
sg168
I0
sg169
I0
sg170
F8.68421052631579
sg171
I0
sg172
I0
sg173
I0
sg329
(dp3239
g930
I13
sg931
I7
sg932
I5
sg933
I9
sg934
I5
sg935
I7
sg936
I3
sg937
I7
sg938
I10
sg939
I9
sg940
I8
sg941
I8
sg942
I5
sg943
I11
sg944
I5
ssg174
(dp3240
g724
I14
sg725
I7
sg726
I5
sg727
I9
sg732
I11
sg729
I6
sg730
I3
sg731
I6
sg728
I5
sg733
I10
sg734
I8
sg735
I5
sg736
I5
sg737
I11
sg738
I5
ssg175
I0
sg185
(dp3241
sg176
I0
sg57
g30
sg177
I0
sg178
I0
sg179
I1
sg180
I1
sg181
I0
sg182
S'EN'
p3242
sbsS'n22'
p3243
(ijoueur
joueur
p3244
(dp3245
g27
I0
sg28
F8.787878787878787
sg29
g30
sg31
I0
sg32
I0
sg33
g30
sg34
I0
sg35
g30
sg36
g37
(g38
g39
Ntp3246
Rp3247
(dp3248
g43
I5
sg44
S'xx'
p3249
sg46
S'seigneur'
p3250
sbsg48
(dp3251
g50
I0
sg51
I0
sg52
I0
sg53
I0
ssg54
(dp3252
g50
I0
sg51
I0
sg52
I0
sg53
I0
ssg56
I0
sg57
g30
sg58
I0
sg59
I0
sg60
I00
sg61
I0
sg62
I0
sg63
I0
sg64
g65
sg66
I00
sg67
g37
(g38
g39
Ntp3253
Rp3254
(dp3255
g43
I3
sg44
S'^^^'
p3256
sg46
S'rare'
p3257
sbsg73
(dp3258
g75
I0
sg76
I0
sg77
I0
sg78
I0
ssg79
(dp3259
g75
I0
sg76
I0
sg77
I0
sg78
I0
ssg81
(dp3260
g75
I0
sg76
I0
sg77
I0
sg78
I0
ssg83
(dp3261
g50
I0
sg51
I0
sg52
I0
sg53
I0
ssg85
I0
sg86
I0
sg87
S'Diess'
p3262
sg89
I12
sg90
I0
sg91
I23
sg92
I21
sg93
(g94
S'AR'
p3263
g30
g30
tp3264
sg99
g30
sg100
(dp3265
g102
I5
sg103
I7
sg104
I8
sg105
I8
sg106
I6
sg107
I10
sg108
I7
sg109
I8
sg110
I9
sg111
I8
sg112
I9
sg113
I7
sg114
I5
sg115
I10
sg116
I6
ssg117
(dp3266
g119
(ijoueur
joueur
p3267
(dp3268
g27
I0
sg29
g30
sg31
I0
sg33
g30
sg34
I0
sg35
g30
sg36
g37
(g38
g39
Ntp3269
Rp3270
(dp3271
g43
I5
sg44
S'xx'
p3272
sg46
S'seigneur'
p3273
sbsg48
(dp3274
g128
I0
sg129
I0
sg130
I0
sg131
I0
ssg54
(dp3275
g128
I0
sg129
I0
sg130
I0
sg131
I0
ssg79
(dp3276
g128
I0
sg129
I0
sg130
I0
sg131
I0
ssg57
g30
sg58
I0
sg61
I0
sg62
I0
sg63
I0
sg64
g134
sg66
I00
sg67
g37
(g38
g39
Ntp3277
Rp3278
(dp3279
g43
I2
sg44
S'^^'
p3280
sg46
S'special'
p3281
sbsg73
(dp3282
g128
I0
sg129
I0
sg130
I0
sg131
I0
ssg60
I01
sg81
(dp3283
g128
I0
sg129
I0
sg130
I0
sg131
I0
ssg83
(dp3284
g128
I0
sg129
I0
sg130
I0
sg131
I0
ssg85
I0
sg86
I0
sg87
S'Diess (12)'
p3285
sg89
I12
sg90
I0
sg91
I23
sg92
I11
sg93
(g144
S'AR'
p3286
g30
g30
tp3287
sg99
g30
sg100
(dp3288
g150
I5
sg151
I7
sg152
I8
sg153
I8
sg154
I10
sg155
I7
sg156
I10
sg157
I8
sg158
I6
sg159
I8
sg160
I9
sg161
I6
sg162
I5
sg163
I10
sg164
I6
ssg117
(dp3289
sg166
I0
sg167
I0
sg168
I0
sg169
I0
sg170
F8.787878787878787
sg171
I0
sg172
I0
sg173
I0
sg174
g3288
sg175
I0
sg176
I0
sg177
I0
sg178
I0
sg179
I1
sg180
I0
sg181
I0
sg182
S'S'
p3290
sbssg166
I0
sg167
I0
sg168
I0
sg169
I0
sg170
F8.757575757575758
sg171
I0
sg172
I0
sg173
I0
sg174
(dp3291
g102
I5
sg103
I7
sg104
I8
sg105
I8
sg110
I9
sg108
I7
sg107
I10
sg109
I8
sg106
I6
sg111
I8
sg112
I9
sg113
I7
sg114
I5
sg115
I10
sg116
I6
ssg175
I0
sg185
(dp3292
sg176
I0
sg177
I0
sg178
I0
sg179
I2
sg180
I0
sg181
I0
sg182
S'S'
p3293
sbsS'n21'
p3294
(ijoueur
joueur
p3295
(dp3296
g27
I0
sg28
F9.0
sg29
g30
sg31
I0
sg32
I0
sg33
g30
sg34
I0
sg35
g30
sg36
g37
(g38
g39
Ntp3297
Rp3298
(dp3299
g43
I2
sg44
S'^^'
p3300
sg46
S'special'
p3301
sbsg48
(dp3302
g50
I0
sg51
I0
sg52
I1
sg53
I0
ssg54
(dp3303
g50
I0
sg51
I0
sg52
I0
sg53
I0
ssg56
I0
sg57
g30
sg58
I0
sg59
I0
sg60
I00
sg61
I0
sg62
I0
sg63
I0
sg64
g65
sg66
I00
sg67
g3298
sg73
(dp3304
g75
I0
sg76
I0
sg77
I0
sg78
I0
ssg79
(dp3305
g75
I0
sg76
I0
sg77
I0
sg78
I0
ssg81
(dp3306
g75
I0
sg76
I0
sg77
I0
sg78
I0
ssg83
(dp3307
g50
I0
sg51
I0
sg52
I0
sg53
I0
ssg85
I0
sg86
I0
sg87
S'Fydil'
p3308
sg89
I12
sg90
I0
sg91
I21
sg92
I9
sg93
(g94
S'DO'
p3309
S'DM'
p3310
S'CE'
p3311
tp3312
sg99
g30
sg100
(dp3313
g102
I6
sg103
I6
sg104
I8
sg105
I9
sg106
I5
sg107
I8
sg108
I9
sg109
I8
sg110
I10
sg111
I12
sg112
I8
sg113
I7
sg114
I6
sg115
I11
sg116
I4
ssg117
(dp3314
g119
(ijoueur
joueur
p3315
(dp3316
g27
I0
sg29
g30
sg31
I0
sg33
g30
sg34
I0
sg35
g30
sg36
g37
(g38
g39
Ntp3317
Rp3318
(dp3319
g43
I2
sg44
g3280
sg46
g3281
sbsg48
(dp3320
g128
I0
sg129
I0
sg130
I1
sg131
I0
ssg54
(dp3321
g128
I0
sg129
I0
sg130
I0
sg131
I0
ssg79
(dp3322
g128
I0
sg129
I0
sg130
I1
sg131
I0
ssg57
g30
sg58
I0
sg61
I0
sg62
I0
sg63
I0
sg64
g134
sg66
I00
sg67
g37
(g38
g39
Ntp3323
Rp3324
(dp3325
g43
I1
sg44
g138
sg46
g139
sbsg73
(dp3326
g128
I0
sg129
I0
sg130
I0
sg131
I0
ssg60
I01
sg81
(dp3327
g128
I0
sg129
I0
sg130
I0
sg131
I0
ssg83
(dp3328
g128
I0
sg129
I0
sg130
I0
sg131
I0
ssg85
I0
sg86
I0
sg87
S'Fydil (12)'
p3329
sg89
I12
sg90
I0
sg91
I21
sg92
I6
sg93
(g144
S'DO'
p3330
S'DM'
p3331
S'CE'
p3332
tp3333
sg99
g30
sg100
(dp3334
g150
I6
sg151
I5
sg152
I8
sg153
I9
sg154
I10
sg155
I9
sg156
I8
sg157
I8
sg158
I5
sg159
I11
sg160
I8
sg161
I7
sg162
I6
sg163
I8
sg164
I3
ssg117
(dp3335
sg166
I0
sg167
I0
sg168
I0
sg169
I0
sg170
F9.0
sg171
I0
sg172
I0
sg173
I1
sg174
g3334
sg175
I0
sg176
I0
sg177
I0
sg178
I0
sg179
I0
sg180
I0
sg181
I1
sg182
g3290
sbssg166
I0
sg167
I0
sg168
I0
sg169
I0
sg170
F9.515151515151516
sg171
I0
sg172
I0
sg173
I1
sg174
(dp3336
g102
I6
sg103
I6
sg104
I8
sg105
I9
sg110
I10
sg108
I9
sg107
I8
sg109
I8
sg106
I5
sg111
I12
sg112
I8
sg113
I7
sg114
I6
sg115
I11
sg116
I4
ssg175
I0
sg185
(dp3337
sg176
I0
sg177
I0
sg178
I0
sg179
I0
sg180
I0
sg181
I0
sg182
g3293
sbsS'n20'
p3338
(ijoueur
joueur
p3339
(dp3340
g27
I0
sg167
I0
sg31
I0
sg32
I0
sg33
g30
sg34
I0
sg35
g30
sg36
g37
(g38
g39
Ntp3341
Rp3342
(dp3343
g43
I2
sg44
g1697
sg46
g1698
sbsg48
(dp3344
g1700
I0
sg1701
I0
sg1702
I0
sg1703
I0
ssg54
(dp3345
g1700
I0
sg1701
I0
sg1702
I0
sg1703
I0
ssg56
I0
sg91
I21
sg57
g30
sg58
I0
sg59
I0
sg61
I0
sg62
I0
sg63
I0
sg64
g65
sg66
I00
sg67
g3342
sg73
(dp3346
g1700
I0
sg1701
I0
sg1702
I0
sg1703
I0
ssg79
(dp3347
g1700
I0
sg1701
I0
sg1702
I0
sg1703
I0
ssg81
(dp3348
g1700
I0
sg1701
I0
sg1702
I0
sg1703
I0
ssg83
(dp3349
g1700
I0
sg1701
I0
sg1702
I0
sg1703
I0
ssg85
I0
sg86
I0
sg87
S'Dienpaer'
p3350
sg89
I13
sg90
I0
sg60
I00
sg92
I16
sg93
(g1710
S'DO'
p3351
S'DM'
p3352
g30
tp3353
sg99
g30
sg100
(dp3354
g1714
I6
sg1715
I3
sg1716
I7
sg1717
I9
sg1718
I10
sg1719
I8
sg1720
I9
sg1721
I7
sg1722
I5
sg1723
I11
sg1724
I11
sg1725
I7
sg1726
I8
sg1727
I9
sg1728
I3
ssg166
I0
sg29
g30
sg168
I0
sg169
I0
sg170
F9.242424242424242
sg171
I0
sg172
I0
sg173
I0
sg174
(dp3355
g1714
I6
sg1715
I3
sg1716
I7
sg1717
I9
sg1722
I5
sg1720
I9
sg1719
I8
sg1721
I7
sg1718
I10
sg1723
I11
sg1724
I11
sg1725
I7
sg1726
I8
sg1727
I9
sg1728
I3
ssg175
I0
sg176
I0
sg177
I0
sg178
I0
sg179
I1
sg180
I0
sg181
I0
sg182
S'EN'
p3356
sbsS'n8'
p3357
(ijoueur
joueur
p3358
(dp3359
g191
F9.86111111111111
sg27
I0
sg28
F9.310344827586206
sg29
g30
sg31
I0
sg32
I0
sg33
g30
sg34
I0
sg35
g30
sg36
g37
(g38
g39
Ntp3360
Rp3361
(dp3362
g43
I4
sg44
S'x'
p3363
sg46
S'heros'
p3364
sbsg48
(dp3365
S'SR'
p3366
I0
sS'CT'
p3367
I0
sS'CR'
p3368
I0
sS'ST'
p3369
I0
ssg54
(dp3370
g3366
I0
sg3367
I0
sg3368
I0
sg3369
I0
ssg56
I0
sg57
S'vide 12'
p3371
sg170
F9.10344827586207
sg58
I0
sg59
I0
sg61
I0
sg62
I0
sg63
I0
sg64
g2003
sg66
I00
sg67
g3361
sg73
(dp3372
g1996
I0
sg1997
I0
sg1998
I0
sg1999
I0
ssg60
I00
sg81
(dp3373
g1996
I0
sg1997
I0
sg1998
I0
sg1999
I0
ssg83
(dp3374
g3366
I10
sg3367
I0
sg3368
I3
sg3369
I0
ssg85
I0
sg86
I0
sg87
S'Harik'
p3375
sg89
I2
sg90
I0
sg91
I15
sg92
I229
sg93
(S'dummy'
p3376
S'N8'
p3377
g30
g30
tp3378
sg99
g30
sg100
(dp3379
S'RP1'
p3380
I8
sS'ME'
p3381
I9
sS'RP2'
p3382
I7
sS'E'
p3383
I11
sS'TO'
p3384
I9
sS'M'
p3385
I7
sS'JP'
p3386
I6
sS'RP_tot'
p3387
I9
sS'P'
p3388
I7
sS'PA'
p3389
I9
sS'A'
p3390
I12
sS'R'
p3391
I8
sS'TB'
p3392
I6
sS'PL'
p3393
I8
sS'TA'
p3394
I7
ssg117
(dp3395
g2021
(ijoueur
joueur
p3396
(dp3397
g191
F9.86111111111111
sg27
I0
sg29
g30
sg31
I0
sg33
g30
sg34
I0
sg35
g30
sg36
g37
(g38
g39
Ntp3398
Rp3399
(dp3400
g43
I4
sg44
S'x'
p3401
sg46
S'heros'
p3402
sbsg48
(dp3403
S'SR'
p3404
I0
sS'CT'
p3405
I0
sS'CR'
p3406
I0
sS'ST'
p3407
I0
ssg54
(dp3408
g3404
I0
sg3405
I0
sg3406
I0
sg3407
I0
ssg57
S'vide 12'
p3409
sg58
I0
sg60
I00
sg61
I0
sg62
I0
sg63
I0
sg64
g2052
sg66
I00
sg67
g3399
sg73
(dp3410
g2044
I7
sg2045
I0
sg2046
I3
sg2047
I0
ssg79
(dp3411
g2044
I0
sg2045
I0
sg2046
I0
sg2047
I0
ssg81
(dp3412
g2044
I0
sg2045
I0
sg2046
I0
sg2047
I0
ssg83
(dp3413
g3404
I10
sg3405
I0
sg3406
I3
sg3407
I0
ssg85
I0
sg86
I0
sg87
S'Harik'
p3414
sg89
I2
sg90
I0
sg91
I15
sg92
I229
sg93
(S'dummy'
p3415
S'N8'
p3416
g30
g30
tp3417
sg99
g30
sg100
(dp3418
S'RP1'
p3419
I9
sS'ME'
p3420
I9
sS'RP2'
p3421
I7
sS'E'
p3422
I11
sS'P'
p3423
I7
sS'JP'
p3424
I6
sS'M'
p3425
I8
sS'RP_tot'
p3426
I9
sS'TO'
p3427
I9
sS'PA'
p3428
I9
sS'A'
p3429
I12
sS'R'
p3430
I8
sS'TB'
p3431
I6
sS'PL'
p3432
I9
sS'TA'
p3433
I7
ssg117
(dp3434
g2070
(ijoueur
joueur
p3435
(dp3436
g27
I0
sg31
I0
sg33
g30
sg34
I0
sg35
g30
sg36
g37
(g38
g39
Ntp3437
Rp3438
(dp3439
g43
I4
sg44
S'x'
p3440
sg46
S'heros'
p3441
sbsg48
(dp3442
S'SR'
p3443
I0
sS'ST'
p3444
I0
sS'CR'
p3445
I0
sS'CT'
p3446
I0
ssg54
(dp3447
g3443
I0
sg3444
I0
sg3445
I0
sg3446
I0
ssg57
g30
sg58
I0
sg60
I00
sg61
I0
sg62
I0
sg63
I0
sg64
S'vide'
p3448
sg66
I01
sg67
g3438
sg73
(dp3449
g3443
I3
sg3444
I0
sg3445
I0
sg3446
I0
ssg79
(dp3450
g3443
I0
sg3444
I0
sg3445
I0
sg3446
I0
ssg81
(dp3451
g3443
I0
sg3444
I0
sg3445
I0
sg3446
I0
ssg83
(dp3452
g3443
I3
sg3444
I0
sg3445
I0
sg3446
I0
ssg85
I0
sg86
I0
sg87
S'Harik'
p3453
sg89
I2
sg90
I0
sg91
I15
sg92
I133
sg93
(S'dummy'
p3454
S'N8'
p3455
g30
g30
tp3456
sg99
g30
sg100
(dp3457
S'RP1'
p3458
I10
sS'ME'
p3459
I9
sS'RP2'
p3460
I8
sS'E'
p3461
I11
sS'TO'
p3462
I10
sS'M'
p3463
I8
sS'JP'
p3464
I6
sS'RP_tot'
p3465
I11
sS'P'
p3466
I7
sS'PA'
p3467
I9
sS'A'
p3468
I12
sS'R'
p3469
I8
sS'TB'
p3470
I6
sS'PL'
p3471
I10
sS'TA'
p3472
I7
ssg166
I0
sg167
I0
sg168
I0
sg169
I0
sg170
F9.86111111111111
sg171
I0
sg172
I0
sg173
I0
sg329
(dp3473
S'RP1'
p3474
I10
sS'ME'
p3475
I9
sS'RP2'
p3476
I8
sS'E'
p3477
I11
sS'TO'
p3478
I10
sS'M'
p3479
I8
sS'JP'
p3480
I6
sS'RP_tot'
p3481
I11
sS'P'
p3482
I7
sS'PA'
p3483
I9
sS'A'
p3484
I12
sS'R'
p3485
I8
sS'TB'
p3486
I6
sS'PL'
p3487
I10
sS'TA'
p3488
I7
ssg174
g3457
sg175
I0
sg176
I0
sg177
I0
sg178
I0
sg179
I12
sg180
I0
sg181
I0
sg182
S'ARA'
p3489
sbssg166
I2
sg167
I0
sg168
I0
sg169
I0
sg170
F9.310344827586206
sg171
I0
sg172
I0
sg173
I0
sg329
(dp3490
S'RP1'
p3491
I10
sS'ME'
p3492
I9
sS'RP2'
p3493
I8
sS'E'
p3494
I11
sS'P'
p3495
I7
sS'JP'
p3496
I6
sS'M'
p3497
I8
sS'RP_tot'
p3498
I11
sS'TO'
p3499
I10
sS'PA'
p3500
I9
sS'A'
p3501
I12
sS'R'
p3502
I8
sS'TB'
p3503
I6
sS'PL'
p3504
I10
sS'TA'
p3505
I7
ssg174
g3418
sg175
I0
sg176
I0
sg177
I0
sg178
I0
sg179
I7
sg180
I0
sg181
I0
sg182
S'ARA'
p3506
sbsg2150
(ijoueur
joueur
p3507
(dp3508
g27
I0
sg31
I0
sg33
g30
sg34
I0
sg35
g30
sg36
g37
(g38
g39
Ntp3509
Rp3510
(dp3511
g43
I4
sg44
S'x'
p3512
sg46
S'heros'
p3513
sbsg48
(dp3514
S'SR'
p3515
I0
sS'ST'
p3516
I0
sS'CR'
p3517
I0
sS'CT'
p3518
I0
ssg54
(dp3519
g3515
I0
sg3516
I0
sg3517
I0
sg3518
I0
ssg57
g30
sg58
I0
sg60
I00
sg61
I0
sg62
I0
sg63
I0
sg64
S'vide'
p3520
sg66
I01
sg67
g3510
sg73
(dp3521
g3515
I3
sg3516
I0
sg3517
I0
sg3518
I0
ssg79
(dp3522
g3515
I0
sg3516
I0
sg3517
I0
sg3518
I0
ssg81
(dp3523
g3515
I0
sg3516
I0
sg3517
I0
sg3518
I0
ssg83
(dp3524
g3515
I3
sg3516
I0
sg3517
I0
sg3518
I0
ssg85
I0
sg86
I0
sg87
S'Harik'
p3525
sg89
I2
sg90
I0
sg91
I15
sg92
I133
sg93
(S'dummy'
p3526
S'N8'
p3527
g30
g30
tp3528
sg99
g30
sg100
(dp3529
S'RP1'
p3530
I10
sS'ME'
p3531
I9
sS'RP2'
p3532
I8
sS'E'
p3533
I11
sS'TO'
p3534
I10
sS'M'
p3535
I8
sS'JP'
p3536
I6
sS'RP_tot'
p3537
I11
sS'P'
p3538
I7
sS'PA'
p3539
I9
sS'A'
p3540
I12
sS'R'
p3541
I8
sS'TB'
p3542
I6
sS'PL'
p3543
I10
sS'TA'
p3544
I7
ssg166
I0
sg167
I0
sg168
I0
sg169
I0
sg170
F9.86111111111111
sg171
I0
sg172
I0
sg173
I0
sg329
(dp3545
S'RP1'
p3546
I10
sS'ME'
p3547
I9
sS'RP2'
p3548
I8
sS'E'
p3549
I11
sS'TO'
p3550
I10
sS'M'
p3551
I8
sS'JP'
p3552
I6
sS'RP_tot'
p3553
I11
sS'P'
p3554
I7
sS'PA'
p3555
I9
sS'A'
p3556
I12
sS'R'
p3557
I8
sS'TB'
p3558
I6
sS'PL'
p3559
I10
sS'TA'
p3560
I7
ssg174
g3529
sg175
I0
sg176
I0
sg177
I0
sg178
I0
sg179
I12
sg180
I0
sg181
I0
sg182
S'ARA'
p3561
sbssg166
I0
sg167
I0
sg168
I0
sg169
I0
sg79
(dp3562
g1996
I0
sg1997
I0
sg1998
I0
sg1999
I0
ssg171
I0
sg172
I0
sg173
I0
sg329
(dp3563
S'RP1'
p3564
I10
sS'ME'
p3565
I9
sS'RP2'
p3566
I8
sS'E'
p3567
I11
sS'P'
p3568
I7
sS'JP'
p3569
I6
sS'M'
p3570
I8
sS'RP_tot'
p3571
I11
sS'TO'
p3572
I10
sS'PA'
p3573
I9
sS'A'
p3574
I12
sS'R'
p3575
I8
sS'TB'
p3576
I6
sS'PL'
p3577
I10
sS'TA'
p3578
I7
ssg174
(dp3579
g3380
I8
sg3381
I9
sg3382
I7
sg3383
I11
sg3388
I7
sg3386
I6
sg3385
I7
sg3387
I9
sg3384
I9
sg3389
I9
sg3390
I12
sg3391
I8
sg3392
I6
sg3393
I8
sg3394
I7
ssg175
I0
sg185
(dp3580
sg176
I0
sg177
I0
sg178
I0
sg179
I7
sg180
I0
sg181
I0
sg182
S'ARA'
p3581
sbsS'n9'
p3582
g189
sS'n1'
p3583
(ijoueur
joueur
p3584
(dp3585
g191
F9.296296296296296
sg27
I0
sg28
F9.444444444444445
sg29
g30
sg31
I0
sg32
F31.966126218602312
sg34
I0
sg36
g37
(g38
g39
Ntp3586
Rp3587
(dp3588
g43
I2
sg44
S'^^'
p3589
sg46
S'special'
p3590
sbsg48
(dp3591
S'SR'
p3592
I0
sS'CT'
p3593
I0
sS'CR'
p3594
I0
sS'ST'
p3595
I0
ssg54
(dp3596
g3592
I0
sg3593
I0
sg3594
I0
sg3595
I0
ssg56
I0
sg203
I0
sg170
F9.222222222222221
sg58
I0
sS'transformations'
p3597
I0
sS'penalites'
p3598
I0
sg61
I0
sg62
I0
sg63
I0
sg93
(S'dummy'
p3599
S'PI'
p3600
g30
g30
tp3601
sg66
I00
sg67
g37
(g38
g39
Ntp3602
Rp3603
(dp3604
g43
I2
sg44
S'^^'
p3605
sg46
g3590
sbsg73
(dp3606
g1996
I0
sg1997
I0
sg1998
I3
sg1999
I0
ssg60
I00
sg81
(dp3607
g1996
I0
sg1997
I0
sg1998
I0
sg1999
I0
ssg83
(dp3608
g3592
I13
sg3593
I4
sg3594
I10
sg3595
I2
ssg85
I0
sg86
I0
sg87
S'Saolteh'
p3609
sg89
I4
sg90
I0
sg91
I18
sg92
I50
sg64
g2003
sg100
(dp3610
S'A'
p3611
I8
sS'ME'
p3612
I10
sS'RP2'
p3613
I7
sS'E'
p3614
I9
sS'TO'
p3615
I6
sS'RP1'
p3616
I10
sS'JP'
p3617
I2
sS'RP_tot'
p3618
I10
sS'P'
p3619
I5
sS'PA'
p3620
I9
sS'M'
p3621
I8
sS'R'
p3622
I9
sS'TB'
p3623
I4
sS'PL'
p3624
I9
sS'TA'
p3625
I9
ssg117
(dp3626
S's12'
p3627
(ijoueur
joueur
p3628
(dp3629
g191
F9.296296296296296
sg27
I0
sg29
g30
sg31
I0
sg34
I0
sg36
g37
(g38
g39
Ntp3630
Rp3631
(dp3632
g43
I2
sg44
S'^^'
p3633
sg46
S'special'
p3634
sbsg48
(dp3635
S'SR'
p3636
I0
sS'CT'
p3637
I0
sS'CR'
p3638
I0
sS'ST'
p3639
I0
ssg54
(dp3640
g3636
I0
sg3637
I0
sg3638
I0
sg3639
I0
ssg203
I0
sg58
I0
sg3597
I0
sg3598
I0
sg60
I01
sg61
I0
sg62
I0
sg63
I0
sg93
(S'dummy'
p3641
S'PI'
p3642
g30
g30
tp3643
sg66
I01
sg67
g37
(g38
g39
Ntp3644
Rp3645
(dp3646
g43
I2
sg44
S'^^'
p3647
sg46
g3634
sbsg73
(dp3648
S'SR'
p3649
I7
sS'CT'
p3650
I1
sS'CR'
p3651
I5
sS'ST'
p3652
I0
ssg79
(dp3653
g3649
I0
sg3650
I0
sg3651
I0
sg3652
I0
ssg81
(dp3654
g3649
I0
sg3650
I0
sg3651
I0
sg3652
I0
ssg83
(dp3655
g3636
I13
sg3637
I4
sg3638
I7
sg3639
I2
ssg85
I0
sg86
I0
sg87
S'Saolteh (12)'
p3656
sg89
I4
sg90
I0
sg91
I18
sg92
I12
sg64
S'TA'
p3657
sg100
(dp3658
S'A'
p3659
I9
sS'ME'
p3660
I10
sS'RP2'
p3661
I8
sS'E'
p3662
I9
sS'P'
p3663
I5
sS'RP1'
p3664
I10
sS'JP'
p3665
I2
sS'RP_tot'
p3666
I11
sS'TO'
p3667
I6
sS'PA'
p3668
I9
sS'M'
p3669
I8
sS'R'
p3670
I9
sS'TB'
p3671
I4
sS'PL'
p3672
I9
sS'TA'
p3673
I9
ssg117
(dp3674
S's11'
p3675
(ijoueur
joueur
p3676
(dp3677
g27
I0
sg31
I0
sg34
I0
sg36
g37
(g38
g39
Ntp3678
Rp3679
(dp3680
g43
I2
sg44
S'^^'
p3681
sg46
S'special'
p3682
sbsg48
(dp3683
S'SR'
p3684
I0
sS'CT'
p3685
I0
sS'CR'
p3686
I0
sS'ST'
p3687
I0
ssg54
(dp3688
g3684
I0
sg3685
I0
sg3686
I0
sg3687
I0
ssg203
I0
sg170
F9.296296296296296
sg58
I0
sg3597
I0
sg3598
I0
sg61
I0
sg62
I0
sg63
I0
sg93
(S'dummy'
p3689
S'PI'
p3690
g30
g30
tp3691
sg66
I00
sg67
g37
(g38
g39
Ntp3692
Rp3693
(dp3694
g43
I2
sg44
S'^^'
p3695
sg46
g3682
sbsg73
(dp3696
g3684
I6
sg3685
I3
sg3686
I2
sg3687
I2
ssg60
I01
sg81
(dp3697
g3684
I0
sg3685
I0
sg3686
I0
sg3687
I0
ssg83
(dp3698
g3684
I6
sg3685
I3
sg3686
I2
sg3687
I2
ssg85
I0
sg86
I0
sg87
S'Saolteh'
p3699
sg89
I4
sg90
I0
sg91
I18
sg92
I12
sg64
S'TA'
p3700
sg100
(dp3701
S'A'
p3702
I9
sS'ME'
p3703
I10
sS'RP2'
p3704
I6
sS'E'
p3705
I9
sS'P'
p3706
I5
sS'RP1'
p3707
I10
sS'JP'
p3708
I2
sS'RP_tot'
p3709
I10
sS'TO'
p3710
I6
sS'PA'
p3711
I9
sS'M'
p3712
I8
sS'R'
p3713
I9
sS'TB'
p3714
I4
sS'PL'
p3715
I9
sS'TA'
p3716
I8
ssg166
I0
sg167
I0
sg168
I0
sg169
I0
sg79
(dp3717
g3684
I0
sg3685
I0
sg3686
I0
sg3687
I0
ssg171
I0
sS'drops'
p3718
I0
sg172
I0
sg173
I1
sg329
(dp3719
S'A'
p3720
I9
sS'ME'
p3721
I10
sS'RP2'
p3722
I6
sS'E'
p3723
I9
sS'P'
p3724
I5
sS'RP1'
p3725
I10
sS'JP'
p3726
I2
sS'RP_tot'
p3727
I10
sS'TO'
p3728
I6
sS'PA'
p3729
I9
sS'M'
p3730
I8
sS'R'
p3731
I9
sS'TB'
p3732
I4
sS'PL'
p3733
I9
sS'TA'
p3734
I8
ssg174
g3701
sg175
I0
sg57
g30
sg176
I0
sg177
I0
sg178
I0
sg179
I1
sg180
I1
sg181
I1
sg182
S'HE'
p3735
sbssg166
I4
sg167
I0
sg168
I0
sg169
I0
sg170
F9.444444444444445
sg171
I0
sg3718
I0
sg172
I0
sg173
I1
sg329
(dp3736
S'A'
p3737
I9
sS'ME'
p3738
I10
sS'RP2'
p3739
I6
sS'E'
p3740
I9
sS'P'
p3741
I5
sS'RP1'
p3742
I10
sS'JP'
p3743
I2
sS'RP_tot'
p3744
I10
sS'TO'
p3745
I6
sS'PA'
p3746
I9
sS'M'
p3747
I8
sS'R'
p3748
I9
sS'TB'
p3749
I4
sS'PL'
p3750
I9
sS'TA'
p3751
I8
ssg174
g3658
sg175
I0
sg57
g30
sg176
I0
sg177
I0
sg178
I0
sg179
I1
sg180
I1
sg181
I0
sg182
S'HE'
p3752
sbsS's11'
p3753
(ijoueur
joueur
p3754
(dp3755
g27
I0
sg31
I0
sg34
I0
sg36
g37
(g38
g39
Ntp3756
Rp3757
(dp3758
g43
I2
sg44
S'^^'
p3759
sg46
S'special'
p3760
sbsg48
(dp3761
S'SR'
p3762
I0
sS'CT'
p3763
I0
sS'CR'
p3764
I0
sS'ST'
p3765
I0
ssg54
(dp3766
g3762
I0
sg3763
I0
sg3764
I0
sg3765
I0
ssg203
I0
sg170
F9.296296296296296
sg58
I0
sg3597
I0
sg3598
I0
sg61
I0
sg62
I0
sg63
I0
sg93
(S'dummy'
p3767
S'PI'
p3768
g30
g30
tp3769
sg66
I00
sg67
g37
(g38
g39
Ntp3770
Rp3771
(dp3772
g43
I2
sg44
S'^^'
p3773
sg46
g3760
sbsg73
(dp3774
g3762
I6
sg3763
I3
sg3764
I2
sg3765
I2
ssg60
I01
sg81
(dp3775
g3762
I0
sg3763
I0
sg3764
I0
sg3765
I0
ssg83
(dp3776
g3762
I6
sg3763
I3
sg3764
I2
sg3765
I2
ssg85
I0
sg86
I0
sg87
S'Saolteh (11)'
p3777
sg89
I4
sg90
I0
sg91
I18
sg92
I12
sg64
S'TA'
p3778
sg100
(dp3779
S'A'
p3780
I9
sS'ME'
p3781
I10
sS'RP2'
p3782
I6
sS'E'
p3783
I9
sS'P'
p3784
I5
sS'RP1'
p3785
I10
sS'JP'
p3786
I2
sS'RP_tot'
p3787
I10
sS'TO'
p3788
I6
sS'PA'
p3789
I9
sS'M'
p3790
I8
sS'R'
p3791
I9
sS'TB'
p3792
I4
sS'PL'
p3793
I9
sS'TA'
p3794
I8
ssg166
I0
sg167
I0
sg168
I0
sg169
I0
sg79
(dp3795
g3762
I0
sg3763
I0
sg3764
I0
sg3765
I0
ssg171
I0
sg3718
I0
sg172
I0
sg173
I1
sg329
(dp3796
S'A'
p3797
I9
sS'ME'
p3798
I10
sS'RP2'
p3799
I6
sS'E'
p3800
I9
sS'P'
p3801
I5
sS'RP1'
p3802
I10
sS'JP'
p3803
I2
sS'RP_tot'
p3804
I10
sS'TO'
p3805
I6
sS'PA'
p3806
I9
sS'M'
p3807
I8
sS'R'
p3808
I9
sS'TB'
p3809
I4
sS'PL'
p3810
I9
sS'TA'
p3811
I8
ssg174
g3779
sg175
I0
sg57
g30
sg176
I0
sg177
I0
sg178
I0
sg179
I1
sg180
I1
sg181
I1
sg182
S'HE'
p3812
sbssg166
I3
sg167
I0
sg168
I0
sg169
I0
sg79
(dp3813
g1996
I0
sg1997
I0
sg1998
I0
sg1999
I0
ssg171
I0
sg59
F31.966126218602312
sg3718
I0
sg172
I0
sg173
I1
sg329
(dp3814
S'A'
p3815
I9
sS'ME'
p3816
I10
sS'RP2'
p3817
I6
sS'E'
p3818
I9
sS'P'
p3819
I5
sS'RP1'
p3820
I10
sS'JP'
p3821
I2
sS'RP_tot'
p3822
I10
sS'TO'
p3823
I6
sS'PA'
p3824
I9
sS'M'
p3825
I8
sS'R'
p3826
I9
sS'TB'
p3827
I4
sS'PL'
p3828
I9
sS'TA'
p3829
I8
ssg174
(dp3830
g3611
I8
sg3612
I10
sg3613
I7
sg3614
I9
sg3619
I5
sg3616
I10
sg3617
I2
sg3618
I10
sg3615
I6
sg3620
I9
sg3621
I8
sg3622
I9
sg3623
I4
sg3624
I9
sg3625
I9
ssg175
I0
sg185
(dp3831
sg176
I0
sg57
S'TA 13'
p3832
sg177
I0
sg178
I0
sg179
I5
sg180
I1
sg181
I0
sg182
S'HE'
p3833
sbsS'n2'
p3834
(ijoueur
joueur
p3835
(dp3836
g27
I0
sg28
F7.862068965517241
sg29
g30
sg31
I0
sg32
I0
sg33
g30
sg34
I0
sg35
g30
sg36
g37
(g38
g39
Ntp3837
Rp3838
(dp3839
g43
I3
sg44
S'^^^'
p3840
sg46
S'rare'
p3841
sbsg48
(dp3842
S'SR'
p3843
I0
sS'ST'
p3844
I0
sS'CR'
p3845
I0
sS'CT'
p3846
I0
ssg54
(dp3847
g3843
I0
sg3844
I0
sg3845
I0
sg3846
I0
ssg56
I0
sg57
g30
sg170
F9.0
sg58
I0
sg59
I0
sg61
I0
sg62
I0
sg63
I0
sg64
g2003
sg66
I00
sg67
g37
(g38
g39
Ntp3848
Rp3849
(dp3850
g43
I2
sg44
S'<<'
p3851
sg46
S'special'
p3852
sbsg73
(dp3853
g1996
I0
sg1997
I0
sg1998
I0
sg1999
I0
ssg60
I00
sg81
(dp3854
g1996
I0
sg1997
I0
sg1998
I0
sg1999
I0
ssg83
(dp3855
g3843
I0
sg3844
I0
sg3845
I0
sg3846
I0
ssg85
I0
sg86
I0
sg87
S'Cenposs'
p3856
sg89
I12
sg90
I0
sg91
I20
sg92
I18
sg93
(S'dummy'
p3857
S'TA'
p3858
g30
g30
tp3859
sg99
g30
sg100
(dp3860
S'RP1'
p3861
I8
sS'ME'
p3862
I8
sS'RP2'
p3863
I5
sS'E'
p3864
I11
sS'P'
p3865
I6
sS'JP'
p3866
I5
sS'M'
p3867
I11
sS'RP_tot'
p3868
I8
sS'TO'
p3869
I7
sS'PA'
p3870
I8
sS'A'
p3871
I8
sS'R'
p3872
I9
sS'TB'
p3873
I4
sS'PL'
p3874
I8
sS'TA'
p3875
I10
ssg117
(dp3876
g2021
(ijoueur
joueur
p3877
(dp3878
g27
I0
sg29
g30
sg31
I0
sg33
g30
sg34
I0
sg35
g30
sg36
g37
(g38
g39
Ntp3879
Rp3880
(dp3881
g43
I3
sg44
S'^^^'
p3882
sg46
S'rare'
p3883
sbsg48
(dp3884
S'SR'
p3885
I0
sS'ST'
p3886
I0
sS'CR'
p3887
I0
sS'CT'
p3888
I0
ssg54
(dp3889
g3885
I0
sg3886
I0
sg3887
I0
sg3888
I0
ssg57
g30
sg58
I0
sg60
I00
sg61
I0
sg62
I0
sg63
I0
sg64
g2052
sg66
I00
sg67
g37
(g38
g39
Ntp3890
Rp3891
(dp3892
g43
I1
sg44
S'^'
p3893
sg46
S'base'
p3894
sbsg73
(dp3895
g3885
I0
sg3886
I0
sg3887
I0
sg3888
I0
ssg79
(dp3896
g3885
I0
sg3886
I0
sg3887
I0
sg3888
I0
ssg81
(dp3897
g3885
I0
sg3886
I0
sg3887
I0
sg3888
I0
ssg83
(dp3898
g3885
I0
sg3886
I0
sg3887
I0
sg3888
I0
ssg85
I0
sg86
I0
sg87
S'Cenposs'
p3899
sg89
I12
sg90
I0
sg91
I20
sg92
I9
sg93
(S'dummy'
p3900
S'TA'
p3901
g30
g30
tp3902
sg99
g30
sg100
(dp3903
S'RP1'
p3904
I8
sS'ME'
p3905
I7
sS'RP2'
p3906
I5
sS'E'
p3907
I8
sS'TO'
p3908
I6
sS'M'
p3909
I10
sS'JP'
p3910
I4
sS'RP_tot'
p3911
I8
sS'P'
p3912
I5
sS'PA'
p3913
I7
sS'A'
p3914
I7
sS'R'
p3915
I8
sS'TB'
p3916
I3
sS'PL'
p3917
I7
sS'TA'
p3918
I9
ssg117
(dp3919
sg166
I0
sg167
I0
sg168
I0
sg169
I0
sg170
F7.862068965517241
sg171
I0
sg172
I0
sg173
I0
sg174
g3903
sg175
I0
sg176
I0
sg177
I0
sg178
I0
sg179
I0
sg180
I0
sg181
I0
sg182
S'S'
p3920
sbssg166
I0
sg167
I0
sg168
I0
sg169
I0
sg79
(dp3921
g1996
I0
sg1997
I0
sg1998
I0
sg1999
I0
ssg171
I0
sg172
I0
sg173
I0
sg174
(dp3922
g3861
I8
sg3862
I8
sg3863
I5
sg3864
I11
sg3869
I7
sg3867
I11
sg3866
I5
sg3868
I8
sg3865
I6
sg3870
I8
sg3871
I8
sg3872
I9
sg3873
I4
sg3874
I8
sg3875
I10
ssg175
I0
sg185
(dp3923
sg176
I0
sg177
I0
sg178
I0
sg179
I0
sg180
I0
sg181
I0
sg182
S'S'
p3924
sbsS'n3'
p3925
(ijoueur
joueur
p3926
(dp3927
g191
F9.481481481481481
sg27
I2
sg28
F9.925925925925926
sg29
g30
sg31
I0
sg32
F31.966126218602312
sg34
I0
sg36
g37
(g38
g39
Ntp3928
Rp3929
(dp3930
g43
I5
sg44
S'**'
p3931
sg46
g1980
sbsg48
(dp3932
g1982
I0
sg1983
I3
sg1984
I11
sg1985
I14
ssg54
(dp3933
g1982
I0
sg1983
I0
sg1984
I0
sg1985
I0
ssg56
I0
sg203
I0
sg170
F9.703703703703704
sg58
I0
sg59
F31.966126218602312
sg61
I0
sg62
I0
sg63
I0
sg93
(g1987
S'PI'
p3934
S'TA'
p3935
g30
tp3936
sg66
I00
sg67
g3929
sg73
(dp3937
g1996
I0
sg1997
I0
sg1998
I0
sg1999
I0
ssg60
I00
sg81
(dp3938
g1996
I0
sg1997
I0
sg1998
I0
sg1999
I0
ssg83
(dp3939
g1982
I0
sg1983
I8
sg1984
I6
sg1985
I0
ssg85
I0
sg86
I0
sg87
S'Ziflad'
p3940
sg89
I8
sg90
I0
sg91
I19
sg92
I138
sg64
g2003
sg100
(dp3941
g2005
I11
sg2006
I7
sg2007
I9
sg2008
I12
sg2009
I8
sg2010
I8
sg2011
I5
sg2012
I10
sg2013
I6
sg2014
I12
sg2015
I9
sg2016
I8
sg2017
I5
sg2018
I12
sg2019
I7
ssg117
(dp3942
g2021
(ijoueur
joueur
p3943
(dp3944
g191
F9.481481481481481
sg27
I2
sg29
g30
sg31
I0
sg34
I0
sg36
g37
(g38
g39
Ntp3945
Rp3946
(dp3947
g43
I5
sg44
S'**'
p3948
sg46
g2028
sbsg48
(dp3949
g2030
I0
sg2031
I3
sg2032
I8
sg2033
I14
ssg54
(dp3950
g2030
I0
sg2031
I0
sg2032
I0
sg2033
I0
ssg203
I0
sg58
I0
sg60
I00
sg61
I2
sg62
I0
sg63
I0
sg93
(g2035
S'PI'
p3951
S'TA'
p3952
g30
tp3953
sg66
I00
sg67
g3946
sg73
(dp3954
g2044
I0
sg2045
I0
sg2046
I0
sg2047
I7
ssg79
(dp3955
g2044
I0
sg2045
I7
sg2046
I6
sg2047
I3
ssg81
(dp3956
g2044
I0
sg2045
I0
sg2046
I0
sg2047
I0
ssg83
(dp3957
g2030
I0
sg2031
I8
sg2032
I6
sg2033
I0
ssg85
I0
sg86
I0
sg87
S'Ziflad (12)'
p3958
sg89
I8
sg90
I0
sg91
I19
sg92
I138
sg64
g2052
sg100
(dp3959
g2054
I11
sg2055
I8
sg2056
I9
sg2057
I12
sg2058
I6
sg2059
I8
sg2060
I5
sg2061
I10
sg2062
I8
sg2063
I12
sg2064
I10
sg2065
I8
sg2066
I5
sg2067
I12
sg2068
I7
ssg117
(dp3960
g2070
(ijoueur
joueur
p3961
(dp3962
g27
I1
sg31
I0
sg34
I0
sg36
g37
(g38
g39
Ntp3963
Rp3964
(dp3965
g43
I5
sg44
S'**'
p3966
sg46
S'seigneur'
p3967
sbsg48
(dp3968
S'SR'
p3969
I0
sS'ST'
p3970
I7
sS'CR'
p3971
I2
sS'CT'
p3972
I0
ssg54
(dp3973
g3969
I0
sg3970
I0
sg3971
I0
sg3972
I0
ssg203
I0
sg58
I0
sg60
I00
sg61
I0
sg62
I0
sg63
I0
sg93
(S'dummy'
p3974
S'PI'
p3975
S'TA'
p3976
g30
tp3977
sg66
I00
sg67
g37
(g38
g39
Ntp3978
Rp3979
(dp3980
g43
I4
sg44
S'*'
p3981
sg46
S'heros'
p3982
sbsg73
(dp3983
g3969
I0
sg3970
I0
sg3971
I6
sg3972
I1
ssg79
(dp3984
g3969
I0
sg3970
I7
sg3971
I2
sg3972
I0
ssg81
(dp3985
g3969
I0
sg3970
I0
sg3971
I0
sg3972
I0
ssg83
(dp3986
g3969
I0
sg3970
I0
sg3971
I6
sg3972
I1
ssg85
I0
sg86
I0
sg87
S'Ziflad'
p3987
sg89
I8
sg90
I0
sg91
I19
sg92
I68
sg64
S'SN'
p3988
sg100
(dp3989
S'A'
p3990
I10
sS'ME'
p3991
I9
sS'RP2'
p3992
I8
sS'E'
p3993
I11
sS'TO'
p3994
I7
sS'RP1'
p3995
I8
sS'JP'
p3996
I5
sS'RP_tot'
p3997
I9
sS'P'
p3998
I7
sS'PA'
p3999
I11
sS'M'
p4000
I10
sS'R'
p4001
I7
sS'TB'
p4002
I5
sS'PL'
p4003
I12
sS'TA'
p4004
I7
ssg166
I0
sg167
I0
sg168
I0
sg169
I0
sg170
F9.481481481481481
sg171
I0
sg172
I0
sg173
I0
sg329
(dp4005
S'A'
p4006
I10
sS'ME'
p4007
I9
sS'RP2'
p4008
I8
sS'E'
p4009
I11
sS'TO'
p4010
I7
sS'RP1'
p4011
I8
sS'JP'
p4012
I5
sS'RP_tot'
p4013
I9
sS'P'
p4014
I7
sS'PA'
p4015
I11
sS'M'
p4016
I10
sS'R'
p4017
I7
sS'TB'
p4018
I5
sS'PL'
p4019
I12
sS'TA'
p4020
I7
ssg174
g3989
sg175
I1
sg57
S'APA 10'
p4021
sg176
I0
sg177
I0
sg178
I0
sg179
I7
sg180
I1
sg181
I0
sg182
S'HE'
p4022
sbssg166
I17
sg167
I0
sg168
I0
sg169
I0
sg170
F9.925925925925926
sg171
I0
sg172
I0
sg173
I1
sg329
(dp4023
g2133
I10
sg2134
I9
sg2135
I8
sg2136
I11
sg2137
I7
sg2138
I8
sg2139
I5
sg2140
I9
sg2141
I7
sg2142
I11
sg2143
I10
sg2144
I7
sg2145
I5
sg2146
I12
sg2147
I7
ssg174
g3959
sg175
I1
sg57
S'APA 10'
p4024
sg176
I0
sg177
I0
sg178
I0
sg179
I14
sg180
I3
sg181
I1
sg182
S'HE'
p4025
sbsg2150
(ijoueur
joueur
p4026
(dp4027
g27
I1
sg31
I0
sg34
I0
sg36
g37
(g38
g39
Ntp4028
Rp4029
(dp4030
g43
I5
sg44
S'**'
p4031
sg46
S'seigneur'
p4032
sbsg48
(dp4033
S'SR'
p4034
I0
sS'ST'
p4035
I7
sS'CR'
p4036
I2
sS'CT'
p4037
I0
ssg54
(dp4038
g4034
I0
sg4035
I0
sg4036
I0
sg4037
I0
ssg203
I0
sg58
I0
sg60
I00
sg61
I0
sg62
I0
sg63
I0
sg93
(S'dummy'
p4039
S'PI'
p4040
S'TA'
p4041
g30
tp4042
sg66
I00
sg67
g37
(g38
g39
Ntp4043
Rp4044
(dp4045
g43
I4
sg44
S'*'
p4046
sg46
S'heros'
p4047
sbsg73
(dp4048
g4034
I0
sg4035
I0
sg4036
I6
sg4037
I1
ssg79
(dp4049
g4034
I0
sg4035
I7
sg4036
I2
sg4037
I0
ssg81
(dp4050
g4034
I0
sg4035
I0
sg4036
I0
sg4037
I0
ssg83
(dp4051
g4034
I0
sg4035
I0
sg4036
I6
sg4037
I1
ssg85
I0
sg86
I0
sg87
S'Ziflad (11)'
p4052
sg89
I8
sg90
I0
sg91
I19
sg92
I68
sg64
S'SN'
p4053
sg100
(dp4054
S'A'
p4055
I10
sS'ME'
p4056
I9
sS'RP2'
p4057
I8
sS'E'
p4058
I11
sS'TO'
p4059
I7
sS'RP1'
p4060
I8
sS'JP'
p4061
I5
sS'RP_tot'
p4062
I10
sS'P'
p4063
I7
sS'PA'
p4064
I11
sS'M'
p4065
I10
sS'R'
p4066
I7
sS'TB'
p4067
I5
sS'PL'
p4068
I12
sS'TA'
p4069
I7
ssg166
I0
sg167
I0
sg168
I0
sg169
I0
sg170
F9.481481481481481
sg171
I0
sg172
I0
sg173
I0
sg329
(dp4070
S'A'
p4071
I10
sS'ME'
p4072
I9
sS'RP2'
p4073
I8
sS'E'
p4074
I11
sS'TO'
p4075
I7
sS'RP1'
p4076
I8
sS'JP'
p4077
I5
sS'RP_tot'
p4078
I9
sS'P'
p4079
I7
sS'PA'
p4080
I11
sS'M'
p4081
I10
sS'R'
p4082
I7
sS'TB'
p4083
I5
sS'PL'
p4084
I12
sS'TA'
p4085
I7
ssg174
g4054
sg175
I1
sg57
S'APA 10'
p4086
sg176
I0
sg177
I0
sg178
I0
sg179
I7
sg180
I1
sg181
I0
sg182
S'HE'
p4087
sbssg166
I3
sg167
I0
sg168
I0
sg169
I0
sg79
(dp4088
g1996
I0
sg1997
I0
sg1998
I3
sg1999
I0
ssg171
I0
sg172
I0
sg173
I1
sg329
(dp4089
g2214
I10
sg2215
I9
sg2216
I8
sg2217
I11
sg2218
I7
sg2219
I8
sg2220
I5
sg2221
I9
sg2222
I7
sg2223
I11
sg2224
I10
sg2225
I7
sg2226
I5
sg2227
I12
sg2228
I7
ssg174
(dp4090
g2005
I11
sg2006
I7
sg2007
I9
sg2008
I12
sg2013
I6
sg2010
I8
sg2011
I5
sg2012
I10
sg2009
I8
sg2014
I12
sg2015
I9
sg2016
I8
sg2017
I5
sg2018
I12
sg2019
I7
ssg175
I0
sg185
(dp4091
sg176
I0
sg57
S'APA 10'
p4092
sg177
I0
sg178
I0
sg179
I14
sg180
I3
sg181
I0
sg182
S'HE'
p4093
sbsS'n4'
p4094
(ijoueur
joueur
p4095
(dp4096
g27
I0
sg29
g30
sg31
I0
sg32
F31.966126218602312
sg33
g30
sg34
I0
sg35
g30
sg36
g37
(g38
g39
Ntp4097
Rp4098
(dp4099
g43
I5
sg44
S'**'
p4100
sg46
S'seigneur'
p4101
sbsg48
(dp4102
S'SR'
p4103
I0
sS'CT'
p4104
I0
sS'CR'
p4105
I0
sS'ST'
p4106
I0
ssg54
(dp4107
g4103
I0
sg4104
I0
sg4105
I0
sg4106
I0
ssg56
I0
sg57
g30
sg58
I0
sg59
F31.966126218602312
sg61
I0
sg62
I0
sg63
I0
sg64
g2003
sg67
g37
(g38
g39
Ntp4108
Rp4109
(dp4110
g43
I2
sg44
S'^^'
p4111
sg46
S'special'
p4112
sbsg73
(dp4113
g4103
I0
sg4104
I0
sg4105
I3
sg4106
I0
ssg79
(dp4114
g4103
I0
sg4104
I0
sg4105
I0
sg4106
I0
ssg81
(dp4115
g4103
I0
sg4104
I0
sg4105
I0
sg4106
I0
ssg83
(dp4116
g4103
I0
sg4104
I0
sg4105
I3
sg4106
I0
ssg85
I0
sg86
I0
sg87
S'Smarlaoth'
p4117
sg89
I13
sg90
I0
sg91
I23
sg92
I50
sg93
(S'dummy'
p4118
S'DL'
p4119
g30
g30
tp4120
sg99
g30
sg100
(dp4121
S'RP1'
p4122
I8
sS'ME'
p4123
I8
sS'RP2'
p4124
I6
sS'E'
p4125
I10
sS'TO'
p4126
I12
sS'M'
p4127
I9
sS'JP'
p4128
I4
sS'RP_tot'
p4129
I8
sS'P'
p4130
I5
sS'PA'
p4131
I9
sS'A'
p4132
I11
sS'R'
p4133
I9
sS'TB'
p4134
I4
sS'PL'
p4135
I9
sS'TA'
p4136
I3
ssg166
I5
sg167
I0
sg168
I0
sg169
I0
sg170
F9.617647058823529
sg171
I0
sg172
I0
sg173
I0
sg174
(dp4137
g4122
I8
sg4123
I8
sg4124
I6
sg4125
I10
sg4130
I5
sg4128
I4
sg4127
I9
sg4129
I8
sg4126
I12
sg4131
I9
sg4132
I11
sg4133
I9
sg4134
I4
sg4135
I9
sg4136
I3
ssg175
I0
sg176
I0
sg177
I0
sg178
I0
sg179
I5
sg180
I0
sg181
I0
sg182
S'EN'
p4138
sbsS'n5'
p4139
(ijoueur
joueur
p4140
(dp4141
g27
I0
sg28
F8.735294117647058
sg29
g30
sg31
I0
sg32
I0
sg33
g30
sg34
I0
sg35
g30
sg36
g37
(g38
g39
Ntp4142
Rp4143
(dp4144
g43
I4
sg44
S'*'
p4145
sg46
S'heros'
p4146
sbsg48
(dp4147
g3843
I0
sg3844
I0
sg3845
I0
sg3846
I0
ssg54
(dp4148
g3843
I0
sg3844
I0
sg3845
I0
sg3846
I0
ssg56
I0
sg57
g30
sg170
F9.294117647058824
sg58
I0
sg59
I0
sg61
I0
sg62
I0
sg63
I0
sg64
g2003
sg66
I00
sg67
g37
(g38
g39
Ntp4149
Rp4150
(dp4151
g43
I2
sg44
S'^^'
p4152
sg46
g3852
sbsg73
(dp4153
g1996
I0
sg1997
I0
sg1998
I0
sg1999
I0
ssg60
I00
sg81
(dp4154
g1996
I0
sg1997
I0
sg1998
I0
sg1999
I0
ssg83
(dp4155
g3843
I0
sg3844
I0
sg3845
I2
sg3846
I0
ssg85
I0
sg86
I0
sg87
S'Nahor'
p4156
sg89
I12
sg90
I0
sg91
I25
sg92
I30
sg93
(g3857
S'DL'
p4157
S'PI'
p4158
S'TL'
p4159
tp4160
sg99
g30
sg100
(dp4161
g3861
I9
sg3862
I10
sg3863
I8
sg3864
I8
sg3865
I4
sg3866
I4
sg3867
I9
sg3868
I10
sg3869
I10
sg3870
I9
sg3871
I10
sg3872
I8
sg3873
I4
sg3874
I10
sg3875
I1
ssg117
(dp4162
g2021
(ijoueur
joueur
p4163
(dp4164
g27
I0
sg29
g30
sg31
I0
sg33
g30
sg34
I0
sg35
g30
sg36
g37
(g38
g39
Ntp4165
Rp4166
(dp4167
g43
I4
sg44
S'*'
p4168
sg46
S'heros'
p4169
sbsg48
(dp4170
g3885
I0
sg3886
I0
sg3887
I0
sg3888
I0
ssg54
(dp4171
g3885
I0
sg3886
I0
sg3887
I0
sg3888
I0
ssg57
g30
sg58
I0
sg60
I01
sg61
I0
sg62
I0
sg63
I0
sg64
g2052
sg66
I00
sg67
g37
(g38
g39
Ntp4172
Rp4173
(dp4174
g43
I1
sg44
g3893
sg46
g3894
sbsg73
(dp4175
g3885
I0
sg3886
I0
sg3887
I2
sg3888
I0
ssg79
(dp4176
g3885
I0
sg3886
I0
sg3887
I0
sg3888
I0
ssg81
(dp4177
g3885
I0
sg3886
I0
sg3887
I0
sg3888
I0
ssg83
(dp4178
g3885
I0
sg3886
I0
sg3887
I2
sg3888
I0
ssg85
I0
sg86
I0
sg87
S'Nahor (12)'
p4179
sg89
I12
sg90
I0
sg91
I25
sg92
I9
sg93
(g3900
S'DL'
p4180
S'PI'
p4181
S'TL'
p4182
tp4183
sg99
g30
sg100
(dp4184
g3904
I8
sg3905
I10
sg3906
I8
sg3907
I8
sg3908
I9
sg3909
I8
sg3910
I4
sg3911
I10
sg3912
I4
sg3913
I8
sg3914
I9
sg3915
I8
sg3916
I4
sg3917
I9
sg3918
I1
ssg117
(dp4185
sg166
I0
sg167
I0
sg168
I0
sg169
I0
sg170
F8.735294117647058
sg171
I0
sg172
I0
sg173
I0
sg174
g4184
sg175
I0
sg176
I0
sg177
I0
sg178
I0
sg179
I0
sg180
I0
sg181
I0
sg182
S'EN'
p4186
sbssg166
I0
sg167
I0
sg168
I0
sg169
I0
sg79
(dp4187
g1996
I0
sg1997
I0
sg1998
I0
sg1999
I0
ssg171
I0
sg172
I0
sg173
I0
sg174
(dp4188
g3861
I9
sg3862
I10
sg3863
I8
sg3864
I8
sg3869
I10
sg3867
I9
sg3866
I4
sg3868
I10
sg3865
I4
sg3870
I9
sg3871
I10
sg3872
I8
sg3873
I4
sg3874
I10
sg3875
I1
ssg175
I0
sg185
(dp4189
sg176
I0
sg177
I0
sg178
I0
sg179
I2
sg180
I0
sg181
I0
sg182
S'EN'
p4190
sbsS'n6'
p4191
g998
sS'n7'
p4192
(ijoueur
joueur
p4193
(dp4194
g191
F9.67741935483871
sg27
I0
sg28
F9.580645161290322
sg29
g30
sg31
I0
sg32
F31.966126218602312
sg34
I0
sg36
g37
(g38
g39
Ntp4195
Rp4196
(dp4197
g43
I2
sg44
S'<<'
p4198
sg46
g1343
sbsg48
(dp4199
g704
I0
sg705
I0
sg706
I0
sg707
I0
ssg54
(dp4200
g704
I0
sg705
I0
sg706
I11
sg707
I1
ssg56
I0
sg203
I0
sg58
I0
sg59
F31.966126218602312
sg60
I00
sg61
I0
sg62
I0
sg63
I0
sg93
(g709
S'TL'
p4201
S'DL'
p4202
S'PI'
p4203
tp4204
sg66
I00
sg67
g37
(g38
g39
Ntp4205
Rp4206
(dp4207
g43
I2
sg44
S'<<'
p4208
sg46
g1343
sbsg73
(dp4209
g75
I0
sg76
I0
sg77
I3
sg78
I0
ssg79
(dp4210
g75
I0
sg76
I0
sg77
I0
sg78
I0
ssg81
(dp4211
g75
I0
sg76
I0
sg77
I0
sg78
I0
ssg83
(dp4212
g704
I0
sg705
I0
sg706
I5
sg707
I9
ssg85
I0
sg86
I0
sg87
S'Gnen'
p4213
sg89
I1
sg90
I0
sg91
I15
sg92
I14
sg64
g65
sg100
(dp4214
g724
I10
sg725
I9
sg726
I6
sg727
I10
sg728
I8
sg729
I9
sg730
I4
sg731
I9
sg732
I7
sg733
I8
sg734
I10
sg735
I9
sg736
I6
sg737
I11
sg738
I7
ssg117
(dp4215
g119
(ijoueur
joueur
p4216
(dp4217
g191
F9.67741935483871
sg27
I0
sg29
g30
sg31
I0
sg34
I0
sg36
g37
(g38
g39
Ntp4218
Rp4219
(dp4220
g43
I2
sg44
S'<<'
p4221
sg46
g1366
sbsg48
(dp4222
g748
I0
sg749
I0
sg750
I0
sg751
I0
ssg54
(dp4223
g748
I0
sg749
I0
sg750
I11
sg751
I1
ssg79
(dp4224
g754
I0
sg755
I0
sg756
I0
sg757
I0
ssg203
I0
sg58
I0
sg61
I0
sg62
I0
sg63
I0
sg93
(g758
S'TL'
p4225
S'DL'
p4226
S'PI'
p4227
tp4228
sg66
I00
sg67
g37
(g38
g39
Ntp4229
Rp4230
(dp4231
g43
I2
sg44
S'<<'
p4232
sg46
g1366
sbsg73
(dp4233
g754
I0
sg755
I3
sg756
I0
sg757
I0
ssg60
I00
sg81
(dp4234
g754
I0
sg755
I1
sg756
I11
sg757
I0
ssg83
(dp4235
g748
I0
sg749
I0
sg750
I2
sg751
I9
ssg85
I0
sg86
I0
sg87
S'Gnen (12)'
p4236
sg89
I1
sg90
I0
sg91
I15
sg92
I14
sg64
g134
sg100
(dp4237
g772
I10
sg773
I8
sg774
I6
sg775
I10
sg776
I7
sg777
I9
sg778
I4
sg779
I9
sg780
I7
sg781
I8
sg782
I10
sg783
I9
sg784
I6
sg785
I11
sg786
I7
ssg117
(dp4238
g788
(ijoueur
joueur
p4239
(dp4240
g27
I0
sg31
I0
sg34
I0
sg36
g37
(g38
g39
Ntp4241
Rp4242
(dp4243
g43
I2
sg44
S'<<'
p4244
sg46
S'special'
p4245
sbsg48
(dp4246
S'SR'
p4247
I0
sS'CT'
p4248
I0
sS'CR'
p4249
I0
sS'ST'
p4250
I0
ssg54
(dp4251
g4247
I0
sg4248
I0
sg4249
I0
sg4250
I0
ssg203
I0
sg58
I0
sg60
I01
sg61
I0
sg62
I0
sg63
I0
sg93
(S'dummy'
p4252
S'TL'
p4253
S'DL'
p4254
S'PI'
p4255
tp4256
sg66
I01
sg67
g37
(g38
g39
Ntp4257
Rp4258
(dp4259
g43
I2
sg44
S'<<'
p4260
sg46
g4245
sbsg73
(dp4261
g4247
I0
sg4248
I6
sg4249
I2
sg4250
I0
ssg79
(dp4262
g4247
I0
sg4248
I0
sg4249
I0
sg4250
I0
ssg81
(dp4263
g4247
I0
sg4248
I0
sg4249
I0
sg4250
I0
ssg83
(dp4264
g4247
I0
sg4248
I6
sg4249
I2
sg4250
I0
ssg85
I0
sg86
I0
sg87
S'Gnen'
p4265
sg89
I1
sg90
I0
sg91
I15
sg92
I14
sg64
S'SN'
p4266
sg100
(dp4267
S'A'
p4268
I11
sS'ME'
p4269
I8
sS'RP2'
p4270
I6
sS'E'
p4271
I10
sS'P'
p4272
I7
sS'RP1'
p4273
I9
sS'JP'
p4274
I4
sS'RP_tot'
p4275
I9
sS'TO'
p4276
I7
sS'PA'
p4277
I8
sS'M'
p4278
I10
sS'R'
p4279
I9
sS'TB'
p4280
I6
sS'PL'
p4281
I11
sS'TA'
p4282
I7
ssg166
I0
sg167
I0
sg168
I0
sg169
I0
sg170
F9.67741935483871
sg171
I0
sg172
I0
sg173
I0
sg329
(dp4283
S'A'
p4284
I11
sS'ME'
p4285
I8
sS'RP2'
p4286
I6
sS'E'
p4287
I10
sS'P'
p4288
I7
sS'RP1'
p4289
I9
sS'JP'
p4290
I4
sS'RP_tot'
p4291
I9
sS'TO'
p4292
I7
sS'PA'
p4293
I8
sS'M'
p4294
I10
sS'R'
p4295
I9
sS'TB'
p4296
I6
sS'PL'
p4297
I11
sS'TA'
p4298
I7
ssg174
g4267
sg175
I0
sg57
g30
sg176
I0
sg177
I0
sg178
I0
sg179
I1
sg180
I8
sg181
I0
sg182
S'S'
p4299
sbssg166
I1
sg167
I0
sg168
I1
sg169
I0
sg170
F9.580645161290322
sg171
I0
sg172
I1
sg173
I0
sg329
(dp4300
g851
I11
sg852
I8
sg853
I6
sg854
I10
sg855
I7
sg856
I9
sg857
I4
sg858
I9
sg859
I7
sg860
I8
sg861
I10
sg862
I9
sg863
I6
sg864
I11
sg865
I7
ssg174
g4237
sg175
I0
sg57
g30
sg176
I0
sg177
I0
sg178
I0
sg179
I5
sg180
I8
sg181
I0
sg182
g866
sbsg867
(ijoueur
joueur
p4301
(dp4302
g27
I0
sg31
I0
sg34
I0
sg36
g37
(g38
g39
Ntp4303
Rp4304
(dp4305
g43
I2
sg44
S'<<'
p4306
sg46
S'special'
p4307
sbsg48
(dp4308
S'SR'
p4309
I0
sS'CT'
p4310
I0
sS'CR'
p4311
I0
sS'ST'
p4312
I0
ssg54
(dp4313
g4309
I0
sg4310
I0
sg4311
I0
sg4312
I0
ssg203
I0
sg58
I0
sg60
I01
sg61
I0
sg62
I0
sg63
I0
sg93
(S'dummy'
p4314
S'TL'
p4315
S'DL'
p4316
S'PI'
p4317
tp4318
sg66
I01
sg67
g37
(g38
g39
Ntp4319
Rp4320
(dp4321
g43
I2
sg44
S'<<'
p4322
sg46
g4307
sbsg73
(dp4323
g4309
I0
sg4310
I6
sg4311
I2
sg4312
I0
ssg79
(dp4324
g4309
I0
sg4310
I0
sg4311
I0
sg4312
I0
ssg81
(dp4325
g4309
I0
sg4310
I0
sg4311
I0
sg4312
I0
ssg83
(dp4326
g4309
I0
sg4310
I6
sg4311
I2
sg4312
I0
ssg85
I0
sg86
I0
sg87
S'Gnen (11)'
p4327
sg89
I1
sg90
I0
sg91
I15
sg92
I14
sg64
S'SN'
p4328
sg100
(dp4329
S'A'
p4330
I11
sS'ME'
p4331
I8
sS'RP2'
p4332
I6
sS'E'
p4333
I10
sS'P'
p4334
I7
sS'RP1'
p4335
I9
sS'JP'
p4336
I4
sS'RP_tot'
p4337
I9
sS'TO'
p4338
I7
sS'PA'
p4339
I8
sS'M'
p4340
I10
sS'R'
p4341
I9
sS'TB'
p4342
I6
sS'PL'
p4343
I11
sS'TA'
p4344
I7
ssg166
I0
sg167
I0
sg168
I0
sg169
I0
sg170
F9.67741935483871
sg171
I0
sg172
I0
sg173
I0
sg329
(dp4345
S'A'
p4346
I11
sS'ME'
p4347
I8
sS'RP2'
p4348
I6
sS'E'
p4349
I10
sS'P'
p4350
I7
sS'RP1'
p4351
I9
sS'JP'
p4352
I4
sS'RP_tot'
p4353
I9
sS'TO'
p4354
I7
sS'PA'
p4355
I8
sS'M'
p4356
I10
sS'R'
p4357
I9
sS'TB'
p4358
I6
sS'PL'
p4359
I11
sS'TA'
p4360
I7
ssg174
g4329
sg175
I0
sg57
g30
sg176
I0
sg177
I0
sg178
I0
sg179
I1
sg180
I8
sg181
I0
sg182
S'S'
p4361
sbssg166
I5
sg167
I0
sg168
I1
sg169
I0
sg170
F9.64516129032258
sg171
I0
sg172
I0
sg173
I0
sg329
(dp4362
g930
I11
sg931
I8
sg932
I6
sg933
I10
sg934
I7
sg935
I9
sg936
I4
sg937
I9
sg938
I7
sg939
I8
sg940
I10
sg941
I9
sg942
I6
sg943
I11
sg944
I7
ssg174
(dp4363
g724
I10
sg725
I9
sg726
I6
sg727
I10
sg732
I7
sg729
I9
sg730
I4
sg731
I9
sg728
I8
sg733
I8
sg734
I10
sg735
I9
sg736
I6
sg737
I11
sg738
I7
ssg175
I0
sg185
(dp4364
sg176
I0
sg57
g30
sg177
I0
sg178
I0
sg179
I5
sg180
I8
sg181
I0
sg182
g947
sbssS'remplacements'
p4365
(dp4366
g1973
S'n0'
p4367
sg2233
g4367
sg2907
g4367
sg3082
g4367
sg3243
g4367
sg3294
g4367
sg3338
g4367
ssb.