(iclub
compo
p0
(dp1
S'caracs_old'
p2
(dp3
S'A'
p4
F174.5
sS'ME'
p5
F91.5
sS'E'
p6
I215
sS'OplusAV'
p7
F67.0
sS'OplusAR'
p8
F101.0
sS'JP'
p9
F116.5
sS'PA'
p10
F123.0
sS'M'
p11
F58.5
sS'OmoinsAR'
p12
F86.0
sS'TO_off'
p13
F140.0
sS'TO_def'
p14
F130.0
sS'OmoinsAV'
p15
F90.0
sS'R'
p16
F191.0
ssS'totaux_old'
p17
(dp18
S'T2'
p19
F207.0
sS'T3'
p20
F107.5
sS'T1'
p21
F208.75
ssS'roles'
p22
(dp23
S'SA_scd'
p24
(ijoueur
joueur
p25
(dp26
S'EV_saison_11'
p27
F10.657894736842104
sS'rouges_total'
p28
I0
sS'drops_total'
p29
I0
sS'poste3'
p30
S''
p31
sS'blessure'
p32
I0
sS'poste1'
p33
g31
sS'RG_max'
p34
ccopy_reg
_reconstructor
p35
(cjoueur
rang_new
p36
c__builtin__
object
p37
Ntp38
Rp39
(dp40
S'type_nb'
p41
I3
sS'rang'
p42
S'^^^'
p43
sS'type'
p44
S'rare'
p45
sbsS'MJ2_total'
p46
(dp47
S'SR'
p48
I0
sS'CT'
p49
I0
sS'CR'
p50
I0
sS'ST'
p51
I0
ssS'MJ3_total'
p52
(dp53
g48
I0
sg49
I0
sg50
I0
sg51
I0
ssS'anciens_clubs'
p54
S'vide 12'
p55
sS'drop_rates_saison'
p56
I0
sS'MS_probleme'
p57
I00
sS'essais_saison'
p58
I0
sS'penalite_ratees_saison'
p59
I0
sS'transformations_saison'
p60
I0
sS'club'
p61
S'KHR'
p62
sS'veut_partir'
p63
I00
sS'RG'
p64
g39
sS'MJ1'
p65
(dp66
S'SR'
p67
I0
sS'CT'
p68
I0
sS'CR'
p69
I0
sS'ST'
p70
I0
ssS'MJ2'
p71
(dp72
g67
I0
sg68
I0
sg69
I0
sg70
I0
ssS'MJ3'
p73
(dp74
g67
I0
sg68
I0
sg69
I0
sg70
I0
ssS'MJ1_total'
p75
(dp76
g48
I0
sg49
I0
sg50
I0
sg51
I3
ssS'penalites_total'
p77
I0
sS'penalites_saison'
p78
I0
sS'nom'
p79
S'Areniev'
p80
sS'C'
p81
I6
sS'transformations_total'
p82
I0
sS'D'
p83
I15
sS'VAL'
p84
I50
sS'postes'
p85
(S'dummy'
p86
S'TL'
p87
S'CE'
p88
S'AR'
p89
tp90
sS'poste2'
p91
g31
sS'caracs'
p92
(dp93
S'RP1'
p94
I7
sS'ME'
p95
I7
sS'RP2'
p96
I6
sS'E'
p97
I9
sS'TO'
p98
I13
sS'M'
p99
I9
sS'JP'
p100
I4
sS'RP_tot'
p101
I7
sS'P'
p102
I5
sS'PA'
p103
I8
sS'A'
p104
I10
sS'R'
p105
I13
sS'TB'
p106
I4
sS'PL'
p107
I14
sS'TA'
p108
I3
ssS'fatigue'
p109
I0
sS'drop_ratees_total'
p110
I0
sS'blessures_total'
p111
I0
sS'XP'
p112
I0
sS'EV'
p113
F11.210526315789474
sS'penalite_ratees_total'
p114
I0
sS'blessures_saison'
p115
I0
sS'jaunes_total'
p116
I0
sS'caracs_saison_11'
p117
(dp118
g94
I7
sg95
I7
sg96
I6
sg97
I9
sg98
I12
sg99
I8
sg100
I4
sg101
I7
sg102
I5
sg103
I8
sg104
I10
sg105
I13
sg106
I4
sg107
I12
sg108
I3
ssS'caracs_sans_fatigue'
p119
(dp120
g94
I7
sg95
I7
sg96
I6
sg97
I9
sg102
I5
sg100
I4
sg99
I9
sg101
I7
sg98
I13
sg103
I8
sg104
I10
sg105
I13
sg106
I4
sg107
I14
sg108
I3
ssS'rouges_saison'
p121
I0
sS'transformation_ratees_total'
p122
I0
sS'drops_saison'
p123
I0
sS'transformation_ratees_saison'
p124
I0
sS'MS'
p125
I9
sS'essais_total'
p126
I0
sS'jaunes_saison'
p127
I0
sS'ARM'
p128
S'K'
p129
sbsS'drop3'
p130
(ijoueur
joueur
p131
(dp132
g27
F11.413793103448276
sg28
I0
sg29
I0
sg32
I0
sg34
g35
(g36
g37
Ntp133
Rp134
(dp135
g41
I6
sg42
S'***'
p136
sg44
S'personnage'
p137
sbsg46
(dp138
S'SR'
p139
I0
sS'ST'
p140
I0
sS'CR'
p141
I0
sS'CT'
p142
I0
ssg52
(dp143
g139
I0
sg140
I0
sg141
I0
sg142
I0
ssS'drop_rates_total'
p144
I0
sg56
I0
sg57
I00
sg58
I0
sg59
I0
sg60
I0
sg85
(S'dummy'
p145
S'DM'
p146
S'DO'
p147
S'AR'
p148
tp149
sg63
I00
sg64
g35
(g36
g37
Ntp150
Rp151
(dp152
g41
I6
sg42
S'***'
p153
sg44
g137
sbsg65
(dp154
g67
I0
sg68
I0
sg69
I0
sg70
I0
ssg71
(dp155
g67
I0
sg68
I0
sg69
I0
sg70
I0
ssg73
(dp156
g67
I0
sg68
I0
sg69
I0
sg70
I0
ssg75
(dp157
g139
I0
sg140
I7
sg141
I0
sg142
I13
ssg77
I0
sg78
I0
sg79
S'Eltharion'
p158
sg81
I8
sg82
I0
sg83
I15
sg84
I587
sg61
g62
sg92
(dp159
S'A'
p160
I14
sS'ME'
p161
I5
sS'RP2'
p162
I9
sS'E'
p163
I12
sS'P'
p164
I11
sS'RP1'
p165
I7
sS'JP'
p166
I11
sS'RP_tot'
p167
I9
sS'TO'
p168
I7
sS'PA'
p169
I15
sS'M'
p170
I8
sS'R'
p171
I7
sS'TB'
p172
I8
sS'PL'
p173
I11
sS'TA'
p174
I7
ssg109
I0
sg110
I0
sg111
I0
sg112
I0
sg113
F11.620689655172415
sg114
I0
sg115
I0
sg116
I0
sg117
(dp175
g160
I14
sg161
I5
sg162
I9
sg163
I12
sg164
I11
sg165
I7
sg166
I11
sg167
I9
sg168
I7
sg169
I14
sg170
I8
sg171
I7
sg172
I8
sg173
I11
sg174
I7
ssg119
(dp176
g160
I14
sg161
I5
sg162
I9
sg163
I12
sg168
I7
sg165
I7
sg166
I11
sg167
I9
sg164
I11
sg169
I15
sg170
I8
sg171
I7
sg172
I8
sg173
I11
sg174
I7
ssg121
I0
sg54
g31
sg122
I0
sg123
I0
sg124
I0
sg125
I59
sg126
I4
sg127
I0
sg128
S'HE'
p177
sbsS'cap'
p178
g131
sS'SA_pcp1'
p179
(ijoueur
joueur
p180
(dp181
g27
F10.882352941176471
sg28
I0
sg29
I0
sg32
I0
sg34
g35
(g36
g37
Ntp182
Rp183
(dp184
g41
I4
sg42
S'*'
p185
sg44
S'heros'
p186
sbsg46
(dp187
g139
I0
sg140
I0
sg141
I0
sg142
I1
ssg52
(dp188
g139
I0
sg140
I0
sg141
I0
sg142
I0
ssg144
I0
sg56
I0
sg57
I01
sg58
I0
sg59
I0
sg60
I0
sg85
(g145
S'DL'
p189
S'N8'
p190
g31
tp191
sg63
I00
sg64
g35
(g36
g37
Ntp192
Rp193
(dp194
g41
I4
sg42
g185
sg44
g186
sbsg65
(dp195
g67
I0
sg68
I0
sg69
I0
sg70
I0
ssg71
(dp196
g67
I0
sg68
I0
sg69
I0
sg70
I0
ssg73
(dp197
g67
I0
sg68
I0
sg69
I0
sg70
I0
ssg75
(dp198
g139
I1
sg140
I1
sg141
I0
sg142
I13
ssg77
I0
sg78
I0
sg79
S'Vyenzhol'
p199
sg81
I7
sg82
I0
sg83
I14
sg84
I152
sg61
g62
sg92
(dp200
g160
I11
sg161
I13
sg162
I6
sg163
I9
sg164
I3
sg165
I11
sg166
I4
sg167
I11
sg168
I14
sg169
I10
sg170
I9
sg171
I10
sg172
I2
sg173
I10
sg174
I6
ssg109
I0
sg110
I0
sg111
I0
sg112
I0
sg113
F11.205882352941176
sg114
I0
sg115
I0
sg116
I0
sg117
(dp201
g160
I11
sg161
I12
sg162
I6
sg163
I9
sg164
I3
sg165
I11
sg166
I4
sg167
I11
sg168
I14
sg169
I10
sg170
I9
sg171
I9
sg172
I2
sg173
I10
sg174
I6
ssg119
(dp202
g160
I11
sg161
I13
sg162
I6
sg163
I9
sg168
I14
sg165
I11
sg166
I4
sg167
I11
sg164
I3
sg169
I10
sg170
I9
sg171
I10
sg172
I2
sg173
I10
sg174
I6
ssg121
I0
sg54
g31
sg122
I0
sg123
I0
sg124
I0
sg125
I15
sg126
I6
sg127
I0
sg128
S'CHS'
p203
sbsS'B4'
p204
(ijoueur
joueur
p205
(dp206
g27
F11.727272727272727
sg28
I0
sg29
I24
sg32
I0
sg34
g35
(g36
g37
Ntp207
Rp208
(dp209
g41
I5
sg42
S'**'
p210
sg44
S'seigneur'
p211
sbsg46
(dp212
g139
I0
sg140
I0
sg141
I0
sg142
I0
ssg52
(dp213
g139
I0
sg140
I0
sg141
I0
sg142
I0
ssg144
I0
sg56
I0
sg57
I00
sg58
I0
sg59
I0
sg60
I0
sg85
(g145
S'DO'
p214
S'CE'
p215
S'AR'
p216
tp217
sg63
I00
sg64
g35
(g36
g37
Ntp218
Rp219
(dp220
g41
I5
sg42
S'**'
p221
sg44
g211
sbsg65
(dp222
g67
I0
sg68
I0
sg69
I0
sg70
I0
ssg71
(dp223
g67
I0
sg68
I0
sg69
I0
sg70
I0
ssg73
(dp224
g67
I0
sg68
I0
sg69
I0
sg70
I0
ssg75
(dp225
g139
I0
sg140
I6
sg141
I0
sg142
I14
ssg77
I7
sg78
I0
sg79
S'Rotovlav'
p226
sg81
I1
sg82
I0
sg83
I18
sg84
I477
sg61
g62
sg92
(dp227
g160
I12
sg161
I6
sg162
I10
sg163
I12
sg164
I12
sg165
I7
sg166
I14
sg167
I10
sg168
I7
sg169
I11
sg170
I12
sg171
I8
sg172
I9
sg173
I13
sg174
I6
ssg109
I0
sg110
I0
sg111
I0
sg112
I0
sg113
F11.969696969696969
sg114
I0
sg115
I0
sg116
I0
sg117
(dp228
g160
I12
sg161
I6
sg162
I10
sg163
I11
sg164
I12
sg165
I7
sg166
I14
sg167
I10
sg168
I7
sg169
I11
sg170
I12
sg171
I8
sg172
I8
sg173
I12
sg174
I6
ssg119
(dp229
g160
I12
sg161
I6
sg162
I10
sg163
I12
sg168
I7
sg165
I7
sg166
I14
sg167
I10
sg164
I12
sg169
I11
sg170
I12
sg171
I8
sg172
I9
sg173
I13
sg174
I6
ssg121
I0
sg54
S'KH 11'
p230
sg122
I0
sg123
I0
sg124
I0
sg125
I42
sg126
I4
sg127
I0
sg128
S'CV'
p231
sbsS'RJC'
p232
g205
sS'B1'
p233
(ijoueur
joueur
p234
(dp235
g27
F10.866666666666667
sg28
I0
sg29
I0
sg32
I0
sg34
g35
(g36
g37
Ntp236
Rp237
(dp238
g41
I5
sg42
S'**'
p239
sg44
S'seigneur'
p240
sbsg46
(dp241
S'SR'
p242
I0
sS'ST'
p243
I5
sS'CR'
p244
I0
sS'CT'
p245
I15
ssg52
(dp246
g242
I0
sg243
I0
sg244
I0
sg245
I0
ssg71
(dp247
g67
I0
sg68
I0
sg69
I0
sg70
I0
ssg144
I0
sg56
I0
sS'transformations'
p248
I0
sS'penalites'
p249
I0
sg58
I0
sg59
I0
sg60
I0
sg85
(S'dummy'
p250
S'C1'
p251
S'AR'
p252
S'AI'
p253
tp254
sg63
I00
sg64
g35
(g36
g37
Ntp255
Rp256
(dp257
g41
I5
sg42
S'**'
p258
sg44
g240
sbsg65
(dp259
g67
I0
sg68
I0
sg69
I0
sg70
I0
ssg57
I00
sg73
(dp260
g67
I0
sg68
I0
sg69
I0
sg70
I0
ssg75
(dp261
g242
I0
sg243
I0
sg244
I0
sg245
I0
ssg77
I0
sg78
I0
sg79
S'Matafierd'
p262
sg81
I8
sg82
I0
sg83
I20
sg84
I247
sg61
g62
sg92
(dp263
S'A'
p264
I14
sS'ME'
p265
I7
sS'RP2'
p266
I11
sS'E'
p267
I11
sS'P'
p268
I10
sS'RP1'
p269
I10
sS'JP'
p270
I7
sS'RP_tot'
p271
I14
sS'TO'
p272
I6
sS'PA'
p273
I9
sS'M'
p274
I10
sS'R'
p275
I8
sS'TB'
p276
I10
sS'PL'
p277
I14
sS'TA'
p278
I4
ssg109
I0
sg110
I0
sg111
I0
sg112
I0
sg113
F11.4
sg114
I0
sS'drops'
p279
I0
sg115
I0
sg116
I0
sg117
(dp280
g264
I13
sg265
I7
sg266
I10
sg267
I11
sg268
I9
sg269
I9
sg270
I6
sg271
I12
sg272
I6
sg273
I9
sg274
I10
sg275
I8
sg276
I9
sg277
I14
sg278
I4
ssg119
(dp281
g264
I14
sg265
I7
sg266
I11
sg267
I11
sg272
I6
sg269
I10
sg270
I7
sg271
I14
sg268
I10
sg273
I9
sg274
I10
sg275
I8
sg276
I10
sg277
I14
sg278
I4
ssg121
I0
sg54
S'MSL 12'
p282
sg122
I0
sg123
I0
sg124
I0
sg125
I35
sg126
I10
sg127
I0
sg128
S'B'
p283
sbsS'B2'
p284
g234
sS'B3'
p285
g234
sS'SA_pcp2'
p286
(ijoueur
joueur
p287
(dp288
g27
F10.382352941176471
sg28
I0
sg29
I0
sg32
I0
sg34
g35
(g36
g37
Ntp289
Rp290
(dp291
g41
I5
sg42
S'**'
p292
sg44
g211
sbsg46
(dp293
g139
I0
sg140
I0
sg141
I0
sg142
I0
ssg52
(dp294
g139
I0
sg140
I0
sg141
I0
sg142
I0
ssg144
I0
sg56
I0
sg57
I00
sg58
I0
sg59
I0
sg60
I0
sg85
(g145
S'DL'
p295
g31
g31
tp296
sg63
I00
sg64
g35
(g36
g37
Ntp297
Rp298
(dp299
g41
I5
sg42
S'**'
p300
sg44
g211
sbsg65
(dp301
g67
I0
sg68
I0
sg69
I0
sg70
I0
ssg71
(dp302
g67
I0
sg68
I0
sg69
I0
sg70
I0
ssg73
(dp303
g67
I0
sg68
I0
sg69
I0
sg70
I0
ssg75
(dp304
g139
I0
sg140
I0
sg141
I13
sg142
I2
ssg77
I0
sg78
I0
sg79
S'Dopregd'
p305
sg81
I6
sg82
I0
sg83
I18
sg84
I153
sg61
g62
sg92
(dp306
g160
I11
sg161
I7
sg162
I8
sg163
I12
sg164
I4
sg165
I10
sg166
I5
sg167
I11
sg168
I14
sg169
I10
sg170
I5
sg171
I8
sg172
I5
sg173
I10
sg174
I4
ssg109
I0
sg110
I0
sg111
I0
sg112
I0
sg113
F10.323529411764707
sg114
I0
sg115
I0
sg116
I0
sg117
(dp307
g160
I11
sg161
I7
sg162
I8
sg163
I12
sg164
I4
sg165
I10
sg166
I5
sg167
I11
sg168
I14
sg169
I10
sg170
I7
sg171
I8
sg172
I5
sg173
I10
sg174
I4
ssg119
(dp308
g160
I11
sg161
I7
sg162
I8
sg163
I12
sg168
I14
sg165
I10
sg166
I5
sg167
I11
sg164
I4
sg169
I10
sg170
I5
sg171
I8
sg172
I5
sg173
I10
sg174
I4
ssg121
I0
sg54
S'MSL 9'
p309
sg122
I0
sg123
I0
sg124
I0
sg125
I12
sg126
I1
sg127
I0
sg128
S'HB'
p310
sbsS'drop2'
p311
(ijoueur
joueur
p312
(dp313
g27
F11.9
sg28
I0
sg29
I11
sg32
I0
sg34
g35
(g36
g37
Ntp314
Rp315
(dp316
g41
I4
sg42
g185
sg44
g186
sbsg46
(dp317
g139
I3
sg140
I1
sg141
I0
sg142
I0
ssg52
(dp318
g139
I2
sg140
I2
sg141
I0
sg142
I0
ssg144
I0
sg56
I0
sg57
I00
sg58
I0
sg59
I0
sg60
I0
sg85
(g145
S'C1'
p319
S'AR'
p320
S'AI'
p321
tp322
sg63
I00
sg64
g35
(g36
g37
Ntp323
Rp324
(dp325
g41
I4
sg42
g185
sg44
g186
sbsg65
(dp326
g67
I0
sg68
I0
sg69
I0
sg70
I0
ssg71
(dp327
g67
I0
sg68
I0
sg69
I0
sg70
I0
ssg73
(dp328
g67
I0
sg68
I0
sg69
I0
sg70
I0
ssg75
(dp329
g139
I1
sg140
I0
sg141
I0
sg142
I14
ssg77
I0
sg78
I0
sg79
S'Soled'
p330
sg81
I5
sg82
I0
sg83
I18
sg84
I133
sg61
g62
sg92
(dp331
g160
I14
sg161
I6
sg162
I11
sg163
I12
sg164
I9
sg165
I11
sg166
I11
sg167
I15
sg168
I9
sg169
I14
sg170
I10
sg171
I7
sg172
I8
sg173
I12
sg174
I5
ssg109
I0
sg110
I0
sg111
I0
sg112
I0
sg113
F12.133333333333333
sg114
I0
sg115
I0
sg116
I0
sg117
(dp332
g160
I14
sg161
I6
sg162
I11
sg163
I12
sg164
I8
sg165
I11
sg166
I11
sg167
I15
sg168
I9
sg169
I14
sg170
I10
sg171
I7
sg172
I8
sg173
I11
sg174
I5
ssg119
(dp333
g160
I14
sg161
I6
sg162
I11
sg163
I12
sg168
I9
sg165
I11
sg166
I11
sg167
I15
sg164
I9
sg169
I14
sg170
I10
sg171
I7
sg172
I8
sg173
I12
sg174
I5
ssg121
I0
sg54
g31
sg122
I0
sg123
I0
sg124
I0
sg125
I49
sg126
I10
sg127
I0
sg128
S'ES'
p334
sbsS'RJL'
p335
g205
sS'SA_remp1'
p336
(ijoueur
joueur
p337
(dp338
g27
F11.736842105263158
sg28
I0
sg29
I0
sg32
I0
sg34
g35
(g36
g37
Ntp339
Rp340
(dp341
g41
I2
sg42
S'^^'
p342
sg44
S'special'
p343
sbsg46
(dp344
g139
I0
sg140
I7
sg141
I0
sg142
I0
ssg52
(dp345
g139
I0
sg140
I0
sg141
I0
sg142
I0
ssg144
I0
sg56
I0
sg57
I00
sg58
I0
sg59
I0
sg60
I0
sg85
(g145
S'TL'
p346
S'DL'
p347
g31
tp348
sg63
I00
sg64
g35
(g36
g37
Ntp349
Rp350
(dp351
g41
I2
sg42
S'^^'
p352
sg44
g343
sbsg65
(dp353
g67
I0
sg68
I0
sg69
I0
sg70
I0
ssg71
(dp354
g67
I0
sg68
I0
sg69
I0
sg70
I0
ssg73
(dp355
g67
I0
sg68
I0
sg69
I0
sg70
I0
ssg75
(dp356
g139
I1
sg140
I1
sg141
I0
sg142
I12
ssg77
I0
sg78
I0
sg79
S'Filodil'
p357
sg81
I3
sg82
I0
sg83
I13
sg84
I100
sg61
g62
sg92
(dp358
g160
I6
sg161
I9
sg162
I7
sg163
I11
sg164
I7
sg165
I6
sg166
I3
sg167
I7
sg168
I13
sg169
I9
sg170
I9
sg171
I13
sg172
I5
sg173
I14
sg174
I3
ssg109
I0
sg110
I0
sg111
I0
sg112
I0
sg113
F11.236842105263158
sg114
I0
sg115
I0
sg116
I0
sg117
(dp359
g160
I7
sg161
I9
sg162
I7
sg163
I11
sg164
I7
sg165
I6
sg166
I3
sg167
I7
sg168
I14
sg169
I9
sg170
I9
sg171
I14
sg172
I5
sg173
I14
sg174
I3
ssg119
(dp360
g160
I6
sg161
I9
sg162
I7
sg163
I11
sg168
I13
sg165
I6
sg166
I3
sg167
I7
sg164
I7
sg169
I9
sg170
I9
sg171
I13
sg172
I5
sg173
I14
sg174
I3
ssg121
I0
sg54
S'DKF 11'
p361
sg122
I0
sg123
I0
sg124
I0
sg125
I10
sg126
I0
sg127
I0
sg128
S'ES'
p362
sbsS'drop1'
p363
(ijoueur
joueur
p364
(dp365
g27
F10.303030303030303
sg28
I0
sg29
I5
sg32
I0
sg34
g35
(g36
g37
Ntp366
Rp367
(dp368
g41
I2
sg42
S'^^'
p369
sg44
g343
sbsg46
(dp370
g139
I0
sg140
I0
sg141
I0
sg142
I2
ssg52
(dp371
g139
I0
sg140
I0
sg141
I0
sg142
I0
ssg144
I0
sg56
I0
sg57
I01
sg58
I0
sg59
I0
sg60
I0
sg85
(g145
S'AR'
p372
S'AI'
p373
S'CE'
p374
tp375
sg63
I00
sg64
g35
(g36
g37
Ntp376
Rp377
(dp378
g41
I2
sg42
S'^^'
p379
sg44
g343
sbsg65
(dp380
g67
I0
sg68
I0
sg69
I0
sg70
I0
ssg71
(dp381
g67
I0
sg68
I0
sg69
I0
sg70
I0
ssg73
(dp382
g67
I0
sg68
I0
sg69
I0
sg70
I0
ssg75
(dp383
g139
I0
sg140
I0
sg141
I0
sg142
I12
ssg77
I36
sg78
I0
sg79
S'Wydoeth'
p384
sg81
I5
sg82
I22
sg83
I16
sg84
I62
sg61
g62
sg92
(dp385
g160
I10
sg161
I5
sg162
I11
sg163
I10
sg164
I10
sg165
I6
sg166
I12
sg167
I11
sg168
I4
sg169
I10
sg170
I11
sg171
I6
sg172
I9
sg173
I9
sg174
I3
ssg109
I0
sg110
I0
sg111
I0
sg112
I0
sg113
F10.090909090909092
sg114
I4
sg115
I0
sg116
I1
sg117
(dp386
g160
I10
sg161
I5
sg162
I11
sg163
I10
sg164
I10
sg165
I6
sg166
I12
sg167
I11
sg168
I4
sg169
I10
sg170
I11
sg171
I7
sg172
I10
sg173
I10
sg174
I3
ssg119
(dp387
g160
I10
sg161
I5
sg162
I11
sg163
I10
sg168
I4
sg165
I6
sg166
I12
sg167
I11
sg164
I10
sg169
I10
sg170
I11
sg171
I6
sg172
I9
sg173
I9
sg174
I3
ssg121
I0
sg54
g31
sg122
I1
sg123
I0
sg124
I0
sg125
I4
sg126
I3
sg127
I0
sg128
S'EN'
p388
sbsS'SA_remp2'
p389
(ijoueur
joueur
p390
(dp391
g27
F10.823529411764707
sg28
I0
sg29
I0
sg32
I0
sg34
g35
(g36
g37
Ntp392
Rp393
(dp394
g41
I5
sg42
S'**'
p395
sg44
g211
sbsg46
(dp396
g139
I0
sg140
I0
sg141
I0
sg142
I0
ssg52
(dp397
g139
I0
sg140
I0
sg141
I0
sg142
I0
ssg144
I0
sg56
I0
sg57
I00
sg58
I0
sg59
I0
sg60
I0
sg85
(g145
S'PI'
p398
S'N8'
p399
S'DL'
p400
tp401
sg63
I00
sg64
g35
(g36
g37
Ntp402
Rp403
(dp404
g41
I5
sg42
S'**'
p405
sg44
g211
sbsg65
(dp406
g67
I0
sg68
I0
sg69
I0
sg70
I0
ssg71
(dp407
g67
I0
sg68
I0
sg69
I0
sg70
I0
ssg73
(dp408
g67
I0
sg68
I0
sg69
I0
sg70
I0
ssg75
(dp409
g139
I0
sg140
I4
sg141
I0
sg142
I13
ssg77
I0
sg78
I0
sg79
S'Dylzohed'
p410
sg81
I6
sg82
I0
sg83
I16
sg84
I210
sg61
g62
sg92
(dp411
g160
I9
sg161
I11
sg162
I7
sg163
I11
sg164
I4
sg165
I11
sg166
I2
sg167
I11
sg168
I12
sg169
I12
sg170
I8
sg171
I10
sg172
I4
sg173
I11
sg174
I8
ssg109
I0
sg110
I0
sg111
I0
sg112
I0
sg113
F10.852941176470589
sg114
I0
sg115
I0
sg116
I0
sg117
(dp412
g160
I9
sg161
I11
sg162
I7
sg163
I11
sg164
I4
sg165
I11
sg166
I2
sg167
I11
sg168
I12
sg169
I12
sg170
I7
sg171
I10
sg172
I4
sg173
I11
sg174
I8
ssg119
(dp413
g160
I9
sg161
I11
sg162
I7
sg163
I11
sg168
I12
sg165
I11
sg166
I2
sg167
I11
sg164
I4
sg169
I12
sg170
I8
sg171
I10
sg172
I4
sg173
I11
sg174
I8
ssg121
I0
sg54
g31
sg122
I0
sg123
I0
sg124
I0
sg125
I21
sg126
I12
sg127
I0
sg128
S'CHS'
p414
sbssS'totaux'
p415
(dp416
g19
I0
sg20
I0
sg21
I0
ssS'_compo_defaut_fatigue'
p417
Nsg92
(dp418
g4
I0
sg5
I0
sg6
I0
sg7
I0
sg8
I0
sg9
I0
sg10
I0
sg11
I0
sg12
I0
sg13
I0
sg14
I0
sg15
I0
sg16
I0
ssS'joueurs'
p419
(dp420
S'n12'
p421
g312
sS'n13'
p422
g234
sS'n10'
p423
g205
sS'n11'
p424
(ijoueur
joueur
p425
(dp426
g27
F10.242424242424242
sg28
I0
sg29
I0
sg32
I0
sg34
g35
(g36
g37
Ntp427
Rp428
(dp429
g41
I3
sg42
S'^^^'
p430
sg44
S'rare'
p431
sbsg46
(dp432
g139
I0
sg140
I0
sg141
I0
sg142
I0
ssg52
(dp433
g139
I0
sg140
I5
sg141
I0
sg142
I13
ssg144
I0
sg56
I0
sg57
I00
sg58
I0
sg59
I0
sg60
I0
sg85
(g145
S'AR'
p434
S'AI'
p435
S'CE'
p436
tp437
sg63
I00
sg64
g35
(g36
g37
Ntp438
Rp439
(dp440
g41
I3
sg42
S'^^^'
p441
sg44
g431
sbsg65
(dp442
g67
I0
sg68
I0
sg69
I0
sg70
I0
ssg71
(dp443
g67
I0
sg68
I0
sg69
I0
sg70
I0
ssg73
(dp444
g67
I0
sg68
I0
sg69
I0
sg70
I0
ssg75
(dp445
g139
I0
sg140
I0
sg141
I0
sg142
I0
ssg77
I0
sg78
I0
sg79
S'De Portel'
p446
sg81
I2
sg82
I0
sg83
I15
sg84
I100
sg61
g62
sg92
(dp447
g160
I11
sg161
I5
sg162
I10
sg163
I10
sg164
I10
sg165
I8
sg166
I7
sg167
I11
sg168
I3
sg169
I11
sg170
I10
sg171
I8
sg172
I6
sg173
I9
sg174
I4
ssg109
I0
sg110
I0
sg111
I0
sg112
I0
sg113
F10.0
sg114
I0
sg115
I0
sg116
I0
sg117
(dp448
g160
I11
sg161
I5
sg162
I11
sg163
I10
sg164
I10
sg165
I8
sg166
I7
sg167
I12
sg168
I3
sg169
I12
sg170
I10
sg171
I8
sg172
I6
sg173
I9
sg174
I4
ssg119
(dp449
g160
I11
sg161
I5
sg162
I10
sg163
I10
sg168
I3
sg165
I8
sg166
I7
sg167
I11
sg164
I10
sg169
I11
sg170
I10
sg171
I8
sg172
I6
sg173
I9
sg174
I4
ssg121
I0
sg54
S'MSL 11'
p450
sg122
I0
sg123
I0
sg124
I0
sg125
I10
sg126
I4
sg127
I0
sg128
S'B'
p451
sbsS'n16'
p452
(ijoueur
joueur
p453
(dp454
g27
F9.344827586206897
sg28
I0
sg29
I0
sg32
I0
sg34
g35
(g36
g37
Ntp455
Rp456
(dp457
g41
I4
sg42
S'*'
p458
sg44
S'heros'
p459
sbsg46
(dp460
S'SR'
p461
I0
sS'CT'
p462
I0
sS'CR'
p463
I0
sS'ST'
p464
I0
ssg52
(dp465
g461
I0
sg462
I0
sg463
I0
sg464
I0
ssg144
I0
sg56
I0
sg57
I00
sg58
I0
sg59
I0
sg60
I0
sg85
(S'dummy'
p466
S'TA'
p467
g31
g31
tp468
sg63
I00
sg64
g35
(g36
g37
Ntp469
Rp470
(dp471
g41
I4
sg42
g458
sg44
g459
sbsg65
(dp472
g67
I0
sg68
I0
sg69
I0
sg70
I0
ssg71
(dp473
g67
I0
sg68
I0
sg69
I0
sg70
I0
ssg73
(dp474
g67
I0
sg68
I0
sg69
I0
sg70
I0
ssg75
(dp475
g461
I0
sg462
I3
sg463
I12
sg464
I0
ssg77
I0
sg78
I0
sg79
S'Dafeor'
p476
sg81
I9
sg82
I0
sg83
I19
sg84
I119
sg61
g62
sg92
(dp477
S'A'
p478
I14
sS'ME'
p479
I9
sS'RP2'
p480
I9
sS'E'
p481
I11
sS'TO'
p482
I10
sS'RP1'
p483
I8
sS'JP'
p484
I5
sS'RP_tot'
p485
I10
sS'P'
p486
I4
sS'PA'
p487
I11
sS'M'
p488
I7
sS'R'
p489
I6
sS'TB'
p490
I5
sS'PL'
p491
I9
sS'TA'
p492
I9
ssg109
I0
sg110
I0
sg111
I0
sg112
I0
sg113
F9.137931034482758
sg114
I0
sg115
I0
sg116
I1
sg117
(dp493
g478
I14
sg479
I9
sg480
I9
sg481
I11
sg482
I10
sg483
I8
sg484
I5
sg485
I10
sg486
I4
sg487
I11
sg488
I7
sg489
I7
sg490
I5
sg491
I9
sg492
I9
ssg119
(dp494
g478
I14
sg479
I9
sg480
I9
sg481
I11
sg486
I4
sg483
I8
sg484
I5
sg485
I10
sg482
I10
sg487
I11
sg488
I7
sg489
I6
sg490
I5
sg491
I9
sg492
I9
ssg121
I0
sg54
S'SN 12'
p495
sg122
I0
sg123
I0
sg124
I0
sg125
I6
sg126
I2
sg127
I0
sg128
S'EN'
p496
sbsS'n17'
p497
(ijoueur
joueur
p498
(dp499
g27
F9.911764705882353
sg28
I0
sg29
I0
sg32
I0
sg34
g35
(g36
g37
Ntp500
Rp501
(dp502
g41
I5
sg42
S'**'
p503
sg44
g211
sbsg46
(dp504
g139
I0
sg140
I0
sg141
I0
sg142
I0
ssg52
(dp505
g139
I0
sg140
I0
sg141
I0
sg142
I0
ssg144
I0
sg56
I0
sg57
I00
sg58
I0
sg59
I0
sg60
I0
sg85
(g145
S'PI'
p506
g31
g31
tp507
sg63
I00
sg64
g501
sg65
(dp508
g67
I0
sg68
I0
sg69
I0
sg70
I0
ssg71
(dp509
g67
I0
sg68
I0
sg69
I0
sg70
I0
ssg73
(dp510
g67
I0
sg68
I0
sg69
I0
sg70
I0
ssg75
(dp511
g139
I0
sg140
I0
sg141
I11
sg142
I3
ssg77
I0
sg78
I0
sg79
S'Nravyx'
p512
sg81
I9
sg82
I0
sg83
I25
sg84
I224
sg61
g62
sg92
(dp513
g160
I12
sg161
I10
sg162
I9
sg163
I8
sg164
I4
sg165
I13
sg166
I3
sg167
I15
sg168
I10
sg169
I11
sg170
I8
sg171
I8
sg172
I3
sg173
I10
sg174
I8
ssg109
I0
sg110
I0
sg111
I0
sg112
I0
sg113
F10.11111111111111
sg114
I0
sg115
I0
sg116
I0
sg117
(dp514
g160
I11
sg161
I10
sg162
I9
sg163
I8
sg164
I4
sg165
I12
sg166
I3
sg167
I14
sg168
I10
sg169
I11
sg170
I8
sg171
I8
sg172
I3
sg173
I10
sg174
I8
ssg119
(dp515
g160
I12
sg161
I10
sg162
I9
sg163
I8
sg168
I10
sg165
I13
sg166
I3
sg167
I15
sg164
I4
sg169
I11
sg170
I8
sg171
I8
sg172
I3
sg173
I10
sg174
I8
ssg121
I0
sg54
g31
sg122
I0
sg123
I0
sg124
I0
sg125
I23
sg126
I1
sg127
I0
sg128
S'CHS'
p516
sbsS'n14'
p517
(ijoueur
joueur
p518
(dp519
g27
F11.709677419354838
sg28
I0
sg29
I0
sg32
I0
sg34
g35
(g36
g37
Ntp520
Rp521
(dp522
g41
I5
sg42
S'**'
p523
sg44
g211
sbsg46
(dp524
g139
I0
sg140
I0
sg141
I0
sg142
I0
ssg52
(dp525
g139
I0
sg140
I0
sg141
I0
sg142
I0
ssg144
I0
sg56
I0
sg57
I01
sg58
I0
sg59
I0
sg60
I0
sg85
(g145
S'AI'
p526
g31
g31
tp527
sg63
I00
sg64
g35
(g36
g37
Ntp528
Rp529
(dp530
g41
I5
sg42
S'**'
p531
sg44
g211
sbsg65
(dp532
g67
I0
sg68
I0
sg69
I0
sg70
I0
ssg71
(dp533
g67
I0
sg68
I0
sg69
I0
sg70
I0
ssg73
(dp534
g67
I0
sg68
I0
sg69
I0
sg70
I0
ssg75
(dp535
g139
I0
sg140
I5
sg141
I0
sg142
I13
ssg77
I0
sg78
I0
sg79
S'Lamene'
p536
sg81
I5
sg82
I0
sg83
I16
sg84
I165
sg61
g62
sg92
(dp537
g160
I9
sg161
I7
sg162
I14
sg163
I11
sg164
I7
sg165
I11
sg166
I7
sg167
I18
sg168
I7
sg169
I11
sg170
I11
sg171
I10
sg172
I6
sg173
I13
sg174
I4
ssg109
I0
sg110
I0
sg111
I0
sg112
I0
sg113
F11.935483870967742
sg114
I0
sg115
I0
sg116
I0
sg117
(dp538
g160
I9
sg161
I7
sg162
I14
sg163
I11
sg164
I7
sg165
I10
sg166
I6
sg167
I17
sg168
I7
sg169
I11
sg170
I11
sg171
I10
sg172
I6
sg173
I13
sg174
I4
ssg119
(dp539
g160
I9
sg161
I7
sg162
I14
sg163
I11
sg168
I7
sg165
I11
sg166
I7
sg167
I18
sg164
I7
sg169
I11
sg170
I11
sg171
I10
sg172
I6
sg173
I13
sg174
I4
ssg121
I0
sg54
g31
sg122
I0
sg123
I0
sg124
I0
sg125
I19
sg126
I36
sg127
I0
sg128
g451
sbsS'n15'
p540
g364
sS'n18'
p541
(ijoueur
joueur
p542
(dp543
g28
I0
sg29
I0
sg30
g31
sg32
I0
sg33
g31
sg34
g35
(g36
g37
Ntp544
Rp545
(dp546
g41
I5
sg42
S'**'
p547
sg44
S'seigneur'
p548
sbsg46
(dp549
S'SR'
p550
I0
sS'CT'
p551
I0
sS'CR'
p552
I0
sS'ST'
p553
I0
ssg52
(dp554
g550
I0
sg551
I0
sg552
I0
sg553
I0
ssg54
g31
sg56
I0
sg58
I0
sg59
I0
sg60
I0
sg61
g62
sg64
g35
(g36
g37
Ntp555
Rp556
(dp557
g41
I1
sg42
S'^'
p558
sg44
S'base'
p559
sbsg65
(dp560
g550
I0
sg551
I0
sg552
I0
sg553
I0
ssg71
(dp561
g550
I0
sg551
I0
sg552
I0
sg553
I0
ssg73
(dp562
g550
I0
sg551
I0
sg552
I0
sg553
I0
ssg75
(dp563
g550
I0
sg551
I0
sg552
I0
sg553
I0
ssg77
I0
sg78
I0
sg79
S'Nromaod'
p564
sg81
I12
sg82
I0
sg83
I20
sg84
I25
sg85
(S'dummy'
p565
S'DL'
p566
S'TL'
p567
g31
tp568
sg91
g31
sg92
(dp569
S'RP1'
p570
I7
sS'ME'
p571
I10
sS'RP2'
p572
I8
sS'E'
p573
I10
sS'TO'
p574
I11
sS'M'
p575
I7
sS'JP'
p576
I3
sS'RP_tot'
p577
I8
sS'P'
p578
I5
sS'PA'
p579
I7
sS'A'
p580
I9
sS'R'
p581
I9
sS'TB'
p582
I2
sS'PL'
p583
I10
sS'TA'
p584
I3
ssg109
I0
sg110
I0
sg111
I0
sg112
I0
sg113
F9.529411764705882
sg114
I0
sg115
I0
sg116
I0
sg119
(dp585
g570
I7
sg571
I10
sg572
I8
sg573
I10
sg578
I5
sg576
I3
sg575
I7
sg577
I8
sg574
I11
sg579
I7
sg580
I9
sg581
I9
sg582
I2
sg583
I10
sg584
I3
ssg121
I0
sg122
I0
sg123
I0
sg124
I0
sg125
I2
sg126
I0
sg127
I0
sg128
S'CHS'
p586
sbsS'n19'
p587
(ijoueur
joueur
p588
(dp589
g27
F9.161290322580646
sg28
I0
sg29
I0
sg32
I0
sg34
g35
(g36
g37
Ntp590
Rp591
(dp592
g41
I1
sg42
S'^'
p593
sg44
S'base'
p594
sbsg46
(dp595
g139
I0
sg140
I0
sg141
I0
sg142
I0
ssg52
(dp596
g139
I0
sg140
I0
sg141
I0
sg142
I0
ssg144
I0
sg56
I0
sg57
I01
sg58
I0
sg59
I0
sg60
I0
sg85
(g145
S'TL'
p597
g31
g31
tp598
sg63
I00
sg64
g35
(g36
g37
Ntp599
Rp600
(dp601
g41
I1
sg42
g593
sg44
g594
sbsg65
(dp602
g67
I0
sg68
I0
sg69
I0
sg70
I0
ssg71
(dp603
g67
I0
sg68
I0
sg69
I0
sg70
I0
ssg73
(dp604
g67
I0
sg68
I0
sg69
I0
sg70
I0
ssg75
(dp605
g139
I0
sg140
I0
sg141
I5
sg142
I1
ssg77
I0
sg78
I0
sg79
S'Aytaed'
p606
sg81
I11
sg82
I0
sg83
I19
sg84
I24
sg61
g62
sg92
(dp607
g160
I11
sg161
I9
sg162
I7
sg163
I10
sg164
I5
sg165
I8
sg166
I4
sg167
I8
sg168
I10
sg169
I8
sg170
I9
sg171
I9
sg172
I5
sg173
I9
sg174
I6
ssg109
I0
sg110
I0
sg111
I0
sg112
I0
sg113
F9.31578947368421
sg114
I0
sg115
I0
sg116
I0
sg117
(dp608
g160
I11
sg161
I9
sg162
I6
sg163
I10
sg164
I5
sg165
I8
sg166
I4
sg167
I8
sg168
I9
sg169
I8
sg170
I9
sg171
I9
sg172
I5
sg173
I9
sg174
I6
ssg119
(dp609
g160
I11
sg161
I9
sg162
I7
sg163
I10
sg168
I10
sg165
I8
sg166
I4
sg167
I8
sg164
I5
sg169
I8
sg170
I9
sg171
I9
sg172
I5
sg173
I9
sg174
I6
ssg121
I0
sg54
g31
sg122
I0
sg123
I0
sg124
I0
sg125
I2
sg126
I0
sg127
I0
sg128
S'CHS'
p610
sbsS'n22'
p611
(ijoueur
joueur
p612
(dp613
g27
F9.666666666666666
sg28
I0
sg29
I0
sg32
I0
sg34
g35
(g36
g37
Ntp614
Rp615
(dp616
g41
I2
sg42
S'<<'
p617
sg44
g343
sbsg46
(dp618
g139
I0
sg140
I0
sg141
I0
sg142
I0
ssg52
(dp619
g139
I0
sg140
I0
sg141
I0
sg142
I0
ssg144
I0
sg56
I0
sg57
I00
sg58
I0
sg59
I0
sg60
I0
sg85
(g145
S'AR'
p620
S'CE'
p621
S'DO'
p622
tp623
sg63
I00
sg64
g35
(g36
g37
Ntp624
Rp625
(dp626
g41
I2
sg42
S'<<'
p627
sg44
g343
sbsg65
(dp628
g67
I0
sg68
I0
sg69
I0
sg70
I0
ssg71
(dp629
g67
I0
sg68
I0
sg69
I0
sg70
I0
ssg73
(dp630
g67
I0
sg68
I0
sg69
I0
sg70
I0
ssg75
(dp631
g139
I0
sg140
I0
sg141
I11
sg142
I3
ssg77
I0
sg78
I0
sg79
S'Northend'
p632
sg81
I4
sg82
I0
sg83
I16
sg84
I19
sg61
g62
sg92
(dp633
g160
I11
sg161
I4
sg162
I7
sg163
I7
sg164
I9
sg165
I7
sg166
I9
sg167
I7
sg168
I8
sg169
I7
sg170
I13
sg171
I7
sg172
I8
sg173
I11
sg174
I5
ssg109
I0
sg110
I0
sg111
I0
sg112
I0
sg113
F9.424242424242424
sg114
I0
sg115
I0
sg116
I0
sg117
(dp634
g160
I11
sg161
I4
sg162
I7
sg163
I8
sg164
I9
sg165
I7
sg166
I9
sg167
I7
sg168
I8
sg169
I8
sg170
I13
sg171
I8
sg172
I8
sg173
I11
sg174
I5
ssg119
(dp635
g160
I11
sg161
I4
sg162
I7
sg163
I7
sg168
I8
sg165
I7
sg166
I9
sg167
I7
sg164
I9
sg169
I7
sg170
I13
sg171
I7
sg172
I8
sg173
I11
sg174
I5
ssg121
I0
sg54
g31
sg122
I0
sg123
I0
sg124
I0
sg125
I10
sg126
I4
sg127
I0
sg128
S'EN'
p636
sbsS'n21'
p637
(ijoueur
joueur
p638
(dp639
g27
F9.862068965517242
sg28
I0
sg29
I0
sg32
I0
sg34
g35
(g36
g37
Ntp640
Rp641
(dp642
g41
I2
sg42
S'<<'
p643
sg44
g343
sbsg46
(dp644
g139
I0
sg140
I0
sg141
I1
sg142
I1
ssg52
(dp645
g139
I0
sg140
I0
sg141
I0
sg142
I0
ssg144
I0
sg56
I0
sg57
I01
sg58
I0
sg59
I0
sg60
I0
sg85
(g145
S'C2'
p646
S'AI'
p647
g31
tp648
sg63
I00
sg64
g35
(g36
g37
Ntp649
Rp650
(dp651
g41
I2
sg42
S'<<'
p652
sg44
g343
sbsg65
(dp653
g67
I0
sg68
I0
sg69
I0
sg70
I0
ssg71
(dp654
g67
I0
sg68
I0
sg69
I0
sg70
I0
ssg73
(dp655
g67
I0
sg68
I0
sg69
I0
sg70
I0
ssg75
(dp656
g139
I0
sg140
I0
sg141
I10
sg142
I2
ssg77
I0
sg78
I0
sg79
S'Laror'
p657
sg81
I8
sg82
I0
sg83
I19
sg84
I29
sg61
g62
sg92
(dp658
g160
I8
sg161
I4
sg162
I8
sg163
I9
sg164
I10
sg165
I10
sg166
I9
sg167
I11
sg168
I4
sg169
I12
sg170
I9
sg171
I5
sg172
I6
sg173
I10
sg174
I6
ssg109
I0
sg110
I0
sg111
I0
sg112
I0
sg113
F9.551724137931034
sg114
I0
sg115
I0
sg116
I0
sg117
(dp659
g160
I9
sg161
I4
sg162
I8
sg163
I9
sg164
I10
sg165
I10
sg166
I9
sg167
I11
sg168
I4
sg169
I12
sg170
I9
sg171
I5
sg172
I6
sg173
I11
sg174
I6
ssg119
(dp660
g160
I8
sg161
I4
sg162
I8
sg163
I9
sg168
I4
sg165
I10
sg166
I9
sg167
I11
sg164
I10
sg169
I12
sg170
I9
sg171
I5
sg172
I6
sg173
I10
sg174
I6
ssg121
I0
sg54
g31
sg122
I0
sg123
I0
sg124
I0
sg125
I2
sg126
I0
sg127
I0
sg128
S'CHS'
p661
sbsS'n20'
p662
(ijoueur
joueur
p663
(dp664
g27
F9.517241379310345
sg28
I0
sg29
I0
sg32
I0
sg34
g35
(g36
g37
Ntp665
Rp666
(dp667
g41
I3
sg42
S'^^^'
p668
sg44
S'rare'
p669
sbsg46
(dp670
S'SR'
p671
I0
sS'CT'
p672
I2
sS'CR'
p673
I3
sS'ST'
p674
I0
ssg52
(dp675
g671
I0
sg672
I0
sg673
I0
sg674
I0
ssg144
I0
sg56
I0
sg57
I00
sg58
I0
sg59
I0
sg60
I0
sg85
(S'dummy'
p676
S'DM'
p677
S'DO'
p678
g31
tp679
sg63
I00
sg64
g35
(g36
g37
Ntp680
Rp681
(dp682
g41
I3
sg42
S'^^^'
p683
sg44
g669
sbsg65
(dp684
S'SR'
p685
I0
sS'CT'
p686
I0
sS'CR'
p687
I0
sS'ST'
p688
I0
ssg71
(dp689
g685
I0
sg686
I0
sg687
I0
sg688
I0
ssg73
(dp690
g685
I0
sg686
I0
sg687
I0
sg688
I0
ssg75
(dp691
g671
I0
sg672
I3
sg673
I6
sg674
I0
ssg77
I0
sg78
I0
sg79
S'Paezol'
p692
sg81
I1
sg82
I0
sg83
I13
sg84
I50
sg61
g62
sg92
(dp693
S'A'
p694
I12
sS'ME'
p695
I4
sS'RP2'
p696
I9
sS'E'
p697
I12
sS'TO'
p698
I6
sS'RP1'
p699
I7
sS'JP'
p700
I8
sS'RP_tot'
p701
I9
sS'P'
p702
I9
sS'PA'
p703
I9
sS'M'
p704
I8
sS'R'
p705
I6
sS'TB'
p706
I8
sS'PL'
p707
I11
sS'TA'
p708
I7
ssg109
I0
sg110
I2
sg111
I0
sg112
I0
sg113
F9.620689655172415
sg114
I0
sg115
I0
sg116
I0
sg117
(dp709
g694
I11
sg695
I4
sg696
I9
sg697
I12
sg698
I6
sg699
I7
sg700
I8
sg701
I9
sg702
I9
sg703
I9
sg704
I8
sg705
I6
sg706
I7
sg707
I11
sg708
I7
ssg119
(dp710
g694
I12
sg695
I4
sg696
I9
sg697
I12
sg702
I9
sg699
I7
sg700
I8
sg701
I9
sg698
I6
sg703
I9
sg704
I8
sg705
I6
sg706
I8
sg707
I11
sg708
I7
ssg121
I0
sg54
S'CAT 12'
p711
sg122
I0
sg123
I0
sg124
I0
sg125
I5
sg126
I0
sg127
I0
sg128
S'EN'
p712
sbsS'n8'
p713
(ijoueur
joueur
p714
(dp715
g27
F10.612903225806452
sg28
I0
sg29
I0
sg32
I0
sg34
g35
(g36
g37
Ntp716
Rp717
(dp718
g41
I4
sg42
g185
sg44
g186
sbsg46
(dp719
g139
I0
sg140
I0
sg141
I0
sg142
I10
ssg52
(dp720
g139
I0
sg140
I0
sg141
I0
sg142
I0
ssg144
I0
sg56
I0
sg57
I00
sg58
I0
sg59
I0
sg60
I0
sg85
(g145
S'TL'
p721
S'N8'
p722
g31
tp723
sg63
I00
sg64
g35
(g36
g37
Ntp724
Rp725
(dp726
g41
I4
sg42
g185
sg44
g186
sbsg65
(dp727
g67
I0
sg68
I0
sg69
I0
sg70
I0
ssg71
(dp728
g67
I0
sg68
I0
sg69
I0
sg70
I0
ssg73
(dp729
g67
I0
sg68
I0
sg69
I0
sg70
I0
ssg75
(dp730
g139
I1
sg140
I0
sg141
I0
sg142
I3
ssg77
I0
sg78
I0
sg79
S'Vgadhr'
p731
sg81
I7
sg82
I0
sg83
I20
sg84
I494
sg61
g62
sg92
(dp732
g160
I9
sg161
I10
sg162
I8
sg163
I12
sg164
I6
sg165
I11
sg166
I5
sg167
I12
sg168
I11
sg169
I8
sg170
I10
sg171
I10
sg172
I4
sg173
I13
sg174
I6
ssg109
I0
sg110
I0
sg111
I0
sg112
I0
sg113
F10.947368421052632
sg114
I0
sg115
I0
sg116
I0
sg117
(dp733
g160
I9
sg161
I10
sg162
I7
sg163
I12
sg164
I6
sg165
I11
sg166
I5
sg167
I11
sg168
I10
sg169
I8
sg170
I10
sg171
I10
sg172
I4
sg173
I12
sg174
I6
ssg119
(dp734
g160
I9
sg161
I10
sg162
I8
sg163
I12
sg168
I11
sg165
I11
sg166
I5
sg167
I12
sg164
I6
sg169
I8
sg170
I10
sg171
I10
sg172
I4
sg173
I13
sg174
I6
ssg121
I0
sg54
S'QNL 11'
p735
sg122
I0
sg123
I0
sg124
I0
sg125
I42
sg126
I11
sg127
I0
sg128
S'HB'
p736
sbsS'n9'
p737
g131
sS'n1'
p738
(ijoueur
joueur
p739
(dp740
g27
F11.074074074074074
sg28
I0
sg29
I0
sg32
I0
sg34
g35
(g36
g37
Ntp741
Rp742
(dp743
g41
I4
sg42
g185
sg44
g186
sbsg46
(dp744
g139
I0
sg140
I0
sg141
I0
sg142
I0
ssg52
(dp745
g139
I0
sg140
I0
sg141
I0
sg142
I0
ssg144
I0
sg56
I0
sg57
I00
sg58
I0
sg59
I0
sg60
I0
sg85
(g145
S'PI'
p746
g31
g31
tp747
sg63
I00
sg64
g35
(g36
g37
Ntp748
Rp749
(dp750
g41
I5
sg42
S'**'
p751
sg44
S'seigneur'
p752
sbsg65
(dp753
g67
I0
sg68
I0
sg69
I0
sg70
I0
ssg71
(dp754
g67
I0
sg68
I0
sg69
I0
sg70
I0
ssg73
(dp755
g67
I0
sg68
I0
sg69
I0
sg70
I0
ssg75
(dp756
g139
I0
sg140
I9
sg141
I0
sg142
I13
ssg77
I0
sg78
I0
sg79
S'Stavaer'
p757
sg81
I5
sg82
I1
sg83
I15
sg84
I233
sg61
g62
sg92
(dp758
g160
I12
sg161
I9
sg162
I9
sg163
I12
sg164
I10
sg165
I11
sg166
I8
sg167
I13
sg168
I8
sg169
I11
sg170
I7
sg171
I11
sg172
I11
sg173
I13
sg174
I7
ssg109
I0
sg110
I0
sg111
I0
sg112
I0
sg113
F11.296296296296296
sg114
I0
sg115
I0
sg116
I1
sg117
(dp759
g160
I12
sg161
I9
sg162
I9
sg163
I12
sg164
I9
sg165
I11
sg166
I7
sg167
I13
sg168
I8
sg169
I11
sg170
I7
sg171
I10
sg172
I10
sg173
I13
sg174
I7
ssg119
(dp760
g160
I12
sg161
I9
sg162
I9
sg163
I12
sg168
I8
sg165
I11
sg166
I8
sg167
I13
sg164
I10
sg169
I11
sg170
I7
sg171
I11
sg172
I11
sg173
I13
sg174
I7
ssg121
I0
sg54
S'AL 11'
p761
sg122
I0
sg123
I0
sg124
I0
sg125
I13
sg126
I6
sg127
I0
sg128
S'ES'
p762
sbsS'n2'
p763
(ijoueur
joueur
p764
(dp765
g27
F9.655172413793103
sg28
I0
sg29
I0
sg32
I0
sg34
g35
(g36
g37
Ntp766
Rp767
(dp768
g41
I1
sg42
g593
sg44
g594
sbsg46
(dp769
g139
I0
sg140
I0
sg141
I0
sg142
I0
ssg52
(dp770
g139
I0
sg140
I0
sg141
I0
sg142
I0
ssg144
I0
sg56
I0
sg57
I01
sg58
I0
sg59
I0
sg60
I0
sg85
(g145
S'TA'
p771
g31
g31
tp772
sg63
I00
sg64
g35
(g36
g37
Ntp773
Rp774
(dp775
g41
I1
sg42
g593
sg44
g594
sbsg65
(dp776
g67
I0
sg68
I0
sg69
I0
sg70
I0
ssg71
(dp777
g67
I0
sg68
I0
sg69
I0
sg70
I0
ssg73
(dp778
g67
I0
sg68
I0
sg69
I0
sg70
I0
ssg75
(dp779
g139
I0
sg140
I0
sg141
I10
sg142
I3
ssg77
I0
sg78
I0
sg79
S'Naitheor'
p780
sg81
I11
sg82
I0
sg83
I20
sg84
I29
sg61
g62
sg92
(dp781
g160
I11
sg161
I8
sg162
I9
sg163
I9
sg164
I5
sg165
I8
sg166
I3
sg167
I10
sg168
I7
sg169
I8
sg170
I8
sg171
I8
sg172
I3
sg173
I9
sg174
I13
ssg109
I0
sg110
I0
sg111
I0
sg112
I0
sg113
F9.448275862068966
sg114
I0
sg115
I0
sg116
I0
sg117
(dp782
g160
I11
sg161
I8
sg162
I9
sg163
I9
sg164
I5
sg165
I8
sg166
I3
sg167
I10
sg168
I7
sg169
I8
sg170
I8
sg171
I9
sg172
I3
sg173
I9
sg174
I13
ssg119
(dp783
g160
I11
sg161
I8
sg162
I9
sg163
I9
sg168
I7
sg165
I8
sg166
I3
sg167
I10
sg164
I5
sg169
I8
sg170
I8
sg171
I8
sg172
I3
sg173
I9
sg174
I13
ssg121
I0
sg54
g31
sg122
I0
sg123
I0
sg124
I0
sg125
I3
sg126
I0
sg127
I0
sg128
S'CHS'
p784
sbsS'n3'
p785
g390
sS'n4'
p786
g180
sS'n5'
p787
g287
sS'n6'
p788
g337
sS'n7'
p789
g25
ssS'remplacements'
p790
(dp791
g662
S'n0'
p792
sg452
g792
sg497
g792
sg611
g792
sg541
g792
sg587
g792
sg637
g792
ssb.