(iclub
compo
p0
(dp1
S'caracs_old'
p2
(dp3
S'A'
p4
F105.0
sS'ME'
p5
F92.5
sS'E'
p6
I187
sS'OplusAV'
p7
F57.5
sS'TO_off'
p8
F90.0
sS'OplusAR'
p9
F72.0
sS'M'
p10
F51.5
sS'JP'
p11
F71.5
sS'OmoinsAR'
p12
F40.5
sS'PA'
p13
F78.5
sS'TO_def'
p14
F81.5
sS'OmoinsAV'
p15
F61.0
sS'R'
p16
F174.5
ssS'totaux_old'
p17
(dp18
S'T2'
p19
F127.5
sS'T3'
p20
F93.5
sS'T1'
p21
F176.375
ssS'roles'
p22
(dp23
S'drop1'
p24
(ijoueur
joueur
p25
(dp26
S'rouges_total'
p27
I0
sS'drops_total'
p28
I0
sS'blessure'
p29
I0
sS'RG_max'
p30
(ijoueur
rang
p31
(dp32
S'type_nb'
p33
I5
sS'rang'
p34
S'**'
p35
sS'type'
p36
S'seigneur'
p37
sbsS'MJ2_total'
p38
(dp39
S'SR'
p40
I0
sS'CT'
p41
I0
sS'CR'
p42
I0
sS'ST'
p43
I0
ssS'MJ3_total'
p44
(dp45
g40
I0
sg41
I0
sg42
I0
sg43
I0
ssS'drop_rates_total'
p46
I0
sS'drop_rates_saison'
p47
I0
sS'transformations'
p48
I0
sS'penalites'
p49
I2
sS'essais_saison'
p50
I0
sS'penalite_ratees_saison'
p51
I0
sS'transformations_saison'
p52
I0
sS'postes'
p53
(S'dummy'
p54
S'C1'
p55
S'DO'
p56
S''
p57
tp58
sS'RG'
p59
(ijoueur
rang
p60
(dp61
g33
I5
sg34
S'**'
p62
sg36
g37
sbsS'MJ1'
p63
(dp64
g40
I0
sg41
I0
sg42
I0
sg43
I0
ssS'MJ2'
p65
(dp66
g40
I0
sg41
I0
sg42
I0
sg43
I0
ssS'MJ3'
p67
(dp68
g40
I0
sg41
I0
sg42
I0
sg43
I0
ssS'MJ1_total'
p69
(dp70
g40
I0
sg41
I0
sg42
I0
sg43
I0
ssS'penalites_total'
p71
I2
sS'penalites_saison'
p72
I2
sS'nom'
p73
S'Von Rastak'
p74
sS'C'
p75
I7
sS'transformations_total'
p76
I0
sS'D'
p77
I19
sS'VAL'
p78
I216
sS'club'
p79
S'BSK'
p80
sS'caracs'
p81
(dp82
S'A'
p83
I10
sS'ME'
p84
I5
sS'RP2'
p85
I10
sS'E'
p86
I10
sS'P'
p87
I10
sS'RP1'
p88
I7
sS'JP'
p89
I9
sS'RP_tot'
p90
I10
sS'TO'
p91
I9
sS'PA'
p92
I12
sS'M'
p93
I11
sS'R'
p94
I11
sS'TB'
p95
I9
sS'PL'
p96
I10
sS'TA'
p97
I6
ssS'fatigue'
p98
I3
sS'drop_ratees_total'
p99
I0
sS'blessures_total'
p100
I0
sS'XP'
p101
I0
sS'EV'
p102
F10.366666666666667
sS'penalite_ratees_total'
p103
I1
sS'drops'
p104
I0
sS'blessures_saison'
p105
I0
sS'jaunes_total'
p106
I0
sS'caracs_sans_fatigue'
p107
g82
sS'rouges_saison'
p108
I0
sS'anciens_clubs'
p109
g57
sS'transformation_ratees_total'
p110
I1
sS'drops_saison'
p111
I0
sS'transformation_ratees_saison'
p112
I0
sS'MS'
p113
I40
sS'essais_total'
p114
I0
sS'jaunes_saison'
p115
I0
sS'ARM'
p116
S'CV'
p117
sbsS'SA_scd'
p118
(ijoueur
joueur
p119
(dp120
g27
I0
sg28
I0
sg29
I0
sg30
(ijoueur
rang
p121
(dp122
g33
I4
sg34
S'*'
p123
sg36
S'heros'
p124
sbsg38
(dp125
S'SR'
p126
I0
sS'ST'
p127
I0
sS'CR'
p128
I0
sS'CT'
p129
I0
ssg44
(dp130
g126
I0
sg127
I0
sg128
I0
sg129
I0
ssg46
I0
sg47
I0
sg48
I0
sg49
I0
sg50
I0
sg51
I0
sg52
I0
sg53
(g54
S'PI'
p131
S'DL'
p132
g57
tp133
sg59
(ijoueur
rang
p134
(dp135
g33
I4
sg34
S'*'
p136
sg36
g124
sbsg63
(dp137
g126
I0
sg127
I0
sg128
I0
sg129
I0
ssg65
(dp138
g126
I0
sg127
I0
sg128
I0
sg129
I0
ssg67
(dp139
g126
I0
sg127
I0
sg128
I0
sg129
I0
ssg69
(dp140
g126
I0
sg127
I0
sg128
I0
sg129
I0
ssg71
I0
sg72
I0
sg73
S'Jkebr'
p141
sg75
I4
sg76
I0
sg77
I16
sg78
I78
sg79
g80
sg81
(dp142
S'A'
p143
I7
sS'ME'
p144
I9
sS'RP2'
p145
I9
sS'E'
p146
I12
sS'TO'
p147
I10
sS'RP1'
p148
I11
sS'JP'
p149
I2
sS'RP_tot'
p150
I13
sS'P'
p151
I5
sS'PA'
p152
I7
sS'M'
p153
I7
sS'R'
p154
I11
sS'TB'
p155
I6
sS'PL'
p156
I9
sS'TA'
p157
I8
ssg98
I1
sg99
I0
sg100
I0
sg101
I0
sg102
F10.185185185185185
sg103
I0
sg104
I0
sg105
I0
sg106
I0
sg107
g142
sg108
I0
sg109
g57
sg110
I0
sg111
I0
sg112
I0
sg113
I12
sg114
I0
sg115
I0
sg116
S'O'
p158
sbsS'RJL'
p159
(ijoueur
joueur
p160
(dp161
g27
I0
sg28
I0
sg29
I0
sg30
(ijoueur
rang
p162
(dp163
g33
I2
sg34
S'^^'
p164
sg36
S'special'
p165
sbsg38
(dp166
g126
I0
sg127
I0
sg128
I0
sg129
I0
ssg44
(dp167
g126
I0
sg127
I0
sg128
I0
sg129
I0
ssg46
I0
sg47
I0
sg48
I0
sg49
I0
sg50
I0
sg51
I0
sg52
I0
sg53
(g54
S'DO'
p168
g57
g57
tp169
sg59
(ijoueur
rang
p170
(dp171
g33
I2
sg34
S'^^'
p172
sg36
g165
sbsg63
(dp173
g126
I0
sg127
I0
sg128
I0
sg129
I0
ssg65
(dp174
g126
I0
sg127
I0
sg128
I0
sg129
I0
ssg67
(dp175
g126
I0
sg127
I0
sg128
I0
sg129
I0
ssg69
(dp176
g126
I0
sg127
I0
sg128
I0
sg129
I0
ssg71
I0
sg72
I0
sg73
S'Maxyd'
p177
sg75
I8
sg76
I0
sg77
I20
sg78
I14
sg79
g80
sg81
(dp178
g143
I7
sg144
I4
sg145
I7
sg146
I9
sg147
I4
sg148
I6
sg149
I10
sg150
I7
sg151
I11
sg152
I10
sg153
I8
sg154
I6
sg155
I5
sg156
I7
sg157
I4
ssg98
I6
sg99
I0
sg100
I0
sg101
I0
sg102
F8.818181818181818
sg103
I0
sg104
I0
sg105
I0
sg106
I0
sg107
g178
sg108
I0
sg109
g57
sg110
I0
sg111
I0
sg112
I0
sg113
I2
sg114
I0
sg115
I0
sg116
S'HB'
p179
sbsS'cap'
p180
g119
sS'B4'
p181
g25
sS'RJC'
p182
g160
sS'B1'
p183
g25
sS'B2'
p184
g25
sS'B3'
p185
g25
sS'SA_pcp2'
p186
(ijoueur
joueur
p187
(dp188
g27
I0
sg28
I0
sg29
I0
sg30
(ijoueur
rang
p189
(dp190
g33
I5
sg34
S'**'
p191
sg36
S'seigneur'
p192
sbsg38
(dp193
g126
I0
sg127
I0
sg128
I0
sg129
I0
ssg44
(dp194
g126
I0
sg127
I0
sg128
I0
sg129
I0
ssg46
I0
sg47
I0
sg48
I0
sg49
I0
sg50
I0
sg51
I0
sg52
I0
sg53
(g54
S'TL'
p195
S'DL'
p196
g57
tp197
sg59
(ijoueur
rang
p198
(dp199
g33
I5
sg34
S'**'
p200
sg36
g192
sbsg63
(dp201
g126
I0
sg127
I0
sg128
I0
sg129
I0
ssg65
(dp202
g126
I0
sg127
I0
sg128
I0
sg129
I0
ssg67
(dp203
g126
I0
sg127
I0
sg128
I0
sg129
I0
ssg69
(dp204
g126
I0
sg127
I0
sg128
I0
sg129
I0
ssg71
I0
sg72
I0
sg73
S'Mahetyf'
p205
sg75
I4
sg76
I0
sg77
I16
sg78
I203
sg79
g80
sg81
(dp206
g143
I9
sg144
I10
sg145
I7
sg146
I11
sg147
I10
sg148
I11
sg149
I6
sg150
I11
sg151
I4
sg152
I7
sg153
I8
sg154
I8
sg155
I5
sg156
I14
sg157
I3
ssg98
I3
sg99
I0
sg100
I0
sg101
I0
sg102
F10.129032258064516
sg103
I0
sg104
I0
sg105
I0
sg106
I0
sg107
g206
sg108
I0
sg109
g57
sg110
I0
sg111
I0
sg112
I0
sg113
I18
sg114
I0
sg115
I0
sg116
S'O'
p207
sbsS'SA_pcp1'
p208
(ijoueur
joueur
p209
(dp210
g27
I0
sg28
I0
sg29
I0
sg30
(ijoueur
rang
p211
(dp212
g33
I4
sg34
S'*'
p213
sg36
g124
sbsg38
(dp214
g126
I0
sg127
I0
sg128
I0
sg129
I0
ssg44
(dp215
g126
I0
sg127
I0
sg128
I0
sg129
I0
ssg46
I0
sg47
I0
sg48
I0
sg49
I0
sg50
I0
sg51
I0
sg52
I0
sg53
(g54
S'DL'
p216
g57
g57
tp217
sg59
(ijoueur
rang
p218
(dp219
g33
I4
sg34
S'*'
p220
sg36
g124
sbsg63
(dp221
g126
I0
sg127
I0
sg128
I0
sg129
I0
ssg65
(dp222
g126
I0
sg127
I0
sg128
I0
sg129
I0
ssg67
(dp223
g126
I0
sg127
I0
sg128
I0
sg129
I0
ssg69
(dp224
g126
I0
sg127
I0
sg128
I0
sg129
I0
ssg71
I0
sg72
I0
sg73
S'Uprek'
p225
sg75
I9
sg76
I0
sg77
I20
sg78
I78
sg79
g80
sg81
(dp226
g143
I8
sg144
I10
sg145
I6
sg146
I8
sg147
I11
sg148
I10
sg149
I4
sg150
I10
sg151
I6
sg152
I7
sg153
I7
sg154
I10
sg155
I4
sg156
I8
sg157
I6
ssg98
I3
sg99
I0
sg100
I0
sg101
I0
sg102
F9.441176470588236
sg103
I0
sg104
I0
sg105
I0
sg106
I0
sg107
g226
sg108
I0
sg109
g57
sg110
I0
sg111
I0
sg112
I0
sg113
I14
sg114
I0
sg115
I0
sg116
S'O'
p227
sbsS'drop3'
p228
g25
sS'SA_remp1'
p229
(ijoueur
joueur
p230
(dp231
g27
I0
sg28
I0
sg29
I0
sg30
(ijoueur
rang
p232
(dp233
g33
I4
sg34
S'x'
p234
sg36
g124
sbsg38
(dp235
g126
I0
sg127
I0
sg128
I0
sg129
I0
ssg44
(dp236
g126
I0
sg127
I0
sg128
I0
sg129
I0
ssg46
I0
sg47
I0
sg48
I0
sg49
I0
sg50
I0
sg51
I0
sg52
I0
sg53
(g54
S'DL'
p237
g57
g57
tp238
sg59
(ijoueur
rang
p239
(dp240
g33
I2
sg34
S'^^'
p241
sg36
g165
sbsg63
(dp242
g126
I0
sg127
I0
sg128
I0
sg129
I0
ssg65
(dp243
g126
I0
sg127
I0
sg128
I0
sg129
I0
ssg67
(dp244
g126
I0
sg127
I0
sg128
I0
sg129
I0
ssg69
(dp245
g126
I0
sg127
I0
sg128
I0
sg129
I0
ssg71
I0
sg72
I0
sg73
S'Cusqey'
p246
sg75
I11
sg76
I0
sg77
I22
sg78
I23
sg79
g80
sg81
(dp247
g143
I7
sg144
I9
sg145
I8
sg146
I9
sg147
I11
sg148
I7
sg149
I4
sg150
I8
sg151
I5
sg152
I6
sg153
I7
sg154
I8
sg155
I2
sg156
I8
sg157
I3
ssg98
I2
sg99
I0
sg100
I0
sg101
I0
sg102
F8.705882352941176
sg103
I0
sg104
I0
sg105
I0
sg106
I0
sg107
g247
sg108
I0
sg109
g57
sg110
I0
sg111
I0
sg112
I0
sg113
I2
sg114
I0
sg115
I0
sg116
S'O'
p248
sbsS'drop2'
p249
g160
sS'SA_remp2'
p250
(ijoueur
joueur
p251
(dp252
g27
I0
sg28
I0
sg29
I0
sg30
(ijoueur
rang
p253
(dp254
g33
I4
sg34
S'*'
p255
sg36
g124
sbsg38
(dp256
g126
I0
sg127
I0
sg128
I0
sg129
I0
ssg44
(dp257
g126
I0
sg127
I0
sg128
I0
sg129
I0
ssg46
I0
sg47
I0
sg48
I0
sg49
I0
sg50
I0
sg51
I0
sg52
I0
sg53
(g54
S'N8'
p258
S'TL'
p259
g57
tp260
sg59
(ijoueur
rang
p261
(dp262
g33
I4
sg34
S'*'
p263
sg36
g124
sbsg63
(dp264
g126
I0
sg127
I0
sg128
I0
sg129
I0
ssg65
(dp265
g126
I0
sg127
I0
sg128
I0
sg129
I0
ssg67
(dp266
g126
I0
sg127
I0
sg128
I0
sg129
I0
ssg69
(dp267
g126
I0
sg127
I0
sg128
I0
sg129
I0
ssg71
I0
sg72
I0
sg73
S'Joreid'
p268
sg75
I10
sg76
I0
sg77
I23
sg78
I163
sg79
g80
sg81
(dp269
g143
I8
sg144
I8
sg145
I9
sg146
I11
sg147
I9
sg148
I9
sg149
I4
sg150
I11
sg151
I4
sg152
I7
sg153
I7
sg154
I11
sg155
I3
sg156
I10
sg157
I6
ssg98
I3
sg99
I0
sg100
I0
sg101
I0
sg102
F9.931034482758621
sg103
I0
sg104
I0
sg105
I0
sg106
I0
sg107
g269
sg108
I0
sg109
g57
sg110
I0
sg111
I0
sg112
I0
sg113
I10
sg114
I0
sg115
I0
sg116
S'O'
p270
sbssS'totaux'
p271
(dp272
g19
I0
sg20
I0
sg21
I0
ssS'_compo_defaut_fatigue'
p273
Nsg81
(dp274
g4
I0
sg5
I0
sg6
I0
sg7
I0
sg8
I0
sg9
I0
sg10
I0
sg11
I0
sg12
I0
sg13
I0
sg14
I0
sg15
I0
sg16
I0
ssS'joueurs'
p275
(dp276
S'n12'
p277
g25
sS'n13'
p278
(ijoueur
joueur
p279
(dp280
g27
I0
sg28
I0
sg29
I0
sg30
(ijoueur
rang
p281
(dp282
g33
I4
sg34
S'*'
p283
sg36
g124
sbsg38
(dp284
g126
I0
sg127
I0
sg128
I0
sg129
I0
ssg44
(dp285
g126
I0
sg127
I0
sg128
I0
sg129
I0
ssg46
I0
sg47
I0
sg48
I0
sg49
I0
sg50
I0
sg51
I0
sg52
I0
sg53
(g54
S'C2'
p286
S'AI'
p287
g57
tp288
sg59
(ijoueur
rang
p289
(dp290
g33
I4
sg34
S'*'
p291
sg36
g124
sbsg63
(dp292
g126
I0
sg127
I0
sg128
I0
sg129
I0
ssg65
(dp293
g126
I0
sg127
I0
sg128
I0
sg129
I0
ssg67
(dp294
g126
I0
sg127
I0
sg128
I0
sg129
I0
ssg69
(dp295
g126
I0
sg127
I0
sg128
I0
sg129
I0
ssg71
I0
sg72
I0
sg73
S'Qayod'
p296
sg75
I9
sg76
I0
sg77
I20
sg78
I104
sg79
g80
sg81
(dp297
g143
I9
sg144
I4
sg145
I9
sg146
I9
sg147
I4
sg148
I12
sg149
I6
sg150
I14
sg151
I8
sg152
I8
sg153
I9
sg154
I9
sg155
I7
sg156
I9
sg157
I4
ssg98
I1
sg99
I0
sg100
I0
sg101
I0
sg102
F9.586206896551724
sg103
I0
sg104
I0
sg105
I0
sg106
I0
sg107
g297
sg108
I0
sg109
g57
sg110
I0
sg111
I0
sg112
I0
sg113
I12
sg114
I0
sg115
I0
sg116
S'O'
p298
sbsS'n10'
p299
g160
sS'n11'
p300
(ijoueur
joueur
p301
(dp302
g27
I0
sg28
I0
sg29
I0
sg30
(ijoueur
rang
p303
(dp304
g33
I5
sg34
S'**'
p305
sg36
g37
sbsg38
(dp306
g40
I0
sg41
I0
sg42
I0
sg43
I0
ssg44
(dp307
g40
I0
sg41
I0
sg42
I0
sg43
I0
ssg46
I0
sg47
I0
sg48
I0
sg49
I0
sg50
I0
sg51
I0
sg52
I0
sg53
(g54
S'AI'
p308
S'CE'
p309
g57
tp310
sg59
(ijoueur
rang
p311
(dp312
g33
I5
sg34
S'**'
p313
sg36
g37
sbsg63
(dp314
g40
I0
sg41
I0
sg42
I0
sg43
I0
ssg65
(dp315
g40
I0
sg41
I0
sg42
I0
sg43
I0
ssg67
(dp316
g40
I0
sg41
I0
sg42
I0
sg43
I0
ssg69
(dp317
g40
I0
sg41
I0
sg42
I0
sg43
I0
ssg71
I0
sg72
I0
sg73
S'Stuhill'
p318
sg75
I6
sg76
I0
sg77
I21
sg78
I311
sg79
g80
sg81
(dp319
g83
I9
sg84
I5
sg85
I7
sg86
I11
sg87
I7
sg88
I12
sg89
I6
sg90
I12
sg91
I7
sg92
I7
sg93
I10
sg94
I8
sg95
I6
sg96
I11
sg97
I5
ssg98
I2
sg99
I0
sg100
I0
sg101
I0
sg102
F9.870967741935484
sg103
I0
sg104
I0
sg105
I0
sg106
I0
sg107
g319
sg108
I0
sg109
g57
sg110
I0
sg111
I0
sg112
I0
sg113
I16
sg114
I0
sg115
I0
sg116
S'O'
p320
sbsS'n16'
p321
(ijoueur
joueur
p322
(dp323
g27
I0
sg28
I0
sg29
I0
sg30
(ijoueur
rang
p324
(dp325
g33
I2
sg34
S'^^'
p326
sg36
g165
sbsg38
(dp327
g126
I0
sg127
I0
sg128
I0
sg129
I0
ssg44
(dp328
g126
I0
sg127
I0
sg128
I0
sg129
I0
ssg46
I0
sg47
I0
sg48
I0
sg49
I0
sg50
I0
sg51
I0
sg52
I0
sg53
(g54
S'TA'
p329
g57
g57
tp330
sg59
(ijoueur
rang
p331
(dp332
g33
I2
sg34
S'^^'
p333
sg36
g165
sbsg63
(dp334
g126
I0
sg127
I0
sg128
I0
sg129
I0
ssg65
(dp335
g126
I0
sg127
I0
sg128
I0
sg129
I0
ssg67
(dp336
g126
I0
sg127
I0
sg128
I0
sg129
I0
ssg69
(dp337
g126
I0
sg127
I0
sg128
I0
sg129
I0
ssg71
I0
sg72
I0
sg73
S'Zwig'
p338
sg75
I9
sg76
I0
sg77
I21
sg78
I17
sg79
g80
sg81
(dp339
g143
I8
sg144
I8
sg145
I6
sg146
I11
sg147
I4
sg148
I8
sg149
I5
sg150
I8
sg151
I3
sg152
I6
sg153
I7
sg154
I8
sg155
I0
sg156
I8
sg157
I10
ssg98
I2
sg99
I0
sg100
I0
sg101
I0
sg102
F8.586206896551724
sg103
I0
sg104
I0
sg105
I0
sg106
I0
sg107
g339
sg108
I0
sg109
g57
sg110
I0
sg111
I0
sg112
I0
sg113
I2
sg114
I0
sg115
I0
sg116
S'O'
p340
sbsS'n17'
p341
(ijoueur
joueur
p342
(dp343
g27
I0
sg28
I0
sg29
I0
sg30
(ijoueur
rang
p344
(dp345
g33
I2
sg34
S'^^'
p346
sg36
g165
sbsg38
(dp347
g126
I0
sg127
I0
sg128
I0
sg129
I0
ssg44
(dp348
g126
I0
sg127
I0
sg128
I0
sg129
I0
ssg46
I0
sg47
I0
sg48
I0
sg49
I0
sg50
I0
sg51
I0
sg52
I0
sg53
(g54
S'PI'
p349
g57
g57
tp350
sg59
(ijoueur
rang
p351
(dp352
g33
I2
sg34
S'^^'
p353
sg36
g165
sbsg63
(dp354
g126
I0
sg127
I0
sg128
I0
sg129
I0
ssg65
(dp355
g126
I0
sg127
I0
sg128
I0
sg129
I0
ssg67
(dp356
g126
I0
sg127
I0
sg128
I0
sg129
I0
ssg69
(dp357
g126
I0
sg127
I0
sg128
I0
sg129
I0
ssg71
I0
sg72
I0
sg73
S'Zebu'
p358
sg75
I2
sg76
I0
sg77
I12
sg78
I21
sg79
g80
sg81
(dp359
g143
I8
sg144
I8
sg145
I8
sg146
I9
sg147
I6
sg148
I9
sg149
I3
sg150
I10
sg151
I4
sg152
I6
sg153
I7
sg154
I8
sg155
I4
sg156
I9
sg157
I8
ssg98
I0
sg99
I0
sg100
I0
sg101
I0
sg102
F8.481481481481481
sg103
I0
sg104
I0
sg105
I0
sg106
I0
sg107
g359
sg108
I0
sg109
g57
sg110
I0
sg111
I0
sg112
I0
sg113
I1
sg114
I0
sg115
I0
sg116
S'O'
p360
sbsS'n14'
p361
(ijoueur
joueur
p362
(dp363
g27
I0
sg28
I0
sg29
I0
sg30
(ijoueur
rang
p364
(dp365
g33
I5
sg34
S'xx'
p366
sg36
g192
sbsg38
(dp367
g126
I0
sg127
I0
sg128
I0
sg129
I0
ssg44
(dp368
g126
I0
sg127
I0
sg128
I0
sg129
I0
ssg46
I0
sg47
I0
sg48
I0
sg49
I0
sg50
I0
sg51
I0
sg52
I0
sg53
(g54
S'DO'
p369
S'CE'
p370
S'AI'
p371
tp372
sg59
(ijoueur
rang
p373
(dp374
g33
I3
sg34
S'<<<'
p375
sg36
S'rare'
p376
sbsg63
(dp377
g126
I0
sg127
I0
sg128
I0
sg129
I0
ssg65
(dp378
g126
I0
sg127
I0
sg128
I0
sg129
I0
ssg67
(dp379
g126
I0
sg127
I0
sg128
I0
sg129
I0
ssg69
(dp380
g126
I0
sg127
I0
sg128
I0
sg129
I0
ssg71
I0
sg72
I0
sg73
S'Brokleop'
p381
sg75
I9
sg76
I0
sg77
I22
sg78
I170
sg79
g80
sg81
(dp382
g143
I8
sg144
I8
sg145
I10
sg146
I11
sg147
I3
sg148
I12
sg149
I6
sg150
I15
sg151
I11
sg152
I9
sg153
I13
sg154
I9
sg155
I6
sg156
I7
sg157
I8
ssg98
I5
sg99
I0
sg100
I0
sg101
I0
sg102
F9.666666666666666
sg103
I0
sg104
I0
sg105
I0
sg106
I0
sg107
g382
sg108
I0
sg109
g57
sg110
I0
sg111
I0
sg112
I0
sg113
I14
sg114
I0
sg115
I0
sg116
S'HB'
p383
sbsS'n15'
p384
(ijoueur
joueur
p385
(dp386
g27
I0
sg28
I0
sg29
I0
sg30
(ijoueur
rang
p387
(dp388
g33
I2
sg34
S'^^'
p389
sg36
S'special'
p390
sbsg38
(dp391
g40
I0
sg41
I0
sg42
I0
sg43
I0
ssg44
(dp392
g40
I0
sg41
I0
sg42
I0
sg43
I0
ssg46
I0
sg47
I0
sg48
I0
sg49
I0
sg50
I0
sg51
I0
sg52
I0
sg53
(g54
S'AR'
p393
S'CE'
p394
g57
tp395
sg59
(ijoueur
rang
p396
(dp397
g33
I2
sg34
S'^^'
p398
sg36
g390
sbsg63
(dp399
g40
I0
sg41
I0
sg42
I0
sg43
I0
ssg65
(dp400
g40
I0
sg41
I0
sg42
I0
sg43
I0
ssg67
(dp401
g40
I0
sg41
I0
sg42
I0
sg43
I0
ssg69
(dp402
g40
I0
sg41
I0
sg42
I0
sg43
I0
ssg71
I0
sg72
I0
sg73
S'Keprat'
p403
sg75
I9
sg76
I0
sg77
I20
sg78
I21
sg79
g80
sg81
(dp404
g83
I9
sg84
I5
sg85
I8
sg86
I8
sg87
I7
sg88
I6
sg89
I7
sg90
I8
sg91
I5
sg92
I8
sg93
I10
sg94
I4
sg95
I6
sg96
I11
sg97
I4
ssg98
I2
sg99
I0
sg100
I0
sg101
I0
sg102
F8.727272727272727
sg103
I0
sg104
I0
sg105
I0
sg106
I0
sg107
g404
sg108
I0
sg109
g57
sg110
I0
sg111
I0
sg112
I0
sg113
I2
sg114
I0
sg115
I0
sg116
S'O'
p405
sbsS'n18'
p406
g230
sS'n19'
p407
(ijoueur
joueur
p408
(dp409
g27
I0
sg28
I0
sg29
I0
sg30
(ijoueur
rang
p410
(dp411
g33
I5
sg34
S'xx'
p412
sg36
g192
sbsg38
(dp413
g126
I0
sg127
I0
sg128
I0
sg129
I0
ssg44
(dp414
g126
I0
sg127
I0
sg128
I0
sg129
I0
ssg46
I0
sg47
I0
sg48
I0
sg49
I0
sg50
I0
sg51
I0
sg52
I0
sg53
(g54
S'TL'
p415
g57
g57
tp416
sg59
(ijoueur
rang
p417
(dp418
g33
I2
sg34
S'^^'
p419
sg36
g165
sbsg63
(dp420
g126
I0
sg127
I0
sg128
I0
sg129
I0
ssg65
(dp421
g126
I0
sg127
I0
sg128
I0
sg129
I0
ssg67
(dp422
g126
I0
sg127
I0
sg128
I0
sg129
I0
ssg69
(dp423
g126
I0
sg127
I0
sg128
I0
sg129
I0
ssg71
I0
sg72
I0
sg73
S'Lemdec'
p424
sg75
I11
sg76
I0
sg77
I21
sg78
I12
sg79
g80
sg81
(dp425
g143
I6
sg144
I8
sg145
I6
sg146
I10
sg147
I7
sg148
I8
sg149
I4
sg150
I8
sg151
I5
sg152
I6
sg153
I10
sg154
I7
sg155
I1
sg156
I11
sg157
I6
ssg98
I2
sg99
I0
sg100
I0
sg101
I0
sg102
F8.419354838709678
sg103
I0
sg104
I0
sg105
I0
sg106
I0
sg107
g425
sg108
I0
sg109
g57
sg110
I0
sg111
I0
sg112
I0
sg113
I2
sg114
I0
sg115
I0
sg116
S'O'
p426
sbsS'n22'
p427
(ijoueur
joueur
p428
(dp429
g27
I0
sg28
I0
sg29
I0
sg30
(ijoueur
rang
p430
(dp431
g33
I2
sg34
S'^^'
p432
sg36
g390
sbsg38
(dp433
g40
I0
sg41
I0
sg42
I0
sg43
I0
ssg44
(dp434
g40
I0
sg41
I0
sg42
I0
sg43
I0
ssg46
I0
sg47
I0
sg48
I0
sg49
I0
sg50
I0
sg51
I0
sg52
I0
sg53
(g54
S'AI'
p435
g57
g57
tp436
sg59
(ijoueur
rang
p437
(dp438
g33
I2
sg34
S'^^'
p439
sg36
g390
sbsg63
(dp440
g40
I0
sg41
I0
sg42
I0
sg43
I0
ssg65
(dp441
g40
I0
sg41
I0
sg42
I0
sg43
I0
ssg67
(dp442
g40
I0
sg41
I0
sg42
I0
sg43
I0
ssg69
(dp443
g40
I0
sg41
I0
sg42
I0
sg43
I0
ssg71
I0
sg72
I0
sg73
S'Femeal'
p444
sg75
I3
sg76
I0
sg77
I12
sg78
I48
sg79
g80
sg81
(dp445
g83
I11
sg84
I4
sg85
I8
sg86
I9
sg87
I9
sg88
I6
sg89
I5
sg90
I8
sg91
I6
sg92
I8
sg93
I12
sg94
I6
sg95
I6
sg96
I8
sg97
I4
ssg98
I4
sg99
I0
sg100
I0
sg101
I0
sg102
F9.225806451612904
sg103
I0
sg104
I0
sg105
I0
sg106
I0
sg107
g445
sg108
I0
sg109
g57
sg110
I0
sg111
I0
sg112
I0
sg113
I6
sg114
I0
sg115
I0
sg116
S'B'
p446
sbsS'n21'
p447
(ijoueur
joueur
p448
(dp449
g27
I0
sg28
I0
sg29
I0
sg30
(ijoueur
rang
p450
(dp451
g33
I2
sg34
S'^^'
p452
sg36
g165
sbsg38
(dp453
g126
I0
sg127
I0
sg128
I0
sg129
I0
ssg44
(dp454
g126
I0
sg127
I0
sg128
I0
sg129
I0
ssg46
I0
sg47
I0
sg48
I0
sg49
I0
sg50
I0
sg51
I0
sg52
I0
sg53
(g54
S'C1'
p455
g57
g57
tp456
sg59
(ijoueur
rang
p457
(dp458
g33
I2
sg34
S'^^'
p459
sg36
g165
sbsg63
(dp460
g126
I0
sg127
I0
sg128
I0
sg129
I0
ssg65
(dp461
g126
I0
sg127
I0
sg128
I0
sg129
I0
ssg67
(dp462
g126
I0
sg127
I0
sg128
I0
sg129
I0
ssg69
(dp463
g126
I0
sg127
I0
sg128
I0
sg129
I0
ssg71
I0
sg72
I0
sg73
S'Kropeg'
p464
sg75
I10
sg76
I0
sg77
I18
sg78
I16
sg79
g80
sg81
(dp465
g143
I9
sg144
I4
sg145
I5
sg146
I10
sg147
I2
sg148
I8
sg149
I6
sg150
I8
sg151
I9
sg152
I9
sg153
I8
sg154
I8
sg155
I6
sg156
I7
sg157
I5
ssg98
I1
sg99
I0
sg100
I0
sg101
I0
sg102
F8.3
sg103
I0
sg104
I0
sg105
I0
sg106
I0
sg107
g465
sg108
I0
sg109
g57
sg110
I0
sg111
I0
sg112
I0
sg113
I1
sg114
I0
sg115
I0
sg116
S'O'
p466
sbsS'n20'
p467
(ijoueur
joueur
p468
(dp469
g27
I0
sg28
I0
sg29
I0
sg30
(ijoueur
rang
p470
(dp471
g33
I5
sg34
S'**'
p472
sg36
g192
sbsg38
(dp473
g126
I0
sg127
I0
sg128
I0
sg129
I0
ssg44
(dp474
g126
I0
sg127
I0
sg128
I0
sg129
I0
ssg46
I0
sg47
I0
sg48
I0
sg49
I0
sg50
I0
sg51
I0
sg52
I0
sg53
(g54
S'DM'
p475
g57
g57
tp476
sg59
(ijoueur
rang
p477
(dp478
g33
I2
sg34
S'^^'
p479
sg36
g165
sbsg63
(dp480
g126
I0
sg127
I0
sg128
I0
sg129
I0
ssg65
(dp481
g126
I0
sg127
I0
sg128
I0
sg129
I0
ssg67
(dp482
g126
I0
sg127
I0
sg128
I0
sg129
I0
ssg69
(dp483
g126
I0
sg127
I0
sg128
I0
sg129
I0
ssg71
I0
sg72
I0
sg73
S'Pritess'
p484
sg75
I10
sg76
I0
sg77
I20
sg78
I23
sg79
g80
sg81
(dp485
g143
I7
sg144
I4
sg145
I9
sg146
I9
sg147
I5
sg148
I6
sg149
I6
sg150
I9
sg151
I7
sg152
I10
sg153
I8
sg154
I9
sg155
I6
sg156
I8
sg157
I4
ssg98
I1
sg99
I0
sg100
I0
sg101
I0
sg102
F8.275862068965518
sg103
I0
sg104
I0
sg105
I0
sg106
I0
sg107
g485
sg108
I0
sg109
g57
sg110
I0
sg111
I0
sg112
I0
sg113
I1
sg114
I0
sg115
I0
sg116
S'O'
p486
sbsS'n8'
p487
g251
sS'n9'
p488
(ijoueur
joueur
p489
(dp490
g27
I0
sg28
I0
sg29
I0
sg30
(ijoueur
rang
p491
(dp492
g33
I4
sg34
S'*'
p493
sg36
g124
sbsg38
(dp494
g126
I0
sg127
I0
sg128
I0
sg129
I0
ssg44
(dp495
g126
I0
sg127
I0
sg128
I0
sg129
I0
ssg46
I0
sg47
I0
sg48
I0
sg49
I0
sg50
I0
sg51
I0
sg52
I0
sg53
(g54
S'DM'
p496
g57
g57
tp497
sg59
(ijoueur
rang
p498
(dp499
g33
I4
sg34
S'*'
p500
sg36
g124
sbsg63
(dp501
g126
I0
sg127
I0
sg128
I0
sg129
I0
ssg65
(dp502
g126
I0
sg127
I0
sg128
I0
sg129
I0
ssg67
(dp503
g126
I0
sg127
I0
sg128
I0
sg129
I0
ssg69
(dp504
g126
I0
sg127
I0
sg128
I0
sg129
I0
ssg71
I0
sg72
I0
sg73
S'Drudred'
p505
sg75
I9
sg76
I0
sg77
I19
sg78
I117
sg79
g80
sg81
(dp506
g143
I11
sg144
I6
sg145
I8
sg146
I10
sg147
I3
sg148
I7
sg149
I7
sg150
I8
sg151
I8
sg152
I10
sg153
I10
sg154
I8
sg155
I6
sg156
I8
sg157
I4
ssg98
I2
sg99
I0
sg100
I0
sg101
I0
sg102
F9.10344827586207
sg103
I0
sg104
I0
sg105
I0
sg106
I0
sg107
g506
sg108
I0
sg109
g57
sg110
I0
sg111
I0
sg112
I0
sg113
I14
sg114
I0
sg115
I0
sg116
S'O'
p507
sbsS'n1'
p508
g119
sS'n2'
p509
(ijoueur
joueur
p510
(dp511
g27
I0
sg28
I0
sg29
I0
sg30
(ijoueur
rang
p512
(dp513
g33
I5
sg34
S'xx'
p514
sg36
g192
sbsg38
(dp515
g126
I0
sg127
I0
sg128
I0
sg129
I0
ssg44
(dp516
g126
I0
sg127
I0
sg128
I0
sg129
I0
ssg46
I0
sg47
I0
sg48
I0
sg49
I0
sg50
I0
sg51
I0
sg52
I0
sg53
(g54
S'TA'
p517
S'PI'
p518
g57
tp519
sg59
(ijoueur
rang
p520
(dp521
g33
I5
sg34
S'xx'
p522
sg36
g192
sbsg63
(dp523
g126
I0
sg127
I0
sg128
I0
sg129
I0
ssg65
(dp524
g126
I0
sg127
I0
sg128
I0
sg129
I0
ssg67
(dp525
g126
I0
sg127
I0
sg128
I0
sg129
I0
ssg69
(dp526
g126
I0
sg127
I0
sg128
I0
sg129
I0
ssg71
I0
sg72
I0
sg73
S'Herkor'
p527
sg75
I8
sg76
I0
sg77
I20
sg78
I288
sg79
g80
sg81
(dp528
g143
I8
sg144
I10
sg145
I7
sg146
I9
sg147
I4
sg148
I10
sg149
I5
sg150
I10
sg151
I5
sg152
I7
sg153
I9
sg154
I9
sg155
I4
sg156
I9
sg157
I11
ssg98
I3
sg99
I0
sg100
I0
sg101
I0
sg102
F9.379310344827585
sg103
I0
sg104
I0
sg105
I0
sg106
I0
sg107
g528
sg108
I0
sg109
g57
sg110
I0
sg111
I0
sg112
I0
sg113
I14
sg114
I0
sg115
I0
sg116
S'O'
p529
sbsS'n3'
p530
(ijoueur
joueur
p531
(dp532
g27
I0
sg28
I0
sg29
I0
sg30
(ijoueur
rang
p533
(dp534
g33
I5
sg34
S'xx'
p535
sg36
g192
sbsg38
(dp536
g126
I0
sg127
I0
sg128
I0
sg129
I0
ssg44
(dp537
g126
I0
sg127
I0
sg128
I0
sg129
I0
ssg46
I0
sg47
I0
sg48
I0
sg49
I0
sg50
I0
sg51
I0
sg52
I0
sg53
(g54
S'TA'
p538
S'PI'
p539
g57
tp540
sg59
(ijoueur
rang
p541
(dp542
g33
I5
sg34
S'xx'
p543
sg36
g192
sbsg63
(dp544
g126
I0
sg127
I0
sg128
I0
sg129
I0
ssg65
(dp545
g126
I0
sg127
I0
sg128
I0
sg129
I0
ssg67
(dp546
g126
I0
sg127
I0
sg128
I0
sg129
I0
ssg69
(dp547
g126
I0
sg127
I0
sg128
I0
sg129
I0
ssg71
I0
sg72
I0
sg73
S'Qerred'
p548
sg75
I6
sg76
I0
sg77
I17
sg78
I184
sg79
g80
sg81
(dp549
g143
I7
sg144
I13
sg145
I6
sg146
I11
sg147
I5
sg148
I11
sg149
I4
sg150
I11
sg151
I6
sg152
I7
sg153
I7
sg154
I10
sg155
I6
sg156
I11
sg157
I9
ssg98
I2
sg99
I0
sg100
I0
sg101
I0
sg102
F10.172413793103448
sg103
I0
sg104
I0
sg105
I0
sg106
I0
sg107
g549
sg108
I0
sg109
g57
sg110
I0
sg111
I0
sg112
I0
sg113
I16
sg114
I0
sg115
I0
sg116
S'O'
p550
sbsS'n4'
p551
g209
sS'n5'
p552
(ijoueur
joueur
p553
(dp554
g27
I0
sg28
I0
sg29
I0
sg30
(ijoueur
rang
p555
(dp556
g33
I4
sg34
S'x'
p557
sg36
S'heros'
p558
sbsg38
(dp559
g126
I0
sg127
I0
sg128
I0
sg129
I0
ssg44
(dp560
g126
I0
sg127
I0
sg128
I0
sg129
I0
ssg46
I0
sg47
I0
sg48
I0
sg49
I0
sg50
I0
sg51
I0
sg52
I0
sg53
(g54
S'DL'
p561
g57
g57
tp562
sg59
(ijoueur
rang
p563
(dp564
g33
I4
sg34
S'x'
p565
sg36
g124
sbsg63
(dp566
g126
I0
sg127
I0
sg128
I0
sg129
I0
ssg65
(dp567
g126
I0
sg127
I0
sg128
I0
sg129
I0
ssg67
(dp568
g126
I0
sg127
I0
sg128
I0
sg129
I0
ssg69
(dp569
g126
I0
sg127
I0
sg128
I0
sg129
I0
ssg71
I0
sg72
I0
sg73
S'Moblak'
p570
sg75
I7
sg76
I0
sg77
I18
sg78
I168
sg79
g80
sg81
(dp571
g143
I8
sg144
I10
sg145
I7
sg146
I10
sg147
I9
sg148
I9
sg149
I3
sg150
I9
sg151
I6
sg152
I9
sg153
I7
sg154
I11
sg155
I3
sg156
I9
sg157
I6
ssg98
I1
sg99
I0
sg100
I0
sg101
I0
sg102
F9.666666666666666
sg103
I0
sg104
I0
sg105
I0
sg106
I0
sg107
g571
sg108
I0
sg109
g57
sg110
I0
sg111
I0
sg112
I0
sg113
I10
sg114
I0
sg115
I0
sg116
S'O'
p572
sbsS'n6'
p573
g187
sS'n7'
p574
(ijoueur
joueur
p575
(dp576
g27
I0
sg28
I0
sg29
I0
sg30
(ijoueur
rang
p577
(dp578
g33
I1
sg34
S'^'
p579
sg36
S'base'
p580
sbsg38
(dp581
g126
I0
sg127
I0
sg128
I0
sg129
I0
ssg44
(dp582
g126
I0
sg127
I0
sg128
I0
sg129
I0
ssg46
I0
sg47
I0
sg48
I0
sg49
I0
sg50
I0
sg51
I0
sg52
I0
sg53
(g54
S'N8'
p583
S'TL'
p584
g57
tp585
sg59
(ijoueur
rang
p586
(dp587
g33
I1
sg34
S'^'
p588
sg36
g580
sbsg63
(dp589
g126
I0
sg127
I0
sg128
I0
sg129
I0
ssg65
(dp590
g126
I0
sg127
I0
sg128
I0
sg129
I0
ssg67
(dp591
g126
I0
sg127
I0
sg128
I0
sg129
I0
ssg69
(dp592
g126
I0
sg127
I0
sg128
I0
sg129
I0
ssg71
I0
sg72
I0
sg73
S'Denpett'
p593
sg75
I8
sg76
I0
sg77
I20
sg78
I11
sg79
g80
sg81
(dp594
g143
I7
sg144
I9
sg145
I6
sg146
I9
sg147
I8
sg148
I6
sg149
I4
sg150
I6
sg151
I5
sg152
I7
sg153
I7
sg154
I10
sg155
I2
sg156
I10
sg157
I4
ssg98
I2
sg99
I0
sg100
I0
sg101
I0
sg102
F8.551724137931034
sg103
I0
sg104
I0
sg105
I0
sg106
I0
sg107
g594
sg108
I0
sg109
g57
sg110
I0
sg111
I0
sg112
I0
sg113
I1
sg114
I0
sg115
I0
sg116
S'O'
p595
sbssS'remplacements'
p596
(dp597
g321
S'n0'
p598
sg341
g598
sg406
g598
sg407
g598
sg427
g598
sg447
g598
sg467
g598
ssb.