(iclub
compo
p0
(dp1
S'caracs_old'
p2
(dp3
S'A'
p4
F137.0
sS'ME'
p5
F88.0
sS'E'
p6
I190
sS'OplusAV'
p7
F63.5
sS'TO_off'
p8
F72.0
sS'OplusAR'
p9
F70.5
sS'M'
p10
F62.5
sS'JP'
p11
F69.0
sS'OmoinsAR'
p12
F41.0
sS'PA'
p13
F90.5
sS'TO_def'
p14
F66.0
sS'OmoinsAV'
p15
F34.0
sS'R'
p16
F137.5
ssS'totaux_old'
p17
(dp18
S'T2'
p19
F148.25
sS'T3'
p20
F95.0
sS'T1'
p21
F147.25
ssS'roles'
p22
(dp23
S'SA_scd'
p24
(ijoueur
joueur
p25
(dp26
S'rouges_total'
p27
I0
sS'drops_total'
p28
I0
sS'poste3'
p29
S''
p30
sS'blessure'
p31
I0
sS'poste1'
p32
g30
sS'RG_max'
p33
ccopy_reg
_reconstructor
p34
(cjoueur
rang_new
p35
c__builtin__
object
p36
Ntp37
Rp38
(dp39
S'type_nb'
p40
I1
sS'rang'
p41
S'>'
p42
sS'type'
p43
S'base'
p44
sbsS'MJ2_total'
p45
(dp46
S'SR'
p47
I0
sS'CT'
p48
I0
sS'CR'
p49
I0
sS'ST'
p50
I0
ssS'MJ3_total'
p51
(dp52
g47
I0
sg48
I0
sg49
I0
sg50
I0
ssS'anciens_clubs'
p53
g30
sS'drop_rates_saison'
p54
I0
sS'essais_saison'
p55
I0
sS'penalite_ratees_saison'
p56
I0
sS'transformations_saison'
p57
I0
sS'club'
p58
S'TO'
p59
sS'RG'
p60
g38
sS'MJ1'
p61
(dp62
g47
I0
sg48
I0
sg49
I1
sg50
I0
ssS'MJ2'
p63
(dp64
g47
I0
sg48
I0
sg49
I0
sg50
I0
ssS'MJ3'
p65
(dp66
g47
I0
sg48
I0
sg49
I0
sg50
I0
ssS'MJ1_total'
p67
(dp68
g47
I0
sg48
I0
sg49
I1
sg50
I0
ssS'penalites_total'
p69
I0
sS'penalites_saison'
p70
I0
sS'nom'
p71
S'Rehul'
p72
sS'C'
p73
I12
sS'transformations_total'
p74
I0
sS'D'
p75
I25
sS'VAL'
p76
I8
sS'postes'
p77
(S'dummy'
p78
S'TL'
p79
S'DL'
p80
g30
tp81
sS'poste2'
p82
g30
sS'caracs'
p83
(dp84
S'RP1'
p85
I7
sS'ME'
p86
I7
sS'RP2'
p87
I6
sS'E'
p88
I8
sS'P'
p89
I4
sS'JP'
p90
I4
sS'M'
p91
I10
sS'RP_tot'
p92
I7
sS'TO'
p93
I9
sS'PA'
p94
I6
sS'A'
p95
I9
sS'R'
p96
I6
sS'TB'
p97
I3
sS'PL'
p98
I6
sS'TA'
p99
I5
ssS'fatigue'
p100
I2
sS'drop_ratees_total'
p101
I0
sS'blessures_total'
p102
I0
sS'XP'
p103
I0
sS'EV'
p104
F7.368421052631579
sS'penalite_ratees_total'
p105
I0
sS'blessures_saison'
p106
I0
sS'jaunes_total'
p107
I0
sS'caracs_sans_fatigue'
p108
g84
sS'rouges_saison'
p109
I0
sS'transformation_ratees_total'
p110
I0
sS'drops_saison'
p111
I0
sS'transformation_ratees_saison'
p112
I0
sS'MS'
p113
I0
sS'essais_total'
p114
I0
sS'jaunes_saison'
p115
I0
sS'ARM'
p116
S'HL'
p117
sbsS'RJL'
p118
(ijoueur
joueur
p119
(dp120
S'EV_saison_11'
p121
F10.5625
sg27
I0
sg28
I10
sg31
I0
sg33
g34
(g35
g36
Ntp122
Rp123
(dp124
g40
I5
sg41
S'**'
p125
sg43
S'seigneur'
p126
sbsg45
(dp127
S'SR'
p128
I0
sS'CT'
p129
I2
sS'CR'
p130
I0
sS'ST'
p131
I0
ssg51
(dp132
g128
I0
sg129
I6
sg130
I0
sg131
I8
ssS'drop_rates_total'
p133
I0
sg54
I0
sS'MS_probleme'
p134
I00
sg55
I0
sg56
I2
sg57
I26
sg77
(S'dummy'
p135
S'C1'
p136
S'DO'
p137
S'DM'
p138
tp139
sS'veut_partir'
p140
I00
sg60
g34
(g35
g36
Ntp141
Rp142
(dp143
g40
I5
sg41
S'**'
p144
sg43
g126
sbsg61
(dp145
S'SR'
p146
I0
sS'CT'
p147
I0
sS'CR'
p148
I0
sS'ST'
p149
I0
ssg63
(dp150
g146
I0
sg147
I1
sg148
I0
sg149
I0
ssg65
(dp151
g146
I0
sg147
I6
sg148
I0
sg149
I0
ssg67
(dp152
g128
I0
sg129
I15
sg130
I0
sg131
I0
ssg69
I111
sg70
I6
sg71
S'Srud'
p153
sg73
I4
sg74
I92
sg75
I12
sg76
I181
sg58
g59
sg83
(dp154
S'A'
p155
I13
sS'ME'
p156
I6
sS'RP2'
p157
I13
sS'E'
p158
I10
sS'TO'
p159
I7
sS'RP1'
p160
I7
sS'JP'
p161
I10
sS'RP_tot'
p162
I13
sS'P'
p163
I9
sS'PA'
p164
I12
sS'M'
p165
I10
sS'R'
p166
I6
sS'TB'
p167
I11
sS'PL'
p168
I8
sS'TA'
p169
I5
ssg100
I5
sg101
I0
sg102
I0
sg103
I0
sg104
F10.4375
sg105
I3
sg106
I0
sg107
I1
sS'caracs_saison_11'
p170
(dp171
S'A'
p172
I13
sS'ME'
p173
I6
sS'RP2'
p174
I13
sS'E'
p175
I11
sS'TO'
p176
I7
sS'RP1'
p177
I7
sS'JP'
p178
I10
sS'RP_tot'
p179
I13
sS'P'
p180
I9
sS'PA'
p181
I12
sS'M'
p182
I10
sS'R'
p183
I6
sS'TB'
p184
I11
sS'PL'
p185
I8
sS'TA'
p186
I5
ssg108
(dp187
g155
I13
sg156
I6
sg157
I13
sg158
I10
sg163
I9
sg160
I7
sg161
I10
sg162
I13
sg159
I7
sg164
I12
sg165
I10
sg166
I6
sg167
I11
sg168
I8
sg169
I5
ssg109
I0
sg53
g30
sg110
I3
sg111
I0
sg112
I2
sg113
I18
sg114
I17
sg115
I0
sg116
S'S'
p188
sbsS'cap'
p189
(ijoueur
joueur
p190
(dp191
g121
F11.379310344827585
sg27
I0
sg28
I0
sg31
I0
sg33
g34
(g35
g36
Ntp192
Rp193
(dp194
g40
I5
sg41
S'xx'
p195
sg43
g126
sbsg45
(dp196
g128
I2
sg129
I0
sg130
I0
sg131
I1
ssg51
(dp197
g128
I0
sg129
I0
sg130
I0
sg131
I0
ssg133
I0
sg54
I0
sg134
I00
sg55
I2
sg56
I0
sg57
I0
sg77
(g135
S'N8'
p198
S'TL'
p199
g30
tp200
sg140
I00
sg60
g34
(g35
g36
Ntp201
Rp202
(dp203
g40
I5
sg41
S'xx'
p204
sg43
g126
sbsg61
(dp205
g146
I0
sg147
I8
sg148
I0
sg149
I0
ssg63
(dp206
g146
I0
sg147
I0
sg148
I0
sg149
I0
ssg65
(dp207
g146
I0
sg147
I0
sg148
I0
sg149
I0
ssg67
(dp208
g128
I3
sg129
I21
sg130
I0
sg131
I0
ssg69
I0
sg70
I0
sg71
S'Slaandal'
p209
sg73
I3
sg74
I0
sg75
I13
sg76
I350
sg58
g59
sg83
(dp210
g155
I9
sg156
I12
sg157
I7
sg158
I13
sg159
I8
sg160
I14
sg161
I2
sg162
I14
sg163
I3
sg164
I7
sg165
I8
sg166
I10
sg167
I4
sg168
I9
sg169
I6
ssg100
I14
sg101
I0
sg102
I0
sg103
I0
sg104
F11.379310344827585
sg105
I0
sg106
I0
sg107
I1
sg170
(dp211
g172
I10
sg173
I12
sg174
I7
sg175
I13
sg176
I8
sg177
I14
sg178
I2
sg179
I14
sg180
I3
sg181
I7
sg182
I8
sg183
I11
sg184
I4
sg185
I10
sg186
I6
ssg108
(dp212
g155
I10
sg156
I12
sg157
I7
sg158
I13
sg163
I3
sg160
I14
sg161
I2
sg162
I14
sg159
I8
sg164
I7
sg165
I8
sg166
I11
sg167
I4
sg168
I10
sg169
I6
ssg109
I0
sg53
g30
sg110
I0
sg111
I0
sg112
I0
sg113
I35
sg114
I20
sg115
I0
sg116
S'HL'
p213
sbsS'B4'
p214
(ijoueur
joueur
p215
(dp216
g121
F10.5625
sg27
I0
sg28
I10
sg31
I0
sg33
g34
(g35
g36
Ntp217
Rp218
(dp219
g40
I5
sg41
S'**'
p220
sg43
S'seigneur'
p221
sbsg45
(dp222
S'SR'
p223
I0
sS'ST'
p224
I0
sS'CR'
p225
I0
sS'CT'
p226
I2
ssg51
(dp227
g223
I0
sg224
I8
sg225
I0
sg226
I6
ssg133
I0
sg54
I0
sg134
I00
sg55
I0
sg56
I2
sg57
I26
sg77
(S'dummy'
p228
S'C1'
p229
S'DO'
p230
S'DM'
p231
tp232
sg140
I00
sg60
g34
(g35
g36
Ntp233
Rp234
(dp235
g40
I5
sg41
S'**'
p236
sg43
g221
sbsg61
(dp237
S'SR'
p238
I0
sS'ST'
p239
I0
sS'CR'
p240
I0
sS'CT'
p241
I0
ssg63
(dp242
g238
I0
sg239
I0
sg240
I0
sg241
I1
ssg65
(dp243
g238
I0
sg239
I0
sg240
I0
sg241
I6
ssg67
(dp244
g223
I0
sg224
I0
sg225
I0
sg226
I15
ssg69
I111
sg70
I6
sg71
S'Srud'
p245
sg73
I4
sg74
I92
sg75
I12
sg76
I181
sg58
S'TO'
p246
sg83
(dp247
S'A'
p248
I13
sS'ME'
p249
I6
sS'RP2'
p250
I13
sS'E'
p251
I10
sS'P'
p252
I9
sS'RP1'
p253
I7
sS'JP'
p254
I10
sS'RP_tot'
p255
I13
sS'TO'
p256
I7
sS'PA'
p257
I12
sS'M'
p258
I10
sS'R'
p259
I6
sS'TB'
p260
I11
sS'PL'
p261
I8
sS'TA'
p262
I5
ssg100
I5
sg101
I0
sg102
I0
sg103
I0
sg104
F10.4375
sg105
I3
sg106
I0
sg107
I1
sg170
(dp263
S'A'
p264
I13
sS'ME'
p265
I6
sS'RP2'
p266
I13
sS'E'
p267
I11
sS'P'
p268
I9
sS'RP1'
p269
I7
sS'JP'
p270
I10
sS'RP_tot'
p271
I13
sS'TO'
p272
I7
sS'PA'
p273
I12
sS'M'
p274
I10
sS'R'
p275
I6
sS'TB'
p276
I11
sS'PL'
p277
I8
sS'TA'
p278
I5
ssg108
(dp279
g248
I13
sg249
I6
sg250
I13
sg251
I10
sg256
I7
sg253
I7
sg254
I10
sg255
I13
sg252
I9
sg257
I12
sg258
I10
sg259
I6
sg260
I11
sg261
I8
sg262
I5
ssg109
I0
sg53
g30
sg110
I3
sg111
I0
sg112
I2
sg113
I18
sg114
I17
sg115
I0
sg116
S'S'
p280
sbsS'RJC'
p281
g119
sS'B1'
p282
g215
sS'B2'
p283
g215
sS'B3'
p284
g215
sS'SA_pcp2'
p285
(ijoueur
joueur
p286
(dp287
g121
F10.666666666666666
sg27
I1
sg28
I0
sg31
I0
sg33
g34
(g35
g36
Ntp288
Rp289
(dp290
g40
I4
sg41
S'x'
p291
sg43
S'heros'
p292
sbsg45
(dp293
g128
I0
sg129
I1
sg130
I0
sg131
I0
ssg51
(dp294
g128
I0
sg129
I17
sg130
I0
sg131
I0
ssg133
I0
sg54
I0
sg134
I00
sg55
I4
sg56
I0
sg57
I0
sg77
(g135
S'N8'
p295
S'DL'
p296
S'TL'
p297
tp298
sg140
I00
sg60
g34
(g35
g36
Ntp299
Rp300
(dp301
g40
I4
sg41
g291
sg43
g292
sbsg61
(dp302
g146
I0
sg147
I0
sg148
I3
sg149
I0
ssg63
(dp303
g146
I0
sg147
I1
sg148
I0
sg149
I0
ssg65
(dp304
g146
I0
sg147
I4
sg148
I0
sg149
I0
ssg67
(dp305
g128
I0
sg129
I0
sg130
I3
sg131
I0
ssg69
I0
sg70
I0
sg71
S'Hydoel'
p306
sg73
I3
sg74
I0
sg75
I12
sg76
I240
sg58
g59
sg83
(dp307
g155
I9
sg156
I7
sg157
I7
sg158
I10
sg159
I9
sg160
I11
sg161
I3
sg162
I11
sg163
I4
sg164
I9
sg165
I7
sg166
I10
sg167
I3
sg168
I12
sg169
I4
ssg100
I12
sg101
I0
sg102
I0
sg103
I0
sg104
F10.482758620689655
sg105
I0
sg106
I0
sg107
I0
sg170
(dp308
g172
I11
sg173
I7
sg174
I7
sg175
I10
sg176
I11
sg177
I11
sg178
I3
sg179
I11
sg180
I4
sg181
I9
sg182
I7
sg183
I11
sg184
I3
sg185
I13
sg186
I4
ssg108
(dp309
g155
I10
sg156
I7
sg157
I7
sg158
I10
sg163
I4
sg160
I11
sg161
I3
sg162
I11
sg159
I9
sg164
I9
sg165
I7
sg166
I11
sg167
I3
sg168
I13
sg169
I4
ssg109
I0
sg53
S'QNL 10'
p310
sg110
I0
sg111
I0
sg112
I0
sg113
I24
sg114
I10
sg115
I0
sg116
S'CHS'
p311
sbsS'SA_pcp1'
p312
(ijoueur
joueur
p313
(dp314
g121
F10.862068965517242
sg27
I1
sg28
I0
sg31
I0
sg33
g34
(g35
g36
Ntp315
Rp316
(dp317
g40
I5
sg41
S'xx'
p318
sg43
g126
sbsg45
(dp319
g128
I0
sg129
I19
sg130
I1
sg131
I1
ssg51
(dp320
g128
I0
sg129
I0
sg130
I0
sg131
I0
ssg133
I0
sg54
I0
sg134
I01
sg55
I2
sg56
I0
sg57
I0
sg77
(g135
S'N8'
p321
S'TL'
p322
g30
tp323
sg140
I00
sg60
g316
sg61
(dp324
g146
I0
sg147
I0
sg148
I1
sg149
I0
ssg63
(dp325
g146
I0
sg147
I6
sg148
I1
sg149
I0
ssg65
(dp326
g146
I0
sg147
I0
sg148
I0
sg149
I0
ssg67
(dp327
g128
I1
sg129
I2
sg130
I1
sg131
I0
ssg69
I0
sg70
I0
sg71
S'Zerhen'
p328
sg73
I7
sg74
I0
sg75
I20
sg76
I170
sg58
g59
sg83
(dp329
g155
I9
sg156
I9
sg157
I6
sg158
I13
sg159
I10
sg160
I13
sg161
I5
sg162
I13
sg163
I5
sg164
I7
sg165
I12
sg166
I10
sg167
I5
sg168
I11
sg169
I5
ssg100
I12
sg101
I0
sg102
I0
sg103
I0
sg104
F11.379310344827585
sg105
I0
sg106
I0
sg107
I0
sg170
(dp330
g172
I10
sg173
I8
sg174
I7
sg175
I13
sg176
I10
sg177
I11
sg178
I5
sg179
I11
sg180
I5
sg181
I7
sg182
I10
sg183
I11
sg184
I5
sg185
I12
sg186
I3
ssg108
(dp331
g155
I10
sg156
I9
sg157
I6
sg158
I13
sg163
I5
sg160
I13
sg161
I5
sg162
I13
sg159
I10
sg164
I7
sg165
I12
sg166
I11
sg167
I5
sg168
I12
sg169
I5
ssg109
I0
sg53
g30
sg110
I0
sg111
I0
sg112
I0
sg113
I17
sg114
I4
sg115
I0
sg116
S'HB'
p332
sbsS'drop3'
p333
(ijoueur
joueur
p334
(dp335
g121
F8.542857142857143
sg27
I0
sg28
I0
sg31
I0
sg33
g34
(g35
g36
Ntp336
Rp337
(dp338
g40
I1
sg41
S'>'
p339
sg43
S'base'
p340
sbsg45
(dp341
g128
I0
sg129
I0
sg130
I0
sg131
I0
ssg51
(dp342
g128
I0
sg129
I0
sg130
I0
sg131
I0
ssg133
I0
sg54
I0
sg134
I01
sg55
I0
sg56
I0
sg57
I0
sg77
(g135
S'DO'
p343
g30
g30
tp344
sg140
I00
sg60
g34
(g35
g36
Ntp345
Rp346
(dp347
g40
I1
sg41
g339
sg43
g340
sbsg61
(dp348
g146
I0
sg147
I0
sg148
I2
sg149
I0
ssg63
(dp349
g146
I0
sg147
I0
sg148
I0
sg149
I0
ssg65
(dp350
g146
I0
sg147
I0
sg148
I0
sg149
I0
ssg67
(dp351
g128
I0
sg129
I0
sg130
I6
sg131
I0
ssg69
I44
sg70
I0
sg71
S'Raeth'
p352
sg73
I3
sg74
I32
sg75
I14
sg76
I7
sg58
g59
sg83
(dp353
g155
I10
sg156
I3
sg157
I5
sg158
I10
sg159
I5
sg160
I5
sg161
I9
sg162
I5
sg163
I10
sg164
I10
sg165
I10
sg166
I3
sg167
I11
sg168
I9
sg169
I2
ssg100
I4
sg101
I0
sg102
I0
sg103
I0
sg104
F9.17142857142857
sg105
I0
sg106
I0
sg107
I0
sg170
(dp354
g172
I10
sg173
I3
sg174
I5
sg175
I10
sg176
I5
sg177
I5
sg178
I9
sg179
I5
sg180
I7
sg181
I9
sg182
I10
sg183
I3
sg184
I10
sg185
I9
sg186
I2
ssg108
(dp355
g155
I10
sg156
I3
sg157
I5
sg158
I10
sg163
I10
sg160
I5
sg161
I9
sg162
I5
sg159
I5
sg164
I10
sg165
I10
sg166
I3
sg167
I11
sg168
I9
sg169
I2
ssg109
I0
sg53
g30
sg110
I0
sg111
I0
sg112
I0
sg113
I1
sg114
I0
sg115
I0
sg116
S'EN'
p356
sbsS'SA_remp1'
p357
(ijoueur
joueur
p358
(dp359
g121
F11.296296296296296
sg27
I0
sg28
I0
sg31
I0
sg33
g34
(g35
g36
Ntp360
Rp361
(dp362
g40
I4
sg41
S'x'
p363
sg43
S'heros'
p364
sbsg45
(dp365
S'SR'
p366
I0
sS'CT'
p367
I0
sS'CR'
p368
I0
sS'ST'
p369
I0
ssg51
(dp370
g366
I0
sg367
I0
sg368
I0
sg369
I0
ssg63
(dp371
g146
I0
sg147
I0
sg148
I0
sg149
I0
ssg133
I0
sg54
I0
sS'transformations'
p372
I0
sS'penalites'
p373
I0
sg55
I1
sg56
I0
sg57
I0
sg77
(S'dummy'
p374
S'DL'
p375
S'N8'
p376
S'TL'
p377
tp378
sg140
I00
sg60
g34
(g35
g36
Ntp379
Rp380
(dp381
g40
I5
sg41
S'**'
p382
sg43
S'seigneur'
p383
sbsg61
(dp384
g146
I0
sg147
I8
sg148
I0
sg149
I0
ssg134
I00
sg65
(dp385
g146
I0
sg147
I0
sg148
I0
sg149
I0
ssg67
(dp386
g366
I0
sg367
I22
sg368
I1
sg369
I6
ssg69
I0
sg70
I0
sg71
S'Kadraq'
p387
sg73
I4
sg74
I0
sg75
I17
sg76
I349
sg58
g59
sg83
(dp388
S'A'
p389
I10
sS'ME'
p390
I14
sS'RP2'
p391
I8
sS'E'
p392
I11
sS'TO'
p393
I9
sS'RP1'
p394
I15
sS'JP'
p395
I3
sS'RP_tot'
p396
I16
sS'P'
p397
I3
sS'PA'
p398
I7
sS'M'
p399
I7
sS'R'
p400
I12
sS'TB'
p401
I4
sS'PL'
p402
I10
sS'TA'
p403
I6
ssg100
I11
sg101
I0
sg102
I0
sg103
I0
sg104
F12.407407407407407
sg105
I0
sS'drops'
p404
I0
sg106
I0
sg107
I3
sg170
(dp405
S'A'
p406
I10
sS'ME'
p407
I14
sS'RP2'
p408
I8
sS'E'
p409
I10
sS'TO'
p410
I8
sS'RP1'
p411
I11
sS'JP'
p412
I0
sS'RP_tot'
p413
I12
sS'P'
p414
I0
sS'PA'
p415
I6
sS'M'
p416
I7
sS'R'
p417
I12
sS'TB'
p418
I1
sS'PL'
p419
I11
sS'TA'
p420
I6
ssg108
(dp421
g389
I11
sg390
I14
sg391
I8
sg392
I11
sg397
I3
sg394
I15
sg395
I3
sg396
I16
sg393
I9
sg398
I7
sg399
I7
sg400
I13
sg401
I4
sg402
I11
sg403
I6
ssg109
I0
sg53
S'ALT 12'
p422
sg110
I0
sg111
I0
sg112
I0
sg113
I30
sg114
I9
sg115
I3
sg116
S'HL'
p423
sbsS'drop1'
p424
(ijoueur
joueur
p425
(dp426
g121
F9.620689655172415
sg27
I1
sg28
I0
sg31
I0
sg33
g34
(g35
g36
Ntp427
Rp428
(dp429
g40
I1
sg41
S'<'
p430
sg43
S'base'
p431
sbsg45
(dp432
S'SR'
p433
I0
sS'ST'
p434
I0
sS'CR'
p435
I2
sS'CT'
p436
I0
ssg51
(dp437
g433
I0
sg434
I0
sg435
I0
sg436
I0
ssg133
I0
sg54
I0
sg134
I00
sg55
I0
sg56
I0
sg57
I0
sg77
(S'dummy'
p438
S'C2'
p439
S'AR'
p440
S'AI'
p441
tp442
sg140
I00
sg60
g34
(g35
g36
Ntp443
Rp444
(dp445
g40
I1
sg41
g430
sg43
g431
sbsg61
(dp446
g146
I0
sg147
I0
sg148
I0
sg149
I0
ssg63
(dp447
g146
I0
sg147
I0
sg148
I2
sg149
I0
ssg65
(dp448
g146
I0
sg147
I0
sg148
I0
sg149
I0
ssg67
(dp449
g433
I0
sg434
I0
sg435
I12
sg436
I4
ssg69
I0
sg70
I0
sg71
S'Dolean'
p450
sg73
I4
sg74
I0
sg75
I13
sg76
I50
sg58
g59
sg83
(dp451
S'A'
p452
I8
sS'ME'
p453
I3
sS'RP2'
p454
I10
sS'E'
p455
I10
sS'P'
p456
I8
sS'RP1'
p457
I6
sS'JP'
p458
I8
sS'RP_tot'
p459
I10
sS'TO'
p460
I5
sS'PA'
p461
I11
sS'M'
p462
I9
sS'R'
p463
I6
sS'TB'
p464
I7
sS'PL'
p465
I11
sS'TA'
p466
I2
ssg100
I0
sg101
I0
sg102
I0
sg103
I0
sg104
F9.517241379310345
sg105
I0
sg106
I0
sg107
I0
sg170
(dp467
S'A'
p468
I8
sS'ME'
p469
I3
sS'RP2'
p470
I10
sS'E'
p471
I10
sS'P'
p472
I8
sS'RP1'
p473
I6
sS'JP'
p474
I8
sS'RP_tot'
p475
I10
sS'TO'
p476
I5
sS'PA'
p477
I11
sS'M'
p478
I10
sS'R'
p479
I6
sS'TB'
p480
I7
sS'PL'
p481
I11
sS'TA'
p482
I2
ssg108
(dp483
g452
I8
sg453
I3
sg454
I10
sg455
I10
sg460
I5
sg457
I6
sg458
I8
sg459
I10
sg456
I8
sg461
I11
sg462
I9
sg463
I6
sg464
I7
sg465
I11
sg466
I2
ssg109
I0
sg53
S'FS 12'
p484
sg110
I0
sg111
I0
sg112
I0
sg113
I8
sg114
I8
sg115
I0
sg116
S'ES'
p485
sbsS'drop2'
p486
g119
sS'SA_remp2'
p487
(ijoueur
joueur
p488
(dp489
g121
F8.037037037037036
sg27
I0
sg28
I0
sg31
I0
sg33
g34
(g35
g36
Ntp490
Rp491
(dp492
g40
I1
sg41
S'<'
p493
sg43
g340
sbsg45
(dp494
g128
I0
sg129
I0
sg130
I0
sg131
I0
ssg51
(dp495
g128
I0
sg129
I0
sg130
I0
sg131
I0
ssg133
I0
sg54
I0
sg134
I00
sg55
I0
sg56
I0
sg57
I0
sg77
(g135
S'DL'
p496
S'PI'
p497
g30
tp498
sg140
I00
sg60
g34
(g35
g36
Ntp499
Rp500
(dp501
g40
I1
sg41
g493
sg43
g340
sbsg61
(dp502
g146
I0
sg147
I0
sg148
I1
sg149
I0
ssg63
(dp503
g146
I0
sg147
I0
sg148
I0
sg149
I0
ssg65
(dp504
g146
I0
sg147
I0
sg148
I0
sg149
I0
ssg67
(dp505
g128
I0
sg129
I0
sg130
I1
sg131
I0
ssg69
I0
sg70
I0
sg71
S'Mrid'
p506
sg73
I0
sg74
I0
sg75
I14
sg76
I20
sg58
g59
sg83
(dp507
g155
I7
sg156
I10
sg157
I7
sg158
I7
sg163
I5
sg160
I8
sg161
I3
sg162
I8
sg159
I9
sg164
I6
sg165
I9
sg166
I8
sg167
I4
sg168
I9
sg169
I5
ssg100
I1
sg101
I0
sg102
I0
sg103
I0
sg104
F8.352941176470589
sg105
I0
sg106
I0
sg107
I0
sg170
(dp508
g172
I7
sg173
I10
sg174
I7
sg175
I7
sg176
I7
sg177
I8
sg178
I3
sg179
I8
sg180
I5
sg181
I6
sg182
I9
sg183
I8
sg184
I4
sg185
I8
sg186
I5
ssg108
g507
sg109
I0
sg53
S'DKW 10'
p509
sg110
I0
sg111
I0
sg112
I0
sg113
I2
sg114
I2
sg115
I0
sg116
S'HB'
p510
sbssS'totaux'
p511
(dp512
g19
I0
sg20
I0
sg21
I0
ssS'_compo_defaut_fatigue'
p513
Nsg83
(dp514
g4
I0
sg5
I0
sg6
I0
sg7
I0
sg8
I0
sg9
I0
sg10
I0
sg11
I0
sg12
I0
sg13
I0
sg14
I0
sg15
I0
sg16
I0
ssS'joueurs'
p515
(dp516
S'n12'
p517
(ijoueur
joueur
p518
(dp519
g121
F9.620689655172415
sg27
I1
sg28
I0
sg31
I0
sg33
g34
(g35
g36
Ntp520
Rp521
(dp522
g40
I1
sg41
S'<'
p523
sg43
S'base'
p524
sbsg45
(dp525
S'SR'
p526
I0
sS'CT'
p527
I0
sS'CR'
p528
I2
sS'ST'
p529
I0
ssg51
(dp530
g526
I0
sg527
I0
sg528
I0
sg529
I0
ssg133
I0
sg54
I0
sg134
I00
sg55
I0
sg56
I0
sg57
I0
sg77
(S'dummy'
p531
S'C2'
p532
S'AR'
p533
S'AI'
p534
tp535
sg140
I00
sg60
g34
(g35
g36
Ntp536
Rp537
(dp538
g40
I1
sg41
g523
sg43
g524
sbsg61
(dp539
S'SR'
p540
I0
sS'ST'
p541
I0
sS'CR'
p542
I0
sS'CT'
p543
I0
ssg63
(dp544
g540
I0
sg541
I0
sg542
I2
sg543
I0
ssg65
(dp545
g540
I0
sg541
I0
sg542
I0
sg543
I0
ssg67
(dp546
g526
I0
sg527
I4
sg528
I12
sg529
I0
ssg69
I0
sg70
I0
sg71
S'Dolean'
p547
sg73
I4
sg74
I0
sg75
I13
sg76
I50
sg58
S'TO'
p548
sg83
(dp549
S'A'
p550
I8
sS'ME'
p551
I3
sS'RP2'
p552
I10
sS'E'
p553
I10
sS'TO'
p554
I5
sS'RP1'
p555
I6
sS'JP'
p556
I8
sS'RP_tot'
p557
I10
sS'P'
p558
I8
sS'PA'
p559
I11
sS'M'
p560
I9
sS'R'
p561
I6
sS'TB'
p562
I7
sS'PL'
p563
I11
sS'TA'
p564
I2
ssg100
I0
sg101
I0
sg102
I0
sg103
I0
sg104
F9.517241379310345
sg105
I0
sg106
I0
sg107
I0
sg170
(dp565
S'A'
p566
I8
sS'ME'
p567
I3
sS'RP2'
p568
I10
sS'E'
p569
I10
sS'TO'
p570
I5
sS'RP1'
p571
I6
sS'JP'
p572
I8
sS'RP_tot'
p573
I10
sS'P'
p574
I8
sS'PA'
p575
I11
sS'M'
p576
I10
sS'R'
p577
I6
sS'TB'
p578
I7
sS'PL'
p579
I11
sS'TA'
p580
I2
ssg108
(dp581
g550
I8
sg551
I3
sg552
I10
sg553
I10
sg558
I8
sg555
I6
sg556
I8
sg557
I10
sg554
I5
sg559
I11
sg560
I9
sg561
I6
sg562
I7
sg563
I11
sg564
I2
ssg109
I0
sg53
S'FS 12'
p582
sg110
I0
sg111
I0
sg112
I0
sg113
I8
sg114
I8
sg115
I0
sg116
S'ES'
p583
sbsS'n13'
p584
(ijoueur
joueur
p585
(dp586
g121
F10.413793103448276
sg27
I0
sg28
I0
sg31
I0
sg33
g34
(g35
g36
Ntp587
Rp588
(dp589
g40
I5
sg41
S'**'
p590
sg43
S'seigneur'
p591
sbsg45
(dp592
S'SR'
p593
I0
sS'ST'
p594
I0
sS'CR'
p595
I2
sS'CT'
p596
I2
ssg51
(dp597
g593
I0
sg594
I0
sg595
I0
sg596
I0
ssg133
I0
sg54
I0
sg134
I00
sg55
I1
sg56
I0
sg57
I0
sg77
(S'dummy'
p598
S'C2'
p599
S'AI'
p600
g30
tp601
sg140
I00
sg60
g34
(g35
g36
Ntp602
Rp603
(dp604
g40
I5
sg41
S'**'
p605
sg43
g591
sbsg61
(dp606
g540
I0
sg541
I0
sg542
I1
sg543
I0
ssg63
(dp607
g540
I0
sg541
I0
sg542
I2
sg543
I1
ssg65
(dp608
g540
I0
sg541
I0
sg542
I0
sg543
I0
ssg67
(dp609
g593
I5
sg594
I0
sg595
I12
sg596
I4
ssg69
I1
sg70
I0
sg71
S'De Laheault'
p610
sg73
I7
sg74
I0
sg75
I15
sg76
I264
sg58
g548
sg83
(dp611
S'A'
p612
I10
sS'ME'
p613
I7
sS'RP2'
p614
I11
sS'E'
p615
I9
sS'P'
p616
I9
sS'RP1'
p617
I9
sS'JP'
p618
I6
sS'RP_tot'
p619
I13
sS'TO'
p620
I8
sS'PA'
p621
I12
sS'M'
p622
I7
sS'R'
p623
I7
sS'TB'
p624
I7
sS'PL'
p625
I11
sS'TA'
p626
I4
ssg100
I2
sg101
I0
sg102
I0
sg103
I0
sg104
F10.137931034482758
sg105
I0
sg106
I0
sg107
I0
sg170
(dp627
S'A'
p628
I10
sS'ME'
p629
I7
sS'RP2'
p630
I11
sS'E'
p631
I9
sS'P'
p632
I9
sS'RP1'
p633
I9
sS'JP'
p634
I6
sS'RP_tot'
p635
I13
sS'TO'
p636
I8
sS'PA'
p637
I12
sS'M'
p638
I8
sS'R'
p639
I7
sS'TB'
p640
I8
sS'PL'
p641
I12
sS'TA'
p642
I4
ssg108
(dp643
g612
I10
sg613
I7
sg614
I11
sg615
I9
sg620
I8
sg617
I9
sg618
I6
sg619
I13
sg616
I9
sg621
I12
sg622
I7
sg623
I7
sg624
I7
sg625
I11
sg626
I4
ssg109
I0
sg53
g30
sg110
I0
sg111
I0
sg112
I0
sg113
I21
sg114
I17
sg115
I0
sg116
S'B'
p644
sbsS'n10'
p645
g215
sS'n11'
p646
(ijoueur
joueur
p647
(dp648
g121
F9.451612903225806
sg27
I0
sg28
I0
sg31
I0
sg33
g34
(g35
g36
Ntp649
Rp650
(dp651
g40
I1
sg41
g339
sg43
g340
sbsg45
(dp652
g128
I0
sg129
I0
sg130
I2
sg131
I0
ssg51
(dp653
g128
I0
sg129
I0
sg130
I0
sg131
I0
ssg133
I0
sg54
I0
sg134
I01
sg55
I0
sg56
I0
sg57
I0
sg77
(g135
S'AI'
p654
S'DM'
p655
g30
tp656
sg140
I00
sg60
g34
(g35
g36
Ntp657
Rp658
(dp659
g40
I1
sg41
g339
sg43
g340
sbsg61
(dp660
g146
I0
sg147
I0
sg148
I1
sg149
I0
ssg63
(dp661
g146
I0
sg147
I0
sg148
I0
sg149
I0
ssg65
(dp662
g146
I0
sg147
I0
sg148
I0
sg149
I0
ssg67
(dp663
g128
I0
sg129
I1
sg130
I4
sg131
I0
ssg69
I0
sg70
I0
sg71
S'Idlal'
p664
sg73
I8
sg74
I0
sg75
I17
sg76
I8
sg58
g59
sg83
(dp665
g155
I14
sg156
I5
sg157
I7
sg158
I8
sg159
I7
sg160
I8
sg161
I7
sg162
I8
sg163
I9
sg164
I8
sg165
I12
sg166
I4
sg167
I5
sg168
I5
sg169
I3
ssg100
I0
sg101
I0
sg102
I0
sg103
I0
sg104
F9.290322580645162
sg105
I0
sg106
I0
sg107
I0
sg170
(dp666
g172
I14
sg173
I5
sg174
I7
sg175
I8
sg176
I7
sg177
I8
sg178
I8
sg179
I8
sg180
I9
sg181
I8
sg182
I12
sg183
I4
sg184
I5
sg185
I6
sg186
I3
ssg108
(dp667
g155
I14
sg156
I5
sg157
I7
sg158
I8
sg163
I9
sg160
I8
sg161
I7
sg162
I8
sg159
I7
sg164
I8
sg165
I12
sg166
I4
sg167
I5
sg168
I5
sg169
I3
ssg109
I0
sg53
g30
sg110
I0
sg111
I0
sg112
I0
sg113
I1
sg114
I0
sg115
I0
sg116
S'HL'
p668
sbsS'n16'
p669
(ijoueur
joueur
p670
(dp671
g27
I0
sg28
I0
sg29
g30
sg31
I0
sg32
g30
sg33
g34
(g35
g36
Ntp672
Rp673
(dp674
g40
I4
sg41
S'*'
p675
sg43
S'heros'
p676
sbsg45
(dp677
S'SR'
p678
I0
sS'ST'
p679
I0
sS'CR'
p680
I0
sS'CT'
p681
I0
ssg51
(dp682
g678
I0
sg679
I0
sg680
I0
sg681
I0
ssg53
g30
sg54
I0
sg55
I0
sg56
I0
sg57
I0
sg58
g246
sg60
g34
(g35
g36
Ntp683
Rp684
(dp685
g40
I1
sg41
S'>'
p686
sg43
S'base'
p687
sbsg61
(dp688
g678
I0
sg679
I0
sg680
I0
sg681
I0
ssg63
(dp689
g678
I0
sg679
I0
sg680
I0
sg681
I0
ssg65
(dp690
g678
I0
sg679
I0
sg680
I0
sg681
I0
ssg67
(dp691
g678
I0
sg679
I0
sg680
I0
sg681
I0
ssg69
I0
sg70
I0
sg71
S'Hublal'
p692
sg73
I12
sg74
I0
sg75
I21
sg76
I9
sg77
(S'dummy'
p693
S'TA'
p694
g30
g30
tp695
sg82
g30
sg83
(dp696
S'RP1'
p697
I7
sS'ME'
p698
I7
sS'RP2'
p699
I8
sS'E'
p700
I7
sS'P'
p701
I5
sS'JP'
p702
I3
sS'M'
p703
I9
sS'RP_tot'
p704
I8
sS'TO'
p705
I6
sS'PA'
p706
I7
sS'A'
p707
I7
sS'R'
p708
I6
sS'TB'
p709
I4
sS'PL'
p710
I5
sS'TA'
p711
I9
ssg100
I0
sg101
I0
sg102
I0
sg103
I0
sg104
F7.0
sg105
I0
sg106
I0
sg107
I0
sg108
(dp712
g697
I7
sg698
I7
sg699
I8
sg700
I7
sg705
I6
sg703
I9
sg702
I3
sg704
I8
sg701
I5
sg706
I7
sg707
I7
sg708
I6
sg709
I4
sg710
I5
sg711
I9
ssg109
I0
sg110
I0
sg111
I0
sg112
I0
sg113
I0
sg114
I0
sg115
I0
sg116
S'HL'
p713
sbsS'n17'
p714
(ijoueur
joueur
p715
(dp716
g121
F9.851851851851851
sg27
I0
sg28
I0
sg31
I0
sg33
g34
(g35
g36
Ntp717
Rp718
(dp719
g40
I4
sg41
S'*'
p720
sg43
S'heros'
p721
sbsg45
(dp722
S'SR'
p723
I0
sS'CT'
p724
I0
sS'CR'
p725
I0
sS'ST'
p726
I0
ssg51
(dp727
g723
I0
sg724
I0
sg725
I0
sg726
I0
ssg133
I0
sg54
I0
sg134
I00
sg55
I1
sg56
I0
sg57
I0
sg77
(S'dummy'
p728
S'PI'
p729
g30
g30
tp730
sg140
I00
sg60
g34
(g35
g36
Ntp731
Rp732
(dp733
g40
I4
sg41
g720
sg43
g721
sbsg61
(dp734
g238
I0
sg239
I0
sg240
I5
sg241
I3
ssg63
(dp735
g238
I0
sg239
I0
sg240
I0
sg241
I0
ssg65
(dp736
g238
I0
sg239
I0
sg240
I0
sg241
I0
ssg67
(dp737
g723
I0
sg724
I10
sg725
I12
sg726
I0
ssg69
I0
sg70
I0
sg71
S'Gofedr'
p738
sg73
I7
sg74
I0
sg75
I17
sg76
I416
sg58
g246
sg83
(dp739
S'A'
p740
I6
sS'ME'
p741
I12
sS'RP2'
p742
I8
sS'E'
p743
I9
sS'TO'
p744
I8
sS'RP1'
p745
I10
sS'JP'
p746
I2
sS'RP_tot'
p747
I11
sS'P'
p748
I5
sS'PA'
p749
I10
sS'M'
p750
I8
sS'R'
p751
I10
sS'TB'
p752
I5
sS'PL'
p753
I9
sS'TA'
p754
I8
ssg100
I7
sg101
I0
sg102
I0
sg103
I0
sg104
F9.851851851851851
sg105
I0
sg106
I0
sg107
I0
sg170
(dp755
S'A'
p756
I6
sS'ME'
p757
I12
sS'RP2'
p758
I8
sS'E'
p759
I9
sS'TO'
p760
I8
sS'RP1'
p761
I10
sS'JP'
p762
I2
sS'RP_tot'
p763
I11
sS'P'
p764
I5
sS'PA'
p765
I10
sS'M'
p766
I8
sS'R'
p767
I10
sS'TB'
p768
I5
sS'PL'
p769
I9
sS'TA'
p770
I7
ssg108
(dp771
g740
I6
sg741
I12
sg742
I8
sg743
I9
sg748
I5
sg745
I10
sg746
I2
sg747
I11
sg744
I8
sg749
I10
sg750
I8
sg751
I10
sg752
I5
sg753
I9
sg754
I8
ssg109
I0
sg53
S'SN 10;KH 12'
p772
sg110
I0
sg111
I0
sg112
I0
sg113
I7
sg114
I6
sg115
I0
sg116
S'HB'
p773
sbsS'n14'
p774
(ijoueur
joueur
p775
(dp776
g121
F10.310344827586206
sg27
I0
sg28
I0
sg31
I0
sg33
g34
(g35
g36
Ntp777
Rp778
(dp779
g40
I2
sg41
S'<<'
p780
sg43
S'special'
p781
sbsg45
(dp782
S'SR'
p783
I0
sS'ST'
p784
I0
sS'CR'
p785
I5
sS'CT'
p786
I3
ssg51
(dp787
g783
I0
sg784
I0
sg785
I6
sg786
I0
ssg133
I0
sg54
I0
sg134
I00
sg55
I0
sg56
I0
sg57
I0
sg77
(S'dummy'
p788
S'C2'
p789
S'AI'
p790
S'AR'
p791
tp792
sg140
I00
sg60
g34
(g35
g36
Ntp793
Rp794
(dp795
g40
I2
sg41
S'<<'
p796
sg43
g781
sbsg61
(dp797
S'SR'
p798
I0
sS'CT'
p799
I1
sS'CR'
p800
I5
sS'ST'
p801
I0
ssg63
(dp802
g798
I0
sg799
I1
sg800
I0
sg801
I0
ssg65
(dp803
g798
I0
sg799
I0
sg800
I1
sg801
I0
ssg67
(dp804
g783
I0
sg784
I0
sg785
I5
sg786
I3
ssg69
I0
sg70
I0
sg71
S'Dendaenol'
p805
sg73
I1
sg74
I0
sg75
I10
sg76
I100
sg58
S'TO'
p806
sg83
(dp807
S'A'
p808
I10
sS'ME'
p809
I6
sS'RP2'
p810
I6
sS'E'
p811
I12
sS'P'
p812
I9
sS'RP1'
p813
I11
sS'JP'
p814
I7
sS'RP_tot'
p815
I11
sS'TO'
p816
I7
sS'PA'
p817
I10
sS'M'
p818
I10
sS'R'
p819
I5
sS'TB'
p820
I9
sS'PL'
p821
I12
sS'TA'
p822
I3
ssg100
I7
sg101
I0
sg102
I1
sg103
I0
sg104
F10.310344827586206
sg105
I0
sg106
I0
sg107
I0
sg170
(dp823
S'A'
p824
I10
sS'ME'
p825
I6
sS'RP2'
p826
I6
sS'E'
p827
I12
sS'P'
p828
I9
sS'RP1'
p829
I11
sS'JP'
p830
I7
sS'RP_tot'
p831
I11
sS'TO'
p832
I7
sS'PA'
p833
I10
sS'M'
p834
I10
sS'R'
p835
I5
sS'TB'
p836
I9
sS'PL'
p837
I12
sS'TA'
p838
I3
ssg108
(dp839
g808
I10
sg809
I6
sg810
I6
sg811
I12
sg816
I7
sg813
I11
sg814
I7
sg815
I11
sg812
I9
sg817
I10
sg818
I10
sg819
I5
sg820
I9
sg821
I12
sg822
I3
ssg109
I0
sg53
S'SN 12'
p840
sg110
I0
sg111
I0
sg112
I0
sg113
I12
sg114
I20
sg115
I0
sg116
S'EN'
p841
sbsS'n15'
p842
(ijoueur
joueur
p843
(dp844
g121
F8.818181818181818
sg27
I0
sg28
I0
sg31
I0
sg33
g34
(g35
g36
Ntp845
Rp846
(dp847
g40
I1
sg41
g339
sg43
g340
sbsg45
(dp848
g128
I0
sg129
I4
sg130
I6
sg131
I0
ssg51
(dp849
g128
I0
sg129
I0
sg130
I1
sg131
I0
ssg133
I0
sg54
I0
sg134
I01
sg55
I0
sg56
I0
sg57
I0
sg77
(g135
S'AR'
p850
S'AI'
p851
S'DO'
p852
tp853
sg140
I00
sg60
g34
(g35
g36
Ntp854
Rp855
(dp856
g40
I1
sg41
g339
sg43
g340
sbsg61
(dp857
g146
I0
sg147
I0
sg148
I0
sg149
I0
ssg63
(dp858
g146
I0
sg147
I0
sg148
I0
sg149
I0
ssg65
(dp859
g146
I0
sg147
I0
sg148
I0
sg149
I0
ssg67
(dp860
g128
I0
sg129
I0
sg130
I4
sg131
I0
ssg69
I0
sg70
I0
sg71
S'Iroad'
p861
sg73
I3
sg74
I0
sg75
I15
sg76
I4
sg58
g59
sg83
(dp862
g155
I11
sg156
I4
sg157
I10
sg158
I7
sg159
I5
sg160
I6
sg161
I6
sg162
I10
sg163
I7
sg164
I6
sg165
I14
sg166
I5
sg167
I6
sg168
I7
sg169
I6
ssg100
I0
sg101
I0
sg102
I0
sg103
I0
sg104
F8.818181818181818
sg105
I0
sg106
I0
sg107
I0
sg170
(dp863
g172
I11
sg173
I4
sg174
I10
sg175
I7
sg176
I5
sg177
I6
sg178
I6
sg179
I10
sg180
I7
sg181
I6
sg182
I14
sg183
I5
sg184
I6
sg185
I7
sg186
I6
ssg108
(dp864
g155
I11
sg156
I4
sg157
I10
sg158
I7
sg163
I7
sg160
I6
sg161
I6
sg162
I10
sg159
I5
sg164
I6
sg165
I14
sg166
I5
sg167
I6
sg168
I7
sg169
I6
ssg109
I0
sg53
g30
sg110
I0
sg111
I0
sg112
I0
sg113
I1
sg114
I3
sg115
I0
sg116
S'HL'
p865
sbsS'n18'
p866
(ijoueur
joueur
p867
(dp868
g121
F11.296296296296296
sg27
I0
sg28
I0
sg31
I0
sg33
g34
(g35
g36
Ntp869
Rp870
(dp871
g40
I4
sg41
S'x'
p872
sg43
S'heros'
p873
sbsg45
(dp874
S'SR'
p875
I0
sS'ST'
p876
I0
sS'CR'
p877
I0
sS'CT'
p878
I0
ssg51
(dp879
g875
I0
sg876
I0
sg877
I0
sg878
I0
ssg133
I0
sg104
F12.407407407407407
sg54
I0
sg372
I0
sg373
I0
sg55
I1
sg56
I0
sg57
I0
sg77
(S'dummy'
p880
S'DL'
p881
S'N8'
p882
S'TL'
p883
tp884
sg140
I00
sg60
g34
(g35
g36
Ntp885
Rp886
(dp887
g40
I5
sg41
S'**'
p888
sg43
S'seigneur'
p889
sbsg61
(dp890
g238
I0
sg239
I0
sg240
I0
sg241
I8
ssg134
I00
sg65
(dp891
g238
I0
sg239
I0
sg240
I0
sg241
I0
ssg67
(dp892
g875
I0
sg876
I6
sg877
I1
sg878
I22
ssg69
I0
sg70
I0
sg71
S'Kadraq'
p893
sg73
I4
sg74
I0
sg75
I17
sg76
I349
sg58
g246
sg83
(dp894
S'A'
p895
I10
sS'ME'
p896
I14
sS'RP2'
p897
I8
sS'E'
p898
I11
sS'P'
p899
I3
sS'RP1'
p900
I15
sS'JP'
p901
I3
sS'RP_tot'
p902
I16
sS'TO'
p903
I9
sS'PA'
p904
I7
sS'M'
p905
I7
sS'R'
p906
I12
sS'TB'
p907
I4
sS'PL'
p908
I10
sS'TA'
p909
I6
ssg100
I11
sg101
I0
sg102
I0
sg103
I0
sg63
(dp910
g238
I0
sg239
I0
sg240
I0
sg241
I0
ssg105
I0
sg404
I0
sg106
I0
sg107
I3
sg170
(dp911
S'A'
p912
I10
sS'ME'
p913
I14
sS'RP2'
p914
I8
sS'E'
p915
I10
sS'P'
p916
I0
sS'RP1'
p917
I11
sS'JP'
p918
I0
sS'RP_tot'
p919
I12
sS'TO'
p920
I8
sS'PA'
p921
I6
sS'M'
p922
I7
sS'R'
p923
I12
sS'TB'
p924
I1
sS'PL'
p925
I11
sS'TA'
p926
I6
ssg108
(dp927
g895
I11
sg896
I14
sg897
I8
sg898
I11
sg903
I9
sg900
I15
sg901
I3
sg902
I16
sg899
I3
sg904
I7
sg905
I7
sg906
I13
sg907
I4
sg908
I11
sg909
I6
ssg109
I0
sg53
S'ALT 12'
p928
sg110
I0
sg111
I0
sg112
I0
sg113
I30
sg114
I9
sg115
I3
sg116
S'HL'
p929
sbsS'n19'
p930
(ijoueur
joueur
p931
(dp932
g121
F10.666666666666666
sg27
I1
sg28
I0
sg31
I0
sg33
g34
(g35
g36
Ntp933
Rp934
(dp935
g40
I4
sg41
S'x'
p936
sg43
S'heros'
p937
sbsg45
(dp938
g223
I0
sg224
I0
sg225
I0
sg226
I1
ssg51
(dp939
g223
I0
sg224
I0
sg225
I0
sg226
I17
ssg133
I0
sg54
I0
sg134
I00
sg55
I4
sg56
I0
sg57
I0
sg77
(g228
S'N8'
p940
S'DL'
p941
S'TL'
p942
tp943
sg140
I00
sg60
g34
(g35
g36
Ntp944
Rp945
(dp946
g40
I4
sg41
g936
sg43
g937
sbsg61
(dp947
g238
I0
sg239
I0
sg240
I3
sg241
I0
ssg63
(dp948
g238
I0
sg239
I0
sg240
I0
sg241
I1
ssg65
(dp949
g238
I0
sg239
I0
sg240
I0
sg241
I4
ssg67
(dp950
g223
I0
sg224
I0
sg225
I3
sg226
I0
ssg69
I0
sg70
I0
sg71
S'Hydoel'
p951
sg73
I3
sg74
I0
sg75
I12
sg76
I240
sg58
g246
sg83
(dp952
g248
I9
sg249
I7
sg250
I7
sg251
I10
sg252
I4
sg253
I11
sg254
I3
sg255
I11
sg256
I9
sg257
I9
sg258
I7
sg259
I10
sg260
I3
sg261
I12
sg262
I4
ssg100
I12
sg101
I0
sg102
I0
sg103
I0
sg104
F10.482758620689655
sg105
I0
sg106
I0
sg107
I0
sg170
(dp953
g264
I11
sg265
I7
sg266
I7
sg267
I10
sg268
I4
sg269
I11
sg270
I3
sg271
I11
sg272
I11
sg273
I9
sg274
I7
sg275
I11
sg276
I3
sg277
I13
sg278
I4
ssg108
(dp954
g248
I10
sg249
I7
sg250
I7
sg251
I10
sg256
I9
sg253
I11
sg254
I3
sg255
I11
sg252
I4
sg257
I9
sg258
I7
sg259
I11
sg260
I3
sg261
I13
sg262
I4
ssg109
I0
sg53
S'QNL 10'
p955
sg110
I0
sg111
I0
sg112
I0
sg113
I24
sg114
I10
sg115
I0
sg116
S'CHS'
p956
sbsS'n22'
p957
(ijoueur
joueur
p958
(dp959
g121
F9.0
sg27
I0
sg28
I0
sg31
I0
sg33
g34
(g35
g36
Ntp960
Rp961
(dp962
g40
I3
sg41
S'^^^'
p963
sg43
S'rare'
p964
sbsg45
(dp965
g128
I0
sg129
I0
sg130
I0
sg131
I0
ssg51
(dp966
g128
I0
sg129
I0
sg130
I0
sg131
I0
ssg133
I0
sg54
I0
sg134
I00
sg55
I0
sg56
I0
sg57
I0
sg77
(g135
S'AI'
p967
g30
g30
tp968
sg140
I00
sg60
g34
(g35
g36
Ntp969
Rp970
(dp971
g40
I3
sg41
S'^^^'
p972
sg43
g964
sbsg61
(dp973
g146
I0
sg147
I0
sg148
I0
sg149
I0
ssg63
(dp974
g146
I0
sg147
I0
sg148
I0
sg149
I0
ssg65
(dp975
g146
I0
sg147
I0
sg148
I0
sg149
I0
ssg67
(dp976
g128
I0
sg129
I0
sg130
I4
sg131
I0
ssg69
I0
sg70
I0
sg71
S'Duumd'
p977
sg73
I3
sg74
I0
sg75
I16
sg76
I65
sg58
g59
sg83
(dp978
g155
I10
sg156
I7
sg157
I5
sg158
I9
sg159
I3
sg160
I10
sg161
I2
sg162
I10
sg163
I3
sg164
I7
sg165
I12
sg166
I5
sg167
I2
sg168
I8
sg169
I6
ssg100
I0
sg101
I0
sg102
I0
sg103
I0
sg104
F9.0
sg105
I0
sg106
I0
sg107
I0
sg170
(dp979
g172
I10
sg173
I7
sg174
I5
sg175
I9
sg176
I3
sg177
I10
sg178
I2
sg179
I10
sg180
I3
sg181
I7
sg182
I12
sg183
I5
sg184
I2
sg185
I8
sg186
I6
ssg108
(dp980
g155
I10
sg156
I7
sg157
I5
sg158
I9
sg163
I3
sg160
I10
sg161
I2
sg162
I10
sg159
I3
sg164
I7
sg165
I12
sg166
I5
sg167
I2
sg168
I8
sg169
I6
ssg109
I0
sg53
g30
sg110
I0
sg111
I0
sg112
I0
sg113
I7
sg114
I7
sg115
I0
sg116
S'HL'
p981
sbsS'n21'
p982
(ijoueur
joueur
p983
(dp984
g121
F7.827586206896552
sg27
I0
sg28
I0
sg31
I0
sg33
g34
(g35
g36
Ntp985
Rp986
(dp987
g40
I1
sg41
S'^'
p988
sg43
g340
sbsg45
(dp989
g128
I0
sg129
I0
sg130
I0
sg131
I0
ssg51
(dp990
g128
I0
sg129
I0
sg130
I0
sg131
I0
ssg133
I0
sg54
I0
sg134
I00
sg55
I0
sg56
I0
sg57
I0
sg77
(g135
S'C2'
p991
S'AI'
p992
g30
tp993
sg140
I00
sg60
g34
(g35
g36
Ntp994
Rp995
(dp996
g40
I1
sg41
g988
sg43
g340
sbsg61
(dp997
g146
I0
sg147
I0
sg148
I0
sg149
I0
ssg63
(dp998
g146
I0
sg147
I0
sg148
I0
sg149
I0
ssg65
(dp999
g146
I0
sg147
I0
sg148
I0
sg149
I0
ssg67
(dp1000
g128
I0
sg129
I0
sg130
I0
sg131
I0
ssg69
I0
sg70
I0
sg71
S'Amdaad'
p1001
sg73
I11
sg74
I0
sg75
I23
sg76
I35
sg58
g59
sg83
(dp1002
g155
I6
sg156
I6
sg157
I8
sg158
I11
sg159
I3
sg160
I8
sg161
I5
sg162
I9
sg163
I6
sg164
I6
sg165
I9
sg166
I8
sg167
I6
sg168
I9
sg169
I5
ssg100
I0
sg101
I0
sg102
I0
sg103
I0
sg104
F8.137931034482758
sg105
I0
sg106
I0
sg107
I0
sg170
(dp1003
g172
I6
sg173
I6
sg174
I8
sg175
I10
sg176
I3
sg177
I8
sg178
I5
sg179
I9
sg180
I6
sg181
I6
sg182
I9
sg183
I8
sg184
I6
sg185
I8
sg186
I5
ssg108
(dp1004
g155
I6
sg156
I6
sg157
I8
sg158
I11
sg163
I6
sg160
I8
sg161
I5
sg162
I9
sg159
I3
sg164
I6
sg165
I9
sg166
I8
sg167
I6
sg168
I9
sg169
I5
ssg109
I0
sg53
g30
sg110
I0
sg111
I0
sg112
I0
sg113
I2
sg114
I0
sg115
I0
sg116
S'HL'
p1005
sbsS'n20'
p1006
g334
sS'n8'
p1007
(ijoueur
joueur
p1008
(dp1009
g121
F11.379310344827585
sg27
I0
sg28
I0
sg31
I0
sg33
g34
(g35
g36
Ntp1010
Rp1011
(dp1012
g40
I5
sg41
S'xx'
p1013
sg43
g221
sbsg45
(dp1014
g223
I2
sg224
I1
sg225
I0
sg226
I0
ssg51
(dp1015
g223
I0
sg224
I0
sg225
I0
sg226
I0
ssg133
I0
sg54
I0
sg134
I00
sg55
I2
sg56
I0
sg57
I0
sg77
(g228
S'N8'
p1016
S'TL'
p1017
g30
tp1018
sg140
I00
sg60
g34
(g35
g36
Ntp1019
Rp1020
(dp1021
g40
I5
sg41
S'xx'
p1022
sg43
g221
sbsg61
(dp1023
g238
I0
sg239
I0
sg240
I0
sg241
I8
ssg63
(dp1024
g238
I0
sg239
I0
sg240
I0
sg241
I0
ssg65
(dp1025
g238
I0
sg239
I0
sg240
I0
sg241
I0
ssg67
(dp1026
g223
I3
sg224
I0
sg225
I0
sg226
I21
ssg69
I0
sg70
I0
sg71
S'Slaandal'
p1027
sg73
I3
sg74
I0
sg75
I13
sg76
I350
sg58
g246
sg83
(dp1028
g248
I9
sg249
I12
sg250
I7
sg251
I13
sg252
I3
sg253
I14
sg254
I2
sg255
I14
sg256
I8
sg257
I7
sg258
I8
sg259
I10
sg260
I4
sg261
I9
sg262
I6
ssg100
I14
sg101
I0
sg102
I0
sg103
I0
sg104
F11.379310344827585
sg105
I0
sg106
I0
sg107
I1
sg170
(dp1029
g264
I10
sg265
I12
sg266
I7
sg267
I13
sg268
I3
sg269
I14
sg270
I2
sg271
I14
sg272
I8
sg273
I7
sg274
I8
sg275
I11
sg276
I4
sg277
I10
sg278
I6
ssg108
(dp1030
g248
I10
sg249
I12
sg250
I7
sg251
I13
sg256
I8
sg253
I14
sg254
I2
sg255
I14
sg252
I3
sg257
I7
sg258
I8
sg259
I11
sg260
I4
sg261
I10
sg262
I6
ssg109
I0
sg53
g30
sg110
I0
sg111
I0
sg112
I0
sg113
I35
sg114
I20
sg115
I0
sg116
S'HL'
p1031
sbsS'n9'
p1032
(ijoueur
joueur
p1033
(dp1034
g121
F7.862068965517241
sg27
I0
sg28
I0
sg31
I0
sg33
g34
(g35
g36
Ntp1035
Rp1036
(dp1037
g40
I4
sg41
S'*'
p1038
sg43
g937
sbsg45
(dp1039
g223
I0
sg224
I0
sg225
I0
sg226
I0
ssg51
(dp1040
g223
I0
sg224
I0
sg225
I0
sg226
I0
ssg133
I0
sg54
I0
sg134
I00
sg55
I2
sg56
I0
sg57
I0
sg77
(g228
S'DM'
p1041
g30
g30
tp1042
sg140
I00
sg60
g1036
sg61
(dp1043
g238
I0
sg239
I0
sg240
I1
sg241
I3
ssg63
(dp1044
g238
I0
sg239
I0
sg240
I0
sg241
I0
ssg65
(dp1045
g238
I0
sg239
I0
sg240
I0
sg241
I0
ssg67
(dp1046
g223
I0
sg224
I0
sg225
I1
sg226
I3
ssg69
I0
sg70
I0
sg71
S"Qlep'Kek"
p1047
sg73
I10
sg74
I0
sg75
I23
sg76
I67
sg58
g246
sg83
(dp1048
g248
I10
sg249
I6
sg250
I9
sg251
I11
sg252
I9
sg253
I10
sg254
I8
sg255
I12
sg256
I7
sg257
I12
sg258
I10
sg259
I7
sg260
I10
sg261
I9
sg262
I7
ssg100
I7
sg101
I0
sg102
I0
sg103
I0
sg104
F10.241379310344827
sg105
I0
sg106
I0
sg107
I0
sg170
(dp1049
g264
I7
sg265
I6
sg266
I8
sg267
I11
sg268
I4
sg269
I10
sg270
I3
sg271
I11
sg272
I5
sg273
I8
sg274
I10
sg275
I7
sg276
I4
sg277
I8
sg278
I7
ssg108
(dp1050
g248
I10
sg249
I6
sg250
I9
sg251
I11
sg256
I7
sg253
I10
sg254
I8
sg255
I12
sg252
I9
sg257
I12
sg258
I10
sg259
I7
sg260
I10
sg261
I9
sg262
I7
ssg109
I0
sg53
g30
sg110
I0
sg111
I0
sg112
I0
sg113
I7
sg114
I2
sg115
I0
sg116
S'HL'
p1051
sbsS'n1'
p1052
(ijoueur
joueur
p1053
(dp1054
g121
F8.518518518518519
sg27
I0
sg28
I0
sg31
I0
sg33
g34
(g35
g36
Ntp1055
Rp1056
(dp1057
g40
I1
sg41
S'^'
p1058
sg43
S'base'
p1059
sbsg45
(dp1060
g223
I0
sg224
I0
sg225
I0
sg226
I0
ssg51
(dp1061
g223
I0
sg224
I0
sg225
I0
sg226
I0
ssg133
I0
sg54
I0
sg134
I00
sg55
I0
sg56
I0
sg57
I0
sg77
(g228
S'PI'
p1062
g30
g30
tp1063
sg140
I00
sg60
g34
(g35
g36
Ntp1064
Rp1065
(dp1066
g40
I1
sg41
g1058
sg43
g1059
sbsg61
(dp1067
g238
I0
sg239
I0
sg240
I2
sg241
I0
ssg63
(dp1068
g238
I0
sg239
I0
sg240
I0
sg241
I0
ssg65
(dp1069
g238
I0
sg239
I0
sg240
I0
sg241
I0
ssg67
(dp1070
g223
I0
sg224
I0
sg225
I3
sg226
I0
ssg69
I0
sg70
I0
sg71
S'Klopek'
p1071
sg73
I11
sg74
I0
sg75
I21
sg76
I41
sg58
g246
sg83
(dp1072
g248
I5
sg249
I8
sg250
I6
sg251
I10
sg252
I1
sg253
I10
sg254
I0
sg255
I10
sg256
I4
sg257
I5
sg258
I7
sg259
I10
sg260
I0
sg261
I8
sg262
I9
ssg100
I2
sg101
I0
sg102
I0
sg103
I0
sg104
F8.666666666666666
sg105
I0
sg106
I0
sg107
I0
sg170
(dp1073
g264
I5
sg265
I8
sg266
I6
sg267
I10
sg268
I1
sg269
I9
sg270
I0
sg271
I9
sg272
I4
sg273
I5
sg274
I7
sg275
I10
sg276
I0
sg277
I8
sg278
I8
ssg108
(dp1074
g248
I5
sg249
I8
sg250
I6
sg251
I10
sg256
I4
sg253
I10
sg254
I0
sg255
I10
sg252
I1
sg257
I5
sg258
I7
sg259
I10
sg260
I0
sg261
I8
sg262
I9
ssg109
I0
sg53
g30
sg110
I0
sg111
I0
sg112
I0
sg113
I2
sg114
I0
sg115
I0
sg116
S'HL'
p1075
sbsS'n2'
p1076
(ijoueur
joueur
p1077
(dp1078
g121
F8.758620689655173
sg27
I0
sg28
I0
sg31
I0
sg33
g34
(g35
g36
Ntp1079
Rp1080
(dp1081
g40
I1
sg41
S'>'
p1082
sg43
g1059
sbsg45
(dp1083
g223
I0
sg224
I0
sg225
I2
sg226
I0
ssg51
(dp1084
g223
I0
sg224
I0
sg225
I0
sg226
I0
ssg133
I0
sg54
I0
sg134
I00
sg55
I0
sg56
I0
sg57
I0
sg77
(g228
S'TA'
p1085
S'PI'
p1086
g30
tp1087
sg140
I00
sg60
g34
(g35
g36
Ntp1088
Rp1089
(dp1090
g40
I1
sg41
g1082
sg43
g1059
sbsg61
(dp1091
g238
I0
sg239
I0
sg240
I1
sg241
I0
ssg63
(dp1092
g238
I0
sg239
I0
sg240
I0
sg241
I0
ssg65
(dp1093
g238
I0
sg239
I0
sg240
I0
sg241
I0
ssg67
(dp1094
g223
I0
sg224
I0
sg225
I4
sg226
I0
ssg69
I0
sg70
I0
sg71
S'Ikmelet'
p1095
sg73
I11
sg74
I0
sg75
I20
sg76
I21
sg58
g246
sg83
(dp1096
g248
I7
sg249
I9
sg250
I7
sg251
I10
sg252
I2
sg253
I10
sg254
I0
sg255
I10
sg256
I2
sg257
I6
sg258
I7
sg259
I7
sg260
I0
sg261
I9
sg262
I9
ssg100
I2
sg101
I0
sg102
I0
sg103
I0
sg104
F8.551724137931034
sg105
I0
sg106
I0
sg107
I0
sg170
(dp1097
g264
I7
sg265
I9
sg266
I7
sg267
I10
sg268
I2
sg269
I10
sg270
I0
sg271
I10
sg272
I2
sg273
I6
sg274
I7
sg275
I8
sg276
I0
sg277
I9
sg278
I9
ssg108
(dp1098
g248
I7
sg249
I9
sg250
I7
sg251
I10
sg256
I2
sg253
I10
sg254
I0
sg255
I10
sg252
I2
sg257
I6
sg258
I7
sg259
I7
sg260
I0
sg261
I9
sg262
I9
ssg109
I0
sg53
g30
sg110
I0
sg111
I0
sg112
I0
sg113
I3
sg114
I0
sg115
I0
sg116
S'HL'
p1099
sbsS'n3'
p1100
(ijoueur
joueur
p1101
(dp1102
g121
F7.793103448275862
sg27
I0
sg28
I0
sg31
I0
sg33
g34
(g35
g36
Ntp1103
Rp1104
(dp1105
g40
I4
sg41
g1038
sg43
g937
sbsg45
(dp1106
g223
I0
sg224
I0
sg225
I0
sg226
I0
ssg51
(dp1107
g223
I0
sg224
I0
sg225
I0
sg226
I0
ssg133
I0
sg54
I0
sg134
I00
sg55
I0
sg56
I0
sg57
I0
sg77
(g228
S'PI'
p1108
S'TA'
p1109
g30
tp1110
sg140
I00
sg60
g34
(g35
g36
Ntp1111
Rp1112
(dp1113
g40
I3
sg41
S'^^^'
p1114
sg43
S'rare'
p1115
sbsg61
(dp1116
g238
I0
sg239
I0
sg240
I0
sg241
I0
ssg63
(dp1117
g238
I0
sg239
I0
sg240
I0
sg241
I0
ssg65
(dp1118
g238
I0
sg239
I0
sg240
I0
sg241
I0
ssg67
(dp1119
g223
I0
sg224
I0
sg225
I0
sg226
I0
ssg69
I0
sg70
I0
sg71
S'Clebe'
p1120
sg73
I11
sg74
I0
sg75
I25
sg76
I68
sg58
g246
sg83
(dp1121
g248
I6
sg249
I10
sg250
I7
sg251
I12
sg252
I0
sg253
I9
sg254
I0
sg255
I9
sg256
I6
sg257
I6
sg258
I9
sg259
I6
sg260
I1
sg261
I6
sg262
I10
ssg100
I0
sg101
I0
sg102
I0
sg103
I0
sg104
F8.310344827586206
sg105
I0
sg106
I0
sg107
I0
sg170
(dp1122
g264
I5
sg265
I9
sg266
I6
sg267
I11
sg268
I0
sg269
I8
sg270
I0
sg271
I8
sg272
I4
sg273
I4
sg274
I7
sg275
I7
sg276
I1
sg277
I6
sg278
I9
ssg108
(dp1123
g248
I6
sg249
I10
sg250
I7
sg251
I12
sg256
I6
sg253
I9
sg254
I0
sg255
I9
sg252
I0
sg257
I6
sg258
I9
sg259
I6
sg260
I1
sg261
I6
sg262
I10
ssg109
I0
sg53
g30
sg110
I0
sg111
I0
sg112
I0
sg113
I8
sg114
I0
sg115
I0
sg116
S'HL'
p1124
sbsS'n4'
p1125
(ijoueur
joueur
p1126
(dp1127
g121
F8.037037037037036
sg27
I0
sg28
I0
sg31
I0
sg33
g34
(g35
g36
Ntp1128
Rp1129
(dp1130
g40
I1
sg41
S'<'
p1131
sg43
g1059
sbsg45
(dp1132
g223
I0
sg224
I0
sg225
I0
sg226
I0
ssg51
(dp1133
g223
I0
sg224
I0
sg225
I0
sg226
I0
ssg133
I0
sg54
I0
sg134
I00
sg55
I0
sg56
I0
sg57
I0
sg77
(g228
S'DL'
p1134
S'PI'
p1135
g30
tp1136
sg140
I00
sg60
g34
(g35
g36
Ntp1137
Rp1138
(dp1139
g40
I1
sg41
g1131
sg43
g1059
sbsg61
(dp1140
g238
I0
sg239
I0
sg240
I1
sg241
I0
ssg63
(dp1141
g238
I0
sg239
I0
sg240
I0
sg241
I0
ssg65
(dp1142
g238
I0
sg239
I0
sg240
I0
sg241
I0
ssg67
(dp1143
g223
I0
sg224
I0
sg225
I1
sg226
I0
ssg69
I0
sg70
I0
sg71
S'Mrid'
p1144
sg73
I0
sg74
I0
sg75
I14
sg76
I20
sg58
g246
sg83
(dp1145
g248
I7
sg249
I10
sg250
I7
sg251
I7
sg252
I5
sg253
I8
sg254
I3
sg255
I8
sg256
I9
sg257
I6
sg258
I9
sg259
I8
sg260
I4
sg261
I9
sg262
I5
ssg100
I1
sg101
I0
sg102
I0
sg103
I0
sg104
F8.352941176470589
sg105
I0
sg106
I0
sg107
I0
sg170
(dp1146
g264
I7
sg265
I10
sg266
I7
sg267
I7
sg268
I5
sg269
I8
sg270
I3
sg271
I8
sg272
I7
sg273
I6
sg274
I9
sg275
I8
sg276
I4
sg277
I8
sg278
I5
ssg108
(dp1147
g248
I7
sg249
I10
sg250
I7
sg251
I7
sg256
I9
sg253
I8
sg254
I3
sg255
I8
sg252
I5
sg257
I6
sg258
I9
sg259
I8
sg260
I4
sg261
I9
sg262
I5
ssg109
I0
sg53
S'DKW 10'
p1148
sg110
I0
sg111
I0
sg112
I0
sg113
I2
sg114
I2
sg115
I0
sg116
S'HB'
p1149
sbsS'n5'
p1150
(ijoueur
joueur
p1151
(dp1152
g27
I0
sg28
I0
sg29
g30
sg31
I0
sg32
g30
sg33
g34
(g35
g36
Ntp1153
Rp1154
(dp1155
g40
I1
sg41
g686
sg43
g687
sbsg45
(dp1156
g678
I0
sg679
I0
sg680
I0
sg681
I0
ssg51
(dp1157
g678
I0
sg679
I0
sg680
I0
sg681
I0
ssg53
g30
sg54
I0
sg55
I0
sg56
I0
sg57
I0
sg58
g246
sg60
g1154
sg61
(dp1158
g678
I0
sg679
I0
sg680
I1
sg681
I0
ssg63
(dp1159
g678
I0
sg679
I0
sg680
I0
sg681
I0
ssg65
(dp1160
g678
I0
sg679
I0
sg680
I0
sg681
I0
ssg67
(dp1161
g678
I0
sg679
I0
sg680
I1
sg681
I0
ssg69
I0
sg70
I0
sg71
S'Rehul'
p1162
sg73
I12
sg74
I0
sg75
I25
sg76
I8
sg77
(g693
S'TL'
p1163
S'DL'
p1164
g30
tp1165
sg82
g30
sg83
(dp1166
g697
I7
sg698
I7
sg699
I6
sg700
I8
sg701
I4
sg702
I4
sg703
I10
sg704
I7
sg705
I9
sg706
I6
sg707
I9
sg708
I6
sg709
I3
sg710
I6
sg711
I5
ssg100
I2
sg101
I0
sg102
I0
sg103
I0
sg104
F7.368421052631579
sg105
I0
sg106
I0
sg107
I0
sg108
(dp1167
g697
I7
sg698
I7
sg699
I6
sg700
I8
sg705
I9
sg703
I10
sg702
I4
sg704
I7
sg701
I4
sg706
I6
sg707
I9
sg708
I6
sg709
I3
sg710
I6
sg711
I5
ssg109
I0
sg110
I0
sg111
I0
sg112
I0
sg113
I0
sg114
I0
sg115
I0
sg116
g713
sbsS'n6'
p1168
(ijoueur
joueur
p1169
(dp1170
g121
F10.862068965517242
sg27
I1
sg28
I0
sg31
I0
sg33
g34
(g35
g36
Ntp1171
Rp1172
(dp1173
g40
I5
sg41
S'xx'
p1174
sg43
g221
sbsg45
(dp1175
g223
I0
sg224
I1
sg225
I1
sg226
I19
ssg51
(dp1176
g223
I0
sg224
I0
sg225
I0
sg226
I0
ssg133
I0
sg54
I0
sg134
I01
sg55
I2
sg56
I0
sg57
I0
sg77
(g228
S'N8'
p1177
S'TL'
p1178
g30
tp1179
sg140
I00
sg60
g1172
sg61
(dp1180
g238
I0
sg239
I0
sg240
I1
sg241
I0
ssg63
(dp1181
g238
I0
sg239
I0
sg240
I1
sg241
I6
ssg65
(dp1182
g238
I0
sg239
I0
sg240
I0
sg241
I0
ssg67
(dp1183
g223
I1
sg224
I0
sg225
I1
sg226
I2
ssg69
I0
sg70
I0
sg71
S'Zerhen'
p1184
sg73
I7
sg74
I0
sg75
I20
sg76
I170
sg58
g246
sg83
(dp1185
g248
I9
sg249
I9
sg250
I6
sg251
I13
sg252
I5
sg253
I13
sg254
I5
sg255
I13
sg256
I10
sg257
I7
sg258
I12
sg259
I10
sg260
I5
sg261
I11
sg262
I5
ssg100
I12
sg101
I0
sg102
I0
sg103
I0
sg104
F11.379310344827585
sg105
I0
sg106
I0
sg107
I0
sg170
(dp1186
g264
I10
sg265
I8
sg266
I7
sg267
I13
sg268
I5
sg269
I11
sg270
I5
sg271
I11
sg272
I10
sg273
I7
sg274
I10
sg275
I11
sg276
I5
sg277
I12
sg278
I3
ssg108
(dp1187
g248
I10
sg249
I9
sg250
I6
sg251
I13
sg256
I10
sg253
I13
sg254
I5
sg255
I13
sg252
I5
sg257
I7
sg258
I12
sg259
I11
sg260
I5
sg261
I12
sg262
I5
ssg109
I0
sg53
g30
sg110
I0
sg111
I0
sg112
I0
sg113
I17
sg114
I4
sg115
I0
sg116
S'HB'
p1188
sbsS'n7'
p1189
(ijoueur
joueur
p1190
(dp1191
g121
F10.11111111111111
sg27
I0
sg28
I0
sg31
I0
sg33
g34
(g35
g36
Ntp1192
Rp1193
(dp1194
g40
I5
sg41
S'**'
p1195
sg43
g221
sbsg45
(dp1196
g223
I0
sg224
I0
sg225
I2
sg226
I1
ssg51
(dp1197
g223
I0
sg224
I0
sg225
I0
sg226
I1
ssg133
I0
sg54
I0
sg134
I00
sg55
I0
sg56
I0
sg57
I0
sg77
(g228
S'PI'
p1198
S'N8'
p1199
S'TL'
p1200
tp1201
sg140
I00
sg60
g34
(g35
g36
Ntp1202
Rp1203
(dp1204
g40
I5
sg41
S'**'
p1205
sg43
g221
sbsg61
(dp1206
g238
I0
sg239
I0
sg240
I2
sg241
I0
ssg63
(dp1207
g238
I0
sg239
I0
sg240
I2
sg241
I1
ssg65
(dp1208
g238
I0
sg239
I0
sg240
I0
sg241
I1
ssg67
(dp1209
g223
I0
sg224
I0
sg225
I12
sg226
I7
ssg69
I0
sg70
I0
sg71
S'Gorr'
p1210
sg73
I5
sg74
I0
sg75
I15
sg76
I150
sg58
g246
sg83
(dp1211
g248
I9
sg249
I10
sg250
I7
sg251
I10
sg252
I3
sg253
I9
sg254
I2
sg255
I9
sg256
I8
sg257
I9
sg258
I6
sg259
I11
sg260
I2
sg261
I7
sg262
I7
ssg100
I9
sg101
I0
sg102
I0
sg103
I0
sg104
F9.814814814814815
sg105
I0
sg106
I0
sg107
I0
sg170
(dp1212
g264
I10
sg265
I10
sg266
I7
sg267
I11
sg268
I3
sg269
I9
sg270
I2
sg271
I9
sg272
I8
sg273
I9
sg274
I6
sg275
I12
sg276
I2
sg277
I9
sg278
I7
ssg108
(dp1213
g248
I10
sg249
I10
sg250
I7
sg251
I10
sg256
I8
sg253
I9
sg254
I2
sg255
I9
sg252
I3
sg257
I9
sg258
I6
sg259
I12
sg260
I2
sg261
I8
sg262
I7
ssg109
I0
sg53
g30
sg110
I0
sg111
I0
sg112
I0
sg113
I16
sg114
I10
sg115
I0
sg116
S'HB'
p1214
sbssS'remplacements'
p1215
(dp1216
g669
S'n0'
p1217
sg714
g1217
sg866
g1217
sg930
g1217
sg957
g1217
sg982
g1217
sg1006
g1217
ssb.