(iclub
compo
p0
(dp1
S'caracs_old'
p2
(dp3
S'A'
p4
F132.5
sS'ME'
p5
F92.5
sS'E'
p6
F181.5
sS'OplusAV'
p7
F86.5
sS'TO_off'
p8
F110.0
sS'OplusAR'
p9
F92.25
sS'M'
p10
F82.25
sS'JP'
p11
F74.0
sS'OmoinsAR'
p12
F80.25
sS'PA'
p13
F81.75
sS'TO_def'
p14
F101.5
sS'OmoinsAV'
p15
F85.75
sS'R'
p16
F171.5
ssS'totaux_old'
p17
(dp18
S'T2'
p19
F144.25
sS'T3'
p20
F90.75
sS'T1'
p21
F185.0
ssS'roles'
p22
(dp23
S'SA_scd'
p24
(ijoueur
joueur
p25
(dp26
S'rouges_total'
p27
I0
sS'drop_ratees_total'
p28
I0
sS'drops_total'
p29
I0
sS'xp_total'
p30
F27.96519949925127
sS'poste3'
p31
S''
p32
sS'blessure'
p33
I0
sS'poste1'
p34
g32
sS'RG_max'
p35
ccopy_reg
_reconstructor
p36
(cjoueur
rang_new
p37
c__builtin__
object
p38
Ntp39
Rp40
(dp41
S'type_nb'
p42
I4
sS'rang'
p43
S'*'
p44
sS'type'
p45
S'heros'
p46
sbsS'MJ2_total'
p47
(dp48
S'SR'
p49
I0
sS'ST'
p50
I0
sS'CR'
p51
I0
sS'CT'
p52
I1
ssS'MJ3_total'
p53
(dp54
g49
I0
sg50
I0
sg51
I0
sg52
I0
ssS'D'
p55
I20
sS'anciens_clubs'
p56
g32
sS'drop_rates_saison'
p57
I0
sS'xp_saison'
p58
F27.96519949925127
sS'essais_saison'
p59
I0
sS'penalite_ratees_saison'
p60
I0
sS'transformations_saison'
p61
I0
sS'club'
p62
S'ERE'
p63
sS'veut_partir'
p64
I00
sS'RG'
p65
g40
sS'MJ1'
p66
(dp67
g49
I0
sg50
I0
sg51
I0
sg52
I2
ssS'MJ2'
p68
(dp69
g49
I0
sg50
I0
sg51
I0
sg52
I1
ssS'MJ3'
p70
(dp71
g49
I0
sg50
I0
sg51
I0
sg52
I0
ssS'MJ1_total'
p72
(dp73
g49
I0
sg50
I0
sg51
I0
sg52
I2
ssS'penalites_total'
p74
I0
sS'penalites_saison'
p75
I0
sS'nom'
p76
S'Delmak'
p77
sS'C'
p78
I7
sS'transformations_total'
p79
I0
sS'MS_probleme'
p80
I00
sS'VAL'
p81
I170
sS'postes'
p82
(S'dummy'
p83
S'N8'
p84
S'TL'
p85
g32
tp86
sS'poste2'
p87
g32
sS'caracs'
p88
(dp89
S'RP1'
p90
I9
sS'ME'
p91
I9
sS'RP2'
p92
I7
sS'E'
p93
I9
sS'P'
p94
I6
sS'JP'
p95
I5
sS'M'
p96
I7
sS'RP_tot'
p97
I9
sS'TO'
p98
I10
sS'PA'
p99
I8
sS'A'
p100
I10
sS'R'
p101
I9
sS'TB'
p102
I4
sS'PL'
p103
I9
sS'TA'
p104
I2
ssS'jj_passe'
p105
(dp106
S's12'
p107
(ijoueur
joueur
p108
(dp109
g27
I0
sg28
I0
sg29
I0
sg33
I0
sg35
g36
(g37
g38
Ntp110
Rp111
(dp112
g43
g32
sbsg47
(dp113
S'SR'
p114
I0
sS'ST'
p115
I0
sS'CR'
p116
I0
sS'CT'
p117
I0
ssg53
(dp118
g114
I0
sg115
I0
sg116
I0
sg117
I0
ssg55
I0
sg56
g32
sg57
I0
sg59
I0
sg60
I0
sg61
I0
sg82
g86
sg64
I00
sg65
g36
(g37
g38
Ntp119
Rp120
(dp121
g43
g32
sbsg66
(dp122
g114
I0
sg115
I0
sg116
I0
sg117
I0
ssg80
I00
sg70
(dp123
g114
I0
sg115
I0
sg116
I0
sg117
I0
ssg72
(dp124
g114
I0
sg115
I0
sg116
I0
sg117
I0
ssg74
I0
sg75
I0
sg76
g77
sg78
I0
sg79
I0
sg68
(dp125
g114
I0
sg115
I0
sg116
I0
sg117
I0
ssg81
I0
sg62
g63
sg88
(dp126
S'A'
p127
I0
sS'ME'
p128
I0
sS'RP2'
p129
I0
sS'E'
p130
I0
sS'TO'
p131
I0
sS'RP1'
p132
I0
sS'JP'
p133
I0
sS'RP_tot'
p134
I0
sS'P'
p135
I0
sS'PA'
p136
I0
sS'M'
p137
I0
sS'R'
p138
I0
sS'TB'
p139
I0
sS'PL'
p140
I0
sS'TA'
p141
I0
ssg105
(dp142
sS'fatigue'
p143
I0
sS'changements_postes'
p144
g32
sS'blessures_total'
p145
I0
sS'XP'
p146
I0
sS'EV'
p147
F0.0
sS'penalite_ratees_total'
p148
I0
sS'blessures_saison'
p149
I0
sS'jaunes_total'
p150
I0
sS'caracs_sans_fatigue'
p151
(dp152
g90
I9
sg91
I9
sg92
I7
sg93
I9
sg98
I10
sg96
I7
sg95
I5
sg97
I9
sg94
I6
sg99
I8
sg100
I10
sg101
I9
sg102
I4
sg103
I9
sg104
I2
ssS'rouges_saison'
p153
I0
sS'transformation_ratees_total'
p154
I0
sS'drops_saison'
p155
I0
sS'transformation_ratees_saison'
p156
I0
sS'MS'
p157
I0
sS'essais_total'
p158
I0
sS'jaunes_saison'
p159
I0
sS'ARM'
p160
g32
sbsS's11'
p161
(ijoueur
joueur
p162
(dp163
g27
I0
sg28
I0
sg29
I0
sg33
I0
sg35
g36
(g37
g38
Ntp164
Rp165
(dp166
g43
g32
sbsg47
(dp167
g114
I0
sg115
I0
sg116
I0
sg117
I0
ssg53
(dp168
g114
I0
sg115
I0
sg116
I0
sg117
I0
ssg55
I0
sg56
g32
sg57
I0
sg59
I0
sg60
I0
sg61
I0
sg82
g86
sg64
I00
sg65
g36
(g37
g38
Ntp169
Rp170
(dp171
g43
g32
sbsg66
(dp172
g114
I0
sg115
I0
sg116
I0
sg117
I0
ssg80
I00
sg70
(dp173
g114
I0
sg115
I0
sg116
I0
sg117
I0
ssg72
(dp174
g114
I0
sg115
I0
sg116
I0
sg117
I0
ssg74
I0
sg75
I0
sg76
g77
sg78
I0
sg79
I0
sg68
(dp175
g114
I0
sg115
I0
sg116
I0
sg117
I0
ssg81
I0
sg62
g63
sg88
(dp176
g127
I0
sg128
I0
sg129
I0
sg130
I0
sg131
I0
sg132
I0
sg133
I0
sg134
I0
sg135
I0
sg136
I0
sg137
I0
sg138
I0
sg139
I0
sg140
I0
sg141
I0
ssg105
(dp177
sg143
I0
sg144
g32
sg145
I0
sg146
I0
sg147
F0.0
sg148
I0
sg149
I0
sg150
I0
sg151
g152
sg153
I0
sg154
I0
sg155
I0
sg156
I0
sg157
I0
sg158
I0
sg159
I0
sg160
g32
sbssg143
I7
sg144
g32
sg145
I0
sg146
I0
sg147
F9.194444444444445
sg148
I0
sg149
I0
sg150
I0
sg151
g152
sg153
I0
sg154
I0
sg155
I0
sg156
I0
sg157
I17
sg158
I0
sg159
I0
sg160
S'K'
p178
sbsS'RJL'
p179
(ijoueur
joueur
p180
(dp181
S'EV_saison_11'
p182
F8.806451612903226
sg27
I0
sS'EV_saison_12'
p183
F8.516129032258064
sg144
g32
sg29
I1
sg30
F27.96519949925127
sg33
I0
sg35
g36
(g37
g38
Ntp184
Rp185
(dp186
g42
I5
sg43
S'xx'
p187
sg45
S'seigneur'
p188
sbsg47
(dp189
S'SR'
p190
I0
sS'ST'
p191
I0
sS'CR'
p192
I4
sS'CT'
p193
I0
ssg53
(dp194
g190
I0
sg191
I0
sg192
I0
sg193
I0
ssS'xp'
p195
I0
sS'drop_rates_total'
p196
I0
sg147
F8.363636363636363
sg57
I0
sS'transformations'
p197
I1
sS'penalites'
p198
I3
sg59
I0
sg60
I0
sg61
I1
sg82
(S'dummy'
p199
S'AI'
p200
S'AR'
p201
S'CE'
p202
tp203
sg64
I00
sg65
g36
(g37
g38
Ntp204
Rp205
(dp206
g42
I5
sg43
S'xx'
p207
sg45
g188
sbsg66
(dp208
S'SR'
p209
I0
sS'CT'
p210
I3
sS'CR'
p211
I0
sS'ST'
p212
I0
ssg80
I00
sg70
(dp213
g209
I0
sg210
I0
sg211
I0
sg212
I0
ssg72
(dp214
g190
I0
sg191
I0
sg192
I3
sg193
I10
ssg74
I13
sg75
I10
sg76
S'Meblann'
p215
sg78
I-1
sg79
I3
sg55
I9
sg81
I50
sg62
S'ERE'
p216
sg88
(dp217
S'A'
p218
I8
sS'ME'
p219
I4
sS'RP2'
p220
I5
sS'E'
p221
I10
sS'P'
p222
I9
sS'RP1'
p223
I8
sS'JP'
p224
I6
sS'RP_tot'
p225
I8
sS'TO'
p226
I4
sS'PA'
p227
I7
sS'M'
p228
I10
sS'R'
p229
I5
sS'TB'
p230
I9
sS'PL'
p231
I5
sS'TA'
p232
I4
ssg105
(dp233
S's12'
p234
(ijoueur
joueur
p235
(dp236
g182
F8.806451612903226
sg27
I0
sg144
g32
sg29
I1
sg33
I0
sg35
g36
(g37
g38
Ntp237
Rp238
(dp239
g42
I5
sg43
S'xx'
p240
sg45
S'seigneur'
p241
sbsg47
(dp242
S'SR'
p243
I0
sS'ST'
p244
I0
sS'CR'
p245
I4
sS'CT'
p246
I0
ssg53
(dp247
g243
I0
sg244
I0
sg245
I0
sg246
I0
ssg196
I0
sg57
I0
sg197
I1
sg198
I3
sg80
I00
sg59
I0
sg60
I0
sg61
I0
sg82
(S'dummy'
p248
S'AI'
p249
S'AR'
p250
S'CE'
p251
tp252
sg64
I00
sg65
g36
(g37
g38
Ntp253
Rp254
(dp255
g42
I5
sg43
S'xx'
p256
sg45
g241
sbsg66
(dp257
S'SR'
p258
I0
sS'ST'
p259
I0
sS'CR'
p260
I0
sS'CT'
p261
I0
ssg68
(dp262
g258
I0
sg259
I0
sg260
I0
sg261
I0
ssg70
(dp263
g258
I0
sg259
I0
sg260
I0
sg261
I0
ssg72
(dp264
g243
I0
sg244
I0
sg245
I3
sg246
I7
ssg74
I3
sg75
I0
sg76
S'Meblann (12)'
p265
sg78
I-1
sg79
I2
sg55
I9
sg81
I50
sg62
S'ERE'
p266
sg88
(dp267
S'A'
p268
I10
sS'ME'
p269
I4
sS'RP2'
p270
I6
sS'E'
p271
I10
sS'TO'
p272
I4
sS'RP1'
p273
I8
sS'JP'
p274
I6
sS'RP_tot'
p275
I8
sS'P'
p276
I9
sS'PA'
p277
I7
sS'M'
p278
I10
sS'R'
p279
I6
sS'TB'
p280
I8
sS'PL'
p281
I6
sS'TA'
p282
I4
ssg105
(dp283
S's11'
p284
(ijoueur
joueur
p285
(dp286
g27
I0
sg29
I1
sg33
I0
sg35
g36
(g37
g38
Ntp287
Rp288
(dp289
g42
I5
sg43
S'xx'
p290
sg45
S'seigneur'
p291
sbsg47
(dp292
S'SR'
p293
I0
sS'CT'
p294
I0
sS'CR'
p295
I4
sS'ST'
p296
I0
ssg53
(dp297
g293
I0
sg294
I0
sg295
I0
sg296
I0
ssg68
(dp298
g293
I0
sg294
I0
sg295
I4
sg296
I0
ssg196
I0
sg57
I0
sg197
I1
sg198
I3
sg59
I1
sg60
I0
sg61
I0
sg82
(S'dummy'
p299
S'AI'
p300
S'AR'
p301
S'CE'
p302
tp303
sg64
I01
sg65
g36
(g37
g38
Ntp304
Rp305
(dp306
g42
I5
sg43
S'xx'
p307
sg45
g291
sbsg66
(dp308
g293
I0
sg294
I7
sg295
I3
sg296
I0
ssg80
I00
sg70
(dp309
g293
I0
sg294
I0
sg295
I0
sg296
I0
ssg72
(dp310
g293
I0
sg294
I7
sg295
I3
sg296
I0
ssg74
I3
sg75
I0
sg76
S'Meblann'
p311
sg78
I-1
sg79
I2
sg55
I9
sg81
I50
sg62
S'PRG'
p312
sg88
(dp313
S'A'
p314
I10
sS'ME'
p315
I4
sS'RP2'
p316
I7
sS'E'
p317
I10
sS'P'
p318
I9
sS'RP1'
p319
I8
sS'JP'
p320
I6
sS'RP_tot'
p321
I8
sS'TO'
p322
I4
sS'PA'
p323
I7
sS'M'
p324
I10
sS'R'
p325
I7
sS'TB'
p326
I8
sS'PL'
p327
I8
sS'TA'
p328
I4
ssg143
I0
sg28
I0
sg145
I0
sg146
I0
sg147
F8.806451612903226
sg148
I0
sS'drops'
p329
I1
sg149
I0
sg150
I0
sS'caracs_saison_11'
p330
(dp331
S'A'
p332
I10
sS'ME'
p333
I4
sS'RP2'
p334
I7
sS'E'
p335
I10
sS'P'
p336
I9
sS'RP1'
p337
I8
sS'JP'
p338
I6
sS'RP_tot'
p339
I8
sS'TO'
p340
I4
sS'PA'
p341
I7
sS'M'
p342
I10
sS'R'
p343
I7
sS'TB'
p344
I8
sS'PL'
p345
I8
sS'TA'
p346
I4
ssg151
g313
sg153
I0
sg56
g32
sg154
I0
sg155
I0
sg156
I0
sg157
I8
sg158
I2
sg159
I0
sg160
S'EMP'
p347
sbssg143
I0
sg28
I0
sg145
I0
sg146
I0
sg147
F8.516129032258064
sg148
I0
sg329
I1
sg149
I0
sg150
I0
sg330
(dp348
g268
I10
sg269
I4
sg270
I7
sg271
I10
sg276
I9
sg273
I8
sg274
I6
sg275
I8
sg272
I4
sg277
I7
sg278
I10
sg279
I7
sg280
I8
sg281
I8
sg282
I4
ssg151
g267
sg153
I0
sg56
S'PRG 12'
p349
sg154
I0
sg155
I0
sg156
I0
sg157
I8
sg158
I2
sg159
I0
sg160
S'EMP'
p350
sbsS's11'
p351
(ijoueur
joueur
p352
(dp353
g27
I0
sg29
I1
sg33
I0
sg35
g36
(g37
g38
Ntp354
Rp355
(dp356
g42
I5
sg43
S'xx'
p357
sg45
S'seigneur'
p358
sbsg47
(dp359
S'SR'
p360
I0
sS'CT'
p361
I0
sS'CR'
p362
I4
sS'ST'
p363
I0
ssg53
(dp364
g360
I0
sg361
I0
sg362
I0
sg363
I0
ssg68
(dp365
g360
I0
sg361
I0
sg362
I4
sg363
I0
ssg196
I0
sg57
I0
sg197
I1
sg198
I3
sg59
I1
sg60
I0
sg61
I0
sg82
(S'dummy'
p366
S'AI'
p367
S'AR'
p368
S'CE'
p369
tp370
sg64
I01
sg65
g36
(g37
g38
Ntp371
Rp372
(dp373
g42
I5
sg43
S'xx'
p374
sg45
g358
sbsg66
(dp375
g360
I0
sg361
I7
sg362
I3
sg363
I0
ssg80
I00
sg70
(dp376
g360
I0
sg361
I0
sg362
I0
sg363
I0
ssg72
(dp377
g360
I0
sg361
I7
sg362
I3
sg363
I0
ssg74
I3
sg75
I0
sg76
S'Meblann (11)'
p378
sg78
I-1
sg79
I2
sg55
I9
sg81
I50
sg62
S'PRG'
p379
sg88
(dp380
S'A'
p381
I10
sS'ME'
p382
I4
sS'RP2'
p383
I7
sS'E'
p384
I10
sS'P'
p385
I9
sS'RP1'
p386
I8
sS'JP'
p387
I6
sS'RP_tot'
p388
I9
sS'TO'
p389
I4
sS'PA'
p390
I7
sS'M'
p391
I10
sS'R'
p392
I7
sS'TB'
p393
I8
sS'PL'
p394
I8
sS'TA'
p395
I4
ssg143
I0
sg28
I0
sg145
I0
sg146
I0
sg147
F8.806451612903226
sg148
I0
sg329
I1
sg149
I0
sg150
I0
sg330
(dp396
S'A'
p397
I10
sS'ME'
p398
I4
sS'RP2'
p399
I7
sS'E'
p400
I10
sS'P'
p401
I9
sS'RP1'
p402
I8
sS'JP'
p403
I6
sS'RP_tot'
p404
I8
sS'TO'
p405
I4
sS'PA'
p406
I7
sS'M'
p407
I10
sS'R'
p408
I7
sS'TB'
p409
I8
sS'PL'
p410
I8
sS'TA'
p411
I4
ssg151
g380
sg153
I0
sg56
g32
sg154
I0
sg155
I0
sg156
I0
sg157
I8
sg158
I2
sg159
I0
sg160
S'EMP'
p412
sbssg143
I9
sg28
I0
sg145
I0
sg146
I0
sg68
(dp413
g209
I0
sg210
I0
sg211
I0
sg212
I0
ssg148
I0
sg58
F27.96519949925127
sg329
I1
sg149
I0
sg150
I0
sg330
(dp414
g218
I10
sg219
I4
sg220
I7
sg221
I10
sg222
I9
sg223
I8
sg224
I6
sg225
I8
sg226
I4
sg227
I7
sg228
I10
sg229
I7
sg230
I8
sg231
I8
sg232
I4
ssg151
(dp415
g218
I9
sg219
I4
sg220
I5
sg221
I10
sg226
I4
sg223
I8
sg224
I6
sg225
I8
sg222
I9
sg227
I7
sg228
I10
sg229
I6
sg230
I9
sg231
I6
sg232
I4
ssg153
I0
sS'caracs_saison_12'
p416
(dp417
sg154
I1
sg56
S'PRG 12'
p418
sg155
I0
sg156
I1
sg157
I8
sg158
I2
sg159
I0
sg160
S'EMP'
p419
sbsS'cap'
p420
(ijoueur
joueur
p421
(dp422
g182
F9.709677419354838
sg27
I0
sg183
F10.483870967741936
sg144
g32
sg29
I0
sg30
F18.862252318429977
sg31
g32
sg33
I0
sg34
g32
sg35
g36
(g37
g38
Ntp423
Rp424
(dp425
g42
I4
sg43
S'*'
p426
sg45
S'heros'
p427
sbsg47
(dp428
S'SR'
p429
I0
sS'ST'
p430
I0
sS'CR'
p431
I0
sS'CT'
p432
I0
ssg53
(dp433
g429
I0
sg430
I0
sg431
I0
sg432
I0
ssg195
I0
sg56
g32
sg147
F10.161290322580646
sg57
I0
sg58
F18.862252318429977
sg59
I0
sg60
I0
sg61
I0
sg62
g63
sg64
I00
sg65
g36
(g37
g38
Ntp434
Rp435
(dp436
g42
I5
sg43
S'**'
p437
sg45
S'seigneur'
p438
sbsg66
(dp439
S'SR'
p440
I0
sS'ST'
p441
I0
sS'CR'
p442
I0
sS'CT'
p443
I2
ssg80
I00
sg70
(dp444
g440
I0
sg441
I0
sg442
I0
sg443
I0
ssg72
(dp445
g429
I0
sg430
I10
sg431
I0
sg432
I2
ssg74
I0
sg75
I0
sg76
S'Nameol'
p446
sg78
I5
sg79
I0
sg55
I17
sg81
I142
sg82
(S'dummy'
p447
S'TL'
p448
S'CE'
p449
g32
tp450
sg87
g32
sg88
(dp451
S'RP1'
p452
I9
sS'ME'
p453
I9
sS'RP2'
p454
I8
sS'E'
p455
I12
sS'P'
p456
I8
sS'JP'
p457
I6
sS'M'
p458
I7
sS'RP_tot'
p459
I10
sS'TO'
p460
I10
sS'PA'
p461
I9
sS'A'
p462
I12
sS'R'
p463
I10
sS'TB'
p464
I6
sS'PL'
p465
I10
sS'TA'
p466
I6
ssg105
(dp467
S's12'
p468
(ijoueur
joueur
p469
(dp470
g182
F9.709677419354838
sg27
I0
sg144
g32
sg29
I0
sg31
g32
sg33
I0
sg34
g32
sg35
g36
(g37
g38
Ntp471
Rp472
(dp473
g42
I4
sg43
S'*'
p474
sg45
S'heros'
p475
sbsg47
(dp476
S'SR'
p477
I0
sS'ST'
p478
I0
sS'CR'
p479
I0
sS'CT'
p480
I0
ssg53
(dp481
g477
I0
sg478
I0
sg479
I0
sg480
I0
ssg56
g32
sg57
I0
sg80
I00
sg59
I0
sg60
I0
sg61
I0
sg62
S'ERE'
p482
sg64
I00
sg65
g36
(g37
g38
Ntp483
Rp484
(dp485
g42
I5
sg43
S'**'
p486
sg45
S'seigneur'
p487
sbsg66
(dp488
S'SR'
p489
I0
sS'CT'
p490
I0
sS'CR'
p491
I0
sS'ST'
p492
I7
ssg68
(dp493
g489
I0
sg490
I0
sg491
I0
sg492
I0
ssg70
(dp494
g489
I0
sg490
I0
sg491
I0
sg492
I0
ssg72
(dp495
g477
I0
sg478
I10
sg479
I0
sg480
I0
ssg74
I0
sg75
I0
sg76
S'Nameol'
p496
sg78
I5
sg79
I0
sg55
I17
sg81
I142
sg82
(S'dummy'
p497
S'TL'
p498
S'CE'
p499
g32
tp500
sg87
g32
sg88
(dp501
S'RP1'
p502
I9
sS'ME'
p503
I9
sS'RP2'
p504
I8
sS'E'
p505
I12
sS'TO'
p506
I10
sS'M'
p507
I9
sS'JP'
p508
I6
sS'RP_tot'
p509
I10
sS'P'
p510
I8
sS'PA'
p511
I9
sS'A'
p512
I12
sS'R'
p513
I10
sS'TB'
p514
I6
sS'PL'
p515
I11
sS'TA'
p516
I6
ssg105
(dp517
S's11'
p518
(ijoueur
joueur
p519
(dp520
g27
I0
sg29
I0
sg31
g32
sg33
I0
sg34
g32
sg35
g36
(g37
g38
Ntp521
Rp522
(dp523
g42
I4
sg43
S'*'
p524
sg45
S'heros'
p525
sbsg47
(dp526
S'SR'
p527
I0
sS'CT'
p528
I0
sS'CR'
p529
I0
sS'ST'
p530
I0
ssg53
(dp531
g527
I0
sg528
I0
sg529
I0
sg530
I0
ssg56
g32
sg57
I0
sg80
I00
sg59
I0
sg60
I0
sg61
I0
sg62
S'vide'
p532
sg64
I00
sg65
g522
sg66
(dp533
g527
I0
sg528
I0
sg529
I0
sg530
I3
ssg68
(dp534
g527
I0
sg528
I0
sg529
I0
sg530
I0
ssg70
(dp535
g527
I0
sg528
I0
sg529
I0
sg530
I0
ssg72
(dp536
g527
I0
sg528
I0
sg529
I0
sg530
I3
ssg74
I0
sg75
I0
sg76
S'Nameol'
p537
sg78
I5
sg79
I0
sg55
I17
sg81
I102
sg82
(S'dummy'
p538
S'TL'
p539
S'CE'
p540
g32
tp541
sg87
g32
sg88
(dp542
S'RP1'
p543
I8
sS'ME'
p544
I9
sS'RP2'
p545
I7
sS'E'
p546
I11
sS'P'
p547
I8
sS'JP'
p548
I6
sS'M'
p549
I8
sS'RP_tot'
p550
I8
sS'TO'
p551
I9
sS'PA'
p552
I8
sS'A'
p553
I11
sS'R'
p554
I10
sS'TB'
p555
I6
sS'PL'
p556
I10
sS'TA'
p557
I6
ssg143
I0
sg28
I0
sg145
I0
sg146
I0
sg147
F9.709677419354838
sg148
I0
sg149
I0
sg150
I0
sg330
(dp558
S'RP1'
p559
I8
sS'ME'
p560
I9
sS'RP2'
p561
I7
sS'E'
p562
I11
sS'P'
p563
I8
sS'JP'
p564
I6
sS'M'
p565
I8
sS'RP_tot'
p566
I8
sS'TO'
p567
I9
sS'PA'
p568
I8
sS'A'
p569
I11
sS'R'
p570
I10
sS'TB'
p571
I6
sS'PL'
p572
I10
sS'TA'
p573
I6
ssg151
g542
sg153
I0
sg154
I0
sg155
I0
sg156
I0
sg157
I9
sg158
I0
sg159
I0
sg160
S'K'
p574
sbssg143
I8
sg28
I0
sg145
I0
sg146
I0
sg147
F10.483870967741936
sg148
I0
sg149
I0
sg150
I0
sg330
(dp575
g502
I8
sg503
I9
sg504
I7
sg505
I11
sg510
I8
sg508
I6
sg507
I8
sg509
I8
sg506
I9
sg511
I8
sg512
I11
sg513
I10
sg514
I6
sg515
I10
sg516
I6
ssg151
g501
sg153
I0
sg154
I0
sg155
I0
sg156
I0
sg157
I13
sg158
I0
sg159
I0
sg160
S'K'
p576
sbsS's11'
p577
(ijoueur
joueur
p578
(dp579
g27
I0
sg29
I0
sg31
g32
sg33
I0
sg34
g32
sg35
g36
(g37
g38
Ntp580
Rp581
(dp582
g42
I4
sg43
S'*'
p583
sg45
S'heros'
p584
sbsg47
(dp585
S'SR'
p586
I0
sS'CT'
p587
I0
sS'CR'
p588
I0
sS'ST'
p589
I0
ssg53
(dp590
g586
I0
sg587
I0
sg588
I0
sg589
I0
ssg56
g32
sg57
I0
sg80
I00
sg59
I0
sg60
I0
sg61
I0
sg62
S'vide'
p591
sg64
I00
sg65
g581
sg66
(dp592
g586
I0
sg587
I0
sg588
I0
sg589
I3
ssg68
(dp593
g586
I0
sg587
I0
sg588
I0
sg589
I0
ssg70
(dp594
g586
I0
sg587
I0
sg588
I0
sg589
I0
ssg72
(dp595
g586
I0
sg587
I0
sg588
I0
sg589
I3
ssg74
I0
sg75
I0
sg76
S'Nameol'
p596
sg78
I5
sg79
I0
sg55
I17
sg81
I102
sg82
(S'dummy'
p597
S'TL'
p598
S'CE'
p599
g32
tp600
sg87
g32
sg88
(dp601
S'RP1'
p602
I8
sS'ME'
p603
I9
sS'RP2'
p604
I7
sS'E'
p605
I11
sS'P'
p606
I8
sS'JP'
p607
I6
sS'M'
p608
I8
sS'RP_tot'
p609
I8
sS'TO'
p610
I9
sS'PA'
p611
I8
sS'A'
p612
I11
sS'R'
p613
I10
sS'TB'
p614
I6
sS'PL'
p615
I10
sS'TA'
p616
I6
ssg143
I0
sg28
I0
sg145
I0
sg146
I0
sg147
F9.709677419354838
sg148
I0
sg149
I0
sg150
I0
sg330
(dp617
S'RP1'
p618
I8
sS'ME'
p619
I9
sS'RP2'
p620
I7
sS'E'
p621
I11
sS'P'
p622
I8
sS'JP'
p623
I6
sS'M'
p624
I8
sS'RP_tot'
p625
I8
sS'TO'
p626
I9
sS'PA'
p627
I8
sS'A'
p628
I11
sS'R'
p629
I10
sS'TB'
p630
I6
sS'PL'
p631
I10
sS'TA'
p632
I6
ssg151
g601
sg153
I0
sg154
I0
sg155
I0
sg156
I0
sg157
I9
sg158
I0
sg159
I0
sg160
S'K'
p633
sbssg143
I7
sg28
I0
sg145
I0
sg146
I0
sg68
(dp634
g440
I0
sg441
I0
sg442
I0
sg443
I0
ssg148
I0
sg149
I0
sg150
I0
sg330
(dp635
g452
I8
sg453
I9
sg454
I7
sg455
I11
sg456
I8
sg457
I6
sg458
I8
sg459
I8
sg460
I9
sg461
I8
sg462
I11
sg463
I10
sg464
I6
sg465
I10
sg466
I6
ssg151
(dp636
g452
I9
sg453
I9
sg454
I8
sg455
I12
sg460
I10
sg458
I7
sg457
I6
sg459
I10
sg456
I8
sg461
I9
sg462
I12
sg463
I10
sg464
I6
sg465
I10
sg466
I6
ssg153
I0
sg416
(dp637
sg154
I0
sg155
I0
sg156
I0
sg157
I13
sg158
I0
sg159
I0
sg160
S'K'
p638
sbsS'B4'
p639
(ijoueur
joueur
p640
(dp641
g182
F8.806451612903226
sg27
I0
sg183
F8.516129032258064
sg144
g32
sg29
I1
sg30
F27.96519949925127
sg33
I0
sg35
g36
(g37
g38
Ntp642
Rp643
(dp644
g42
I5
sg43
S'xx'
p645
sg45
S'seigneur'
p646
sbsg47
(dp647
S'SR'
p648
I0
sS'CT'
p649
I0
sS'CR'
p650
I4
sS'ST'
p651
I0
ssg53
(dp652
g648
I0
sg649
I0
sg650
I0
sg651
I0
ssg195
I0
sg196
I0
sg147
F8.363636363636363
sg57
I0
sg197
I1
sg198
I3
sg59
I0
sg60
I0
sg61
I1
sg82
(S'dummy'
p653
S'AI'
p654
S'AR'
p655
S'CE'
p656
tp657
sg64
I00
sg65
g36
(g37
g38
Ntp658
Rp659
(dp660
g42
I5
sg43
S'xx'
p661
sg45
g646
sbsg66
(dp662
g440
I0
sg441
I0
sg442
I0
sg443
I3
ssg80
I00
sg70
(dp663
g440
I0
sg441
I0
sg442
I0
sg443
I0
ssg72
(dp664
g648
I0
sg649
I10
sg650
I3
sg651
I0
ssg74
I13
sg75
I10
sg76
S'Meblann'
p665
sg78
I-1
sg79
I3
sg55
I9
sg81
I50
sg62
g63
sg88
(dp666
S'A'
p667
I8
sS'ME'
p668
I4
sS'RP2'
p669
I5
sS'E'
p670
I10
sS'TO'
p671
I4
sS'RP1'
p672
I8
sS'JP'
p673
I6
sS'RP_tot'
p674
I8
sS'P'
p675
I9
sS'PA'
p676
I7
sS'M'
p677
I10
sS'R'
p678
I5
sS'TB'
p679
I9
sS'PL'
p680
I5
sS'TA'
p681
I4
ssg105
(dp682
g468
(ijoueur
joueur
p683
(dp684
g182
F8.806451612903226
sg27
I0
sg144
g32
sg29
I1
sg33
I0
sg35
g36
(g37
g38
Ntp685
Rp686
(dp687
g42
I5
sg43
S'xx'
p688
sg45
S'seigneur'
p689
sbsg47
(dp690
S'SR'
p691
I0
sS'CT'
p692
I0
sS'CR'
p693
I4
sS'ST'
p694
I0
ssg53
(dp695
g691
I0
sg692
I0
sg693
I0
sg694
I0
ssg196
I0
sg57
I0
sg197
I1
sg198
I3
sg80
I00
sg59
I0
sg60
I0
sg61
I0
sg82
(S'dummy'
p696
S'AI'
p697
S'AR'
p698
S'CE'
p699
tp700
sg64
I00
sg65
g36
(g37
g38
Ntp701
Rp702
(dp703
g42
I5
sg43
S'xx'
p704
sg45
g689
sbsg66
(dp705
g489
I0
sg490
I0
sg491
I0
sg492
I0
ssg68
(dp706
g489
I0
sg490
I0
sg491
I0
sg492
I0
ssg70
(dp707
g489
I0
sg490
I0
sg491
I0
sg492
I0
ssg72
(dp708
g691
I0
sg692
I7
sg693
I3
sg694
I0
ssg74
I3
sg75
I0
sg76
S'Meblann'
p709
sg78
I-1
sg79
I2
sg55
I9
sg81
I50
sg62
g482
sg88
(dp710
S'A'
p711
I10
sS'ME'
p712
I4
sS'RP2'
p713
I6
sS'E'
p714
I10
sS'P'
p715
I9
sS'RP1'
p716
I8
sS'JP'
p717
I6
sS'RP_tot'
p718
I8
sS'TO'
p719
I4
sS'PA'
p720
I7
sS'M'
p721
I10
sS'R'
p722
I6
sS'TB'
p723
I8
sS'PL'
p724
I6
sS'TA'
p725
I4
ssg105
(dp726
g518
(ijoueur
joueur
p727
(dp728
g27
I0
sg29
I1
sg33
I0
sg35
g36
(g37
g38
Ntp729
Rp730
(dp731
g42
I5
sg43
S'xx'
p732
sg45
S'seigneur'
p733
sbsg47
(dp734
S'SR'
p735
I0
sS'ST'
p736
I0
sS'CR'
p737
I4
sS'CT'
p738
I0
ssg53
(dp739
g735
I0
sg736
I0
sg737
I0
sg738
I0
ssg196
I0
sg147
F8.806451612903226
sg57
I0
sg197
I1
sg198
I3
sg59
I1
sg60
I0
sg61
I0
sg82
(S'dummy'
p740
S'AI'
p741
S'AR'
p742
S'CE'
p743
tp744
sg64
I01
sg65
g36
(g37
g38
Ntp745
Rp746
(dp747
g42
I5
sg43
S'xx'
p748
sg45
g733
sbsg66
(dp749
g735
I0
sg736
I0
sg737
I3
sg738
I7
ssg80
I00
sg70
(dp750
g735
I0
sg736
I0
sg737
I0
sg738
I0
ssg72
(dp751
g735
I0
sg736
I0
sg737
I3
sg738
I7
ssg74
I3
sg75
I0
sg76
S'Meblann'
p752
sg78
I-1
sg79
I2
sg55
I9
sg81
I50
sg62
S'PRG'
p753
sg88
(dp754
S'A'
p755
I10
sS'ME'
p756
I4
sS'RP2'
p757
I7
sS'E'
p758
I10
sS'TO'
p759
I4
sS'RP1'
p760
I8
sS'JP'
p761
I6
sS'RP_tot'
p762
I8
sS'P'
p763
I9
sS'PA'
p764
I7
sS'M'
p765
I10
sS'R'
p766
I7
sS'TB'
p767
I8
sS'PL'
p768
I8
sS'TA'
p769
I4
ssg143
I0
sg28
I0
sg145
I0
sg146
I0
sg68
(dp770
g735
I0
sg736
I0
sg737
I4
sg738
I0
ssg148
I0
sg329
I1
sg149
I0
sg150
I0
sg330
(dp771
S'A'
p772
I10
sS'ME'
p773
I4
sS'RP2'
p774
I7
sS'E'
p775
I10
sS'TO'
p776
I4
sS'RP1'
p777
I8
sS'JP'
p778
I6
sS'RP_tot'
p779
I8
sS'P'
p780
I9
sS'PA'
p781
I7
sS'M'
p782
I10
sS'R'
p783
I7
sS'TB'
p784
I8
sS'PL'
p785
I8
sS'TA'
p786
I4
ssg151
g754
sg153
I0
sg56
g32
sg154
I0
sg155
I0
sg156
I0
sg157
I8
sg158
I2
sg159
I0
sg160
S'EMP'
p787
sbssg143
I0
sg28
I0
sg145
I0
sg146
I0
sg147
F8.516129032258064
sg148
I0
sg329
I1
sg149
I0
sg150
I0
sg330
(dp788
g711
I10
sg712
I4
sg713
I7
sg714
I10
sg719
I4
sg716
I8
sg717
I6
sg718
I8
sg715
I9
sg720
I7
sg721
I10
sg722
I7
sg723
I8
sg724
I8
sg725
I4
ssg151
g710
sg153
I0
sg56
S'PRG 12'
p789
sg154
I0
sg155
I0
sg156
I0
sg157
I8
sg158
I2
sg159
I0
sg160
S'EMP'
p790
sbsg577
(ijoueur
joueur
p791
(dp792
g27
I0
sg29
I1
sg33
I0
sg35
g36
(g37
g38
Ntp793
Rp794
(dp795
g42
I5
sg43
S'xx'
p796
sg45
S'seigneur'
p797
sbsg47
(dp798
S'SR'
p799
I0
sS'ST'
p800
I0
sS'CR'
p801
I4
sS'CT'
p802
I0
ssg53
(dp803
g799
I0
sg800
I0
sg801
I0
sg802
I0
ssg196
I0
sg147
F8.806451612903226
sg57
I0
sg197
I1
sg198
I3
sg59
I1
sg60
I0
sg61
I0
sg82
(S'dummy'
p804
S'AI'
p805
S'AR'
p806
S'CE'
p807
tp808
sg64
I01
sg65
g36
(g37
g38
Ntp809
Rp810
(dp811
g42
I5
sg43
S'xx'
p812
sg45
g797
sbsg66
(dp813
g799
I0
sg800
I0
sg801
I3
sg802
I7
ssg80
I00
sg70
(dp814
g799
I0
sg800
I0
sg801
I0
sg802
I0
ssg72
(dp815
g799
I0
sg800
I0
sg801
I3
sg802
I7
ssg74
I3
sg75
I0
sg76
S'Meblann'
p816
sg78
I-1
sg79
I2
sg55
I9
sg81
I50
sg62
S'PRG'
p817
sg88
(dp818
S'A'
p819
I10
sS'ME'
p820
I4
sS'RP2'
p821
I7
sS'E'
p822
I10
sS'TO'
p823
I4
sS'RP1'
p824
I8
sS'JP'
p825
I6
sS'RP_tot'
p826
I8
sS'P'
p827
I9
sS'PA'
p828
I7
sS'M'
p829
I10
sS'R'
p830
I7
sS'TB'
p831
I8
sS'PL'
p832
I8
sS'TA'
p833
I4
ssg143
I0
sg28
I0
sg145
I0
sg146
I0
sg68
(dp834
g799
I0
sg800
I0
sg801
I4
sg802
I0
ssg148
I0
sg329
I1
sg149
I0
sg150
I0
sg330
(dp835
S'A'
p836
I10
sS'ME'
p837
I4
sS'RP2'
p838
I7
sS'E'
p839
I10
sS'TO'
p840
I4
sS'RP1'
p841
I8
sS'JP'
p842
I6
sS'RP_tot'
p843
I8
sS'P'
p844
I9
sS'PA'
p845
I7
sS'M'
p846
I10
sS'R'
p847
I7
sS'TB'
p848
I8
sS'PL'
p849
I8
sS'TA'
p850
I4
ssg151
g818
sg153
I0
sg56
g32
sg154
I0
sg155
I0
sg156
I0
sg157
I8
sg158
I2
sg159
I0
sg160
S'EMP'
p851
sbssg143
I9
sg28
I0
sg145
I0
sg146
I0
sg68
(dp852
g440
I0
sg441
I0
sg442
I0
sg443
I0
ssg148
I0
sg58
F27.96519949925127
sg329
I1
sg149
I0
sg150
I0
sg330
(dp853
g667
I10
sg668
I4
sg669
I7
sg670
I10
sg671
I4
sg672
I8
sg673
I6
sg674
I8
sg675
I9
sg676
I7
sg677
I10
sg678
I7
sg679
I8
sg680
I8
sg681
I4
ssg151
(dp854
g667
I9
sg668
I4
sg669
I5
sg670
I10
sg675
I9
sg672
I8
sg673
I6
sg674
I8
sg671
I4
sg676
I7
sg677
I10
sg678
I6
sg679
I9
sg680
I6
sg681
I4
ssg153
I0
sg416
(dp855
sg154
I1
sg56
S'PRG 12'
p856
sg155
I0
sg156
I1
sg157
I8
sg158
I2
sg159
I0
sg160
S'EMP'
p857
sbsS'RJC'
p858
(ijoueur
joueur
p859
(dp860
g182
F8.787878787878787
sg27
I0
sg183
F9.303030303030303
sg144
g32
sg29
I0
sg30
F18.853660930053863
sg31
g32
sg33
I0
sg34
g32
sg35
g36
(g37
g38
Ntp861
Rp862
(dp863
g42
I5
sg43
S'**'
p864
sg45
S'seigneur'
p865
sbsg47
(dp866
S'SR'
p867
I0
sS'CT'
p868
I0
sS'CR'
p869
I0
sS'ST'
p870
I0
ssg53
(dp871
g867
I0
sg868
I0
sg869
I0
sg870
I0
ssg195
I0
sg56
S'vide 13'
p872
sg147
F10.030303030303031
sg57
I0
sg58
F18.853660930053863
sg59
I0
sg60
I0
sg61
I0
sg62
g63
sg64
I00
sg65
g36
(g37
g38
Ntp873
Rp874
(dp875
g42
I3
sg43
S'^^^'
p876
sg45
S'rare'
p877
sbsg66
(dp878
S'SR'
p879
I0
sS'CT'
p880
I2
sS'CR'
p881
I0
sS'ST'
p882
I0
ssg80
I00
sg70
(dp883
g879
I0
sg880
I0
sg881
I0
sg882
I0
ssg72
(dp884
g867
I9
sg868
I2
sg869
I0
sg870
I1
ssg74
I0
sg75
I0
sg76
S'Optil'
p885
sg78
I11
sg79
I0
sg55
I20
sg81
I31
sg82
(S'dummy'
p886
S'AR'
p887
g32
g32
tp888
sg87
g32
sg88
(dp889
S'RP1'
p890
I8
sS'ME'
p891
I6
sS'RP2'
p892
I8
sS'E'
p893
I11
sS'TO'
p894
I7
sS'M'
p895
I9
sS'JP'
p896
I9
sS'RP_tot'
p897
I10
sS'P'
p898
I7
sS'PA'
p899
I10
sS'A'
p900
I11
sS'R'
p901
I7
sS'TB'
p902
I9
sS'PL'
p903
I11
sS'TA'
p904
I7
ssg105
(dp905
S's12'
p906
(ijoueur
joueur
p907
(dp908
g182
F8.787878787878787
sg27
I0
sg144
g32
sg29
I0
sg31
g32
sg33
I0
sg34
g32
sg35
g36
(g37
g38
Ntp909
Rp910
(dp911
g42
I5
sg43
S'**'
p912
sg45
S'seigneur'
p913
sbsg47
(dp914
S'SR'
p915
I0
sS'CT'
p916
I0
sS'CR'
p917
I0
sS'ST'
p918
I0
ssg53
(dp919
g915
I0
sg916
I0
sg917
I0
sg918
I0
ssg56
g32
sg57
I0
sg80
I01
sg59
I0
sg60
I0
sg61
I0
sg62
S'vide'
p920
sg64
I00
sg65
g36
(g37
g38
Ntp921
Rp922
(dp923
g42
I2
sg43
S'^^'
p924
sg45
S'special'
p925
sbsg66
(dp926
S'SR'
p927
I6
sS'CT'
p928
I0
sS'CR'
p929
I0
sS'ST'
p930
I1
ssg68
(dp931
g927
I0
sg928
I0
sg929
I0
sg930
I0
ssg70
(dp932
g927
I0
sg928
I0
sg929
I0
sg930
I0
ssg72
(dp933
g915
I9
sg916
I0
sg917
I0
sg918
I1
ssg74
I0
sg75
I0
sg76
S'Optil'
p934
sg78
I11
sg79
I0
sg55
I20
sg81
I31
sg82
(S'dummy'
p935
S'AR'
p936
g32
g32
tp937
sg87
g32
sg88
(dp938
S'RP1'
p939
I7
sS'ME'
p940
I6
sS'RP2'
p941
I8
sS'E'
p942
I11
sS'P'
p943
I7
sS'JP'
p944
I8
sS'M'
p945
I9
sS'RP_tot'
p946
I8
sS'TO'
p947
I6
sS'PA'
p948
I10
sS'A'
p949
I10
sS'R'
p950
I7
sS'TB'
p951
I8
sS'PL'
p952
I10
sS'TA'
p953
I7
ssg105
(dp954
S's11'
p955
(ijoueur
joueur
p956
(dp957
g27
I0
sg29
I0
sg31
g32
sg33
I0
sg34
g32
sg35
g36
(g37
g38
Ntp958
Rp959
(dp960
g42
I5
sg43
S'**'
p961
sg45
S'seigneur'
p962
sbsg47
(dp963
S'SR'
p964
I0
sS'ST'
p965
I0
sS'CR'
p966
I0
sS'CT'
p967
I0
ssg53
(dp968
g964
I0
sg965
I0
sg966
I0
sg967
I0
ssg56
g32
sg57
I0
sg80
I01
sg59
I0
sg60
I0
sg61
I0
sg62
S'vide'
p969
sg64
I00
sg65
g36
(g37
g38
Ntp970
Rp971
(dp972
g42
I1
sg43
S'^'
p973
sg45
S'base'
p974
sbsg66
(dp975
g964
I3
sg965
I0
sg966
I0
sg967
I0
ssg68
(dp976
g964
I0
sg965
I0
sg966
I0
sg967
I0
ssg70
(dp977
g964
I0
sg965
I0
sg966
I0
sg967
I0
ssg72
(dp978
g964
I3
sg965
I0
sg966
I0
sg967
I0
ssg74
I0
sg75
I0
sg76
S'Optil'
p979
sg78
I11
sg79
I0
sg55
I20
sg81
I15
sg82
(S'dummy'
p980
S'AR'
p981
g32
g32
tp982
sg87
g32
sg88
(dp983
S'RP1'
p984
I7
sS'ME'
p985
I5
sS'RP2'
p986
I8
sS'E'
p987
I10
sS'TO'
p988
I5
sS'M'
p989
I9
sS'JP'
p990
I8
sS'RP_tot'
p991
I8
sS'P'
p992
I8
sS'PA'
p993
I9
sS'A'
p994
I9
sS'R'
p995
I7
sS'TB'
p996
I7
sS'PL'
p997
I9
sS'TA'
p998
I6
ssg143
I0
sg28
I0
sg145
I0
sg146
I0
sg147
F8.787878787878787
sg148
I0
sg149
I0
sg150
I0
sg330
(dp999
S'RP1'
p1000
I7
sS'ME'
p1001
I5
sS'RP2'
p1002
I8
sS'E'
p1003
I10
sS'TO'
p1004
I5
sS'M'
p1005
I9
sS'JP'
p1006
I8
sS'RP_tot'
p1007
I8
sS'P'
p1008
I8
sS'PA'
p1009
I9
sS'A'
p1010
I9
sS'R'
p1011
I7
sS'TB'
p1012
I7
sS'PL'
p1013
I9
sS'TA'
p1014
I6
ssg151
g983
sg153
I0
sg154
I0
sg155
I0
sg156
I0
sg157
I1
sg158
I0
sg159
I0
sg160
S'K'
p1015
sbssg143
I2
sg28
I0
sg145
I0
sg146
I0
sg147
F9.303030303030303
sg148
I0
sg149
I0
sg150
I0
sg330
(dp1016
g939
I7
sg940
I5
sg941
I8
sg942
I10
sg947
I5
sg945
I9
sg944
I8
sg946
I8
sg943
I8
sg948
I9
sg949
I9
sg950
I7
sg951
I7
sg952
I9
sg953
I6
ssg151
g938
sg153
I0
sg154
I0
sg155
I0
sg156
I0
sg157
I2
sg158
I0
sg159
I0
sg160
S'K'
p1017
sbsS's11'
p1018
(ijoueur
joueur
p1019
(dp1020
g27
I0
sg29
I0
sg31
g32
sg33
I0
sg34
g32
sg35
g36
(g37
g38
Ntp1021
Rp1022
(dp1023
g42
I5
sg43
S'**'
p1024
sg45
S'seigneur'
p1025
sbsg47
(dp1026
S'SR'
p1027
I0
sS'ST'
p1028
I0
sS'CR'
p1029
I0
sS'CT'
p1030
I0
ssg53
(dp1031
g1027
I0
sg1028
I0
sg1029
I0
sg1030
I0
ssg56
g32
sg57
I0
sg80
I01
sg59
I0
sg60
I0
sg61
I0
sg62
S'vide'
p1032
sg64
I00
sg65
g36
(g37
g38
Ntp1033
Rp1034
(dp1035
g42
I1
sg43
S'^'
p1036
sg45
S'base'
p1037
sbsg66
(dp1038
g1027
I3
sg1028
I0
sg1029
I0
sg1030
I0
ssg68
(dp1039
g1027
I0
sg1028
I0
sg1029
I0
sg1030
I0
ssg70
(dp1040
g1027
I0
sg1028
I0
sg1029
I0
sg1030
I0
ssg72
(dp1041
g1027
I3
sg1028
I0
sg1029
I0
sg1030
I0
ssg74
I0
sg75
I0
sg76
S'Optil'
p1042
sg78
I11
sg79
I0
sg55
I20
sg81
I15
sg82
(S'dummy'
p1043
S'AR'
p1044
g32
g32
tp1045
sg87
g32
sg88
(dp1046
S'RP1'
p1047
I7
sS'ME'
p1048
I5
sS'RP2'
p1049
I8
sS'E'
p1050
I10
sS'TO'
p1051
I5
sS'M'
p1052
I9
sS'JP'
p1053
I8
sS'RP_tot'
p1054
I8
sS'P'
p1055
I8
sS'PA'
p1056
I9
sS'A'
p1057
I9
sS'R'
p1058
I7
sS'TB'
p1059
I7
sS'PL'
p1060
I9
sS'TA'
p1061
I6
ssg143
I0
sg28
I0
sg145
I0
sg146
I0
sg147
F8.787878787878787
sg148
I0
sg149
I0
sg150
I0
sg330
(dp1062
S'RP1'
p1063
I7
sS'ME'
p1064
I5
sS'RP2'
p1065
I8
sS'E'
p1066
I10
sS'TO'
p1067
I5
sS'M'
p1068
I9
sS'JP'
p1069
I8
sS'RP_tot'
p1070
I8
sS'P'
p1071
I8
sS'PA'
p1072
I9
sS'A'
p1073
I9
sS'R'
p1074
I7
sS'TB'
p1075
I7
sS'PL'
p1076
I9
sS'TA'
p1077
I6
ssg151
g1046
sg153
I0
sg154
I0
sg155
I0
sg156
I0
sg157
I1
sg158
I0
sg159
I0
sg160
S'K'
p1078
sbssg143
I5
sg28
I0
sg145
I0
sg146
I0
sg68
(dp1079
g879
I0
sg880
I0
sg881
I0
sg882
I0
ssg148
I0
sg149
I0
sg150
I0
sg330
(dp1080
g890
I7
sg891
I5
sg892
I8
sg893
I10
sg894
I5
sg895
I9
sg896
I8
sg897
I8
sg898
I8
sg899
I9
sg900
I9
sg901
I7
sg902
I7
sg903
I9
sg904
I6
ssg151
(dp1081
g890
I8
sg891
I6
sg892
I8
sg893
I11
sg898
I7
sg896
I9
sg895
I9
sg897
I10
sg894
I7
sg899
I10
sg900
I11
sg901
I7
sg902
I9
sg903
I11
sg904
I7
ssg153
I0
sg416
(dp1082
sg154
I0
sg155
I0
sg156
I0
sg157
I2
sg158
I0
sg159
I0
sg160
S'K'
p1083
sbsS'B1'
p1084
g640
sS'B2'
p1085
g640
sS'B3'
p1086
g640
sS'SA_pcp2'
p1087
g421
sS'SA_pcp1'
p1088
(ijoueur
joueur
p1089
(dp1090
g182
F8.352941176470589
sg27
I0
sg183
F8.941176470588236
sg144
g32
sg29
I0
sg30
F27.96519949925127
sg31
g32
sg33
I0
sg34
g32
sg35
g36
(g37
g38
Ntp1091
Rp1092
(dp1093
g42
I4
sg43
S'*'
p1094
sg45
S'heros'
p1095
sbsg47
(dp1096
S'SR'
p1097
I0
sS'ST'
p1098
I0
sS'CR'
p1099
I0
sS'CT'
p1100
I0
ssg53
(dp1101
g1097
I0
sg1098
I0
sg1099
I0
sg1100
I0
ssg195
I0
sg56
g32
sg147
F9.911764705882353
sg57
I0
sg58
F27.96519949925127
sg59
I0
sg60
I0
sg61
I0
sg62
g63
sg64
I00
sg65
g36
(g37
g38
Ntp1102
Rp1103
(dp1104
g42
I3
sg43
S'^^^'
p1105
sg45
S'rare'
p1106
sbsg66
(dp1107
g440
I0
sg441
I0
sg442
I0
sg443
I3
ssg80
I00
sg70
(dp1108
g440
I0
sg441
I0
sg442
I0
sg443
I0
ssg72
(dp1109
g1097
I9
sg1098
I1
sg1099
I0
sg1100
I3
ssg74
I0
sg75
I0
sg76
S'Zolton'
p1110
sg78
I11
sg79
I0
sg55
I19
sg81
I25
sg82
(S'dummy'
p1111
S'DL'
p1112
g32
g32
tp1113
sg87
g32
sg88
(dp1114
S'RP1'
p1115
I9
sS'ME'
p1116
I9
sS'RP2'
p1117
I6
sS'E'
p1118
I9
sS'P'
p1119
I5
sS'JP'
p1120
I3
sS'M'
p1121
I9
sS'RP_tot'
p1122
I9
sS'TO'
p1123
I15
sS'PA'
p1124
I7
sS'A'
p1125
I8
sS'R'
p1126
I8
sS'TB'
p1127
I5
sS'PL'
p1128
I9
sS'TA'
p1129
I5
ssg105
(dp1130
g468
(ijoueur
joueur
p1131
(dp1132
g182
F8.352941176470589
sg27
I0
sg144
g32
sg29
I0
sg31
g32
sg33
I0
sg34
g32
sg35
g36
(g37
g38
Ntp1133
Rp1134
(dp1135
g42
I4
sg43
S'*'
p1136
sg45
S'heros'
p1137
sbsg47
(dp1138
S'SR'
p1139
I0
sS'ST'
p1140
I0
sS'CR'
p1141
I0
sS'CT'
p1142
I0
ssg53
(dp1143
g1139
I0
sg1140
I0
sg1141
I0
sg1142
I0
ssg56
g32
sg57
I0
sg80
I00
sg59
I0
sg60
I0
sg61
I0
sg62
g482
sg64
I00
sg65
g36
(g37
g38
Ntp1144
Rp1145
(dp1146
g42
I2
sg43
S'^^'
p1147
sg45
S'special'
p1148
sbsg66
(dp1149
g489
I6
sg490
I0
sg491
I0
sg492
I1
ssg68
(dp1150
g489
I0
sg490
I0
sg491
I0
sg492
I0
ssg70
(dp1151
g489
I0
sg490
I0
sg491
I0
sg492
I0
ssg72
(dp1152
g1139
I9
sg1140
I1
sg1141
I0
sg1142
I0
ssg74
I0
sg75
I0
sg76
S'Zolton'
p1153
sg78
I11
sg79
I0
sg55
I19
sg81
I25
sg82
(S'dummy'
p1154
S'DL'
p1155
g32
g32
tp1156
sg87
g32
sg88
(dp1157
S'A'
p1158
I0
sS'ME'
p1159
I0
sS'RP2'
p1160
I0
sS'E'
p1161
I0
sS'TO'
p1162
I0
sS'RP1'
p1163
I0
sS'JP'
p1164
I0
sS'RP_tot'
p1165
I0
sS'P'
p1166
I0
sS'PA'
p1167
I0
sS'M'
p1168
I0
sS'R'
p1169
I0
sS'TB'
p1170
I0
sS'PL'
p1171
I0
sS'TA'
p1172
I0
ssg105
(dp1173
g518
(ijoueur
joueur
p1174
(dp1175
g27
I0
sg29
I0
sg31
g32
sg33
I0
sg34
g32
sg35
g36
(g37
g38
Ntp1176
Rp1177
(dp1178
g42
I4
sg43
S'*'
p1179
sg45
S'heros'
p1180
sbsg47
(dp1181
S'SR'
p1182
I0
sS'CT'
p1183
I0
sS'CR'
p1184
I0
sS'ST'
p1185
I0
ssg53
(dp1186
g1182
I0
sg1183
I0
sg1184
I0
sg1185
I0
ssg56
g32
sg57
I0
sg80
I01
sg59
I0
sg60
I0
sg61
I0
sg62
S'vide'
p1187
sg64
I00
sg65
g36
(g37
g38
Ntp1188
Rp1189
(dp1190
g42
I1
sg43
S'<'
p1191
sg45
S'base'
p1192
sbsg66
(dp1193
g1182
I3
sg1183
I0
sg1184
I0
sg1185
I0
ssg68
(dp1194
g1182
I0
sg1183
I0
sg1184
I0
sg1185
I0
ssg70
(dp1195
g1182
I0
sg1183
I0
sg1184
I0
sg1185
I0
ssg72
(dp1196
g1182
I3
sg1183
I0
sg1184
I0
sg1185
I0
ssg74
I0
sg75
I0
sg76
S'Zolton'
p1197
sg78
I11
sg79
I0
sg55
I19
sg81
I15
sg82
(S'dummy'
p1198
S'DL'
p1199
g32
g32
tp1200
sg87
g32
sg88
(dp1201
S'A'
p1202
I0
sS'ME'
p1203
I0
sS'RP2'
p1204
I0
sS'E'
p1205
I0
sS'P'
p1206
I0
sS'RP1'
p1207
I0
sS'JP'
p1208
I0
sS'RP_tot'
p1209
I0
sS'TO'
p1210
I0
sS'PA'
p1211
I0
sS'M'
p1212
I0
sS'R'
p1213
I0
sS'TB'
p1214
I0
sS'PL'
p1215
I0
sS'TA'
p1216
I0
ssg143
I0
sg28
I0
sg145
I0
sg146
I0
sg147
F8.352941176470589
sg148
I0
sg149
I0
sg150
I0
sg330
(dp1217
S'RP1'
p1218
I8
sS'ME'
p1219
I8
sS'RP2'
p1220
I6
sS'E'
p1221
I8
sS'P'
p1222
I4
sS'JP'
p1223
I2
sS'M'
p1224
I8
sS'RP_tot'
p1225
I8
sS'TO'
p1226
I11
sS'PA'
p1227
I5
sS'A'
p1228
I7
sS'R'
p1229
I8
sS'TB'
p1230
I4
sS'PL'
p1231
I7
sS'TA'
p1232
I4
ssg151
(dp1233
g1207
I8
sg1203
I8
sg1204
I6
sg1205
I8
sg1206
I4
sg1208
I2
sg1212
I8
sg1209
I8
sg1210
I11
sg1211
I5
sg1202
I7
sg1213
I8
sg1214
I4
sg1215
I7
sg1216
I4
ssg153
I0
sg154
I0
sg155
I0
sg156
I0
sg157
I1
sg158
I0
sg159
I0
sg160
S'K'
p1234
sbssg143
I5
sg28
I0
sg145
I0
sg146
I0
sg147
F8.941176470588236
sg148
I0
sg149
I0
sg150
I0
sg330
(dp1235
g1163
I8
sg1159
I8
sg1160
I6
sg1161
I8
sg1166
I4
sg1164
I2
sg1168
I8
sg1165
I8
sg1162
I11
sg1167
I5
sg1158
I7
sg1169
I8
sg1170
I4
sg1171
I7
sg1172
I4
ssg151
(dp1236
g1163
I8
sg1159
I9
sg1160
I6
sg1161
I9
sg1162
I12
sg1168
I8
sg1164
I2
sg1165
I8
sg1166
I4
sg1167
I6
sg1158
I7
sg1169
I8
sg1170
I4
sg1171
I8
sg1172
I5
ssg153
I0
sg154
I0
sg155
I0
sg156
I0
sg157
I2
sg158
I0
sg159
I0
sg160
S'K'
p1237
sbsg577
(ijoueur
joueur
p1238
(dp1239
g27
I0
sg29
I0
sg31
g32
sg33
I0
sg34
g32
sg35
g36
(g37
g38
Ntp1240
Rp1241
(dp1242
g42
I4
sg43
S'*'
p1243
sg45
S'heros'
p1244
sbsg47
(dp1245
S'SR'
p1246
I0
sS'CT'
p1247
I0
sS'CR'
p1248
I0
sS'ST'
p1249
I0
ssg53
(dp1250
g1246
I0
sg1247
I0
sg1248
I0
sg1249
I0
ssg56
g32
sg57
I0
sg80
I01
sg59
I0
sg60
I0
sg61
I0
sg62
S'vide'
p1251
sg64
I00
sg65
g36
(g37
g38
Ntp1252
Rp1253
(dp1254
g42
I1
sg43
S'<'
p1255
sg45
S'base'
p1256
sbsg66
(dp1257
g1246
I3
sg1247
I0
sg1248
I0
sg1249
I0
ssg68
(dp1258
g1246
I0
sg1247
I0
sg1248
I0
sg1249
I0
ssg70
(dp1259
g1246
I0
sg1247
I0
sg1248
I0
sg1249
I0
ssg72
(dp1260
g1246
I3
sg1247
I0
sg1248
I0
sg1249
I0
ssg74
I0
sg75
I0
sg76
S'Zolton'
p1261
sg78
I11
sg79
I0
sg55
I19
sg81
I15
sg82
(S'dummy'
p1262
S'DL'
p1263
g32
g32
tp1264
sg87
g32
sg88
(dp1265
S'A'
p1266
I0
sS'ME'
p1267
I0
sS'RP2'
p1268
I0
sS'E'
p1269
I0
sS'P'
p1270
I0
sS'RP1'
p1271
I0
sS'JP'
p1272
I0
sS'RP_tot'
p1273
I0
sS'TO'
p1274
I0
sS'PA'
p1275
I0
sS'M'
p1276
I0
sS'R'
p1277
I0
sS'TB'
p1278
I0
sS'PL'
p1279
I0
sS'TA'
p1280
I0
ssg143
I0
sg28
I0
sg145
I0
sg146
I0
sg147
F8.352941176470589
sg148
I0
sg149
I0
sg150
I0
sg330
(dp1281
S'RP1'
p1282
I8
sS'ME'
p1283
I8
sS'RP2'
p1284
I6
sS'E'
p1285
I8
sS'P'
p1286
I4
sS'JP'
p1287
I2
sS'M'
p1288
I8
sS'RP_tot'
p1289
I8
sS'TO'
p1290
I11
sS'PA'
p1291
I5
sS'A'
p1292
I7
sS'R'
p1293
I8
sS'TB'
p1294
I4
sS'PL'
p1295
I7
sS'TA'
p1296
I4
ssg151
(dp1297
g1271
I8
sg1267
I8
sg1268
I6
sg1269
I8
sg1270
I4
sg1272
I2
sg1276
I8
sg1273
I8
sg1274
I11
sg1275
I5
sg1266
I7
sg1277
I8
sg1278
I4
sg1279
I7
sg1280
I4
ssg153
I0
sg154
I0
sg155
I0
sg156
I0
sg157
I1
sg158
I0
sg159
I0
sg160
S'K'
p1298
sbssg143
I6
sg28
I0
sg145
I0
sg146
I0
sg68
(dp1299
g440
I0
sg441
I0
sg442
I0
sg443
I0
ssg148
I0
sg149
I0
sg150
I0
sg330
(dp1300
g1115
I8
sg1116
I8
sg1117
I6
sg1118
I8
sg1119
I4
sg1120
I2
sg1121
I8
sg1122
I8
sg1123
I11
sg1124
I5
sg1125
I7
sg1126
I8
sg1127
I4
sg1128
I7
sg1129
I4
ssg151
(dp1301
g1115
I9
sg1116
I9
sg1117
I6
sg1118
I9
sg1123
I15
sg1121
I9
sg1120
I3
sg1122
I9
sg1119
I5
sg1124
I7
sg1125
I8
sg1126
I8
sg1127
I5
sg1128
I9
sg1129
I5
ssg153
I0
sg416
(dp1302
sg154
I0
sg155
I0
sg156
I0
sg157
I2
sg158
I0
sg159
I0
sg160
S'K'
p1303
sbsS'drop3'
p1304
g859
sS'SA_remp1'
p1305
(ijoueur
joueur
p1306
(dp1307
g27
I0
sg28
I0
sg29
I0
sg30
F27.96519949925127
sg31
g32
sg33
I0
sg34
g32
sg35
g36
(g37
g38
Ntp1308
Rp1309
(dp1310
g42
I4
sg43
S'x'
p1311
sg45
g46
sbsg47
(dp1312
g49
I0
sg50
I0
sg51
I0
sg52
I0
ssg53
(dp1313
g49
I0
sg50
I0
sg51
I0
sg52
I0
ssg55
I25
sg56
g32
sg57
I0
sg58
F27.96519949925127
sg59
I0
sg60
I0
sg61
I0
sg62
g63
sg64
I00
sg65
g36
(g37
g38
Ntp1314
Rp1315
(dp1316
g42
I3
sg43
S'^^^'
p1317
sg45
S'rare'
p1318
sbsg66
(dp1319
g49
I0
sg50
I0
sg51
I2
sg52
I1
ssg68
(dp1320
g49
I0
sg50
I0
sg51
I0
sg52
I0
ssg70
(dp1321
g49
I0
sg50
I0
sg51
I0
sg52
I0
ssg72
(dp1322
g49
I0
sg50
I0
sg51
I2
sg52
I1
ssg74
I0
sg75
I0
sg76
S'Qlarmeov'
p1323
sg78
I13
sg79
I0
sg80
I00
sg81
I22
sg82
(g83
S'DL'
p1324
S'TL'
p1325
g32
tp1326
sg87
g32
sg88
(dp1327
g90
I8
sg91
I7
sg92
I6
sg93
I10
sg94
I4
sg95
I3
sg96
I8
sg97
I8
sg98
I11
sg99
I9
sg100
I8
sg101
I7
sg102
I3
sg103
I10
sg104
I5
ssg105
(dp1328
sg143
I5
sg144
g32
sg145
I0
sg146
I0
sg147
F8.794117647058824
sg148
I0
sg149
I0
sg150
I0
sg151
(dp1329
g90
I8
sg91
I7
sg92
I6
sg93
I10
sg98
I11
sg96
I8
sg95
I3
sg97
I8
sg94
I4
sg99
I9
sg100
I8
sg101
I7
sg102
I3
sg103
I10
sg104
I5
ssg153
I0
sg154
I0
sg155
I0
sg156
I0
sg157
I2
sg158
I0
sg159
I0
sg160
g178
sbsS'drop1'
p1330
g859
sS'drop2'
p1331
g859
sS'SA_remp2'
p1332
(ijoueur
joueur
p1333
(dp1334
g182
F9.027777777777779
sg27
I0
sg183
F8.805555555555555
sg144
g32
sg29
I0
sg30
F9.10294718082129
sg33
I0
sg35
g36
(g37
g38
Ntp1335
Rp1336
(dp1337
g42
I4
sg43
S'*'
p1338
sg45
S'heros'
p1339
sbsg47
(dp1340
S'SR'
p1341
I0
sS'ST'
p1342
I0
sS'CR'
p1343
I0
sS'CT'
p1344
I0
ssg53
(dp1345
g1341
I0
sg1342
I0
sg1343
I2
sg1344
I0
ssg195
I0
sg196
I0
sg57
I0
sg58
F9.10294718082129
sg80
I00
sg59
I0
sg60
I0
sg61
I0
sg82
(S'dummy'
p1346
S'N8'
p1347
S'TL'
p1348
S'DL'
p1349
tp1350
sg64
I00
sg65
g36
(g37
g38
Ntp1351
Rp1352
(dp1353
g42
I4
sg43
g1338
sg45
g1339
sbsg66
(dp1354
S'SR'
p1355
I0
sS'CT'
p1356
I0
sS'CR'
p1357
I1
sS'ST'
p1358
I0
ssg68
(dp1359
g1355
I0
sg1356
I0
sg1357
I0
sg1358
I0
ssg70
(dp1360
g1355
I0
sg1356
I0
sg1357
I0
sg1358
I0
ssg72
(dp1361
g1341
I0
sg1342
I0
sg1343
I1
sg1344
I0
ssg74
I0
sg75
I0
sg76
S'Karhol'
p1362
sg78
I0
sg79
I0
sg55
I9
sg81
I50
sg62
S'ERE'
p1363
sg88
(dp1364
S'A'
p1365
I8
sS'ME'
p1366
I9
sS'RP2'
p1367
I6
sS'E'
p1368
I7
sS'P'
p1369
I5
sS'RP1'
p1370
I11
sS'JP'
p1371
I4
sS'RP_tot'
p1372
I11
sS'TO'
p1373
I11
sS'PA'
p1374
I8
sS'M'
p1375
I7
sS'R'
p1376
I6
sS'TB'
p1377
I4
sS'PL'
p1378
I7
sS'TA'
p1379
I7
ssg105
(dp1380
S's12'
p1381
(ijoueur
joueur
p1382
(dp1383
g182
F9.027777777777779
sg27
I0
sg144
g32
sg29
I0
sg33
I0
sg35
g36
(g37
g38
Ntp1384
Rp1385
(dp1386
g42
I4
sg43
S'*'
p1387
sg45
S'heros'
p1388
sbsg47
(dp1389
S'SR'
p1390
I0
sS'ST'
p1391
I0
sS'CR'
p1392
I0
sS'CT'
p1393
I0
ssg53
(dp1394
g1390
I0
sg1391
I0
sg1392
I2
sg1393
I0
ssg68
(dp1395
S'SR'
p1396
I0
sS'ST'
p1397
I0
sS'CR'
p1398
I0
sS'CT'
p1399
I0
ssg196
I0
sg57
I0
sg59
I0
sg60
I0
sg61
I0
sg82
(S'dummy'
p1400
S'N8'
p1401
S'TL'
p1402
S'DL'
p1403
tp1404
sg64
I00
sg65
g36
(g37
g38
Ntp1405
Rp1406
(dp1407
g42
I4
sg43
g1387
sg45
g1388
sbsg66
(dp1408
g1396
I0
sg1397
I0
sg1398
I0
sg1399
I0
ssg80
I00
sg70
(dp1409
g1396
I0
sg1397
I0
sg1398
I0
sg1399
I0
ssg72
(dp1410
g1390
I0
sg1391
I0
sg1392
I0
sg1393
I0
ssg74
I0
sg75
I0
sg76
S'Karhol (12)'
p1411
sg78
I0
sg79
I0
sg55
I9
sg81
I50
sg62
S'ERE'
p1412
sg88
(dp1413
S'A'
p1414
I9
sS'ME'
p1415
I9
sS'RP2'
p1416
I6
sS'E'
p1417
I8
sS'TO'
p1418
I11
sS'RP1'
p1419
I11
sS'JP'
p1420
I4
sS'RP_tot'
p1421
I11
sS'P'
p1422
I5
sS'PA'
p1423
I8
sS'M'
p1424
I7
sS'R'
p1425
I7
sS'TB'
p1426
I4
sS'PL'
p1427
I7
sS'TA'
p1428
I7
ssg105
(dp1429
S's11'
p1430
(ijoueur
joueur
p1431
(dp1432
g27
I0
sg29
I0
sg33
I0
sg35
g36
(g37
g38
Ntp1433
Rp1434
(dp1435
g42
I4
sg43
S'*'
p1436
sg45
S'heros'
p1437
sbsg47
(dp1438
S'SR'
p1439
I0
sS'CT'
p1440
I0
sS'CR'
p1441
I0
sS'ST'
p1442
I0
ssg53
(dp1443
g1439
I0
sg1440
I0
sg1441
I2
sg1442
I0
ssg196
I0
sg57
I0
sg80
I00
sg59
I0
sg60
I0
sg61
I0
sg82
(S'dummy'
p1444
S'N8'
p1445
S'TL'
p1446
S'DL'
p1447
tp1448
sg64
I01
sg65
g36
(g37
g38
Ntp1449
Rp1450
(dp1451
g42
I4
sg43
g1436
sg45
g1437
sbsg66
(dp1452
g1439
I0
sg1440
I0
sg1441
I0
sg1442
I0
ssg68
(dp1453
g1439
I0
sg1440
I0
sg1441
I0
sg1442
I0
ssg70
(dp1454
g1439
I0
sg1440
I0
sg1441
I2
sg1442
I0
ssg72
(dp1455
g1439
I0
sg1440
I0
sg1441
I0
sg1442
I0
ssg74
I0
sg75
I0
sg76
S'Karhol'
p1456
sg78
I0
sg79
I0
sg55
I9
sg81
I50
sg62
S'KHR'
p1457
sg88
(dp1458
S'A'
p1459
I10
sS'ME'
p1460
I9
sS'RP2'
p1461
I6
sS'E'
p1462
I8
sS'P'
p1463
I5
sS'RP1'
p1464
I11
sS'JP'
p1465
I4
sS'RP_tot'
p1466
I11
sS'TO'
p1467
I11
sS'PA'
p1468
I8
sS'M'
p1469
I7
sS'R'
p1470
I7
sS'TB'
p1471
I4
sS'PL'
p1472
I8
sS'TA'
p1473
I7
ssg143
I0
sg28
I0
sg145
I0
sg146
I0
sg147
F9.027777777777779
sg148
I0
sg149
I0
sg150
I0
sg330
(dp1474
S'A'
p1475
I10
sS'ME'
p1476
I9
sS'RP2'
p1477
I6
sS'E'
p1478
I8
sS'P'
p1479
I5
sS'RP1'
p1480
I11
sS'JP'
p1481
I4
sS'RP_tot'
p1482
I11
sS'TO'
p1483
I11
sS'PA'
p1484
I8
sS'M'
p1485
I7
sS'R'
p1486
I7
sS'TB'
p1487
I4
sS'PL'
p1488
I8
sS'TA'
p1489
I7
ssg151
g1458
sg153
I0
sg56
g32
sg154
I0
sg155
I0
sg156
I0
sg157
I8
sg158
I12
sg159
I0
sg160
S'CHS'
p1490
sbssg143
I0
sg28
I0
sg145
I0
sg146
I0
sg147
F8.805555555555555
sg148
I0
sg149
I0
sg150
I0
sg330
(dp1491
g1414
I10
sg1415
I9
sg1416
I6
sg1417
I8
sg1422
I5
sg1419
I11
sg1420
I4
sg1421
I11
sg1418
I11
sg1423
I8
sg1424
I7
sg1425
I7
sg1426
I4
sg1427
I8
sg1428
I7
ssg151
g1413
sg153
I0
sg56
S'KHR 12'
p1492
sg154
I0
sg155
I0
sg156
I0
sg157
I8
sg158
I12
sg159
I0
sg160
S'CHS'
p1493
sbsS's11'
p1494
(ijoueur
joueur
p1495
(dp1496
g27
I0
sg29
I0
sg33
I0
sg35
g36
(g37
g38
Ntp1497
Rp1498
(dp1499
g42
I4
sg43
S'*'
p1500
sg45
S'heros'
p1501
sbsg47
(dp1502
S'SR'
p1503
I0
sS'CT'
p1504
I0
sS'CR'
p1505
I0
sS'ST'
p1506
I0
ssg53
(dp1507
g1503
I0
sg1504
I0
sg1505
I2
sg1506
I0
ssg196
I0
sg57
I0
sg80
I00
sg59
I0
sg60
I0
sg61
I0
sg82
(S'dummy'
p1508
S'N8'
p1509
S'TL'
p1510
S'DL'
p1511
tp1512
sg64
I01
sg65
g36
(g37
g38
Ntp1513
Rp1514
(dp1515
g42
I4
sg43
g1500
sg45
g1501
sbsg66
(dp1516
g1503
I0
sg1504
I0
sg1505
I0
sg1506
I0
ssg68
(dp1517
g1503
I0
sg1504
I0
sg1505
I0
sg1506
I0
ssg70
(dp1518
g1503
I0
sg1504
I0
sg1505
I2
sg1506
I0
ssg72
(dp1519
g1503
I0
sg1504
I0
sg1505
I0
sg1506
I0
ssg74
I0
sg75
I0
sg76
S'Karhol (11)'
p1520
sg78
I0
sg79
I0
sg55
I9
sg81
I50
sg62
S'KHR'
p1521
sg88
(dp1522
S'A'
p1523
I10
sS'ME'
p1524
I9
sS'RP2'
p1525
I6
sS'E'
p1526
I8
sS'P'
p1527
I5
sS'RP1'
p1528
I11
sS'JP'
p1529
I4
sS'RP_tot'
p1530
I11
sS'TO'
p1531
I11
sS'PA'
p1532
I8
sS'M'
p1533
I7
sS'R'
p1534
I7
sS'TB'
p1535
I4
sS'PL'
p1536
I8
sS'TA'
p1537
I7
ssg143
I0
sg28
I0
sg145
I0
sg146
I0
sg147
F9.027777777777779
sg148
I0
sg149
I0
sg150
I0
sg330
(dp1538
S'A'
p1539
I10
sS'ME'
p1540
I9
sS'RP2'
p1541
I6
sS'E'
p1542
I8
sS'P'
p1543
I5
sS'RP1'
p1544
I11
sS'JP'
p1545
I4
sS'RP_tot'
p1546
I11
sS'TO'
p1547
I11
sS'PA'
p1548
I8
sS'M'
p1549
I7
sS'R'
p1550
I7
sS'TB'
p1551
I4
sS'PL'
p1552
I8
sS'TA'
p1553
I7
ssg151
g1522
sg153
I0
sg56
g32
sg154
I0
sg155
I0
sg156
I0
sg157
I8
sg158
I12
sg159
I0
sg160
S'CHS'
p1554
sbssg143
I2
sg28
I0
sg145
I0
sg146
I0
sg147
F8.416666666666666
sg148
I0
sg149
I0
sg150
I0
sg330
(dp1555
g1365
I10
sg1366
I9
sg1367
I6
sg1368
I8
sg1369
I5
sg1370
I11
sg1371
I4
sg1372
I11
sg1373
I11
sg1374
I8
sg1375
I7
sg1376
I7
sg1377
I4
sg1378
I8
sg1379
I7
ssg151
(dp1556
g1365
I8
sg1366
I9
sg1367
I6
sg1368
I7
sg1373
I11
sg1370
I11
sg1371
I4
sg1372
I11
sg1369
I5
sg1374
I8
sg1375
I7
sg1376
I6
sg1377
I4
sg1378
I7
sg1379
I7
ssg153
I0
sg416
(dp1557
sg154
I0
sg56
S'KHR 12'
p1558
sg155
I0
sg156
I0
sg157
I8
sg158
I12
sg159
I0
sg160
S'CHS'
p1559
sbssS'totaux'
p1560
(dp1561
g19
I0
sg20
I0
sg21
I0
ssS'_compo_defaut_fatigue'
p1562
Nsg88
(dp1563
g4
I0
sg5
I0
sg6
I0
sg7
I0
sg8
I0
sg9
I0
sg10
I0
sg11
I0
sg12
I0
sg13
I0
sg14
I0
sg15
I0
sg16
I0
ssS'joueurs'
p1564
(dp1565
S'n12'
p1566
(ijoueur
joueur
p1567
(dp1568
g182
F9.709677419354838
sg27
I0
sg183
F10.483870967741936
sg144
g32
sg29
I0
sg30
F18.862252318429977
sg31
g32
sg33
I0
sg34
g32
sg35
g36
(g37
g38
Ntp1569
Rp1570
(dp1571
g42
I4
sg43
S'*'
p1572
sg45
S'heros'
p1573
sbsg47
(dp1574
S'SR'
p1575
I0
sS'CT'
p1576
I0
sS'CR'
p1577
I0
sS'ST'
p1578
I0
ssg53
(dp1579
g1575
I0
sg1576
I0
sg1577
I0
sg1578
I0
ssg195
I0
sg56
g32
sg57
I0
sg58
F18.862252318429977
sg80
I00
sg59
I0
sg60
I0
sg61
I0
sg62
g1363
sg64
I00
sg65
g36
(g37
g38
Ntp1580
Rp1581
(dp1582
g42
I5
sg43
S'**'
p1583
sg45
S'seigneur'
p1584
sbsg66
(dp1585
g1355
I0
sg1356
I2
sg1357
I0
sg1358
I0
ssg68
(dp1586
g1355
I0
sg1356
I0
sg1357
I0
sg1358
I0
ssg70
(dp1587
g1355
I0
sg1356
I0
sg1357
I0
sg1358
I0
ssg72
(dp1588
g1575
I0
sg1576
I2
sg1577
I0
sg1578
I10
ssg74
I0
sg75
I0
sg76
S'Nameol'
p1589
sg78
I5
sg79
I0
sg55
I17
sg81
I142
sg82
(S'dummy'
p1590
S'TL'
p1591
S'CE'
p1592
g32
tp1593
sg87
g32
sg88
(dp1594
S'RP1'
p1595
I9
sS'ME'
p1596
I9
sS'RP2'
p1597
I8
sS'E'
p1598
I12
sS'TO'
p1599
I10
sS'M'
p1600
I7
sS'JP'
p1601
I6
sS'RP_tot'
p1602
I10
sS'P'
p1603
I8
sS'PA'
p1604
I9
sS'A'
p1605
I12
sS'R'
p1606
I10
sS'TB'
p1607
I6
sS'PL'
p1608
I10
sS'TA'
p1609
I6
ssg105
(dp1610
g1381
(ijoueur
joueur
p1611
(dp1612
g182
F9.709677419354838
sg27
I0
sg144
g32
sg29
I0
sg31
g32
sg33
I0
sg34
g32
sg35
g36
(g37
g38
Ntp1613
Rp1614
(dp1615
g42
I4
sg43
S'*'
p1616
sg45
S'heros'
p1617
sbsg47
(dp1618
S'SR'
p1619
I0
sS'CT'
p1620
I0
sS'CR'
p1621
I0
sS'ST'
p1622
I0
ssg53
(dp1623
g1619
I0
sg1620
I0
sg1621
I0
sg1622
I0
ssg68
(dp1624
g1396
I0
sg1397
I0
sg1398
I0
sg1399
I0
ssg56
g32
sg57
I0
sg59
I0
sg60
I0
sg61
I0
sg62
g1412
sg64
I00
sg65
g36
(g37
g38
Ntp1625
Rp1626
(dp1627
g42
I5
sg43
S'**'
p1628
sg45
S'seigneur'
p1629
sbsg66
(dp1630
g1396
I0
sg1397
I7
sg1398
I0
sg1399
I0
ssg80
I00
sg70
(dp1631
g1396
I0
sg1397
I0
sg1398
I0
sg1399
I0
ssg72
(dp1632
g1619
I0
sg1620
I0
sg1621
I0
sg1622
I10
ssg74
I0
sg75
I0
sg76
S'Nameol (12)'
p1633
sg78
I5
sg79
I0
sg55
I17
sg81
I142
sg82
(S'dummy'
p1634
S'TL'
p1635
S'CE'
p1636
g32
tp1637
sg87
g32
sg88
(dp1638
S'RP1'
p1639
I9
sS'ME'
p1640
I9
sS'RP2'
p1641
I8
sS'E'
p1642
I12
sS'P'
p1643
I8
sS'JP'
p1644
I6
sS'M'
p1645
I9
sS'RP_tot'
p1646
I10
sS'TO'
p1647
I10
sS'PA'
p1648
I9
sS'A'
p1649
I12
sS'R'
p1650
I10
sS'TB'
p1651
I6
sS'PL'
p1652
I11
sS'TA'
p1653
I6
ssg105
(dp1654
g1430
(ijoueur
joueur
p1655
(dp1656
g27
I0
sg29
I0
sg31
g32
sg33
I0
sg34
g32
sg35
g36
(g37
g38
Ntp1657
Rp1658
(dp1659
g42
I4
sg43
S'*'
p1660
sg45
S'heros'
p1661
sbsg47
(dp1662
S'SR'
p1663
I0
sS'ST'
p1664
I0
sS'CR'
p1665
I0
sS'CT'
p1666
I0
ssg53
(dp1667
g1663
I0
sg1664
I0
sg1665
I0
sg1666
I0
ssg56
g32
sg57
I0
sg80
I00
sg59
I0
sg60
I0
sg61
I0
sg62
S'vide'
p1668
sg64
I00
sg65
g1658
sg66
(dp1669
g1663
I0
sg1664
I3
sg1665
I0
sg1666
I0
ssg68
(dp1670
g1663
I0
sg1664
I0
sg1665
I0
sg1666
I0
ssg70
(dp1671
g1663
I0
sg1664
I0
sg1665
I0
sg1666
I0
ssg72
(dp1672
g1663
I0
sg1664
I3
sg1665
I0
sg1666
I0
ssg74
I0
sg75
I0
sg76
S'Nameol'
p1673
sg78
I5
sg79
I0
sg55
I17
sg81
I102
sg82
(S'dummy'
p1674
S'TL'
p1675
S'CE'
p1676
g32
tp1677
sg87
g32
sg88
(dp1678
S'RP1'
p1679
I8
sS'ME'
p1680
I9
sS'RP2'
p1681
I7
sS'E'
p1682
I11
sS'TO'
p1683
I9
sS'M'
p1684
I8
sS'JP'
p1685
I6
sS'RP_tot'
p1686
I8
sS'P'
p1687
I8
sS'PA'
p1688
I8
sS'A'
p1689
I11
sS'R'
p1690
I10
sS'TB'
p1691
I6
sS'PL'
p1692
I10
sS'TA'
p1693
I6
ssg143
I0
sg28
I0
sg145
I0
sg146
I0
sg147
F9.709677419354838
sg148
I0
sg149
I0
sg150
I0
sg330
(dp1694
S'RP1'
p1695
I8
sS'ME'
p1696
I9
sS'RP2'
p1697
I7
sS'E'
p1698
I11
sS'TO'
p1699
I9
sS'M'
p1700
I8
sS'JP'
p1701
I6
sS'RP_tot'
p1702
I8
sS'P'
p1703
I8
sS'PA'
p1704
I8
sS'A'
p1705
I11
sS'R'
p1706
I10
sS'TB'
p1707
I6
sS'PL'
p1708
I10
sS'TA'
p1709
I6
ssg151
g1678
sg153
I0
sg154
I0
sg155
I0
sg156
I0
sg157
I9
sg158
I0
sg159
I0
sg160
S'K'
p1710
sbssg143
I8
sg28
I0
sg145
I0
sg146
I0
sg147
F10.483870967741936
sg148
I0
sg149
I0
sg150
I0
sg330
(dp1711
g1639
I8
sg1640
I9
sg1641
I7
sg1642
I11
sg1647
I9
sg1645
I8
sg1644
I6
sg1646
I8
sg1643
I8
sg1648
I8
sg1649
I11
sg1650
I10
sg1651
I6
sg1652
I10
sg1653
I6
ssg151
g1638
sg153
I0
sg154
I0
sg155
I0
sg156
I0
sg157
I13
sg158
I0
sg159
I0
sg160
S'K'
p1712
sbsg1494
(ijoueur
joueur
p1713
(dp1714
g27
I0
sg29
I0
sg31
g32
sg33
I0
sg34
g32
sg35
g36
(g37
g38
Ntp1715
Rp1716
(dp1717
g42
I4
sg43
S'*'
p1718
sg45
S'heros'
p1719
sbsg47
(dp1720
S'SR'
p1721
I0
sS'ST'
p1722
I0
sS'CR'
p1723
I0
sS'CT'
p1724
I0
ssg53
(dp1725
g1721
I0
sg1722
I0
sg1723
I0
sg1724
I0
ssg56
g32
sg57
I0
sg80
I00
sg59
I0
sg60
I0
sg61
I0
sg62
S'vide'
p1726
sg64
I00
sg65
g1716
sg66
(dp1727
g1721
I0
sg1722
I3
sg1723
I0
sg1724
I0
ssg68
(dp1728
g1721
I0
sg1722
I0
sg1723
I0
sg1724
I0
ssg70
(dp1729
g1721
I0
sg1722
I0
sg1723
I0
sg1724
I0
ssg72
(dp1730
g1721
I0
sg1722
I3
sg1723
I0
sg1724
I0
ssg74
I0
sg75
I0
sg76
S'Nameol (11)'
p1731
sg78
I5
sg79
I0
sg55
I17
sg81
I102
sg82
(S'dummy'
p1732
S'TL'
p1733
S'CE'
p1734
g32
tp1735
sg87
g32
sg88
(dp1736
S'RP1'
p1737
I8
sS'ME'
p1738
I9
sS'RP2'
p1739
I7
sS'E'
p1740
I11
sS'TO'
p1741
I9
sS'M'
p1742
I8
sS'JP'
p1743
I6
sS'RP_tot'
p1744
I9
sS'P'
p1745
I8
sS'PA'
p1746
I8
sS'A'
p1747
I11
sS'R'
p1748
I10
sS'TB'
p1749
I6
sS'PL'
p1750
I10
sS'TA'
p1751
I6
ssg143
I0
sg28
I0
sg145
I0
sg146
I0
sg147
F9.709677419354838
sg148
I0
sg149
I0
sg150
I0
sg330
(dp1752
S'RP1'
p1753
I8
sS'ME'
p1754
I9
sS'RP2'
p1755
I7
sS'E'
p1756
I11
sS'TO'
p1757
I9
sS'M'
p1758
I8
sS'JP'
p1759
I6
sS'RP_tot'
p1760
I8
sS'P'
p1761
I8
sS'PA'
p1762
I8
sS'A'
p1763
I11
sS'R'
p1764
I10
sS'TB'
p1765
I6
sS'PL'
p1766
I10
sS'TA'
p1767
I6
ssg151
g1736
sg153
I0
sg154
I0
sg155
I0
sg156
I0
sg157
I9
sg158
I0
sg159
I0
sg160
S'K'
p1768
sbssg143
I7
sg28
I0
sg145
I0
sg146
I0
sg147
F10.161290322580646
sg148
I0
sg149
I0
sg150
I0
sg330
(dp1769
g1595
I8
sg1596
I9
sg1597
I7
sg1598
I11
sg1599
I9
sg1600
I8
sg1601
I6
sg1602
I8
sg1603
I8
sg1604
I8
sg1605
I11
sg1606
I10
sg1607
I6
sg1608
I10
sg1609
I6
ssg151
(dp1770
g1595
I9
sg1596
I9
sg1597
I8
sg1598
I12
sg1603
I8
sg1601
I6
sg1600
I7
sg1602
I10
sg1599
I10
sg1604
I9
sg1605
I12
sg1606
I10
sg1607
I6
sg1608
I10
sg1609
I6
ssg153
I0
sg416
(dp1771
sg154
I0
sg155
I0
sg156
I0
sg157
I13
sg158
I0
sg159
I0
sg160
S'K'
p1772
sbsS'n13'
p1773
(ijoueur
joueur
p1774
(dp1775
g27
I0
sg28
I0
sg29
I0
sg30
F27.96519949925127
sg31
g32
sg33
I0
sg34
g32
sg35
g36
(g37
g38
Ntp1776
Rp1777
(dp1778
g42
I4
sg43
S'*'
p1779
sg45
S'heros'
p1780
sbsg47
(dp1781
S'SR'
p1782
I0
sS'CT'
p1783
I0
sS'CR'
p1784
I0
sS'ST'
p1785
I0
ssg53
(dp1786
g1782
I0
sg1783
I0
sg1784
I0
sg1785
I0
ssg56
g32
sg57
I0
sg58
F27.96519949925127
sg59
I0
sg60
I0
sg61
I0
sg62
g1363
sg64
I00
sg65
g36
(g37
g38
Ntp1787
Rp1788
(dp1789
g42
I1
sg43
S'^'
p1790
sg45
S'base'
p1791
sbsg66
(dp1792
g1782
I0
sg1783
I0
sg1784
I3
sg1785
I0
ssg80
I00
sg70
(dp1793
g1782
I0
sg1783
I0
sg1784
I0
sg1785
I0
ssg72
(dp1794
g1782
I0
sg1783
I0
sg1784
I3
sg1785
I0
ssg74
I0
sg75
I0
sg76
S'Georgu'
p1795
sg78
I13
sg79
I0
sg55
I20
sg81
I10
sg82
(S'dummy'
p1796
S'C2'
p1797
g32
g32
tp1798
sg87
g32
sg88
(dp1799
S'RP1'
p1800
I10
sS'ME'
p1801
I5
sS'RP2'
p1802
I8
sS'E'
p1803
I8
sS'TO'
p1804
I4
sS'M'
p1805
I8
sS'JP'
p1806
I6
sS'RP_tot'
p1807
I11
sS'P'
p1808
I8
sS'PA'
p1809
I8
sS'A'
p1810
I7
sS'R'
p1811
I7
sS'TB'
p1812
I6
sS'PL'
p1813
I8
sS'TA'
p1814
I2
ssg105
(dp1815
sg143
I6
sg144
g32
sg145
I0
sg149
I0
sg146
I0
sg147
F8.241379310344827
sg148
I0
sg68
(dp1816
g1782
I0
sg1783
I0
sg1784
I0
sg1785
I0
ssg150
I0
sg151
(dp1817
g1800
I10
sg1801
I5
sg1802
I8
sg1803
I8
sg1808
I8
sg1806
I6
sg1805
I8
sg1807
I11
sg1804
I4
sg1809
I8
sg1810
I7
sg1811
I7
sg1812
I6
sg1813
I8
sg1814
I2
ssg153
I0
sg154
I0
sg155
I0
sg156
I0
sg157
I1
sg158
I0
sg159
I0
sg160
S'K'
p1818
sbsS'n10'
p1819
(ijoueur
joueur
p1820
(dp1821
g182
F8.17142857142857
sg27
I0
sg183
F8.085714285714285
sg144
g32
sg29
I0
sg30
I0
sg31
g32
sg33
I0
sg34
g32
sg35
g36
(g37
g38
Ntp1822
Rp1823
(dp1824
g42
I1
sg43
S'^'
p1825
sg45
S'base'
p1826
sbsg47
(dp1827
S'SR'
p1828
I0
sS'ST'
p1829
I0
sS'CR'
p1830
I0
sS'CT'
p1831
I0
ssg53
(dp1832
g1828
I0
sg1829
I0
sg1830
I0
sg1831
I0
ssg195
I0
sg56
g32
sg57
I0
sg58
I0
sg80
I00
sg59
I0
sg60
I0
sg61
I0
sg62
g1363
sg64
I00
sg65
g1823
sg66
(dp1833
g1355
I0
sg1356
I0
sg1357
I0
sg1358
I0
ssg68
(dp1834
g1355
I0
sg1356
I0
sg1357
I0
sg1358
I0
ssg70
(dp1835
g1355
I0
sg1356
I0
sg1357
I0
sg1358
I0
ssg72
(dp1836
g1828
I0
sg1829
I0
sg1830
I0
sg1831
I0
ssg74
I0
sg75
I0
sg76
S'Yvohen'
p1837
sg78
I9
sg79
I0
sg55
I21
sg81
I16
sg82
(S'dummy'
p1838
S'DO'
p1839
S'AR'
p1840
g32
tp1841
sg87
g32
sg88
(dp1842
S'RP1'
p1843
I6
sS'ME'
p1844
I5
sS'RP2'
p1845
I6
sS'E'
p1846
I10
sS'P'
p1847
I8
sS'JP'
p1848
I8
sS'M'
p1849
I7
sS'RP_tot'
p1850
I7
sS'TO'
p1851
I1
sS'PA'
p1852
I7
sS'A'
p1853
I8
sS'R'
p1854
I5
sS'TB'
p1855
I9
sS'PL'
p1856
I9
sS'TA'
p1857
I6
ssg105
(dp1858
g1381
(ijoueur
joueur
p1859
(dp1860
g182
F8.17142857142857
sg27
I0
sg144
g32
sg29
I0
sg31
g32
sg33
I0
sg34
g32
sg35
g36
(g37
g38
Ntp1861
Rp1862
(dp1863
g42
I1
sg43
S'^'
p1864
sg45
S'base'
p1865
sbsg47
(dp1866
S'SR'
p1867
I0
sS'ST'
p1868
I0
sS'CR'
p1869
I0
sS'CT'
p1870
I0
ssg53
(dp1871
g1867
I0
sg1868
I0
sg1869
I0
sg1870
I0
ssg68
(dp1872
g1396
I0
sg1397
I0
sg1398
I0
sg1399
I0
ssg56
g32
sg57
I0
sg59
I0
sg60
I0
sg61
I0
sg62
g1412
sg64
I00
sg65
g1862
sg66
(dp1873
g1396
I0
sg1397
I0
sg1398
I0
sg1399
I0
ssg80
I01
sg70
(dp1874
g1396
I0
sg1397
I0
sg1398
I0
sg1399
I0
ssg72
(dp1875
g1867
I0
sg1868
I0
sg1869
I0
sg1870
I0
ssg74
I0
sg75
I0
sg76
S'Yvohen'
p1876
sg78
I9
sg79
I0
sg55
I21
sg81
I16
sg82
(S'dummy'
p1877
S'DO'
p1878
S'AR'
p1879
g32
tp1880
sg87
g32
sg88
(dp1881
S'RP1'
p1882
I6
sS'ME'
p1883
I5
sS'RP2'
p1884
I6
sS'E'
p1885
I10
sS'TO'
p1886
I1
sS'M'
p1887
I8
sS'JP'
p1888
I8
sS'RP_tot'
p1889
I6
sS'P'
p1890
I8
sS'PA'
p1891
I7
sS'A'
p1892
I8
sS'R'
p1893
I6
sS'TB'
p1894
I10
sS'PL'
p1895
I9
sS'TA'
p1896
I6
ssg105
(dp1897
g1430
(ijoueur
joueur
p1898
(dp1899
g27
I0
sg29
I0
sg31
g32
sg33
I0
sg34
g32
sg35
g36
(g37
g38
Ntp1900
Rp1901
(dp1902
g42
I1
sg43
S'^'
p1903
sg45
S'base'
p1904
sbsg47
(dp1905
S'SR'
p1906
I0
sS'CT'
p1907
I0
sS'CR'
p1908
I0
sS'ST'
p1909
I0
ssg53
(dp1910
g1906
I0
sg1907
I0
sg1908
I0
sg1909
I0
ssg56
g32
sg57
I0
sg80
I01
sg59
I0
sg60
I0
sg61
I0
sg62
S'vide'
p1911
sg64
I01
sg65
g1901
sg66
(dp1912
g1906
I0
sg1907
I0
sg1908
I0
sg1909
I0
ssg68
(dp1913
g1906
I0
sg1907
I0
sg1908
I0
sg1909
I0
ssg70
(dp1914
g1906
I0
sg1907
I0
sg1908
I0
sg1909
I0
ssg72
(dp1915
g1906
I0
sg1907
I0
sg1908
I0
sg1909
I0
ssg74
I0
sg75
I0
sg76
S'Yvohen'
p1916
sg78
I9
sg79
I0
sg55
I21
sg81
I16
sg82
(S'dummy'
p1917
S'DO'
p1918
S'AR'
p1919
g32
tp1920
sg87
g32
sg88
(dp1921
S'RP1'
p1922
I6
sS'ME'
p1923
I5
sS'RP2'
p1924
I6
sS'E'
p1925
I10
sS'P'
p1926
I8
sS'JP'
p1927
I8
sS'M'
p1928
I8
sS'RP_tot'
p1929
I6
sS'TO'
p1930
I1
sS'PA'
p1931
I8
sS'A'
p1932
I8
sS'R'
p1933
I6
sS'TB'
p1934
I9
sS'PL'
p1935
I9
sS'TA'
p1936
I6
ssg143
I0
sg28
I0
sg145
I0
sg146
I0
sg147
F8.17142857142857
sg148
I0
sg149
I0
sg150
I0
sg330
(dp1937
S'RP1'
p1938
I6
sS'ME'
p1939
I5
sS'RP2'
p1940
I6
sS'E'
p1941
I10
sS'P'
p1942
I8
sS'JP'
p1943
I8
sS'M'
p1944
I8
sS'RP_tot'
p1945
I6
sS'TO'
p1946
I1
sS'PA'
p1947
I8
sS'A'
p1948
I8
sS'R'
p1949
I6
sS'TB'
p1950
I9
sS'PL'
p1951
I9
sS'TA'
p1952
I6
ssg151
g1921
sg153
I0
sg154
I0
sg155
I0
sg156
I0
sg157
I1
sg158
I0
sg159
I0
sg160
S'K'
p1953
sbssg143
I0
sg28
I0
sg145
I0
sg146
I0
sg147
F8.085714285714285
sg148
I0
sg149
I0
sg150
I0
sg330
(dp1954
g1882
I6
sg1883
I5
sg1884
I6
sg1885
I10
sg1890
I8
sg1888
I8
sg1887
I8
sg1889
I6
sg1886
I1
sg1891
I8
sg1892
I8
sg1893
I6
sg1894
I9
sg1895
I9
sg1896
I6
ssg151
g1881
sg153
I0
sg154
I0
sg155
I0
sg156
I0
sg157
I1
sg158
I0
sg159
I0
sg160
S'K'
p1955
sbsg1494
(ijoueur
joueur
p1956
(dp1957
g27
I0
sg29
I0
sg31
g32
sg33
I0
sg34
g32
sg35
g36
(g37
g38
Ntp1958
Rp1959
(dp1960
g42
I1
sg43
S'^'
p1961
sg45
S'base'
p1962
sbsg47
(dp1963
S'SR'
p1964
I0
sS'CT'
p1965
I0
sS'CR'
p1966
I0
sS'ST'
p1967
I0
ssg53
(dp1968
g1964
I0
sg1965
I0
sg1966
I0
sg1967
I0
ssg56
g32
sg57
I0
sg80
I01
sg59
I0
sg60
I0
sg61
I0
sg62
S'vide'
p1969
sg64
I01
sg65
g1959
sg66
(dp1970
g1964
I0
sg1965
I0
sg1966
I0
sg1967
I0
ssg68
(dp1971
g1964
I0
sg1965
I0
sg1966
I0
sg1967
I0
ssg70
(dp1972
g1964
I0
sg1965
I0
sg1966
I0
sg1967
I0
ssg72
(dp1973
g1964
I0
sg1965
I0
sg1966
I0
sg1967
I0
ssg74
I0
sg75
I0
sg76
S'Yvohen'
p1974
sg78
I9
sg79
I0
sg55
I21
sg81
I16
sg82
(S'dummy'
p1975
S'DO'
p1976
S'AR'
p1977
g32
tp1978
sg87
g32
sg88
(dp1979
S'RP1'
p1980
I6
sS'ME'
p1981
I5
sS'RP2'
p1982
I6
sS'E'
p1983
I10
sS'P'
p1984
I8
sS'JP'
p1985
I8
sS'M'
p1986
I8
sS'RP_tot'
p1987
I6
sS'TO'
p1988
I1
sS'PA'
p1989
I8
sS'A'
p1990
I8
sS'R'
p1991
I6
sS'TB'
p1992
I9
sS'PL'
p1993
I9
sS'TA'
p1994
I6
ssg143
I0
sg28
I0
sg145
I0
sg146
I0
sg147
F8.17142857142857
sg148
I0
sg149
I0
sg150
I0
sg330
(dp1995
S'RP1'
p1996
I6
sS'ME'
p1997
I5
sS'RP2'
p1998
I6
sS'E'
p1999
I10
sS'P'
p2000
I8
sS'JP'
p2001
I8
sS'M'
p2002
I8
sS'RP_tot'
p2003
I6
sS'TO'
p2004
I1
sS'PA'
p2005
I8
sS'A'
p2006
I8
sS'R'
p2007
I6
sS'TB'
p2008
I9
sS'PL'
p2009
I9
sS'TA'
p2010
I6
ssg151
g1979
sg153
I0
sg154
I0
sg155
I0
sg156
I0
sg157
I1
sg158
I0
sg159
I0
sg160
S'K'
p2011
sbssg143
I0
sg28
I0
sg145
I0
sg146
I0
sg147
F8.0
sg148
I0
sg149
I0
sg150
I0
sg330
(dp2012
g1843
I6
sg1844
I5
sg1845
I6
sg1846
I10
sg1847
I8
sg1848
I8
sg1849
I8
sg1850
I6
sg1851
I1
sg1852
I8
sg1853
I8
sg1854
I6
sg1855
I9
sg1856
I9
sg1857
I6
ssg151
(dp2013
g1843
I6
sg1844
I5
sg1845
I6
sg1846
I10
sg1851
I1
sg1849
I7
sg1848
I8
sg1850
I7
sg1847
I8
sg1852
I7
sg1853
I8
sg1854
I5
sg1855
I9
sg1856
I9
sg1857
I6
ssg153
I0
sg416
(dp2014
sg154
I0
sg155
I0
sg156
I0
sg157
I1
sg158
I0
sg159
I0
sg160
S'K'
p2015
sbsS'n11'
p2016
(ijoueur
joueur
p2017
(dp2018
g182
F8.064516129032258
sg27
I0
sg183
F8.363636363636363
sg144
g32
sg29
I0
sg30
F9.111538569197403
sg31
g32
sg33
I0
sg34
g32
sg35
g36
(g37
g38
Ntp2019
Rp2020
(dp2021
g42
I1
sg43
S'^'
p2022
sg45
S'base'
p2023
sbsg47
(dp2024
S'SR'
p2025
I0
sS'CT'
p2026
I0
sS'CR'
p2027
I0
sS'ST'
p2028
I0
ssg53
(dp2029
g2025
I0
sg2026
I0
sg2027
I0
sg2028
I0
ssg195
I0
sg56
g32
sg57
I0
sg58
F9.111538569197403
sg80
I00
sg59
I0
sg60
I0
sg61
I0
sg62
g1363
sg64
I00
sg65
g2020
sg66
(dp2030
g1355
I0
sg1356
I0
sg1357
I1
sg1358
I0
ssg68
(dp2031
g1355
I0
sg1356
I0
sg1357
I0
sg1358
I0
ssg70
(dp2032
g1355
I0
sg1356
I0
sg1357
I0
sg1358
I0
ssg72
(dp2033
g2025
I0
sg2026
I0
sg2027
I1
sg2028
I0
ssg74
I0
sg75
I0
sg76
S'Qimor'
p2034
sg78
I11
sg79
I0
sg55
I22
sg81
I14
sg82
(S'dummy'
p2035
S'AI'
p2036
g32
g32
tp2037
sg87
g32
sg88
(dp2038
S'RP1'
p2039
I8
sS'ME'
p2040
I3
sS'RP2'
p2041
I8
sS'E'
p2042
I8
sS'TO'
p2043
I5
sS'M'
p2044
I7
sS'JP'
p2045
I5
sS'RP_tot'
p2046
I10
sS'P'
p2047
I7
sS'PA'
p2048
I7
sS'A'
p2049
I10
sS'R'
p2050
I8
sS'TB'
p2051
I9
sS'PL'
p2052
I10
sS'TA'
p2053
I3
ssg105
(dp2054
g1381
(ijoueur
joueur
p2055
(dp2056
g182
F8.064516129032258
sg27
I0
sg144
g32
sg29
I0
sg31
g32
sg33
I0
sg34
g32
sg35
g36
(g37
g38
Ntp2057
Rp2058
(dp2059
g42
I1
sg43
S'^'
p2060
sg45
S'base'
p2061
sbsg47
(dp2062
S'SR'
p2063
I0
sS'CT'
p2064
I0
sS'CR'
p2065
I0
sS'ST'
p2066
I0
ssg53
(dp2067
g2063
I0
sg2064
I0
sg2065
I0
sg2066
I0
ssg68
(dp2068
g1396
I0
sg1397
I0
sg1398
I0
sg1399
I0
ssg56
g32
sg57
I0
sg59
I0
sg60
I0
sg61
I0
sg62
g1412
sg64
I00
sg65
g2058
sg66
(dp2069
g1396
I0
sg1397
I0
sg1398
I0
sg1399
I0
ssg80
I01
sg70
(dp2070
g1396
I0
sg1397
I0
sg1398
I0
sg1399
I0
ssg72
(dp2071
g2063
I0
sg2064
I0
sg2065
I0
sg2066
I0
ssg74
I0
sg75
I0
sg76
S'Qimor'
p2072
sg78
I11
sg79
I0
sg55
I22
sg81
I14
sg82
(S'dummy'
p2073
S'AI'
p2074
g32
g32
tp2075
sg87
g32
sg88
(dp2076
S'RP1'
p2077
I8
sS'ME'
p2078
I3
sS'RP2'
p2079
I8
sS'E'
p2080
I8
sS'P'
p2081
I7
sS'JP'
p2082
I5
sS'M'
p2083
I7
sS'RP_tot'
p2084
I9
sS'TO'
p2085
I5
sS'PA'
p2086
I7
sS'A'
p2087
I10
sS'R'
p2088
I8
sS'TB'
p2089
I9
sS'PL'
p2090
I9
sS'TA'
p2091
I3
ssg105
(dp2092
g1430
(ijoueur
joueur
p2093
(dp2094
g27
I0
sg29
I0
sg31
g32
sg33
I0
sg34
g32
sg35
g36
(g37
g38
Ntp2095
Rp2096
(dp2097
g42
I1
sg43
S'^'
p2098
sg45
S'base'
p2099
sbsg47
(dp2100
S'SR'
p2101
I0
sS'ST'
p2102
I0
sS'CR'
p2103
I0
sS'CT'
p2104
I0
ssg53
(dp2105
g2101
I0
sg2102
I0
sg2103
I0
sg2104
I0
ssg56
g32
sg57
I0
sg80
I01
sg59
I0
sg60
I0
sg61
I0
sg62
S'vide'
p2106
sg64
I00
sg65
g2096
sg66
(dp2107
g2101
I0
sg2102
I0
sg2103
I0
sg2104
I0
ssg68
(dp2108
g2101
I0
sg2102
I0
sg2103
I0
sg2104
I0
ssg70
(dp2109
g2101
I0
sg2102
I0
sg2103
I0
sg2104
I0
ssg72
(dp2110
g2101
I0
sg2102
I0
sg2103
I0
sg2104
I0
ssg74
I0
sg75
I0
sg76
S'Qimor'
p2111
sg78
I11
sg79
I0
sg55
I22
sg81
I14
sg82
(S'dummy'
p2112
S'AI'
p2113
g32
g32
tp2114
sg87
g32
sg88
(dp2115
S'RP1'
p2116
I8
sS'ME'
p2117
I3
sS'RP2'
p2118
I8
sS'E'
p2119
I8
sS'TO'
p2120
I5
sS'M'
p2121
I7
sS'JP'
p2122
I5
sS'RP_tot'
p2123
I9
sS'P'
p2124
I7
sS'PA'
p2125
I7
sS'A'
p2126
I9
sS'R'
p2127
I6
sS'TB'
p2128
I8
sS'PL'
p2129
I9
sS'TA'
p2130
I3
ssg143
I0
sg28
I0
sg145
I0
sg146
I0
sg147
F8.064516129032258
sg148
I0
sg149
I0
sg150
I0
sg330
(dp2131
S'RP1'
p2132
I8
sS'ME'
p2133
I3
sS'RP2'
p2134
I8
sS'E'
p2135
I8
sS'TO'
p2136
I5
sS'M'
p2137
I7
sS'JP'
p2138
I5
sS'RP_tot'
p2139
I9
sS'P'
p2140
I7
sS'PA'
p2141
I7
sS'A'
p2142
I9
sS'R'
p2143
I6
sS'TB'
p2144
I8
sS'PL'
p2145
I9
sS'TA'
p2146
I3
ssg151
g2115
sg153
I0
sg154
I0
sg155
I0
sg156
I0
sg157
I1
sg158
I0
sg159
I0
sg160
S'K'
p2147
sbssg143
I0
sg28
I0
sg145
I0
sg146
I0
sg147
F8.363636363636363
sg148
I0
sg149
I0
sg150
I0
sg330
(dp2148
g2077
I8
sg2078
I3
sg2079
I8
sg2080
I8
sg2085
I5
sg2083
I7
sg2082
I5
sg2084
I9
sg2081
I7
sg2086
I7
sg2087
I9
sg2088
I6
sg2089
I8
sg2090
I9
sg2091
I3
ssg151
g2076
sg153
I0
sg154
I0
sg155
I0
sg156
I0
sg157
I1
sg158
I0
sg159
I0
sg160
S'K'
p2149
sbsg1494
(ijoueur
joueur
p2150
(dp2151
g27
I0
sg29
I0
sg31
g32
sg33
I0
sg34
g32
sg35
g36
(g37
g38
Ntp2152
Rp2153
(dp2154
g42
I1
sg43
S'^'
p2155
sg45
S'base'
p2156
sbsg47
(dp2157
S'SR'
p2158
I0
sS'ST'
p2159
I0
sS'CR'
p2160
I0
sS'CT'
p2161
I0
ssg53
(dp2162
g2158
I0
sg2159
I0
sg2160
I0
sg2161
I0
ssg56
g32
sg57
I0
sg80
I01
sg59
I0
sg60
I0
sg61
I0
sg62
S'vide'
p2163
sg64
I00
sg65
g2153
sg66
(dp2164
g2158
I0
sg2159
I0
sg2160
I0
sg2161
I0
ssg68
(dp2165
g2158
I0
sg2159
I0
sg2160
I0
sg2161
I0
ssg70
(dp2166
g2158
I0
sg2159
I0
sg2160
I0
sg2161
I0
ssg72
(dp2167
g2158
I0
sg2159
I0
sg2160
I0
sg2161
I0
ssg74
I0
sg75
I0
sg76
S'Qimor'
p2168
sg78
I11
sg79
I0
sg55
I22
sg81
I14
sg82
(S'dummy'
p2169
S'AI'
p2170
g32
g32
tp2171
sg87
g32
sg88
(dp2172
S'RP1'
p2173
I8
sS'ME'
p2174
I3
sS'RP2'
p2175
I8
sS'E'
p2176
I8
sS'TO'
p2177
I5
sS'M'
p2178
I7
sS'JP'
p2179
I5
sS'RP_tot'
p2180
I9
sS'P'
p2181
I7
sS'PA'
p2182
I7
sS'A'
p2183
I9
sS'R'
p2184
I6
sS'TB'
p2185
I8
sS'PL'
p2186
I9
sS'TA'
p2187
I3
ssg143
I0
sg28
I0
sg145
I0
sg146
I0
sg147
F8.064516129032258
sg148
I0
sg149
I0
sg150
I0
sg330
(dp2188
S'RP1'
p2189
I8
sS'ME'
p2190
I3
sS'RP2'
p2191
I8
sS'E'
p2192
I8
sS'TO'
p2193
I5
sS'M'
p2194
I7
sS'JP'
p2195
I5
sS'RP_tot'
p2196
I9
sS'P'
p2197
I7
sS'PA'
p2198
I7
sS'A'
p2199
I9
sS'R'
p2200
I6
sS'TB'
p2201
I8
sS'PL'
p2202
I9
sS'TA'
p2203
I3
ssg151
g2172
sg153
I0
sg154
I0
sg155
I0
sg156
I0
sg157
I1
sg158
I0
sg159
I0
sg160
S'K'
p2204
sbssg143
I0
sg28
I0
sg145
I0
sg146
I0
sg147
F8.666666666666666
sg148
I0
sg149
I0
sg150
I0
sg330
(dp2205
g2039
I8
sg2040
I3
sg2041
I8
sg2042
I8
sg2043
I5
sg2044
I7
sg2045
I5
sg2046
I9
sg2047
I7
sg2048
I7
sg2049
I9
sg2050
I6
sg2051
I8
sg2052
I9
sg2053
I3
ssg151
(dp2206
g2039
I8
sg2040
I3
sg2041
I8
sg2042
I8
sg2047
I7
sg2045
I5
sg2044
I7
sg2046
I10
sg2043
I5
sg2048
I7
sg2049
I10
sg2050
I8
sg2051
I9
sg2052
I10
sg2053
I3
ssg153
I0
sg416
(dp2207
sg154
I0
sg155
I0
sg156
I0
sg157
I1
sg158
I0
sg159
I0
sg160
S'K'
p2208
sbsS'n16'
p2209
(ijoueur
joueur
p2210
(dp2211
g182
F7.620689655172414
sg27
I0
sg183
F8.758620689655173
sg144
g32
sg29
I0
sg30
I0
sg31
g32
sg33
I0
sg34
g32
sg35
g36
(g37
g38
Ntp2212
Rp2213
(dp2214
g42
I4
sg43
S'x'
p2215
sg45
S'heros'
p2216
sbsg47
(dp2217
S'SR'
p2218
I0
sS'ST'
p2219
I0
sS'CR'
p2220
I0
sS'CT'
p2221
I0
ssg53
(dp2222
g2218
I0
sg2219
I0
sg2220
I0
sg2221
I0
ssg195
I0
sg68
(dp2223
S'SR'
p2224
I0
sS'CT'
p2225
I0
sS'CR'
p2226
I0
sS'ST'
p2227
I0
ssg56
S'vide 13'
p2228
sg57
I0
sg58
I0
sg59
I0
sg60
I0
sg61
I0
sg62
g1363
sg64
I00
sg65
g36
(g37
g38
Ntp2229
Rp2230
(dp2231
g42
I3
sg43
S'^^^'
p2232
sg45
S'rare'
p2233
sbsg66
(dp2234
g2224
I0
sg2225
I0
sg2226
I0
sg2227
I0
ssg80
I00
sg70
(dp2235
g2224
I0
sg2225
I0
sg2226
I0
sg2227
I0
ssg72
(dp2236
g2218
I2
sg2219
I0
sg2220
I0
sg2221
I0
ssg74
I0
sg75
I0
sg76
S'Dimitri'
p2237
sg78
I11
sg79
I0
sg55
I20
sg81
I28
sg82
(S'dummy'
p2238
S'TA'
p2239
g32
g32
tp2240
sg87
g32
sg88
(dp2241
S'RP1'
p2242
I10
sS'ME'
p2243
I8
sS'RP2'
p2244
I10
sS'E'
p2245
I11
sS'P'
p2246
I5
sS'JP'
p2247
I6
sS'M'
p2248
I9
sS'RP_tot'
p2249
I12
sS'TO'
p2250
I8
sS'PA'
p2251
I8
sS'A'
p2252
I8
sS'R'
p2253
I8
sS'TB'
p2254
I5
sS'PL'
p2255
I9
sg2239
I10
ssg105
(dp2256
S's12'
p2257
(ijoueur
joueur
p2258
(dp2259
g182
F7.620689655172414
sg27
I0
sg144
g32
sg29
I0
sg31
g32
sg33
I0
sg34
g32
sg35
g36
(g37
g38
Ntp2260
Rp2261
(dp2262
g42
I4
sg43
S'x'
p2263
sg45
S'heros'
p2264
sbsg47
(dp2265
S'SR'
p2266
I0
sS'ST'
p2267
I0
sS'CR'
p2268
I0
sS'CT'
p2269
I0
ssg53
(dp2270
g2266
I0
sg2267
I0
sg2268
I0
sg2269
I0
ssg56
g32
sg147
F8.758620689655173
sg57
I0
sg59
I0
sg60
I0
sg61
I0
sg62
S'vide'
p2271
sg64
I00
sg65
g36
(g37
g38
Ntp2272
Rp2273
(dp2274
g42
I2
sg43
S'^^'
p2275
sg45
S'special'
p2276
sbsg66
(dp2277
S'SR'
p2278
I2
sS'CT'
p2279
I0
sS'CR'
p2280
I0
sS'ST'
p2281
I0
ssg80
I00
sg70
(dp2282
g2278
I0
sg2279
I0
sg2280
I0
sg2281
I0
ssg72
(dp2283
g2266
I2
sg2267
I0
sg2268
I0
sg2269
I0
ssg74
I0
sg75
I0
sg76
S'Dimitri'
p2284
sg78
I11
sg79
I0
sg55
I20
sg81
I28
sg82
(S'dummy'
p2285
S'TA'
p2286
g32
g32
tp2287
sg87
g32
sg88
(dp2288
S'A'
p2289
I0
sS'ME'
p2290
I0
sS'RP2'
p2291
I0
sS'E'
p2292
I0
sS'TO'
p2293
I0
sS'RP1'
p2294
I0
sS'JP'
p2295
I0
sS'RP_tot'
p2296
I0
sS'P'
p2297
I0
sS'PA'
p2298
I0
sS'M'
p2299
I0
sS'R'
p2300
I0
sS'TB'
p2301
I0
sS'PL'
p2302
I0
sg2286
I0
ssg105
(dp2303
S's11'
p2304
(ijoueur
joueur
p2305
(dp2306
g27
I0
sg29
I0
sg31
g32
sg33
I0
sg34
g32
sg35
g36
(g37
g38
Ntp2307
Rp2308
(dp2309
g42
I4
sg43
S'x'
p2310
sg45
S'heros'
p2311
sbsg47
(dp2312
S'SR'
p2313
I0
sS'CT'
p2314
I0
sS'CR'
p2315
I0
sS'ST'
p2316
I0
ssg53
(dp2317
g2313
I0
sg2314
I0
sg2315
I0
sg2316
I0
ssg56
g32
sg57
I0
sg80
I00
sg59
I0
sg60
I0
sg61
I0
sg62
S'vide'
p2318
sg64
I00
sg65
g36
(g37
g38
Ntp2319
Rp2320
(dp2321
g42
I1
sg43
S'^'
p2322
sg45
S'base'
p2323
sbsg66
(dp2324
g2313
I0
sg2314
I0
sg2315
I0
sg2316
I0
ssg68
(dp2325
g2313
I0
sg2314
I0
sg2315
I0
sg2316
I0
ssg70
(dp2326
g2313
I0
sg2314
I0
sg2315
I0
sg2316
I0
ssg72
(dp2327
g2313
I0
sg2314
I0
sg2315
I0
sg2316
I0
ssg74
I0
sg75
I0
sg76
S'Dimitri'
p2328
sg78
I11
sg79
I0
sg55
I20
sg81
I12
sg82
(S'dummy'
p2329
S'TA'
p2330
g32
g32
tp2331
sg87
g32
sg88
(dp2332
S'A'
p2333
I0
sS'ME'
p2334
I0
sS'RP2'
p2335
I0
sS'E'
p2336
I0
sS'P'
p2337
I0
sS'RP1'
p2338
I0
sS'JP'
p2339
I0
sS'RP_tot'
p2340
I0
sS'TO'
p2341
I0
sS'PA'
p2342
I0
sS'M'
p2343
I0
sS'R'
p2344
I0
sS'TB'
p2345
I0
sS'PL'
p2346
I0
sg2330
I0
ssg143
I0
sg28
I0
sg145
I0
sg146
I0
sg147
F7.620689655172414
sg148
I0
sg149
I0
sg150
I0
sg330
(dp2347
S'RP1'
p2348
I8
sS'ME'
p2349
I7
sS'RP2'
p2350
I8
sS'E'
p2351
I9
sS'P'
p2352
I4
sS'JP'
p2353
I5
sS'M'
p2354
I8
sS'RP_tot'
p2355
I9
sS'TO'
p2356
I6
sS'PA'
p2357
I6
sS'A'
p2358
I6
sS'R'
p2359
I7
sS'TB'
p2360
I4
sS'PL'
p2361
I7
sS'TA'
p2362
I8
ssg151
(dp2363
g2338
I8
sg2334
I7
sg2335
I8
sg2336
I9
sg2337
I4
sg2339
I5
sg2343
I8
sg2340
I9
sg2341
I6
sg2342
I6
sg2333
I6
sg2344
I7
sg2345
I4
sg2346
I7
sg2330
I8
ssg153
I0
sg154
I0
sg155
I0
sg156
I0
sg157
I1
sg158
I0
sg159
I0
sg160
S'K'
p2364
sbssg143
I0
sg28
I0
sg145
I1
sg146
I0
sg68
(dp2365
g2278
I0
sg2279
I0
sg2280
I0
sg2281
I0
ssg148
I0
sg149
I1
sg150
I0
sg330
(dp2366
g2294
I8
sg2290
I7
sg2291
I8
sg2292
I9
sg2297
I4
sg2295
I5
sg2299
I8
sg2296
I9
sg2293
I6
sg2298
I6
sg2289
I6
sg2300
I7
sg2301
I4
sg2302
I7
sg2286
I8
ssg151
(dp2367
g2294
I9
sg2290
I8
sg2291
I9
sg2292
I10
sg2293
I7
sg2299
I9
sg2295
I5
sg2296
I11
sg2297
I4
sg2298
I7
sg2289
I7
sg2300
I8
sg2301
I4
sg2302
I8
sg2286
I9
ssg153
I0
sg154
I0
sg155
I0
sg156
I0
sg157
I2
sg158
I0
sg159
I0
sg160
S'K'
p2368
sbsS's11'
p2369
(ijoueur
joueur
p2370
(dp2371
g27
I0
sg29
I0
sg31
g32
sg33
I0
sg34
g32
sg35
g36
(g37
g38
Ntp2372
Rp2373
(dp2374
g42
I4
sg43
S'x'
p2375
sg45
S'heros'
p2376
sbsg47
(dp2377
S'SR'
p2378
I0
sS'CT'
p2379
I0
sS'CR'
p2380
I0
sS'ST'
p2381
I0
ssg53
(dp2382
g2378
I0
sg2379
I0
sg2380
I0
sg2381
I0
ssg56
g32
sg57
I0
sg80
I00
sg59
I0
sg60
I0
sg61
I0
sg62
S'vide'
p2383
sg64
I00
sg65
g36
(g37
g38
Ntp2384
Rp2385
(dp2386
g42
I1
sg43
S'^'
p2387
sg45
S'base'
p2388
sbsg66
(dp2389
g2378
I0
sg2379
I0
sg2380
I0
sg2381
I0
ssg68
(dp2390
g2378
I0
sg2379
I0
sg2380
I0
sg2381
I0
ssg70
(dp2391
g2378
I0
sg2379
I0
sg2380
I0
sg2381
I0
ssg72
(dp2392
g2378
I0
sg2379
I0
sg2380
I0
sg2381
I0
ssg74
I0
sg75
I0
sg76
S'Dimitri'
p2393
sg78
I11
sg79
I0
sg55
I20
sg81
I12
sg82
(S'dummy'
p2394
S'TA'
p2395
g32
g32
tp2396
sg87
g32
sg88
(dp2397
S'A'
p2398
I0
sS'ME'
p2399
I0
sS'RP2'
p2400
I0
sS'E'
p2401
I0
sS'P'
p2402
I0
sS'RP1'
p2403
I0
sS'JP'
p2404
I0
sS'RP_tot'
p2405
I0
sS'TO'
p2406
I0
sS'PA'
p2407
I0
sS'M'
p2408
I0
sS'R'
p2409
I0
sS'TB'
p2410
I0
sS'PL'
p2411
I0
sg2395
I0
ssg143
I0
sg28
I0
sg145
I0
sg146
I0
sg147
F7.620689655172414
sg148
I0
sg149
I0
sg150
I0
sg330
(dp2412
S'RP1'
p2413
I8
sS'ME'
p2414
I7
sS'RP2'
p2415
I8
sS'E'
p2416
I9
sS'P'
p2417
I4
sS'JP'
p2418
I5
sS'M'
p2419
I8
sS'RP_tot'
p2420
I9
sS'TO'
p2421
I6
sS'PA'
p2422
I6
sS'A'
p2423
I6
sS'R'
p2424
I7
sS'TB'
p2425
I4
sS'PL'
p2426
I7
sS'TA'
p2427
I8
ssg151
(dp2428
g2403
I8
sg2399
I7
sg2400
I8
sg2401
I9
sg2402
I4
sg2404
I5
sg2408
I8
sg2405
I9
sg2406
I6
sg2407
I6
sg2398
I6
sg2409
I7
sg2410
I4
sg2411
I7
sg2395
I8
ssg153
I0
sg154
I0
sg155
I0
sg156
I0
sg157
I1
sg158
I0
sg159
I0
sg160
S'K'
p2429
sbssg143
I0
sg28
I0
sg145
I1
sg146
I0
sg147
F9.413793103448276
sg148
I0
sg149
I0
sg150
I0
sg330
(dp2430
g2242
I8
sg2243
I7
sg2244
I8
sg2245
I9
sg2246
I4
sg2247
I5
sg2248
I8
sg2249
I9
sg2250
I6
sg2251
I6
sg2252
I6
sg2253
I7
sg2254
I4
sg2255
I7
sg2239
I8
ssg151
(dp2431
g2242
I10
sg2243
I8
sg2244
I10
sg2245
I11
sg2250
I8
sg2248
I9
sg2247
I6
sg2249
I12
sg2246
I5
sg2251
I8
sg2252
I8
sg2253
I8
sg2254
I5
sg2255
I9
sg2239
I10
ssg153
I0
sg416
(dp2432
sg154
I0
sg155
I0
sg156
I0
sg157
I2
sg158
I0
sg159
I0
sg160
S'K'
p2433
sbsS'n17'
p2434
(ijoueur
joueur
p2435
(dp2436
g182
F8.411764705882353
sg27
I0
sg183
F8.235294117647058
sg144
g32
sg29
I0
sg30
I0
sg33
I0
sg35
g36
(g37
g38
Ntp2437
Rp2438
(dp2439
g42
I2
sg43
S'<<'
p2440
sg45
S'special'
p2441
sbsg47
(dp2442
S'SR'
p2443
I0
sS'ST'
p2444
I0
sS'CR'
p2445
I1
sS'CT'
p2446
I0
ssg53
(dp2447
g2443
I0
sg2444
I0
sg2445
I0
sg2446
I0
ssg195
I0
sg196
I0
sg57
I0
sg58
I0
sg80
I00
sg59
I0
sg60
I0
sg61
I0
sg82
(S'dummy'
p2448
S'PI'
p2449
S'DL'
p2450
g32
tp2451
sg64
I00
sg65
g36
(g37
g38
Ntp2452
Rp2453
(dp2454
g42
I2
sg43
S'<<'
p2455
sg45
g2441
sbsg66
(dp2456
g1355
I0
sg1356
I0
sg1357
I0
sg1358
I0
ssg68
(dp2457
g1355
I0
sg1356
I0
sg1357
I0
sg1358
I0
ssg70
(dp2458
g1355
I0
sg1356
I0
sg1357
I0
sg1358
I0
ssg72
(dp2459
g2443
I0
sg2444
I0
sg2445
I5
sg2446
I2
ssg74
I0
sg75
I0
sg76
S'Tremaol'
p2460
sg78
I8
sg79
I0
sg55
I15
sg81
I11
sg62
g1363
sg88
(dp2461
S'A'
p2462
I11
sS'ME'
p2463
I9
sS'RP2'
p2464
I5
sS'E'
p2465
I10
sS'P'
p2466
I4
sS'RP1'
p2467
I6
sS'JP'
p2468
I3
sS'RP_tot'
p2469
I6
sS'TO'
p2470
I9
sS'PA'
p2471
I10
sS'M'
p2472
I8
sS'R'
p2473
I5
sS'TB'
p2474
I2
sS'PL'
p2475
I8
sS'TA'
p2476
I8
ssg105
(dp2477
g1381
(ijoueur
joueur
p2478
(dp2479
g182
F8.411764705882353
sg27
I0
sg144
g32
sg29
I0
sg33
I0
sg35
g36
(g37
g38
Ntp2480
Rp2481
(dp2482
g42
I2
sg43
S'<<'
p2483
sg45
S'special'
p2484
sbsg47
(dp2485
S'SR'
p2486
I0
sS'ST'
p2487
I0
sS'CR'
p2488
I1
sS'CT'
p2489
I0
ssg53
(dp2490
g2486
I0
sg2487
I0
sg2488
I0
sg2489
I0
ssg68
(dp2491
g1396
I0
sg1397
I0
sg1398
I0
sg1399
I0
ssg196
I0
sg57
I0
sg59
I0
sg60
I0
sg61
I0
sg82
(S'dummy'
p2492
S'PI'
p2493
S'DL'
p2494
g32
tp2495
sg64
I00
sg65
g36
(g37
g38
Ntp2496
Rp2497
(dp2498
g42
I2
sg43
S'<<'
p2499
sg45
g2484
sbsg66
(dp2500
g1396
I0
sg1397
I0
sg1398
I0
sg1399
I0
ssg80
I01
sg70
(dp2501
g1396
I0
sg1397
I0
sg1398
I0
sg1399
I0
ssg72
(dp2502
g2486
I0
sg2487
I0
sg2488
I5
sg2489
I2
ssg74
I0
sg75
I0
sg76
S'Tremaol (12)'
p2503
sg78
I8
sg79
I0
sg55
I15
sg81
I11
sg62
g1412
sg88
(dp2504
S'A'
p2505
I11
sS'ME'
p2506
I9
sS'RP2'
p2507
I5
sS'E'
p2508
I10
sS'TO'
p2509
I9
sS'RP1'
p2510
I6
sS'JP'
p2511
I3
sS'RP_tot'
p2512
I6
sS'P'
p2513
I4
sS'PA'
p2514
I10
sS'M'
p2515
I8
sS'R'
p2516
I6
sS'TB'
p2517
I2
sS'PL'
p2518
I8
sS'TA'
p2519
I8
ssg105
(dp2520
g1430
(ijoueur
joueur
p2521
(dp2522
g27
I0
sg29
I0
sg33
I0
sg35
g36
(g37
g38
Ntp2523
Rp2524
(dp2525
g42
I2
sg43
S'<<'
p2526
sg45
S'special'
p2527
sbsg47
(dp2528
S'SR'
p2529
I0
sS'CT'
p2530
I0
sS'CR'
p2531
I1
sS'ST'
p2532
I0
ssg53
(dp2533
g2529
I0
sg2530
I0
sg2531
I0
sg2532
I0
ssg196
I0
sg57
I0
sg80
I01
sg59
I0
sg60
I0
sg61
I0
sg82
(S'dummy'
p2534
S'PI'
p2535
S'DL'
p2536
g32
tp2537
sg64
I01
sg65
g36
(g37
g38
Ntp2538
Rp2539
(dp2540
g42
I2
sg43
S'<<'
p2541
sg45
g2527
sbsg66
(dp2542
g2529
I0
sg2530
I2
sg2531
I5
sg2532
I0
ssg68
(dp2543
g2529
I0
sg2530
I0
sg2531
I1
sg2532
I0
ssg70
(dp2544
g2529
I0
sg2530
I0
sg2531
I0
sg2532
I0
ssg72
(dp2545
g2529
I0
sg2530
I2
sg2531
I5
sg2532
I0
ssg74
I0
sg75
I0
sg76
S'Tremaol'
p2546
sg78
I8
sg79
I0
sg55
I15
sg81
I11
sg62
S'CAT'
p2547
sg88
(dp2548
S'A'
p2549
I11
sS'ME'
p2550
I9
sS'RP2'
p2551
I5
sS'E'
p2552
I10
sS'P'
p2553
I4
sS'RP1'
p2554
I6
sS'JP'
p2555
I3
sS'RP_tot'
p2556
I6
sS'TO'
p2557
I9
sS'PA'
p2558
I10
sS'M'
p2559
I8
sS'R'
p2560
I7
sS'TB'
p2561
I2
sS'PL'
p2562
I8
sS'TA'
p2563
I8
ssg143
I0
sg28
I0
sg145
I0
sg146
I0
sg147
F8.411764705882353
sg148
I0
sg149
I0
sg150
I0
sg330
(dp2564
S'A'
p2565
I11
sS'ME'
p2566
I9
sS'RP2'
p2567
I5
sS'E'
p2568
I10
sS'P'
p2569
I4
sS'RP1'
p2570
I6
sS'JP'
p2571
I3
sS'RP_tot'
p2572
I6
sS'TO'
p2573
I9
sS'PA'
p2574
I10
sS'M'
p2575
I8
sS'R'
p2576
I7
sS'TB'
p2577
I2
sS'PL'
p2578
I8
sS'TA'
p2579
I8
ssg151
g2548
sg153
I0
sg56
g32
sg154
I0
sg155
I0
sg156
I0
sg157
I1
sg158
I0
sg159
I0
sg160
S'EN'
p2580
sbssg143
I0
sg28
I0
sg145
I0
sg146
I0
sg147
F8.235294117647058
sg148
I0
sg149
I0
sg150
I0
sg330
(dp2581
g2505
I11
sg2506
I9
sg2507
I5
sg2508
I10
sg2513
I4
sg2510
I6
sg2511
I3
sg2512
I6
sg2509
I9
sg2514
I10
sg2515
I8
sg2516
I7
sg2517
I2
sg2518
I8
sg2519
I8
ssg151
g2504
sg153
I0
sg56
S'CAT 12'
p2582
sg154
I0
sg155
I0
sg156
I0
sg157
I1
sg158
I0
sg159
I0
sg160
S'EN'
p2583
sbsg1494
(ijoueur
joueur
p2584
(dp2585
g27
I0
sg29
I0
sg33
I0
sg35
g36
(g37
g38
Ntp2586
Rp2587
(dp2588
g42
I2
sg43
S'<<'
p2589
sg45
S'special'
p2590
sbsg47
(dp2591
S'SR'
p2592
I0
sS'CT'
p2593
I0
sS'CR'
p2594
I1
sS'ST'
p2595
I0
ssg53
(dp2596
g2592
I0
sg2593
I0
sg2594
I0
sg2595
I0
ssg196
I0
sg57
I0
sg80
I01
sg59
I0
sg60
I0
sg61
I0
sg82
(S'dummy'
p2597
S'PI'
p2598
S'DL'
p2599
g32
tp2600
sg64
I01
sg65
g36
(g37
g38
Ntp2601
Rp2602
(dp2603
g42
I2
sg43
S'<<'
p2604
sg45
g2590
sbsg66
(dp2605
g2592
I0
sg2593
I2
sg2594
I5
sg2595
I0
ssg68
(dp2606
g2592
I0
sg2593
I0
sg2594
I1
sg2595
I0
ssg70
(dp2607
g2592
I0
sg2593
I0
sg2594
I0
sg2595
I0
ssg72
(dp2608
g2592
I0
sg2593
I2
sg2594
I5
sg2595
I0
ssg74
I0
sg75
I0
sg76
S'Tremaol (11)'
p2609
sg78
I8
sg79
I0
sg55
I15
sg81
I11
sg62
S'CAT'
p2610
sg88
(dp2611
S'A'
p2612
I11
sS'ME'
p2613
I9
sS'RP2'
p2614
I5
sS'E'
p2615
I10
sS'P'
p2616
I4
sS'RP1'
p2617
I6
sS'JP'
p2618
I3
sS'RP_tot'
p2619
I6
sS'TO'
p2620
I9
sS'PA'
p2621
I10
sS'M'
p2622
I8
sS'R'
p2623
I7
sS'TB'
p2624
I2
sS'PL'
p2625
I8
sS'TA'
p2626
I8
ssg143
I0
sg28
I0
sg145
I0
sg146
I0
sg147
F8.411764705882353
sg148
I0
sg149
I0
sg150
I0
sg330
(dp2627
S'A'
p2628
I11
sS'ME'
p2629
I9
sS'RP2'
p2630
I5
sS'E'
p2631
I10
sS'P'
p2632
I4
sS'RP1'
p2633
I6
sS'JP'
p2634
I3
sS'RP_tot'
p2635
I6
sS'TO'
p2636
I9
sS'PA'
p2637
I10
sS'M'
p2638
I8
sS'R'
p2639
I7
sS'TB'
p2640
I2
sS'PL'
p2641
I8
sS'TA'
p2642
I8
ssg151
g2611
sg153
I0
sg56
g32
sg154
I0
sg155
I0
sg156
I0
sg157
I1
sg158
I0
sg159
I0
sg160
S'EN'
p2643
sbssg143
I0
sg28
I0
sg145
I0
sg146
I0
sg147
F8.058823529411764
sg148
I0
sg149
I0
sg150
I0
sg330
(dp2644
g2462
I11
sg2463
I9
sg2464
I5
sg2465
I10
sg2466
I4
sg2467
I6
sg2468
I3
sg2469
I6
sg2470
I9
sg2471
I10
sg2472
I8
sg2473
I7
sg2474
I2
sg2475
I8
sg2476
I8
ssg151
(dp2645
g2462
I11
sg2463
I9
sg2464
I5
sg2465
I10
sg2470
I9
sg2467
I6
sg2468
I3
sg2469
I6
sg2466
I4
sg2471
I10
sg2472
I8
sg2473
I5
sg2474
I2
sg2475
I8
sg2476
I8
ssg153
I0
sg416
(dp2646
sg154
I0
sg56
S'CAT 12'
p2647
sg155
I0
sg156
I0
sg157
I1
sg158
I0
sg159
I0
sg160
S'EN'
p2648
sbsS'n14'
p2649
g640
sS'n15'
p2650
g859
sS'n18'
p2651
(ijoueur
joueur
p2652
(dp2653
g182
F9.027777777777779
sg27
I0
sg183
F8.805555555555555
sg144
g32
sg29
I0
sg30
F9.10294718082129
sg33
I0
sg35
g36
(g37
g38
Ntp2654
Rp2655
(dp2656
g42
I4
sg43
S'*'
p2657
sg45
S'heros'
p2658
sbsg47
(dp2659
S'SR'
p2660
I0
sS'CT'
p2661
I0
sS'CR'
p2662
I0
sS'ST'
p2663
I0
ssg53
(dp2664
g2660
I0
sg2661
I0
sg2662
I2
sg2663
I0
ssg195
I0
sg68
(dp2665
S'SR'
p2666
I0
sS'ST'
p2667
I0
sS'CR'
p2668
I0
sS'CT'
p2669
I0
ssg196
I0
sg57
I0
sg58
F9.10294718082129
sg59
I0
sg60
I0
sg61
I0
sg82
(S'dummy'
p2670
S'N8'
p2671
S'TL'
p2672
S'DL'
p2673
tp2674
sg64
I00
sg65
g36
(g37
g38
Ntp2675
Rp2676
(dp2677
g42
I4
sg43
g2657
sg45
g2658
sbsg66
(dp2678
g2666
I0
sg2667
I0
sg2668
I1
sg2669
I0
ssg80
I00
sg70
(dp2679
g2666
I0
sg2667
I0
sg2668
I0
sg2669
I0
ssg72
(dp2680
g2660
I0
sg2661
I0
sg2662
I1
sg2663
I0
ssg74
I0
sg75
I0
sg76
S'Karhol'
p2681
sg78
I0
sg79
I0
sg55
I9
sg81
I50
sg62
S'ERE'
p2682
sg88
(dp2683
S'A'
p2684
I8
sS'ME'
p2685
I9
sS'RP2'
p2686
I6
sS'E'
p2687
I7
sS'TO'
p2688
I11
sS'RP1'
p2689
I11
sS'JP'
p2690
I4
sS'RP_tot'
p2691
I11
sS'P'
p2692
I5
sS'PA'
p2693
I8
sS'M'
p2694
I7
sS'R'
p2695
I6
sS'TB'
p2696
I4
sS'PL'
p2697
I7
sS'TA'
p2698
I7
ssg105
(dp2699
S's12'
p2700
(ijoueur
joueur
p2701
(dp2702
g182
F9.027777777777779
sg27
I0
sg144
g32
sg29
I0
sg33
I0
sg35
g36
(g37
g38
Ntp2703
Rp2704
(dp2705
g42
I4
sg43
S'*'
p2706
sg45
S'heros'
p2707
sbsg47
(dp2708
S'SR'
p2709
I0
sS'CT'
p2710
I0
sS'CR'
p2711
I0
sS'ST'
p2712
I0
ssg53
(dp2713
g2709
I0
sg2710
I0
sg2711
I2
sg2712
I0
ssg196
I0
sg147
F8.805555555555555
sg57
I0
sg59
I0
sg60
I0
sg61
I0
sg82
(S'dummy'
p2714
S'N8'
p2715
S'TL'
p2716
S'DL'
p2717
tp2718
sg64
I00
sg65
g36
(g37
g38
Ntp2719
Rp2720
(dp2721
g42
I4
sg43
g2706
sg45
g2707
sbsg66
(dp2722
S'SR'
p2723
I0
sS'CT'
p2724
I0
sS'CR'
p2725
I0
sS'ST'
p2726
I0
ssg80
I00
sg70
(dp2727
g2723
I0
sg2724
I0
sg2725
I0
sg2726
I0
ssg72
(dp2728
g2709
I0
sg2710
I0
sg2711
I0
sg2712
I0
ssg74
I0
sg75
I0
sg76
S'Karhol (12)'
p2729
sg78
I0
sg79
I0
sg55
I9
sg81
I50
sg62
S'ERE'
p2730
sg88
(dp2731
S'A'
p2732
I9
sS'ME'
p2733
I9
sS'RP2'
p2734
I6
sS'E'
p2735
I8
sS'P'
p2736
I5
sS'RP1'
p2737
I11
sS'JP'
p2738
I4
sS'RP_tot'
p2739
I11
sS'TO'
p2740
I11
sS'PA'
p2741
I8
sS'M'
p2742
I7
sS'R'
p2743
I7
sS'TB'
p2744
I4
sS'PL'
p2745
I7
sS'TA'
p2746
I7
ssg105
(dp2747
S's11'
p2748
(ijoueur
joueur
p2749
(dp2750
g27
I0
sg29
I0
sg33
I0
sg35
g36
(g37
g38
Ntp2751
Rp2752
(dp2753
g42
I4
sg43
S'*'
p2754
sg45
S'heros'
p2755
sbsg47
(dp2756
S'SR'
p2757
I0
sS'ST'
p2758
I0
sS'CR'
p2759
I0
sS'CT'
p2760
I0
ssg53
(dp2761
g2757
I0
sg2758
I0
sg2759
I2
sg2760
I0
ssg196
I0
sg57
I0
sg80
I00
sg59
I0
sg60
I0
sg61
I0
sg82
(S'dummy'
p2762
S'N8'
p2763
S'TL'
p2764
S'DL'
p2765
tp2766
sg64
I01
sg65
g36
(g37
g38
Ntp2767
Rp2768
(dp2769
g42
I4
sg43
g2754
sg45
g2755
sbsg66
(dp2770
g2757
I0
sg2758
I0
sg2759
I0
sg2760
I0
ssg68
(dp2771
g2757
I0
sg2758
I0
sg2759
I0
sg2760
I0
ssg70
(dp2772
g2757
I0
sg2758
I0
sg2759
I2
sg2760
I0
ssg72
(dp2773
g2757
I0
sg2758
I0
sg2759
I0
sg2760
I0
ssg74
I0
sg75
I0
sg76
S'Karhol'
p2774
sg78
I0
sg79
I0
sg55
I9
sg81
I50
sg62
S'KHR'
p2775
sg88
(dp2776
S'A'
p2777
I10
sS'ME'
p2778
I9
sS'RP2'
p2779
I6
sS'E'
p2780
I8
sS'TO'
p2781
I11
sS'RP1'
p2782
I11
sS'JP'
p2783
I4
sS'RP_tot'
p2784
I11
sS'P'
p2785
I5
sS'PA'
p2786
I8
sS'M'
p2787
I7
sS'R'
p2788
I7
sS'TB'
p2789
I4
sS'PL'
p2790
I8
sS'TA'
p2791
I7
ssg143
I0
sg28
I0
sg145
I0
sg146
I0
sg147
F9.027777777777779
sg148
I0
sg149
I0
sg150
I0
sg330
(dp2792
S'A'
p2793
I10
sS'ME'
p2794
I9
sS'RP2'
p2795
I6
sS'E'
p2796
I8
sS'TO'
p2797
I11
sS'RP1'
p2798
I11
sS'JP'
p2799
I4
sS'RP_tot'
p2800
I11
sS'P'
p2801
I5
sS'PA'
p2802
I8
sS'M'
p2803
I7
sS'R'
p2804
I7
sS'TB'
p2805
I4
sS'PL'
p2806
I8
sS'TA'
p2807
I7
ssg151
g2776
sg153
I0
sg56
g32
sg154
I0
sg155
I0
sg156
I0
sg157
I8
sg158
I12
sg159
I0
sg160
S'CHS'
p2808
sbssg143
I0
sg28
I0
sg145
I0
sg146
I0
sg68
(dp2809
g2723
I0
sg2724
I0
sg2725
I0
sg2726
I0
ssg148
I0
sg149
I0
sg150
I0
sg330
(dp2810
g2732
I10
sg2733
I9
sg2734
I6
sg2735
I8
sg2740
I11
sg2737
I11
sg2738
I4
sg2739
I11
sg2736
I5
sg2741
I8
sg2742
I7
sg2743
I7
sg2744
I4
sg2745
I8
sg2746
I7
ssg151
g2731
sg153
I0
sg56
S'KHR 12'
p2811
sg154
I0
sg155
I0
sg156
I0
sg157
I8
sg158
I12
sg159
I0
sg160
S'CHS'
p2812
sbsS's11'
p2813
(ijoueur
joueur
p2814
(dp2815
g27
I0
sg29
I0
sg33
I0
sg35
g36
(g37
g38
Ntp2816
Rp2817
(dp2818
g42
I4
sg43
S'*'
p2819
sg45
S'heros'
p2820
sbsg47
(dp2821
S'SR'
p2822
I0
sS'ST'
p2823
I0
sS'CR'
p2824
I0
sS'CT'
p2825
I0
ssg53
(dp2826
g2822
I0
sg2823
I0
sg2824
I2
sg2825
I0
ssg196
I0
sg57
I0
sg80
I00
sg59
I0
sg60
I0
sg61
I0
sg82
(S'dummy'
p2827
S'N8'
p2828
S'TL'
p2829
S'DL'
p2830
tp2831
sg64
I01
sg65
g36
(g37
g38
Ntp2832
Rp2833
(dp2834
g42
I4
sg43
g2819
sg45
g2820
sbsg66
(dp2835
g2822
I0
sg2823
I0
sg2824
I0
sg2825
I0
ssg68
(dp2836
g2822
I0
sg2823
I0
sg2824
I0
sg2825
I0
ssg70
(dp2837
g2822
I0
sg2823
I0
sg2824
I2
sg2825
I0
ssg72
(dp2838
g2822
I0
sg2823
I0
sg2824
I0
sg2825
I0
ssg74
I0
sg75
I0
sg76
S'Karhol (11)'
p2839
sg78
I0
sg79
I0
sg55
I9
sg81
I50
sg62
S'KHR'
p2840
sg88
(dp2841
S'A'
p2842
I10
sS'ME'
p2843
I9
sS'RP2'
p2844
I6
sS'E'
p2845
I8
sS'TO'
p2846
I11
sS'RP1'
p2847
I11
sS'JP'
p2848
I4
sS'RP_tot'
p2849
I11
sS'P'
p2850
I5
sS'PA'
p2851
I8
sS'M'
p2852
I7
sS'R'
p2853
I7
sS'TB'
p2854
I4
sS'PL'
p2855
I8
sS'TA'
p2856
I7
ssg143
I0
sg28
I0
sg145
I0
sg146
I0
sg147
F9.027777777777779
sg148
I0
sg149
I0
sg150
I0
sg330
(dp2857
S'A'
p2858
I10
sS'ME'
p2859
I9
sS'RP2'
p2860
I6
sS'E'
p2861
I8
sS'TO'
p2862
I11
sS'RP1'
p2863
I11
sS'JP'
p2864
I4
sS'RP_tot'
p2865
I11
sS'P'
p2866
I5
sS'PA'
p2867
I8
sS'M'
p2868
I7
sS'R'
p2869
I7
sS'TB'
p2870
I4
sS'PL'
p2871
I8
sS'TA'
p2872
I7
ssg151
g2841
sg153
I0
sg56
g32
sg154
I0
sg155
I0
sg156
I0
sg157
I8
sg158
I12
sg159
I0
sg160
S'CHS'
p2873
sbssg143
I2
sg28
I0
sg145
I0
sg146
I0
sg147
F8.416666666666666
sg148
I0
sg149
I0
sg150
I0
sg330
(dp2874
g2684
I10
sg2685
I9
sg2686
I6
sg2687
I8
sg2688
I11
sg2689
I11
sg2690
I4
sg2691
I11
sg2692
I5
sg2693
I8
sg2694
I7
sg2695
I7
sg2696
I4
sg2697
I8
sg2698
I7
ssg151
(dp2875
g2684
I8
sg2685
I9
sg2686
I6
sg2687
I7
sg2692
I5
sg2689
I11
sg2690
I4
sg2691
I11
sg2688
I11
sg2693
I8
sg2694
I7
sg2695
I6
sg2696
I4
sg2697
I7
sg2698
I7
ssg153
I0
sg416
(dp2876
sg154
I0
sg56
S'KHR 12'
p2877
sg155
I0
sg156
I0
sg157
I8
sg158
I12
sg159
I0
sg160
S'CHS'
p2878
sbsS'n19'
p2879
(ijoueur
joueur
p2880
(dp2881
g27
I0
sg28
I0
sg29
I0
sg30
F27.96519949925127
sg31
g32
sg33
I0
sg34
g32
sg35
g36
(g37
g38
Ntp2882
Rp2883
(dp2884
g42
I4
sg43
S'x'
p2885
sg45
S'heros'
p2886
sbsg47
(dp2887
S'SR'
p2888
I0
sS'ST'
p2889
I0
sS'CR'
p2890
I0
sS'CT'
p2891
I0
ssg53
(dp2892
g2888
I0
sg2889
I0
sg2890
I0
sg2891
I0
ssg55
I25
sg56
g32
sg57
I0
sg58
F27.96519949925127
sg59
I0
sg60
I0
sg61
I0
sg62
g2682
sg64
I00
sg65
g36
(g37
g38
Ntp2893
Rp2894
(dp2895
g42
I3
sg43
S'^^^'
p2896
sg45
S'rare'
p2897
sbsg66
(dp2898
g2888
I0
sg2889
I0
sg2890
I2
sg2891
I1
ssg80
I00
sg70
(dp2899
g2888
I0
sg2889
I0
sg2890
I0
sg2891
I0
ssg72
(dp2900
g2888
I0
sg2889
I0
sg2890
I2
sg2891
I1
ssg74
I0
sg75
I0
sg76
S'Qlarmeov'
p2901
sg78
I13
sg79
I0
sg68
(dp2902
g2888
I0
sg2889
I0
sg2890
I0
sg2891
I0
ssg81
I22
sg82
(S'dummy'
p2903
S'DL'
p2904
S'TL'
p2905
g32
tp2906
sg87
g32
sg88
(dp2907
S'RP1'
p2908
I8
sS'ME'
p2909
I7
sS'RP2'
p2910
I6
sS'E'
p2911
I10
sS'P'
p2912
I4
sS'JP'
p2913
I3
sS'M'
p2914
I8
sS'RP_tot'
p2915
I8
sS'TO'
p2916
I11
sS'PA'
p2917
I9
sS'A'
p2918
I8
sS'R'
p2919
I7
sS'TB'
p2920
I3
sS'PL'
p2921
I10
sS'TA'
p2922
I5
ssg105
(dp2923
sg143
I5
sg144
g32
sg145
I0
sg146
I0
sg147
F8.794117647058824
sg148
I0
sg149
I0
sg150
I0
sg151
(dp2924
g2908
I8
sg2909
I7
sg2910
I6
sg2911
I10
sg2916
I11
sg2914
I8
sg2913
I3
sg2915
I8
sg2912
I4
sg2917
I9
sg2918
I8
sg2919
I7
sg2920
I3
sg2921
I10
sg2922
I5
ssg153
I0
sg154
I0
sg155
I0
sg156
I0
sg157
I2
sg158
I0
sg159
I0
sg160
S'K'
p2925
sbsS'n22'
p2926
(ijoueur
joueur
p2927
(dp2928
g27
I0
sg28
I0
sg29
I0
sg30
F27.96519949925127
sg31
g32
sg33
I0
sg34
g32
sg35
g36
(g37
g38
Ntp2929
Rp2930
(dp2931
g42
I2
sg43
S'^^'
p2932
sg45
S'special'
p2933
sbsg47
(dp2934
g1782
I0
sg1783
I0
sg1784
I0
sg1785
I0
ssg53
(dp2935
g1782
I0
sg1783
I0
sg1784
I0
sg1785
I0
ssg56
g32
sg57
I0
sg58
F27.96519949925127
sg59
I0
sg60
I0
sg61
I0
sg62
g1363
sg64
I00
sg65
g2930
sg66
(dp2936
g1782
I0
sg1783
I1
sg1784
I2
sg1785
I0
ssg80
I00
sg70
(dp2937
g1782
I0
sg1783
I0
sg1784
I0
sg1785
I0
ssg72
(dp2938
g1782
I0
sg1783
I1
sg1784
I2
sg1785
I0
ssg74
I0
sg75
I0
sg76
S'Modenv'
p2939
sg78
I5
sg79
I0
sg55
I12
sg81
I57
sg82
(g1796
S'AI'
p2940
S'CE'
p2941
g32
tp2942
sg87
g32
sg88
(dp2943
g1800
I9
sg1801
I4
sg1802
I8
sg1803
I10
sg1804
I5
sg1805
I11
sg1806
I6
sg1807
I10
sg1808
I9
sg1809
I7
sg1810
I7
sg1811
I5
sg1812
I5
sg1813
I8
sg1814
I2
ssg105
(dp2944
S's12'
p2945
(ijoueur
joueur
p2946
(dp2947
g27
I0
sg28
I0
sg29
I0
sg33
I0
sg35
g36
(g37
g38
Ntp2948
Rp2949
(dp2950
g43
g32
sbsg47
(dp2951
S'SR'
p2952
I0
sS'CT'
p2953
I0
sS'CR'
p2954
I0
sS'ST'
p2955
I0
ssg53
(dp2956
g2952
I0
sg2953
I0
sg2954
I0
sg2955
I0
ssg55
I0
sg56
g32
sg57
I0
sg59
I0
sg60
I0
sg61
I0
sg82
g2942
sg64
I00
sg65
g36
(g37
g38
Ntp2957
Rp2958
(dp2959
g43
g32
sbsg66
(dp2960
g2952
I0
sg2953
I0
sg2954
I0
sg2955
I0
ssg68
(dp2961
g2952
I0
sg2953
I0
sg2954
I0
sg2955
I0
ssg70
(dp2962
g2952
I0
sg2953
I0
sg2954
I0
sg2955
I0
ssg72
(dp2963
g2952
I0
sg2953
I0
sg2954
I0
sg2955
I0
ssg74
I0
sg75
I0
sg76
g2939
sg78
I0
sg79
I0
sg80
I00
sg81
I0
sg62
g1363
sg88
(dp2964
S'A'
p2965
I0
sS'ME'
p2966
I0
sS'RP2'
p2967
I0
sS'E'
p2968
I0
sS'P'
p2969
I0
sS'RP1'
p2970
I0
sS'JP'
p2971
I0
sS'RP_tot'
p2972
I0
sS'TO'
p2973
I0
sS'PA'
p2974
I0
sS'M'
p2975
I0
sS'R'
p2976
I0
sS'TB'
p2977
I0
sS'PL'
p2978
I0
sS'TA'
p2979
I0
ssg105
(dp2980
sg143
I0
sg144
g32
sg145
I0
sg146
I0
sg147
F0.0
sg148
I0
sg149
I0
sg150
I0
sg151
(dp2981
g1800
I9
sg1801
I4
sg1802
I8
sg1803
I10
sg1808
I9
sg1806
I6
sg1805
I11
sg1807
I10
sg1804
I5
sg1809
I7
sg1810
I8
sg1811
I6
sg1812
I5
sg1813
I9
sg1814
I2
ssg153
I0
sg154
I0
sg155
I0
sg156
I0
sg157
I0
sg158
I0
sg159
I0
sg160
g32
sbsS's11'
p2982
(ijoueur
joueur
p2983
(dp2984
g27
I0
sg28
I0
sg29
I0
sg33
I0
sg35
g36
(g37
g38
Ntp2985
Rp2986
(dp2987
g43
g32
sbsg47
(dp2988
g2952
I0
sg2953
I0
sg2954
I0
sg2955
I0
ssg53
(dp2989
g2952
I0
sg2953
I0
sg2954
I0
sg2955
I0
ssg55
I0
sg56
g32
sg57
I0
sg59
I0
sg60
I0
sg61
I0
sg82
g2942
sg64
I00
sg65
g36
(g37
g38
Ntp2990
Rp2991
(dp2992
g43
g32
sbsg66
(dp2993
g2952
I0
sg2953
I0
sg2954
I0
sg2955
I0
ssg68
(dp2994
g2952
I0
sg2953
I0
sg2954
I0
sg2955
I0
ssg70
(dp2995
g2952
I0
sg2953
I0
sg2954
I0
sg2955
I0
ssg72
(dp2996
g2952
I0
sg2953
I0
sg2954
I0
sg2955
I0
ssg74
I0
sg75
I0
sg76
g2939
sg78
I0
sg79
I0
sg80
I00
sg81
I0
sg62
g1363
sg88
(dp2997
g2965
I0
sg2966
I0
sg2967
I0
sg2968
I0
sg2969
I0
sg2970
I0
sg2971
I0
sg2972
I0
sg2973
I0
sg2974
I0
sg2975
I0
sg2976
I0
sg2977
I0
sg2978
I0
sg2979
I0
ssg105
(dp2998
sg143
I0
sg144
g32
sg145
I0
sg146
I0
sg147
F0.0
sg148
I0
sg149
I0
sg150
I0
sg151
g2981
sg153
I0
sg154
I0
sg155
I0
sg156
I0
sg157
I0
sg158
I0
sg159
I0
sg160
g32
sbssg143
I8
sg144
g32
sg145
I0
sg149
I0
sg146
I0
sg147
F9.064516129032258
sg148
I0
sg68
(dp2999
g1782
I0
sg1783
I0
sg1784
I0
sg1785
I0
ssg150
I0
sg151
g2981
sg153
I0
sg154
I0
sg155
I0
sg156
I0
sg157
I5
sg158
I0
sg159
I0
sg160
g1818
sbsS'n21'
p3000
(ijoueur
joueur
p3001
(dp3002
g182
F7.625
sg27
I0
sg183
F7.75
sg144
g32
sg29
I0
sg30
I0
sg33
I0
sg35
g36
(g37
g38
Ntp3003
Rp3004
(dp3005
g42
I3
sg43
S'^^^'
p3006
sg45
S'rare'
p3007
sbsg47
(dp3008
S'SR'
p3009
I0
sS'CT'
p3010
I0
sS'CR'
p3011
I1
sS'ST'
p3012
I0
ssg53
(dp3013
g3009
I0
sg3010
I0
sg3011
I0
sg3012
I0
ssg195
I0
sg196
I0
sg57
I0
sg58
I0
sg80
I00
sg59
I0
sg60
I0
sg61
I0
sg82
(S'dummy'
p3014
S'C1'
p3015
S'AI'
p3016
g32
tp3017
sg64
I00
sg65
g36
(g37
g38
Ntp3018
Rp3019
(dp3020
g42
I3
sg43
S'^^^'
p3021
sg45
g3007
sbsg66
(dp3022
g1355
I0
sg1356
I0
sg1357
I0
sg1358
I0
ssg68
(dp3023
g1355
I0
sg1356
I0
sg1357
I0
sg1358
I0
ssg70
(dp3024
g1355
I0
sg1356
I0
sg1357
I0
sg1358
I0
ssg72
(dp3025
g3009
I0
sg3010
I0
sg3011
I0
sg3012
I0
ssg74
I0
sg75
I0
sg76
S'Totit'
p3026
sg78
I3
sg79
I0
sg55
I14
sg81
I80
sg62
g1363
sg88
(dp3027
S'A'
p3028
I6
sS'ME'
p3029
I6
sS'RP2'
p3030
I7
sS'E'
p3031
I10
sS'TO'
p3032
I3
sS'RP1'
p3033
I10
sS'JP'
p3034
I7
sS'RP_tot'
p3035
I10
sS'P'
p3036
I9
sS'PA'
p3037
I7
sS'M'
p3038
I9
sS'R'
p3039
I3
sS'TB'
p3040
I8
sS'PL'
p3041
I7
sS'TA'
p3042
I5
ssg105
(dp3043
g1381
(ijoueur
joueur
p3044
(dp3045
g182
F7.625
sg27
I0
sg144
g32
sg29
I0
sg33
I0
sg35
g36
(g37
g38
Ntp3046
Rp3047
(dp3048
g42
I3
sg43
S'^^^'
p3049
sg45
S'rare'
p3050
sbsg47
(dp3051
S'SR'
p3052
I0
sS'CT'
p3053
I0
sS'CR'
p3054
I1
sS'ST'
p3055
I0
ssg53
(dp3056
g3052
I0
sg3053
I0
sg3054
I0
sg3055
I0
ssg68
(dp3057
g1396
I0
sg1397
I0
sg1398
I0
sg1399
I0
ssg196
I0
sg57
I0
sg59
I0
sg60
I0
sg61
I0
sg82
(S'dummy'
p3058
S'C1'
p3059
S'AI'
p3060
g32
tp3061
sg64
I00
sg65
g36
(g37
g38
Ntp3062
Rp3063
(dp3064
g42
I3
sg43
S'^^^'
p3065
sg45
g3050
sbsg66
(dp3066
g1396
I0
sg1397
I0
sg1398
I0
sg1399
I0
ssg80
I00
sg70
(dp3067
g1396
I0
sg1397
I0
sg1398
I0
sg1399
I0
ssg72
(dp3068
g3052
I0
sg3053
I0
sg3054
I0
sg3055
I0
ssg74
I0
sg75
I0
sg76
S'Totit'
p3069
sg78
I3
sg79
I0
sg55
I14
sg81
I80
sg62
g1412
sg88
(dp3070
S'A'
p3071
I6
sS'ME'
p3072
I6
sS'RP2'
p3073
I7
sS'E'
p3074
I10
sS'P'
p3075
I9
sS'RP1'
p3076
I10
sS'JP'
p3077
I7
sS'RP_tot'
p3078
I10
sS'TO'
p3079
I3
sS'PA'
p3080
I7
sS'M'
p3081
I9
sS'R'
p3082
I3
sS'TB'
p3083
I8
sS'PL'
p3084
I7
sS'TA'
p3085
I5
ssg105
(dp3086
g1430
(ijoueur
joueur
p3087
(dp3088
g27
I0
sg29
I0
sg33
I0
sg35
g36
(g37
g38
Ntp3089
Rp3090
(dp3091
g42
I3
sg43
S'^^^'
p3092
sg45
S'rare'
p3093
sbsg47
(dp3094
S'SR'
p3095
I0
sS'ST'
p3096
I0
sS'CR'
p3097
I1
sS'CT'
p3098
I0
ssg53
(dp3099
g3095
I0
sg3096
I0
sg3097
I0
sg3098
I0
ssg196
I0
sg57
I0
sg80
I00
sg59
I0
sg60
I0
sg61
I0
sg82
(S'dummy'
p3100
S'C1'
p3101
S'AI'
p3102
g32
tp3103
sg64
I00
sg65
g36
(g37
g38
Ntp3104
Rp3105
(dp3106
g42
I3
sg43
S'^^^'
p3107
sg45
g3093
sbsg66
(dp3108
g3095
I0
sg3096
I0
sg3097
I0
sg3098
I0
ssg68
(dp3109
g3095
I0
sg3096
I0
sg3097
I1
sg3098
I0
ssg70
(dp3110
g3095
I0
sg3096
I0
sg3097
I0
sg3098
I0
ssg72
(dp3111
g3095
I0
sg3096
I0
sg3097
I0
sg3098
I0
ssg74
I0
sg75
I0
sg76
S'Totit'
p3112
sg78
I3
sg79
I0
sg55
I14
sg81
I80
sg62
S'MDL'
p3113
sg88
(dp3114
S'A'
p3115
I6
sS'ME'
p3116
I6
sS'RP2'
p3117
I7
sS'E'
p3118
I10
sS'TO'
p3119
I3
sS'RP1'
p3120
I10
sS'JP'
p3121
I7
sS'RP_tot'
p3122
I10
sS'P'
p3123
I8
sS'PA'
p3124
I7
sS'M'
p3125
I9
sS'R'
p3126
I2
sS'TB'
p3127
I8
sS'PL'
p3128
I7
sS'TA'
p3129
I5
ssg143
I0
sg28
I0
sg145
I0
sg146
I0
sg147
F7.625
sg148
I0
sg149
I0
sg150
I0
sg330
(dp3130
S'A'
p3131
I6
sS'ME'
p3132
I6
sS'RP2'
p3133
I7
sS'E'
p3134
I10
sS'TO'
p3135
I3
sS'RP1'
p3136
I10
sS'JP'
p3137
I7
sS'RP_tot'
p3138
I10
sS'P'
p3139
I8
sS'PA'
p3140
I7
sS'M'
p3141
I9
sS'R'
p3142
I2
sS'TB'
p3143
I8
sS'PL'
p3144
I7
sS'TA'
p3145
I5
ssg151
g3114
sg153
I0
sg56
g32
sg154
I0
sg155
I0
sg156
I0
sg157
I8
sg158
I0
sg159
I0
sg160
S'OG'
p3146
sbssg143
I0
sg28
I0
sg145
I0
sg146
I0
sg147
F7.75
sg148
I0
sg149
I0
sg150
I0
sg330
(dp3147
g3071
I6
sg3072
I6
sg3073
I7
sg3074
I10
sg3079
I3
sg3076
I10
sg3077
I7
sg3078
I10
sg3075
I8
sg3080
I7
sg3081
I9
sg3082
I2
sg3083
I8
sg3084
I7
sg3085
I5
ssg151
g3070
sg153
I0
sg56
S'MDL 12'
p3148
sg154
I0
sg155
I0
sg156
I0
sg157
I8
sg158
I0
sg159
I0
sg160
S'OG'
p3149
sbsg1494
(ijoueur
joueur
p3150
(dp3151
g27
I0
sg29
I0
sg33
I0
sg35
g36
(g37
g38
Ntp3152
Rp3153
(dp3154
g42
I3
sg43
S'^^^'
p3155
sg45
S'rare'
p3156
sbsg47
(dp3157
S'SR'
p3158
I0
sS'ST'
p3159
I0
sS'CR'
p3160
I1
sS'CT'
p3161
I0
ssg53
(dp3162
g3158
I0
sg3159
I0
sg3160
I0
sg3161
I0
ssg196
I0
sg57
I0
sg80
I00
sg59
I0
sg60
I0
sg61
I0
sg82
(S'dummy'
p3163
S'C1'
p3164
S'AI'
p3165
g32
tp3166
sg64
I00
sg65
g36
(g37
g38
Ntp3167
Rp3168
(dp3169
g42
I3
sg43
S'^^^'
p3170
sg45
g3156
sbsg66
(dp3171
g3158
I0
sg3159
I0
sg3160
I0
sg3161
I0
ssg68
(dp3172
g3158
I0
sg3159
I0
sg3160
I1
sg3161
I0
ssg70
(dp3173
g3158
I0
sg3159
I0
sg3160
I0
sg3161
I0
ssg72
(dp3174
g3158
I0
sg3159
I0
sg3160
I0
sg3161
I0
ssg74
I0
sg75
I0
sg76
S'Totit'
p3175
sg78
I3
sg79
I0
sg55
I14
sg81
I80
sg62
S'MDL'
p3176
sg88
(dp3177
S'A'
p3178
I6
sS'ME'
p3179
I6
sS'RP2'
p3180
I7
sS'E'
p3181
I10
sS'TO'
p3182
I3
sS'RP1'
p3183
I10
sS'JP'
p3184
I7
sS'RP_tot'
p3185
I10
sS'P'
p3186
I8
sS'PA'
p3187
I7
sS'M'
p3188
I9
sS'R'
p3189
I2
sS'TB'
p3190
I8
sS'PL'
p3191
I7
sS'TA'
p3192
I5
ssg143
I0
sg28
I0
sg145
I0
sg146
I0
sg147
F7.625
sg148
I0
sg149
I0
sg150
I0
sg330
(dp3193
S'A'
p3194
I6
sS'ME'
p3195
I6
sS'RP2'
p3196
I7
sS'E'
p3197
I10
sS'TO'
p3198
I3
sS'RP1'
p3199
I10
sS'JP'
p3200
I7
sS'RP_tot'
p3201
I10
sS'P'
p3202
I8
sS'PA'
p3203
I7
sS'M'
p3204
I9
sS'R'
p3205
I2
sS'TB'
p3206
I8
sS'PL'
p3207
I7
sS'TA'
p3208
I5
ssg151
g3177
sg153
I0
sg56
g32
sg154
I0
sg155
I0
sg156
I0
sg157
I8
sg158
I0
sg159
I0
sg160
S'OG'
p3209
sbssg143
I0
sg28
I0
sg145
I0
sg146
I0
sg147
F7.75
sg148
I0
sg149
I0
sg150
I0
sg330
(dp3210
g3028
I6
sg3029
I6
sg3030
I7
sg3031
I10
sg3032
I3
sg3033
I10
sg3034
I7
sg3035
I10
sg3036
I8
sg3037
I7
sg3038
I9
sg3039
I2
sg3040
I8
sg3041
I7
sg3042
I5
ssg151
(dp3211
g3028
I6
sg3029
I6
sg3030
I7
sg3031
I10
sg3036
I9
sg3033
I10
sg3034
I7
sg3035
I10
sg3032
I3
sg3037
I7
sg3038
I9
sg3039
I3
sg3040
I8
sg3041
I7
sg3042
I5
ssg153
I0
sg416
(dp3212
sg154
I0
sg56
S'MDL 12'
p3213
sg155
I0
sg156
I0
sg157
I8
sg158
I0
sg159
I0
sg160
S'OG'
p3214
sbsS'n20'
p3215
(ijoueur
joueur
p3216
(dp3217
g182
F7.3428571428571425
sg27
I0
sg183
F7.228571428571429
sg144
g32
sg29
I0
sg30
I0
sg33
I0
sg35
g36
(g37
g38
Ntp3218
Rp3219
(dp3220
g42
I1
sg43
S'>'
p3221
sg45
S'base'
p3222
sbsg47
(dp3223
S'SR'
p3224
I0
sS'ST'
p3225
I0
sS'CR'
p3226
I0
sS'CT'
p3227
I0
ssg53
(dp3228
g3224
I0
sg3225
I0
sg3226
I0
sg3227
I0
ssg195
I0
sg196
I0
sg57
I0
sg58
I0
sg80
I00
sg59
I0
sg60
I0
sg61
I0
sg82
(S'dummy'
p3229
S'DO'
p3230
g32
g32
tp3231
sg64
I00
sg65
g36
(g37
g38
Ntp3232
Rp3233
(dp3234
g42
I1
sg43
g3221
sg45
g3222
sbsg66
(dp3235
g1355
I0
sg1356
I0
sg1357
I0
sg1358
I0
ssg68
(dp3236
g1355
I0
sg1356
I0
sg1357
I0
sg1358
I0
ssg70
(dp3237
g1355
I0
sg1356
I0
sg1357
I0
sg1358
I0
ssg72
(dp3238
g3224
I0
sg3225
I0
sg3226
I0
sg3227
I0
ssg74
I0
sg75
I0
sg76
S'Ploatl'
p3239
sg78
I8
sg79
I0
sg55
I16
sg81
I8
sg62
g1363
sg88
(dp3240
S'A'
p3241
I9
sS'ME'
p3242
I3
sS'RP2'
p3243
I6
sS'E'
p3244
I7
sS'P'
p3245
I6
sS'RP1'
p3246
I7
sS'JP'
p3247
I6
sS'RP_tot'
p3248
I7
sS'TO'
p3249
I3
sS'PA'
p3250
I10
sS'M'
p3251
I10
sS'R'
p3252
I3
sS'TB'
p3253
I8
sS'PL'
p3254
I4
sS'TA'
p3255
I4
ssg105
(dp3256
g1381
(ijoueur
joueur
p3257
(dp3258
g182
F7.3428571428571425
sg27
I0
sg144
g32
sg29
I0
sg33
I0
sg35
g36
(g37
g38
Ntp3259
Rp3260
(dp3261
g42
I1
sg43
S'>'
p3262
sg45
S'base'
p3263
sbsg47
(dp3264
S'SR'
p3265
I0
sS'ST'
p3266
I0
sS'CR'
p3267
I0
sS'CT'
p3268
I0
ssg53
(dp3269
g3265
I0
sg3266
I0
sg3267
I0
sg3268
I0
ssg68
(dp3270
g1396
I0
sg1397
I0
sg1398
I0
sg1399
I0
ssg196
I0
sg57
I0
sg59
I0
sg60
I0
sg61
I0
sg82
(S'dummy'
p3271
S'DO'
p3272
g32
g32
tp3273
sg64
I00
sg65
g36
(g37
g38
Ntp3274
Rp3275
(dp3276
g42
I1
sg43
g3262
sg45
g3263
sbsg66
(dp3277
g1396
I0
sg1397
I0
sg1398
I0
sg1399
I0
ssg80
I00
sg70
(dp3278
g1396
I0
sg1397
I0
sg1398
I0
sg1399
I0
ssg72
(dp3279
g3265
I0
sg3266
I0
sg3267
I0
sg3268
I0
ssg74
I0
sg75
I0
sg76
S'Ploatl (12)'
p3280
sg78
I8
sg79
I0
sg55
I16
sg81
I8
sg62
g1412
sg88
(dp3281
S'A'
p3282
I9
sS'ME'
p3283
I3
sS'RP2'
p3284
I6
sS'E'
p3285
I7
sS'TO'
p3286
I3
sS'RP1'
p3287
I7
sS'JP'
p3288
I6
sS'RP_tot'
p3289
I7
sS'P'
p3290
I6
sS'PA'
p3291
I10
sS'M'
p3292
I10
sS'R'
p3293
I5
sS'TB'
p3294
I8
sS'PL'
p3295
I4
sS'TA'
p3296
I4
ssg105
(dp3297
g1430
(ijoueur
joueur
p3298
(dp3299
g27
I0
sg29
I0
sg33
I0
sg35
g36
(g37
g38
Ntp3300
Rp3301
(dp3302
g42
I1
sg43
S'>'
p3303
sg45
S'base'
p3304
sbsg47
(dp3305
S'SR'
p3306
I0
sS'CT'
p3307
I0
sS'CR'
p3308
I0
sS'ST'
p3309
I0
ssg53
(dp3310
g3306
I0
sg3307
I0
sg3308
I0
sg3309
I0
ssg196
I0
sg57
I0
sg80
I00
sg59
I0
sg60
I0
sg61
I0
sg82
(S'dummy'
p3311
S'DO'
p3312
g32
g32
tp3313
sg64
I01
sg65
g36
(g37
g38
Ntp3314
Rp3315
(dp3316
g42
I1
sg43
g3303
sg45
g3304
sbsg66
(dp3317
g3306
I0
sg3307
I0
sg3308
I0
sg3309
I0
ssg68
(dp3318
g3306
I0
sg3307
I0
sg3308
I0
sg3309
I0
ssg70
(dp3319
g3306
I0
sg3307
I0
sg3308
I0
sg3309
I0
ssg72
(dp3320
g3306
I0
sg3307
I0
sg3308
I0
sg3309
I0
ssg74
I0
sg75
I0
sg76
S'Ploatl'
p3321
sg78
I8
sg79
I0
sg55
I16
sg81
I8
sg62
S'TO'
p3322
sg88
(dp3323
S'A'
p3324
I9
sS'ME'
p3325
I3
sS'RP2'
p3326
I6
sS'E'
p3327
I7
sS'P'
p3328
I6
sS'RP1'
p3329
I7
sS'JP'
p3330
I6
sS'RP_tot'
p3331
I7
sS'TO'
p3332
I3
sS'PA'
p3333
I10
sS'M'
p3334
I10
sS'R'
p3335
I5
sS'TB'
p3336
I8
sS'PL'
p3337
I5
sS'TA'
p3338
I4
ssg143
I0
sg28
I0
sg145
I0
sg146
I0
sg147
F7.3428571428571425
sg148
I0
sg149
I0
sg150
I0
sg330
(dp3339
S'A'
p3340
I9
sS'ME'
p3341
I3
sS'RP2'
p3342
I6
sS'E'
p3343
I7
sS'P'
p3344
I6
sS'RP1'
p3345
I7
sS'JP'
p3346
I6
sS'RP_tot'
p3347
I7
sS'TO'
p3348
I3
sS'PA'
p3349
I10
sS'M'
p3350
I10
sS'R'
p3351
I5
sS'TB'
p3352
I8
sS'PL'
p3353
I5
sS'TA'
p3354
I4
ssg151
g3323
sg153
I0
sg56
g32
sg154
I0
sg155
I0
sg156
I0
sg157
I1
sg158
I0
sg159
I0
sg160
S'HL'
p3355
sbssg143
I0
sg28
I0
sg145
I0
sg146
I0
sg147
F7.228571428571429
sg148
I0
sg149
I0
sg150
I0
sg330
(dp3356
g3282
I9
sg3283
I3
sg3284
I6
sg3285
I7
sg3290
I6
sg3287
I7
sg3288
I6
sg3289
I7
sg3286
I3
sg3291
I10
sg3292
I10
sg3293
I5
sg3294
I8
sg3295
I5
sg3296
I4
ssg151
g3281
sg153
I0
sg56
S'TO 12'
p3357
sg154
I0
sg155
I0
sg156
I0
sg157
I1
sg158
I0
sg159
I0
sg160
S'HL'
p3358
sbsg1494
(ijoueur
joueur
p3359
(dp3360
g27
I0
sg29
I0
sg33
I0
sg35
g36
(g37
g38
Ntp3361
Rp3362
(dp3363
g42
I1
sg43
S'>'
p3364
sg45
S'base'
p3365
sbsg47
(dp3366
S'SR'
p3367
I0
sS'CT'
p3368
I0
sS'CR'
p3369
I0
sS'ST'
p3370
I0
ssg53
(dp3371
g3367
I0
sg3368
I0
sg3369
I0
sg3370
I0
ssg196
I0
sg57
I0
sg80
I00
sg59
I0
sg60
I0
sg61
I0
sg82
(S'dummy'
p3372
S'DO'
p3373
g32
g32
tp3374
sg64
I01
sg65
g36
(g37
g38
Ntp3375
Rp3376
(dp3377
g42
I1
sg43
g3364
sg45
g3365
sbsg66
(dp3378
g3367
I0
sg3368
I0
sg3369
I0
sg3370
I0
ssg68
(dp3379
g3367
I0
sg3368
I0
sg3369
I0
sg3370
I0
ssg70
(dp3380
g3367
I0
sg3368
I0
sg3369
I0
sg3370
I0
ssg72
(dp3381
g3367
I0
sg3368
I0
sg3369
I0
sg3370
I0
ssg74
I0
sg75
I0
sg76
S'Ploatl (11)'
p3382
sg78
I8
sg79
I0
sg55
I16
sg81
I8
sg62
S'TO'
p3383
sg88
(dp3384
S'A'
p3385
I9
sS'ME'
p3386
I3
sS'RP2'
p3387
I6
sS'E'
p3388
I7
sS'P'
p3389
I6
sS'RP1'
p3390
I7
sS'JP'
p3391
I6
sS'RP_tot'
p3392
I7
sS'TO'
p3393
I3
sS'PA'
p3394
I10
sS'M'
p3395
I10
sS'R'
p3396
I5
sS'TB'
p3397
I8
sS'PL'
p3398
I5
sS'TA'
p3399
I4
ssg143
I0
sg28
I0
sg145
I0
sg146
I0
sg147
F7.3428571428571425
sg148
I0
sg149
I0
sg150
I0
sg330
(dp3400
S'A'
p3401
I9
sS'ME'
p3402
I3
sS'RP2'
p3403
I6
sS'E'
p3404
I7
sS'P'
p3405
I6
sS'RP1'
p3406
I7
sS'JP'
p3407
I6
sS'RP_tot'
p3408
I7
sS'TO'
p3409
I3
sS'PA'
p3410
I10
sS'M'
p3411
I10
sS'R'
p3412
I5
sS'TB'
p3413
I8
sS'PL'
p3414
I5
sS'TA'
p3415
I4
ssg151
g3384
sg153
I0
sg56
g32
sg154
I0
sg155
I0
sg156
I0
sg157
I1
sg158
I0
sg159
I0
sg160
S'HL'
p3416
sbssg143
I0
sg28
I0
sg145
I0
sg146
I0
sg147
F7.171428571428572
sg148
I0
sg149
I0
sg150
I0
sg330
(dp3417
g3241
I9
sg3242
I3
sg3243
I6
sg3244
I7
sg3245
I6
sg3246
I7
sg3247
I6
sg3248
I7
sg3249
I3
sg3250
I10
sg3251
I10
sg3252
I5
sg3253
I8
sg3254
I5
sg3255
I4
ssg151
(dp3418
g3241
I9
sg3242
I3
sg3243
I6
sg3244
I7
sg3249
I3
sg3246
I7
sg3247
I6
sg3248
I7
sg3245
I6
sg3250
I10
sg3251
I10
sg3252
I3
sg3253
I8
sg3254
I4
sg3255
I4
ssg153
I0
sg416
(dp3419
sg154
I0
sg56
S'TO 12'
p3420
sg155
I0
sg156
I0
sg157
I1
sg158
I0
sg159
I0
sg160
S'HL'
p3421
sbsS'n8'
p3422
(ijoueur
joueur
p3423
(dp3424
g182
F7.777777777777778
sg27
I0
sg183
F8.722222222222221
sg144
g32
sg29
I0
sg30
F27.96519949925127
sg31
g32
sg33
I0
sg34
g32
sg35
g36
(g37
g38
Ntp3425
Rp3426
(dp3427
g42
I2
sg43
S'^^'
p3428
sg45
S'special'
p3429
sbsg47
(dp3430
S'SR'
p3431
I0
sS'CT'
p3432
I0
sS'CR'
p3433
I0
sS'ST'
p3434
I0
ssg53
(dp3435
g3431
I0
sg3432
I0
sg3433
I0
sg3434
I0
ssg195
I0
sg56
g32
sg57
I0
sg58
F27.96519949925127
sg80
I00
sg59
I0
sg60
I0
sg61
I0
sg62
g1363
sg64
I00
sg65
g3426
sg66
(dp3436
g1355
I0
sg1356
I1
sg1357
I2
sg1358
I0
ssg68
(dp3437
g1355
I0
sg1356
I0
sg1357
I0
sg1358
I0
ssg70
(dp3438
g1355
I0
sg1356
I0
sg1357
I0
sg1358
I0
ssg72
(dp3439
g3431
I6
sg3432
I1
sg3433
I2
sg3434
I1
ssg74
I0
sg75
I0
sg76
S'Trijlotov'
p3440
sg78
I11
sg79
I0
sg55
I21
sg81
I31
sg82
(S'dummy'
p3441
S'N8'
p3442
g32
g32
tp3443
sg87
g32
sg88
(dp3444
S'RP1'
p3445
I9
sS'ME'
p3446
I9
sS'RP2'
p3447
I6
sS'E'
p3448
I9
sS'TO'
p3449
I9
sS'M'
p3450
I7
sS'JP'
p3451
I3
sS'RP_tot'
p3452
I9
sS'P'
p3453
I4
sS'PA'
p3454
I7
sS'A'
p3455
I9
sS'R'
p3456
I8
sS'TB'
p3457
I4
sS'PL'
p3458
I8
sS'TA'
p3459
I6
ssg105
(dp3460
g1381
(ijoueur
joueur
p3461
(dp3462
g182
F7.777777777777778
sg27
I0
sg144
g32
sg29
I0
sg31
g32
sg33
I0
sg34
g32
sg35
g36
(g37
g38
Ntp3463
Rp3464
(dp3465
g42
I2
sg43
S'^^'
p3466
sg45
S'special'
p3467
sbsg47
(dp3468
S'SR'
p3469
I0
sS'CT'
p3470
I0
sS'CR'
p3471
I0
sS'ST'
p3472
I0
ssg53
(dp3473
g3469
I0
sg3470
I0
sg3471
I0
sg3472
I0
ssg68
(dp3474
g1396
I0
sg1397
I0
sg1398
I0
sg1399
I0
ssg56
g32
sg57
I0
sg59
I0
sg60
I0
sg61
I0
sg62
g1412
sg64
I00
sg65
g3464
sg66
(dp3475
g1396
I6
sg1397
I1
sg1398
I0
sg1399
I0
ssg80
I00
sg70
(dp3476
g1396
I0
sg1397
I0
sg1398
I0
sg1399
I0
ssg72
(dp3477
g3469
I6
sg3470
I0
sg3471
I0
sg3472
I1
ssg74
I0
sg75
I0
sg76
S'Trijlotov'
p3478
sg78
I11
sg79
I0
sg55
I21
sg81
I31
sg82
(S'dummy'
p3479
S'N8'
p3480
g32
g32
tp3481
sg87
g32
sg88
(dp3482
S'RP1'
p3483
I9
sS'ME'
p3484
I9
sS'RP2'
p3485
I6
sS'E'
p3486
I9
sS'P'
p3487
I4
sS'JP'
p3488
I3
sS'M'
p3489
I8
sS'RP_tot'
p3490
I9
sS'TO'
p3491
I9
sS'PA'
p3492
I7
sS'A'
p3493
I9
sS'R'
p3494
I8
sS'TB'
p3495
I4
sS'PL'
p3496
I9
sS'TA'
p3497
I6
ssg105
(dp3498
g1430
(ijoueur
joueur
p3499
(dp3500
g27
I0
sg29
I0
sg31
g32
sg33
I0
sg34
g32
sg35
g36
(g37
g38
Ntp3501
Rp3502
(dp3503
g42
I2
sg43
S'^^'
p3504
sg45
S'special'
p3505
sbsg47
(dp3506
S'SR'
p3507
I0
sS'ST'
p3508
I0
sS'CR'
p3509
I0
sS'CT'
p3510
I0
ssg53
(dp3511
g3507
I0
sg3508
I0
sg3509
I0
sg3510
I0
ssg56
g32
sg57
I0
sg80
I00
sg59
I0
sg60
I0
sg61
I0
sg62
S'vide'
p3512
sg64
I00
sg65
g36
(g37
g38
Ntp3513
Rp3514
(dp3515
g42
I1
sg43
S'^'
p3516
sg45
S'base'
p3517
sbsg66
(dp3518
g3507
I0
sg3508
I0
sg3509
I0
sg3510
I0
ssg68
(dp3519
g3507
I0
sg3508
I0
sg3509
I0
sg3510
I0
ssg70
(dp3520
g3507
I0
sg3508
I0
sg3509
I0
sg3510
I0
ssg72
(dp3521
g3507
I0
sg3508
I0
sg3509
I0
sg3510
I0
ssg74
I0
sg75
I0
sg76
S'Trijlotov'
p3522
sg78
I11
sg79
I0
sg55
I21
sg81
I15
sg82
(S'dummy'
p3523
S'N8'
p3524
g32
g32
tp3525
sg87
g32
sg88
(dp3526
S'RP1'
p3527
I9
sS'ME'
p3528
I8
sS'RP2'
p3529
I6
sS'E'
p3530
I8
sS'TO'
p3531
I8
sS'M'
p3532
I7
sS'JP'
p3533
I3
sS'RP_tot'
p3534
I9
sS'P'
p3535
I4
sS'PA'
p3536
I6
sS'A'
p3537
I7
sS'R'
p3538
I7
sS'TB'
p3539
I4
sS'PL'
p3540
I8
sS'TA'
p3541
I5
ssg143
I0
sg28
I0
sg145
I0
sg146
I0
sg147
F7.777777777777778
sg148
I0
sg149
I0
sg150
I0
sg330
(dp3542
S'RP1'
p3543
I9
sS'ME'
p3544
I8
sS'RP2'
p3545
I6
sS'E'
p3546
I8
sS'TO'
p3547
I8
sS'M'
p3548
I7
sS'JP'
p3549
I3
sS'RP_tot'
p3550
I9
sS'P'
p3551
I4
sS'PA'
p3552
I6
sS'A'
p3553
I7
sS'R'
p3554
I7
sS'TB'
p3555
I4
sS'PL'
p3556
I8
sS'TA'
p3557
I5
ssg151
g3526
sg153
I0
sg154
I0
sg155
I0
sg156
I0
sg157
I1
sg158
I0
sg159
I0
sg160
S'K'
p3558
sbssg143
I4
sg28
I0
sg145
I0
sg146
I0
sg147
F8.722222222222221
sg148
I0
sg149
I0
sg150
I0
sg330
(dp3559
g3483
I9
sg3484
I8
sg3485
I6
sg3486
I8
sg3491
I8
sg3489
I7
sg3488
I3
sg3490
I9
sg3487
I4
sg3492
I6
sg3493
I7
sg3494
I7
sg3495
I4
sg3496
I8
sg3497
I5
ssg151
g3482
sg153
I0
sg154
I0
sg155
I0
sg156
I0
sg157
I2
sg158
I0
sg159
I0
sg160
S'K'
p3560
sbsg1494
(ijoueur
joueur
p3561
(dp3562
g27
I0
sg29
I0
sg31
g32
sg33
I0
sg34
g32
sg35
g36
(g37
g38
Ntp3563
Rp3564
(dp3565
g42
I2
sg43
S'^^'
p3566
sg45
S'special'
p3567
sbsg47
(dp3568
S'SR'
p3569
I0
sS'ST'
p3570
I0
sS'CR'
p3571
I0
sS'CT'
p3572
I0
ssg53
(dp3573
g3569
I0
sg3570
I0
sg3571
I0
sg3572
I0
ssg56
g32
sg57
I0
sg80
I00
sg59
I0
sg60
I0
sg61
I0
sg62
S'vide'
p3574
sg64
I00
sg65
g36
(g37
g38
Ntp3575
Rp3576
(dp3577
g42
I1
sg43
S'^'
p3578
sg45
S'base'
p3579
sbsg66
(dp3580
g3569
I0
sg3570
I0
sg3571
I0
sg3572
I0
ssg68
(dp3581
g3569
I0
sg3570
I0
sg3571
I0
sg3572
I0
ssg70
(dp3582
g3569
I0
sg3570
I0
sg3571
I0
sg3572
I0
ssg72
(dp3583
g3569
I0
sg3570
I0
sg3571
I0
sg3572
I0
ssg74
I0
sg75
I0
sg76
S'Trijlotov'
p3584
sg78
I11
sg79
I0
sg55
I21
sg81
I15
sg82
(S'dummy'
p3585
S'N8'
p3586
g32
g32
tp3587
sg87
g32
sg88
(dp3588
S'RP1'
p3589
I9
sS'ME'
p3590
I8
sS'RP2'
p3591
I6
sS'E'
p3592
I8
sS'TO'
p3593
I8
sS'M'
p3594
I7
sS'JP'
p3595
I3
sS'RP_tot'
p3596
I9
sS'P'
p3597
I4
sS'PA'
p3598
I6
sS'A'
p3599
I7
sS'R'
p3600
I7
sS'TB'
p3601
I4
sS'PL'
p3602
I8
sS'TA'
p3603
I5
ssg143
I0
sg28
I0
sg145
I0
sg146
I0
sg147
F7.777777777777778
sg148
I0
sg149
I0
sg150
I0
sg330
(dp3604
S'RP1'
p3605
I9
sS'ME'
p3606
I8
sS'RP2'
p3607
I6
sS'E'
p3608
I8
sS'TO'
p3609
I8
sS'M'
p3610
I7
sS'JP'
p3611
I3
sS'RP_tot'
p3612
I9
sS'P'
p3613
I4
sS'PA'
p3614
I6
sS'A'
p3615
I7
sS'R'
p3616
I7
sS'TB'
p3617
I4
sS'PL'
p3618
I8
sS'TA'
p3619
I5
ssg151
g3588
sg153
I0
sg154
I0
sg155
I0
sg156
I0
sg157
I1
sg158
I0
sg159
I0
sg160
S'K'
p3620
sbssg143
I6
sg28
I0
sg145
I0
sg146
I0
sg147
F8.555555555555555
sg148
I0
sg149
I0
sg150
I0
sg330
(dp3621
g3445
I9
sg3446
I8
sg3447
I6
sg3448
I8
sg3449
I8
sg3450
I7
sg3451
I3
sg3452
I9
sg3453
I4
sg3454
I6
sg3455
I7
sg3456
I7
sg3457
I4
sg3458
I8
sg3459
I5
ssg151
(dp3622
g3445
I9
sg3446
I9
sg3447
I6
sg3448
I9
sg3453
I4
sg3451
I3
sg3450
I7
sg3452
I9
sg3449
I9
sg3454
I7
sg3455
I9
sg3456
I8
sg3457
I4
sg3458
I8
sg3459
I6
ssg153
I0
sg416
(dp3623
sg154
I0
sg155
I0
sg156
I0
sg157
I2
sg158
I0
sg159
I0
sg160
S'K'
p3624
sbsS'n9'
p3625
(ijoueur
joueur
p3626
(dp3627
g182
F7.896551724137931
sg27
I0
sg183
F8.275862068965518
sg144
g32
sg29
I0
sg30
F27.96519949925127
sg31
g32
sg33
I0
sg34
g32
sg35
g36
(g37
g38
Ntp3628
Rp3629
(dp3630
g42
I2
sg43
S'<<'
p3631
sg45
S'special'
p3632
sbsg47
(dp3633
S'SR'
p3634
I0
sS'ST'
p3635
I0
sS'CR'
p3636
I0
sS'CT'
p3637
I0
ssg53
(dp3638
g3634
I0
sg3635
I0
sg3636
I0
sg3637
I0
ssg195
I0
sg56
g32
sg57
I0
sg58
F27.96519949925127
sg80
I00
sg59
I0
sg60
I0
sg61
I0
sg62
g1363
sg64
I00
sg65
g3629
sg66
(dp3639
g1355
I0
sg1356
I0
sg1357
I3
sg1358
I0
ssg68
(dp3640
g1355
I0
sg1356
I0
sg1357
I0
sg1358
I0
ssg70
(dp3641
g1355
I0
sg1356
I0
sg1357
I0
sg1358
I0
ssg72
(dp3642
g3634
I0
sg3635
I0
sg3636
I3
sg3637
I0
ssg74
I0
sg75
I0
sg76
S'Zlotar'
p3643
sg78
I11
sg79
I0
sg55
I20
sg81
I20
sg82
(S'dummy'
p3644
S'DM'
p3645
g32
g32
tp3646
sg87
g32
sg88
(dp3647
S'RP1'
p3648
I5
sS'ME'
p3649
I6
sS'RP2'
p3650
I7
sS'E'
p3651
I11
sS'P'
p3652
I8
sS'JP'
p3653
I5
sS'M'
p3654
I7
sS'RP_tot'
p3655
I7
sS'TO'
p3656
I4
sS'PA'
p3657
I10
sS'A'
p3658
I8
sS'R'
p3659
I7
sS'TB'
p3660
I6
sS'PL'
p3661
I6
sS'TA'
p3662
I2
ssg105
(dp3663
g1381
(ijoueur
joueur
p3664
(dp3665
g182
F7.896551724137931
sg27
I0
sg144
g32
sg29
I0
sg31
g32
sg33
I0
sg34
g32
sg35
g36
(g37
g38
Ntp3666
Rp3667
(dp3668
g42
I2
sg43
S'<<'
p3669
sg45
S'special'
p3670
sbsg47
(dp3671
S'SR'
p3672
I0
sS'ST'
p3673
I0
sS'CR'
p3674
I0
sS'CT'
p3675
I0
ssg53
(dp3676
g3672
I0
sg3673
I0
sg3674
I0
sg3675
I0
ssg68
(dp3677
g1396
I0
sg1397
I0
sg1398
I0
sg1399
I0
ssg56
g32
sg57
I0
sg59
I0
sg60
I0
sg61
I0
sg62
g1412
sg64
I00
sg65
g3667
sg66
(dp3678
g1396
I0
sg1397
I0
sg1398
I0
sg1399
I0
ssg80
I01
sg70
(dp3679
g1396
I0
sg1397
I0
sg1398
I0
sg1399
I0
ssg72
(dp3680
g3672
I0
sg3673
I0
sg3674
I0
sg3675
I0
ssg74
I0
sg75
I0
sg76
S'Zlotar (12)'
p3681
sg78
I11
sg79
I0
sg55
I20
sg81
I20
sg82
(S'dummy'
p3682
S'DM'
p3683
g32
g32
tp3684
sg87
g32
sg88
(dp3685
S'A'
p3686
I0
sS'ME'
p3687
I0
sS'RP2'
p3688
I0
sS'E'
p3689
I0
sS'TO'
p3690
I0
sS'RP1'
p3691
I0
sS'JP'
p3692
I0
sS'RP_tot'
p3693
I0
sS'P'
p3694
I0
sS'PA'
p3695
I0
sS'M'
p3696
I0
sS'R'
p3697
I0
sS'TB'
p3698
I0
sS'PL'
p3699
I0
sS'TA'
p3700
I0
ssg105
(dp3701
g1430
(ijoueur
joueur
p3702
(dp3703
g27
I0
sg29
I0
sg31
g32
sg33
I0
sg34
g32
sg35
g36
(g37
g38
Ntp3704
Rp3705
(dp3706
g42
I2
sg43
S'<<'
p3707
sg45
S'special'
p3708
sbsg47
(dp3709
S'SR'
p3710
I0
sS'CT'
p3711
I0
sS'CR'
p3712
I0
sS'ST'
p3713
I0
ssg53
(dp3714
g3710
I0
sg3711
I0
sg3712
I0
sg3713
I0
ssg56
g32
sg57
I0
sg80
I00
sg59
I0
sg60
I0
sg61
I0
sg62
S'vide'
p3715
sg64
I00
sg65
g36
(g37
g38
Ntp3716
Rp3717
(dp3718
g42
I1
sg43
S'^'
p3719
sg45
S'base'
p3720
sbsg66
(dp3721
g3710
I0
sg3711
I0
sg3712
I0
sg3713
I0
ssg68
(dp3722
g3710
I0
sg3711
I0
sg3712
I0
sg3713
I0
ssg70
(dp3723
g3710
I0
sg3711
I0
sg3712
I0
sg3713
I0
ssg72
(dp3724
g3710
I0
sg3711
I0
sg3712
I0
sg3713
I0
ssg74
I0
sg75
I0
sg76
S'Zlotar'
p3725
sg78
I11
sg79
I0
sg55
I20
sg81
I16
sg82
(S'dummy'
p3726
S'DM'
p3727
g32
g32
tp3728
sg87
g32
sg88
(dp3729
S'A'
p3730
I0
sS'ME'
p3731
I0
sS'RP2'
p3732
I0
sS'E'
p3733
I0
sS'P'
p3734
I0
sS'RP1'
p3735
I0
sS'JP'
p3736
I0
sS'RP_tot'
p3737
I0
sS'TO'
p3738
I0
sS'PA'
p3739
I0
sS'M'
p3740
I0
sS'R'
p3741
I0
sS'TB'
p3742
I0
sS'PL'
p3743
I0
sS'TA'
p3744
I0
ssg143
I0
sg28
I0
sg145
I0
sg146
I0
sg147
F7.896551724137931
sg148
I0
sg149
I0
sg150
I0
sg330
(dp3745
S'RP1'
p3746
I6
sS'ME'
p3747
I6
sS'RP2'
p3748
I7
sS'E'
p3749
I10
sS'P'
p3750
I8
sS'JP'
p3751
I5
sS'M'
p3752
I7
sS'RP_tot'
p3753
I7
sS'TO'
p3754
I4
sS'PA'
p3755
I10
sS'A'
p3756
I8
sS'R'
p3757
I6
sS'TB'
p3758
I6
sS'PL'
p3759
I6
sS'TA'
p3760
I2
ssg151
(dp3761
g3735
I6
sg3731
I6
sg3732
I7
sg3733
I10
sg3734
I8
sg3736
I5
sg3740
I7
sg3737
I7
sg3738
I4
sg3739
I10
sg3730
I8
sg3741
I6
sg3742
I6
sg3743
I6
sg3744
I2
ssg153
I0
sg154
I0
sg155
I0
sg156
I0
sg157
I1
sg158
I0
sg159
I0
sg160
S'K'
p3762
sbssg143
I0
sg28
I0
sg145
I0
sg146
I0
sg147
F8.275862068965518
sg148
I0
sg149
I0
sg150
I0
sg330
(dp3763
g3691
I6
sg3687
I6
sg3688
I7
sg3689
I10
sg3694
I8
sg3692
I5
sg3696
I7
sg3693
I7
sg3690
I4
sg3695
I10
sg3686
I8
sg3697
I6
sg3698
I6
sg3699
I6
sg3700
I2
ssg151
(dp3764
g3691
I5
sg3687
I6
sg3688
I7
sg3689
I11
sg3690
I4
sg3696
I7
sg3692
I5
sg3693
I7
sg3694
I8
sg3695
I11
sg3686
I8
sg3697
I7
sg3698
I6
sg3699
I6
sg3700
I2
ssg153
I0
sg154
I0
sg155
I0
sg156
I0
sg157
I1
sg158
I0
sg159
I0
sg160
S'K'
p3765
sbsg1494
(ijoueur
joueur
p3766
(dp3767
g27
I0
sg29
I0
sg31
g32
sg33
I0
sg34
g32
sg35
g36
(g37
g38
Ntp3768
Rp3769
(dp3770
g42
I2
sg43
S'<<'
p3771
sg45
S'special'
p3772
sbsg47
(dp3773
S'SR'
p3774
I0
sS'CT'
p3775
I0
sS'CR'
p3776
I0
sS'ST'
p3777
I0
ssg53
(dp3778
g3774
I0
sg3775
I0
sg3776
I0
sg3777
I0
ssg56
g32
sg57
I0
sg80
I00
sg59
I0
sg60
I0
sg61
I0
sg62
S'vide'
p3779
sg64
I00
sg65
g36
(g37
g38
Ntp3780
Rp3781
(dp3782
g42
I1
sg43
S'^'
p3783
sg45
S'base'
p3784
sbsg66
(dp3785
g3774
I0
sg3775
I0
sg3776
I0
sg3777
I0
ssg68
(dp3786
g3774
I0
sg3775
I0
sg3776
I0
sg3777
I0
ssg70
(dp3787
g3774
I0
sg3775
I0
sg3776
I0
sg3777
I0
ssg72
(dp3788
g3774
I0
sg3775
I0
sg3776
I0
sg3777
I0
ssg74
I0
sg75
I0
sg76
S'Zlotar (11)'
p3789
sg78
I11
sg79
I0
sg55
I20
sg81
I16
sg82
(S'dummy'
p3790
S'DM'
p3791
g32
g32
tp3792
sg87
g32
sg88
(dp3793
S'A'
p3794
I0
sS'ME'
p3795
I0
sS'RP2'
p3796
I0
sS'E'
p3797
I0
sS'P'
p3798
I0
sS'RP1'
p3799
I0
sS'JP'
p3800
I0
sS'RP_tot'
p3801
I0
sS'TO'
p3802
I0
sS'PA'
p3803
I0
sS'M'
p3804
I0
sS'R'
p3805
I0
sS'TB'
p3806
I0
sS'PL'
p3807
I0
sS'TA'
p3808
I0
ssg143
I0
sg28
I0
sg145
I0
sg146
I0
sg147
F7.896551724137931
sg148
I0
sg149
I0
sg150
I0
sg330
(dp3809
S'RP1'
p3810
I6
sS'ME'
p3811
I6
sS'RP2'
p3812
I7
sS'E'
p3813
I10
sS'P'
p3814
I8
sS'JP'
p3815
I5
sS'M'
p3816
I7
sS'RP_tot'
p3817
I7
sS'TO'
p3818
I4
sS'PA'
p3819
I10
sS'A'
p3820
I8
sS'R'
p3821
I6
sS'TB'
p3822
I6
sS'PL'
p3823
I6
sS'TA'
p3824
I2
ssg151
(dp3825
g3799
I6
sg3795
I6
sg3796
I7
sg3797
I10
sg3798
I8
sg3800
I5
sg3804
I7
sg3801
I7
sg3802
I4
sg3803
I10
sg3794
I8
sg3805
I6
sg3806
I6
sg3807
I6
sg3808
I2
ssg153
I0
sg154
I0
sg155
I0
sg156
I0
sg157
I1
sg158
I0
sg159
I0
sg160
S'K'
p3826
sbssg143
I6
sg28
I0
sg145
I0
sg146
I0
sg147
F8.068965517241379
sg148
I0
sg149
I0
sg150
I0
sg330
(dp3827
g3648
I6
sg3649
I6
sg3650
I7
sg3651
I10
sg3652
I8
sg3653
I5
sg3654
I7
sg3655
I7
sg3656
I4
sg3657
I10
sg3658
I8
sg3659
I6
sg3660
I6
sg3661
I6
sg3662
I2
ssg151
(dp3828
g3648
I5
sg3649
I6
sg3650
I7
sg3651
I11
sg3656
I4
sg3654
I7
sg3653
I5
sg3655
I7
sg3652
I8
sg3657
I10
sg3658
I8
sg3659
I7
sg3660
I6
sg3661
I6
sg3662
I2
ssg153
I0
sg416
(dp3829
sg154
I0
sg155
I0
sg156
I0
sg157
I1
sg158
I0
sg159
I0
sg160
S'K'
p3830
sbsS'n1'
p3831
(ijoueur
joueur
p3832
(dp3833
g182
F8.481481481481481
sg27
I0
sg183
F8.666666666666666
sg144
g32
sg29
I0
sg30
F27.96519949925127
sg33
I0
sg35
g36
(g37
g38
Ntp3834
Rp3835
(dp3836
g42
I2
sg43
S'<<'
p3837
sg45
S'special'
p3838
sbsg47
(dp3839
S'SR'
p3840
I0
sS'CT'
p3841
I0
sS'CR'
p3842
I0
sS'ST'
p3843
I0
ssg53
(dp3844
g3840
I0
sg3841
I0
sg3842
I0
sg3843
I0
ssg195
I0
sg196
I0
sg147
F9.0
sg57
I0
sg58
F27.96519949925127
sg59
I0
sg60
I0
sg61
I0
sg82
(S'dummy'
p3845
S'PI'
p3846
S'TL'
p3847
g32
tp3848
sg64
I00
sg65
g36
(g37
g38
Ntp3849
Rp3850
(dp3851
g42
I2
sg43
S'<<'
p3852
sg45
g3838
sbsg66
(dp3853
g440
I0
sg441
I0
sg442
I0
sg443
I3
ssg80
I00
sg70
(dp3854
g440
I0
sg441
I0
sg442
I0
sg443
I0
ssg72
(dp3855
g3840
I0
sg3841
I3
sg3842
I1
sg3843
I0
ssg74
I0
sg75
I0
sg76
S'Oltess'
p3856
sg78
I10
sg79
I0
sg55
I17
sg81
I29
sg62
g63
sg88
(dp3857
S'A'
p3858
I8
sS'ME'
p3859
I10
sS'RP2'
p3860
I7
sS'E'
p3861
I9
sS'TO'
p3862
I5
sS'RP1'
p3863
I8
sS'JP'
p3864
I4
sS'RP_tot'
p3865
I9
sS'P'
p3866
I4
sS'PA'
p3867
I8
sS'M'
p3868
I9
sS'R'
p3869
I10
sS'TB'
p3870
I5
sS'PL'
p3871
I7
sS'TA'
p3872
I8
ssg105
(dp3873
g468
(ijoueur
joueur
p3874
(dp3875
g182
F8.481481481481481
sg27
I0
sg144
g32
sg29
I0
sg33
I0
sg35
g36
(g37
g38
Ntp3876
Rp3877
(dp3878
g42
I2
sg43
S'<<'
p3879
sg45
S'special'
p3880
sbsg47
(dp3881
S'SR'
p3882
I0
sS'CT'
p3883
I0
sS'CR'
p3884
I0
sS'ST'
p3885
I0
ssg53
(dp3886
g3882
I0
sg3883
I0
sg3884
I0
sg3885
I0
ssg196
I0
sg57
I0
sg80
I00
sg59
I0
sg60
I0
sg61
I0
sg82
(S'dummy'
p3887
S'PI'
p3888
S'TL'
p3889
g32
tp3890
sg64
I00
sg65
g36
(g37
g38
Ntp3891
Rp3892
(dp3893
g42
I2
sg43
S'<<'
p3894
sg45
g3880
sbsg66
(dp3895
g489
I0
sg490
I0
sg491
I0
sg492
I0
ssg68
(dp3896
g489
I0
sg490
I0
sg491
I0
sg492
I0
ssg70
(dp3897
g489
I0
sg490
I0
sg491
I0
sg492
I0
ssg72
(dp3898
g3882
I0
sg3883
I0
sg3884
I1
sg3885
I0
ssg74
I0
sg75
I0
sg76
S'Oltess'
p3899
sg78
I10
sg79
I0
sg55
I17
sg81
I29
sg62
g482
sg88
(dp3900
S'A'
p3901
I8
sS'ME'
p3902
I9
sS'RP2'
p3903
I7
sS'E'
p3904
I9
sS'P'
p3905
I4
sS'RP1'
p3906
I8
sS'JP'
p3907
I4
sS'RP_tot'
p3908
I8
sS'TO'
p3909
I5
sS'PA'
p3910
I8
sS'M'
p3911
I9
sS'R'
p3912
I10
sS'TB'
p3913
I5
sS'PL'
p3914
I7
sS'TA'
p3915
I8
ssg105
(dp3916
g518
(ijoueur
joueur
p3917
(dp3918
g27
I0
sg29
I0
sg33
I0
sg35
g36
(g37
g38
Ntp3919
Rp3920
(dp3921
g42
I2
sg43
S'<<'
p3922
sg45
S'special'
p3923
sbsg47
(dp3924
S'SR'
p3925
I0
sS'ST'
p3926
I0
sS'CR'
p3927
I0
sS'CT'
p3928
I0
ssg53
(dp3929
g3925
I0
sg3926
I0
sg3927
I0
sg3928
I0
ssg196
I0
sg57
I0
sg80
I00
sg59
I0
sg60
I0
sg61
I0
sg82
(S'dummy'
p3930
S'PI'
p3931
S'TL'
p3932
g32
tp3933
sg64
I01
sg65
g36
(g37
g38
Ntp3934
Rp3935
(dp3936
g42
I2
sg43
S'<<'
p3937
sg45
g3923
sbsg66
(dp3938
g3925
I0
sg3926
I0
sg3927
I1
sg3928
I0
ssg68
(dp3939
g3925
I0
sg3926
I0
sg3927
I0
sg3928
I0
ssg70
(dp3940
g3925
I0
sg3926
I0
sg3927
I0
sg3928
I0
ssg72
(dp3941
g3925
I0
sg3926
I0
sg3927
I1
sg3928
I0
ssg74
I0
sg75
I0
sg76
S'Oltess'
p3942
sg78
I10
sg79
I0
sg55
I17
sg81
I29
sg62
S'ED'
p3943
sg88
(dp3944
S'A'
p3945
I8
sS'ME'
p3946
I8
sS'RP2'
p3947
I7
sS'E'
p3948
I9
sS'TO'
p3949
I5
sS'RP1'
p3950
I8
sS'JP'
p3951
I4
sS'RP_tot'
p3952
I8
sS'P'
p3953
I4
sS'PA'
p3954
I8
sS'M'
p3955
I9
sS'R'
p3956
I10
sS'TB'
p3957
I5
sS'PL'
p3958
I7
sS'TA'
p3959
I8
ssg143
I0
sg28
I0
sg145
I0
sg146
I0
sg147
F8.481481481481481
sg148
I0
sg149
I0
sg150
I0
sg330
(dp3960
S'A'
p3961
I8
sS'ME'
p3962
I8
sS'RP2'
p3963
I7
sS'E'
p3964
I9
sS'TO'
p3965
I5
sS'RP1'
p3966
I8
sS'JP'
p3967
I4
sS'RP_tot'
p3968
I8
sS'P'
p3969
I4
sS'PA'
p3970
I8
sS'M'
p3971
I9
sS'R'
p3972
I10
sS'TB'
p3973
I5
sS'PL'
p3974
I7
sS'TA'
p3975
I8
ssg151
g3944
sg153
I0
sg56
g32
sg154
I0
sg155
I0
sg156
I0
sg157
I2
sg158
I1
sg159
I0
sg160
S'S'
p3976
sbssg143
I0
sg28
I0
sg145
I0
sg146
I0
sg147
F8.666666666666666
sg148
I0
sg149
I0
sg150
I0
sg330
(dp3977
g3901
I8
sg3902
I8
sg3903
I7
sg3904
I9
sg3909
I5
sg3906
I8
sg3907
I4
sg3908
I8
sg3905
I4
sg3910
I8
sg3911
I9
sg3912
I10
sg3913
I5
sg3914
I7
sg3915
I8
ssg151
g3900
sg153
I0
sg56
S'ED 12'
p3978
sg154
I0
sg155
I0
sg156
I0
sg157
I2
sg158
I1
sg159
I0
sg160
S'S'
p3979
sbsg577
(ijoueur
joueur
p3980
(dp3981
g27
I0
sg29
I0
sg33
I0
sg35
g36
(g37
g38
Ntp3982
Rp3983
(dp3984
g42
I2
sg43
S'<<'
p3985
sg45
S'special'
p3986
sbsg47
(dp3987
S'SR'
p3988
I0
sS'ST'
p3989
I0
sS'CR'
p3990
I0
sS'CT'
p3991
I0
ssg53
(dp3992
g3988
I0
sg3989
I0
sg3990
I0
sg3991
I0
ssg196
I0
sg57
I0
sg80
I00
sg59
I0
sg60
I0
sg61
I0
sg82
(S'dummy'
p3993
S'PI'
p3994
S'TL'
p3995
g32
tp3996
sg64
I01
sg65
g36
(g37
g38
Ntp3997
Rp3998
(dp3999
g42
I2
sg43
S'<<'
p4000
sg45
g3986
sbsg66
(dp4001
g3988
I0
sg3989
I0
sg3990
I1
sg3991
I0
ssg68
(dp4002
g3988
I0
sg3989
I0
sg3990
I0
sg3991
I0
ssg70
(dp4003
g3988
I0
sg3989
I0
sg3990
I0
sg3991
I0
ssg72
(dp4004
g3988
I0
sg3989
I0
sg3990
I1
sg3991
I0
ssg74
I0
sg75
I0
sg76
S'Oltess'
p4005
sg78
I10
sg79
I0
sg55
I17
sg81
I29
sg62
S'ED'
p4006
sg88
(dp4007
S'A'
p4008
I8
sS'ME'
p4009
I8
sS'RP2'
p4010
I7
sS'E'
p4011
I9
sS'TO'
p4012
I5
sS'RP1'
p4013
I8
sS'JP'
p4014
I4
sS'RP_tot'
p4015
I8
sS'P'
p4016
I4
sS'PA'
p4017
I8
sS'M'
p4018
I9
sS'R'
p4019
I10
sS'TB'
p4020
I5
sS'PL'
p4021
I7
sS'TA'
p4022
I8
ssg143
I0
sg28
I0
sg145
I0
sg146
I0
sg147
F8.481481481481481
sg148
I0
sg149
I0
sg150
I0
sg330
(dp4023
S'A'
p4024
I8
sS'ME'
p4025
I8
sS'RP2'
p4026
I7
sS'E'
p4027
I9
sS'TO'
p4028
I5
sS'RP1'
p4029
I8
sS'JP'
p4030
I4
sS'RP_tot'
p4031
I8
sS'P'
p4032
I4
sS'PA'
p4033
I8
sS'M'
p4034
I9
sS'R'
p4035
I10
sS'TB'
p4036
I5
sS'PL'
p4037
I7
sS'TA'
p4038
I8
ssg151
g4007
sg153
I0
sg56
g32
sg154
I0
sg155
I0
sg156
I0
sg157
I2
sg158
I1
sg159
I0
sg160
S'S'
p4039
sbssg143
I6
sg28
I0
sg145
I0
sg146
I0
sg68
(dp4040
g440
I0
sg441
I0
sg442
I0
sg443
I0
ssg148
I0
sg149
I0
sg150
I0
sg330
(dp4041
g3858
I8
sg3859
I8
sg3860
I7
sg3861
I9
sg3862
I5
sg3863
I8
sg3864
I4
sg3865
I8
sg3866
I4
sg3867
I8
sg3868
I9
sg3869
I10
sg3870
I5
sg3871
I7
sg3872
I8
ssg151
(dp4042
g3858
I8
sg3859
I10
sg3860
I7
sg3861
I9
sg3866
I4
sg3863
I8
sg3864
I4
sg3865
I9
sg3862
I5
sg3867
I8
sg3868
I9
sg3869
I10
sg3870
I5
sg3871
I7
sg3872
I8
ssg153
I0
sg416
(dp4043
sg154
I0
sg56
S'ED 12'
p4044
sg155
I0
sg156
I0
sg157
I2
sg158
I1
sg159
I0
sg160
S'S'
p4045
sbsS'n2'
p4046
(ijoueur
joueur
p4047
(dp4048
g27
I0
sg183
F8.344827586206897
sg144
g32
sg29
I0
sg30
F27.96519949925127
sg31
g32
sg33
I0
sg34
g32
sg35
g36
(g37
g38
Ntp4049
Rp4050
(dp4051
g42
I2
sg43
S'^^'
p4052
sg45
S'special'
p4053
sbsg47
(dp4054
S'SR'
p4055
I0
sS'CT'
p4056
I0
sS'CR'
p4057
I0
sS'ST'
p4058
I0
ssg53
(dp4059
g4055
I0
sg4056
I0
sg4057
I0
sg4058
I0
ssg195
I0
sg56
g32
sg57
I0
sg58
F27.96519949925127
sg80
I00
sg59
I0
sg60
I0
sg61
I0
sg62
g1363
sg64
I00
sg65
g4050
sg66
(dp4060
g1355
I0
sg1356
I0
sg1357
I3
sg1358
I0
ssg68
(dp4061
g1355
I0
sg1356
I0
sg1357
I0
sg1358
I0
ssg70
(dp4062
g1355
I0
sg1356
I0
sg1357
I0
sg1358
I0
ssg72
(dp4063
g4055
I0
sg4056
I0
sg4057
I3
sg4058
I0
ssg74
I0
sg75
I0
sg76
S'Vono'
p4064
sg78
I12
sg79
I0
sg55
I24
sg81
I26
sg82
(S'dummy'
p4065
S'TA'
p4066
g32
g32
tp4067
sg87
g32
sg88
(dp4068
S'RP1'
p4069
I9
sS'ME'
p4070
I9
sS'RP2'
p4071
I7
sS'E'
p4072
I10
sS'TO'
p4073
I7
sS'M'
p4074
I9
sS'JP'
p4075
I2
sS'RP_tot'
p4076
I9
sS'P'
p4077
I4
sS'PA'
p4078
I9
sS'A'
p4079
I9
sS'R'
p4080
I9
sS'TB'
p4081
I2
sS'PL'
p4082
I9
sg4066
I12
ssg105
(dp4083
g1381
(ijoueur
joueur
p4084
(dp4085
g27
I0
sg144
g32
sg29
I0
sg31
g32
sg33
I0
sg34
g32
sg35
g36
(g37
g38
Ntp4086
Rp4087
(dp4088
g42
I2
sg43
S'^^'
p4089
sg45
S'special'
p4090
sbsg47
(dp4091
S'SR'
p4092
I0
sS'CT'
p4093
I0
sS'CR'
p4094
I0
sS'ST'
p4095
I0
ssg53
(dp4096
g4092
I0
sg4093
I0
sg4094
I0
sg4095
I0
ssg68
(dp4097
g4092
I0
sg4093
I0
sg4094
I0
sg4095
I0
ssg56
g32
sg57
I0
sg59
I0
sg60
I0
sg61
I0
sg62
g1412
sg64
I00
sg65
g36
(g37
g38
Ntp4098
Rp4099
(dp4100
g42
I1
sg43
S'^'
p4101
sg45
S'base'
p4102
sbsg66
(dp4103
g4092
I0
sg4093
I0
sg4094
I0
sg4095
I0
ssg80
I01
sg70
(dp4104
g4092
I0
sg4093
I0
sg4094
I0
sg4095
I0
ssg72
(dp4105
g4092
I0
sg4093
I0
sg4094
I0
sg4095
I0
ssg74
I0
sg75
I0
sg76
S'Vono'
p4106
sg78
I12
sg79
I0
sg55
I24
sg81
I10
sg82
(S'dummy'
p4107
S'TA'
p4108
g32
g32
tp4109
sg87
g32
sg88
(dp4110
S'RP1'
p4111
I9
sS'ME'
p4112
I7
sS'RP2'
p4113
I7
sS'E'
p4114
I9
sS'P'
p4115
I4
sS'JP'
p4116
I2
sS'M'
p4117
I7
sS'RP_tot'
p4118
I9
sS'TO'
p4119
I6
sS'PA'
p4120
I8
sS'A'
p4121
I7
sS'R'
p4122
I8
sS'TB'
p4123
I2
sS'PL'
p4124
I8
sg4108
I10
ssg105
(dp4125
sg143
I0
sg28
I0
sg145
I0
sg146
I0
sg147
F8.344827586206897
sg148
I0
sg149
I0
sg150
I0
sg151
g4110
sg153
I0
sg154
I0
sg155
I0
sg156
I0
sg157
I1
sg158
I0
sg159
I0
sg160
S'K'
p4126
sbssg143
I4
sg28
I0
sg145
I0
sg146
I0
sg147
F9.551724137931034
sg148
I0
sg149
I0
sg150
I0
sg151
(dp4127
g4069
I9
sg4070
I9
sg4071
I7
sg4072
I10
sg4077
I4
sg4075
I2
sg4074
I9
sg4076
I9
sg4073
I7
sg4078
I9
sg4079
I9
sg4080
I9
sg4081
I2
sg4082
I9
sg4066
I12
ssg153
I0
sg416
(dp4128
sg154
I0
sg155
I0
sg156
I0
sg157
I2
sg158
I0
sg159
I0
sg160
S'K'
p4129
sbsS'n3'
p4130
(ijoueur
joueur
p4131
(dp4132
g27
I0
sg28
I0
sg29
I0
sg30
F27.96519949925127
sg31
g32
sg33
I0
sg34
g32
sg35
g36
(g37
g38
Ntp4133
Rp4134
(dp4135
g42
I4
sg43
S'x'
p4136
sg45
S'heros'
p4137
sbsg47
(dp4138
S'SR'
p4139
I0
sS'CT'
p4140
I0
sS'CR'
p4141
I0
sS'ST'
p4142
I0
ssg53
(dp4143
g4139
I0
sg4140
I0
sg4141
I0
sg4142
I0
ssg195
I0
sg55
I21
sg56
g32
sg57
I0
sg58
F27.96519949925127
sg59
I0
sg60
I0
sg61
I0
sg62
g1363
sg64
I00
sg65
g36
(g37
g38
Ntp4144
Rp4145
(dp4146
g42
I3
sg43
S'^^^'
p4147
sg45
S'rare'
p4148
sbsg66
(dp4149
g4139
I0
sg4140
I0
sg4141
I3
sg4142
I0
ssg68
(dp4150
g4139
I0
sg4140
I0
sg4141
I0
sg4142
I0
ssg70
(dp4151
g4139
I0
sg4140
I0
sg4141
I0
sg4142
I0
ssg72
(dp4152
g4139
I0
sg4140
I0
sg4141
I3
sg4142
I0
ssg74
I0
sg75
I0
sg76
S'Wrawanka'
p4153
sg78
I13
sg79
I0
sg80
I00
sg81
I19
sg82
(S'dummy'
p4154
S'PI'
p4155
g32
g32
tp4156
sg87
g32
sg88
(dp4157
S'RP1'
p4158
I9
sS'ME'
p4159
I8
sS'RP2'
p4160
I6
sS'E'
p4161
I9
sS'TO'
p4162
I8
sS'M'
p4163
I7
sS'JP'
p4164
I4
sS'RP_tot'
p4165
I9
sS'P'
p4166
I6
sS'PA'
p4167
I8
sS'A'
p4168
I9
sS'R'
p4169
I9
sS'TB'
p4170
I4
sS'PL'
p4171
I10
sS'TA'
p4172
I6
ssg105
(dp4173
sg143
I5
sg144
g32
sg145
I0
sg146
I0
sg147
F8.851851851851851
sg148
I0
sg149
I0
sg150
I0
sg151
(dp4174
g4158
I9
sg4159
I8
sg4160
I6
sg4161
I9
sg4166
I6
sg4164
I4
sg4163
I7
sg4165
I9
sg4162
I8
sg4167
I8
sg4168
I9
sg4169
I9
sg4170
I4
sg4171
I10
sg4172
I6
ssg153
I0
sg154
I0
sg155
I0
sg156
I0
sg157
I1
sg158
I0
sg159
I0
sg160
S'K'
p4175
sbsS'n4'
p4176
g1089
sS'n5'
p4177
(ijoueur
joueur
p4178
(dp4179
g182
F8.703703703703704
sg27
I0
sg183
F9.11111111111111
sg144
g32
sg29
I0
sg30
F18.862252318429977
sg33
I0
sg35
g36
(g37
g38
Ntp4180
Rp4181
(dp4182
g42
I1
sg43
S'<'
p4183
sg45
S'base'
p4184
sbsg47
(dp4185
S'SR'
p4186
I0
sS'CT'
p4187
I0
sS'CR'
p4188
I0
sS'ST'
p4189
I0
ssg53
(dp4190
g4186
I0
sg4187
I0
sg4188
I0
sg4189
I0
ssg195
I0
sg196
I0
sg147
F9.518518518518519
sg57
I0
sg197
I0
sg198
I0
sg59
I0
sg60
I0
sg61
I0
sg82
(S'dummy'
p4191
S'DL'
p4192
S'PI'
p4193
g32
tp4194
sg64
I00
sg65
g36
(g37
g38
Ntp4195
Rp4196
(dp4197
g42
I1
sg43
g4183
sg45
g4184
sbsg66
(dp4198
g440
I0
sg441
I0
sg442
I0
sg443
I2
ssg80
I00
sg70
(dp4199
g440
I0
sg441
I0
sg442
I0
sg443
I0
ssg72
(dp4200
g4186
I0
sg4187
I2
sg4188
I0
sg4189
I0
ssg74
I0
sg75
I0
sg76
S'Pretlir'
p4201
sg78
I8
sg79
I0
sg55
I16
sg81
I20
sg62
g63
sg88
(dp4202
S'A'
p4203
I5
sS'ME'
p4204
I12
sS'RP2'
p4205
I7
sS'E'
p4206
I9
sS'TO'
p4207
I8
sS'RP1'
p4208
I10
sS'JP'
p4209
I3
sS'RP_tot'
p4210
I10
sS'P'
p4211
I3
sS'PA'
p4212
I5
sS'M'
p4213
I9
sS'R'
p4214
I11
sS'TB'
p4215
I2
sS'PL'
p4216
I8
sS'TA'
p4217
I4
ssg105
(dp4218
g468
(ijoueur
joueur
p4219
(dp4220
g182
F8.703703703703704
sg27
I0
sg144
g32
sg29
I0
sg33
I0
sg35
g36
(g37
g38
Ntp4221
Rp4222
(dp4223
g42
I1
sg43
S'<'
p4224
sg45
S'base'
p4225
sbsg47
(dp4226
S'SR'
p4227
I0
sS'CT'
p4228
I0
sS'CR'
p4229
I0
sS'ST'
p4230
I0
ssg53
(dp4231
g4227
I0
sg4228
I0
sg4229
I0
sg4230
I0
ssg196
I0
sg57
I0
sg197
I0
sg198
I0
sg80
I01
sg59
I0
sg60
I0
sg61
I0
sg82
(S'dummy'
p4232
S'DL'
p4233
S'PI'
p4234
g32
tp4235
sg64
I00
sg65
g36
(g37
g38
Ntp4236
Rp4237
(dp4238
g42
I1
sg43
g4224
sg45
g4225
sbsg66
(dp4239
g489
I0
sg490
I0
sg491
I0
sg492
I0
ssg68
(dp4240
g489
I0
sg490
I0
sg491
I0
sg492
I0
ssg70
(dp4241
g489
I0
sg490
I0
sg491
I0
sg492
I0
ssg72
(dp4242
g4227
I0
sg4228
I0
sg4229
I0
sg4230
I0
ssg74
I0
sg75
I0
sg76
S'Pretlir'
p4243
sg78
I8
sg79
I0
sg55
I16
sg81
I20
sg62
g482
sg88
(dp4244
S'A'
p4245
I5
sS'ME'
p4246
I11
sS'RP2'
p4247
I7
sS'E'
p4248
I9
sS'P'
p4249
I3
sS'RP1'
p4250
I10
sS'JP'
p4251
I3
sS'RP_tot'
p4252
I10
sS'TO'
p4253
I8
sS'PA'
p4254
I5
sS'M'
p4255
I9
sS'R'
p4256
I10
sS'TB'
p4257
I2
sS'PL'
p4258
I8
sS'TA'
p4259
I4
ssg105
(dp4260
g518
(ijoueur
joueur
p4261
(dp4262
g27
I0
sg29
I0
sg33
I0
sg35
g36
(g37
g38
Ntp4263
Rp4264
(dp4265
g42
I1
sg43
S'<'
p4266
sg45
S'base'
p4267
sbsg47
(dp4268
S'SR'
p4269
I0
sS'ST'
p4270
I0
sS'CR'
p4271
I0
sS'CT'
p4272
I0
ssg53
(dp4273
g4269
I0
sg4270
I0
sg4271
I0
sg4272
I0
ssg196
I0
sg147
F8.703703703703704
sg57
I0
sg197
I0
sg198
I0
sg59
I0
sg60
I0
sg61
I0
sg82
(S'dummy'
p4274
S'DL'
p4275
S'PI'
p4276
g32
tp4277
sg64
I01
sg65
g36
(g37
g38
Ntp4278
Rp4279
(dp4280
g42
I1
sg43
g4266
sg45
g4267
sbsg66
(dp4281
g4269
I0
sg4270
I0
sg4271
I0
sg4272
I0
ssg80
I00
sg70
(dp4282
g4269
I0
sg4270
I0
sg4271
I0
sg4272
I0
ssg72
(dp4283
g4269
I0
sg4270
I0
sg4271
I0
sg4272
I0
ssg74
I0
sg75
I0
sg76
S'Pretlir'
p4284
sg78
I8
sg79
I0
sg55
I16
sg81
I20
sg62
S'MRB'
p4285
sg88
(dp4286
S'A'
p4287
I5
sS'ME'
p4288
I10
sS'RP2'
p4289
I7
sS'E'
p4290
I9
sS'TO'
p4291
I8
sS'RP1'
p4292
I10
sS'JP'
p4293
I3
sS'RP_tot'
p4294
I10
sS'P'
p4295
I3
sS'PA'
p4296
I5
sS'M'
p4297
I9
sS'R'
p4298
I9
sS'TB'
p4299
I2
sS'PL'
p4300
I8
sS'TA'
p4301
I4
ssg143
I0
sg28
I0
sg145
I0
sg146
I0
sg68
(dp4302
g4269
I0
sg4270
I0
sg4271
I0
sg4272
I0
ssg148
I0
sg329
I0
sg149
I0
sg150
I0
sg330
(dp4303
S'A'
p4304
I5
sS'ME'
p4305
I10
sS'RP2'
p4306
I7
sS'E'
p4307
I9
sS'TO'
p4308
I8
sS'RP1'
p4309
I10
sS'JP'
p4310
I3
sS'RP_tot'
p4311
I10
sS'P'
p4312
I3
sS'PA'
p4313
I5
sS'M'
p4314
I9
sS'R'
p4315
I9
sS'TB'
p4316
I2
sS'PL'
p4317
I8
sS'TA'
p4318
I4
ssg151
g4286
sg153
I0
sg56
S'ED 10'
p4319
sg154
I0
sg155
I0
sg156
I0
sg157
I2
sg158
I0
sg159
I0
sg160
S'OG'
p4320
sbssg143
I0
sg28
I0
sg145
I0
sg146
I0
sg147
F9.11111111111111
sg148
I0
sg329
I0
sg149
I0
sg150
I0
sg330
(dp4321
g4245
I5
sg4246
I10
sg4247
I7
sg4248
I9
sg4253
I8
sg4250
I10
sg4251
I3
sg4252
I10
sg4249
I3
sg4254
I5
sg4255
I9
sg4256
I9
sg4257
I2
sg4258
I8
sg4259
I4
ssg151
g4244
sg153
I0
sg56
S'ED 10;MRB 12'
p4322
sg154
I0
sg155
I0
sg156
I0
sg157
I2
sg158
I0
sg159
I0
sg160
S'OG'
p4323
sbsg577
(ijoueur
joueur
p4324
(dp4325
g27
I0
sg29
I0
sg33
I0
sg35
g36
(g37
g38
Ntp4326
Rp4327
(dp4328
g42
I1
sg43
S'<'
p4329
sg45
S'base'
p4330
sbsg47
(dp4331
S'SR'
p4332
I0
sS'ST'
p4333
I0
sS'CR'
p4334
I0
sS'CT'
p4335
I0
ssg53
(dp4336
g4332
I0
sg4333
I0
sg4334
I0
sg4335
I0
ssg196
I0
sg147
F8.703703703703704
sg57
I0
sg197
I0
sg198
I0
sg59
I0
sg60
I0
sg61
I0
sg82
(S'dummy'
p4337
S'DL'
p4338
S'PI'
p4339
g32
tp4340
sg64
I01
sg65
g36
(g37
g38
Ntp4341
Rp4342
(dp4343
g42
I1
sg43
g4329
sg45
g4330
sbsg66
(dp4344
g4332
I0
sg4333
I0
sg4334
I0
sg4335
I0
ssg80
I00
sg70
(dp4345
g4332
I0
sg4333
I0
sg4334
I0
sg4335
I0
ssg72
(dp4346
g4332
I0
sg4333
I0
sg4334
I0
sg4335
I0
ssg74
I0
sg75
I0
sg76
S'Pretlir'
p4347
sg78
I8
sg79
I0
sg55
I16
sg81
I20
sg62
S'MRB'
p4348
sg88
(dp4349
S'A'
p4350
I5
sS'ME'
p4351
I10
sS'RP2'
p4352
I7
sS'E'
p4353
I9
sS'TO'
p4354
I8
sS'RP1'
p4355
I10
sS'JP'
p4356
I3
sS'RP_tot'
p4357
I10
sS'P'
p4358
I3
sS'PA'
p4359
I5
sS'M'
p4360
I9
sS'R'
p4361
I9
sS'TB'
p4362
I2
sS'PL'
p4363
I8
sS'TA'
p4364
I4
ssg143
I0
sg28
I0
sg145
I0
sg146
I0
sg68
(dp4365
g4332
I0
sg4333
I0
sg4334
I0
sg4335
I0
ssg148
I0
sg329
I0
sg149
I0
sg150
I0
sg330
(dp4366
S'A'
p4367
I5
sS'ME'
p4368
I10
sS'RP2'
p4369
I7
sS'E'
p4370
I9
sS'TO'
p4371
I8
sS'RP1'
p4372
I10
sS'JP'
p4373
I3
sS'RP_tot'
p4374
I10
sS'P'
p4375
I3
sS'PA'
p4376
I5
sS'M'
p4377
I9
sS'R'
p4378
I9
sS'TB'
p4379
I2
sS'PL'
p4380
I8
sS'TA'
p4381
I4
ssg151
g4349
sg153
I0
sg56
S'ED 10'
p4382
sg154
I0
sg155
I0
sg156
I0
sg157
I2
sg158
I0
sg159
I0
sg160
S'OG'
p4383
sbssg143
I3
sg28
I0
sg145
I0
sg146
I0
sg68
(dp4384
g440
I0
sg441
I0
sg442
I0
sg443
I0
ssg148
I0
sg58
F18.862252318429977
sg329
I0
sg149
I0
sg150
I0
sg330
(dp4385
g4203
I5
sg4204
I10
sg4205
I7
sg4206
I9
sg4207
I8
sg4208
I10
sg4209
I3
sg4210
I10
sg4211
I3
sg4212
I5
sg4213
I9
sg4214
I9
sg4215
I2
sg4216
I8
sg4217
I4
ssg151
(dp4386
g4203
I5
sg4204
I12
sg4205
I7
sg4206
I9
sg4211
I3
sg4208
I10
sg4209
I3
sg4210
I10
sg4207
I8
sg4212
I5
sg4213
I9
sg4214
I11
sg4215
I2
sg4216
I8
sg4217
I4
ssg153
I0
sg416
(dp4387
sg154
I0
sg56
S'ED 10;MRB 12'
p4388
sg155
I0
sg156
I0
sg157
I2
sg158
I0
sg159
I0
sg160
S'OG'
p4389
sbsS'n6'
p4390
(ijoueur
joueur
p4391
(dp4392
g27
I0
sg28
I0
sg29
I0
sg30
F27.96519949925127
sg31
g32
sg33
I0
sg34
g32
sg35
g36
(g37
g38
Ntp4393
Rp4394
(dp4395
g42
I4
sg43
g1779
sg45
g1780
sbsg47
(dp4396
g1782
I0
sg1783
I1
sg1784
I0
sg1785
I0
ssg53
(dp4397
g1782
I0
sg1783
I0
sg1784
I0
sg1785
I0
ssg56
g32
sg57
I0
sg58
F27.96519949925127
sg59
I0
sg60
I0
sg61
I0
sg62
g1363
sg64
I00
sg65
g4394
sg66
(dp4398
g1782
I0
sg1783
I2
sg1784
I0
sg1785
I0
ssg80
I00
sg70
(dp4399
g1782
I0
sg1783
I0
sg1784
I0
sg1785
I0
ssg72
(dp4400
g1782
I0
sg1783
I2
sg1784
I0
sg1785
I0
ssg74
I0
sg75
I0
sg76
S'Delmak'
p4401
sg78
I7
sg79
I0
sg55
I20
sg81
I170
sg82
(g1796
S'N8'
p4402
S'TL'
p4403
g32
tp4404
sg87
g32
sg88
(dp4405
g1800
I9
sg1801
I9
sg1802
I7
sg1803
I9
sg1804
I10
sg1805
I7
sg1806
I5
sg1807
I9
sg1808
I6
sg1809
I8
sg1810
I10
sg1811
I9
sg1812
I4
sg1813
I9
sg1814
I2
ssg105
(dp4406
S's12'
p4407
(ijoueur
joueur
p4408
(dp4409
g27
I0
sg28
I0
sg29
I0
sg33
I0
sg35
g36
(g37
g38
Ntp4410
Rp4411
(dp4412
g43
g32
sbsg47
(dp4413
g2952
I0
sg2953
I0
sg2954
I0
sg2955
I0
ssg53
(dp4414
g2952
I0
sg2953
I0
sg2954
I0
sg2955
I0
ssg55
I0
sg56
g32
sg57
I0
sg59
I0
sg60
I0
sg61
I0
sg82
g4404
sg64
I00
sg65
g36
(g37
g38
Ntp4415
Rp4416
(dp4417
g43
g32
sbsg66
(dp4418
g2952
I0
sg2953
I0
sg2954
I0
sg2955
I0
ssg68
(dp4419
g2952
I0
sg2953
I0
sg2954
I0
sg2955
I0
ssg70
(dp4420
g2952
I0
sg2953
I0
sg2954
I0
sg2955
I0
ssg72
(dp4421
g2952
I0
sg2953
I0
sg2954
I0
sg2955
I0
ssg74
I0
sg75
I0
sg76
g4401
sg78
I0
sg79
I0
sg80
I00
sg81
I0
sg62
g1363
sg88
(dp4422
g2965
I0
sg2966
I0
sg2967
I0
sg2968
I0
sg2969
I0
sg2970
I0
sg2971
I0
sg2972
I0
sg2973
I0
sg2974
I0
sg2975
I0
sg2976
I0
sg2977
I0
sg2978
I0
sg2979
I0
ssg105
(dp4423
sg143
I0
sg144
g32
sg145
I0
sg146
I0
sg147
F0.0
sg148
I0
sg149
I0
sg150
I0
sg151
(dp4424
g1800
I9
sg1801
I9
sg1802
I7
sg1803
I9
sg1808
I6
sg1806
I5
sg1805
I7
sg1807
I9
sg1804
I10
sg1809
I8
sg1810
I10
sg1811
I9
sg1812
I4
sg1813
I9
sg1814
I2
ssg153
I0
sg154
I0
sg155
I0
sg156
I0
sg157
I0
sg158
I0
sg159
I0
sg160
g32
sbsS's11'
p4425
(ijoueur
joueur
p4426
(dp4427
g27
I0
sg28
I0
sg29
I0
sg33
I0
sg35
g36
(g37
g38
Ntp4428
Rp4429
(dp4430
g43
g32
sbsg47
(dp4431
g2952
I0
sg2953
I0
sg2954
I0
sg2955
I0
ssg53
(dp4432
g2952
I0
sg2953
I0
sg2954
I0
sg2955
I0
ssg55
I0
sg56
g32
sg57
I0
sg59
I0
sg60
I0
sg61
I0
sg82
g4404
sg64
I00
sg65
g36
(g37
g38
Ntp4433
Rp4434
(dp4435
g43
g32
sbsg66
(dp4436
g2952
I0
sg2953
I0
sg2954
I0
sg2955
I0
ssg68
(dp4437
g2952
I0
sg2953
I0
sg2954
I0
sg2955
I0
ssg70
(dp4438
g2952
I0
sg2953
I0
sg2954
I0
sg2955
I0
ssg72
(dp4439
g2952
I0
sg2953
I0
sg2954
I0
sg2955
I0
ssg74
I0
sg75
I0
sg76
g4401
sg78
I0
sg79
I0
sg80
I00
sg81
I0
sg62
g1363
sg88
(dp4440
g2965
I0
sg2966
I0
sg2967
I0
sg2968
I0
sg2969
I0
sg2970
I0
sg2971
I0
sg2972
I0
sg2973
I0
sg2974
I0
sg2975
I0
sg2976
I0
sg2977
I0
sg2978
I0
sg2979
I0
ssg105
(dp4441
sg143
I0
sg144
g32
sg145
I0
sg146
I0
sg147
F0.0
sg148
I0
sg149
I0
sg150
I0
sg151
g4424
sg153
I0
sg154
I0
sg155
I0
sg156
I0
sg157
I0
sg158
I0
sg159
I0
sg160
g32
sbssg143
I7
sg144
g32
sg145
I0
sg149
I0
sg146
I0
sg147
F9.194444444444445
sg148
I0
sg68
(dp4442
g1782
I0
sg1783
I1
sg1784
I0
sg1785
I0
ssg150
I0
sg151
g4424
sg153
I0
sg154
I0
sg155
I0
sg156
I0
sg157
I17
sg158
I0
sg159
I0
sg160
g1818
sbsS'n7'
p4443
(ijoueur
joueur
p4444
(dp4445
g182
F8.32258064516129
sg27
I0
sg183
F8.387096774193548
sg144
g32
sg29
I0
sg30
F27.96519949925127
sg33
I0
sg35
g36
(g37
g38
Ntp4446
Rp4447
(dp4448
g42
I1
sg43
S'<'
p4449
sg45
S'base'
p4450
sbsg47
(dp4451
S'SR'
p4452
I0
sS'CT'
p4453
I0
sS'CR'
p4454
I0
sS'ST'
p4455
I0
ssg53
(dp4456
g4452
I0
sg4453
I0
sg4454
I0
sg4455
I0
ssg195
I0
sg196
I0
sg147
F9.225806451612904
sg57
I0
sg58
F27.96519949925127
sg59
I1
sg60
I0
sg61
I0
sg82
(S'dummy'
p4457
S'TL'
p4458
g32
g32
tp4459
sg64
I00
sg65
g36
(g37
g38
Ntp4460
Rp4461
(dp4462
g42
I1
sg43
g4449
sg45
g4450
sbsg66
(dp4463
g440
I0
sg441
I0
sg442
I0
sg443
I3
ssg80
I00
sg70
(dp4464
g440
I0
sg441
I0
sg442
I0
sg443
I0
ssg72
(dp4465
g4452
I0
sg4453
I3
sg4454
I1
sg4455
I0
ssg74
I0
sg75
I0
sg76
S'Van Rell'
p4466
sg78
I3
sg79
I0
sg55
I15
sg81
I50
sg62
g63
sg88
(dp4467
S'A'
p4468
I9
sS'ME'
p4469
I11
sS'RP2'
p4470
I6
sS'E'
p4471
I9
sS'TO'
p4472
I7
sS'RP1'
p4473
I8
sS'JP'
p4474
I0
sS'RP_tot'
p4475
I8
sS'P'
p4476
I3
sS'PA'
p4477
I6
sS'M'
p4478
I8
sS'R'
p4479
I11
sS'TB'
p4480
I2
sS'PL'
p4481
I8
sS'TA'
p4482
I3
ssg105
(dp4483
g468
(ijoueur
joueur
p4484
(dp4485
g182
F8.32258064516129
sg27
I0
sg144
g32
sg29
I0
sg33
I0
sg35
g36
(g37
g38
Ntp4486
Rp4487
(dp4488
g42
I1
sg43
S'<'
p4489
sg45
S'base'
p4490
sbsg47
(dp4491
S'SR'
p4492
I0
sS'CT'
p4493
I0
sS'CR'
p4494
I0
sS'ST'
p4495
I0
ssg53
(dp4496
g4492
I0
sg4493
I0
sg4494
I0
sg4495
I0
ssg196
I0
sg57
I0
sg80
I00
sg59
I0
sg60
I0
sg61
I0
sg82
(S'dummy'
p4497
S'TL'
p4498
g32
g32
tp4499
sg64
I00
sg65
g36
(g37
g38
Ntp4500
Rp4501
(dp4502
g42
I1
sg43
g4489
sg45
g4490
sbsg66
(dp4503
g489
I0
sg490
I0
sg491
I0
sg492
I0
ssg68
(dp4504
g489
I0
sg490
I0
sg491
I0
sg492
I0
ssg70
(dp4505
g489
I0
sg490
I0
sg491
I0
sg492
I0
ssg72
(dp4506
g4492
I0
sg4493
I0
sg4494
I1
sg4495
I0
ssg74
I0
sg75
I0
sg76
S'Van Rell'
p4507
sg78
I3
sg79
I0
sg55
I15
sg81
I50
sg62
g482
sg88
(dp4508
S'A'
p4509
I9
sS'ME'
p4510
I10
sS'RP2'
p4511
I6
sS'E'
p4512
I9
sS'P'
p4513
I3
sS'RP1'
p4514
I7
sS'JP'
p4515
I0
sS'RP_tot'
p4516
I7
sS'TO'
p4517
I7
sS'PA'
p4518
I6
sS'M'
p4519
I7
sS'R'
p4520
I9
sS'TB'
p4521
I2
sS'PL'
p4522
I8
sS'TA'
p4523
I3
ssg105
(dp4524
g518
(ijoueur
joueur
p4525
(dp4526
g27
I0
sg29
I0
sg33
I0
sg35
g36
(g37
g38
Ntp4527
Rp4528
(dp4529
g42
I1
sg43
S'<'
p4530
sg45
S'base'
p4531
sbsg47
(dp4532
S'SR'
p4533
I0
sS'ST'
p4534
I0
sS'CR'
p4535
I0
sS'CT'
p4536
I0
ssg53
(dp4537
g4533
I0
sg4534
I0
sg4535
I0
sg4536
I0
ssg196
I0
sg57
I0
sg80
I00
sg59
I0
sg60
I0
sg61
I0
sg82
(S'dummy'
p4538
S'TL'
p4539
g32
g32
tp4540
sg64
I01
sg65
g36
(g37
g38
Ntp4541
Rp4542
(dp4543
g42
I1
sg43
g4530
sg45
g4531
sbsg66
(dp4544
g4533
I0
sg4534
I0
sg4535
I1
sg4536
I0
ssg68
(dp4545
g4533
I0
sg4534
I0
sg4535
I0
sg4536
I0
ssg70
(dp4546
g4533
I0
sg4534
I0
sg4535
I0
sg4536
I0
ssg72
(dp4547
g4533
I0
sg4534
I0
sg4535
I1
sg4536
I0
ssg74
I0
sg75
I0
sg76
S'Van Rell'
p4548
sg78
I3
sg79
I0
sg55
I15
sg81
I50
sg62
S'TO'
p4549
sg88
(dp4550
S'A'
p4551
I9
sS'ME'
p4552
I9
sS'RP2'
p4553
I6
sS'E'
p4554
I9
sS'TO'
p4555
I7
sS'RP1'
p4556
I7
sS'JP'
p4557
I0
sS'RP_tot'
p4558
I7
sS'P'
p4559
I3
sS'PA'
p4560
I6
sS'M'
p4561
I7
sS'R'
p4562
I9
sS'TB'
p4563
I2
sS'PL'
p4564
I8
sS'TA'
p4565
I3
ssg143
I0
sg28
I0
sg145
I0
sg146
I0
sg147
F8.32258064516129
sg148
I0
sg149
I0
sg150
I0
sg330
(dp4566
S'A'
p4567
I9
sS'ME'
p4568
I9
sS'RP2'
p4569
I6
sS'E'
p4570
I9
sS'TO'
p4571
I7
sS'RP1'
p4572
I7
sS'JP'
p4573
I0
sS'RP_tot'
p4574
I7
sS'P'
p4575
I3
sS'PA'
p4576
I6
sS'M'
p4577
I7
sS'R'
p4578
I9
sS'TB'
p4579
I2
sS'PL'
p4580
I8
sS'TA'
p4581
I3
ssg151
g4550
sg153
I0
sg56
S'DKF 9'
p4582
sg154
I0
sg155
I0
sg156
I0
sg157
I5
sg158
I0
sg159
I0
sg160
S'CV'
p4583
sbssg143
I0
sg28
I0
sg145
I0
sg146
I0
sg147
F8.387096774193548
sg148
I0
sg149
I0
sg150
I0
sg330
(dp4584
g4509
I9
sg4510
I9
sg4511
I6
sg4512
I9
sg4517
I7
sg4514
I7
sg4515
I0
sg4516
I7
sg4513
I3
sg4518
I6
sg4519
I7
sg4520
I9
sg4521
I2
sg4522
I8
sg4523
I3
ssg151
g4508
sg153
I0
sg56
S'DKF 9;TO 12'
p4585
sg154
I0
sg155
I0
sg156
I0
sg157
I5
sg158
I0
sg159
I0
sg160
S'CV'
p4586
sbsg577
(ijoueur
joueur
p4587
(dp4588
g27
I0
sg29
I0
sg33
I0
sg35
g36
(g37
g38
Ntp4589
Rp4590
(dp4591
g42
I1
sg43
S'<'
p4592
sg45
S'base'
p4593
sbsg47
(dp4594
S'SR'
p4595
I0
sS'ST'
p4596
I0
sS'CR'
p4597
I0
sS'CT'
p4598
I0
ssg53
(dp4599
g4595
I0
sg4596
I0
sg4597
I0
sg4598
I0
ssg196
I0
sg57
I0
sg80
I00
sg59
I0
sg60
I0
sg61
I0
sg82
(S'dummy'
p4600
S'TL'
p4601
g32
g32
tp4602
sg64
I01
sg65
g36
(g37
g38
Ntp4603
Rp4604
(dp4605
g42
I1
sg43
g4592
sg45
g4593
sbsg66
(dp4606
g4595
I0
sg4596
I0
sg4597
I1
sg4598
I0
ssg68
(dp4607
g4595
I0
sg4596
I0
sg4597
I0
sg4598
I0
ssg70
(dp4608
g4595
I0
sg4596
I0
sg4597
I0
sg4598
I0
ssg72
(dp4609
g4595
I0
sg4596
I0
sg4597
I1
sg4598
I0
ssg74
I0
sg75
I0
sg76
S'Van Rell'
p4610
sg78
I3
sg79
I0
sg55
I15
sg81
I50
sg62
S'TO'
p4611
sg88
(dp4612
S'A'
p4613
I9
sS'ME'
p4614
I9
sS'RP2'
p4615
I6
sS'E'
p4616
I9
sS'TO'
p4617
I7
sS'RP1'
p4618
I7
sS'JP'
p4619
I0
sS'RP_tot'
p4620
I7
sS'P'
p4621
I3
sS'PA'
p4622
I6
sS'M'
p4623
I7
sS'R'
p4624
I9
sS'TB'
p4625
I2
sS'PL'
p4626
I8
sS'TA'
p4627
I3
ssg143
I0
sg28
I0
sg145
I0
sg146
I0
sg147
F8.32258064516129
sg148
I0
sg149
I0
sg150
I0
sg330
(dp4628
S'A'
p4629
I9
sS'ME'
p4630
I9
sS'RP2'
p4631
I6
sS'E'
p4632
I9
sS'TO'
p4633
I7
sS'RP1'
p4634
I7
sS'JP'
p4635
I0
sS'RP_tot'
p4636
I7
sS'P'
p4637
I3
sS'PA'
p4638
I6
sS'M'
p4639
I7
sS'R'
p4640
I9
sS'TB'
p4641
I2
sS'PL'
p4642
I8
sS'TA'
p4643
I3
ssg151
g4612
sg153
I0
sg56
S'DKF 9'
p4644
sg154
I0
sg155
I0
sg156
I0
sg157
I5
sg158
I0
sg159
I0
sg160
S'CV'
p4645
sbssg143
I7
sg28
I0
sg145
I0
sg146
I0
sg68
(dp4646
g440
I0
sg441
I0
sg442
I0
sg443
I0
ssg148
I0
sg149
I0
sg150
I0
sg330
(dp4647
g4468
I9
sg4469
I9
sg4470
I6
sg4471
I9
sg4472
I7
sg4473
I7
sg4474
I0
sg4475
I7
sg4476
I3
sg4477
I6
sg4478
I7
sg4479
I9
sg4480
I2
sg4481
I8
sg4482
I3
ssg151
(dp4648
g4468
I9
sg4469
I11
sg4470
I6
sg4471
I9
sg4476
I3
sg4473
I8
sg4474
I0
sg4475
I8
sg4472
I7
sg4477
I6
sg4478
I8
sg4479
I11
sg4480
I2
sg4481
I8
sg4482
I3
ssg153
I0
sg416
(dp4649
sg154
I0
sg56
S'DKF 9;TO 12'
p4650
sg155
I0
sg156
I0
sg157
I5
sg158
I1
sg159
I0
sg160
S'CV'
p4651
sbssS'remplacements'
p4652
(dp4653
g2209
S'n0'
p4654
sg2434
g4654
sg2651
g4654
sg2879
g4654
sg2926
g4654
sg3000
g4654
sg3215
g4654
ssb.