(iclub
compo
p0
(dp1
S'caracs_old'
p2
(dp3
S'A'
p4
F143.5
sS'ME'
p5
F98.5
sS'E'
p6
I218
sS'OplusAV'
p7
F69.0
sS'TO_off'
p8
F75.0
sS'OplusAR'
p9
F110.5
sS'M'
p10
F50.5
sS'JP'
p11
F101.0
sS'OmoinsAR'
p12
F77.5
sS'PA'
p13
F119.5
sS'TO_def'
p14
F66.5
sS'OmoinsAV'
p15
F57.5
sS'R'
p16
F181.5
ssS'totaux_old'
p17
(dp18
S'T2'
p19
F182.0
sS'T3'
p20
F109.0
sS'T1'
p21
F175.375
ssS'roles'
p22
(dp23
S'drop1'
p24
(ijoueur
joueur
p25
(dp26
S'rouges_total'
p27
I0
sS'drops_total'
p28
I13
sS'blessure'
p29
I0
sS'RG_max'
p30
(ijoueur
rang
p31
(dp32
S'type_nb'
p33
I5
sS'rang'
p34
S'**'
p35
sS'type'
p36
S'seigneur'
p37
sbsS'MJ2_total'
p38
(dp39
S'SR'
p40
I0
sS'CT'
p41
I1
sS'CR'
p42
I0
sS'ST'
p43
I0
ssS'MJ3_total'
p44
(dp45
g40
I0
sg41
I0
sg42
I0
sg43
I0
ssS'drop_rates_total'
p46
I0
sS'drop_rates_saison'
p47
I0
sS'essais_saison'
p48
I0
sS'penalite_ratees_saison'
p49
I0
sS'transformations_saison'
p50
I0
sS'postes'
p51
(S'dummy'
p52
S'DO'
p53
S'DM'
p54
S''
p55
tp56
sS'RG'
p57
(ijoueur
rang
p58
(dp59
g33
I5
sg34
S'**'
p60
sg36
g37
sbsS'MJ1'
p61
(dp62
g40
I0
sg41
I0
sg42
I0
sg43
I0
ssS'MJ2'
p63
(dp64
g40
I0
sg41
I1
sg42
I0
sg43
I0
ssS'MJ3'
p65
(dp66
g40
I0
sg41
I0
sg42
I0
sg43
I0
ssS'MJ1_total'
p67
(dp68
g40
I0
sg41
I0
sg42
I0
sg43
I0
ssS'penalites_total'
p69
I142
sS'penalites_saison'
p70
I0
sS'nom'
p71
S'Tenmonael'
p72
sS'C'
p73
I6
sS'transformations_total'
p74
I88
sS'D'
p75
I13
sS'VAL'
p76
I298
sS'club'
p77
S'MDL'
p78
sS'caracs'
p79
(dp80
S'A'
p81
I11
sS'ME'
p82
I3
sS'RP2'
p83
I10
sS'E'
p84
I11
sS'P'
p85
I13
sS'RP1'
p86
I7
sS'JP'
p87
I11
sS'RP_tot'
p88
I10
sS'TO'
p89
I8
sS'PA'
p90
I14
sS'M'
p91
I8
sS'R'
p92
I6
sS'TB'
p93
I9
sS'PL'
p94
I11
sS'TA'
p95
I2
ssS'fatigue'
p96
I3
sS'drop_ratees_total'
p97
I0
sS'blessures_total'
p98
I0
sS'XP'
p99
I0
sS'EV'
p100
F11.242424242424242
sS'penalite_ratees_total'
p101
I0
sS'blessures_saison'
p102
I0
sS'jaunes_total'
p103
I0
sS'caracs_sans_fatigue'
p104
g80
sS'rouges_saison'
p105
I0
sS'anciens_clubs'
p106
S'KHR11'
p107
sS'transformation_ratees_total'
p108
I0
sS'drops_saison'
p109
I0
sS'transformation_ratees_saison'
p110
I0
sS'MS'
p111
I46
sS'essais_total'
p112
I7
sS'jaunes_saison'
p113
I0
sS'ARM'
p114
S'ES'
p115
sbsS'SA_scd'
p116
(ijoueur
joueur
p117
(dp118
g27
I0
sg28
I0
sg29
I0
sg30
(ijoueur
rang
p119
(dp120
g33
I3
sg34
S'^^^'
p121
sg36
S'rare'
p122
sbsg38
(dp123
g40
I0
sg41
I0
sg42
I0
sg43
I0
ssg44
(dp124
g40
I0
sg41
I0
sg42
I0
sg43
I0
ssg46
I0
sg47
I0
sg48
I0
sg49
I0
sg50
I0
sg51
(g52
S'TL'
p125
g55
g55
tp126
sg57
(ijoueur
rang
p127
(dp128
g33
I3
sg34
S'^^^'
p129
sg36
g122
sbsg61
(dp130
g40
I0
sg41
I1
sg42
I0
sg43
I0
ssg63
(dp131
g40
I0
sg41
I0
sg42
I0
sg43
I0
ssg65
(dp132
g40
I0
sg41
I0
sg42
I0
sg43
I0
ssg67
(dp133
g40
I0
sg41
I1
sg42
I0
sg43
I0
ssg69
I0
sg70
I0
sg71
S'Houg'
p134
sg73
I6
sg74
I0
sg75
I19
sg76
I80
sg77
g78
sg79
(dp135
g81
I9
sg82
I11
sg83
I7
sg84
I10
sg85
I1
sg86
I10
sg87
I3
sg88
I10
sg89
I8
sg90
I7
sg91
I10
sg92
I11
sg93
I2
sg94
I10
sg95
I5
ssg96
I2
sg97
I0
sg98
I0
sg99
I0
sg100
F10.161290322580646
sg101
I0
sg102
I0
sg103
I0
sg104
g135
sg105
I0
sg106
g55
sg108
I0
sg109
I0
sg110
I0
sg111
I18
sg112
I3
sg113
I0
sg114
S'OG'
p136
sbsS'RJL'
p137
(ijoueur
joueur
p138
(dp139
g27
I0
sg28
I4
sg29
I0
sg30
(ijoueur
rang
p140
(dp141
g33
I6
sg34
S'***'
p142
sg36
S'personnage'
p143
sbsg38
(dp144
g40
I0
sg41
I0
sg42
I0
sg43
I0
ssg44
(dp145
g40
I0
sg41
I0
sg42
I0
sg43
I0
ssg46
I0
sg47
I0
sg48
I0
sg49
I0
sg50
I0
sg51
(g52
S'DO'
p146
S'CE'
p147
g55
tp148
sg57
(ijoueur
rang
p149
(dp150
g33
I6
sg34
S'***'
p151
sg36
g143
sbsg61
(dp152
g40
I0
sg41
I1
sg42
I0
sg43
I0
ssg63
(dp153
g40
I0
sg41
I0
sg42
I0
sg43
I0
ssg65
(dp154
g40
I0
sg41
I0
sg42
I0
sg43
I0
ssg67
(dp155
g40
I0
sg41
I1
sg42
I0
sg43
I0
ssg69
I0
sg70
I0
sg71
S'Sigvald'
p156
sg73
I9
sg74
I0
sg75
I18
sg76
I377
sg77
g78
sg79
(dp157
g81
I14
sg82
I6
sg83
I12
sg84
I14
sg85
I13
sg86
I11
sg87
I10
sg88
I16
sg89
I8
sg90
I14
sg91
I9
sg92
I6
sg93
I7
sg94
I12
sg95
I7
ssg96
I3
sg97
I0
sg98
I0
sg99
I0
sg100
F12.484848484848484
sg101
I0
sg102
I0
sg103
I0
sg104
g157
sg105
I0
sg106
g55
sg108
I0
sg109
I1
sg110
I0
sg111
I49
sg112
I2
sg113
I0
sg114
S'CHS'
p158
sbsS'cap'
p159
g138
sS'B4'
p160
g25
sS'RJC'
p161
g25
sS'B1'
p162
g25
sS'B2'
p163
g25
sS'B3'
p164
g25
sS'SA_pcp2'
p165
(ijoueur
joueur
p166
(dp167
g27
I0
sg28
I0
sg29
I0
sg30
(ijoueur
rang
p168
(dp169
g33
I5
sg34
S'**'
p170
sg36
g37
sbsg38
(dp171
g40
I0
sg41
I0
sg42
I0
sg43
I0
ssg44
(dp172
g40
I0
sg41
I0
sg42
I0
sg43
I0
ssg46
I0
sg47
I0
sg48
I0
sg49
I0
sg50
I0
sg51
(g52
S'DL'
p173
S'PI'
p174
g55
tp175
sg57
(ijoueur
rang
p176
(dp177
g33
I5
sg34
S'**'
p178
sg36
g37
sbsg61
(dp179
g40
I0
sg41
I1
sg42
I0
sg43
I0
ssg63
(dp180
g40
I0
sg41
I0
sg42
I0
sg43
I0
ssg65
(dp181
g40
I0
sg41
I0
sg42
I0
sg43
I0
ssg67
(dp182
g40
I0
sg41
I1
sg42
I0
sg43
I0
ssg69
I0
sg70
I0
sg71
S'Fregort'
p183
sg73
I2
sg74
I0
sg75
I12
sg76
I200
sg77
g78
sg79
(dp184
g81
I9
sg82
I13
sg83
I7
sg84
I11
sg85
I6
sg86
I12
sg87
I5
sg88
I12
sg89
I10
sg90
I7
sg91
I8
sg92
I10
sg93
I5
sg94
I10
sg95
I8
ssg96
I2
sg97
I0
sg98
I0
sg99
I0
sg100
F10.62962962962963
sg101
I0
sg102
I0
sg103
I0
sg104
g184
sg105
I0
sg106
g55
sg108
I0
sg109
I0
sg110
I0
sg111
I20
sg112
I7
sg113
I0
sg114
S'OG'
p185
sbsS'SA_pcp1'
p186
(ijoueur
joueur
p187
(dp188
g27
I0
sg28
I0
sg29
I0
sg30
(ijoueur
rang
p189
(dp190
g33
I6
sg34
S'***'
p191
sg36
g143
sbsg38
(dp192
g40
I0
sg41
I0
sg42
I0
sg43
I0
ssg44
(dp193
g40
I0
sg41
I0
sg42
I0
sg43
I0
ssg46
I0
sg47
I0
sg48
I0
sg49
I0
sg50
I0
sg51
(g52
S'TL'
p194
S'N8'
p195
g55
tp196
sg57
(ijoueur
rang
p197
(dp198
g33
I6
sg34
S'***'
p199
sg36
g143
sbsg61
(dp200
g40
I0
sg41
I1
sg42
I0
sg43
I0
ssg63
(dp201
g40
I0
sg41
I0
sg42
I0
sg43
I0
ssg65
(dp202
g40
I0
sg41
I0
sg42
I0
sg43
I0
ssg67
(dp203
g40
I0
sg41
I1
sg42
I0
sg43
I0
ssg69
I0
sg70
I0
sg71
S'Manfred Von Carstein'
p204
sg73
I9
sg74
I0
sg75
I18
sg76
I2354
sg77
g78
sg79
(dp205
g81
I12
sg82
I9
sg83
I10
sg84
I12
sg85
I6
sg86
I10
sg87
I3
sg88
I13
sg89
I10
sg90
I10
sg91
I10
sg92
I12
sg93
I5
sg94
I13
sg95
I7
ssg96
I2
sg97
I0
sg98
I0
sg99
I0
sg100
F11.935483870967742
sg101
I0
sg102
I0
sg103
I0
sg104
g205
sg105
I0
sg106
S'KHR11'
p206
sg108
I0
sg109
I0
sg110
I0
sg111
I160
sg112
I2
sg113
I0
sg114
S'CV'
p207
sbsS'drop3'
p208
(ijoueur
joueur
p209
(dp210
g27
I0
sg28
I7
sg29
I0
sg30
(ijoueur
rang
p211
(dp212
g33
I5
sg34
S'**'
p213
sg36
g37
sbsg38
(dp214
g40
I0
sg41
I0
sg42
I0
sg43
I0
ssg44
(dp215
g40
I0
sg41
I0
sg42
I0
sg43
I0
ssg46
I0
sg47
I0
sg48
I1
sg49
I0
sg50
I0
sg51
(g52
S'AR'
p216
S'CE'
p217
S'AI'
p218
tp219
sg57
(ijoueur
rang
p220
(dp221
g33
I5
sg34
S'**'
p222
sg36
g37
sbsg61
(dp223
g40
I0
sg41
I1
sg42
I0
sg43
I0
ssg63
(dp224
g40
I0
sg41
I0
sg42
I0
sg43
I0
ssg65
(dp225
g40
I0
sg41
I0
sg42
I0
sg43
I0
ssg67
(dp226
g40
I0
sg41
I1
sg42
I0
sg43
I0
ssg69
I13
sg70
I0
sg71
S'Lumean'
p227
sg73
I7
sg74
I15
sg75
I19
sg76
I612
sg77
g78
sg79
(dp228
g81
I14
sg82
I3
sg83
I13
sg84
I10
sg85
I9
sg86
I7
sg87
I10
sg88
I13
sg89
I8
sg90
I14
sg91
I11
sg92
I11
sg93
I9
sg94
I11
sg95
I7
ssg96
I5
sg97
I0
sg98
I0
sg99
I0
sg100
F11.818181818181818
sg101
I0
sg102
I0
sg103
I0
sg104
g228
sg105
I0
sg106
S'MRB10'
p229
sg108
I0
sg109
I0
sg110
I0
sg111
I43
sg112
I19
sg113
I0
sg114
S'HE'
p230
sbsS'SA_remp1'
p231
(ijoueur
joueur
p232
(dp233
g27
I0
sg28
I0
sg29
I0
sg30
(ijoueur
rang
p234
(dp235
g33
I5
sg34
S'**'
p236
sg36
g37
sbsg38
(dp237
g40
I0
sg41
I0
sg42
I0
sg43
I0
ssg44
(dp238
g40
I0
sg41
I0
sg42
I0
sg43
I0
ssg46
I0
sg47
I0
sg48
I0
sg49
I0
sg50
I0
sg51
(g52
S'TL'
p239
g55
g55
tp240
sg57
(ijoueur
rang
p241
(dp242
g33
I5
sg34
S'**'
p243
sg36
g37
sbsg61
(dp244
g40
I0
sg41
I0
sg42
I1
sg43
I0
ssg63
(dp245
g40
I0
sg41
I0
sg42
I0
sg43
I0
ssg65
(dp246
g40
I0
sg41
I0
sg42
I0
sg43
I0
ssg67
(dp247
g40
I0
sg41
I0
sg42
I1
sg43
I0
ssg69
I0
sg70
I0
sg71
S'Vkohar'
p248
sg73
I-1
sg74
I0
sg75
I12
sg76
I100
sg77
g78
sg79
(dp249
g81
I10
sg82
I11
sg83
I8
sg84
I12
sg85
I4
sg86
I9
sg87
I3
sg88
I10
sg89
I10
sg90
I9
sg91
I9
sg92
I8
sg93
I5
sg94
I12
sg95
I4
ssg96
I2
sg97
I0
sg98
I0
sg99
I0
sg100
F10.03225806451613
sg101
I0
sg102
I0
sg103
I0
sg104
g249
sg105
I0
sg106
S'MRB9'
p250
sg108
I0
sg109
I0
sg110
I0
sg111
I13
sg112
I11
sg113
I0
sg114
S'HB'
p251
sbsS'drop2'
p252
g25
sS'SA_remp2'
p253
(ijoueur
joueur
p254
(dp255
g27
I0
sg28
I0
sg29
I0
sg30
(ijoueur
rang
p256
(dp257
g33
I2
sg34
S'<<'
p258
sg36
S'special'
p259
sbsg38
(dp260
g40
I0
sg41
I0
sg42
I0
sg43
I0
ssg44
(dp261
g40
I0
sg41
I0
sg42
I0
sg43
I0
ssg46
I0
sg47
I0
sg48
I0
sg49
I0
sg50
I0
sg51
(g52
S'DL'
p262
S'TL'
p263
g55
tp264
sg57
(ijoueur
rang
p265
(dp266
g33
I2
sg34
S'<<'
p267
sg36
g259
sbsg61
(dp268
g40
I0
sg41
I0
sg42
I0
sg43
I0
ssg63
(dp269
g40
I0
sg41
I0
sg42
I0
sg43
I0
ssg65
(dp270
g40
I0
sg41
I0
sg42
I0
sg43
I0
ssg67
(dp271
g40
I0
sg41
I0
sg42
I0
sg43
I0
ssg69
I0
sg70
I0
sg71
S'Roberdt'
p272
sg73
I1
sg74
I0
sg75
I12
sg76
I34
sg77
g78
sg79
(dp273
g81
I10
sg82
I8
sg83
I6
sg84
I8
sg85
I6
sg86
I6
sg87
I6
sg88
I6
sg89
I8
sg90
I7
sg91
I7
sg92
I9
sg93
I5
sg94
I7
sg95
I4
ssg96
I0
sg97
I0
sg98
I0
sg99
I0
sg100
F7.911764705882353
sg101
I0
sg102
I0
sg103
I0
sg104
g273
sg105
I0
sg106
S'ALT8'
p274
sg108
I0
sg109
I0
sg110
I0
sg111
I4
sg112
I1
sg113
I0
sg114
S'EMP'
p275
sbssS'totaux'
p276
(dp277
g19
I0
sg20
I0
sg21
I0
ssS'_compo_defaut_fatigue'
p278
Nsg79
(dp279
g4
I0
sg5
I0
sg6
I0
sg7
I0
sg8
I0
sg9
I0
sg10
I0
sg11
I0
sg12
I0
sg13
I0
sg14
I0
sg15
I0
sg16
I0
ssS'joueurs'
p280
(dp281
S'n12'
p282
g209
sS'n13'
p283
(ijoueur
joueur
p284
(dp285
g27
I0
sg28
I0
sg29
I0
sg30
(ijoueur
rang
p286
(dp287
g33
I1
sg34
S'^'
p288
sg36
S'base'
p289
sbsg38
(dp290
g40
I0
sg41
I0
sg42
I0
sg43
I0
ssg44
(dp291
g40
I0
sg41
I0
sg42
I0
sg43
I0
ssg46
I0
sg47
I0
sg48
I0
sg49
I0
sg50
I0
sg51
(g52
S'C2'
p292
g55
g55
tp293
sg57
(ijoueur
rang
p294
(dp295
g33
I1
sg34
g288
sg36
g289
sbsg61
(dp296
g40
I0
sg41
I0
sg42
I1
sg43
I0
ssg63
(dp297
g40
I0
sg41
I0
sg42
I0
sg43
I0
ssg65
(dp298
g40
I0
sg41
I0
sg42
I0
sg43
I0
ssg67
(dp299
g40
I0
sg41
I0
sg42
I1
sg43
I0
ssg69
I0
sg70
I0
sg71
S'Hobeled'
p300
sg73
I9
sg74
I0
sg75
I20
sg76
I58
sg77
g78
sg79
(dp301
g81
I7
sg82
I5
sg83
I10
sg84
I11
sg85
I6
sg86
I10
sg87
I8
sg88
I13
sg89
I2
sg90
I9
sg91
I11
sg92
I8
sg93
I6
sg94
I9
sg95
I7
ssg96
I2
sg97
I0
sg98
I0
sg99
I0
sg100
F9.689655172413794
sg101
I0
sg102
I0
sg103
I0
sg104
g301
sg105
I0
sg106
g55
sg108
I0
sg109
I0
sg110
I0
sg111
I6
sg112
I2
sg113
I0
sg114
S'OG'
p302
sbsS'n10'
p303
g138
sS'n11'
p304
(ijoueur
joueur
p305
(dp306
g27
I0
sg28
I0
sg29
I0
sg30
(ijoueur
rang
p307
(dp308
g33
I4
sg34
S'*'
p309
sg36
S'heros'
p310
sbsg38
(dp311
g40
I0
sg41
I0
sg42
I0
sg43
I0
ssg44
(dp312
g40
I0
sg41
I0
sg42
I0
sg43
I0
ssg46
I0
sg47
I0
sg48
I0
sg49
I0
sg50
I0
sg51
(g52
S'AI'
p313
S'AR'
p314
S'CE'
p315
tp316
sg57
(ijoueur
rang
p317
(dp318
g33
I5
sg34
S'**'
p319
sg36
g37
sbsg61
(dp320
g40
I0
sg41
I1
sg42
I0
sg43
I0
ssg63
(dp321
g40
I0
sg41
I0
sg42
I0
sg43
I0
ssg65
(dp322
g40
I0
sg41
I0
sg42
I0
sg43
I0
ssg67
(dp323
g40
I0
sg41
I1
sg42
I0
sg43
I0
ssg69
I0
sg70
I0
sg71
S'Tralov'
p324
sg73
I9
sg74
I0
sg75
I22
sg76
I768
sg77
g78
sg79
(dp325
g81
I12
sg82
I5
sg83
I7
sg84
I12
sg85
I9
sg86
I13
sg87
I9
sg88
I13
sg89
I11
sg90
I12
sg91
I8
sg92
I9
sg93
I6
sg94
I14
sg95
I6
ssg96
I3
sg97
I0
sg98
I0
sg99
I0
sg100
F11.516129032258064
sg101
I0
sg102
I0
sg103
I0
sg104
g325
sg105
I0
sg106
S'PRG11'
p326
sg108
I0
sg109
I0
sg110
I0
sg111
I40
sg112
I0
sg113
I0
sg114
S'CHS'
p327
sbsS'n16'
p328
(ijoueur
joueur
p329
(dp330
g27
I0
sg28
I0
sg29
I0
sg30
(ijoueur
rang
p331
(dp332
g33
I2
sg34
S'^^'
p333
sg36
g259
sbsg38
(dp334
g40
I0
sg41
I0
sg42
I0
sg43
I0
ssg44
(dp335
g40
I0
sg41
I0
sg42
I0
sg43
I0
ssg46
I0
sg47
I0
sg48
I0
sg49
I0
sg50
I0
sg51
(g52
S'TA'
p336
g55
g55
tp337
sg57
(ijoueur
rang
p338
(dp339
g33
I2
sg34
S'^^'
p340
sg36
g259
sbsg61
(dp341
g40
I0
sg41
I0
sg42
I0
sg43
I0
ssg63
(dp342
g40
I0
sg41
I0
sg42
I0
sg43
I0
ssg65
(dp343
g40
I0
sg41
I0
sg42
I0
sg43
I0
ssg67
(dp344
g40
I0
sg41
I0
sg42
I0
sg43
I0
ssg69
I0
sg70
I0
sg71
S'Detoyr'
p345
sg73
I5
sg74
I0
sg75
I13
sg76
I55
sg77
g78
sg79
(dp346
g81
I8
sg82
I6
sg83
I6
sg84
I9
sg85
I4
sg86
I6
sg87
I2
sg88
I6
sg89
I8
sg90
I9
sg91
I9
sg92
I7
sg93
I3
sg94
I8
sg95
I10
ssg96
I0
sg97
I0
sg98
I0
sg99
I0
sg100
F7.793103448275862
sg101
I0
sg102
I0
sg103
I0
sg104
g346
sg105
I0
sg106
g55
sg108
I0
sg109
I0
sg110
I0
sg111
I6
sg112
I0
sg113
I0
sg114
S'B'
p347
sbsS'n17'
p348
(ijoueur
joueur
p349
(dp350
g27
I0
sg28
I0
sg29
I0
sg30
(ijoueur
rang
p351
(dp352
g33
I1
sg34
g288
sg36
g289
sbsg38
(dp353
g40
I0
sg41
I0
sg42
I0
sg43
I0
ssg44
(dp354
g40
I0
sg41
I0
sg42
I0
sg43
I0
ssg46
I0
sg47
I0
sg48
I0
sg49
I0
sg50
I0
sg51
(g52
S'PI'
p355
g55
g55
tp356
sg57
(ijoueur
rang
p357
(dp358
g33
I1
sg34
g288
sg36
g289
sbsg61
(dp359
g40
I0
sg41
I0
sg42
I0
sg43
I0
ssg63
(dp360
g40
I0
sg41
I0
sg42
I0
sg43
I0
ssg65
(dp361
g40
I0
sg41
I0
sg42
I0
sg43
I0
ssg67
(dp362
g40
I0
sg41
I0
sg42
I0
sg43
I0
ssg69
I0
sg70
I0
sg71
S'Van Vhyr'
p363
sg73
I3
sg74
I0
sg75
I10
sg76
I10
sg77
g78
sg79
(dp364
g81
I9
sg82
I9
sg83
I8
sg84
I8
sg85
I1
sg86
I9
sg87
I2
sg88
I10
sg89
I3
sg90
I6
sg91
I7
sg92
I9
sg93
I1
sg94
I9
sg95
I7
ssg96
I0
sg97
I0
sg98
I0
sg99
I0
sg100
F8.814814814814815
sg101
I0
sg102
I0
sg103
I0
sg104
g364
sg105
I0
sg106
S'DKF9'
p365
sg108
I0
sg109
I0
sg110
I0
sg111
I2
sg112
I1
sg113
I0
sg114
S'CV'
p366
sbsS'n14'
p367
(ijoueur
joueur
p368
(dp369
g27
I0
sg28
I0
sg29
I0
sg30
(ijoueur
rang
p370
(dp371
g33
I4
sg34
g309
sg36
g310
sbsg38
(dp372
g40
I0
sg41
I0
sg42
I0
sg43
I0
ssg44
(dp373
g40
I0
sg41
I0
sg42
I0
sg43
I0
ssg46
I0
sg47
I0
sg48
I0
sg49
I0
sg50
I0
sg51
(g52
S'DM'
p374
S'AI'
p375
S'CE'
p376
tp377
sg57
(ijoueur
rang
p378
(dp379
g33
I4
sg34
g309
sg36
g310
sbsg61
(dp380
g40
I0
sg41
I0
sg42
I1
sg43
I0
ssg63
(dp381
g40
I0
sg41
I0
sg42
I0
sg43
I0
ssg65
(dp382
g40
I0
sg41
I0
sg42
I0
sg43
I0
ssg67
(dp383
g40
I0
sg41
I0
sg42
I1
sg43
I0
ssg69
I0
sg70
I0
sg71
S'Popolat'
p384
sg73
I6
sg74
I0
sg75
I19
sg76
I130
sg77
g78
sg79
(dp385
g81
I8
sg82
I7
sg83
I8
sg84
I9
sg85
I7
sg86
I10
sg87
I7
sg88
I11
sg89
I3
sg90
I10
sg91
I10
sg92
I11
sg93
I10
sg94
I10
sg95
I4
ssg96
I1
sg97
I0
sg98
I0
sg99
I0
sg100
F9.225806451612904
sg101
I0
sg102
I0
sg103
I0
sg104
g385
sg105
I0
sg106
g55
sg108
I0
sg109
I0
sg110
I0
sg111
I18
sg112
I10
sg113
I0
sg114
S'OG'
p386
sbsS'n15'
p387
(ijoueur
joueur
p388
(dp389
g27
I0
sg28
I0
sg29
I0
sg30
(ijoueur
rang
p390
(dp391
g33
I3
sg34
S'^^^'
p392
sg36
g122
sbsg38
(dp393
g40
I0
sg41
I1
sg42
I0
sg43
I0
ssg44
(dp394
g40
I0
sg41
I0
sg42
I0
sg43
I0
ssg46
I0
sg47
I0
sg48
I0
sg49
I0
sg50
I0
sg51
(g52
S'AR'
p395
S'AI'
p396
S'CE'
p397
tp398
sg57
(ijoueur
rang
p399
(dp400
g33
I3
sg34
S'^^^'
p401
sg36
g122
sbsg61
(dp402
g40
I0
sg41
I0
sg42
I0
sg43
I0
ssg63
(dp403
g40
I0
sg41
I1
sg42
I0
sg43
I0
ssg65
(dp404
g40
I0
sg41
I0
sg42
I0
sg43
I0
ssg67
(dp405
g40
I0
sg41
I0
sg42
I0
sg43
I0
ssg69
I0
sg70
I0
sg71
S'Mentre'
p406
sg73
I8
sg74
I0
sg75
I18
sg76
I136
sg77
g78
sg79
(dp407
g81
I10
sg82
I7
sg83
I11
sg84
I10
sg85
I7
sg86
I10
sg87
I10
sg88
I14
sg89
I2
sg90
I7
sg91
I12
sg92
I9
sg93
I7
sg94
I12
sg95
I5
ssg96
I3
sg97
I0
sg98
I0
sg99
I0
sg100
F10.727272727272727
sg101
I0
sg102
I0
sg103
I0
sg104
g407
sg105
I0
sg106
g55
sg108
I0
sg109
I0
sg110
I0
sg111
I18
sg112
I5
sg113
I0
sg114
S'OG'
p408
sbsS'n18'
p409
g254
sS'n19'
p410
g232
sS'n22'
p411
(ijoueur
joueur
p412
(dp413
g27
I0
sg28
I0
sg29
I0
sg30
(ijoueur
rang
p414
(dp415
g33
I4
sg34
g309
sg36
g310
sbsg38
(dp416
g40
I0
sg41
I0
sg42
I0
sg43
I0
ssg44
(dp417
g40
I0
sg41
I0
sg42
I1
sg43
I0
ssg46
I0
sg47
I0
sg48
I0
sg49
I0
sg50
I0
sg51
(g52
S'AR'
p418
S'CE'
p419
S'AI'
p420
tp421
sg57
(ijoueur
rang
p422
(dp423
g33
I4
sg34
g309
sg36
g310
sbsg61
(dp424
g40
I0
sg41
I0
sg42
I0
sg43
I0
ssg63
(dp425
g40
I0
sg41
I0
sg42
I0
sg43
I0
ssg65
(dp426
g40
I0
sg41
I0
sg42
I1
sg43
I0
ssg67
(dp427
g40
I0
sg41
I0
sg42
I0
sg43
I0
ssg69
I2
sg70
I0
sg71
S'Marodard'
p428
sg73
I2
sg74
I1
sg75
I9
sg76
I40
sg77
g78
sg79
(dp429
g81
I9
sg82
I7
sg83
I10
sg84
I10
sg85
I9
sg86
I9
sg87
I8
sg88
I12
sg89
I4
sg90
I8
sg91
I8
sg92
I8
sg93
I8
sg94
I10
sg95
I5
ssg96
I2
sg97
I0
sg98
I0
sg99
I0
sg100
F9.454545454545455
sg101
I0
sg102
I0
sg103
I0
sg104
g429
sg105
I0
sg106
g55
sg108
I0
sg109
I0
sg110
I0
sg111
I5
sg112
I19
sg113
I0
sg114
S'EMP'
p430
sbsS'n21'
p431
(ijoueur
joueur
p432
(dp433
g27
I0
sg28
I4
sg29
I0
sg30
(ijoueur
rang
p434
(dp435
g33
I6
sg34
S'***'
p436
sg36
g143
sbsg38
(dp437
g40
I0
sg41
I0
sg42
I0
sg43
I0
ssg44
(dp438
g40
I0
sg41
I0
sg42
I0
sg43
I0
ssg46
I0
sg47
I0
sg48
I0
sg49
I0
sg50
I0
sg51
(g52
S'C1'
p439
S'AR'
p440
S'AI'
p441
tp442
sg57
(ijoueur
rang
p443
(dp444
g33
I6
sg34
S'***'
p445
sg36
g143
sbsg61
(dp446
g40
I0
sg41
I1
sg42
I0
sg43
I0
ssg63
(dp447
g40
I0
sg41
I0
sg42
I0
sg43
I0
ssg65
(dp448
g40
I0
sg41
I0
sg42
I0
sg43
I0
ssg67
(dp449
g40
I0
sg41
I1
sg42
I0
sg43
I0
ssg69
I0
sg70
I0
sg71
S'Orion'
p450
sg73
I5
sg74
I0
sg75
I17
sg76
I886
sg77
g78
sg79
(dp451
g81
I12
sg82
I7
sg83
I8
sg84
I10
sg85
I8
sg86
I12
sg87
I9
sg88
I13
sg89
I9
sg90
I14
sg91
I12
sg92
I11
sg93
I6
sg94
I10
sg95
I5
ssg96
I4
sg97
I0
sg98
I0
sg99
I0
sg100
F11.266666666666667
sg101
I0
sg102
I0
sg103
I0
sg104
g451
sg105
I0
sg106
S'KAK8'
p452
sg108
I0
sg109
I0
sg110
I0
sg111
I327
sg112
I18
sg113
I0
sg114
S'ES'
p453
sbsS'n20'
p454
(ijoueur
joueur
p455
(dp456
g27
I0
sg28
I2
sg29
I0
sg30
(ijoueur
rang
p457
(dp458
g33
I2
sg34
S'^^'
p459
sg36
g259
sbsg38
(dp460
g40
I0
sg41
I0
sg42
I0
sg43
I0
ssg44
(dp461
g40
I0
sg41
I0
sg42
I0
sg43
I0
ssg46
I0
sg47
I0
sg48
I0
sg49
I0
sg50
I0
sg51
(g52
S'DO'
p462
S'DM'
p463
S'CE'
p464
tp465
sg57
(ijoueur
rang
p466
(dp467
g33
I2
sg34
S'^^'
p468
sg36
g259
sbsg61
(dp469
g40
I0
sg41
I0
sg42
I0
sg43
I0
ssg63
(dp470
g40
I0
sg41
I0
sg42
I0
sg43
I0
ssg65
(dp471
g40
I0
sg41
I0
sg42
I0
sg43
I0
ssg67
(dp472
g40
I0
sg41
I0
sg42
I0
sg43
I0
ssg69
I0
sg70
I0
sg71
S'Aoden'
p473
sg73
I4
sg74
I0
sg75
I14
sg76
I22
sg77
g78
sg79
(dp474
g81
I12
sg82
I4
sg83
I6
sg84
I9
sg85
I10
sg86
I7
sg87
I6
sg88
I7
sg89
I7
sg90
I11
sg91
I9
sg92
I7
sg93
I8
sg94
I9
sg95
I2
ssg96
I0
sg97
I0
sg98
I0
sg99
I0
sg100
F9.030303030303031
sg101
I0
sg102
I0
sg103
I0
sg104
g474
sg105
I0
sg106
S'HTH6'
p475
sg108
I0
sg109
I0
sg110
I0
sg111
I3
sg112
I3
sg113
I0
sg114
S'HE'
p476
sbsS'n8'
p477
(ijoueur
joueur
p478
(dp479
g27
I0
sg28
I0
sg29
I0
sg30
(ijoueur
rang
p480
(dp481
g33
I3
sg34
S'<<<'
p482
sg36
g122
sbsg38
(dp483
g40
I0
sg41
I1
sg42
I0
sg43
I0
ssg44
(dp484
g40
I0
sg41
I0
sg42
I0
sg43
I0
ssg46
I0
sg47
I0
sg48
I0
sg49
I0
sg50
I0
sg51
(g52
S'TL'
p485
S'N8'
p486
g55
tp487
sg57
(ijoueur
rang
p488
(dp489
g33
I3
sg34
S'<<<'
p490
sg36
g122
sbsg61
(dp491
g40
I0
sg41
I0
sg42
I0
sg43
I0
ssg63
(dp492
g40
I0
sg41
I1
sg42
I0
sg43
I0
ssg65
(dp493
g40
I0
sg41
I0
sg42
I0
sg43
I0
ssg67
(dp494
g40
I0
sg41
I0
sg42
I0
sg43
I0
ssg69
I0
sg70
I0
sg71
S'Jgadzarh'
p495
sg73
I7
sg74
I0
sg75
I20
sg76
I104
sg77
g78
sg79
(dp496
g81
I6
sg82
I12
sg83
I8
sg84
I11
sg85
I4
sg86
I12
sg87
I4
sg88
I13
sg89
I6
sg90
I5
sg91
I9
sg92
I12
sg93
I3
sg94
I9
sg95
I7
ssg96
I3
sg97
I0
sg98
I0
sg99
I0
sg100
F10.419354838709678
sg101
I0
sg102
I0
sg103
I0
sg104
g496
sg105
I0
sg106
g55
sg108
I0
sg109
I0
sg110
I0
sg111
I11
sg112
I0
sg113
I0
sg114
S'HB'
p497
sbsS'n9'
p498
g25
sS'n1'
p499
(ijoueur
joueur
p500
(dp501
g27
I0
sg28
I0
sg29
I0
sg30
(ijoueur
rang
p502
(dp503
g33
I5
sg34
S'**'
p504
sg36
g37
sbsg38
(dp505
g40
I0
sg41
I0
sg42
I0
sg43
I0
ssg44
(dp506
g40
I0
sg41
I0
sg42
I0
sg43
I0
ssg46
I0
sg47
I0
sg48
I0
sg49
I0
sg50
I0
sg51
(g52
S'PI'
p507
g55
g55
tp508
sg57
(ijoueur
rang
p509
(dp510
g33
I5
sg34
S'**'
p511
sg36
g37
sbsg61
(dp512
g40
I0
sg41
I0
sg42
I1
sg43
I0
ssg63
(dp513
g40
I0
sg41
I0
sg42
I0
sg43
I0
ssg65
(dp514
g40
I0
sg41
I0
sg42
I0
sg43
I0
ssg67
(dp515
g40
I0
sg41
I0
sg42
I1
sg43
I0
ssg69
I0
sg70
I0
sg71
S'Morohg'
p516
sg73
I6
sg74
I0
sg75
I18
sg76
I561
sg77
g78
sg79
(dp517
g81
I8
sg82
I11
sg83
I6
sg84
I11
sg85
I3
sg86
I12
sg87
I3
sg88
I12
sg89
I6
sg90
I7
sg91
I8
sg92
I8
sg93
I3
sg94
I9
sg95
I8
ssg96
I4
sg97
I0
sg98
I0
sg99
I0
sg100
F9.703703703703704
sg101
I0
sg102
I0
sg103
I0
sg104
g517
sg105
I0
sg106
S'ALT11'
p518
sg108
I0
sg109
I0
sg110
I0
sg111
I56
sg112
I5
sg113
I0
sg114
S'OG'
p519
sbsS'n2'
p520
(ijoueur
joueur
p521
(dp522
g27
I0
sg28
I0
sg29
I0
sg30
(ijoueur
rang
p523
(dp524
g33
I4
sg34
g309
sg36
g310
sbsg38
(dp525
g40
I0
sg41
I0
sg42
I0
sg43
I0
ssg44
(dp526
g40
I0
sg41
I0
sg42
I0
sg43
I0
ssg46
I0
sg47
I0
sg48
I0
sg49
I0
sg50
I0
sg51
(g52
S'TA'
p527
S'PI'
p528
g55
tp529
sg57
(ijoueur
rang
p530
(dp531
g33
I4
sg34
g309
sg36
g310
sbsg61
(dp532
g40
I0
sg41
I1
sg42
I0
sg43
I0
ssg63
(dp533
g40
I0
sg41
I0
sg42
I0
sg43
I0
ssg65
(dp534
g40
I0
sg41
I0
sg42
I0
sg43
I0
ssg67
(dp535
g40
I0
sg41
I1
sg42
I0
sg43
I0
ssg69
I0
sg70
I0
sg71
S'Vettl'
p536
sg73
I9
sg74
I0
sg75
I19
sg76
I183
sg77
g78
sg79
(dp537
g81
I5
sg82
I8
sg83
I7
sg84
I9
sg85
I4
sg86
I11
sg87
I5
sg88
I11
sg89
I4
sg90
I7
sg91
I9
sg92
I8
sg93
I4
sg94
I9
sg95
I11
ssg96
I3
sg97
I0
sg98
I0
sg99
I0
sg100
F8.89655172413793
sg101
I0
sg102
I0
sg103
I0
sg104
g537
sg105
I0
sg106
g55
sg108
I0
sg109
I0
sg110
I0
sg111
I14
sg112
I1
sg113
I0
sg114
S'OG'
p538
sbsS'n3'
p539
(ijoueur
joueur
p540
(dp541
g27
I0
sg28
I0
sg29
I0
sg30
(ijoueur
rang
p542
(dp543
g33
I2
sg34
S'<<'
p544
sg36
g259
sbsg38
(dp545
g40
I0
sg41
I0
sg42
I0
sg43
I0
ssg44
(dp546
g40
I0
sg41
I0
sg42
I0
sg43
I0
ssg46
I0
sg47
I0
sg48
I0
sg49
I0
sg50
I0
sg51
(g52
S'PI'
p547
g55
g55
tp548
sg57
(ijoueur
rang
p549
(dp550
g33
I2
sg34
S'<<'
p551
sg36
g259
sbsg61
(dp552
g40
I0
sg41
I1
sg42
I0
sg43
I0
ssg63
(dp553
g40
I0
sg41
I0
sg42
I0
sg43
I0
ssg65
(dp554
g40
I0
sg41
I0
sg42
I0
sg43
I0
ssg67
(dp555
g40
I0
sg41
I1
sg42
I0
sg43
I0
ssg69
I0
sg70
I0
sg71
S'Soryel'
p556
sg73
I6
sg74
I0
sg75
I20
sg76
I100
sg77
g78
sg79
(dp557
g81
I7
sg82
I11
sg83
I8
sg84
I11
sg85
I4
sg86
I10
sg87
I2
sg88
I11
sg89
I8
sg90
I9
sg91
I7
sg92
I9
sg93
I4
sg94
I9
sg95
I8
ssg96
I1
sg97
I0
sg98
I0
sg99
I0
sg100
F9.74074074074074
sg101
I0
sg102
I0
sg103
I0
sg104
g557
sg105
I0
sg106
S'TA11'
p558
sg108
I0
sg109
I0
sg110
I0
sg111
I13
sg112
I15
sg113
I0
sg114
S'CHS'
p559
sbsS'n4'
p560
g166
sS'n5'
p561
(ijoueur
joueur
p562
(dp563
g27
I0
sg28
I0
sg29
I0
sg30
(ijoueur
rang
p564
(dp565
g33
I2
sg34
S'<<'
p566
sg36
g259
sbsg38
(dp567
g40
I0
sg41
I0
sg42
I1
sg43
I0
ssg44
(dp568
g40
I0
sg41
I0
sg42
I0
sg43
I0
ssg46
I0
sg47
I0
sg48
I0
sg49
I0
sg50
I0
sg51
(g52
S'TA'
p569
S'DL'
p570
S'TL'
p571
tp572
sg57
(ijoueur
rang
p573
(dp574
g33
I2
sg34
S'<<'
p575
sg36
g259
sbsg61
(dp576
g40
I0
sg41
I0
sg42
I0
sg43
I0
ssg63
(dp577
g40
I0
sg41
I0
sg42
I1
sg43
I0
ssg65
(dp578
g40
I0
sg41
I0
sg42
I0
sg43
I0
ssg67
(dp579
g40
I0
sg41
I0
sg42
I0
sg43
I0
ssg69
I0
sg70
I0
sg71
S'Hoegh'
p580
sg73
I-2
sg74
I0
sg75
I12
sg76
I20
sg77
g78
sg79
(dp581
g81
I9
sg82
I8
sg83
I5
sg84
I12
sg85
I5
sg86
I6
sg87
I1
sg88
I6
sg89
I8
sg90
I10
sg91
I8
sg92
I8
sg93
I5
sg94
I9
sg95
I9
ssg96
I1
sg97
I0
sg98
I0
sg99
I0
sg100
F8.689655172413794
sg101
I0
sg102
I0
sg103
I0
sg104
g581
sg105
I0
sg106
S'MRB10'
p582
sg108
I0
sg109
I0
sg110
I0
sg111
I2
sg112
I1
sg113
I0
sg114
S'EN'
p583
sbsS'n6'
p584
g117
sS'n7'
p585
g187
ssS'remplacements'
p586
(dp587
g328
S'n0'
p588
sg348
g588
sg409
g588
sg410
g588
sg411
g588
sg431
g588
sg454
g588
ssb.