(iclub
compo
p0
(dp1
S'caracs_old'
p2
(dp3
S'A'
p4
F149.5
sS'ME'
p5
F104.5
sS'E'
p6
I181
sS'OplusAV'
p7
F60.0
sS'TO_off'
p8
F118.5
sS'OplusAR'
p9
F37.5
sS'M'
p10
F36.0
sS'JP'
p11
F84.5
sS'OmoinsAR'
p12
F62.0
sS'PA'
p13
F114.5
sS'TO_def'
p14
F110.5
sS'OmoinsAV'
p15
F71.5
sS'R'
p16
F158.0
ssS'totaux_old'
p17
(dp18
S'T2'
p19
F174.25
sS'T3'
p20
F90.5
sS'T1'
p21
F188.5
ssS'roles'
p22
(dp23
S'drop1'
p24
(ijoueur
joueur
p25
(dp26
S'rouges_total'
p27
I0
sS'drops_total'
p28
I0
sS'blessure'
p29
I0
sS'RG_max'
p30
(ijoueur
rang
p31
(dp32
S'type_nb'
p33
I4
sS'rang'
p34
S'*'
p35
sS'type'
p36
S'heros'
p37
sbsS'MJ2_total'
p38
(dp39
S'SR'
p40
I0
sS'CT'
p41
I1
sS'CR'
p42
I0
sS'ST'
p43
I0
ssS'MJ3_total'
p44
(dp45
g40
I0
sg41
I0
sg42
I0
sg43
I0
ssS'drop_rates_total'
p46
I0
sS'drop_rates_saison'
p47
I0
sS'transformations'
p48
I0
sS'penalites'
p49
I0
sS'essais_saison'
p50
I0
sS'penalite_ratees_saison'
p51
I0
sS'transformations_saison'
p52
I0
sS'postes'
p53
(S'dummy'
p54
S'DO'
p55
S'CE'
p56
S''
p57
tp58
sS'RG'
p59
(ijoueur
rang
p60
(dp61
g33
I4
sg34
g35
sg36
g37
sbsS'MJ1'
p62
(dp63
g40
I0
sg41
I0
sg42
I0
sg43
I0
ssS'MJ2'
p64
(dp65
g40
I0
sg41
I1
sg42
I0
sg43
I0
ssS'MJ3'
p66
(dp67
g40
I0
sg41
I0
sg42
I0
sg43
I0
ssS'MJ1_total'
p68
(dp69
g40
I0
sg41
I0
sg42
I0
sg43
I0
ssS'penalites_total'
p70
I0
sS'penalites_saison'
p71
I0
sS'nom'
p72
S'Ientl'
p73
sS'C'
p74
I8
sS'transformations_total'
p75
I0
sS'D'
p76
I22
sS'VAL'
p77
I20
sS'club'
p78
S'PRG'
p79
sS'caracs'
p80
(dp81
S'A'
p82
I10
sS'ME'
p83
I5
sS'RP2'
p84
I8
sS'E'
p85
I15
sS'P'
p86
I10
sS'RP1'
p87
I8
sS'JP'
p88
I9
sS'RP_tot'
p89
I9
sS'TO'
p90
I8
sS'PA'
p91
I11
sS'M'
p92
I10
sS'R'
p93
I9
sS'TB'
p94
I7
sS'PL'
p95
I11
sS'TA'
p96
I8
ssS'fatigue'
p97
I3
sS'drop_ratees_total'
p98
I0
sS'blessures_total'
p99
I0
sS'XP'
p100
I0
sS'EV'
p101
F10.606060606060606
sS'penalite_ratees_total'
p102
I0
sS'drops'
p103
I0
sS'blessures_saison'
p104
I0
sS'jaunes_total'
p105
I0
sS'caracs_sans_fatigue'
p106
g81
sS'rouges_saison'
p107
I0
sS'anciens_clubs'
p108
S'APA10'
p109
sS'transformation_ratees_total'
p110
I0
sS'drops_saison'
p111
I0
sS'transformation_ratees_saison'
p112
I0
sS'MS'
p113
I2
sS'essais_total'
p114
I1
sS'jaunes_saison'
p115
I0
sS'ARM'
p116
S'HL'
p117
sbsS'SA_scd'
p118
(ijoueur
joueur
p119
(dp120
g27
I0
sg28
I0
sg29
I0
sg30
(ijoueur
rang
p121
(dp122
g33
I4
sg34
S'x'
p123
sg36
g37
sbsg38
(dp124
g40
I0
sg41
I1
sg42
I0
sg43
I0
ssg44
(dp125
g40
I0
sg41
I0
sg42
I0
sg43
I0
ssg46
I0
sg47
I0
sg48
I0
sg49
I0
sg50
I0
sg51
I0
sg52
I0
sg53
(g54
S'N8'
p126
S'TL'
p127
g57
tp128
sg59
(ijoueur
rang
p129
(dp130
g33
I4
sg34
g123
sg36
g37
sbsg62
(dp131
g40
I0
sg41
I0
sg42
I0
sg43
I0
ssg64
(dp132
g40
I0
sg41
I1
sg42
I0
sg43
I0
ssg66
(dp133
g40
I0
sg41
I0
sg42
I0
sg43
I0
ssg68
(dp134
g40
I0
sg41
I0
sg42
I0
sg43
I0
ssg70
I0
sg71
I0
sg72
S'Equyx'
p135
sg74
I10
sg75
I0
sg76
I21
sg77
I130
sg78
g79
sg80
(dp136
g82
I12
sg83
I8
sg84
I6
sg85
I9
sg86
I7
sg87
I9
sg88
I5
sg89
I9
sg90
I12
sg91
I10
sg92
I7
sg93
I8
sg94
I6
sg95
I15
sg96
I5
ssg97
I4
sg98
I0
sg99
I0
sg100
I0
sg101
F10.36111111111111
sg102
I0
sg103
I0
sg104
I0
sg105
I0
sg106
g136
sg107
I0
sg108
g57
sg110
I0
sg111
I0
sg112
I0
sg113
I12
sg114
I1
sg115
I0
sg116
S'CHS'
p137
sbsS'RJL'
p138
(ijoueur
joueur
p139
(dp140
g27
I0
sg28
I7
sg29
I0
sg30
(ijoueur
rang
p141
(dp142
g33
I3
sg34
S'^^^'
p143
sg36
S'rare'
p144
sbsg38
(dp145
g40
I0
sg41
I0
sg42
I0
sg43
I0
ssg44
(dp146
g40
I0
sg41
I0
sg42
I0
sg43
I0
ssg46
I0
sg47
I0
sg48
I0
sg49
I0
sg50
I0
sg51
I0
sg52
I0
sg53
(g54
S'DO'
p147
S'CE'
p148
g57
tp149
sg59
(ijoueur
rang
p150
(dp151
g33
I3
sg34
S'^^^'
p152
sg36
g144
sbsg62
(dp153
g40
I0
sg41
I0
sg42
I1
sg43
I0
ssg64
(dp154
g40
I0
sg41
I0
sg42
I0
sg43
I0
ssg66
(dp155
g40
I0
sg41
I0
sg42
I0
sg43
I0
ssg68
(dp156
g40
I0
sg41
I0
sg42
I1
sg43
I0
ssg70
I0
sg71
I0
sg72
S'Habdal'
p157
sg74
I8
sg75
I0
sg76
I17
sg77
I25
sg78
g79
sg80
(dp158
g82
I8
sg83
I4
sg84
I6
sg85
I10
sg86
I10
sg87
I7
sg88
I11
sg89
I7
sg90
I6
sg91
I11
sg92
I10
sg93
I8
sg94
I6
sg95
I8
sg96
I5
ssg97
I2
sg98
I0
sg99
I0
sg100
I0
sg101
F9.545454545454545
sg102
I0
sg103
I7
sg104
I0
sg105
I0
sg106
g158
sg107
I0
sg108
g57
sg110
I0
sg111
I0
sg112
I0
sg113
I3
sg114
I0
sg115
I0
sg116
S'HE'
p159
sbsS'cap'
p160
g25
sS'B4'
p161
g25
sS'RJC'
p162
g139
sS'B1'
p163
(ijoueur
joueur
p164
(dp165
g27
I0
sg28
I0
sg29
I0
sg30
(ijoueur
rang
p166
(dp167
g33
I4
sg34
g35
sg36
g37
sbsg38
(dp168
g40
I0
sg41
I1
sg42
I0
sg43
I0
ssg44
(dp169
g40
I0
sg41
I0
sg42
I0
sg43
I0
ssg46
I0
sg47
I0
sg48
I0
sg49
I0
sg50
I0
sg51
I0
sg52
I0
sg53
(g54
S'C2'
p170
S'AR'
p171
S'AI'
p172
tp173
sg59
(ijoueur
rang
p174
(dp175
g33
I4
sg34
g35
sg36
g37
sbsg62
(dp176
g40
I0
sg41
I0
sg42
I0
sg43
I0
ssg64
(dp177
g40
I0
sg41
I1
sg42
I0
sg43
I0
ssg66
(dp178
g40
I0
sg41
I0
sg42
I0
sg43
I0
ssg68
(dp179
g40
I0
sg41
I0
sg42
I0
sg43
I0
ssg70
I0
sg71
I0
sg72
S'Aralt'
p180
sg74
I3
sg75
I0
sg76
I13
sg77
I95
sg78
g79
sg80
(dp181
g82
I9
sg83
I5
sg84
I6
sg85
I10
sg86
I9
sg87
I10
sg88
I7
sg89
I10
sg90
I7
sg91
I14
sg92
I9
sg93
I8
sg94
I8
sg95
I13
sg96
I4
ssg97
I4
sg98
I0
sg99
I0
sg100
I0
sg101
F10.551724137931034
sg102
I0
sg103
I0
sg104
I0
sg105
I0
sg106
g181
sg107
I0
sg108
S'ALT9'
p182
sg110
I0
sg111
I0
sg112
I0
sg113
I7
sg114
I12
sg115
I0
sg116
S'EMP'
p183
sbsS'B2'
p184
g164
sS'B3'
p185
g164
sS'SA_pcp2'
p186
(ijoueur
joueur
p187
(dp188
g27
I0
sg28
I0
sg29
I0
sg30
(ijoueur
rang
p189
(dp190
g33
I4
sg34
g35
sg36
g37
sbsg38
(dp191
g40
I0
sg41
I0
sg42
I0
sg43
I0
ssg44
(dp192
g40
I0
sg41
I0
sg42
I0
sg43
I0
ssg46
I0
sg47
I0
sg48
I0
sg49
I0
sg50
I0
sg51
I0
sg52
I0
sg53
(g54
S'DL'
p193
g57
g57
tp194
sg59
(ijoueur
rang
p195
(dp196
g33
I4
sg34
g35
sg36
g37
sbsg62
(dp197
g40
I0
sg41
I1
sg42
I0
sg43
I0
ssg64
(dp198
g40
I0
sg41
I0
sg42
I0
sg43
I0
ssg66
(dp199
g40
I0
sg41
I0
sg42
I0
sg43
I0
ssg68
(dp200
g40
I0
sg41
I1
sg42
I0
sg43
I0
ssg70
I0
sg71
I0
sg72
S'Muss'
p201
sg74
I4
sg75
I0
sg76
I11
sg77
I98
sg78
g79
sg80
(dp202
g82
I10
sg83
I10
sg84
I9
sg85
I8
sg86
I7
sg87
I6
sg88
I5
sg89
I9
sg90
I13
sg91
I10
sg92
I8
sg93
I8
sg94
I5
sg95
I7
sg96
I6
ssg97
I2
sg98
I0
sg99
I0
sg100
I0
sg101
F9.441176470588236
sg102
I0
sg103
I0
sg104
I0
sg105
I0
sg106
g202
sg107
I0
sg108
S'TA10'
p203
sg110
I0
sg111
I0
sg112
I0
sg113
I12
sg114
I2
sg115
I0
sg116
S'S'
p204
sbsS'SA_pcp1'
p205
(ijoueur
joueur
p206
(dp207
g27
I0
sg28
I0
sg29
I0
sg30
(ijoueur
rang
p208
(dp209
g33
I5
sg34
S'**'
p210
sg36
S'seigneur'
p211
sbsg38
(dp212
g40
I0
sg41
I0
sg42
I0
sg43
I0
ssg44
(dp213
g40
I0
sg41
I1
sg42
I0
sg43
I0
ssg46
I0
sg47
I0
sg48
I0
sg49
I0
sg50
I0
sg51
I0
sg52
I0
sg53
(g54
S'DL'
p214
S'TL'
p215
S'N8'
p216
tp217
sg59
(ijoueur
rang
p218
(dp219
g33
I5
sg34
S'**'
p220
sg36
g211
sbsg62
(dp221
g40
I0
sg41
I0
sg42
I0
sg43
I0
ssg64
(dp222
g40
I0
sg41
I0
sg42
I0
sg43
I0
ssg66
(dp223
g40
I0
sg41
I1
sg42
I0
sg43
I0
ssg68
(dp224
g40
I0
sg41
I0
sg42
I0
sg43
I0
ssg70
I0
sg71
I0
sg72
S'Zysken'
p225
sg74
I1
sg75
I0
sg76
I12
sg77
I210
sg78
g79
sg80
(dp226
g82
I14
sg83
I10
sg84
I7
sg85
I10
sg86
I4
sg87
I13
sg88
I4
sg89
I13
sg90
I13
sg91
I11
sg92
I8
sg93
I9
sg94
I3
sg95
I13
sg96
I5
ssg97
I2
sg98
I0
sg99
I0
sg100
I0
sg101
F11.323529411764707
sg102
I0
sg103
I0
sg104
I0
sg105
I0
sg106
g226
sg107
I0
sg108
g57
sg110
I0
sg111
I0
sg112
I0
sg113
I21
sg114
I5
sg115
I0
sg116
S'CHS'
p227
sbsS'drop3'
p228
g25
sS'SA_remp1'
p229
(ijoueur
joueur
p230
(dp231
g27
I0
sg28
I0
sg29
I0
sg30
(ijoueur
rang
p232
(dp233
g33
I5
sg34
S'**'
p234
sg36
g211
sbsg38
(dp235
g40
I0
sg41
I0
sg42
I0
sg43
I0
ssg44
(dp236
g40
I0
sg41
I0
sg42
I0
sg43
I0
ssg46
I0
sg47
I0
sg48
I0
sg49
I0
sg50
I0
sg51
I0
sg52
I0
sg53
(g54
S'TL'
p237
S'DL'
p238
g57
tp239
sg59
(ijoueur
rang
p240
(dp241
g33
I5
sg34
S'**'
p242
sg36
g211
sbsg62
(dp243
g40
I0
sg41
I1
sg42
I0
sg43
I0
ssg64
(dp244
g40
I0
sg41
I0
sg42
I0
sg43
I0
ssg66
(dp245
g40
I0
sg41
I0
sg42
I0
sg43
I0
ssg68
(dp246
g40
I0
sg41
I1
sg42
I0
sg43
I0
ssg70
I0
sg71
I0
sg72
S'Obolendt'
p247
sg74
I6
sg75
I0
sg76
I20
sg77
I140
sg78
g79
sg80
(dp248
g82
I13
sg83
I10
sg84
I9
sg85
I10
sg86
I7
sg87
I7
sg88
I5
sg89
I9
sg90
I11
sg91
I10
sg92
I10
sg93
I10
sg94
I6
sg95
I11
sg96
I6
ssg97
I4
sg98
I0
sg99
I0
sg100
I0
sg101
F10.473684210526315
sg102
I0
sg103
I0
sg104
I0
sg105
I0
sg106
g248
sg107
I0
sg108
S'MSL9'
p249
sg110
I0
sg111
I0
sg112
I0
sg113
I12
sg114
I6
sg115
I0
sg116
S'CV'
p250
sbsS'drop2'
p251
g139
sS'SA_remp2'
p252
(ijoueur
joueur
p253
(dp254
g27
I0
sg28
I0
sg29
I0
sg30
(ijoueur
rang
p255
(dp256
g33
I5
sg34
S'**'
p257
sg36
g211
sbsg38
(dp258
g40
I0
sg41
I0
sg42
I0
sg43
I0
ssg44
(dp259
g40
I0
sg41
I0
sg42
I0
sg43
I0
ssg46
I0
sg47
I0
sg48
I0
sg49
I0
sg50
I0
sg51
I0
sg52
I0
sg53
(g54
S'PI'
p260
S'N8'
p261
S'TA'
p262
tp263
sg59
(ijoueur
rang
p264
(dp265
g33
I5
sg34
S'**'
p266
sg36
g211
sbsg62
(dp267
g40
I0
sg41
I1
sg42
I0
sg43
I0
ssg64
(dp268
g40
I0
sg41
I0
sg42
I0
sg43
I0
ssg66
(dp269
g40
I0
sg41
I0
sg42
I0
sg43
I0
ssg68
(dp270
g40
I0
sg41
I1
sg42
I0
sg43
I0
ssg70
I0
sg71
I0
sg72
S'Stavehyr'
p271
sg74
I4
sg75
I0
sg76
I11
sg77
I210
sg78
g79
sg80
(dp272
g82
I11
sg83
I10
sg84
I7
sg85
I9
sg86
I5
sg87
I11
sg88
I2
sg89
I11
sg90
I10
sg91
I13
sg92
I6
sg93
I10
sg94
I3
sg95
I14
sg96
I8
ssg97
I2
sg98
I0
sg99
I0
sg100
I0
sg101
F10.62962962962963
sg102
I0
sg103
I0
sg104
I0
sg105
I0
sg106
g272
sg107
I0
sg108
g57
sg110
I0
sg111
I0
sg112
I0
sg113
I21
sg114
I7
sg115
I0
sg116
S'CHS'
p273
sbssS'totaux'
p274
(dp275
g19
I0
sg20
I0
sg21
I0
ssS'_compo_defaut_fatigue'
p276
Nsg80
(dp277
g4
I0
sg5
I0
sg6
I0
sg7
I0
sg8
I0
sg9
I0
sg10
I0
sg11
I0
sg12
I0
sg13
I0
sg14
I0
sg15
I0
sg16
I0
ssS'joueurs'
p278
(dp279
S'n12'
p280
(ijoueur
joueur
p281
(dp282
g27
I0
sg28
I0
sg29
I0
sg30
(ijoueur
rang
p283
(dp284
g33
I2
sg34
S'^^'
p285
sg36
S'special'
p286
sbsg38
(dp287
g40
I0
sg41
I0
sg42
I0
sg43
I0
ssg44
(dp288
g40
I0
sg41
I0
sg42
I0
sg43
I0
ssg46
I0
sg47
I0
sg48
I0
sg49
I0
sg50
I0
sg51
I0
sg52
I0
sg53
(g54
S'C1'
p289
S'DO'
p290
S'DM'
p291
tp292
sg59
(ijoueur
rang
p293
(dp294
g33
I2
sg34
S'^^'
p295
sg36
g286
sbsg62
(dp296
g40
I0
sg41
I0
sg42
I1
sg43
I0
ssg64
(dp297
g40
I0
sg41
I0
sg42
I0
sg43
I0
ssg66
(dp298
g40
I0
sg41
I0
sg42
I0
sg43
I0
ssg68
(dp299
g40
I0
sg41
I0
sg42
I1
sg43
I0
ssg70
I0
sg71
I0
sg72
S'Myhed'
p300
sg74
I9
sg75
I0
sg76
I19
sg77
I63
sg78
g79
sg80
(dp301
g82
I10
sg83
I6
sg84
I6
sg85
I9
sg86
I9
sg87
I8
sg88
I8
sg89
I8
sg90
I7
sg91
I11
sg92
I9
sg93
I7
sg94
I6
sg95
I10
sg96
I6
ssg97
I1
sg98
I0
sg99
I0
sg100
I0
sg101
F9.233333333333333
sg102
I0
sg103
I0
sg104
I0
sg105
I0
sg106
g301
sg107
I0
sg108
g57
sg110
I0
sg111
I0
sg112
I0
sg113
I7
sg114
I0
sg115
I0
sg116
S'CHS'
p302
sbsS'n13'
p303
g25
sS'n10'
p304
g139
sS'n11'
p305
(ijoueur
joueur
p306
(dp307
g27
I0
sg28
I0
sg29
I0
sg30
(ijoueur
rang
p308
(dp309
g33
I4
sg34
g35
sg36
g37
sbsg38
(dp310
g40
I0
sg41
I0
sg42
I0
sg43
I0
ssg44
(dp311
g40
I0
sg41
I0
sg42
I0
sg43
I0
ssg46
I0
sg47
I0
sg48
I0
sg49
I0
sg50
I0
sg51
I0
sg52
I0
sg53
(g54
S'C2'
p312
S'AI'
p313
S'AR'
p314
tp315
sg59
(ijoueur
rang
p316
(dp317
g33
I2
sg34
S'<<'
p318
sg36
g286
sbsg62
(dp319
g40
I0
sg41
I1
sg42
I0
sg43
I0
ssg64
(dp320
g40
I0
sg41
I0
sg42
I0
sg43
I0
ssg66
(dp321
g40
I0
sg41
I0
sg42
I0
sg43
I0
ssg68
(dp322
g40
I0
sg41
I1
sg42
I0
sg43
I0
ssg70
I0
sg71
I0
sg72
S'Braklyr'
p323
sg74
I11
sg75
I0
sg76
I20
sg77
I41
sg78
g79
sg80
(dp324
g82
I9
sg83
I6
sg84
I6
sg85
I9
sg86
I6
sg87
I9
sg88
I7
sg89
I9
sg90
I5
sg91
I10
sg92
I9
sg93
I7
sg94
I6
sg95
I11
sg96
I6
ssg97
I3
sg98
I0
sg99
I0
sg100
I0
sg101
F9.172413793103448
sg102
I0
sg103
I0
sg104
I0
sg105
I0
sg106
g324
sg107
I0
sg108
g57
sg110
I0
sg111
I0
sg112
I0
sg113
I4
sg114
I0
sg115
I0
sg116
S'CHS'
p325
sbsS'n16'
p326
(ijoueur
joueur
p327
(dp328
g27
I0
sg28
I0
sg29
I0
sg30
(ijoueur
rang
p329
(dp330
g33
I4
sg34
g35
sg36
g37
sbsg38
(dp331
g40
I0
sg41
I0
sg42
I0
sg43
I0
ssg44
(dp332
g40
I0
sg41
I0
sg42
I0
sg43
I0
ssg46
I0
sg47
I0
sg48
I0
sg49
I0
sg50
I0
sg51
I0
sg52
I0
sg53
(g54
S'TA'
p333
g57
g57
tp334
sg59
(ijoueur
rang
p335
(dp336
g33
I1
sg34
S'^'
p337
sg36
S'base'
p338
sbsg62
(dp339
g40
I0
sg41
I0
sg42
I1
sg43
I0
ssg64
(dp340
g40
I0
sg41
I0
sg42
I0
sg43
I0
ssg66
(dp341
g40
I0
sg41
I0
sg42
I0
sg43
I0
ssg68
(dp342
g40
I0
sg41
I0
sg42
I1
sg43
I0
ssg70
I0
sg71
I0
sg72
S'Wadwyr'
p343
sg74
I11
sg75
I0
sg76
I23
sg77
I21
sg78
g79
sg80
(dp344
g82
I8
sg83
I9
sg84
I6
sg85
I10
sg86
I3
sg87
I8
sg88
I2
sg89
I8
sg90
I5
sg91
I8
sg92
I7
sg93
I8
sg94
I0
sg95
I9
sg96
I9
ssg97
I2
sg98
I0
sg99
I0
sg100
I0
sg101
F8.620689655172415
sg102
I0
sg103
I0
sg104
I0
sg105
I0
sg106
g344
sg107
I0
sg108
g57
sg110
I0
sg111
I0
sg112
I0
sg113
I3
sg114
I0
sg115
I0
sg116
S'CHS'
p345
sbsS'n17'
p346
(ijoueur
joueur
p347
(dp348
g27
I0
sg28
I0
sg29
I0
sg30
(ijoueur
rang
p349
(dp350
g33
I5
sg34
S'**'
p351
sg36
g211
sbsg38
(dp352
g40
I0
sg41
I0
sg42
I0
sg43
I0
ssg44
(dp353
g40
I0
sg41
I0
sg42
I0
sg43
I0
ssg46
I0
sg47
I0
sg48
I0
sg49
I0
sg50
I0
sg51
I0
sg52
I0
sg53
(g54
S'PI'
p354
g57
g57
tp355
sg59
(ijoueur
rang
p356
(dp357
g33
I5
sg34
S'**'
p358
sg36
g211
sbsg62
(dp359
g40
I0
sg41
I0
sg42
I1
sg43
I0
ssg64
(dp360
g40
I0
sg41
I0
sg42
I0
sg43
I0
ssg66
(dp361
g40
I0
sg41
I0
sg42
I0
sg43
I0
ssg68
(dp362
g40
I0
sg41
I0
sg42
I1
sg43
I0
ssg70
I0
sg71
I0
sg72
S'Aked'
p363
sg74
I6
sg75
I0
sg76
I18
sg77
I105
sg78
g79
sg80
(dp364
g82
I9
sg83
I10
sg84
I10
sg85
I10
sg86
I5
sg87
I9
sg88
I7
sg89
I12
sg90
I9
sg91
I10
sg92
I7
sg93
I5
sg94
I6
sg95
I9
sg96
I7
ssg97
I2
sg98
I0
sg99
I0
sg100
I0
sg101
F8.882352941176471
sg102
I0
sg103
I0
sg104
I0
sg105
I0
sg106
g364
sg107
I0
sg108
S'ED9'
p365
sg110
I0
sg111
I0
sg112
I0
sg113
I9
sg114
I3
sg115
I0
sg116
g204
sbsS'n14'
p366
(ijoueur
joueur
p367
(dp368
g27
I0
sg28
I0
sg29
I0
sg30
(ijoueur
rang
p369
(dp370
g33
I4
sg34
g35
sg36
g37
sbsg38
(dp371
g40
I0
sg41
I0
sg42
I0
sg43
I0
ssg44
(dp372
g40
I0
sg41
I0
sg42
I0
sg43
I0
ssg46
I0
sg47
I0
sg48
I0
sg49
I0
sg50
I0
sg51
I0
sg52
I0
sg53
(g54
S'AI'
p373
g57
g57
tp374
sg59
(ijoueur
rang
p375
(dp376
g33
I4
sg34
g35
sg36
g37
sbsg62
(dp377
g40
I0
sg41
I1
sg42
I0
sg43
I0
ssg64
(dp378
g40
I0
sg41
I0
sg42
I0
sg43
I0
ssg66
(dp379
g40
I0
sg41
I0
sg42
I0
sg43
I0
ssg68
(dp380
g40
I0
sg41
I1
sg42
I0
sg43
I0
ssg70
I0
sg71
I0
sg72
S'Qapry'
p381
sg74
I8
sg75
I0
sg76
I19
sg77
I80
sg78
g79
sg80
(dp382
g82
I10
sg83
I5
sg84
I10
sg85
I8
sg86
I10
sg87
I7
sg88
I8
sg89
I10
sg90
I6
sg91
I8
sg92
I9
sg93
I8
sg94
I5
sg95
I8
sg96
I5
ssg97
I3
sg98
I0
sg99
I0
sg100
I0
sg101
F9.0
sg102
I0
sg103
I0
sg104
I0
sg105
I0
sg106
g382
sg107
I0
sg108
g57
sg110
I0
sg111
I0
sg112
I0
sg113
I8
sg114
I0
sg115
I0
sg116
S'CHS'
p383
sbsS'n15'
p384
g164
sS'n18'
p385
(ijoueur
joueur
p386
(dp387
g27
I0
sg28
I0
sg29
I0
sg30
(ijoueur
rang
p388
(dp389
g33
I4
sg34
g35
sg36
g37
sbsg38
(dp390
g40
I0
sg41
I0
sg42
I0
sg43
I0
ssg44
(dp391
g40
I0
sg41
I0
sg42
I0
sg43
I0
ssg46
I0
sg47
I0
sg48
I0
sg49
I0
sg50
I0
sg51
I0
sg52
I0
sg53
(g54
S'TL'
p392
S'DL'
p393
g57
tp394
sg59
(ijoueur
rang
p395
(dp396
g33
I4
sg34
g35
sg36
g37
sbsg62
(dp397
g40
I0
sg41
I0
sg42
I1
sg43
I0
ssg64
(dp398
g40
I0
sg41
I0
sg42
I0
sg43
I0
ssg66
(dp399
g40
I0
sg41
I0
sg42
I0
sg43
I0
ssg68
(dp400
g40
I0
sg41
I0
sg42
I1
sg43
I0
ssg70
I0
sg71
I0
sg72
S'Xhyrev'
p401
sg74
I8
sg75
I0
sg76
I19
sg77
I60
sg78
g79
sg80
(dp402
g82
I5
sg83
I10
sg84
I9
sg85
I11
sg86
I4
sg87
I7
sg88
I3
sg89
I9
sg90
I5
sg91
I6
sg92
I8
sg93
I8
sg94
I3
sg95
I9
sg96
I2
ssg97
I2
sg98
I0
sg99
I0
sg100
I0
sg101
F8.483870967741936
sg102
I0
sg103
I0
sg104
I0
sg105
I0
sg106
g402
sg107
I0
sg108
g57
sg110
I0
sg111
I0
sg112
I0
sg113
I6
sg114
I1
sg115
I0
sg116
S'CV'
p403
sbsS'n19'
p404
(ijoueur
joueur
p405
(dp406
g27
I0
sg28
I0
sg29
I0
sg30
(ijoueur
rang
p407
(dp408
g33
I4
sg34
g123
sg36
g37
sbsg38
(dp409
g40
I0
sg41
I0
sg42
I0
sg43
I0
ssg44
(dp410
g40
I0
sg41
I0
sg42
I0
sg43
I0
ssg46
I0
sg47
I0
sg48
I0
sg49
I0
sg50
I0
sg51
I0
sg52
I0
sg53
(g54
S'PI'
p411
S'TL'
p412
g57
tp413
sg59
(ijoueur
rang
p414
(dp415
g33
I2
sg34
S'<<'
p416
sg36
g286
sbsg62
(dp417
g40
I0
sg41
I1
sg42
I0
sg43
I0
ssg64
(dp418
g40
I0
sg41
I0
sg42
I0
sg43
I0
ssg66
(dp419
g40
I0
sg41
I0
sg42
I0
sg43
I0
ssg68
(dp420
g40
I0
sg41
I1
sg42
I0
sg43
I0
ssg70
I0
sg71
I0
sg72
S'Kareops'
p421
sg74
I11
sg75
I0
sg76
I20
sg77
I51
sg78
g79
sg80
(dp422
g82
I11
sg83
I7
sg84
I6
sg85
I10
sg86
I3
sg87
I9
sg88
I4
sg89
I9
sg90
I6
sg91
I8
sg92
I7
sg93
I10
sg94
I0
sg95
I10
sg96
I8
ssg97
I3
sg98
I0
sg99
I0
sg100
I0
sg101
F9.185185185185185
sg102
I0
sg103
I0
sg104
I0
sg105
I0
sg106
g422
sg107
I0
sg108
g57
sg110
I0
sg111
I0
sg112
I0
sg113
I4
sg114
I0
sg115
I0
sg116
S'CHS'
p423
sbsS'n22'
p424
(ijoueur
joueur
p425
(dp426
g27
I0
sg28
I1
sg29
I0
sg30
(ijoueur
rang
p427
(dp428
g33
I5
sg34
S'xx'
p429
sg36
g211
sbsg38
(dp430
g40
I0
sg41
I0
sg42
I1
sg43
I0
ssg44
(dp431
g40
I0
sg41
I0
sg42
I0
sg43
I0
ssg46
I0
sg47
I0
sg48
I1
sg49
I3
sg50
I0
sg51
I0
sg52
I0
sg53
(g54
S'AI'
p432
S'AR'
p433
S'CE'
p434
tp435
sg59
(ijoueur
rang
p436
(dp437
g33
I5
sg34
S'xx'
p438
sg36
g211
sbsg62
(dp439
g40
I0
sg41
I0
sg42
I0
sg43
I0
ssg64
(dp440
g40
I0
sg41
I0
sg42
I1
sg43
I0
ssg66
(dp441
g40
I0
sg41
I0
sg42
I0
sg43
I0
ssg68
(dp442
g40
I0
sg41
I0
sg42
I0
sg43
I0
ssg70
I3
sg71
I0
sg72
S'Meblann'
p443
sg74
I-1
sg75
I2
sg76
I9
sg77
I50
sg78
g79
sg80
(dp444
g82
I10
sg83
I4
sg84
I7
sg85
I10
sg86
I9
sg87
I8
sg88
I6
sg89
I8
sg90
I4
sg91
I7
sg92
I10
sg93
I7
sg94
I8
sg95
I8
sg96
I4
ssg97
I2
sg98
I0
sg99
I0
sg100
I0
sg101
F8.806451612903226
sg102
I0
sg103
I1
sg104
I0
sg105
I0
sg106
g444
sg107
I0
sg108
g57
sg110
I0
sg111
I0
sg112
I0
sg113
I8
sg114
I1
sg115
I0
sg116
S'EMP'
p445
sbsS'n21'
p446
(ijoueur
joueur
p447
(dp448
g27
I0
sg28
I0
sg29
I0
sg30
(ijoueur
rang
p449
(dp450
g33
I4
sg34
g35
sg36
g37
sbsg38
(dp451
g40
I0
sg41
I0
sg42
I0
sg43
I0
ssg44
(dp452
g40
I0
sg41
I0
sg42
I0
sg43
I0
ssg46
I0
sg47
I0
sg48
I0
sg49
I0
sg50
I0
sg51
I0
sg52
I0
sg53
(g54
S'C1'
p453
S'DO'
p454
g57
tp455
sg59
(ijoueur
rang
p456
(dp457
g33
I1
sg34
g337
sg36
g338
sbsg62
(dp458
g40
I0
sg41
I0
sg42
I0
sg43
I0
ssg64
(dp459
g40
I0
sg41
I0
sg42
I0
sg43
I0
ssg66
(dp460
g40
I0
sg41
I0
sg42
I0
sg43
I0
ssg68
(dp461
g40
I0
sg41
I0
sg42
I0
sg43
I0
ssg70
I0
sg71
I0
sg72
S'Engellart'
p462
sg74
I10
sg75
I0
sg76
I20
sg77
I17
sg78
g79
sg80
(dp463
g82
I9
sg83
I4
sg84
I7
sg85
I10
sg86
I9
sg87
I6
sg88
I10
sg89
I7
sg90
I5
sg91
I8
sg92
I9
sg93
I6
sg94
I7
sg95
I8
sg96
I5
ssg97
I0
sg98
I0
sg99
I0
sg100
I0
sg101
F8.433333333333334
sg102
I0
sg103
I0
sg104
I0
sg105
I0
sg106
g463
sg107
I0
sg108
g57
sg110
I0
sg111
I0
sg112
I0
sg113
I1
sg114
I0
sg115
I0
sg116
S'EMP'
p464
sbsS'n20'
p465
(ijoueur
joueur
p466
(dp467
g27
I0
sg28
I0
sg29
I0
sg30
(ijoueur
rang
p468
(dp469
g33
I2
sg34
S'<<'
p470
sg36
g286
sbsg38
(dp471
g40
I0
sg41
I0
sg42
I0
sg43
I0
ssg44
(dp472
g40
I0
sg41
I0
sg42
I0
sg43
I0
ssg46
I0
sg47
I0
sg48
I0
sg49
I1
sg50
I0
sg51
I0
sg52
I0
sg53
(g54
S'DO'
p473
S'CE'
p474
S'AR'
p475
tp476
sg59
(ijoueur
rang
p477
(dp478
g33
I2
sg34
S'<<'
p479
sg36
g286
sbsg62
(dp480
g40
I0
sg41
I1
sg42
I0
sg43
I0
ssg64
(dp481
g40
I0
sg41
I0
sg42
I0
sg43
I0
ssg66
(dp482
g40
I0
sg41
I0
sg42
I0
sg43
I0
ssg68
(dp483
g40
I0
sg41
I1
sg42
I0
sg43
I0
ssg70
I1
sg71
I1
sg72
S'Dyrthied'
p484
sg74
I11
sg75
I0
sg76
I22
sg77
I25
sg78
g79
sg80
(dp485
g82
I8
sg83
I5
sg84
I6
sg85
I9
sg86
I10
sg87
I7
sg88
I8
sg89
I7
sg90
I7
sg91
I11
sg92
I10
sg93
I7
sg94
I8
sg95
I11
sg96
I6
ssg97
I1
sg98
I0
sg99
I0
sg100
I0
sg101
F9.303030303030303
sg102
I0
sg103
I0
sg104
I0
sg105
I0
sg106
g485
sg107
I0
sg108
g57
sg110
I0
sg111
I0
sg112
I0
sg113
I5
sg114
I0
sg115
I0
sg116
S'CHS'
p486
sbsS'n8'
p487
g206
sS'n9'
p488
(ijoueur
joueur
p489
(dp490
g27
I0
sg28
I0
sg29
I0
sg30
(ijoueur
rang
p491
(dp492
g33
I4
sg34
g35
sg36
g37
sbsg38
(dp493
g40
I0
sg41
I0
sg42
I0
sg43
I0
ssg44
(dp494
g40
I0
sg41
I0
sg42
I0
sg43
I0
ssg46
I0
sg47
I0
sg48
I0
sg49
I0
sg50
I0
sg51
I0
sg52
I0
sg53
(g54
S'DM'
p495
S'DO'
p496
g57
tp497
sg59
(ijoueur
rang
p498
(dp499
g33
I4
sg34
g35
sg36
g37
sbsg62
(dp500
g40
I0
sg41
I1
sg42
I0
sg43
I0
ssg64
(dp501
g40
I0
sg41
I0
sg42
I0
sg43
I0
ssg66
(dp502
g40
I0
sg41
I0
sg42
I0
sg43
I0
ssg68
(dp503
g40
I0
sg41
I1
sg42
I0
sg43
I0
ssg70
I0
sg71
I0
sg72
S'Joherd'
p504
sg74
I2
sg75
I0
sg76
I12
sg77
I80
sg78
g79
sg80
(dp505
g82
I11
sg83
I3
sg84
I9
sg85
I9
sg86
I9
sg87
I8
sg88
I8
sg89
I10
sg90
I4
sg91
I13
sg92
I7
sg93
I7
sg94
I8
sg95
I10
sg96
I4
ssg97
I4
sg98
I0
sg99
I0
sg100
I0
sg101
F9.862068965517242
sg102
I0
sg103
I0
sg104
I0
sg105
I0
sg106
g505
sg107
I0
sg108
g57
sg110
I0
sg111
I0
sg112
I0
sg113
I8
sg114
I2
sg115
I0
sg116
S'CHS'
p506
sbsS'n1'
p507
g253
sS'n2'
p508
(ijoueur
joueur
p509
(dp510
g27
I0
sg28
I0
sg29
I0
sg30
(ijoueur
rang
p511
(dp512
g33
I4
sg34
g35
sg36
g37
sbsg38
(dp513
g40
I0
sg41
I0
sg42
I0
sg43
I0
ssg44
(dp514
g40
I0
sg41
I0
sg42
I0
sg43
I0
ssg46
I0
sg47
I0
sg48
I0
sg49
I0
sg50
I0
sg51
I0
sg52
I0
sg53
(g54
S'TA'
p515
S'PI'
p516
g57
tp517
sg59
(ijoueur
rang
p518
(dp519
g33
I4
sg34
g35
sg36
g37
sbsg62
(dp520
g40
I0
sg41
I1
sg42
I0
sg43
I0
ssg64
(dp521
g40
I0
sg41
I0
sg42
I0
sg43
I0
ssg66
(dp522
g40
I0
sg41
I0
sg42
I0
sg43
I0
ssg68
(dp523
g40
I0
sg41
I1
sg42
I0
sg43
I0
ssg70
I0
sg71
I0
sg72
S'Cloendal'
p524
sg74
I2
sg75
I0
sg76
I14
sg77
I80
sg78
g79
sg80
(dp525
g82
I10
sg83
I11
sg84
I7
sg85
I10
sg86
I5
sg87
I10
sg88
I2
sg89
I10
sg90
I6
sg91
I8
sg92
I7
sg93
I11
sg94
I3
sg95
I11
sg96
I11
ssg97
I2
sg98
I0
sg99
I0
sg100
I0
sg101
F10.413793103448276
sg102
I0
sg103
I0
sg104
I0
sg105
I0
sg106
g525
sg107
I0
sg108
g57
sg110
I0
sg111
I0
sg112
I0
sg113
I8
sg114
I0
sg115
I0
sg116
S'CHS'
p526
sbsS'n3'
p527
(ijoueur
joueur
p528
(dp529
g27
I0
sg28
I0
sg29
I0
sg30
(ijoueur
rang
p530
(dp531
g33
I1
sg34
S'<'
p532
sg36
g338
sbsg38
(dp533
g40
I0
sg41
I0
sg42
I0
sg43
I0
ssg44
(dp534
g40
I0
sg41
I0
sg42
I0
sg43
I0
ssg46
I0
sg47
I0
sg48
I0
sg49
I0
sg50
I0
sg51
I0
sg52
I0
sg53
(g54
S'DL'
p535
S'PI'
p536
g57
tp537
sg59
(ijoueur
rang
p538
(dp539
g33
I1
sg34
g532
sg36
g338
sbsg62
(dp540
g40
I0
sg41
I1
sg42
I0
sg43
I0
ssg64
(dp541
g40
I0
sg41
I0
sg42
I0
sg43
I0
ssg66
(dp542
g40
I0
sg41
I0
sg42
I0
sg43
I0
ssg68
(dp543
g40
I0
sg41
I1
sg42
I0
sg43
I0
ssg70
I0
sg71
I0
sg72
S'Haradt'
p544
sg74
I3
sg75
I0
sg76
I16
sg77
I20
sg78
g79
sg80
(dp545
g82
I9
sg83
I13
sg84
I8
sg85
I9
sg86
I3
sg87
I9
sg88
I3
sg89
I10
sg90
I9
sg91
I6
sg92
I6
sg93
I11
sg94
I2
sg95
I7
sg96
I4
ssg97
I2
sg98
I0
sg99
I0
sg100
I0
sg101
F9.74074074074074
sg102
I0
sg103
I0
sg104
I0
sg105
I0
sg106
g545
sg107
I0
sg108
S'DKF11'
p546
sg110
I0
sg111
I0
sg112
I0
sg113
I2
sg114
I0
sg115
I0
sg116
S'CV'
p547
sbsS'n4'
p548
g187
sS'n5'
p549
(ijoueur
joueur
p550
(dp551
g27
I0
sg28
I0
sg29
I0
sg30
(ijoueur
rang
p552
(dp553
g33
I1
sg34
S'>'
p554
sg36
g338
sbsg38
(dp555
g40
I0
sg41
I0
sg42
I1
sg43
I0
ssg44
(dp556
g40
I0
sg41
I0
sg42
I0
sg43
I0
ssg46
I0
sg47
I0
sg48
I0
sg49
I0
sg50
I0
sg51
I0
sg52
I0
sg53
(g54
S'TL'
p557
S'DL'
p558
S'TA'
p559
tp560
sg59
(ijoueur
rang
p561
(dp562
g33
I1
sg34
g554
sg36
g338
sbsg62
(dp563
g40
I0
sg41
I0
sg42
I0
sg43
I0
ssg64
(dp564
g40
I0
sg41
I0
sg42
I1
sg43
I0
ssg66
(dp565
g40
I0
sg41
I0
sg42
I0
sg43
I0
ssg68
(dp566
g40
I0
sg41
I0
sg42
I0
sg43
I0
ssg70
I0
sg71
I0
sg72
S'Paad'
p567
sg74
I2
sg75
I0
sg76
I15
sg77
I50
sg78
g79
sg80
(dp568
g82
I9
sg83
I11
sg84
I6
sg85
I8
sg86
I4
sg87
I10
sg88
I4
sg89
I10
sg90
I9
sg91
I7
sg92
I8
sg93
I9
sg94
I4
sg95
I7
sg96
I6
ssg97
I2
sg98
I0
sg99
I0
sg100
I0
sg101
F8.68421052631579
sg102
I0
sg103
I0
sg104
I0
sg105
I0
sg106
g568
sg107
I0
sg108
S'TO10'
p569
sg110
I0
sg111
I0
sg112
I0
sg113
I5
sg114
I3
sg115
I0
sg116
S'HL'
p570
sbsS'n6'
p571
g119
sS'n7'
p572
g230
ssS'remplacements'
p573
(dp574
g326
S'n0'
p575
sg346
g575
sg385
g575
sg404
g575
sg424
g575
sg446
g575
sg465
g575
ssb.