(iclub
compo
p0
(dp1
S'caracs_old'
p2
(dp3
S'A'
p4
F186.5
sS'ME'
p5
F97.5
sS'E'
p6
I204
sS'OplusAV'
p7
F42.5
sS'TO_off'
p8
F112.5
sS'OplusAR'
p9
F99.0
sS'M'
p10
F54.5
sS'JP'
p11
F111.0
sS'OmoinsAR'
p12
F62.0
sS'PA'
p13
F104.5
sS'TO_def'
p14
F105.5
sS'OmoinsAV'
p15
F55.5
sS'R'
p16
F161.0
ssS'totaux_old'
p17
(dp18
S'T2'
p19
F201.0
sS'T3'
p20
F102.0
sS'T1'
p21
F183.75
ssS'roles'
p22
(dp23
S'drop1'
p24
(ijoueur
joueur
p25
(dp26
S'rouges_total'
p27
I0
sS'drops_total'
p28
I0
sS'blessure'
p29
I0
sS'RG_max'
p30
(ijoueur
rang
p31
(dp32
S'type_nb'
p33
I4
sS'rang'
p34
S'*'
p35
sS'type'
p36
S'heros'
p37
sbsS'MJ2_total'
p38
(dp39
S'SR'
p40
I0
sS'CT'
p41
I0
sS'CR'
p42
I1
sS'ST'
p43
I0
ssS'MJ3_total'
p44
(dp45
g40
I0
sg41
I0
sg42
I0
sg43
I0
ssS'drop_rates_total'
p46
I0
sS'drop_rates_saison'
p47
I0
sS'transformations'
p48
I0
sS'penalites'
p49
I0
sS'essais_saison'
p50
I0
sS'penalite_ratees_saison'
p51
I0
sS'transformations_saison'
p52
I0
sS'postes'
p53
(S'dummy'
p54
S'AR'
p55
S'CE'
p56
S'DO'
p57
tp58
sS'RG'
p59
(ijoueur
rang
p60
(dp61
g33
I4
sg34
g35
sg36
g37
sbsS'MJ1'
p62
(dp63
g40
I0
sg41
I0
sg42
I0
sg43
I0
ssS'MJ2'
p64
(dp65
g40
I0
sg41
I0
sg42
I1
sg43
I0
ssS'MJ3'
p66
(dp67
g40
I0
sg41
I0
sg42
I0
sg43
I0
ssS'MJ1_total'
p68
(dp69
g40
I0
sg41
I0
sg42
I0
sg43
I0
ssS'penalites_total'
p70
I0
sS'penalites_saison'
p71
I0
sS'nom'
p72
S'Fozog'
p73
sS'C'
p74
I8
sS'transformations_total'
p75
I0
sS'D'
p76
I23
sS'VAL'
p77
I19
sS'club'
p78
S'TA'
p79
sS'caracs'
p80
(dp81
S'A'
p82
I13
sS'ME'
p83
I4
sS'RP2'
p84
I7
sS'E'
p85
I10
sS'P'
p86
I9
sS'RP1'
p87
I8
sS'JP'
p88
I11
sS'RP_tot'
p89
I8
sS'TO'
p90
I2
sS'PA'
p91
I9
sS'M'
p92
I9
sS'R'
p93
I9
sS'TB'
p94
I6
sS'PL'
p95
I10
sS'TA'
p96
I5
ssS'fatigue'
p97
I0
sS'drop_ratees_total'
p98
I0
sS'blessures_total'
p99
I0
sS'XP'
p100
I0
sS'EV'
p101
F10.0
sS'penalite_ratees_total'
p102
I0
sS'drops'
p103
I0
sS'blessures_saison'
p104
I0
sS'jaunes_total'
p105
I0
sS'caracs_sans_fatigue'
p106
g81
sS'rouges_saison'
p107
I0
sS'anciens_clubs'
p108
S''
p109
sS'transformation_ratees_total'
p110
I0
sS'drops_saison'
p111
I0
sS'transformation_ratees_saison'
p112
I0
sS'MS'
p113
I2
sS'essais_total'
p114
I2
sS'jaunes_saison'
p115
I0
sS'ARM'
p116
S'O'
p117
sbsS'SA_scd'
p118
(ijoueur
joueur
p119
(dp120
g27
I0
sg28
I0
sg29
I0
sg30
(ijoueur
rang
p121
(dp122
g33
I3
sg34
S'^^^'
p123
sg36
S'rare'
p124
sbsg38
(dp125
g40
I0
sg41
I0
sg42
I0
sg43
I0
ssg44
(dp126
g40
I0
sg41
I0
sg42
I0
sg43
I0
ssg46
I0
sg47
I0
sg48
I0
sg49
I0
sg50
I0
sg51
I0
sg52
I0
sg53
(g54
S'TL'
p127
S'DL'
p128
S'PI'
p129
tp130
sg59
(ijoueur
rang
p131
(dp132
g33
I3
sg34
S'^^^'
p133
sg36
g124
sbsg62
(dp134
g40
I0
sg41
I0
sg42
I1
sg43
I0
ssg64
(dp135
g40
I0
sg41
I0
sg42
I0
sg43
I0
ssg66
(dp136
g40
I0
sg41
I0
sg42
I0
sg43
I0
ssg68
(dp137
g40
I0
sg41
I0
sg42
I1
sg43
I0
ssg70
I0
sg71
I0
sg72
S'Beragueux'
p138
sg74
I4
sg75
I0
sg76
I12
sg77
I38
sg78
g79
sg80
(dp139
g82
I11
sg83
I9
sg84
I9
sg85
I10
sg86
I5
sg87
I6
sg88
I4
sg89
I9
sg90
I10
sg91
I10
sg92
I8
sg93
I11
sg94
I5
sg95
I12
sg96
I4
ssg97
I1
sg98
I0
sg99
I0
sg100
I0
sg101
F10.451612903225806
sg102
I0
sg103
I0
sg104
I0
sg105
I0
sg106
g139
sg107
I0
sg108
g109
sg110
I0
sg111
I0
sg112
I0
sg113
I4
sg114
I1
sg115
I0
sg116
S'B'
p140
sbsS'RJL'
p141
(ijoueur
joueur
p142
(dp143
g27
I0
sg28
I0
sg29
I0
sg30
(ijoueur
rang
p144
(dp145
g33
I4
sg34
g35
sg36
g37
sbsg38
(dp146
g40
I0
sg41
I0
sg42
I0
sg43
I0
ssg44
(dp147
g40
I0
sg41
I0
sg42
I0
sg43
I0
ssg46
I0
sg47
I0
sg48
I9
sg49
I5
sg50
I0
sg51
I0
sg52
I0
sg53
(g54
S'AR'
p148
S'CE'
p149
S'AI'
p150
tp151
sg59
(ijoueur
rang
p152
(dp153
g33
I4
sg34
g35
sg36
g37
sbsg62
(dp154
g40
I0
sg41
I1
sg42
I0
sg43
I0
ssg64
(dp155
g40
I0
sg41
I0
sg42
I0
sg43
I0
ssg66
(dp156
g40
I0
sg41
I0
sg42
I0
sg43
I0
ssg68
(dp157
g40
I0
sg41
I1
sg42
I0
sg43
I0
ssg70
I5
sg71
I0
sg72
S'Raefol'
p158
sg74
I3
sg75
I9
sg76
I16
sg77
I135
sg78
g79
sg80
(dp159
g82
I12
sg83
I5
sg84
I10
sg85
I11
sg86
I13
sg87
I9
sg88
I9
sg89
I12
sg90
I8
sg91
I11
sg92
I13
sg93
I5
sg94
I11
sg95
I11
sg96
I7
ssg97
I5
sg98
I0
sg99
I0
sg100
I0
sg101
F11.393939393939394
sg102
I0
sg103
I0
sg104
I0
sg105
I0
sg106
g159
sg107
I0
sg108
S'AL9'
p160
sg110
I0
sg111
I0
sg112
I0
sg113
I12
sg114
I6
sg115
I0
sg116
S'ES'
p161
sbsS'cap'
p162
(ijoueur
joueur
p163
(dp164
g27
I0
sg28
I0
sg29
I0
sg30
(ijoueur
rang
p165
(dp166
g33
I4
sg34
S'x'
p167
sg36
g37
sbsg38
(dp168
g40
I0
sg41
I0
sg42
I0
sg43
I0
ssg44
(dp169
g40
I0
sg41
I0
sg42
I0
sg43
I0
ssg46
I0
sg47
I0
sg48
I0
sg49
I0
sg50
I0
sg51
I0
sg52
I0
sg53
(g54
S'DL'
p170
g109
g109
tp171
sg59
(ijoueur
rang
p172
(dp173
g33
I4
sg34
g167
sg36
g37
sbsg62
(dp174
g40
I0
sg41
I1
sg42
I0
sg43
I0
ssg64
(dp175
g40
I0
sg41
I0
sg42
I0
sg43
I0
ssg66
(dp176
g40
I0
sg41
I0
sg42
I0
sg43
I0
ssg68
(dp177
g40
I0
sg41
I1
sg42
I0
sg43
I0
ssg70
I0
sg71
I0
sg72
S'Melian'
p178
sg74
I6
sg75
I0
sg76
I17
sg77
I265
sg78
g79
sg80
(dp179
g82
I15
sg83
I11
sg84
I8
sg85
I13
sg86
I5
sg87
I8
sg88
I5
sg89
I9
sg90
I14
sg91
I11
sg92
I8
sg93
I8
sg94
I4
sg95
I13
sg96
I4
ssg97
I2
sg98
I0
sg99
I0
sg100
I0
sg101
F11.382352941176471
sg102
I0
sg103
I0
sg104
I0
sg105
I0
sg106
g179
sg107
I0
sg108
g109
sg110
I0
sg111
I0
sg112
I0
sg113
I18
sg114
I7
sg115
I0
sg116
S'ES'
p180
sbsS'B4'
p181
g142
sS'RJC'
p182
(ijoueur
joueur
p183
(dp184
g27
I0
sg28
I19
sg29
I0
sg30
(ijoueur
rang
p185
(dp186
g33
I5
sg34
S'**'
p187
sg36
S'seigneur'
p188
sbsg38
(dp189
g40
I0
sg41
I0
sg42
I0
sg43
I0
ssg44
(dp190
g40
I0
sg41
I0
sg42
I0
sg43
I0
ssg46
I0
sg47
I0
sg48
I3
sg49
I3
sg50
I0
sg51
I0
sg52
I0
sg53
(g54
S'DO'
p191
S'CE'
p192
g109
tp193
sg59
(ijoueur
rang
p194
(dp195
g33
I5
sg34
S'**'
p196
sg36
g188
sbsg62
(dp197
g40
I0
sg41
I0
sg42
I1
sg43
I0
ssg64
(dp198
g40
I0
sg41
I0
sg42
I0
sg43
I0
ssg66
(dp199
g40
I0
sg41
I0
sg42
I0
sg43
I0
ssg68
(dp200
g40
I0
sg41
I0
sg42
I1
sg43
I0
ssg70
I3
sg71
I0
sg72
S'Rafael'
p201
sg74
I6
sg75
I3
sg76
I13
sg77
I112
sg78
g79
sg80
(dp202
g82
I9
sg83
I5
sg84
I11
sg85
I12
sg86
I10
sg87
I8
sg88
I13
sg89
I12
sg90
I6
sg91
I10
sg92
I8
sg93
I8
sg94
I9
sg95
I9
sg96
I4
ssg97
I1
sg98
I0
sg99
I0
sg100
I0
sg101
F10.424242424242424
sg102
I0
sg103
I19
sg104
I0
sg105
I0
sg106
g202
sg107
I0
sg108
g109
sg110
I0
sg111
I0
sg112
I0
sg113
I15
sg114
I20
sg115
I0
sg116
S'EMP'
p203
sbsS'B1'
p204
g142
sS'B2'
p205
g142
sS'B3'
p206
g142
sS'SA_pcp2'
p207
(ijoueur
joueur
p208
(dp209
g27
I0
sg28
I0
sg29
I0
sg30
(ijoueur
rang
p210
(dp211
g33
I5
sg34
S'**'
p212
sg36
g188
sbsg38
(dp213
g40
I0
sg41
I0
sg42
I0
sg43
I0
ssg44
(dp214
g40
I0
sg41
I0
sg42
I0
sg43
I0
ssg46
I0
sg47
I0
sg48
I0
sg49
I0
sg50
I0
sg51
I0
sg52
I0
sg53
(g54
S'DL'
p215
S'TL'
p216
g109
tp217
sg59
(ijoueur
rang
p218
(dp219
g33
I5
sg34
S'**'
p220
sg36
g188
sbsg62
(dp221
g40
I0
sg41
I0
sg42
I1
sg43
I0
ssg64
(dp222
g40
I0
sg41
I0
sg42
I0
sg43
I0
ssg66
(dp223
g40
I0
sg41
I0
sg42
I0
sg43
I0
ssg68
(dp224
g40
I0
sg41
I0
sg42
I1
sg43
I0
ssg70
I0
sg71
I0
sg72
S'Holothen'
p225
sg74
I4
sg75
I0
sg76
I16
sg77
I130
sg78
g79
sg80
(dp226
g82
I12
sg83
I10
sg84
I7
sg85
I11
sg86
I8
sg87
I7
sg88
I7
sg89
I7
sg90
I13
sg91
I10
sg92
I7
sg93
I8
sg94
I7
sg95
I11
sg96
I7
ssg97
I2
sg98
I0
sg99
I0
sg100
I0
sg101
F10.117647058823529
sg102
I0
sg103
I0
sg104
I0
sg105
I0
sg106
g226
sg107
I0
sg108
g109
sg110
I0
sg111
I0
sg112
I0
sg113
I13
sg114
I2
sg115
I0
sg116
S'EN'
p227
sbsS'SA_pcp1'
p228
g163
sS'drop3'
p229
(ijoueur
joueur
p230
(dp231
g27
I0
sg28
I15
sg29
I0
sg30
(ijoueur
rang
p232
(dp233
g33
I5
sg34
S'**'
p234
sg36
g188
sbsg38
(dp235
g40
I0
sg41
I0
sg42
I0
sg43
I0
ssg44
(dp236
g40
I0
sg41
I1
sg42
I0
sg43
I0
ssg46
I0
sg47
I0
sg48
I121
sg49
I238
sg50
I0
sg51
I0
sg52
I0
sg53
(g54
S'C1'
p237
S'AR'
p238
S'DM'
p239
tp240
sg59
(ijoueur
rang
p241
(dp242
g33
I5
sg34
S'**'
p243
sg36
g188
sbsg62
(dp244
g40
I0
sg41
I0
sg42
I0
sg43
I0
ssg64
(dp245
g40
I0
sg41
I0
sg42
I0
sg43
I0
ssg66
(dp246
g40
I0
sg41
I1
sg42
I0
sg43
I0
ssg68
(dp247
g40
I0
sg41
I0
sg42
I0
sg43
I0
ssg70
I238
sg71
I0
sg72
S'Yodoeth'
p248
sg74
I4
sg75
I121
sg76
I17
sg77
I130
sg78
g79
sg80
(dp249
g82
I15
sg83
I7
sg84
I12
sg85
I13
sg86
I12
sg87
I7
sg88
I12
sg89
I12
sg90
I10
sg91
I15
sg92
I9
sg93
I6
sg94
I10
sg95
I13
sg96
I4
ssg97
I4
sg98
I0
sg99
I0
sg100
I0
sg101
F12.4
sg102
I0
sg103
I15
sg104
I0
sg105
I0
sg106
g249
sg107
I0
sg108
g109
sg110
I0
sg111
I0
sg112
I0
sg113
I13
sg114
I26
sg115
I0
sg116
S'EN'
p250
sbsS'SA_remp1'
p251
(ijoueur
joueur
p252
(dp253
g27
I0
sg28
I0
sg29
I0
sg30
(ijoueur
rang
p254
(dp255
g33
I5
sg34
S'**'
p256
sg36
g188
sbsg38
(dp257
g40
I0
sg41
I0
sg42
I0
sg43
I0
ssg44
(dp258
g40
I0
sg41
I0
sg42
I0
sg43
I0
ssg46
I0
sg47
I0
sg48
I0
sg49
I0
sg50
I0
sg51
I0
sg52
I0
sg53
(g54
S'DL'
p259
S'TL'
p260
g109
tp261
sg59
(ijoueur
rang
p262
(dp263
g33
I5
sg34
S'**'
p264
sg36
g188
sbsg62
(dp265
g40
I0
sg41
I0
sg42
I0
sg43
I0
ssg64
(dp266
g40
I0
sg41
I0
sg42
I0
sg43
I0
ssg66
(dp267
g40
I0
sg41
I0
sg42
I0
sg43
I0
ssg68
(dp268
g40
I0
sg41
I0
sg42
I0
sg43
I0
ssg70
I0
sg71
I0
sg72
S'Kents'
p269
sg74
I3
sg75
I0
sg76
I10
sg77
I60
sg78
g79
sg80
(dp270
g82
I11
sg83
I8
sg84
I9
sg85
I9
sg86
I8
sg87
I9
sg88
I7
sg89
I11
sg90
I11
sg91
I8
sg92
I8
sg93
I7
sg94
I9
sg95
I8
sg96
I4
ssg97
I0
sg98
I0
sg99
I0
sg100
I0
sg101
F9.055555555555555
sg102
I0
sg103
I0
sg104
I0
sg105
I0
sg106
g270
sg107
I0
sg108
g109
sg110
I0
sg111
I0
sg112
I0
sg113
I9
sg114
I13
sg115
I0
sg116
S'S'
p271
sbsS'drop2'
p272
g183
sS'SA_remp2'
p273
(ijoueur
joueur
p274
(dp275
g27
I0
sg28
I0
sg29
I0
sg30
(ijoueur
rang
p276
(dp277
g33
I5
sg34
S'**'
p278
sg36
g188
sbsg38
(dp279
g40
I0
sg41
I0
sg42
I0
sg43
I0
ssg44
(dp280
g40
I0
sg41
I0
sg42
I0
sg43
I0
ssg46
I0
sg47
I0
sg48
I0
sg49
I0
sg50
I0
sg51
I0
sg52
I0
sg53
(g54
S'N8'
p281
S'TL'
p282
S'DL'
p283
tp284
sg59
(ijoueur
rang
p285
(dp286
g33
I2
sg34
S'<<'
p287
sg36
S'special'
p288
sbsg62
(dp289
g40
I0
sg41
I0
sg42
I0
sg43
I0
ssg64
(dp290
g40
I0
sg41
I0
sg42
I0
sg43
I0
ssg66
(dp291
g40
I0
sg41
I0
sg42
I0
sg43
I0
ssg68
(dp292
g40
I0
sg41
I0
sg42
I0
sg43
I0
ssg70
I0
sg71
I0
sg72
S'Karss'
p293
sg74
I11
sg75
I0
sg76
I22
sg77
I25
sg78
g79
sg80
(dp294
g82
I12
sg83
I9
sg84
I6
sg85
I9
sg86
I5
sg87
I11
sg88
I6
sg89
I11
sg90
I9
sg91
I8
sg92
I9
sg93
I10
sg94
I5
sg95
I8
sg96
I6
ssg97
I0
sg98
I0
sg99
I0
sg100
I0
sg101
F9.689655172413794
sg102
I0
sg103
I0
sg104
I0
sg105
I0
sg106
g294
sg107
I0
sg108
g109
sg110
I0
sg111
I0
sg112
I0
sg113
I2
sg114
I0
sg115
I0
sg116
g271
sbssS'totaux'
p295
(dp296
g19
I0
sg20
I0
sg21
I0
ssS'_compo_defaut_fatigue'
p297
Nsg80
(dp298
g4
I0
sg5
I0
sg6
I0
sg7
I0
sg8
I0
sg9
I0
sg10
I0
sg11
I0
sg12
I0
sg13
I0
sg14
I0
sg15
I0
sg16
I0
ssS'joueurs'
p299
(dp300
S'n12'
p301
g25
sS'n13'
p302
(ijoueur
joueur
p303
(dp304
g27
I0
sg28
I0
sg29
I0
sg30
(ijoueur
rang
p305
(dp306
g33
I5
sg34
S'**'
p307
sg36
g188
sbsg38
(dp308
g40
I0
sg41
I0
sg42
I0
sg43
I0
ssg44
(dp309
g40
I0
sg41
I0
sg42
I0
sg43
I0
ssg46
I0
sg47
I0
sg48
I0
sg49
I0
sg50
I0
sg51
I0
sg52
I0
sg53
(g54
S'C2'
p310
S'AI'
p311
S'AR'
p312
tp313
sg59
(ijoueur
rang
p314
(dp315
g33
I5
sg34
S'**'
p316
sg36
g188
sbsg62
(dp317
g40
I0
sg41
I1
sg42
I0
sg43
I0
ssg64
(dp318
g40
I0
sg41
I0
sg42
I0
sg43
I0
ssg66
(dp319
g40
I0
sg41
I0
sg42
I0
sg43
I0
ssg68
(dp320
g40
I0
sg41
I1
sg42
I0
sg43
I0
ssg70
I0
sg71
I0
sg72
S'Von Vendher'
p321
sg74
I4
sg75
I0
sg76
I13
sg77
I275
sg78
g79
sg80
(dp322
g82
I13
sg83
I5
sg84
I14
sg85
I11
sg86
I10
sg87
I7
sg88
I6
sg89
I14
sg90
I8
sg91
I12
sg92
I11
sg93
I9
sg94
I6
sg95
I11
sg96
I3
ssg97
I4
sg98
I0
sg99
I0
sg100
I0
sg101
F11.586206896551724
sg102
I0
sg103
I0
sg104
I0
sg105
I0
sg106
g322
sg107
I0
sg108
S'KAK9'
p323
sg110
I0
sg111
I0
sg112
I0
sg113
I42
sg114
I18
sg115
I0
sg116
S'CV'
p324
sbsS'n10'
p325
g183
sS'n11'
p326
(ijoueur
joueur
p327
(dp328
g27
I0
sg28
I0
sg29
I0
sg30
(ijoueur
rang
p329
(dp330
g33
I4
sg34
g35
sg36
g37
sbsg38
(dp331
g40
I0
sg41
I0
sg42
I0
sg43
I0
ssg44
(dp332
g40
I0
sg41
I0
sg42
I0
sg43
I0
ssg46
I0
sg47
I0
sg48
I0
sg49
I0
sg50
I0
sg51
I0
sg52
I0
sg53
(g54
S'AI'
p333
S'AR'
p334
g109
tp335
sg59
(ijoueur
rang
p336
(dp337
g33
I5
sg34
S'**'
p338
sg36
g188
sbsg62
(dp339
g40
I0
sg41
I0
sg42
I1
sg43
I0
ssg64
(dp340
g40
I0
sg41
I0
sg42
I0
sg43
I0
ssg66
(dp341
g40
I0
sg41
I0
sg42
I0
sg43
I0
ssg68
(dp342
g40
I0
sg41
I0
sg42
I1
sg43
I0
ssg70
I0
sg71
I0
sg72
S'Luress'
p343
sg74
I3
sg75
I0
sg76
I21
sg77
I92
sg78
g79
sg80
(dp344
g82
I12
sg83
I4
sg84
I9
sg85
I9
sg86
I9
sg87
I10
sg88
I9
sg89
I12
sg90
I9
sg91
I9
sg92
I10
sg93
I8
sg94
I10
sg95
I10
sg96
I3
ssg97
I2
sg98
I0
sg99
I0
sg100
I0
sg101
F10.419354838709678
sg102
I0
sg103
I0
sg104
I0
sg105
I0
sg106
g344
sg107
I0
sg108
S'APA10'
p345
sg110
I0
sg111
I0
sg112
I0
sg113
I9
sg114
I4
sg115
I0
sg116
g271
sbsS'n16'
p346
(ijoueur
joueur
p347
(dp348
g27
I0
sg28
I0
sg29
I0
sg30
(ijoueur
rang
p349
(dp350
g33
I4
sg34
g167
sg36
g37
sbsg38
(dp351
g40
I0
sg41
I0
sg42
I0
sg43
I0
ssg44
(dp352
g40
I0
sg41
I0
sg42
I0
sg43
I0
ssg46
I0
sg47
I0
sg48
I0
sg49
I0
sg50
I0
sg51
I0
sg52
I0
sg53
(g54
S'TA'
p353
S'N8'
p354
g109
tp355
sg59
(ijoueur
rang
p356
(dp357
g33
I4
sg34
g167
sg36
g37
sbsg62
(dp358
g40
I0
sg41
I1
sg42
I0
sg43
I0
ssg64
(dp359
g40
I0
sg41
I0
sg42
I0
sg43
I0
ssg66
(dp360
g40
I0
sg41
I0
sg42
I0
sg43
I0
ssg68
(dp361
g40
I0
sg41
I1
sg42
I0
sg43
I0
ssg70
I0
sg71
I0
sg72
S'Jrohd'
p362
sg74
I4
sg75
I0
sg76
I11
sg77
I70
sg78
g79
sg80
(dp363
g82
I7
sg83
I10
sg84
I7
sg85
I10
sg86
I3
sg87
I9
sg88
I4
sg89
I9
sg90
I6
sg91
I6
sg92
I7
sg93
I9
sg94
I4
sg95
I9
sg96
I11
ssg97
I3
sg98
I0
sg99
I0
sg100
I0
sg101
F9.206896551724139
sg102
I0
sg103
I0
sg104
I0
sg105
I0
sg106
g363
sg107
I0
sg108
g109
sg110
I0
sg111
I0
sg112
I0
sg113
I8
sg114
I10
sg115
I0
sg116
g117
sbsS'n17'
p364
(ijoueur
joueur
p365
(dp366
g27
I0
sg28
I0
sg29
I0
sg30
(ijoueur
rang
p367
(dp368
g33
I3
sg34
S'^^^'
p369
sg36
S'rare'
p370
sbsg38
(dp371
S'SR'
p372
I0
sS'CT'
p373
I0
sS'CR'
p374
I1
sS'ST'
p375
I0
ssg44
(dp376
g372
I0
sg373
I0
sg374
I0
sg375
I0
ssg108
S'APA11'
p377
sg47
I0
sg48
I0
sg49
I0
sg50
I0
sg51
I0
sg52
I0
sg53
(S'dummy'
p378
S'PI'
p379
S'TA'
p380
g109
tp381
sg59
(ijoueur
rang
p382
(dp383
g33
I3
sg34
S'^^^'
p384
sg36
g370
sbsg62
(dp385
g372
I0
sg373
I0
sg374
I0
sg375
I0
ssg64
(dp386
g372
I0
sg373
I0
sg374
I1
sg375
I0
ssg66
(dp387
g372
I0
sg373
I0
sg374
I0
sg375
I0
ssg68
(dp388
g372
I0
sg373
I0
sg374
I0
sg375
I0
ssg70
I0
sg71
I0
sg72
S"X'uv"
p389
sg74
I8
sg75
I0
sg76
I19
sg77
I185
sg78
g79
sg80
(dp390
S'A'
p391
I6
sS'ME'
p392
I10
sS'RP2'
p393
I7
sS'E'
p394
I13
sS'P'
p395
I2
sS'RP1'
p396
I10
sS'JP'
p397
I2
sS'RP_tot'
p398
I10
sS'TO'
p399
I7
sS'PA'
p400
I6
sS'M'
p401
I9
sS'R'
p402
I9
sS'TB'
p403
I3
sS'PL'
p404
I6
sS'TA'
p405
I9
ssg97
I2
sg98
I0
sg99
I0
sg100
I0
sg101
F9.148148148148149
sg102
I0
sg103
I0
sg104
I0
sg105
I0
sg106
g390
sg107
I0
sg110
I0
sg111
I0
sg112
I0
sg113
I10
sg114
I0
sg115
I0
sg116
S'HL'
p406
sbsS'n14'
p407
(ijoueur
joueur
p408
(dp409
g27
I0
sg28
I0
sg29
I0
sg30
(ijoueur
rang
p410
(dp411
g33
I5
sg34
S'**'
p412
sg36
g188
sbsg38
(dp413
g40
I0
sg41
I0
sg42
I0
sg43
I0
ssg44
(dp414
g40
I0
sg41
I0
sg42
I0
sg43
I0
ssg46
I0
sg47
I0
sg48
I0
sg49
I0
sg50
I0
sg51
I0
sg52
I0
sg53
(g54
S'AI'
p415
g109
g109
tp416
sg59
(ijoueur
rang
p417
(dp418
g33
I5
sg34
S'**'
p419
sg36
g188
sbsg62
(dp420
g40
I0
sg41
I1
sg42
I0
sg43
I0
ssg64
(dp421
g40
I0
sg41
I0
sg42
I0
sg43
I0
ssg66
(dp422
g40
I0
sg41
I0
sg42
I0
sg43
I0
ssg68
(dp423
g40
I0
sg41
I1
sg42
I0
sg43
I0
ssg70
I0
sg71
I0
sg72
S'Reladt'
p424
sg74
I8
sg75
I0
sg76
I19
sg77
I435
sg78
g79
sg80
(dp425
g82
I12
sg83
I5
sg84
I11
sg85
I9
sg86
I9
sg87
I13
sg88
I6
sg89
I17
sg90
I7
sg91
I10
sg92
I11
sg93
I7
sg94
I6
sg95
I12
sg96
I4
ssg97
I4
sg98
I0
sg99
I0
sg100
I0
sg101
F11.774193548387096
sg102
I0
sg103
I0
sg104
I0
sg105
I0
sg106
g425
sg107
I0
sg108
S'MRB11'
p426
sg110
I0
sg111
I0
sg112
I0
sg113
I29
sg114
I0
sg115
I0
sg116
S'EMP'
p427
sbsS'n15'
p428
g142
sS'n18'
p429
g252
sS'n19'
p430
(ijoueur
joueur
p431
(dp432
g27
I0
sg28
I0
sg29
I0
sg30
(ijoueur
rang
p433
(dp434
g33
I3
sg34
S'^^^'
p435
sg36
g124
sbsg38
(dp436
g40
I0
sg41
I0
sg42
I0
sg43
I0
ssg44
(dp437
g40
I0
sg41
I0
sg42
I0
sg43
I0
ssg46
I0
sg47
I0
sg48
I0
sg49
I0
sg50
I0
sg51
I0
sg52
I0
sg53
(g54
S'TL'
p438
g109
g109
tp439
sg59
(ijoueur
rang
p440
(dp441
g33
I3
sg34
S'^^^'
p442
sg36
g124
sbsg62
(dp443
g40
I0
sg41
I0
sg42
I0
sg43
I0
ssg64
(dp444
g40
I0
sg41
I0
sg42
I0
sg43
I0
ssg66
(dp445
g40
I0
sg41
I0
sg42
I0
sg43
I0
ssg68
(dp446
g40
I0
sg41
I0
sg42
I0
sg43
I0
ssg70
I0
sg71
I0
sg72
S'Zamten'
p447
sg74
I7
sg75
I0
sg76
I19
sg77
I20
sg78
g79
sg80
(dp448
g82
I6
sg83
I8
sg84
I7
sg85
I10
sg86
I5
sg87
I8
sg88
I4
sg89
I8
sg90
I7
sg91
I6
sg92
I9
sg93
I8
sg94
I3
sg95
I5
sg96
I5
ssg97
I0
sg98
I0
sg99
I0
sg100
I0
sg101
F7.483870967741935
sg102
I0
sg103
I0
sg104
I0
sg105
I0
sg106
g448
sg107
I0
sg108
S'ED10'
p449
sg110
I0
sg111
I0
sg112
I0
sg113
I2
sg114
I1
sg115
I0
sg116
S'OG'
p450
sbsS'n22'
p451
(ijoueur
joueur
p452
(dp453
g27
I0
sg28
I13
sg29
I0
sg30
(ijoueur
rang
p454
(dp455
g33
I4
sg34
g35
sg36
g37
sbsg38
(dp456
g40
I0
sg41
I0
sg42
I0
sg43
I0
ssg44
(dp457
g40
I0
sg41
I0
sg42
I0
sg43
I0
ssg46
I0
sg47
I0
sg48
I0
sg49
I0
sg50
I0
sg51
I0
sg52
I0
sg53
(g54
S'AI'
p458
S'AR'
p459
S'CE'
p460
tp461
sg59
(ijoueur
rang
p462
(dp463
g33
I4
sg34
g35
sg36
g37
sbsg62
(dp464
g40
I0
sg41
I0
sg42
I0
sg43
I0
ssg64
(dp465
g40
I0
sg41
I0
sg42
I0
sg43
I0
ssg66
(dp466
g40
I0
sg41
I0
sg42
I0
sg43
I0
ssg68
(dp467
g40
I0
sg41
I0
sg42
I0
sg43
I0
ssg70
I0
sg71
I0
sg72
S'Rdadan'
p468
sg74
I2
sg75
I0
sg76
I12
sg77
I70
sg78
g79
sg80
(dp469
g82
I10
sg83
I6
sg84
I10
sg85
I9
sg86
I9
sg87
I9
sg88
I11
sg89
I12
sg90
I7
sg91
I10
sg92
I10
sg93
I6
sg94
I7
sg95
I9
sg96
I5
ssg97
I0
sg98
I0
sg99
I0
sg100
I0
sg101
F10.0
sg102
I0
sg103
I13
sg104
I0
sg105
I0
sg106
g469
sg107
I0
sg108
g109
sg110
I0
sg111
I0
sg112
I0
sg113
I7
sg114
I22
sg115
I0
sg116
g271
sbsS'n21'
p470
g230
sS'n20'
p471
(ijoueur
joueur
p472
(dp473
g27
I0
sg28
I0
sg29
I0
sg30
(ijoueur
rang
p474
(dp475
g33
I2
sg34
S'<<'
p476
sg36
g288
sbsg38
(dp477
g40
I0
sg41
I0
sg42
I0
sg43
I0
ssg44
(dp478
g40
I0
sg41
I0
sg42
I0
sg43
I0
ssg46
I0
sg47
I0
sg48
I0
sg49
I0
sg50
I0
sg51
I0
sg52
I0
sg53
(g54
S'C1'
p479
S'DO'
p480
S'DM'
p481
tp482
sg59
(ijoueur
rang
p483
(dp484
g33
I2
sg34
S'<<'
p485
sg36
g288
sbsg62
(dp486
g40
I0
sg41
I0
sg42
I0
sg43
I0
ssg64
(dp487
g40
I0
sg41
I0
sg42
I0
sg43
I0
ssg66
(dp488
g40
I0
sg41
I0
sg42
I0
sg43
I0
ssg68
(dp489
g40
I0
sg41
I0
sg42
I0
sg43
I0
ssg70
I0
sg71
I0
sg72
S'Psorek'
p490
sg74
I0
sg75
I0
sg76
I10
sg77
I11
sg78
g79
sg80
(dp491
g82
I9
sg83
I3
sg84
I6
sg85
I11
sg86
I10
sg87
I9
sg88
I9
sg89
I9
sg90
I5
sg91
I9
sg92
I10
sg93
I7
sg94
I9
sg95
I8
sg96
I5
ssg97
I0
sg98
I0
sg99
I0
sg100
I0
sg101
F9.133333333333333
sg102
I0
sg103
I0
sg104
I0
sg105
I0
sg106
g491
sg107
I0
sg108
g109
sg110
I0
sg111
I0
sg112
I0
sg113
I1
sg114
I2
sg115
I0
sg116
g271
sbsS'n8'
p492
g274
sS'n9'
p493
(ijoueur
joueur
p494
(dp495
g27
I0
sg28
I0
sg29
I0
sg30
(ijoueur
rang
p496
(dp497
g33
I2
sg34
S'<<'
p498
sg36
g288
sbsg38
(dp499
g40
I0
sg41
I0
sg42
I0
sg43
I0
ssg44
(dp500
g40
I0
sg41
I0
sg42
I0
sg43
I0
ssg46
I0
sg47
I0
sg48
I0
sg49
I0
sg50
I0
sg51
I0
sg52
I0
sg53
(g54
S'DM'
p501
g109
g109
tp502
sg59
(ijoueur
rang
p503
(dp504
g33
I2
sg34
S'<<'
p505
sg36
g288
sbsg62
(dp506
g40
I0
sg41
I0
sg42
I0
sg43
I0
ssg64
(dp507
g40
I0
sg41
I0
sg42
I0
sg43
I0
ssg66
(dp508
g40
I0
sg41
I0
sg42
I0
sg43
I0
ssg68
(dp509
g40
I0
sg41
I0
sg42
I0
sg43
I0
ssg70
I0
sg71
I0
sg72
S'Meliss'
p510
sg74
I10
sg75
I0
sg76
I20
sg77
I27
sg78
g79
sg80
(dp511
g82
I10
sg83
I4
sg84
I7
sg85
I10
sg86
I12
sg87
I6
sg88
I8
sg89
I7
sg90
I5
sg91
I12
sg92
I10
sg93
I8
sg94
I6
sg95
I7
sg96
I3
ssg97
I0
sg98
I0
sg99
I0
sg100
I0
sg101
F9.724137931034482
sg102
I0
sg103
I0
sg104
I0
sg105
I0
sg106
g511
sg107
I0
sg108
g109
sg110
I0
sg111
I0
sg112
I0
sg113
I3
sg114
I0
sg115
I0
sg116
g271
sbsS'n1'
p512
(ijoueur
joueur
p513
(dp514
g27
I0
sg28
I0
sg29
I0
sg30
(ijoueur
rang
p515
(dp516
g33
I2
sg34
S'^^'
p517
sg36
g288
sbsg38
(dp518
g40
I0
sg41
I0
sg42
I0
sg43
I0
ssg44
(dp519
g40
I0
sg41
I0
sg42
I0
sg43
I0
ssg46
I0
sg47
I0
sg48
I0
sg49
I0
sg50
I0
sg51
I0
sg52
I0
sg53
(g54
S'PI'
p520
g109
g109
tp521
sg59
(ijoueur
rang
p522
(dp523
g33
I2
sg34
S'^^'
p524
sg36
g288
sbsg62
(dp525
g40
I0
sg41
I0
sg42
I1
sg43
I0
ssg64
(dp526
g40
I0
sg41
I0
sg42
I0
sg43
I0
ssg66
(dp527
g40
I0
sg41
I0
sg42
I0
sg43
I0
ssg68
(dp528
g40
I0
sg41
I0
sg42
I1
sg43
I0
ssg70
I0
sg71
I0
sg72
S'Siviss'
p529
sg74
I9
sg75
I0
sg76
I17
sg77
I9
sg78
g79
sg80
(dp530
g82
I8
sg83
I11
sg84
I6
sg85
I9
sg86
I3
sg87
I9
sg88
I4
sg89
I9
sg90
I7
sg91
I7
sg92
I8
sg93
I9
sg94
I1
sg95
I10
sg96
I8
ssg97
I1
sg98
I0
sg99
I0
sg100
I0
sg101
F9.333333333333334
sg102
I0
sg103
I0
sg104
I0
sg105
I0
sg106
g530
sg107
I0
sg108
g109
sg110
I0
sg111
I0
sg112
I0
sg113
I1
sg114
I0
sg115
I0
sg116
g271
sbsS'n2'
p531
(ijoueur
joueur
p532
(dp533
g27
I0
sg28
I0
sg29
I0
sg30
(ijoueur
rang
p534
(dp535
g33
I2
sg34
S'^^'
p536
sg36
g288
sbsg38
(dp537
g40
I0
sg41
I0
sg42
I0
sg43
I0
ssg44
(dp538
g40
I0
sg41
I0
sg42
I0
sg43
I0
ssg46
I0
sg47
I0
sg48
I0
sg49
I0
sg50
I1
sg51
I0
sg52
I0
sg53
(g54
S'PI'
p539
S'TA'
p540
g109
tp541
sg59
(ijoueur
rang
p542
(dp543
g33
I2
sg34
S'^^'
p544
sg36
g288
sbsg62
(dp545
g40
I0
sg41
I1
sg42
I0
sg43
I0
ssg64
(dp546
g40
I0
sg41
I0
sg42
I0
sg43
I0
ssg66
(dp547
g40
I0
sg41
I0
sg42
I0
sg43
I0
ssg68
(dp548
g40
I0
sg41
I1
sg42
I0
sg43
I0
ssg70
I0
sg71
I0
sg72
S'Fress'
p549
sg74
I4
sg75
I0
sg76
I13
sg77
I8
sg78
g79
sg80
(dp550
g82
I10
sg83
I11
sg84
I6
sg85
I10
sg86
I3
sg87
I10
sg88
I2
sg89
I10
sg90
I6
sg91
I8
sg92
I7
sg93
I9
sg94
I0
sg95
I8
sg96
I9
ssg97
I1
sg98
I0
sg99
I0
sg100
I0
sg101
F9.481481481481481
sg102
I0
sg103
I0
sg104
I0
sg105
I0
sg106
g550
sg107
I0
sg108
g109
sg110
I0
sg111
I0
sg112
I0
sg113
I1
sg114
I1
sg115
I0
sg116
g271
sbsS'n3'
p551
(ijoueur
joueur
p552
(dp553
g27
I0
sg28
I0
sg29
I0
sg30
(ijoueur
rang
p554
(dp555
g33
I2
sg34
S'^^'
p556
sg36
g288
sbsg38
(dp557
g40
I0
sg41
I0
sg42
I0
sg43
I0
ssg44
(dp558
g40
I0
sg41
I0
sg42
I0
sg43
I0
ssg46
I0
sg47
I0
sg48
I0
sg49
I0
sg50
I0
sg51
I0
sg52
I0
sg53
(g54
S'PI'
p559
g109
g109
tp560
sg59
(ijoueur
rang
p561
(dp562
g33
I2
sg34
S'^^'
p563
sg36
g288
sbsg62
(dp564
g40
I0
sg41
I0
sg42
I0
sg43
I0
ssg64
(dp565
g40
I0
sg41
I0
sg42
I0
sg43
I0
ssg66
(dp566
g40
I0
sg41
I0
sg42
I0
sg43
I0
ssg68
(dp567
g40
I0
sg41
I0
sg42
I0
sg43
I0
ssg70
I0
sg71
I0
sg72
S'Saolteh'
p568
sg74
I4
sg75
I0
sg76
I18
sg77
I12
sg78
g79
sg80
(dp569
g82
I9
sg83
I10
sg84
I6
sg85
I9
sg86
I5
sg87
I10
sg88
I2
sg89
I10
sg90
I6
sg91
I9
sg92
I8
sg93
I9
sg94
I4
sg95
I9
sg96
I8
ssg97
I0
sg98
I0
sg99
I0
sg100
I0
sg101
F9.296296296296296
sg102
I0
sg103
I0
sg104
I0
sg105
I0
sg106
g569
sg107
I0
sg108
g109
sg110
I0
sg111
I0
sg112
I0
sg113
I1
sg114
I1
sg115
I0
sg116
S'HE'
p570
sbsS'n4'
p571
g208
sS'n5'
p572
g163
sS'n6'
p573
g119
sS'n7'
p574
(ijoueur
joueur
p575
(dp576
g27
I0
sg28
I0
sg29
I0
sg30
(ijoueur
rang
p577
(dp578
g33
I5
sg34
S'xx'
p579
sg36
g188
sbsg38
(dp580
g40
I0
sg41
I0
sg42
I0
sg43
I0
ssg44
(dp581
g40
I0
sg41
I0
sg42
I0
sg43
I0
ssg46
I0
sg47
I0
sg48
I0
sg49
I0
sg50
I0
sg51
I0
sg52
I0
sg53
(g54
S'TL'
p582
g109
g109
tp583
sg59
(ijoueur
rang
p584
(dp585
g33
I2
sg34
S'^^'
p586
sg36
g288
sbsg62
(dp587
g40
I0
sg41
I0
sg42
I0
sg43
I0
ssg64
(dp588
g40
I0
sg41
I0
sg42
I0
sg43
I0
ssg66
(dp589
g40
I0
sg41
I0
sg42
I0
sg43
I0
ssg68
(dp590
g40
I0
sg41
I0
sg42
I0
sg43
I0
ssg70
I0
sg71
I0
sg72
S'Ak'
p591
sg74
I10
sg75
I0
sg76
I25
sg77
I12
sg78
g79
sg80
(dp592
g82
I10
sg83
I10
sg84
I6
sg85
I10
sg86
I2
sg87
I6
sg88
I4
sg89
I6
sg90
I8
sg91
I7
sg92
I8
sg93
I11
sg94
I4
sg95
I10
sg96
I5
ssg97
I0
sg98
I0
sg99
I0
sg100
I0
sg101
F9.548387096774194
sg102
I0
sg103
I0
sg104
I0
sg105
I0
sg106
g592
sg107
I0
sg108
g109
sg110
I0
sg111
I0
sg112
I0
sg113
I2
sg114
I0
sg115
I0
sg116
g117
sbssS'remplacements'
p593
(dp594
g346
S'n0'
p595
sg364
g595
sg429
g595
sg430
g595
sg451
g595
sg470
g595
sg471
g595
ssb.