(iclub
compo
p0
(dp1
S'caracs_old'
p2
(dp3
S'A'
p4
F189.0
sS'ME'
p5
F92.0
sS'E'
p6
I228
sS'OplusAV'
p7
F92.0
sS'TO_off'
p8
F117.5
sS'OplusAR'
p9
F124.0
sS'M'
p10
F49.5
sS'JP'
p11
F110.0
sS'OmoinsAR'
p12
F71.0
sS'PA'
p13
F117.0
sS'TO_def'
p14
F107.0
sS'OmoinsAV'
p15
F88.0
sS'R'
p16
F199.0
ssS'totaux_old'
p17
(dp18
S'T2'
p19
F208.0
sS'T3'
p20
F114.0
sS'T1'
p21
F201.625
ssS'roles'
p22
(dp23
S'drop1'
p24
(ijoueur
joueur
p25
(dp26
S'rouges_total'
p27
I0
sS'drops_total'
p28
I9
sS'blessure'
p29
I0
sS'RG_max'
p30
(ijoueur
rang
p31
(dp32
S'type_nb'
p33
I5
sS'rang'
p34
S'**'
p35
sS'type'
p36
S'seigneur'
p37
sbsS'MJ2_total'
p38
(dp39
S'SR'
p40
I0
sS'CT'
p41
I0
sS'CR'
p42
I0
sS'ST'
p43
I0
ssS'MJ3_total'
p44
(dp45
g40
I0
sg41
I0
sg42
I0
sg43
I0
ssS'drop_rates_total'
p46
I0
sS'drop_rates_saison'
p47
I0
sS'essais_saison'
p48
I0
sS'penalite_ratees_saison'
p49
I0
sS'transformations_saison'
p50
I3
sS'postes'
p51
(S'dummy'
p52
S'C1'
p53
S'DO'
p54
S'DM'
p55
tp56
sS'RG'
p57
(ijoueur
rang
p58
(dp59
g33
I5
sg34
S'**'
p60
sg36
g37
sbsS'MJ1'
p61
(dp62
g40
I0
sg41
I1
sg42
I0
sg43
I0
ssS'MJ2'
p63
(dp64
g40
I0
sg41
I0
sg42
I0
sg43
I0
ssS'MJ3'
p65
(dp66
g40
I0
sg41
I0
sg42
I0
sg43
I0
ssS'MJ1_total'
p67
(dp68
g40
I0
sg41
I1
sg42
I0
sg43
I0
ssS'penalites_total'
p69
I33
sS'penalites_saison'
p70
I0
sS'nom'
p71
S'Srud'
p72
sS'C'
p73
I4
sS'transformations_total'
p74
I46
sS'D'
p75
I12
sS'VAL'
p76
I181
sS'club'
p77
S'TO'
p78
sS'caracs'
p79
(dp80
S'A'
p81
I13
sS'ME'
p82
I6
sS'RP2'
p83
I13
sS'E'
p84
I11
sS'P'
p85
I9
sS'RP1'
p86
I7
sS'JP'
p87
I10
sS'RP_tot'
p88
I13
sS'TO'
p89
I7
sS'PA'
p90
I12
sS'M'
p91
I10
sS'R'
p92
I6
sS'TB'
p93
I11
sS'PL'
p94
I8
sS'TA'
p95
I5
ssS'fatigue'
p96
I2
sS'drop_ratees_total'
p97
I0
sS'blessures_total'
p98
I0
sS'XP'
p99
I0
sS'EV'
p100
F10.5625
sS'penalite_ratees_total'
p101
I0
sS'blessures_saison'
p102
I0
sS'jaunes_total'
p103
I0
sS'caracs_sans_fatigue'
p104
g80
sS'rouges_saison'
p105
I0
sS'anciens_clubs'
p106
S''
p107
sS'transformation_ratees_total'
p108
I1
sS'drops_saison'
p109
I0
sS'transformation_ratees_saison'
p110
I1
sS'MS'
p111
I18
sS'essais_total'
p112
I16
sS'jaunes_saison'
p113
I0
sS'ARM'
p114
S'S'
p115
sbsS'SA_scd'
p116
(ijoueur
joueur
p117
(dp118
g27
I0
sg28
I0
sg29
I0
sg30
(ijoueur
rang
p119
(dp120
g33
I4
sg34
S'x'
p121
sg36
S'heros'
p122
sbsg38
(dp123
g40
I0
sg41
I0
sg42
I0
sg43
I0
ssg44
(dp124
g40
I0
sg41
I1
sg42
I0
sg43
I0
ssg46
I0
sg47
I0
sg48
I0
sg49
I0
sg50
I0
sg51
(g52
S'N8'
p125
S'DL'
p126
S'TL'
p127
tp128
sg57
(ijoueur
rang
p129
(dp130
g33
I4
sg34
g121
sg36
g122
sbsg61
(dp131
g40
I0
sg41
I0
sg42
I0
sg43
I0
ssg63
(dp132
g40
I0
sg41
I0
sg42
I0
sg43
I0
ssg65
(dp133
g40
I0
sg41
I1
sg42
I0
sg43
I0
ssg67
(dp134
g40
I0
sg41
I0
sg42
I0
sg43
I0
ssg69
I0
sg70
I0
sg71
S'Hydoel'
p135
sg73
I3
sg74
I0
sg75
I12
sg76
I240
sg77
g78
sg79
(dp136
g81
I11
sg82
I7
sg83
I7
sg84
I10
sg85
I4
sg86
I11
sg87
I3
sg88
I11
sg89
I11
sg90
I9
sg91
I7
sg92
I11
sg93
I3
sg94
I13
sg95
I4
ssg96
I3
sg97
I0
sg98
I0
sg99
I0
sg100
F10.666666666666666
sg101
I0
sg102
I0
sg103
I0
sg104
g136
sg105
I0
sg106
S'QNL10'
p137
sg108
I0
sg109
I0
sg110
I0
sg111
I24
sg112
I6
sg113
I0
sg114
S'CHS'
p138
sbsS'RJL'
p139
(ijoueur
joueur
p140
(dp141
g27
I0
sg28
I28
sg29
I0
sg30
(ijoueur
rang
p142
(dp143
g33
I5
sg34
S'**'
p144
sg36
g37
sbsg38
(dp145
g40
I0
sg41
I0
sg42
I0
sg43
I0
ssg44
(dp146
g40
I0
sg41
I0
sg42
I0
sg43
I0
ssg46
I1
sg47
I1
sg48
I0
sg49
I0
sg50
I0
sg51
(g52
S'DO'
p147
S'DM'
p148
S'CE'
p149
tp150
sg57
(ijoueur
rang
p151
(dp152
g33
I5
sg34
S'**'
p153
sg36
g37
sbsg61
(dp154
g40
I0
sg41
I1
sg42
I0
sg43
I0
ssg63
(dp155
g40
I0
sg41
I0
sg42
I0
sg43
I0
ssg65
(dp156
g40
I0
sg41
I0
sg42
I0
sg43
I0
ssg67
(dp157
g40
I0
sg41
I1
sg42
I0
sg43
I0
ssg69
I194
sg70
I0
sg71
S'Hoerdal'
p158
sg73
I5
sg74
I170
sg75
I12
sg76
I221
sg77
g78
sg79
(dp159
g81
I13
sg82
I4
sg83
I10
sg84
I10
sg85
I12
sg86
I7
sg87
I13
sg88
I10
sg89
I6
sg90
I14
sg91
I8
sg92
I7
sg93
I9
sg94
I11
sg95
I7
ssg96
I4
sg97
I0
sg98
I0
sg99
I0
sg100
F11.484848484848484
sg101
I0
sg102
I0
sg103
I0
sg104
g159
sg105
I0
sg106
g107
sg108
I0
sg109
I0
sg110
I0
sg111
I25
sg112
I16
sg113
I0
sg114
S'EN'
p160
sbsS'cap'
p161
(ijoueur
joueur
p162
(dp163
g27
I0
sg28
I0
sg29
I0
sg30
(ijoueur
rang
p164
(dp165
g33
I5
sg34
S'**'
p166
sg36
g37
sbsg38
(dp167
g40
I0
sg41
I0
sg42
I0
sg43
I0
ssg44
(dp168
g40
I0
sg41
I0
sg42
I0
sg43
I0
ssg46
I0
sg47
I0
sg48
I0
sg49
I0
sg50
I0
sg51
(g52
S'DL'
p169
S'TL'
p170
g107
tp171
sg57
(ijoueur
rang
p172
(dp173
g33
I5
sg34
S'**'
p174
sg36
g37
sbsg61
(dp175
g40
I0
sg41
I1
sg42
I0
sg43
I0
ssg63
(dp176
g40
I0
sg41
I0
sg42
I0
sg43
I0
ssg65
(dp177
g40
I0
sg41
I0
sg42
I0
sg43
I0
ssg67
(dp178
g40
I0
sg41
I1
sg42
I0
sg43
I0
ssg69
I0
sg70
I0
sg71
S'Centanael'
p179
sg73
I5
sg74
I0
sg75
I14
sg76
I150
sg77
g78
sg79
(dp180
g81
I12
sg82
I10
sg83
I8
sg84
I14
sg85
I9
sg86
I7
sg87
I7
sg88
I8
sg89
I13
sg90
I11
sg91
I8
sg92
I9
sg93
I8
sg94
I11
sg95
I7
ssg96
I3
sg97
I0
sg98
I0
sg99
I0
sg100
F10.852941176470589
sg101
I0
sg102
I0
sg103
I0
sg104
g180
sg105
I0
sg106
S'FS10'
p181
sg108
I0
sg109
I0
sg110
I0
sg111
I31
sg112
I6
sg113
I0
sg114
S'ES'
p182
sbsS'B4'
p183
g140
sS'RJC'
p184
g140
sS'B1'
p185
g25
sS'B2'
p186
g25
sS'B3'
p187
g25
sS'SA_pcp2'
p188
(ijoueur
joueur
p189
(dp190
g27
I0
sg28
I0
sg29
I0
sg30
(ijoueur
rang
p191
(dp192
g33
I4
sg34
g121
sg36
g122
sbsg38
(dp193
g40
I0
sg41
I0
sg42
I0
sg43
I0
ssg44
(dp194
g40
I0
sg41
I1
sg42
I0
sg43
I0
ssg46
I0
sg47
I0
sg48
I0
sg49
I0
sg50
I0
sg51
(g52
S'TL'
p195
S'N8'
p196
S'DL'
p197
tp198
sg57
(ijoueur
rang
p199
(dp200
g33
I4
sg34
g121
sg36
g122
sbsg61
(dp201
g40
I0
sg41
I0
sg42
I0
sg43
I0
ssg63
(dp202
g40
I0
sg41
I0
sg42
I0
sg43
I0
ssg65
(dp203
g40
I0
sg41
I1
sg42
I0
sg43
I0
ssg67
(dp204
g40
I0
sg41
I0
sg42
I0
sg43
I0
ssg69
I0
sg70
I0
sg71
S'Srend'
p205
sg73
I4
sg74
I0
sg75
I15
sg76
I390
sg77
g78
sg79
(dp206
g81
I11
sg82
I11
sg83
I9
sg84
I9
sg85
I4
sg86
I13
sg87
I4
sg88
I15
sg89
I12
sg90
I9
sg91
I7
sg92
I11
sg93
I3
sg94
I12
sg95
I8
ssg96
I2
sg97
I0
sg98
I0
sg99
I0
sg100
F11.289473684210526
sg101
I0
sg102
I0
sg103
I0
sg104
g206
sg105
I0
sg106
S'HTH8'
p207
sg108
I0
sg109
I0
sg110
I0
sg111
I30
sg112
I19
sg113
I0
sg114
S'CHS'
p208
sbsS'SA_pcp1'
p209
g162
sS'drop3'
p210
g140
sS'SA_remp1'
p211
(ijoueur
joueur
p212
(dp213
g27
I0
sg28
I0
sg29
I0
sg30
(ijoueur
rang
p214
(dp215
g33
I5
sg34
S'**'
p216
sg36
g37
sbsg38
(dp217
g40
I0
sg41
I0
sg42
I0
sg43
I0
ssg44
(dp218
g40
I0
sg41
I0
sg42
I0
sg43
I0
ssg46
I0
sg47
I0
sg48
I0
sg49
I0
sg50
I0
sg51
(g52
S'DL'
p219
g107
g107
tp220
sg57
(ijoueur
rang
p221
(dp222
g33
I5
sg34
S'**'
p223
sg36
g37
sbsg61
(dp224
g40
I0
sg41
I0
sg42
I1
sg43
I0
ssg63
(dp225
g40
I0
sg41
I0
sg42
I0
sg43
I0
ssg65
(dp226
g40
I0
sg41
I0
sg42
I0
sg43
I0
ssg67
(dp227
g40
I0
sg41
I0
sg42
I1
sg43
I0
ssg69
I0
sg70
I0
sg71
S'Skoss'
p228
sg73
I7
sg74
I0
sg75
I18
sg76
I198
sg77
g78
sg79
(dp229
g81
I12
sg82
I10
sg83
I9
sg84
I10
sg85
I6
sg86
I8
sg87
I6
sg88
I10
sg89
I12
sg90
I10
sg91
I8
sg92
I9
sg93
I6
sg94
I9
sg95
I5
ssg96
I2
sg97
I0
sg98
I0
sg99
I0
sg100
F10.147058823529411
sg101
I0
sg102
I0
sg103
I0
sg104
g229
sg105
I0
sg106
g107
sg108
I0
sg109
I0
sg110
I0
sg111
I18
sg112
I6
sg113
I0
sg114
g115
sbsS'drop2'
p230
(ijoueur
joueur
p231
(dp232
g27
I0
sg28
I1
sg29
I0
sg30
(ijoueur
rang
p233
(dp234
g33
I5
sg34
S'**'
p235
sg36
g37
sbsg38
(dp236
g40
I0
sg41
I0
sg42
I0
sg43
I0
ssg44
(dp237
g40
I0
sg41
I0
sg42
I0
sg43
I0
ssg46
I0
sg47
I0
sg48
I0
sg49
I0
sg50
I0
sg51
(g52
S'DM'
p238
S'DO'
p239
g107
tp240
sg57
(ijoueur
rang
p241
(dp242
g33
I5
sg34
S'**'
p243
sg36
g37
sbsg61
(dp244
g40
I0
sg41
I1
sg42
I0
sg43
I0
ssg63
(dp245
g40
I0
sg41
I0
sg42
I0
sg43
I0
ssg65
(dp246
g40
I0
sg41
I0
sg42
I0
sg43
I0
ssg67
(dp247
g40
I0
sg41
I1
sg42
I0
sg43
I0
ssg69
I0
sS'carton_jaunes_saison'
p248
I1
sg70
I0
sg71
S'Ludalr'
p249
sg73
I6
sg74
I0
sg75
I14
sg76
I126
sg77
g78
sS'carton_jaunes_total'
p250
I1
sg79
(dp251
g81
I9
sg82
I5
sg83
I10
sg84
I11
sg85
I12
sg86
I8
sg87
I11
sg88
I11
sg89
I9
sg90
I12
sg91
I8
sg92
I6
sg93
I8
sg94
I10
sg95
I4
ssg96
I4
sg97
I0
sg98
I0
sg99
I0
sg100
F10.517241379310345
sg101
I0
sg102
I0
sg103
I0
sg104
g251
sg105
I0
sg106
g107
sg108
I0
sg109
I0
sg110
I0
sg111
I14
sg112
I7
sg113
I0
sg114
g115
sbsS'SA_remp2'
p252
(ijoueur
joueur
p253
(dp254
g27
I0
sg28
I0
sg29
I0
sg30
(ijoueur
rang
p255
(dp256
g33
I6
sg34
S'***'
p257
sg36
S'personnage'
p258
sbsg38
(dp259
g40
I0
sg41
I0
sg42
I0
sg43
I0
ssg44
(dp260
g40
I0
sg41
I0
sg42
I0
sg43
I0
ssg46
I0
sg47
I0
sg48
I0
sg49
I0
sg50
I0
sg51
(g52
S'TL'
p261
g107
g107
tp262
sg57
(ijoueur
rang
p263
(dp264
g33
I6
sg34
S'***'
p265
sg36
g258
sbsg61
(dp266
g40
I0
sg41
I0
sg42
I1
sg43
I0
ssg63
(dp267
g40
I0
sg41
I0
sg42
I0
sg43
I0
ssg65
(dp268
g40
I0
sg41
I0
sg42
I0
sg43
I0
ssg67
(dp269
g40
I0
sg41
I0
sg42
I1
sg43
I0
ssg69
I0
sg70
I0
sg71
S'Hellborg'
p270
sg73
I11
sg74
I0
sg75
I21
sg76
I569
sg77
g78
sg79
(dp271
g81
I11
sg82
I9
sg83
I7
sg84
I12
sg85
I5
sg86
I10
sg87
I3
sg88
I10
sg89
I11
sg90
I9
sg91
I8
sg92
I10
sg93
I3
sg94
I13
sg95
I5
ssg96
I3
sg97
I0
sg98
I0
sg99
I0
sg100
F10.763157894736842
sg101
I0
sg102
I0
sg103
I0
sg104
g271
sg105
I0
sg106
g107
sg108
I0
sg109
I0
sg110
I0
sg111
I41
sg112
I0
sg113
I0
sg114
S'EMP'
p272
sbssS'totaux'
p273
(dp274
g19
I0
sg20
I0
sg21
I0
ssS'_compo_defaut_fatigue'
p275
Nsg79
(dp276
g4
I0
sg5
I0
sg6
I0
sg7
I0
sg8
I0
sg9
I0
sg10
I0
sg11
I0
sg12
I0
sg13
I0
sg14
I0
sg15
I0
sg16
I0
ssS'joueurs'
p277
(dp278
S'n12'
p279
g25
sS'n13'
p280
(ijoueur
joueur
p281
(dp282
g27
I0
sg28
I0
sg29
I0
sg30
(ijoueur
rang
p283
(dp284
g33
I5
sg34
S'**'
p285
sg36
g37
sbsg38
(dp286
g40
I0
sg41
I0
sg42
I0
sg43
I0
ssg44
(dp287
g40
I0
sg41
I0
sg42
I0
sg43
I0
ssg46
I0
sg47
I0
sg48
I0
sg49
I0
sg50
I0
sg51
(g52
S'C2'
p288
S'AR'
p289
g107
tp290
sg57
(ijoueur
rang
p291
(dp292
g33
I5
sg34
S'**'
p293
sg36
g37
sbsg61
(dp294
g40
I0
sg41
I1
sg42
I0
sg43
I0
ssg63
(dp295
g40
I0
sg41
I0
sg42
I0
sg43
I0
ssg65
(dp296
g40
I0
sg41
I0
sg42
I0
sg43
I0
ssg67
(dp297
g40
I0
sg41
I1
sg42
I0
sg43
I0
ssg69
I0
sg70
I0
sg71
S'Woroder'
p298
sg73
I4
sg74
I0
sg75
I15
sg76
I182
sg77
g78
sg79
(dp299
g81
I10
sg82
I6
sg83
I8
sg84
I11
sg85
I7
sg86
I12
sg87
I6
sg88
I13
sg89
I6
sg90
I9
sg91
I9
sg92
I10
sg93
I6
sg94
I14
sg95
I6
ssg96
I2
sg97
I0
sg98
I0
sg99
I0
sg100
F10.862068965517242
sg101
I0
sg102
I0
sg103
I0
sg104
g299
sg105
I0
sg106
S'TO10'
p300
sg108
I0
sg109
I0
sg110
I0
sg111
I14
sg112
I13
sg113
I0
sg114
S'0'
p301
sbsS'n10'
p302
g140
sS'n11'
p303
(ijoueur
joueur
p304
(dp305
g27
I0
sg28
I0
sg29
I0
sg30
(ijoueur
rang
p306
(dp307
g33
I5
sg34
S'xx'
p308
sg36
g37
sbsg38
(dp309
g40
I0
sg41
I0
sg42
I0
sg43
I0
ssg44
(dp310
g40
I0
sg41
I0
sg42
I0
sg43
I0
ssg46
I0
sg47
I0
sg48
I0
sg49
I0
sg50
I0
sg51
(g52
S'AI'
p311
g107
g107
tp312
sg57
(ijoueur
rang
p313
(dp314
g33
I5
sg34
S'xx'
p315
sg36
g37
sbsg61
(dp316
g40
I0
sg41
I1
sg42
I0
sg43
I0
ssg63
(dp317
g40
I0
sg41
I0
sg42
I0
sg43
I0
ssg65
(dp318
g40
I0
sg41
I0
sg42
I0
sg43
I0
ssg67
(dp319
g40
I0
sg41
I1
sg42
I0
sg43
I0
ssg69
I0
sg70
I0
sg71
S'Lumoor'
p320
sg73
I9
sg74
I0
sg75
I25
sg76
I266
sg77
g78
sg79
(dp321
g81
I12
sg82
I7
sg83
I9
sg84
I10
sg85
I8
sg86
I16
sg87
I8
sg88
I18
sg89
I6
sg90
I10
sg91
I11
sg92
I8
sg93
I7
sg94
I10
sg95
I6
ssg96
I4
sg97
I0
sg98
I0
sg99
I0
sg100
F11.903225806451612
sg101
I0
sg102
I0
sg103
I0
sg104
g321
sg105
I0
sg106
g107
sg108
I0
sg109
I0
sg110
I0
sg111
I28
sg112
I2
sg113
I0
sg114
S'HL'
p322
sbsS'n16'
p323
(ijoueur
joueur
p324
(dp325
g27
I0
sg28
I0
sg29
I0
sg30
(ijoueur
rang
p326
(dp327
g33
I4
sg34
g121
sg36
g122
sbsg38
(dp328
g40
I0
sg41
I0
sg42
I1
sg43
I0
ssg44
(dp329
g40
I0
sg41
I0
sg42
I0
sg43
I0
ssg46
I0
sg47
I0
sg48
I0
sg49
I0
sg50
I0
sg51
(g52
S'PI'
p330
S'TA'
p331
g107
tp332
sg57
(ijoueur
rang
p333
(dp334
g33
I4
sg34
g121
sg36
g122
sbsg61
(dp335
g40
I0
sg41
I0
sg42
I0
sg43
I0
ssg63
(dp336
g40
I0
sg41
I0
sg42
I1
sg43
I0
ssg65
(dp337
g40
I0
sg41
I0
sg42
I0
sg43
I0
ssg67
(dp338
g40
I0
sg41
I0
sg42
I0
sg43
I0
ssg69
I0
sg70
I0
sg71
S'Nanarik'
p339
sg73
I6
sg74
I0
sg75
I14
sg76
I125
sg77
g78
sg79
(dp340
g81
I8
sg82
I8
sg83
I7
sg84
I10
sg85
I4
sg86
I9
sg87
I3
sg88
I9
sg89
I3
sg90
I6
sg91
I8
sg92
I9
sg93
I5
sg94
I10
sg95
I10
ssg96
I2
sg97
I0
sg98
I0
sg99
I0
sg100
F8.96551724137931
sg101
I0
sg102
I0
sg103
I0
sg104
g340
sg105
I0
sg106
S'BRB9'
p341
sg108
I0
sg109
I0
sg110
I0
sg111
I10
sg112
I2
sg113
I0
sg114
S'N'
p342
sbsS'n17'
p343
(ijoueur
joueur
p344
(dp345
g27
I0
sg28
I0
sg29
I0
sg30
(ijoueur
rang
p346
(dp347
g33
I5
sg34
S'**'
p348
sg36
g37
sbsg38
(dp349
g40
I0
sg41
I0
sg42
I0
sg43
I0
ssg44
(dp350
g40
I0
sg41
I0
sg42
I0
sg43
I0
ssg46
I0
sg47
I0
sg48
I1
sg49
I0
sg50
I0
sg51
(g52
S'PI'
p351
S'N8'
p352
S'TL'
p353
tp354
sg57
(ijoueur
rang
p355
(dp356
g33
I5
sg34
S'**'
p357
sg36
g37
sbsg61
(dp358
g40
I0
sg41
I0
sg42
I1
sg43
I0
ssg63
(dp359
g40
I0
sg41
I0
sg42
I0
sg43
I0
ssg65
(dp360
g40
I0
sg41
I0
sg42
I0
sg43
I0
ssg67
(dp361
g40
I0
sg41
I0
sg42
I1
sg43
I0
ssg69
I0
sg70
I0
sg71
S'Gorr'
p362
sg73
I5
sg74
I0
sg75
I15
sg76
I150
sg77
g78
sg79
(dp363
g81
I10
sg82
I10
sg83
I7
sg84
I11
sg85
I3
sg86
I9
sg87
I2
sg88
I9
sg89
I8
sg90
I9
sg91
I6
sg92
I12
sg93
I2
sg94
I9
sg95
I7
ssg96
I2
sg97
I0
sg98
I0
sg99
I0
sg100
F10.11111111111111
sg101
I0
sg102
I0
sg103
I0
sg104
g363
sg105
I0
sg106
g107
sg108
I0
sg109
I0
sg110
I0
sg111
I16
sg112
I10
sg113
I0
sg114
S'HB'
p364
sbsS'n14'
p365
(ijoueur
joueur
p366
(dp367
g27
I0
sg28
I1
sg29
I0
sg30
(ijoueur
rang
p368
(dp369
g33
I5
sg34
S'**'
p370
sg36
g37
sbsg38
(dp371
g40
I0
sg41
I0
sg42
I0
sg43
I0
ssg44
(dp372
g40
I0
sg41
I0
sg42
I0
sg43
I0
ssg46
I0
sg47
I0
sg48
I0
sg49
I0
sg50
I0
sg51
(g52
S'AI'
p373
S'AR'
p374
S'CE'
p375
tp376
sg57
(ijoueur
rang
p377
(dp378
g33
I5
sg34
S'**'
p379
sg36
g37
sbsg61
(dp380
g40
I0
sg41
I1
sg42
I0
sg43
I0
ssg63
(dp381
g40
I0
sg41
I0
sg42
I0
sg43
I0
ssg65
(dp382
g40
I0
sg41
I0
sg42
I0
sg43
I0
ssg67
(dp383
g40
I0
sg41
I1
sg42
I0
sg43
I0
ssg69
I0
sg70
I0
sg71
S'Frors'
p384
sg73
I5
sg74
I0
sg75
I16
sg76
I162
sg77
g78
sg79
(dp385
g81
I12
sg82
I4
sg83
I11
sg84
I10
sg85
I11
sg86
I11
sg87
I11
sg88
I15
sg89
I8
sg90
I13
sg91
I11
sg92
I8
sg93
I9
sg94
I11
sg95
I4
ssg96
I2
sg97
I0
sg98
I0
sg99
I0
sg100
F11.935483870967742
sg101
I0
sg102
I0
sg103
I0
sg104
g385
sg105
I0
sg106
g107
sg108
I0
sg109
I0
sg110
I0
sg111
I20
sg112
I25
sg113
I0
sg114
g115
sbsS'n15'
p386
(ijoueur
joueur
p387
(dp388
g27
I0
sg28
I0
sg29
I0
sg30
(ijoueur
rang
p389
(dp390
g33
I4
sg34
S'*'
p391
sg36
g122
sbsg38
(dp392
g40
I0
sg41
I0
sg42
I0
sg43
I0
ssg44
(dp393
g40
I0
sg41
I0
sg42
I0
sg43
I0
ssg46
I0
sg47
I0
sg48
I0
sg49
I0
sg50
I0
sg51
(g52
S'AR'
p394
S'CE'
p395
S'AI'
p396
tp397
sg57
(ijoueur
rang
p398
(dp399
g33
I4
sg34
g391
sg36
g122
sbsg61
(dp400
g40
I0
sg41
I1
sg42
I0
sg43
I0
ssg63
(dp401
g40
I0
sg41
I0
sg42
I0
sg43
I0
ssg65
(dp402
g40
I0
sg41
I0
sg42
I0
sg43
I0
ssg67
(dp403
g40
I0
sg41
I1
sg42
I0
sg43
I0
ssg69
I0
sg70
I0
sg71
S'Crodard'
p404
sg73
I6
sg74
I0
sg75
I16
sg76
I110
sg77
g78
sg79
(dp405
g81
I14
sg82
I5
sg83
I10
sg84
I12
sg85
I10
sg86
I9
sg87
I9
sg88
I12
sg89
I7
sg90
I12
sg91
I9
sg92
I11
sg93
I9
sg94
I11
sg95
I4
ssg96
I2
sg97
I0
sg98
I0
sg99
I0
sg100
F11.484848484848484
sg101
I0
sg102
I0
sg103
I0
sg104
g405
sg105
I0
sg106
g107
sg108
I0
sg109
I0
sg110
I0
sg111
I8
sg112
I26
sg113
I0
sg114
S'EMP'
p406
sbsS'n18'
p407
g212
sS'n19'
p408
g253
sS'n22'
p409
(ijoueur
joueur
p410
(dp411
g27
I0
sg28
I0
sg29
I0
sg30
(ijoueur
rang
p412
(dp413
g33
I1
sg34
S'>'
p414
sg36
S'base'
p415
sbsg38
(dp416
g40
I0
sg41
I0
sg42
I1
sg43
I0
ssg44
(dp417
g40
I0
sg41
I0
sg42
I0
sg43
I0
ssg46
I0
sg47
I0
sg48
I0
sg49
I0
sg50
I0
sg51
(g52
S'AR'
p418
S'AI'
p419
S'DO'
p420
tp421
sg57
(ijoueur
rang
p422
(dp423
g33
I1
sg34
g414
sg36
g415
sbsg61
(dp424
g40
I0
sg41
I0
sg42
I0
sg43
I0
ssg63
(dp425
g40
I0
sg41
I0
sg42
I1
sg43
I0
ssg65
(dp426
g40
I0
sg41
I0
sg42
I0
sg43
I0
ssg67
(dp427
g40
I0
sg41
I0
sg42
I0
sg43
I0
ssg69
I0
sg70
I0
sg71
S'Iroad'
p428
sg73
I3
sg74
I0
sg75
I15
sg76
I4
sg77
g78
sg79
(dp429
g81
I11
sg82
I4
sg83
I10
sg84
I7
sg85
I7
sg86
I6
sg87
I6
sg88
I10
sg89
I5
sg90
I6
sg91
I14
sg92
I5
sg93
I6
sg94
I7
sg95
I6
ssg96
I2
sg97
I0
sg98
I0
sg99
I0
sg100
F8.818181818181818
sg101
I0
sg102
I0
sg103
I0
sg104
g429
sg105
I0
sg106
g107
sg108
I0
sg109
I0
sg110
I0
sg111
I1
sg112
I3
sg113
I0
sg114
S'HL'
p430
sbsS'n21'
p431
(ijoueur
joueur
p432
(dp433
g27
I0
sg28
I0
sg29
I0
sg30
(ijoueur
rang
p434
(dp435
g33
I5
sg34
S'**'
p436
sg36
g37
sbsg38
(dp437
g40
I0
sg41
I0
sg42
I0
sg43
I0
ssg44
(dp438
g40
I0
sg41
I0
sg42
I0
sg43
I0
ssg46
I0
sg47
I0
sg48
I0
sg49
I0
sg50
I0
sg51
(g52
S'C2'
p439
S'AI'
p440
g107
tp441
sg57
(ijoueur
rang
p442
(dp443
g33
I5
sg34
S'**'
p444
sg36
g37
sbsg61
(dp445
g40
I0
sg41
I0
sg42
I1
sg43
I0
ssg63
(dp446
g40
I0
sg41
I0
sg42
I0
sg43
I0
ssg65
(dp447
g40
I0
sg41
I0
sg42
I0
sg43
I0
ssg67
(dp448
g40
I0
sg41
I0
sg42
I1
sg43
I0
ssg69
I1
sg70
I0
sg71
S'De Laheault'
p449
sg73
I7
sg74
I0
sg75
I15
sg76
I264
sg77
g78
sg79
(dp450
g81
I10
sg82
I7
sg83
I11
sg84
I9
sg85
I9
sg86
I9
sg87
I6
sg88
I13
sg89
I8
sg90
I12
sg91
I8
sg92
I7
sg93
I8
sg94
I12
sg95
I4
ssg96
I1
sg97
I0
sg98
I0
sg99
I0
sg100
F10.413793103448276
sg101
I0
sg102
I0
sg103
I0
sg104
g450
sg105
I0
sg106
g107
sg108
I0
sg109
I0
sg110
I0
sg111
I21
sg112
I16
sg113
I0
sg114
S'B'
p451
sbsS'n20'
p452
(ijoueur
joueur
p453
(dp454
g27
I0
sg28
I1
sg29
I0
sg30
(ijoueur
rang
p455
(dp456
g33
I4
sg34
g121
sg36
g122
sbsg38
(dp457
g40
I0
sg41
I0
sg42
I0
sg43
I0
ssg44
(dp458
g40
I0
sg41
I0
sg42
I0
sg43
I0
ssg46
I0
sg47
I0
sg48
I0
sg49
I0
sg50
I0
sg51
(g52
S'DM'
p459
S'CE'
p460
S'AI'
p461
tp462
sg57
(ijoueur
rang
p463
(dp464
g33
I4
sg34
g121
sg36
g122
sbsg61
(dp465
g40
I0
sg41
I0
sg42
I1
sg43
I0
ssg63
(dp466
g40
I0
sg41
I0
sg42
I0
sg43
I0
ssg65
(dp467
g40
I0
sg41
I0
sg42
I0
sg43
I0
ssg67
(dp468
g40
I0
sg41
I0
sg42
I1
sg43
I0
ssg69
I0
sg70
I0
sg71
S'Medeuleur'
p469
sg73
I7
sg74
I0
sg75
I15
sg76
I168
sg77
g78
sg79
(dp470
g81
I8
sg82
I7
sg83
I9
sg84
I11
sg85
I10
sg86
I10
sg87
I7
sg88
I12
sg89
I5
sg90
I8
sg91
I10
sg92
I10
sg93
I7
sg94
I11
sg95
I6
ssg96
I0
sg97
I0
sg98
I0
sg99
I0
sg100
F9.517241379310345
sg101
I0
sg102
I0
sg103
I0
sg104
g470
sg105
I0
sg106
g107
sg108
I0
sg109
I0
sg110
I0
sg111
I11
sg112
I7
sg113
I0
sg114
S'OG'
p471
sbsS'n8'
p472
(ijoueur
joueur
p473
(dp474
g27
I0
sg28
I0
sg29
I0
sg30
(ijoueur
rang
p475
(dp476
g33
I5
sg34
S'xx'
p477
sg36
g37
sbsg38
(dp478
g40
I0
sg41
I0
sg42
I0
sg43
I0
ssg44
(dp479
g40
I0
sg41
I0
sg42
I0
sg43
I0
ssg46
I0
sg47
I0
sg48
I2
sg49
I0
sg50
I0
sg51
(g52
S'N8'
p480
S'TL'
p481
g107
tp482
sg57
(ijoueur
rang
p483
(dp484
g33
I5
sg34
S'xx'
p485
sg36
g37
sbsg61
(dp486
g40
I0
sg41
I1
sg42
I0
sg43
I0
ssg63
(dp487
g40
I0
sg41
I0
sg42
I0
sg43
I0
ssg65
(dp488
g40
I0
sg41
I0
sg42
I0
sg43
I0
ssg67
(dp489
g40
I0
sg41
I1
sg42
I0
sg43
I0
ssg69
I0
sg70
I0
sg71
S'Slaandal'
p490
sg73
I3
sg74
I0
sg75
I13
sg76
I350
sg77
g78
sg79
(dp491
g81
I10
sg82
I12
sg83
I7
sg84
I13
sg85
I3
sg86
I14
sg87
I2
sg88
I14
sg89
I8
sg90
I7
sg91
I8
sg92
I11
sg93
I4
sg94
I10
sg95
I6
ssg96
I3
sg97
I0
sg98
I0
sg99
I0
sg100
F11.379310344827585
sg101
I0
sg102
I0
sg103
I0
sg104
g491
sg105
I0
sg106
g107
sg108
I0
sg109
I0
sg110
I0
sg111
I35
sg112
I17
sg113
I0
sg114
S'HL'
p492
sbsS'n9'
p493
g231
sS'n1'
p494
(ijoueur
joueur
p495
(dp496
g27
I0
sg28
I0
sg29
I0
sg30
(ijoueur
rang
p497
(dp498
g33
I5
sg34
S'xx'
p499
sg36
g37
sbsg38
(dp500
g40
I0
sg41
I0
sg42
I0
sg43
I0
ssg44
(dp501
g40
I0
sg41
I0
sg42
I0
sg43
I0
ssg46
I0
sg47
I0
sg48
I0
sg49
I0
sg50
I0
sg51
(g52
S'PI'
p502
S'TA'
p503
g107
tp504
sg57
(ijoueur
rang
p505
(dp506
g33
I5
sg34
S'xx'
p507
sg36
g37
sbsg61
(dp508
g40
I0
sg41
I1
sg42
I0
sg43
I0
ssg63
(dp509
g40
I0
sg41
I0
sg42
I0
sg43
I0
ssg65
(dp510
g40
I0
sg41
I0
sg42
I0
sg43
I0
ssg67
(dp511
g40
I0
sg41
I1
sg42
I0
sg43
I0
ssg69
I0
sg70
I0
sg71
S"B'Aald"
p512
sg73
I8
sg74
I0
sg75
I21
sg76
I362
sg77
g78
sg79
(dp513
g81
I11
sg82
I10
sg83
I8
sg84
I11
sg85
I4
sg86
I13
sg87
I5
sg88
I14
sg89
I8
sg90
I10
sg91
I10
sg92
I12
sg93
I4
sg94
I11
sg95
I10
ssg96
I3
sg97
I0
sg98
I0
sg99
I0
sg100
F11.407407407407407
sg101
I0
sg102
I0
sg103
I0
sg104
g513
sg105
I0
sg106
g107
sg108
I0
sg109
I0
sg110
I0
sg111
I37
sg112
I0
sg113
I0
sg114
S'HL'
p514
sbsS'n2'
p515
(ijoueur
joueur
p516
(dp517
g27
I0
sg28
I0
sg29
I0
sg30
(ijoueur
rang
p518
(dp519
g33
I4
sg34
g391
sg36
g122
sbsg38
(dp520
g40
I0
sg41
I0
sg42
I0
sg43
I0
ssg44
(dp521
g40
I0
sg41
I0
sg42
I0
sg43
I0
ssg46
I0
sg47
I0
sg48
I0
sg49
I0
sg50
I0
sg51
(g52
S'TA'
p522
S'PI'
p523
g107
tp524
sg57
(ijoueur
rang
p525
(dp526
g33
I4
sg34
g391
sg36
g122
sbsg61
(dp527
g40
I0
sg41
I1
sg42
I0
sg43
I0
ssg63
(dp528
g40
I0
sg41
I0
sg42
I0
sg43
I0
ssg65
(dp529
g40
I0
sg41
I0
sg42
I0
sg43
I0
ssg67
(dp530
g40
I0
sg41
I1
sg42
I0
sg43
I0
ssg69
I0
sg70
I0
sg71
S'Momnod'
p531
sg73
I6
sg74
I0
sg75
I16
sg76
I801
sg77
g78
sg79
(dp532
g81
I10
sg82
I6
sg83
I7
sg84
I10
sg85
I3
sg86
I11
sg87
I3
sg88
I11
sg89
I8
sg90
I9
sg91
I7
sg92
I9
sg93
I2
sg94
I12
sg95
I13
ssg96
I3
sg97
I0
sg98
I0
sg99
I0
sg100
F10.068965517241379
sg101
I0
sg102
I0
sg103
I0
sg104
g532
sg105
I0
sg106
S'TO8;DKW10'
p533
sg108
I0
sg109
I0
sg110
I0
sg111
I51
sg112
I4
sg113
I0
sg114
S'CHS'
p534
sbsS'n3'
p535
(ijoueur
joueur
p536
(dp537
g27
I0
sg28
I0
sg29
I0
sg30
(ijoueur
rang
p538
(dp539
g33
I5
sg34
S'xx'
p540
sg36
g37
sbsg38
(dp541
g40
I0
sg41
I1
sg42
I0
sg43
I0
ssg44
(dp542
g40
I0
sg41
I0
sg42
I0
sg43
I0
ssg46
I0
sg47
I0
sg48
I0
sg49
I0
sg50
I0
sg51
(g52
S'DL'
p543
S'PI'
p544
S'N8'
p545
tp546
sg57
(ijoueur
rang
p547
(dp548
g33
I5
sg34
S'xx'
p549
sg36
g37
sbsg61
(dp550
g40
I0
sg41
I0
sg42
I0
sg43
I0
ssg63
(dp551
g40
I0
sg41
I1
sg42
I0
sg43
I0
ssg65
(dp552
g40
I0
sg41
I0
sg42
I0
sg43
I0
ssg67
(dp553
g40
I0
sg41
I0
sg42
I0
sg43
I0
ssg69
I0
sg70
I0
sg71
S'Gorand'
p554
sg73
I3
sg74
I0
sg75
I11
sg76
I125
sg77
g78
sg79
(dp555
g81
I10
sg82
I10
sg83
I6
sg84
I12
sg85
I4
sg86
I14
sg87
I3
sg88
I14
sg89
I7
sg90
I7
sg91
I8
sg92
I9
sg93
I3
sg94
I10
sg95
I6
ssg96
I1
sg97
I0
sg98
I0
sg99
I0
sg100
F10.444444444444445
sg101
I0
sg102
I0
sg103
I0
sg104
g555
sg105
I0
sg106
g107
sg108
I0
sg109
I0
sg110
I0
sg111
I14
sg112
I13
sg113
I0
sg114
g342
sbsS'n4'
p556
g162
sS'n5'
p557
g189
sS'n6'
p558
(ijoueur
joueur
p559
(dp560
g27
I0
sg28
I0
sg29
I0
sg30
(ijoueur
rang
p561
(dp562
g33
I5
sg34
S'xx'
p563
sg36
g37
sbsg38
(dp564
g40
I0
sg41
I1
sg42
I0
sg43
I0
ssg44
(dp565
g40
I0
sg41
I0
sg42
I0
sg43
I0
ssg46
I0
sg47
I0
sg48
I0
sg49
I0
sg50
I0
sg51
(g52
S'N8'
p566
S'TL'
p567
g107
tp568
sg57
(ijoueur
rang
p569
(dp570
g33
I4
sg34
g391
sg36
g122
sbsg61
(dp571
g40
I0
sg41
I0
sg42
I0
sg43
I0
ssg63
(dp572
g40
I0
sg41
I1
sg42
I0
sg43
I0
ssg65
(dp573
g40
I0
sg41
I0
sg42
I0
sg43
I0
ssg67
(dp574
g40
I0
sg41
I0
sg42
I0
sg43
I0
ssg69
I0
sg70
I0
sg71
S'Zerhen'
p575
sg73
I7
sg74
I0
sg75
I20
sg76
I80
sg77
g78
sg79
(dp576
g81
I10
sg82
I8
sg83
I7
sg84
I13
sg85
I5
sg86
I11
sg87
I5
sg88
I11
sg89
I10
sg90
I7
sg91
I10
sg92
I11
sg93
I5
sg94
I12
sg95
I3
ssg96
I3
sg97
I0
sg98
I0
sg99
I0
sg100
F10.862068965517242
sg101
I0
sg102
I0
sg103
I0
sg104
g576
sg105
I0
sg106
g107
sg108
I0
sg109
I0
sg110
I0
sg111
I8
sg112
I2
sg113
I0
sg114
S'HB'
p577
sbsS'n7'
p578
g117
ssS'remplacements'
p579
(dp580
g323
S'n0'
p581
sg343
g581
sg407
g581
sg408
g581
sg409
g581
sg431
g581
sg452
g581
ssb.