(iclub
compo
p0
(dp1
S'caracs_old'
p2
(dp3
S'A'
p4
F166.0
sS'ME'
p5
F105.0
sS'E'
p6
I215
sS'OplusAV'
p7
F91.5
sS'TO_off'
p8
F123.5
sS'OplusAR'
p9
F110.0
sS'M'
p10
F42.5
sS'JP'
p11
F94.5
sS'OmoinsAR'
p12
F65.0
sS'PA'
p13
F105.5
sS'TO_def'
p14
F112.5
sS'OmoinsAV'
p15
F72.0
sS'R'
p16
F192.0
ssS'totaux_old'
p17
(dp18
S'T2'
p19
F183.0
sS'T3'
p20
F107.5
sS'T1'
p21
F207.5
ssS'roles'
p22
(dp23
S'drop1'
p24
(ijoueur
joueur
p25
(dp26
S'rouges_total'
p27
I0
sS'drops_total'
p28
I0
sS'blessure'
p29
I0
sS'RG_max'
p30
(ijoueur
rang
p31
(dp32
S'type_nb'
p33
I4
sS'rang'
p34
S'*'
p35
sS'type'
p36
S'heros'
p37
sbsS'MJ2_total'
p38
(dp39
S'SR'
p40
I0
sS'CT'
p41
I0
sS'CR'
p42
I0
sS'ST'
p43
I0
ssS'MJ3_total'
p44
(dp45
g40
I0
sg41
I0
sg42
I0
sg43
I0
ssS'drop_rates_total'
p46
I0
sS'drop_rates_saison'
p47
I0
sS'transformations'
p48
I0
sS'penalites'
p49
I0
sS'essais_saison'
p50
I0
sS'penalite_ratees_saison'
p51
I0
sS'transformations_saison'
p52
I0
sS'postes'
p53
(S'dummy'
p54
S'AI'
p55
S'CE'
p56
S''
p57
tp58
sS'RG'
p59
(ijoueur
rang
p60
(dp61
g33
I4
sg34
g35
sg36
g37
sbsS'MJ1'
p62
(dp63
g40
I0
sg41
I1
sg42
I0
sg43
I0
ssS'MJ2'
p64
(dp65
g40
I0
sg41
I0
sg42
I0
sg43
I0
ssS'MJ3'
p66
(dp67
g40
I0
sg41
I0
sg42
I0
sg43
I0
ssS'MJ1_total'
p68
(dp69
g40
I0
sg41
I1
sg42
I0
sg43
I0
ssS'penalites_total'
p70
I0
sS'penalites_saison'
p71
I0
sS'nom'
p72
S'Yvarov'
p73
sS'C'
p74
I9
sS'transformations_total'
p75
I0
sS'D'
p76
I22
sS'VAL'
p77
I98
sS'club'
p78
S'MSL'
p79
sS'caracs'
p80
(dp81
S'A'
p82
I9
sS'ME'
p83
I6
sS'RP2'
p84
I8
sS'E'
p85
I9
sS'P'
p86
I9
sS'RP1'
p87
I13
sS'JP'
p88
I9
sS'RP_tot'
p89
I14
sS'TO'
p90
I3
sS'PA'
p91
I10
sS'M'
p92
I9
sS'R'
p93
I8
sS'TB'
p94
I7
sS'PL'
p95
I9
sS'TA'
p96
I5
ssS'fatigue'
p97
I4
sS'drop_ratees_total'
p98
I0
sS'blessures_total'
p99
I0
sS'XP'
p100
I0
sS'EV'
p101
F10.03225806451613
sS'penalite_ratees_total'
p102
I0
sS'drops'
p103
I0
sS'blessures_saison'
p104
I0
sS'jaunes_total'
p105
I0
sS'caracs_sans_fatigue'
p106
g81
sS'rouges_saison'
p107
I0
sS'anciens_clubs'
p108
g57
sS'transformation_ratees_total'
p109
I0
sS'drops_saison'
p110
I0
sS'transformation_ratees_saison'
p111
I0
sS'MS'
p112
I9
sS'essais_total'
p113
I1
sS'jaunes_saison'
p114
I0
sS'ARM'
p115
S'CV'
p116
sbsS'SA_scd'
p117
(ijoueur
joueur
p118
(dp119
g27
I0
sg28
I0
sg29
I0
sg30
(ijoueur
rang
p120
(dp121
g33
I5
sg34
S'**'
p122
sg36
S'seigneur'
p123
sbsg38
(dp124
g40
I0
sg41
I0
sg42
I0
sg43
I0
ssg44
(dp125
g40
I0
sg41
I0
sg42
I0
sg43
I0
ssg46
I0
sg47
I0
sg48
I0
sg49
I0
sg50
I1
sg51
I0
sg52
I0
sg53
(g54
S'TL'
p126
g57
g57
tp127
sg59
(ijoueur
rang
p128
(dp129
g33
I5
sg34
S'**'
p130
sg36
g123
sbsg62
(dp131
g40
I0
sg41
I1
sg42
I0
sg43
I0
ssg64
(dp132
g40
I0
sg41
I0
sg42
I0
sg43
I0
ssg66
(dp133
g40
I0
sg41
I0
sg42
I0
sg43
I0
ssg68
(dp134
g40
I0
sg41
I1
sg42
I0
sg43
I0
ssg70
I0
sg71
I0
sg72
S'Frilotov'
p135
sg74
I2
sg75
I0
sg76
I13
sg77
I180
sg78
g79
sg80
(dp136
g82
I10
sg83
I9
sg84
I9
sg85
I12
sg86
I8
sg87
I8
sg88
I5
sg89
I10
sg90
I12
sg91
I10
sg92
I10
sg93
I11
sg94
I4
sg95
I13
sg96
I5
ssg97
I4
sg98
I0
sg99
I0
sg100
I0
sg101
F11.236842105263158
sg102
I0
sg103
I0
sg104
I0
sg105
I0
sg106
g136
sg107
I0
sg108
g57
sg109
I0
sg110
I0
sg111
I0
sg112
I18
sg113
I5
sg114
I0
sg115
S'CV'
p137
sbsS'RJL'
p138
(ijoueur
joueur
p139
(dp140
g27
I0
sg28
I3
sg29
I0
sg30
(ijoueur
rang
p141
(dp142
g33
I6
sg34
S'***'
p143
sg36
S'personnage'
p144
sbsg38
(dp145
g40
I0
sg41
I0
sg42
I0
sg43
I0
ssg44
(dp146
g40
I0
sg41
I0
sg42
I0
sg43
I0
ssg46
I3
sg47
I1
sg48
I38
sg49
I67
sg50
I0
sg51
I0
sg52
I1
sg53
(g54
S'DO'
p147
S'CE'
p148
S'AR'
p149
tp150
sg59
(ijoueur
rang
p151
(dp152
g33
I6
sg34
S'***'
p153
sg36
g144
sbsg62
(dp154
g40
I0
sg41
I1
sg42
I0
sg43
I0
ssg64
(dp155
g40
I0
sg41
I0
sg42
I0
sg43
I0
ssg66
(dp156
g40
I0
sg41
I0
sg42
I0
sg43
I0
ssg68
(dp157
g40
I0
sg41
I1
sg42
I0
sg43
I0
ssg70
I67
sg71
I4
sg72
S'Thorgrim'
p158
sg74
I9
sg75
I38
sg76
I21
sg77
I962
sg78
g79
sg80
(dp159
g82
I8
sg83
I6
sg84
I12
sg85
I12
sg86
I13
sg87
I12
sg88
I11
sg89
I17
sg90
I2
sg91
I11
sg92
I8
sg93
I8
sg94
I12
sg95
I12
sg96
I4
ssg97
I3
sg98
I0
sg99
I0
sg100
I0
sg101
F11.485714285714286
sg102
I0
sg103
I3
sg104
I0
sg105
I0
sg106
g159
sg107
I0
sg108
g57
sg109
I0
sg110
I1
sg111
I0
sg112
I114
sg113
I5
sg114
I0
sg115
S'N'
p160
sbsS'cap'
p161
(ijoueur
joueur
p162
(dp163
g27
I0
sg28
I0
sg29
I0
sg30
(ijoueur
rang
p164
(dp165
g33
I5
sg34
S'**'
p166
sg36
g123
sbsg38
(dp167
g40
I0
sg41
I0
sg42
I0
sg43
I0
ssg44
(dp168
g40
I0
sg41
I0
sg42
I0
sg43
I0
ssg46
I0
sg47
I0
sg48
I0
sg49
I0
sg50
I0
sg51
I0
sg52
I0
sg53
(g54
S'DL'
p169
S'N8'
p170
g57
tp171
sg59
(ijoueur
rang
p172
(dp173
g33
I3
sg34
S'^^^'
p174
sg36
S'rare'
p175
sbsg62
(dp176
g40
I0
sg41
I1
sg42
I0
sg43
I0
ssg64
(dp177
g40
I0
sg41
I0
sg42
I0
sg43
I0
ssg66
(dp178
g40
I0
sg41
I0
sg42
I0
sg43
I0
ssg68
(dp179
g40
I0
sg41
I1
sg42
I0
sg43
I0
ssg70
I0
sg71
I0
sg72
S'Ulmeux'
p180
sg74
I7
sg75
I0
sg76
I19
sg77
I110
sg78
g79
sg80
(dp181
g82
I11
sg83
I10
sg84
I9
sg85
I14
sg86
I5
sg87
I12
sg88
I4
sg89
I14
sg90
I8
sg91
I8
sg92
I8
sg93
I12
sg94
I5
sg95
I10
sg96
I4
ssg97
I2
sg98
I0
sg99
I0
sg100
I0
sg101
F11.62962962962963
sg102
I0
sg103
I0
sg104
I0
sg105
I0
sg106
g181
sg107
I0
sg108
g57
sg109
I0
sg110
I0
sg111
I0
sg112
I11
sg113
I6
sg114
I0
sg115
S'B'
p182
sbsS'B4'
p183
g139
sS'RJC'
p184
g139
sS'B1'
p185
g139
sS'B2'
p186
g139
sS'B3'
p187
g139
sS'SA_pcp2'
p188
(ijoueur
joueur
p189
(dp190
g27
I0
sg28
I0
sg29
I0
sg30
(ijoueur
rang
p191
(dp192
g33
I5
sg34
S'xx'
p193
sg36
g123
sbsg38
(dp194
g40
I0
sg41
I0
sg42
I0
sg43
I0
ssg44
(dp195
g40
I0
sg41
I0
sg42
I0
sg43
I0
ssg46
I0
sg47
I0
sg48
I0
sg49
I0
sg50
I0
sg51
I0
sg52
I0
sg53
(g54
S'PI'
p196
S'TA'
p197
S'DL'
p198
tp199
sg59
(ijoueur
rang
p200
(dp201
g33
I5
sg34
S'xx'
p202
sg36
g123
sbsg62
(dp203
g40
I0
sg41
I1
sg42
I0
sg43
I0
ssg64
(dp204
g40
I0
sg41
I0
sg42
I0
sg43
I0
ssg66
(dp205
g40
I0
sg41
I0
sg42
I0
sg43
I0
ssg68
(dp206
g40
I0
sg41
I1
sg42
I0
sg43
I0
ssg70
I0
sg71
I0
sg72
S'Vrokhaen'
p207
sg74
I5
sg75
I0
sg76
I13
sg77
I1093
sg78
g79
sg80
(dp208
g82
I12
sg83
I10
sg84
I9
sg85
I11
sg86
I1
sg87
I9
sg88
I0
sg89
I11
sg90
I13
sg91
I15
sg92
I11
sg93
I11
sg94
I0
sg95
I11
sg96
I10
ssg97
I4
sg98
I0
sg99
I0
sg100
I0
sg101
F11.441176470588236
sg102
I0
sg103
I0
sg104
I0
sg105
I0
sg106
g208
sg107
I0
sg108
S'SN10'
p209
sg109
I0
sg110
I0
sg111
I0
sg112
I112
sg113
I22
sg114
I0
sg115
S'S'
p210
sbsS'SA_pcp1'
p211
(ijoueur
joueur
p212
(dp213
g27
I0
sg28
I0
sg29
I0
sg30
(ijoueur
rang
p214
(dp215
g33
I5
sg34
S'**'
p216
sg36
g123
sbsg38
(dp217
g40
I0
sg41
I0
sg42
I0
sg43
I0
ssg44
(dp218
g40
I0
sg41
I0
sg42
I0
sg43
I0
ssg46
I0
sg47
I0
sg48
I0
sg49
I0
sg50
I0
sg51
I0
sg52
I0
sg53
(g54
S'DL'
p219
g57
g57
tp220
sg59
(ijoueur
rang
p221
(dp222
g33
I4
sg34
g35
sg36
g37
sbsg62
(dp223
g40
I0
sg41
I1
sg42
I0
sg43
I0
ssg64
(dp224
g40
I0
sg41
I0
sg42
I0
sg43
I0
ssg66
(dp225
g40
I0
sg41
I0
sg42
I0
sg43
I0
ssg68
(dp226
g40
I0
sg41
I1
sg42
I0
sg43
I0
ssg70
I0
sg71
I0
sg72
S'Fetol'
p227
sg74
I9
sg75
I0
sg76
I23
sg77
I99
sg78
g79
sg80
(dp228
g82
I10
sg83
I10
sg84
I9
sg85
I10
sg86
I4
sg87
I12
sg88
I6
sg89
I14
sg90
I14
sg91
I8
sg92
I8
sg93
I8
sg94
I4
sg95
I8
sg96
I5
ssg97
I3
sg98
I0
sg99
I0
sg100
I0
sg101
F10.529411764705882
sg102
I0
sg103
I0
sg104
I0
sg105
I0
sg106
g228
sg107
I0
sg108
g57
sg109
I0
sg110
I0
sg111
I0
sg112
I7
sg113
I3
sg114
I0
sg115
g182
sbsS'drop3'
p229
g139
sS'SA_remp1'
p230
(ijoueur
joueur
p231
(dp232
g27
I0
sg28
I0
sg29
I0
sg30
(ijoueur
rang
p233
(dp234
g33
I2
sg34
S'<<'
p235
sg36
S'special'
p236
sbsg38
(dp237
g40
I0
sg41
I0
sg42
I0
sg43
I0
ssg44
(dp238
g40
I0
sg41
I0
sg42
I0
sg43
I0
ssg46
I0
sg47
I0
sg48
I0
sg49
I0
sg50
I0
sg51
I0
sg52
I0
sg53
(g54
S'TL'
p239
S'DL'
p240
g57
tp241
sg59
(ijoueur
rang
p242
(dp243
g33
I3
sg34
S'^^^'
p244
sg36
g175
sbsg62
(dp245
g40
I0
sg41
I1
sg42
I0
sg43
I0
ssg64
(dp246
g40
I0
sg41
I0
sg42
I0
sg43
I0
ssg66
(dp247
g40
I0
sg41
I0
sg42
I0
sg43
I0
ssg68
(dp248
g40
I0
sg41
I1
sg42
I0
sg43
I0
ssg70
I0
sg71
I0
sg72
S'Lebel'
p249
sg74
I3
sg75
I0
sg76
I12
sg77
I80
sg78
g79
sg80
(dp250
g82
I10
sg83
I9
sg84
I7
sg85
I10
sg86
I4
sg87
I11
sg88
I4
sg89
I11
sg90
I11
sg91
I8
sg92
I9
sg93
I10
sg94
I5
sg95
I12
sg96
I4
ssg97
I5
sg98
I0
sg99
I0
sg100
I0
sg101
F10.447368421052632
sg102
I0
sg103
I0
sg104
I0
sg105
I0
sg106
g250
sg107
I0
sg108
S'DKW10'
p251
sg109
I0
sg110
I0
sg111
I0
sg112
I8
sg113
I3
sg114
I0
sg115
g182
sbsS'drop2'
p252
g139
sS'SA_remp2'
p253
(ijoueur
joueur
p254
(dp255
g27
I0
sg28
I0
sg29
I0
sg30
(ijoueur
rang
p256
(dp257
g33
I4
sg34
g35
sg36
g37
sbsg38
(dp258
g40
I0
sg41
I0
sg42
I0
sg43
I0
ssg44
(dp259
g40
I0
sg41
I0
sg42
I0
sg43
I0
ssg46
I0
sg47
I0
sg48
I0
sg49
I0
sg50
I0
sg51
I0
sg52
I0
sg53
(g54
S'DL'
p260
g57
g57
tp261
sg59
(ijoueur
rang
p262
(dp263
g33
I4
sg34
g35
sg36
g37
sbsg62
(dp264
g40
I0
sg41
I0
sg42
I1
sg43
I0
ssg64
(dp265
g40
I0
sg41
I0
sg42
I0
sg43
I0
ssg66
(dp266
g40
I0
sg41
I0
sg42
I0
sg43
I0
ssg68
(dp267
g40
I0
sg41
I0
sg42
I1
sg43
I0
ssg70
I0
sg71
I0
sg72
S'Kelter'
p268
sg74
I3
sg75
I0
sg76
I17
sg77
I60
sg78
g79
sg80
(dp269
g82
I11
sg83
I10
sg84
I9
sg85
I9
sg86
I4
sg87
I9
sg88
I4
sg89
I11
sg90
I9
sg91
I7
sg92
I8
sg93
I8
sg94
I5
sg95
I9
sg96
I7
ssg97
I0
sg98
I0
sg99
I0
sg100
I0
sg101
F9.222222222222221
sg102
I0
sg103
I0
sg104
I0
sg105
I0
sg106
g269
sg107
I0
sg108
g57
sg109
I0
sg110
I0
sg111
I0
sg112
I6
sg113
I2
sg114
I0
sg115
g182
sbssS'totaux'
p270
(dp271
g19
I0
sg20
I0
sg21
I0
ssS'_compo_defaut_fatigue'
p272
Nsg80
(dp273
g4
I0
sg5
I0
sg6
I0
sg7
I0
sg8
I0
sg9
I0
sg10
I0
sg11
I0
sg12
I0
sg13
I0
sg14
I0
sg15
I0
sg16
I0
ssS'joueurs'
p274
(dp275
S'n12'
p276
(ijoueur
joueur
p277
(dp278
g27
I0
sg28
I0
sg29
I0
sg30
(ijoueur
rang
p279
(dp280
g33
I4
sg34
g35
sg36
g37
sbsg38
(dp281
g40
I0
sg41
I0
sg42
I0
sg43
I0
ssg44
(dp282
g40
I0
sg41
I0
sg42
I0
sg43
I0
ssg46
I0
sg47
I0
sg48
I0
sg49
I0
sg50
I0
sg51
I0
sg52
I0
sg53
(g54
S'C2'
p283
S'AI'
p284
g57
tp285
sg59
(ijoueur
rang
p286
(dp287
g33
I4
sg34
g35
sg36
g37
sbsg62
(dp288
g40
I0
sg41
I0
sg42
I1
sg43
I0
ssg64
(dp289
g40
I0
sg41
I0
sg42
I0
sg43
I0
ssg66
(dp290
g40
I0
sg41
I0
sg42
I0
sg43
I0
ssg68
(dp291
g40
I0
sg41
I0
sg42
I1
sg43
I0
ssg70
I0
sg71
I0
sg72
S'Guetelloy'
p292
sg74
I8
sg75
I0
sg76
I18
sg77
I60
sg78
g79
sg80
(dp293
g82
I9
sg83
I5
sg84
I9
sg85
I10
sg86
I9
sg87
I10
sg88
I7
sg89
I12
sg90
I5
sg91
I10
sg92
I10
sg93
I8
sg94
I6
sg95
I10
sg96
I6
ssg97
I1
sg98
I0
sg99
I0
sg100
I0
sg101
F9.931034482758621
sg102
I0
sg103
I0
sg104
I0
sg105
I0
sg106
g293
sg107
I0
sg108
g57
sg109
I0
sg110
I0
sg111
I0
sg112
I6
sg113
I2
sg114
I0
sg115
g182
sbsS'n13'
p294
(ijoueur
joueur
p295
(dp296
g27
I0
sg28
I0
sg29
I0
sg30
(ijoueur
rang
p297
(dp298
g33
I5
sg34
S'**'
p299
sg36
g123
sbsg38
(dp300
g40
I0
sg41
I0
sg42
I0
sg43
I0
ssg44
(dp301
g40
I0
sg41
I0
sg42
I0
sg43
I0
ssg46
I0
sg47
I0
sg48
I0
sg49
I0
sg50
I0
sg51
I0
sg52
I0
sg53
(g54
S'C2'
p302
S'AR'
p303
g57
tp304
sg59
(ijoueur
rang
p305
(dp306
g33
I5
sg34
S'**'
p307
sg36
g123
sbsg62
(dp308
g40
I0
sg41
I1
sg42
I0
sg43
I0
ssg64
(dp309
g40
I0
sg41
I0
sg42
I0
sg43
I0
ssg66
(dp310
g40
I0
sg41
I0
sg42
I0
sg43
I0
ssg68
(dp311
g40
I0
sg41
I1
sg42
I0
sg43
I0
ssg70
I0
sg71
I0
sg72
S'Du Poloin'
p312
sg74
I8
sg75
I0
sg76
I20
sg77
I110
sg78
g79
sg80
(dp313
g82
I11
sg83
I5
sg84
I13
sg85
I10
sg86
I8
sg87
I9
sg88
I8
sg89
I15
sg90
I7
sg91
I9
sg92
I9
sg93
I5
sg94
I8
sg95
I9
sg96
I6
ssg97
I4
sg98
I0
sg99
I0
sg100
I0
sg101
F10.10344827586207
sg102
I0
sg103
I0
sg104
I0
sg105
I0
sg106
g313
sg107
I0
sg108
g57
sg109
I0
sg110
I0
sg111
I0
sg112
I11
sg113
I3
sg114
I0
sg115
g182
sbsS'n10'
p314
g139
sS'n11'
p315
(ijoueur
joueur
p316
(dp317
g27
I0
sg28
I0
sg29
I0
sg30
(ijoueur
rang
p318
(dp319
g33
I5
sg34
S'**'
p320
sg36
g123
sbsg38
(dp321
g40
I0
sg41
I0
sg42
I0
sg43
I0
ssg44
(dp322
g40
I0
sg41
I0
sg42
I0
sg43
I0
ssg46
I0
sg47
I0
sg48
I0
sg49
I0
sg50
I0
sg51
I0
sg52
I0
sg53
(g54
S'AI'
p323
g57
g57
tp324
sg59
(ijoueur
rang
p325
(dp326
g33
I5
sg34
S'**'
p327
sg36
g123
sbsg62
(dp328
g40
I0
sg41
I1
sg42
I0
sg43
I0
ssg64
(dp329
g40
I0
sg41
I0
sg42
I0
sg43
I0
ssg66
(dp330
g40
I0
sg41
I0
sg42
I0
sg43
I0
ssg68
(dp331
g40
I0
sg41
I1
sg42
I0
sg43
I0
ssg70
I0
sg71
I0
sg72
S'Strepen'
p332
sg74
I8
sg75
I0
sg76
I20
sg77
I180
sg78
g79
sg80
(dp333
g82
I15
sg83
I4
sg84
I10
sg85
I10
sg86
I11
sg87
I8
sg88
I7
sg89
I11
sg90
I10
sg91
I11
sg92
I9
sg93
I6
sg94
I9
sg95
I9
sg96
I3
ssg97
I4
sg98
I0
sg99
I0
sg100
I0
sg101
F10.774193548387096
sg102
I0
sg103
I0
sg104
I0
sg105
I0
sg106
g333
sg107
I0
sg108
g57
sg109
I0
sg110
I0
sg111
I0
sg112
I18
sg113
I4
sg114
I0
sg115
S'CV'
p334
sbsS'n16'
p335
(ijoueur
joueur
p336
(dp337
g27
I0
sg28
I0
sg29
I0
sg30
(ijoueur
rang
p338
(dp339
g33
I4
sg34
g35
sg36
g37
sbsg38
(dp340
g40
I0
sg41
I0
sg42
I0
sg43
I0
ssg44
(dp341
g40
I0
sg41
I0
sg42
I0
sg43
I0
ssg46
I0
sg47
I0
sg48
I0
sg49
I0
sg50
I0
sg51
I0
sg52
I0
sg53
(g54
S'TA'
p342
S'PI'
p343
g57
tp344
sg59
(ijoueur
rang
p345
(dp346
g33
I4
sg34
g35
sg36
g37
sbsg62
(dp347
g40
I0
sg41
I0
sg42
I1
sg43
I0
ssg64
(dp348
g40
I0
sg41
I0
sg42
I0
sg43
I0
ssg66
(dp349
g40
I0
sg41
I0
sg42
I0
sg43
I0
ssg68
(dp350
g40
I0
sg41
I0
sg42
I1
sg43
I0
ssg70
I0
sg71
I0
sg72
S"D'Uvars"
p351
sg74
I8
sg75
I0
sg76
I19
sg77
I60
sg78
g79
sg80
(dp352
g82
I8
sg83
I12
sg84
I7
sg85
I10
sg86
I5
sg87
I12
sg88
I3
sg89
I12
sg90
I5
sg91
I8
sg92
I7
sg93
I7
sg94
I3
sg95
I12
sg96
I13
ssg97
I2
sg98
I0
sg99
I0
sg100
I0
sg101
F10.241379310344827
sg102
I0
sg103
I0
sg104
I0
sg105
I0
sg106
g352
sg107
I0
sg108
g57
sg109
I0
sg110
I0
sg111
I0
sg112
I6
sg113
I5
sg114
I0
sg115
g182
sbsS'n17'
p353
(ijoueur
joueur
p354
(dp355
g27
I0
sg28
I0
sg29
I0
sg30
(ijoueur
rang
p356
(dp357
g33
I4
sg34
g35
sg36
g37
sbsg38
(dp358
g40
I0
sg41
I0
sg42
I0
sg43
I0
ssg44
(dp359
g40
I0
sg41
I0
sg42
I0
sg43
I0
ssg46
I0
sg47
I0
sg48
I0
sg49
I0
sg50
I0
sg51
I0
sg52
I0
sg53
(g54
S'PI'
p360
S'TL'
p361
S'TA'
p362
tp363
sg59
(ijoueur
rang
p364
(dp365
g33
I4
sg34
g35
sg36
g37
sbsg62
(dp366
g40
I0
sg41
I0
sg42
I1
sg43
I0
ssg64
(dp367
g40
I0
sg41
I0
sg42
I0
sg43
I0
ssg66
(dp368
g40
I0
sg41
I0
sg42
I0
sg43
I0
ssg68
(dp369
g40
I0
sg41
I0
sg42
I1
sg43
I0
ssg70
I0
sg71
I0
sg72
S'Petilier'
p370
sg74
I8
sg75
I0
sg76
I17
sg77
I60
sg78
g79
sg80
(dp371
g82
I9
sg83
I7
sg84
I7
sg85
I13
sg86
I3
sg87
I9
sg88
I5
sg89
I9
sg90
I7
sg91
I8
sg92
I10
sg93
I9
sg94
I3
sg95
I9
sg96
I9
ssg97
I0
sg98
I0
sg99
I0
sg100
I0
sg101
F9.222222222222221
sg102
I0
sg103
I0
sg104
I0
sg105
I0
sg106
g371
sg107
I0
sg108
g57
sg109
I0
sg110
I0
sg111
I0
sg112
I6
sg113
I1
sg114
I0
sg115
g182
sbsS'n14'
p372
g25
sS'n15'
p373
(ijoueur
joueur
p374
(dp375
g27
I0
sg28
I0
sg29
I0
sg30
(ijoueur
rang
p376
(dp377
g33
I5
sg34
S'**'
p378
sg36
g123
sbsg38
(dp379
g40
I0
sg41
I1
sg42
I0
sg43
I0
ssg44
(dp380
g40
I0
sg41
I0
sg42
I0
sg43
I0
ssg46
I0
sg47
I0
sg48
I0
sg49
I0
sg50
I0
sg51
I0
sg52
I0
sg53
(g54
S'C1'
p381
S'AR'
p382
S'AI'
p383
tp384
sg59
(ijoueur
rang
p385
(dp386
g33
I5
sg34
S'**'
p387
sg36
g123
sbsg62
(dp388
g40
I0
sg41
I0
sg42
I0
sg43
I0
ssg64
(dp389
g40
I0
sg41
I1
sg42
I0
sg43
I0
ssg66
(dp390
g40
I0
sg41
I0
sg42
I0
sg43
I0
ssg68
(dp391
g40
I0
sg41
I0
sg42
I0
sg43
I0
ssg70
I0
sg71
I0
sg72
S'Matafierd'
p392
sg74
I8
sg75
I0
sg76
I20
sg77
I110
sg78
g79
sg80
(dp393
g82
I13
sg83
I7
sg84
I11
sg85
I11
sg86
I9
sg87
I9
sg88
I7
sg89
I13
sg90
I6
sg91
I9
sg92
I10
sg93
I8
sg94
I9
sg95
I14
sg96
I4
ssg97
I2
sg98
I0
sg99
I0
sg100
I0
sg101
F11.066666666666666
sg102
I0
sg103
I0
sg104
I0
sg105
I0
sg106
g393
sg107
I0
sg108
g57
sg109
I0
sg110
I0
sg111
I0
sg112
I11
sg113
I9
sg114
I0
sg115
g182
sbsS'n18'
p394
g254
sS'n19'
p395
(ijoueur
joueur
p396
(dp397
g27
I0
sg28
I0
sg29
I0
sg30
(ijoueur
rang
p398
(dp399
g33
I5
sg34
S'**'
p400
sg36
g123
sbsg38
(dp401
g40
I0
sg41
I0
sg42
I0
sg43
I0
ssg44
(dp402
g40
I0
sg41
I0
sg42
I0
sg43
I0
ssg46
I0
sg47
I0
sg48
I0
sg49
I0
sg50
I0
sg51
I0
sg52
I0
sg53
(g54
S'TL'
p403
S'N8'
p404
S'DL'
p405
tp406
sg59
(ijoueur
rang
p407
(dp408
g33
I1
sg34
S'^'
p409
sg36
S'base'
p410
sbsg62
(dp411
g40
I0
sg41
I0
sg42
I0
sg43
I0
ssg64
(dp412
g40
I0
sg41
I0
sg42
I0
sg43
I0
ssg66
(dp413
g40
I0
sg41
I0
sg42
I0
sg43
I0
ssg68
(dp414
g40
I0
sg41
I0
sg42
I0
sg43
I0
ssg70
I0
sg71
I0
sg72
S'Bispoek'
p415
sg74
I11
sg75
I0
sg76
I25
sg77
I41
sg78
g79
sg80
(dp416
g82
I8
sg83
I8
sg84
I6
sg85
I8
sg86
I2
sg87
I9
sg88
I4
sg89
I9
sg90
I8
sg91
I6
sg92
I9
sg93
I10
sg94
I5
sg95
I11
sg96
I3
ssg97
I0
sg98
I0
sg99
I0
sg100
I0
sg101
F9.290322580645162
sg102
I0
sg103
I0
sg104
I0
sg105
I0
sg106
g416
sg107
I0
sg108
g57
sg109
I0
sg110
I0
sg111
I0
sg112
I5
sg113
I0
sg114
I0
sg115
S'CV'
p417
sbsS'n22'
p418
(ijoueur
joueur
p419
(dp420
g27
I0
sg28
I0
sg29
I0
sg30
(ijoueur
rang
p421
(dp422
g33
I4
sg34
g35
sg36
g37
sbsg38
(dp423
g40
I0
sg41
I0
sg42
I0
sg43
I0
ssg44
(dp424
g40
I0
sg41
I0
sg42
I0
sg43
I0
ssg46
I0
sg47
I0
sg48
I0
sg49
I0
sg50
I0
sg51
I0
sg52
I0
sg53
(g54
S'AI'
p425
S'AR'
p426
g57
tp427
sg59
(ijoueur
rang
p428
(dp429
g33
I4
sg34
g35
sg36
g37
sbsg62
(dp430
g40
I0
sg41
I0
sg42
I0
sg43
I0
ssg64
(dp431
g40
I0
sg41
I0
sg42
I0
sg43
I0
ssg66
(dp432
g40
I0
sg41
I0
sg42
I0
sg43
I0
ssg68
(dp433
g40
I0
sg41
I0
sg42
I0
sg43
I0
ssg70
I0
sg71
I0
sg72
S'Xouplarh'
p434
sg74
I8
sg75
I0
sg76
I16
sg77
I60
sg78
g79
sg80
(dp435
g82
I10
sg83
I2
sg84
I10
sg85
I11
sg86
I10
sg87
I7
sg88
I7
sg89
I10
sg90
I5
sg91
I8
sg92
I9
sg93
I8
sg94
I9
sg95
I7
sg96
I4
ssg97
I0
sg98
I0
sg99
I0
sg100
I0
sg101
F9.225806451612904
sg102
I0
sg103
I0
sg104
I0
sg105
I0
sg106
g435
sg107
I0
sg108
g57
sg109
I0
sg110
I0
sg111
I0
sg112
I6
sg113
I1
sg114
I0
sg115
S'CV'
p436
sbsS'n21'
p437
(ijoueur
joueur
p438
(dp439
g27
I0
sg28
I0
sg29
I0
sg30
(ijoueur
rang
p440
(dp441
g33
I2
sg34
S'^^'
p442
sg36
g236
sbsg38
(dp443
g40
I0
sg41
I0
sg42
I0
sg43
I0
ssg44
(dp444
g40
I0
sg41
I0
sg42
I0
sg43
I0
ssg46
I0
sg47
I0
sg48
I0
sg49
I0
sg50
I0
sg51
I0
sg52
I0
sg53
(g54
S'AI'
p445
S'CE'
p446
g57
tp447
sg59
(ijoueur
rang
p448
(dp449
g33
I2
sg34
S'^^'
p450
sg36
g236
sbsg62
(dp451
g40
I0
sg41
I0
sg42
I1
sg43
I0
ssg64
(dp452
g40
I0
sg41
I0
sg42
I0
sg43
I0
ssg66
(dp453
g40
I0
sg41
I0
sg42
I0
sg43
I0
ssg68
(dp454
g40
I0
sg41
I0
sg42
I1
sg43
I0
ssg70
I0
sg71
I0
sg72
S'Laroed'
p455
sg74
I8
sg75
I0
sg76
I15
sg77
I100
sg78
g79
sg80
(dp456
g82
I10
sg83
I5
sg84
I10
sg85
I8
sg86
I10
sg87
I6
sg88
I5
sg89
I10
sg90
I7
sg91
I11
sg92
I11
sg93
I10
sg94
I5
sg95
I10
sg96
I5
ssg97
I0
sg98
I0
sg99
I0
sg100
I0
sg101
F9.838709677419354
sg102
I0
sg103
I0
sg104
I0
sg105
I0
sg106
g456
sg107
I0
sg108
S'PRG10'
p457
sg109
I0
sg110
I0
sg111
I0
sg112
I10
sg113
I0
sg114
I0
sg115
S'CHS'
p458
sbsS'n20'
p459
(ijoueur
joueur
p460
(dp461
g27
I0
sg28
I0
sg29
I0
sg30
(ijoueur
rang
p462
(dp463
g33
I2
sg34
S'<<'
p464
sg36
g236
sbsg38
(dp465
g40
I0
sg41
I0
sg42
I1
sg43
I0
ssg44
(dp466
g40
I0
sg41
I0
sg42
I0
sg43
I0
ssg46
I0
sg47
I0
sg48
I0
sg49
I0
sg50
I0
sg51
I0
sg52
I0
sg53
(g54
S'DM'
p467
S'DO'
p468
g57
tp469
sg59
(ijoueur
rang
p470
(dp471
g33
I2
sg34
S'<<'
p472
sg36
g236
sbsg62
(dp473
g40
I0
sg41
I0
sg42
I0
sg43
I0
ssg64
(dp474
g40
I0
sg41
I0
sg42
I1
sg43
I0
ssg66
(dp475
g40
I0
sg41
I0
sg42
I0
sg43
I0
ssg68
(dp476
g40
I0
sg41
I0
sg42
I0
sg43
I0
ssg70
I0
sg71
I0
sg72
S'Laeth'
p477
sg74
I2
sg75
I0
sg76
I13
sg77
I208
sg78
g79
sg80
(dp478
g82
I12
sg83
I3
sg84
I7
sg85
I10
sg86
I10
sg87
I6
sg88
I8
sg89
I7
sg90
I8
sg91
I11
sg92
I8
sg93
I7
sg94
I8
sg95
I8
sg96
I4
ssg97
I4
sg98
I0
sg99
I0
sg100
I0
sg101
F9.379310344827585
sg102
I0
sg103
I0
sg104
I0
sg105
I0
sg106
g478
sg107
I0
sg108
S'MRB8;KAK11'
p479
sg109
I0
sg110
I0
sg111
I0
sg112
I13
sg113
I9
sg114
I0
sg115
S'EN'
p480
sbsS'n8'
p481
(ijoueur
joueur
p482
(dp483
g27
I0
sg28
I0
sg29
I0
sg30
(ijoueur
rang
p484
(dp485
g33
I3
sg34
S'<<<'
p486
sg36
g175
sbsg38
(dp487
g40
I0
sg41
I0
sg42
I0
sg43
I0
ssg44
(dp488
g40
I0
sg41
I0
sg42
I0
sg43
I0
ssg46
I0
sg47
I0
sg48
I0
sg49
I0
sg50
I0
sg51
I0
sg52
I0
sg53
(g54
S'N8'
p489
S'PI'
p490
g57
tp491
sg59
(ijoueur
rang
p492
(dp493
g33
I3
sg34
S'<<<'
p494
sg36
g175
sbsg62
(dp495
g40
I0
sg41
I1
sg42
I0
sg43
I0
ssg64
(dp496
g40
I0
sg41
I0
sg42
I0
sg43
I0
ssg66
(dp497
g40
I0
sg41
I0
sg42
I0
sg43
I0
ssg68
(dp498
g40
I0
sg41
I1
sg42
I0
sg43
I0
ssg70
I0
sg71
I0
sg72
S'Querelead'
p499
sg74
I8
sg75
I0
sg76
I19
sg77
I75
sg78
g79
sg80
(dp500
g82
I5
sg83
I9
sg84
I7
sg85
I9
sg86
I0
sg87
I13
sg88
I1
sg89
I13
sg90
I8
sg91
I5
sg92
I10
sg93
I11
sg94
I2
sg95
I11
sg96
I7
ssg97
I2
sg98
I0
sg99
I0
sg100
I0
sg101
F10.0
sg102
I0
sg103
I0
sg104
I0
sg105
I0
sg106
g500
sg107
I0
sg108
g57
sg109
I0
sg110
I0
sg111
I0
sg112
I8
sg113
I2
sg114
I0
sg115
S'OG'
p501
sbsS'n9'
p502
(ijoueur
joueur
p503
(dp504
g27
I0
sg28
I2
sg29
I0
sg30
(ijoueur
rang
p505
(dp506
g33
I5
sg34
S'xx'
p507
sg36
g123
sbsg38
(dp508
g40
I0
sg41
I0
sg42
I0
sg43
I0
ssg44
(dp509
g40
I0
sg41
I0
sg42
I0
sg43
I0
ssg46
I0
sg47
I0
sg48
I0
sg49
I13
sg50
I0
sg51
I0
sg52
I0
sg53
(g54
S'DM'
p510
g57
g57
tp511
sg59
(ijoueur
rang
p512
(dp513
g33
I5
sg34
S'xx'
p514
sg36
g123
sbsg62
(dp515
g40
I0
sg41
I1
sg42
I0
sg43
I0
ssg64
(dp516
g40
I0
sg41
I0
sg42
I0
sg43
I0
ssg66
(dp517
g40
I0
sg41
I0
sg42
I0
sg43
I0
ssg68
(dp518
g40
I0
sg41
I1
sg42
I0
sg43
I0
ssg70
I13
sg71
I0
sg72
S'Suplatird'
p519
sg74
I2
sg75
I0
sg76
I14
sg77
I250
sg78
g79
sg80
(dp520
g82
I11
sg83
I5
sg84
I11
sg85
I11
sg86
I10
sg87
I7
sg88
I8
sg89
I11
sg90
I8
sg91
I13
sg92
I9
sg93
I9
sg94
I7
sg95
I10
sg96
I4
ssg97
I5
sg98
I0
sg99
I0
sg100
I0
sg101
F10.620689655172415
sg102
I0
sg103
I2
sg104
I0
sg105
I0
sg106
g520
sg107
I0
sg108
g57
sg109
I0
sg110
I0
sg111
I0
sg112
I25
sg113
I4
sg114
I0
sg115
S'CV'
p521
sbsS'n1'
p522
(ijoueur
joueur
p523
(dp524
g27
I0
sg28
I0
sg29
I0
sg30
(ijoueur
rang
p525
(dp526
g33
I1
sg34
S'<'
p527
sg36
g410
sbsg38
(dp528
g40
I0
sg41
I0
sg42
I0
sg43
I0
ssg44
(dp529
g40
I0
sg41
I0
sg42
I0
sg43
I0
ssg46
I0
sg47
I0
sg48
I0
sg49
I0
sg50
I0
sg51
I0
sg52
I0
sg53
(g54
S'PI'
p530
S'TL'
p531
S'TA'
p532
tp533
sg59
(ijoueur
rang
p534
(dp535
g33
I1
sg34
g527
sg36
g410
sbsg62
(dp536
g40
I0
sg41
I1
sg42
I0
sg43
I0
ssg64
(dp537
g40
I0
sg41
I0
sg42
I0
sg43
I0
ssg66
(dp538
g40
I0
sg41
I0
sg42
I0
sg43
I0
ssg68
(dp539
g40
I0
sg41
I1
sg42
I0
sg43
I0
ssg70
I0
sg71
I0
sg72
S'Ledol'
p540
sg74
I3
sg75
I0
sg76
I13
sg77
I50
sg78
g79
sg80
(dp541
g82
I9
sg83
I15
sg84
I6
sg85
I10
sg86
I2
sg87
I12
sg88
I1
sg89
I12
sg90
I4
sg91
I4
sg92
I7
sg93
I11
sg94
I2
sg95
I9
sg96
I8
ssg97
I4
sg98
I0
sg99
I0
sg100
I0
sg101
F10.88888888888889
sg102
I0
sg103
I0
sg104
I0
sg105
I0
sg106
g541
sg107
I0
sg108
S'TO9'
p542
sg109
I0
sg110
I0
sg111
I0
sg112
I5
sg113
I3
sg114
I0
sg115
S'HL'
p543
sbsS'n2'
p544
(ijoueur
joueur
p545
(dp546
g27
I0
sg28
I0
sg29
I0
sg30
(ijoueur
rang
p547
(dp548
g33
I5
sg34
S'**'
p549
sg36
g123
sbsg38
(dp550
g40
I0
sg41
I0
sg42
I0
sg43
I0
ssg44
(dp551
g40
I0
sg41
I0
sg42
I0
sg43
I0
ssg46
I0
sg47
I0
sg48
I0
sg49
I0
sg50
I0
sg51
I0
sg52
I0
sg53
(g54
S'TA'
p552
S'TL'
p553
g57
tp554
sg59
(ijoueur
rang
p555
(dp556
g33
I4
sg34
g35
sg36
g37
sbsg62
(dp557
g40
I0
sg41
I1
sg42
I0
sg43
I0
ssg64
(dp558
g40
I0
sg41
I0
sg42
I0
sg43
I0
ssg66
(dp559
g40
I0
sg41
I0
sg42
I0
sg43
I0
ssg68
(dp560
g40
I0
sg41
I1
sg42
I0
sg43
I0
ssg70
I0
sg71
I0
sg72
S'Jaraol'
p561
sg74
I8
sg75
I0
sg76
I25
sg77
I60
sg78
g79
sg80
(dp562
g82
I13
sg83
I9
sg84
I10
sg85
I12
sg86
I6
sg87
I8
sg88
I7
sg89
I11
sg90
I9
sg91
I12
sg92
I8
sg93
I10
sg94
I8
sg95
I10
sg96
I12
ssg97
I3
sg98
I0
sg99
I0
sg100
I0
sg101
F10.793103448275861
sg102
I0
sg103
I0
sg104
I0
sg105
I0
sg106
g562
sg107
I0
sg108
g57
sg109
I0
sg110
I0
sg111
I0
sg112
I6
sg113
I2
sg114
I0
sg115
S'EN'
p563
sbsS'n3'
p564
g189
sS'n4'
p565
g162
sS'n5'
p566
g212
sS'n6'
p567
g231
sS'n7'
p568
g118
ssS'remplacements'
p569
(dp570
g335
S'n0'
p571
sg353
g571
sg394
g571
sg395
g571
sg418
g571
sg437
g571
sg459
g571
ssb.