(iclub
compo
p0
(dp1
S'caracs_old'
p2
(dp3
S'A'
p4
F145.5
sS'ME'
p5
F100.0
sS'E'
p6
I226
sS'OplusAV'
p7
F71.5
sS'TO_off'
p8
F92.5
sS'OplusAR'
p9
F49.5
sS'M'
p10
F33.5
sS'JP'
p11
F85.5
sS'OmoinsAR'
p12
F87.0
sS'PA'
p13
F102.0
sS'TO_def'
p14
F87.5
sS'OmoinsAV'
p15
F81.5
sS'R'
p16
F155.5
ssS'totaux_old'
p17
(dp18
S'T2'
p19
F166.5
sS'T3'
p20
F113.0
sS'T1'
p21
F172.75
ssS'roles'
p22
(dp23
S'drop1'
p24
(ijoueur
joueur
p25
(dp26
S'rouges_total'
p27
I0
sS'drops_total'
p28
I19
sS'blessure'
p29
I0
sS'RG_max'
p30
(ijoueur
rang
p31
(dp32
S'type_nb'
p33
I5
sS'rang'
p34
S'**'
p35
sS'type'
p36
S'seigneur'
p37
sbsS'MJ2_total'
p38
(dp39
S'SR'
p40
I0
sS'CT'
p41
I6
sS'CR'
p42
I0
sS'ST'
p43
I0
ssS'MJ3_total'
p44
(dp45
g40
I0
sg41
I0
sg42
I0
sg43
I0
ssS'drop_rates_total'
p46
I0
sS'drop_rates_saison'
p47
I0
sS'essais_saison'
p48
I0
sS'penalite_ratees_saison'
p49
I0
sS'transformations_saison'
p50
I0
sS'postes'
p51
(S'dummy'
p52
S'DO'
p53
S'CE'
p54
S'AR'
p55
tp56
sS'RG'
p57
(ijoueur
rang
p58
(dp59
g33
I5
sg34
S'**'
p60
sg36
g37
sbsS'MJ1'
p61
(dp62
g40
I0
sg41
I0
sg42
I0
sg43
I0
ssS'MJ2'
p63
(dp64
g40
I0
sg41
I6
sg42
I0
sg43
I0
ssS'MJ3'
p65
(dp66
g40
I0
sg41
I0
sg42
I0
sg43
I0
ssS'MJ1_total'
p67
(dp68
g40
I0
sg41
I0
sg42
I0
sg43
I0
ssS'penalites_total'
p69
I240
sS'penalites_saison'
p70
I4
sS'nom'
p71
S'Veyeth'
p72
sS'C'
p73
I0
sS'transformations_total'
p74
I121
sS'D'
p75
I12
sS'VAL'
p76
I215
sS'club'
p77
S'KH'
p78
sS'caracs'
p79
(dp80
S'A'
p81
I11
sS'ME'
p82
I5
sS'RP2'
p83
I10
sS'E'
p84
I12
sS'P'
p85
I11
sS'RP1'
p86
I7
sS'JP'
p87
I10
sS'RP_tot'
p88
I10
sS'TO'
p89
I8
sS'PA'
p90
I11
sS'M'
p91
I9
sS'R'
p92
I6
sS'TB'
p93
I9
sS'PL'
p94
I10
sS'TA'
p95
I5
ssS'fatigue'
p96
I11
sS'drop_ratees_total'
p97
I0
sS'blessures_total'
p98
I0
sS'XP'
p99
I0
sS'EV'
p100
F10.424242424242424
sS'penalite_ratees_total'
p101
I0
sS'blessures_saison'
p102
I0
sS'jaunes_total'
p103
I1
sS'caracs_sans_fatigue'
p104
g80
sS'rouges_saison'
p105
I0
sS'anciens_clubs'
p106
S'MRB8;KHR11'
p107
sS'transformation_ratees_total'
p108
I0
sS'drops_saison'
p109
I1
sS'transformation_ratees_saison'
p110
I0
sS'MS'
p111
I99
sS'essais_total'
p112
I15
sS'jaunes_saison'
p113
I1
sS'ARM'
p114
S'HE'
p115
sbsS'SA_scd'
p116
(ijoueur
joueur
p117
(dp118
g27
I0
sg28
I0
sg29
I0
sg30
(ijoueur
rang
p119
(dp120
g33
I4
sg34
S'*'
p121
sg36
S'heros'
p122
sbsg38
(dp123
g40
I0
sg41
I0
sg42
I0
sg43
I0
ssg44
(dp124
g40
I0
sg41
I1
sg42
I4
sg43
I0
ssg46
I0
sg47
I0
sg48
I0
sg49
I0
sg50
I0
sg51
(g52
S'TL'
p125
S'N8'
p126
S'DL'
p127
tp128
sg57
(ijoueur
rang
p129
(dp130
g33
I4
sg34
g121
sg36
g122
sbsg61
(dp131
g40
I0
sg41
I0
sg42
I0
sg43
I0
ssg63
(dp132
g40
I0
sg41
I0
sg42
I0
sg43
I0
ssg65
(dp133
g40
I0
sg41
I1
sg42
I4
sg43
I0
ssg67
(dp134
g40
I0
sg41
I0
sg42
I0
sg43
I0
ssg69
I0
sg70
I0
sg71
S'Tror'
p135
sg73
I4
sg74
I0
sg75
I14
sg76
I154
sg77
g78
sg79
(dp136
g81
I9
sg82
I10
sg83
I7
sg84
I9
sg85
I4
sg86
I9
sg87
I4
sg88
I9
sg89
I10
sg90
I8
sg91
I7
sg92
I10
sg93
I2
sg94
I12
sg95
I6
ssg96
I0
sg97
I0
sg98
I0
sg99
I0
sg100
F9.81578947368421
sg101
I0
sg102
I0
sg103
I0
sg104
g136
sg105
I0
sg106
S'DKW11'
p137
sg108
I0
sg109
I0
sg110
I0
sg111
I19
sg112
I5
sg113
I0
sg114
S'HB'
p138
sbsS'RJL'
p139
g25
sS'cap'
p140
(ijoueur
joueur
p141
(dp142
g27
I0
sg28
I0
sg29
I0
sg30
(ijoueur
rang
p143
(dp144
g33
I5
sg34
S'xx'
p145
sg36
g37
sbsg38
(dp146
g40
I0
sg41
I5
sg42
I0
sg43
I0
ssg44
(dp147
g40
I0
sg41
I0
sg42
I0
sg43
I0
ssg46
I0
sg47
I0
sg48
I1
sg49
I0
sg50
I0
sg51
(g52
S'C2'
p148
S'AI'
p149
S''
p150
tp151
sg57
(ijoueur
rang
p152
(dp153
g33
I5
sg34
S'xx'
p154
sg36
g37
sbsg61
(dp155
g40
I0
sg41
I0
sg42
I0
sg43
I0
ssg63
(dp156
g40
I0
sg41
I5
sg42
I0
sg43
I0
ssg65
(dp157
g40
I0
sg41
I0
sg42
I0
sg43
I0
ssg67
(dp158
g40
I0
sg41
I0
sg42
I0
sg43
I0
ssg69
I0
sg70
I0
sg71
S'Angerith'
p159
sg73
I9
sg74
I0
sg75
I22
sg76
I148
sg77
g78
sg79
(dp160
g81
I9
sg82
I5
sg83
I8
sg84
I13
sg85
I9
sg86
I9
sg87
I8
sg88
I10
sg89
I6
sg90
I8
sg91
I9
sg92
I9
sg93
I9
sg94
I12
sg95
I5
ssg96
I4
sg97
I0
sg98
I0
sg99
I0
sg100
F10.068965517241379
sg101
I0
sg102
I0
sg103
I0
sg104
g160
sg105
I0
sg106
g150
sg108
I0
sg109
I0
sg110
I0
sg111
I15
sg112
I2
sg113
I0
sg114
S'N'
p161
sbsS'B4'
p162
(ijoueur
joueur
p163
(dp164
g27
I0
sg28
I3
sg29
I0
sg30
(ijoueur
rang
p165
(dp166
g33
I4
sg34
g121
sg36
g122
sbsg38
(dp167
g40
I0
sg41
I1
sg42
I0
sg43
I0
ssg44
(dp168
g40
I0
sg41
I0
sg42
I0
sg43
I0
ssg46
I1
sg47
I1
sg48
I0
sg49
I1
sg50
I2
sg51
(g52
S'DO'
p169
S'DM'
p170
g150
tp171
sg57
(ijoueur
rang
p172
(dp173
g33
I4
sg34
g121
sg36
g122
sbsg61
(dp174
g40
I0
sg41
I4
sg42
I0
sg43
I0
ssg63
(dp175
g40
I0
sg41
I1
sg42
I0
sg43
I0
ssg65
(dp176
g40
I0
sg41
I0
sg42
I0
sg43
I0
ssg67
(dp177
g40
I0
sg41
I4
sg42
I0
sg43
I0
ssg69
I54
sg70
I14
sg71
S'Gritenk'
p178
sg73
I8
sg74
I13
sg75
I18
sg76
I238
sg77
g78
sg79
(dp179
g81
I10
sg82
I5
sg83
I9
sg84
I9
sg85
I10
sg86
I8
sg87
I9
sg88
I10
sg89
I6
sg90
I14
sg91
I8
sg92
I6
sg93
I11
sg94
I8
sg95
I6
ssg96
I5
sg97
I0
sg98
I0
sg99
I0
sg100
F9.857142857142858
sg101
I1
sg102
I0
sg103
I0
sg104
g179
sg105
I0
sg106
S'ED11'
p180
sg108
I2
sg109
I2
sg110
I2
sg111
I13
sg112
I4
sg113
I0
sg114
S'S'
p181
sbsS'RJC'
p182
g25
sS'B1'
p183
g163
sS'B2'
p184
g163
sS'B3'
p185
g163
sS'SA_pcp2'
p186
(ijoueur
joueur
p187
(dp188
g27
I0
sg28
I0
sg29
I0
sg30
(ijoueur
rang
p189
(dp190
g33
I5
sg34
S'xx'
p191
sg36
g37
sbsg38
(dp192
g40
I0
sg41
I0
sg42
I0
sg43
I0
ssg44
(dp193
g40
I0
sg41
I0
sg42
I0
sg43
I0
ssg46
I0
sg47
I0
sg48
I0
sg49
I0
sg50
I0
sg51
(g52
S'DL'
p194
S'N8'
p195
g150
tp196
sg57
(ijoueur
rang
p197
(dp198
g33
I5
sg34
S'xx'
p199
sg36
g37
sbsg61
(dp200
g40
I0
sg41
I4
sg42
I1
sg43
I0
ssg63
(dp201
g40
I0
sg41
I0
sg42
I0
sg43
I0
ssg65
(dp202
g40
I0
sg41
I0
sg42
I0
sg43
I0
ssg67
(dp203
g40
I0
sg41
I4
sg42
I1
sg43
I0
ssg69
I0
sg70
I0
sg71
S'Eskendir'
p204
sg73
I2
sg74
I0
sg75
I9
sg76
I85
sg77
g78
sg79
(dp205
g81
I9
sg82
I10
sg83
I8
sg84
I11
sg85
I6
sg86
I12
sg87
I4
sg88
I13
sg89
I11
sg90
I7
sg91
I6
sg92
I8
sg93
I4
sg94
I9
sg95
I2
ssg96
I3
sg97
I0
sg98
I0
sg99
I0
sg100
F9.882352941176471
sg101
I0
sg102
I0
sg103
I0
sg104
g205
sg105
I0
sg106
g150
sg108
I0
sg109
I0
sg110
I0
sg111
I14
sg112
I5
sg113
I0
sg114
g161
sbsS'SA_pcp1'
p206
(ijoueur
joueur
p207
(dp208
g27
I0
sg28
I0
sg29
I0
sg30
(ijoueur
rang
p209
(dp210
g33
I5
sg34
S'**'
p211
sg36
g37
sbsg38
(dp212
g40
I0
sg41
I0
sg42
I0
sg43
I0
ssg44
(dp213
g40
I0
sg41
I0
sg42
I0
sg43
I0
ssg46
I0
sg47
I0
sg48
I0
sg49
I0
sg50
I0
sg51
(g52
S'TL'
p214
S'N8'
p215
g150
tp216
sg57
(ijoueur
rang
p217
(dp218
g33
I5
sg34
S'**'
p219
sg36
g37
sbsg61
(dp220
g40
I0
sg41
I6
sg42
I0
sg43
I0
ssg63
(dp221
g40
I0
sg41
I0
sg42
I0
sg43
I0
ssg65
(dp222
g40
I0
sg41
I0
sg42
I0
sg43
I0
ssg67
(dp223
g40
I0
sg41
I6
sg42
I0
sg43
I0
ssg69
I0
sg70
I0
sg71
S'Amalieth'
p224
sg73
I3
sg74
I0
sg75
I15
sg76
I165
sg77
g78
sg79
(dp225
g81
I14
sg82
I11
sg83
I9
sg84
I12
sg85
I7
sg86
I8
sg87
I7
sg88
I10
sg89
I11
sg90
I11
sg91
I9
sg92
I9
sg93
I8
sg94
I15
sg95
I4
ssg96
I11
sg97
I0
sg98
I0
sg99
I0
sg100
F11.35483870967742
sg101
I0
sg102
I0
sg103
I0
sg104
g225
sg105
I0
sg106
S'APA9'
p226
sg108
I0
sg109
I0
sg110
I0
sg111
I24
sg112
I4
sg113
I0
sg114
S'HE'
p227
sbsS'drop3'
p228
(ijoueur
joueur
p229
(dp230
g27
I0
sg28
I6
sg29
I0
sg30
(ijoueur
rang
p231
(dp232
g33
I6
sg34
S'***'
p233
sg36
S'personnage'
p234
sbsg38
(dp235
g40
I0
sg41
I0
sg42
I0
sg43
I0
ssg44
(dp236
g40
I0
sg41
I0
sg42
I0
sg43
I0
ssg46
I0
sg47
I0
sg48
I0
sg49
I0
sg50
I0
sg51
(g52
S'DM'
p237
g150
g150
tp238
sg57
(ijoueur
rang
p239
(dp240
g33
I6
sg34
S'***'
p241
sg36
g234
sbsg61
(dp242
g40
I0
sg41
I5
sg42
I0
sg43
I0
ssg63
(dp243
g40
I0
sg41
I0
sg42
I0
sg43
I0
ssg65
(dp244
g40
I0
sg41
I0
sg42
I0
sg43
I0
ssg67
(dp245
g40
I0
sg41
I5
sg42
I0
sg43
I0
ssg69
I3
sg70
I0
sg71
S'Malekith'
p246
sg73
I3
sg74
I0
sg75
I12
sg76
I1080
sg77
g78
sg79
(dp247
g81
I11
sg82
I3
sg83
I8
sg84
I12
sg85
I10
sg86
I7
sg87
I9
sg88
I8
sg89
I10
sg90
I12
sg91
I8
sg92
I8
sg93
I9
sg94
I12
sg95
I5
ssg96
I7
sg97
I0
sg98
I0
sg99
I0
sg100
F10.413793103448276
sg101
I0
sg102
I0
sg103
I0
sg104
g247
sg105
I0
sg106
g150
sg108
I0
sg109
I0
sg110
I0
sg111
I70
sg112
I2
sg113
I0
sg114
S'EN'
p248
sbsS'SA_remp1'
p249
(ijoueur
joueur
p250
(dp251
g27
I0
sg28
I0
sg29
I0
sg30
(ijoueur
rang
p252
(dp253
g33
I1
sg34
S'^'
p254
sg36
S'base'
p255
sbsg38
(dp256
g40
I0
sg41
I1
sg42
I1
sg43
I0
ssg44
(dp257
g40
I0
sg41
I0
sg42
I0
sg43
I0
ssg46
I0
sg47
I0
sg48
I0
sg49
I0
sg50
I0
sg51
(g52
S'TL'
p258
S'DL'
p259
g150
tp260
sg57
(ijoueur
rang
p261
(dp262
g33
I2
sg34
S'^^'
p263
sg36
S'special'
p264
sbsg61
(dp265
g40
I0
sg41
I0
sg42
I0
sg43
I0
ssg63
(dp266
g40
I0
sg41
I1
sg42
I1
sg43
I0
ssg65
(dp267
g40
I0
sg41
I0
sg42
I0
sg43
I0
ssg67
(dp268
g40
I0
sg41
I0
sg42
I0
sg43
I0
ssg69
I0
sg70
I0
sg71
S'Maonel'
p269
sg73
I1
sg74
I0
sg75
I14
sg76
I50
sg77
g78
sg79
(dp270
g81
I8
sg82
I10
sg83
I6
sg84
I10
sg85
I6
sg86
I5
sg87
I5
sg88
I6
sg89
I11
sg90
I8
sg91
I9
sg92
I10
sg93
I4
sg94
I10
sg95
I7
ssg96
I0
sg97
I0
sg98
I0
sg99
I0
sg100
F9.5
sg101
I0
sg102
I0
sg103
I0
sg104
g270
sg105
I0
sg106
S'HTH11'
p271
sg108
I0
sg109
I0
sg110
I0
sg111
I5
sg112
I0
sg113
I0
sg114
S'HE'
p272
sbsS'drop2'
p273
g25
sS'SA_remp2'
p274
(ijoueur
joueur
p275
(dp276
g27
I0
sg28
I0
sg29
I0
sg30
(ijoueur
rang
p277
(dp278
g33
I4
sg34
g121
sg36
g122
sbsg38
(dp279
g40
I0
sg41
I0
sg42
I0
sg43
I0
ssg44
(dp280
g40
I0
sg41
I0
sg42
I0
sg43
I0
ssg46
I0
sg47
I0
sg48
I1
sg49
I0
sg50
I0
sg51
(g52
S'N8'
p281
S'TL'
p282
g150
tp283
sg57
(ijoueur
rang
p284
(dp285
g33
I4
sg34
g121
sg36
g122
sbsg61
(dp286
g40
I0
sg41
I6
sg42
I0
sg43
I0
ssg63
(dp287
g40
I0
sg41
I0
sg42
I0
sg43
I0
ssg65
(dp288
g40
I0
sg41
I0
sg42
I0
sg43
I0
ssg67
(dp289
g40
I0
sg41
I6
sg42
I0
sg43
I0
ssg69
I0
sg70
I0
sg71
S'Ravied'
p290
sg73
I8
sg74
I0
sg75
I19
sg76
I60
sg77
g78
sg79
(dp291
g81
I9
sg82
I9
sg83
I7
sg84
I13
sg85
I7
sg86
I15
sg87
I4
sg88
I15
sg89
I10
sg90
I6
sg91
I7
sg92
I9
sg93
I5
sg94
I11
sg95
I4
ssg96
I12
sg97
I0
sg98
I0
sg99
I0
sg100
F10.758620689655173
sg101
I0
sg102
I0
sg103
I0
sg104
g291
sg105
I0
sg106
g150
sg108
I0
sg109
I0
sg110
I0
sg111
I6
sg112
I3
sg113
I0
sg114
g161
sbssS'totaux'
p292
(dp293
g19
I0
sg20
I0
sg21
I0
ssS'_compo_defaut_fatigue'
p294
Nsg79
(dp295
g4
I0
sg5
I0
sg6
I0
sg7
I0
sg8
I0
sg9
I0
sg10
I0
sg11
I0
sg12
I0
sg13
I0
sg14
I0
sg15
I0
sg16
I0
ssS'joueurs'
p296
(dp297
S'n12'
p298
g25
sS'n13'
p299
(ijoueur
joueur
p300
(dp301
g27
I0
sg28
I0
sg29
I0
sg30
(ijoueur
rang
p302
(dp303
g33
I4
sg34
S'x'
p304
sg36
g122
sbsg38
(dp305
g40
I0
sg41
I0
sg42
I0
sg43
I0
ssg44
(dp306
g40
I0
sg41
I0
sg42
I0
sg43
I0
ssg46
I0
sg47
I0
sg48
I0
sg49
I0
sg50
I0
sg51
(g52
S'C2'
p307
S'AR'
p308
g150
tp309
sg57
(ijoueur
rang
p310
(dp311
g33
I4
sg34
g304
sg36
g122
sbsg61
(dp312
g40
I0
sg41
I0
sg42
I5
sg43
I0
ssg63
(dp313
g40
I0
sg41
I0
sg42
I0
sg43
I0
ssg65
(dp314
g40
I0
sg41
I0
sg42
I0
sg43
I0
ssg67
(dp315
g40
I0
sg41
I0
sg42
I5
sg43
I0
ssg69
I0
sg70
I0
sg71
S'Fraty'
p316
sg73
I7
sg74
I0
sg75
I18
sg76
I90
sg77
g78
sg79
(dp317
g81
I10
sg82
I5
sg83
I8
sg84
I11
sg85
I8
sg86
I9
sg87
I7
sg88
I10
sg89
I4
sg90
I7
sg91
I10
sg92
I7
sg93
I6
sg94
I13
sg95
I4
ssg96
I2
sg97
I0
sg98
I0
sg99
I0
sg100
F9.862068965517242
sg101
I0
sg102
I0
sg103
I0
sg104
g317
sg105
I0
sg106
g150
sg108
I0
sg109
I0
sg110
I0
sg111
I9
sg112
I2
sg113
I0
sg114
g161
sbsS'n10'
p318
g163
sS'n11'
p319
g141
sS'n16'
p320
(ijoueur
joueur
p321
(dp322
g27
I0
sg28
I0
sg29
I0
sg30
(ijoueur
rang
p323
(dp324
g33
I3
sg34
S'^^^'
p325
sg36
S'rare'
p326
sbsg38
(dp327
g40
I0
sg41
I0
sg42
I0
sg43
I0
ssg44
(dp328
g40
I0
sg41
I0
sg42
I0
sg43
I0
ssg46
I0
sg47
I0
sg48
I0
sg49
I0
sg50
I0
sg51
(g52
S'PI'
p329
S'TA'
p330
g150
tp331
sg57
(ijoueur
rang
p332
(dp333
g33
I3
sg34
S'^^^'
p334
sg36
g326
sbsg61
(dp335
g40
I0
sg41
I0
sg42
I1
sg43
I0
ssg63
(dp336
g40
I0
sg41
I0
sg42
I0
sg43
I0
ssg65
(dp337
g40
I0
sg41
I0
sg42
I0
sg43
I0
ssg67
(dp338
g40
I0
sg41
I0
sg42
I1
sg43
I0
ssg69
I0
sg70
I0
sg71
S'Vretk'
p339
sg73
I1
sg74
I0
sg75
I14
sg76
I8
sg77
g78
sg79
(dp340
g81
I8
sg82
I10
sg83
I6
sg84
I12
sg85
I3
sg86
I8
sg87
I2
sg88
I8
sg89
I4
sg90
I6
sg91
I6
sg92
I7
sg93
I0
sg94
I9
sg95
I9
ssg96
I0
sg97
I0
sg98
I0
sg99
I0
sg100
F8.758620689655173
sg101
I0
sg102
I0
sg103
I0
sg104
g340
sg105
I0
sg106
g150
sg108
I0
sg109
I0
sg110
I0
sg111
I1
sg112
I0
sg113
I0
sg114
g161
sbsS'n17'
p341
(ijoueur
joueur
p342
(dp343
g27
I0
sg28
I0
sg29
I0
sg30
(ijoueur
rang
p344
(dp345
g33
I5
sg34
S'**'
p346
sg36
g37
sbsg38
(dp347
g40
I0
sg41
I0
sg42
I0
sg43
I0
ssg44
(dp348
g40
I0
sg41
I0
sg42
I0
sg43
I0
ssg46
I0
sg47
I0
sg48
I1
sg49
I0
sg50
I0
sg51
(g52
S'PI'
p349
g150
g150
tp350
sg57
(ijoueur
rang
p351
(dp352
g33
I5
sg34
S'**'
p353
sg36
g37
sbsg61
(dp354
g40
I0
sg41
I1
sg42
I2
sg43
I0
ssg63
(dp355
g40
I0
sg41
I0
sg42
I0
sg43
I0
ssg65
(dp356
g40
I0
sg41
I0
sg42
I0
sg43
I0
ssg67
(dp357
g40
I0
sg41
I1
sg42
I2
sg43
I0
ssg69
I0
sg70
I0
sg71
S'Rodenk'
p358
sg73
I5
sg74
I0
sg75
I12
sg76
I20
sg77
g78
sg79
(dp359
g81
I5
sg82
I10
sg83
I7
sg84
I11
sg85
I6
sg86
I10
sg87
I2
sg88
I10
sg89
I4
sg90
I7
sg91
I8
sg92
I8
sg93
I4
sg94
I10
sg95
I8
ssg96
I5
sg97
I0
sg98
I0
sg99
I0
sg100
F9.148148148148149
sg101
I0
sg102
I0
sg103
I0
sg104
g359
sg105
I0
sg106
S'KAK10'
p360
sg108
I0
sg109
I0
sg110
I0
sg111
I2
sg112
I10
sg113
I0
sg114
g161
sbsS'n14'
p361
(ijoueur
joueur
p362
(dp363
g27
I0
sg28
I0
sg29
I0
sg30
(ijoueur
rang
p364
(dp365
g33
I4
sg34
g121
sg36
g122
sbsg38
(dp366
g40
I0
sg41
I0
sg42
I0
sg43
I0
ssg44
(dp367
g40
I0
sg41
I1
sg42
I2
sg43
I0
ssg46
I0
sg47
I0
sg48
I0
sg49
I0
sg50
I0
sg51
(g52
S'AR'
p368
S'CE'
p369
S'AI'
p370
tp371
sg57
(ijoueur
rang
p372
(dp373
g33
I4
sg34
g121
sg36
g122
sbsg61
(dp374
g40
I0
sg41
I0
sg42
I3
sg43
I0
ssg63
(dp375
g40
I0
sg41
I0
sg42
I0
sg43
I0
ssg65
(dp376
g40
I0
sg41
I1
sg42
I2
sg43
I0
ssg67
(dp377
g40
I0
sg41
I0
sg42
I3
sg43
I0
ssg69
I0
sg70
I0
sg71
S'Kriplets'
p378
sg73
I4
sg74
I0
sg75
I12
sg76
I116
sg77
g78
sg79
(dp379
g81
I11
sg82
I6
sg83
I9
sg84
I9
sg85
I7
sg86
I7
sg87
I8
sg88
I9
sg89
I9
sg90
I10
sg91
I11
sg92
I6
sg93
I6
sg94
I10
sg95
I5
ssg96
I9
sg97
I0
sg98
I0
sg99
I0
sg100
F9.606060606060606
sg101
I0
sg102
I0
sg103
I0
sg104
g379
sg105
I0
sg106
S'APA11'
p380
sg108
I0
sg109
I0
sg110
I0
sg111
I10
sg112
I5
sg113
I0
sg114
g181
sbsS'n15'
p381
(ijoueur
joueur
p382
(dp383
g27
I0
sg28
I1
sg29
I0
sg30
(ijoueur
rang
p384
(dp385
g33
I5
sg34
S'**'
p386
sg36
g37
sbsg38
(dp387
g40
I0
sg41
I6
sg42
I0
sg43
I0
ssg44
(dp388
g40
I0
sg41
I0
sg42
I0
sg43
I0
ssg46
I0
sg47
I0
sg48
I0
sg49
I0
sg50
I0
sg51
(g52
S'C1'
p389
S'AR'
p390
S'DO'
p391
tp392
sg57
(ijoueur
rang
p393
(dp394
g33
I5
sg34
S'**'
p395
sg36
g37
sbsg61
(dp396
g40
I0
sg41
I0
sg42
I0
sg43
I0
ssg63
(dp397
g40
I0
sg41
I6
sg42
I0
sg43
I0
ssg65
(dp398
g40
I0
sg41
I0
sg42
I0
sg43
I0
ssg67
(dp399
g40
I0
sg41
I0
sg42
I0
sg43
I0
ssg69
I67
sg70
I0
sg71
S'Pfessyr'
p400
sg73
I8
sg74
I39
sg75
I22
sg76
I90
sg77
g78
sg79
(dp401
g81
I11
sg82
I4
sg83
I9
sg84
I11
sg85
I10
sg86
I8
sg87
I9
sg88
I10
sg89
I7
sg90
I12
sg91
I8
sg92
I8
sg93
I8
sg94
I16
sg95
I6
ssg96
I11
sg97
I0
sg98
I0
sg99
I0
sg100
F11.133333333333333
sg101
I0
sg102
I0
sg103
I0
sg104
g401
sg105
I0
sg106
g150
sg108
I0
sg109
I0
sg110
I0
sg111
I9
sg112
I2
sg113
I0
sg114
g181
sbsS'n18'
p402
(ijoueur
joueur
p403
(dp404
g27
I0
sg28
I0
sg29
I0
sg30
(ijoueur
rang
p405
(dp406
g33
I4
sg34
g304
sg36
g122
sbsg38
(dp407
g40
I0
sg41
I0
sg42
I0
sg43
I0
ssg44
(dp408
g40
I0
sg41
I0
sg42
I0
sg43
I0
ssg46
I0
sg47
I0
sg48
I0
sg49
I0
sg50
I0
sg51
(g52
S'DL'
p409
g150
g150
tp410
sg57
(ijoueur
rang
p411
(dp412
g33
I4
sg34
g304
sg36
g122
sbsg61
(dp413
g40
I0
sg41
I0
sg42
I0
sg43
I0
ssg63
(dp414
g40
I0
sg41
I0
sg42
I0
sg43
I0
ssg65
(dp415
g40
I0
sg41
I0
sg42
I0
sg43
I0
ssg67
(dp416
g40
I0
sg41
I0
sg42
I0
sg43
I0
ssg69
I0
sg70
I0
sg71
S'Ittedr'
p417
sg73
I8
sg74
I0
sg75
I22
sg76
I90
sg77
g78
sg79
(dp418
g81
I9
sg82
I7
sg83
I6
sg84
I10
sg85
I4
sg86
I11
sg87
I4
sg88
I11
sg89
I9
sg90
I6
sg91
I8
sg92
I9
sg93
I4
sg94
I10
sg95
I5
ssg96
I0
sg97
I0
sg98
I0
sg99
I0
sg100
F9.148148148148149
sg101
I0
sg102
I0
sg103
I0
sg104
g418
sg105
I0
sg106
g150
sg108
I0
sg109
I0
sg110
I0
sg111
I9
sg112
I0
sg113
I0
sg114
g161
sbsS'n19'
p419
g250
sS'n22'
p420
(ijoueur
joueur
p421
(dp422
g27
I0
sg28
I0
sg29
I0
sg30
(ijoueur
rang
p423
(dp424
g33
I1
sg34
S'>'
p425
sg36
g255
sbsg38
(dp426
g40
I0
sg41
I0
sg42
I0
sg43
I0
ssg44
(dp427
g40
I0
sg41
I0
sg42
I0
sg43
I0
ssg46
I0
sg47
I0
sg48
I0
sg49
I0
sg50
I0
sg51
(g52
S'AI'
p428
S'CE'
p429
g150
tp430
sg57
(ijoueur
rang
p431
(dp432
g33
I1
sg34
g425
sg36
g255
sbsg61
(dp433
g40
I0
sg41
I0
sg42
I1
sg43
I0
ssg63
(dp434
g40
I0
sg41
I0
sg42
I0
sg43
I0
ssg65
(dp435
g40
I0
sg41
I0
sg42
I0
sg43
I0
ssg67
(dp436
g40
I0
sg41
I0
sg42
I1
sg43
I0
ssg69
I0
sg70
I0
sg71
S'Gnok'
p437
sg73
I1
sg74
I0
sg75
I10
sg76
I25
sg77
g78
sg79
(dp438
g81
I11
sg82
I4
sg83
I6
sg84
I9
sg85
I7
sg86
I9
sg87
I4
sg88
I9
sg89
I4
sg90
I7
sg91
I7
sg92
I6
sg93
I6
sg94
I9
sg95
I2
ssg96
I0
sg97
I0
sg98
I0
sg99
I0
sg100
F8.548387096774194
sg101
I0
sg102
I0
sg103
I0
sg104
g438
sg105
I0
sg106
S'FS11'
p439
sg108
I0
sg109
I0
sg110
I0
sg111
I5
sg112
I1
sg113
I0
sg114
S'O'
p440
sbsS'n21'
p441
(ijoueur
joueur
p442
(dp443
g27
I0
sg28
I0
sg29
I0
sg30
(ijoueur
rang
p444
(dp445
g33
I1
sg34
g254
sg36
g255
sbsg38
(dp446
g40
I0
sg41
I0
sg42
I0
sg43
I0
ssg44
(dp447
g40
I0
sg41
I0
sg42
I0
sg43
I0
ssg46
I0
sg47
I0
sg48
I0
sg49
I0
sg50
I0
sg51
(g52
S'C2'
p448
g150
g150
tp449
sg57
(ijoueur
rang
p450
(dp451
g33
I1
sg34
g254
sg36
g255
sbsg61
(dp452
g40
I0
sg41
I0
sg42
I0
sg43
I0
ssg63
(dp453
g40
I0
sg41
I0
sg42
I0
sg43
I0
ssg65
(dp454
g40
I0
sg41
I0
sg42
I0
sg43
I0
ssg67
(dp455
g40
I0
sg41
I0
sg42
I0
sg43
I0
ssg69
I0
sg70
I0
sg71
S'Vikk'
p456
sg73
I8
sg74
I0
sg75
I16
sg76
I11
sg77
g78
sg79
(dp457
g81
I7
sg82
I7
sg83
I8
sg84
I13
sg85
I6
sg86
I6
sg87
I6
sg88
I8
sg89
I3
sg90
I6
sg91
I7
sg92
I9
sg93
I8
sg94
I9
sg95
I5
ssg96
I0
sg97
I0
sg98
I0
sg99
I0
sg100
F8.275862068965518
sg101
I0
sg102
I0
sg103
I0
sg104
g457
sg105
I0
sg106
g150
sg108
I0
sg109
I0
sg110
I0
sg111
I1
sg112
I0
sg113
I0
sg114
g161
sbsS'n20'
p458
(ijoueur
joueur
p459
(dp460
g27
I0
sg28
I0
sg29
I0
sg30
(ijoueur
rang
p461
(dp462
g33
I1
sg34
g425
sg36
g255
sbsg38
(dp463
g40
I0
sg41
I0
sg42
I1
sg43
I0
ssg44
(dp464
g40
I0
sg41
I0
sg42
I0
sg43
I0
ssg46
I0
sg47
I0
sg48
I0
sg49
I0
sg50
I0
sg51
(g52
S'DO'
p465
S'CE'
p466
g150
tp467
sg57
(ijoueur
rang
p468
(dp469
g33
I1
sg34
g425
sg36
g255
sbsg61
(dp470
g40
I0
sg41
I2
sg42
I2
sg43
I0
ssg63
(dp471
g40
I0
sg41
I0
sg42
I1
sg43
I0
ssg65
(dp472
g40
I0
sg41
I0
sg42
I0
sg43
I0
ssg67
(dp473
g40
I0
sg41
I2
sg42
I2
sg43
I0
ssg69
I0
sg70
I0
sg71
S'Traoun'
p474
sg73
I3
sg74
I0
sg75
I14
sg76
I7
sg77
g78
sg79
(dp475
g81
I8
sg82
I5
sg83
I9
sg84
I12
sg85
I11
sg86
I6
sg87
I8
sg88
I9
sg89
I4
sg90
I11
sg91
I7
sg92
I5
sg93
I6
sg94
I9
sg95
I3
ssg96
I2
sg97
I0
sg98
I0
sg99
I0
sg100
F9.424242424242424
sg101
I0
sg102
I0
sg103
I0
sg104
g475
sg105
I0
sg106
g150
sg108
I0
sg109
I0
sg110
I0
sg111
I1
sg112
I3
sg113
I0
sg114
g161
sbsS'n8'
p476
g275
sS'n9'
p477
g229
sS'n1'
p478
(ijoueur
joueur
p479
(dp480
g27
I0
sg28
I0
sg29
I0
sg30
(ijoueur
rang
p481
(dp482
g33
I5
sg34
S'xx'
p483
sg36
g37
sbsg38
(dp484
g40
I0
sg41
I0
sg42
I0
sg43
I0
ssg44
(dp485
g40
I0
sg41
I0
sg42
I0
sg43
I0
ssg46
I0
sg47
I0
sg48
I0
sg49
I0
sg50
I0
sg51
(g52
S'PI'
p486
g150
g150
tp487
sg57
(ijoueur
rang
p488
(dp489
g33
I5
sg34
S'xx'
p490
sg36
g37
sbsg61
(dp491
g40
I0
sg41
I3
sg42
I0
sg43
I0
ssg63
(dp492
g40
I0
sg41
I0
sg42
I0
sg43
I0
ssg65
(dp493
g40
I0
sg41
I0
sg42
I0
sg43
I0
ssg67
(dp494
g40
I0
sg41
I3
sg42
I0
sg43
I0
ssg69
I0
sg70
I0
sg71
S'Niad'
p495
sg73
I5
sg74
I0
sg75
I16
sg76
I90
sg77
g78
sg79
(dp496
g81
I11
sg82
I11
sg83
I7
sg84
I12
sg85
I5
sg86
I12
sg87
I5
sg88
I12
sg89
I7
sg90
I7
sg91
I8
sg92
I9
sg93
I3
sg94
I10
sg95
I8
ssg96
I0
sg97
I0
sg98
I1
sg99
I0
sg100
F10.444444444444445
sg101
I0
sg102
I1
sg103
I0
sg104
g496
sg105
I0
sg106
g150
sg108
I0
sg109
I0
sg110
I0
sg111
I9
sg112
I0
sg113
I0
sg114
g161
sbsS'n2'
p497
(ijoueur
joueur
p498
(dp499
g27
I0
sg28
I0
sg29
I0
sg30
(ijoueur
rang
p500
(dp501
g33
I1
sg34
g254
sg36
g255
sbsg38
(dp502
g40
I0
sg41
I0
sg42
I5
sg43
I0
ssg44
(dp503
g40
I0
sg41
I0
sg42
I0
sg43
I0
ssg46
I0
sg47
I0
sg48
I0
sg49
I0
sg50
I0
sg51
(g52
S'PI'
p504
S'TA'
p505
g150
tp506
sg57
(ijoueur
rang
p507
(dp508
g33
I1
sg34
g254
sg36
g255
sbsg61
(dp509
g40
I0
sg41
I0
sg42
I0
sg43
I0
ssg63
(dp510
g40
I0
sg41
I0
sg42
I5
sg43
I0
ssg65
(dp511
g40
I0
sg41
I0
sg42
I0
sg43
I0
ssg67
(dp512
g40
I0
sg41
I0
sg42
I0
sg43
I0
ssg69
I0
sg70
I0
sg71
S'Mkacoel'
p513
sg73
I10
sg74
I0
sg75
I20
sg76
I13
sg77
g78
sg79
(dp514
g81
I6
sg82
I10
sg83
I6
sg84
I11
sg85
I3
sg86
I8
sg87
I3
sg88
I8
sg89
I3
sg90
I9
sg91
I7
sg92
I8
sg93
I3
sg94
I10
sg95
I8
ssg96
I0
sg97
I0
sg98
I0
sg99
I0
sg100
F8.962962962962964
sg101
I0
sg102
I0
sg103
I0
sg104
g514
sg105
I0
sg106
g150
sg108
I0
sg109
I0
sg110
I0
sg111
I2
sg112
I0
sg113
I0
sg114
g161
sbsS'n3'
p515
(ijoueur
joueur
p516
(dp517
g27
I0
sg28
I0
sg29
I0
sg30
(ijoueur
rang
p518
(dp519
g33
I4
sg34
g121
sg36
g122
sbsg38
(dp520
g40
I0
sg41
I0
sg42
I0
sg43
I0
ssg44
(dp521
g40
I0
sg41
I0
sg42
I0
sg43
I0
ssg46
I0
sg47
I0
sg48
I0
sg49
I0
sg50
I0
sg51
(g52
S'PI'
p522
g150
g150
tp523
sg57
(ijoueur
rang
p524
(dp525
g33
I4
sg34
g121
sg36
g122
sbsg61
(dp526
g40
I0
sg41
I2
sg42
I3
sg43
I0
ssg63
(dp527
g40
I0
sg41
I0
sg42
I0
sg43
I0
ssg65
(dp528
g40
I0
sg41
I0
sg42
I0
sg43
I0
ssg67
(dp529
g40
I0
sg41
I2
sg42
I3
sg43
I0
ssg69
I0
sg70
I0
sg71
S'Gofedr'
p530
sg73
I7
sg74
I0
sg75
I17
sg76
I193
sg77
g78
sg79
(dp531
g81
I6
sg82
I12
sg83
I8
sg84
I9
sg85
I5
sg86
I10
sg87
I2
sg88
I11
sg89
I8
sg90
I10
sg91
I8
sg92
I10
sg93
I5
sg94
I9
sg95
I7
ssg96
I6
sg97
I0
sg98
I0
sg99
I0
sg100
F9.851851851851851
sg101
I0
sg102
I0
sg103
I0
sg104
g531
sg105
I0
sg106
S'SN10'
p532
sg108
I0
sg109
I0
sg110
I0
sg111
I19
sg112
I5
sg113
I0
sg114
S'HB'
p533
sbsS'n4'
p534
g187
sS'n5'
p535
g117
sS'n6'
p536
(ijoueur
joueur
p537
(dp538
g27
I0
sg28
I0
sg29
I0
sg30
(ijoueur
rang
p539
(dp540
g33
I5
sg34
S'**'
p541
sg36
g37
sbsg38
(dp542
g40
I0
sg41
I0
sg42
I1
sg43
I0
ssg44
(dp543
g40
I0
sg41
I0
sg42
I0
sg43
I0
ssg46
I0
sg47
I0
sg48
I0
sg49
I0
sg50
I0
sg51
(g52
S'TL'
p544
S'N8'
p545
g150
tp546
sg57
(ijoueur
rang
p547
(dp548
g33
I5
sg34
S'**'
p549
sg36
g37
sbsg61
(dp550
g40
I0
sg41
I2
sg42
I3
sg43
I0
ssg63
(dp551
g40
I0
sg41
I0
sg42
I1
sg43
I0
ssg65
(dp552
g40
I0
sg41
I0
sg42
I0
sg43
I0
ssg67
(dp553
g40
I0
sg41
I2
sg42
I3
sg43
I0
ssg69
I0
sg70
I0
sg71
S'Gardot'
p554
sg73
I6
sg74
I0
sg75
I15
sg76
I323
sg77
g78
sg79
(dp555
g81
I11
sg82
I11
sg83
I7
sg84
I9
sg85
I6
sg86
I9
sg87
I5
sg88
I9
sg89
I9
sg90
I7
sg91
I10
sg92
I11
sg93
I5
sg94
I13
sg95
I8
ssg96
I9
sg97
I0
sg98
I0
sg99
I0
sg100
F10.67741935483871
sg101
I0
sg102
I0
sg103
I0
sg104
g555
sg105
I0
sg106
S'MDL9'
p556
sg108
I0
sg109
I0
sg110
I0
sg111
I26
sg112
I6
sg113
I0
sg114
S'OG'
p557
sbsS'n7'
p558
g207
ssS'remplacements'
p559
(dp560
g320
S'n0'
p561
sg341
g561
sg402
g561
sg419
g561
sg420
g561
sg441
g561
sg458
g561
ssb.