(iclub
compo
p0
(dp1
S'caracs_old'
p2
(dp3
S'A'
p4
F187.0
sS'ME'
p5
F102.0
sS'E'
p6
I233
sS'OplusAV'
p7
F65.5
sS'TO_off'
p8
F107.0
sS'OplusAR'
p9
F84.0
sS'M'
p10
F56.0
sS'JP'
p11
F88.0
sS'OmoinsAR'
p12
F69.5
sS'PA'
p13
F125.0
sS'TO_def'
p14
F97.5
sS'OmoinsAV'
p15
F67.0
sS'R'
p16
F184.5
ssS'totaux_old'
p17
(dp18
S'T2'
p19
F200.0
sS'T3'
p20
F116.5
sS'T1'
p21
F194.375
ssS'roles'
p22
(dp23
S'drop1'
p24
(ijoueur
joueur
p25
(dp26
S'rouges_total'
p27
I0
sS'drops_total'
p28
I0
sS'blessure'
p29
I0
sS'RG_max'
p30
(ijoueur
rang
p31
(dp32
S'type_nb'
p33
I5
sS'rang'
p34
S'**'
p35
sS'type'
p36
S'seigneur'
p37
sbsS'MJ2_total'
p38
(dp39
S'SR'
p40
I0
sS'ST'
p41
I0
sS'CR'
p42
I0
sS'CT'
p43
I0
ssS'MJ3_total'
p44
(dp45
g40
I0
sg41
I0
sg42
I0
sg43
I0
ssS'anciens_clubs'
p46
S'MRB9;MDL11'
p47
sS'drop_rates_saison'
p48
I0
sS'essais_saison'
p49
I0
sS'penalite_ratees_saison'
p50
I0
sS'transformations_saison'
p51
I0
sS'postes'
p52
(S'dummy'
p53
S'AI'
p54
S'AR'
p55
S'DM'
p56
tp57
sS'RG'
p58
(ijoueur
rang
p59
(dp60
g33
I5
sg34
S'**'
p61
sg36
g37
sbsS'MJ1'
p62
(dp63
g40
I0
sg41
I0
sg42
I0
sg43
I0
ssS'MJ2'
p64
(dp65
g40
I0
sg41
I0
sg42
I0
sg43
I0
ssS'MJ3'
p66
(dp67
g40
I0
sg41
I0
sg42
I0
sg43
I0
ssS'MJ1_total'
p68
(dp69
g40
I0
sg41
I0
sg42
I0
sg43
I0
ssS'penalites_total'
p70
I24
sS'penalites_saison'
p71
I0
sS'nom'
p72
S'Uthimol'
p73
sS'C'
p74
I4
sS'transformations_total'
p75
I16
sS'D'
p76
I14
sS'VAL'
p77
I633
sS'club'
p78
S'HTH'
p79
sS'caracs'
p80
(dp81
S'A'
p82
I13
sS'ME'
p83
I6
sS'RP2'
p84
I10
sS'E'
p85
I12
sS'TO'
p86
I9
sS'RP1'
p87
I10
sS'JP'
p88
I9
sS'RP_tot'
p89
I13
sS'P'
p90
I11
sS'PA'
p91
I14
sS'M'
p92
I10
sS'R'
p93
I4
sS'TB'
p94
I7
sS'PL'
p95
I11
sS'TA'
p96
I6
ssS'fatigue'
p97
I0
sS'drop_ratees_total'
p98
I0
sS'blessures_total'
p99
I0
sS'XP'
p100
I0
sS'EV'
p101
F11.741935483870968
sS'penalite_ratees_total'
p102
I0
sS'blessures_saison'
p103
I0
sS'jaunes_total'
p104
I0
sS'caracs_sans_fatigue'
p105
g81
sS'rouges_saison'
p106
I0
sS'transformation_ratees_total'
p107
I0
sS'drops_saison'
p108
I0
sS'transformation_ratees_saison'
p109
I0
sS'MS'
p110
I50
sS'essais_total'
p111
I17
sS'jaunes_saison'
p112
I0
sS'ARM'
p113
S'EN'
p114
sbsS'SA_scd'
p115
(ijoueur
joueur
p116
(dp117
g27
I0
sg28
I0
sg29
I0
sg30
(ijoueur
rang
p118
(dp119
g33
I5
sg34
S'**'
p120
sg36
S'seigneur'
p121
sbsg38
(dp122
S'SR'
p123
I0
sS'ST'
p124
I0
sS'CR'
p125
I0
sS'CT'
p126
I0
ssg44
(dp127
g123
I0
sg124
I0
sg125
I0
sg126
I0
ssg46
S''
p128
sg48
I0
sg49
I0
sg50
I0
sg51
I0
sg52
(g53
S'TL'
p129
g128
g128
tp130
sg58
(ijoueur
rang
p131
(dp132
g33
I4
sg34
S'*'
p133
sg36
S'heros'
p134
sbsg62
(dp135
g123
I0
sg124
I0
sg125
I0
sg126
I0
ssg64
(dp136
g123
I0
sg124
I0
sg125
I0
sg126
I0
ssg66
(dp137
g123
I0
sg124
I0
sg125
I0
sg126
I0
ssg68
(dp138
g123
I0
sg124
I0
sg125
I0
sg126
I0
ssg70
I0
sg71
I0
sg72
S'Le Catel'
p139
sg74
I8
sg75
I0
sg76
I24
sg77
I66
sg78
g79
sg80
(dp140
S'A'
p141
I10
sS'ME'
p142
I10
sS'RP2'
p143
I8
sS'E'
p144
I10
sS'TO'
p145
I10
sS'RP1'
p146
I8
sS'JP'
p147
I5
sS'RP_tot'
p148
I9
sS'P'
p149
I4
sS'PA'
p150
I9
sS'M'
p151
I8
sS'R'
p152
I11
sS'TB'
p153
I5
sS'PL'
p154
I10
sS'TA'
p155
I5
ssg97
I0
sg98
I0
sg99
I0
sg100
I0
sg101
F10.0
sg102
I0
sg103
I0
sg104
I0
sg105
g140
sg106
I0
sg107
I0
sg108
I0
sg109
I0
sg110
I6
sg111
I0
sg112
I0
sg113
S'B'
p156
sbsS'RJL'
p157
(ijoueur
joueur
p158
(dp159
g27
I0
sg28
I7
sg29
I0
sg30
(ijoueur
rang
p160
(dp161
g33
I6
sg34
S'***'
p162
sg36
S'personnage'
p163
sbsg38
(dp164
g40
I0
sg41
I0
sg42
I0
sg43
I0
ssg44
(dp165
g40
I0
sg41
I0
sg42
I0
sg43
I0
ssg46
S'MRB10'
p166
sg48
I0
sg49
I0
sg50
I0
sg51
I0
sg52
(g53
S'DO'
p167
g128
g128
tp168
sg58
(ijoueur
rang
p169
(dp170
g33
I6
sg34
S'***'
p171
sg36
g163
sbsg62
(dp172
g40
I0
sg41
I0
sg42
I0
sg43
I0
ssg64
(dp173
g40
I0
sg41
I0
sg42
I0
sg43
I0
ssg66
(dp174
g40
I0
sg41
I0
sg42
I0
sg43
I0
ssg68
(dp175
g40
I0
sg41
I0
sg42
I0
sg43
I0
ssg70
I95
sg71
I0
sg72
S'Naestra'
p176
sg74
I8
sg75
I62
sg76
I17
sg77
I828
sg78
g79
sg80
(dp177
g82
I12
sg83
I3
sg84
I10
sg85
I11
sg86
I4
sg87
I8
sg88
I11
sg89
I11
sg90
I11
sg91
I12
sg92
I10
sg93
I9
sg94
I11
sg95
I10
sg96
I5
ssg97
I0
sg98
I0
sg99
I0
sg100
I0
sg101
F10.971428571428572
sg102
I0
sg103
I0
sg104
I0
sg105
g177
sg106
I0
sg107
I0
sg108
I0
sg109
I0
sg110
I38
sg111
I4
sg112
I0
sg113
S'ES'
p178
sbsS'cap'
p179
(ijoueur
joueur
p180
(dp181
g27
I0
sg28
I0
sg29
I0
sg30
(ijoueur
rang
p182
(dp183
g33
I4
sg34
S'*'
p184
sg36
S'heros'
p185
sbsg38
(dp186
g40
I0
sg41
I0
sg42
I0
sg43
I0
ssg44
(dp187
g40
I0
sg41
I0
sg42
I0
sg43
I0
ssg46
g128
sg48
I0
sg49
I0
sg50
I0
sg51
I0
sg52
(g53
S'C2'
p188
S'AR'
p189
S'AI'
p190
tp191
sg58
(ijoueur
rang
p192
(dp193
g33
I4
sg34
g184
sg36
g185
sbsg62
(dp194
g40
I0
sg41
I0
sg42
I0
sg43
I0
ssg64
(dp195
g40
I0
sg41
I0
sg42
I0
sg43
I0
ssg66
(dp196
g40
I0
sg41
I0
sg42
I0
sg43
I0
ssg68
(dp197
g40
I0
sg41
I0
sg42
I0
sg43
I0
ssg70
I0
sg71
I0
sg72
S'Guzum'
p198
sg74
I1
sg75
I0
sg76
I11
sg77
I50
sg78
g79
sg80
(dp199
g82
I10
sg83
I5
sg84
I6
sg85
I14
sg86
I3
sg87
I10
sg88
I6
sg89
I10
sg90
I8
sg91
I10
sg92
I8
sg93
I8
sg94
I8
sg95
I11
sg96
I6
ssg97
I0
sg98
I0
sg99
I0
sg100
I0
sg101
F10.172413793103448
sg102
I0
sg103
I0
sg104
I0
sg105
g199
sg106
I0
sg107
I0
sg108
I0
sg109
I0
sg110
I7
sg111
I10
sg112
I0
sg113
S'O'
p200
sbsS'B4'
p201
g158
sS'RJC'
p202
g158
sS'B1'
p203
g158
sS'B2'
p204
g158
sS'B3'
p205
g158
sS'SA_pcp2'
p206
(ijoueur
joueur
p207
(dp208
g27
I0
sg28
I0
sg29
I0
sg30
(ijoueur
rang
p209
(dp210
g33
I3
sg34
S'^^^'
p211
sg36
S'rare'
p212
sbsg38
(dp213
g123
I0
sg124
I0
sg125
I0
sg126
I0
ssg44
(dp214
g123
I0
sg124
I0
sg125
I0
sg126
I0
ssg46
g128
sg48
I0
sg49
I0
sg50
I0
sg51
I0
sg52
(g53
S'DL'
p215
g128
g128
tp216
sg58
(ijoueur
rang
p217
(dp218
g33
I3
sg34
S'^^^'
p219
sg36
g212
sbsg62
(dp220
g123
I0
sg124
I0
sg125
I0
sg126
I0
ssg64
(dp221
g123
I0
sg124
I0
sg125
I0
sg126
I0
ssg66
(dp222
g123
I0
sg124
I0
sg125
I0
sg126
I0
ssg68
(dp223
g123
I0
sg124
I0
sg125
I0
sg126
I0
ssg70
I0
sg71
I0
sg72
S'Noroel'
p224
sg74
I6
sg75
I0
sg76
I19
sg77
I25
sg78
g79
sg80
(dp225
g141
I9
sg142
I10
sg143
I6
sg144
I10
sg145
I11
sg146
I9
sg147
I5
sg148
I9
sg149
I6
sg150
I8
sg151
I8
sg152
I9
sg153
I4
sg154
I11
sg155
I5
ssg97
I0
sg98
I0
sg99
I0
sg100
I0
sg101
F9.823529411764707
sg102
I0
sg103
I0
sg104
I0
sg105
g225
sg106
I0
sg107
I0
sg108
I0
sg109
I0
sg110
I2
sg111
I2
sg112
I0
sg113
S'EN'
p226
sbsS'SA_pcp1'
p227
(ijoueur
joueur
p228
(dp229
g27
I0
sg28
I0
sg29
I0
sg30
(ijoueur
rang
p230
(dp231
g33
I4
sg34
g133
sg36
g134
sbsg38
(dp232
g123
I0
sg124
I0
sg125
I0
sg126
I0
ssg44
(dp233
g123
I0
sg124
I0
sg125
I0
sg126
I0
ssg46
g128
sg48
I0
sg49
I0
sg50
I0
sg51
I0
sg52
(g53
S'DL'
p234
g128
g128
tp235
sg58
(ijoueur
rang
p236
(dp237
g33
I4
sg34
g133
sg36
g134
sbsg62
(dp238
g123
I0
sg124
I0
sg125
I0
sg126
I0
ssg64
(dp239
g123
I0
sg124
I0
sg125
I0
sg126
I0
ssg66
(dp240
g123
I0
sg124
I0
sg125
I0
sg126
I0
ssg68
(dp241
g123
I0
sg124
I0
sg125
I0
sg126
I0
ssg70
I0
sg71
I0
sg72
S'Daethyl'
p242
sg74
I8
sg75
I0
sg76
I23
sg77
I78
sg78
g79
sg80
(dp243
g141
I13
sg142
I11
sg143
I8
sg144
I12
sg145
I13
sg146
I8
sg147
I8
sg148
I9
sg149
I7
sg150
I9
sg151
I9
sg152
I8
sg153
I9
sg154
I10
sg155
I7
ssg97
I0
sg98
I0
sg99
I0
sg100
I0
sg101
F10.558823529411764
sg102
I0
sg103
I0
sg104
I0
sg105
g243
sg106
I0
sg107
I0
sg108
I0
sg109
I0
sg110
I7
sg111
I0
sg112
I0
sg113
S'HE'
p244
sbsS'drop3'
p245
(ijoueur
joueur
p246
(dp247
g27
I0
sg28
I22
sg29
I0
sg30
(ijoueur
rang
p248
(dp249
g33
I5
sg34
S'**'
p250
sg36
g37
sbsg38
(dp251
g40
I0
sg41
I0
sg42
I0
sg43
I0
ssg44
(dp252
g40
I0
sg41
I0
sg42
I0
sg43
I0
ssg46
g128
sg48
I0
sg49
I0
sg50
I0
sg51
I0
sg52
(g53
S'DO'
p253
S'CE'
p254
S'AI'
p255
tp256
sg58
(ijoueur
rang
p257
(dp258
g33
I5
sg34
S'**'
p259
sg36
g37
sbsg62
(dp260
g40
I0
sg41
I0
sg42
I0
sg43
I0
ssg64
(dp261
g40
I0
sg41
I0
sg42
I0
sg43
I0
ssg66
(dp262
g40
I0
sg41
I0
sg42
I0
sg43
I0
ssg68
(dp263
g40
I0
sg41
I0
sg42
I0
sg43
I0
ssg70
I55
sg71
I0
sg72
S'Loenir'
p264
sg74
I0
sg75
I10
sg76
I11
sg77
I120
sg78
g79
sg80
(dp265
g82
I12
sg83
I7
sg84
I10
sg85
I10
sg86
I8
sg87
I6
sg88
I10
sg89
I10
sg90
I8
sg91
I11
sg92
I11
sg93
I9
sg94
I9
sg95
I9
sg96
I9
ssg97
I0
sg98
I0
sg99
I0
sg100
I0
sg101
F9.969696969696969
sg102
I0
sg103
I0
sg104
I0
sg105
g265
sg106
I0
sg107
I0
sg108
I0
sg109
I0
sg110
I130
sg111
I15
sg112
I0
sg113
S'HE'
p266
sbsS'SA_remp1'
p267
(ijoueur
joueur
p268
(dp269
g27
I0
sg28
I0
sg29
I0
sg30
(ijoueur
rang
p270
(dp271
g33
I2
sg34
S'^^'
p272
sg36
S'special'
p273
sbsg38
(dp274
g123
I0
sg124
I0
sg125
I0
sg126
I0
ssg44
(dp275
g123
I0
sg124
I0
sg125
I0
sg126
I0
ssg46
S'AL9'
p276
sg48
I0
sg49
I0
sg50
I0
sg51
I0
sg52
(g53
S'DL'
p277
g128
g128
tp278
sg58
(ijoueur
rang
p279
(dp280
g33
I2
sg34
S'^^'
p281
sg36
g273
sbsg62
(dp282
g123
I0
sg124
I0
sg125
I0
sg126
I0
ssg64
(dp283
g123
I0
sg124
I0
sg125
I0
sg126
I0
ssg66
(dp284
g123
I0
sg124
I0
sg125
I0
sg126
I0
ssg68
(dp285
g123
I0
sg124
I0
sg125
I0
sg126
I0
ssg70
I0
sg71
I0
sg72
S'Mue'
p286
sg74
I2
sg75
I0
sg76
I13
sg77
I50
sg78
g79
sg80
(dp287
g141
I10
sg142
I8
sg143
I8
sg144
I10
sg145
I12
sg146
I8
sg147
I3
sg148
I9
sg149
I4
sg150
I9
sg151
I7
sg152
I7
sg153
I3
sg154
I9
sg155
I5
ssg97
I0
sg98
I0
sg99
I0
sg100
I0
sg101
F9.205882352941176
sg102
I0
sg103
I0
sg104
I0
sg105
g287
sg106
I0
sg107
I0
sg108
I0
sg109
I0
sg110
I5
sg111
I0
sg112
I0
sg113
S'ES'
p288
sbsS'drop2'
p289
g158
sS'SA_remp2'
p290
(ijoueur
joueur
p291
(dp292
g27
I0
sg28
I0
sg29
I0
sg30
(ijoueur
rang
p293
(dp294
g33
I4
sg34
g133
sg36
g134
sbsg38
(dp295
g123
I0
sg124
I0
sg125
I0
sg126
I0
ssg44
(dp296
g123
I0
sg124
I0
sg125
I0
sg126
I0
ssg46
S'TA9'
p297
sg48
I0
sg49
I0
sg50
I0
sg51
I0
sg52
(g53
S'N8'
p298
S'TL'
p299
g128
tp300
sg58
(ijoueur
rang
p301
(dp302
g33
I4
sg34
g133
sg36
g134
sbsg62
(dp303
g123
I0
sg124
I0
sg125
I0
sg126
I0
ssg64
(dp304
g123
I0
sg124
I0
sg125
I0
sg126
I0
ssg66
(dp305
g123
I0
sg124
I0
sg125
I0
sg126
I0
ssg68
(dp306
g123
I0
sg124
I0
sg125
I0
sg126
I0
ssg70
I0
sg71
I0
sg72
S'Rothonhal'
p307
sg74
I4
sg75
I0
sg76
I11
sg77
I80
sg78
g79
sg80
(dp308
g141
I9
sg142
I10
sg143
I10
sg144
I10
sg145
I10
sg146
I7
sg147
I5
sg148
I10
sg149
I6
sg150
I8
sg151
I6
sg152
I10
sg153
I5
sg154
I11
sg155
I5
ssg97
I0
sg98
I0
sg99
I0
sg100
I0
sg101
F9.88888888888889
sg102
I0
sg103
I0
sg104
I0
sg105
g308
sg106
I0
sg107
I0
sg108
I0
sg109
I0
sg110
I11
sg111
I5
sg112
I0
sg113
S'S'
p309
sbssS'totaux'
p310
(dp311
g19
I0
sg20
I0
sg21
I0
ssS'_compo_defaut_fatigue'
p312
Nsg80
(dp313
g4
I0
sg5
I0
sg6
I0
sg7
I0
sg8
I0
sg9
I0
sg10
I0
sg11
I0
sg12
I0
sg13
I0
sg14
I0
sg15
I0
sg16
I0
ssS'joueurs'
p314
(dp315
S'n12'
p316
(ijoueur
joueur
p317
(dp318
g27
I0
sg28
I0
sg29
I0
sg30
(ijoueur
rang
p319
(dp320
g33
I4
sg34
S'x'
p321
sg36
g185
sbsg38
(dp322
g40
I0
sg41
I0
sg42
I0
sg43
I0
ssg44
(dp323
g40
I0
sg41
I0
sg42
I0
sg43
I0
ssg46
g128
sg48
I0
sg49
I0
sg50
I0
sg51
I0
sg52
(g53
S'C1'
p324
S'AR'
p325
S'AI'
p326
tp327
sg58
(ijoueur
rang
p328
(dp329
g33
I4
sg34
g321
sg36
g185
sbsg62
(dp330
g40
I0
sg41
I0
sg42
I0
sg43
I0
ssg64
(dp331
g40
I0
sg41
I0
sg42
I0
sg43
I0
ssg66
(dp332
g40
I0
sg41
I0
sg42
I0
sg43
I0
ssg68
(dp333
g40
I0
sg41
I0
sg42
I0
sg43
I0
ssg70
I0
sg71
I0
sg72
S'Farifend'
p334
sg74
I7
sg75
I0
sg76
I22
sg77
I120
sg78
g79
sg80
(dp335
g82
I12
sg83
I3
sg84
I8
sg85
I11
sg86
I10
sg87
I9
sg88
I8
sg89
I10
sg90
I11
sg91
I12
sg92
I13
sg93
I7
sg94
I9
sg95
I10
sg96
I3
ssg97
I0
sg98
I0
sg99
I0
sg100
I0
sg101
F10.7
sg102
I0
sg103
I0
sg104
I0
sg105
g335
sg106
I0
sg107
I0
sg108
I0
sg109
I0
sg110
I14
sg111
I3
sg112
I0
sg113
S'ES'
p336
sbsS'n13'
p337
g180
sS'n10'
p338
g158
sS'n11'
p339
(ijoueur
joueur
p340
(dp341
g27
I0
sg28
I0
sg29
I0
sg30
(ijoueur
rang
p342
(dp343
g33
I5
sg34
S'xx'
p344
sg36
g37
sbsg38
(dp345
g40
I0
sg41
I0
sg42
I0
sg43
I0
ssg44
(dp346
g40
I0
sg41
I0
sg42
I0
sg43
I0
ssg46
S'SN11'
p347
sg48
I0
sg49
I0
sg50
I0
sg51
I0
sg52
(g53
S'C2'
p348
S'AR'
p349
S'AI'
p350
tp351
sg58
(ijoueur
rang
p352
(dp353
g33
I5
sg34
S'xx'
p354
sg36
g37
sbsg62
(dp355
g40
I0
sg41
I0
sg42
I0
sg43
I0
ssg64
(dp356
g40
I0
sg41
I0
sg42
I0
sg43
I0
ssg66
(dp357
g40
I0
sg41
I0
sg42
I0
sg43
I0
ssg68
(dp358
g40
I0
sg41
I0
sg42
I0
sg43
I0
ssg70
I0
sg71
I0
sg72
S'Skergn'
p359
sg74
I3
sg75
I0
sg76
I15
sg77
I1603
sg78
g79
sg80
(dp360
g82
I15
sg83
I6
sg84
I14
sg85
I10
sg86
I11
sg87
I6
sg88
I4
sg89
I14
sg90
I9
sg91
I14
sg92
I11
sg93
I10
sg94
I4
sg95
I10
sg96
I8
ssg97
I0
sg98
I0
sg99
I0
sg100
I0
sg101
F11.793103448275861
sg102
I0
sg103
I0
sg104
I0
sg105
g360
sg106
I0
sg107
I0
sg108
I0
sg109
I0
sg110
I155
sg111
I46
sg112
I0
sg113
S'S'
p361
sbsS'n16'
p362
(ijoueur
joueur
p363
(dp364
g27
I0
sg28
I0
sg29
I0
sg30
(ijoueur
rang
p365
(dp366
g33
I5
sg34
S'**'
p367
sg36
g121
sbsg38
(dp368
g123
I0
sg124
I0
sg125
I0
sg126
I0
ssg44
(dp369
g123
I0
sg124
I0
sg125
I0
sg126
I0
ssg46
g128
sg48
I0
sg49
I0
sg50
I0
sg51
I0
sg52
(g53
S'TA'
p370
S'PI'
p371
g128
tp372
sg58
(ijoueur
rang
p373
(dp374
g33
I5
sg34
S'**'
p375
sg36
g121
sbsg62
(dp376
g123
I0
sg124
I0
sg125
I0
sg126
I0
ssg64
(dp377
g123
I0
sg124
I0
sg125
I0
sg126
I0
ssg66
(dp378
g123
I0
sg124
I0
sg125
I0
sg126
I0
ssg68
(dp379
g123
I0
sg124
I0
sg125
I0
sg126
I0
ssg70
I0
sg71
I0
sg72
S'Uskass'
p380
sg74
I8
sg75
I0
sg76
I18
sg77
I153
sg78
g79
sg80
(dp381
g141
I12
sg142
I10
sg143
I8
sg144
I8
sg145
I8
sg146
I8
sg147
I7
sg148
I9
sg149
I7
sg150
I11
sg151
I8
sg152
I7
sg153
I5
sg154
I9
sg155
I10
ssg97
I0
sg98
I0
sg99
I0
sg100
I0
sg101
F8.931034482758621
sg102
I0
sg103
I0
sg104
I0
sg105
g381
sg106
I0
sg107
I0
sg108
I0
sg109
I0
sg110
I19
sg111
I5
sg112
I0
sg113
g309
sbsS'n17'
p382
(ijoueur
joueur
p383
(dp384
g27
I0
sg28
I0
sg29
I0
sg30
(ijoueur
rang
p385
(dp386
g33
I1
sg34
S'<'
p387
sg36
S'base'
p388
sbsg38
(dp389
g123
I0
sg124
I0
sg125
I0
sg126
I0
ssg44
(dp390
g123
I0
sg124
I0
sg125
I0
sg126
I0
ssg46
g128
sg48
I0
sg49
I0
sg50
I0
sg51
I0
sg52
(g53
S'PI'
p391
S'N8'
p392
S'TA'
p393
tp394
sg58
(ijoueur
rang
p395
(dp396
g33
I1
sg34
g387
sg36
g388
sbsg62
(dp397
g123
I0
sg124
I0
sg125
I0
sg126
I0
ssg64
(dp398
g123
I0
sg124
I0
sg125
I0
sg126
I0
ssg66
(dp399
g123
I0
sg124
I0
sg125
I0
sg126
I0
ssg68
(dp400
g123
I0
sg124
I0
sg125
I0
sg126
I0
ssg70
I0
sg71
I0
sg72
S'Lohonel'
p401
sg74
I-2
sg75
I0
sg76
I11
sg77
I14
sg78
g79
sg80
(dp402
g141
I9
sg142
I10
sg143
I6
sg144
I12
sg145
I8
sg146
I8
sg147
I5
sg148
I8
sg149
I8
sg150
I8
sg151
I6
sg152
I8
sg153
I3
sg154
I8
sg155
I8
ssg97
I0
sg98
I0
sg99
I0
sg100
I0
sg101
F8.962962962962964
sg102
I0
sg103
I0
sg104
I0
sg105
g402
sg106
I0
sg107
I0
sg108
I0
sg109
I0
sg110
I2
sg111
I3
sg112
I0
sg113
S'HE'
p403
sbsS'n14'
p404
(ijoueur
joueur
p405
(dp406
g27
I0
sg28
I0
sg29
I0
sg30
(ijoueur
rang
p407
(dp408
g33
I5
sg34
S'**'
p409
sg36
g37
sbsg38
(dp410
g40
I0
sg41
I0
sg42
I0
sg43
I0
ssg44
(dp411
g40
I0
sg41
I0
sg42
I0
sg43
I0
ssg46
g128
sg48
I0
sg49
I0
sg50
I0
sg51
I0
sg52
(g53
S'AI'
p412
S'DM'
p413
S'CE'
p414
tp415
sg58
(ijoueur
rang
p416
(dp417
g33
I5
sg34
S'**'
p418
sg36
g37
sbsg62
(dp419
g40
I0
sg41
I0
sg42
I0
sg43
I0
ssg64
(dp420
g40
I0
sg41
I0
sg42
I0
sg43
I0
ssg66
(dp421
g40
I0
sg41
I0
sg42
I0
sg43
I0
ssg68
(dp422
g40
I0
sg41
I0
sg42
I0
sg43
I0
ssg70
I0
sg71
I0
sg72
S'Arthenol'
p423
sg74
I2
sg75
I0
sg76
I9
sg77
I176
sg78
g79
sg80
(dp424
g82
I13
sg83
I4
sg84
I10
sg85
I11
sg86
I6
sg87
I8
sg88
I5
sg89
I11
sg90
I5
sg91
I11
sg92
I11
sg93
I9
sg94
I8
sg95
I8
sg96
I5
ssg97
I0
sg98
I0
sg99
I0
sg100
I0
sg101
F10.548387096774194
sg102
I0
sg103
I0
sg104
I0
sg105
g424
sg106
I0
sg107
I0
sg108
I0
sg109
I0
sg110
I23
sg111
I20
sg112
I0
sg113
S'B'
p425
sbsS'n15'
p426
(ijoueur
joueur
p427
(dp428
g27
I0
sg28
I0
sg29
I0
sg30
(ijoueur
rang
p429
(dp430
g33
I6
sg34
S'***'
p431
sg36
g163
sbsg38
(dp432
g40
I0
sg41
I0
sg42
I0
sg43
I0
ssg44
(dp433
g40
I0
sg41
I0
sg42
I0
sg43
I0
ssg46
g128
sg48
I0
sg49
I0
sg50
I0
sg51
I0
sg52
(g53
S'C2'
p434
S'AR'
p435
S'AI'
p436
tp437
sg58
(ijoueur
rang
p438
(dp439
g33
I6
sg34
S'***'
p440
sg36
g163
sbsg62
(dp441
g40
I0
sg41
I0
sg42
I0
sg43
I0
ssg64
(dp442
g40
I0
sg41
I0
sg42
I0
sg43
I0
ssg66
(dp443
g40
I0
sg41
I0
sg42
I0
sg43
I0
ssg68
(dp444
g40
I0
sg41
I0
sg42
I0
sg43
I0
ssg70
I0
sg71
I0
sg72
S'Karl Franz'
p445
sg74
I9
sg75
I0
sg76
I21
sg77
I397
sg78
g79
sg80
(dp446
g82
I12
sg83
I7
sg84
I10
sg85
I12
sg86
I9
sg87
I11
sg88
I8
sg89
I14
sg90
I10
sg91
I11
sg92
I10
sg93
I7
sg94
I7
sg95
I14
sg96
I4
ssg97
I0
sg98
I0
sg99
I0
sg100
I0
sg101
F11.793103448275861
sg102
I0
sg103
I0
sg104
I0
sg105
g446
sg106
I0
sg107
I0
sg108
I0
sg109
I0
sg110
I26
sg111
I3
sg112
I0
sg113
S'EMP'
p447
sbsS'n18'
p448
g268
sS'n19'
p449
g291
sS'n22'
p450
(ijoueur
joueur
p451
(dp452
g27
I0
sg28
I0
sg29
I0
sg30
(ijoueur
rang
p453
(dp454
g33
I3
sg34
S'^^^'
p455
sg36
S'rare'
p456
sbsg38
(dp457
g40
I0
sg41
I0
sg42
I0
sg43
I0
ssg44
(dp458
g40
I0
sg41
I0
sg42
I0
sg43
I0
ssg46
g128
sg48
I0
sg49
I0
sg50
I0
sg51
I0
sg52
(g53
S'AR'
p459
S'AI'
p460
S'CE'
p461
tp462
sg58
(ijoueur
rang
p463
(dp464
g33
I3
sg34
S'^^^'
p465
sg36
g456
sbsg62
(dp466
g40
I0
sg41
I0
sg42
I0
sg43
I0
ssg64
(dp467
g40
I0
sg41
I0
sg42
I0
sg43
I0
ssg66
(dp468
g40
I0
sg41
I0
sg42
I0
sg43
I0
ssg68
(dp469
g40
I0
sg41
I0
sg42
I0
sg43
I0
ssg70
I0
sg71
I0
sg72
S'Neffair'
p470
sg74
I11
sg75
I0
sg76
I21
sg77
I35
sg78
g79
sg80
(dp471
g82
I13
sg83
I3
sg84
I7
sg85
I11
sg86
I7
sg87
I6
sg88
I8
sg89
I7
sg90
I9
sg91
I10
sg92
I10
sg93
I7
sg94
I10
sg95
I11
sg96
I4
ssg97
I0
sg98
I0
sg99
I0
sg100
I0
sg101
F10.121212121212121
sg102
I0
sg103
I0
sg104
I0
sg105
g471
sg106
I0
sg107
I0
sg108
I0
sg109
I0
sg110
I4
sg111
I0
sg112
I0
sg113
S'HE'
p472
sbsS'n21'
p473
g246
sS'n20'
p474
(ijoueur
joueur
p475
(dp476
g27
I0
sg28
I0
sg29
I0
sg30
(ijoueur
rang
p477
(dp478
g33
I5
sg34
S'**'
p479
sg36
g37
sbsg38
(dp480
g40
I0
sg41
I0
sg42
I0
sg43
I0
ssg44
(dp481
g40
I0
sg41
I0
sg42
I0
sg43
I0
ssg46
g128
sg48
I0
sg49
I0
sg50
I0
sg51
I0
sg52
(g53
S'DM'
p482
g128
g128
tp483
sg58
(ijoueur
rang
p484
(dp485
g33
I2
sg34
S'^^'
p486
sg36
S'special'
p487
sbsg62
(dp488
g40
I0
sg41
I0
sg42
I0
sg43
I0
ssg64
(dp489
g40
I0
sg41
I0
sg42
I0
sg43
I0
ssg66
(dp490
g40
I0
sg41
I0
sg42
I0
sg43
I0
ssg68
(dp491
g40
I0
sg41
I0
sg42
I0
sg43
I0
ssg70
I0
sg71
I0
sg72
S'Zimloeth'
p492
sg74
I11
sg75
I0
sg76
I23
sg77
I23
sg78
g79
sg80
(dp493
g82
I11
sg83
I6
sg84
I6
sg85
I10
sg86
I6
sg87
I6
sg88
I7
sg89
I6
sg90
I9
sg91
I14
sg92
I9
sg93
I5
sg94
I7
sg95
I8
sg96
I4
ssg97
I0
sg98
I0
sg99
I0
sg100
I0
sg101
F9.620689655172415
sg102
I0
sg103
I0
sg104
I0
sg105
g493
sg106
I0
sg107
I0
sg108
I0
sg109
I0
sg110
I2
sg111
I0
sg112
I0
sg113
S'HE'
p494
sbsS'n8'
p495
(ijoueur
joueur
p496
(dp497
g27
I0
sg28
I0
sg29
I0
sg30
(ijoueur
rang
p498
(dp499
g33
I5
sg34
S'xx'
p500
sg36
g121
sbsg38
(dp501
g123
I0
sg124
I0
sg125
I0
sg126
I0
ssg44
(dp502
g123
I0
sg124
I0
sg125
I0
sg126
I0
ssg46
g128
sg48
I0
sg49
I0
sg50
I0
sg51
I0
sg52
(g53
S'N8'
p503
S'TL'
p504
g128
tp505
sg58
(ijoueur
rang
p506
(dp507
g33
I5
sg34
S'xx'
p508
sg36
g121
sbsg62
(dp509
g123
I0
sg124
I0
sg125
I0
sg126
I0
ssg64
(dp510
g123
I0
sg124
I0
sg125
I0
sg126
I0
ssg66
(dp511
g123
I0
sg124
I0
sg125
I0
sg126
I0
ssg68
(dp512
g123
I0
sg124
I0
sg125
I0
sg126
I0
ssg70
I0
sg71
I0
sg72
S"Rak'Daq"
p513
sg74
I5
sg75
I0
sg76
I15
sg77
I525
sg78
g79
sg80
(dp514
g141
I11
sg142
I13
sg143
I9
sg144
I13
sg145
I9
sg146
I15
sg147
I2
sg148
I17
sg149
I4
sg150
I7
sg151
I7
sg152
I12
sg153
I2
sg154
I9
sg155
I8
ssg97
I0
sg98
I0
sg99
I0
sg100
I0
sg101
F12.137931034482758
sg102
I0
sg103
I0
sg104
I0
sg105
g514
sg106
I0
sg107
I0
sg108
I0
sg109
I0
sg110
I70
sg111
I16
sg112
I0
sg113
S'HL'
p515
sbsS'n9'
p516
g25
sS'n1'
p517
(ijoueur
joueur
p518
(dp519
g27
I0
sg28
I0
sg29
I0
sg30
(ijoueur
rang
p520
(dp521
g33
I4
sg34
S'x'
p522
sg36
g134
sbsg38
(dp523
g123
I0
sg124
I0
sg125
I0
sg126
I0
ssg44
(dp524
g123
I0
sg124
I0
sg125
I0
sg126
I0
ssg46
S'KH10'
p525
sg48
I0
sg49
I0
sg50
I0
sg51
I0
sg52
(g53
S'PI'
p526
g128
g128
tp527
sg58
(ijoueur
rang
p528
(dp529
g33
I4
sg34
g522
sg36
g134
sbsg62
(dp530
g123
I0
sg124
I0
sg125
I0
sg126
I0
ssg64
(dp531
g123
I0
sg124
I0
sg125
I0
sg126
I0
ssg66
(dp532
g123
I0
sg124
I0
sg125
I0
sg126
I0
ssg68
(dp533
g123
I0
sg124
I0
sg125
I0
sg126
I0
ssg70
I0
sg71
I0
sg72
S'Quadyr'
p534
sg74
I8
sg75
I0
sg76
I19
sg77
I192
sg78
g79
sg80
(dp535
g141
I5
sg142
I10
sg143
I7
sg144
I11
sg145
I6
sg146
I10
sg147
I4
sg148
I10
sg149
I5
sg150
I7
sg151
I6
sg152
I8
sg153
I3
sg154
I11
sg155
I7
ssg97
I0
sg98
I0
sg99
I0
sg100
I0
sg101
F9.222222222222221
sg102
I0
sg103
I0
sg104
I0
sg105
g535
sg106
I0
sg107
I0
sg108
I0
sg109
I0
sg110
I11
sg111
I3
sg112
I0
sg113
S'N'
p536
sbsS'n2'
p537
(ijoueur
joueur
p538
(dp539
g27
I0
sg28
I0
sg29
I0
sg30
(ijoueur
rang
p540
(dp541
g33
I5
sg34
S'**'
p542
sg36
g121
sbsg38
(dp543
g123
I0
sg124
I0
sg125
I0
sg126
I0
ssg44
(dp544
g123
I0
sg124
I0
sg125
I0
sg126
I0
ssg46
g128
sg48
I0
sg49
I0
sg50
I0
sg51
I0
sg52
(g53
S'TA'
p545
g128
g128
tp546
sg58
(ijoueur
rang
p547
(dp548
g33
I5
sg34
S'**'
p549
sg36
g121
sbsg62
(dp550
g123
I0
sg124
I0
sg125
I0
sg126
I0
ssg64
(dp551
g123
I0
sg124
I0
sg125
I0
sg126
I0
ssg66
(dp552
g123
I0
sg124
I0
sg125
I0
sg126
I0
ssg68
(dp553
g123
I0
sg124
I0
sg125
I0
sg126
I0
ssg70
I0
sg71
I0
sg72
S'Uurghizul'
p554
sg74
I6
sg75
I0
sg76
I15
sg77
I120
sg78
g79
sg80
(dp555
g141
I11
sg142
I11
sg143
I7
sg144
I11
sg145
I8
sg146
I9
sg147
I2
sg148
I9
sg149
I3
sg150
I8
sg151
I7
sg152
I12
sg153
I1
sg154
I10
sg155
I12
ssg97
I0
sg98
I0
sg99
I0
sg100
I0
sg101
F10.689655172413794
sg102
I0
sg103
I0
sg104
I0
sg105
g555
sg106
I0
sg107
I0
sg108
I0
sg109
I0
sg110
I12
sg111
I8
sg112
I0
sg113
S'HB'
p556
sbsS'n3'
p557
(ijoueur
joueur
p558
(dp559
g27
I0
sg28
I0
sg29
I0
sg30
(ijoueur
rang
p560
(dp561
g33
I4
sg34
g133
sg36
g134
sbsg38
(dp562
g123
I0
sg124
I0
sg125
I0
sg126
I0
ssg44
(dp563
g123
I0
sg124
I0
sg125
I0
sg126
I0
ssg46
S'MDL8'
p564
sg48
I0
sg49
I0
sg50
I0
sg51
I0
sg52
(g53
S'PI'
p565
S'N8'
p566
g128
tp567
sg58
(ijoueur
rang
p568
(dp569
g33
I4
sg34
g133
sg36
g134
sbsg62
(dp570
g123
I0
sg124
I0
sg125
I0
sg126
I0
ssg64
(dp571
g123
I0
sg124
I0
sg125
I0
sg126
I0
ssg66
(dp572
g123
I0
sg124
I0
sg125
I0
sg126
I0
ssg68
(dp573
g123
I0
sg124
I0
sg125
I0
sg126
I0
ssg70
I0
sg71
I0
sg72
S'Mortord'
p574
sg74
I4
sg75
I0
sg76
I11
sg77
I310
sg78
g79
sg80
(dp575
g141
I5
sg142
I9
sg143
I7
sg144
I11
sg145
I3
sg146
I12
sg147
I2
sg148
I12
sg149
I3
sg150
I6
sg151
I9
sg152
I11
sg153
I0
sg154
I9
sg155
I8
ssg97
I0
sg98
I0
sg99
I0
sg100
I0
sg101
F9.777777777777779
sg102
I0
sg103
I0
sg104
I0
sg105
g575
sg106
I0
sg107
I0
sg108
I0
sg109
I0
sg110
I40
sg111
I7
sg112
I0
sg113
S'OG'
p576
sbsS'n4'
p577
g228
sS'n5'
p578
g207
sS'n6'
p579
(ijoueur
joueur
p580
(dp581
g27
I0
sg28
I0
sg29
I0
sg30
(ijoueur
rang
p582
(dp583
g33
I5
sg34
S'xx'
p584
sg36
g121
sbsg38
(dp585
g123
I0
sg124
I0
sg125
I0
sg126
I0
ssg44
(dp586
g123
I0
sg124
I0
sg125
I0
sg126
I0
ssg46
S'FS11'
p587
sg48
I0
sg49
I0
sg50
I0
sg51
I0
sg52
(g53
S'N8'
p588
S'TL'
p589
g128
tp590
sg58
(ijoueur
rang
p591
(dp592
g33
I5
sg34
S'xx'
p593
sg36
g121
sbsg62
(dp594
g123
I0
sg124
I0
sg125
I0
sg126
I0
ssg64
(dp595
g123
I0
sg124
I0
sg125
I0
sg126
I0
ssg66
(dp596
g123
I0
sg124
I0
sg125
I0
sg126
I0
ssg68
(dp597
g123
I0
sg124
I0
sg125
I0
sg126
I0
ssg70
I0
sg71
I0
sg72
S'Mredug'
p598
sg74
I6
sg75
I0
sg76
I13
sg77
I190
sg78
g79
sg80
(dp599
g141
I7
sg142
I9
sg143
I6
sg144
I10
sg145
I7
sg146
I9
sg147
I4
sg148
I9
sg149
I4
sg150
I7
sg151
I8
sg152
I11
sg153
I4
sg154
I13
sg155
I5
ssg97
I0
sg98
I0
sg99
I0
sg100
I0
sg101
F10.0
sg102
I0
sg103
I0
sg104
I0
sg105
g599
sg106
I0
sg107
I0
sg108
I0
sg109
I0
sg110
I9
sg111
I4
sg112
I0
sg113
S'O'
p600
sbsS'n7'
p601
g116
ssS'remplacements'
p602
(dp603
g362
S'n0'
p604
sg382
g604
sg448
g604
sg449
g604
sg450
g604
sg473
g604
sg474
g604
ssb.