(iclub
compo
p0
(dp1
S'caracs_old'
p2
(dp3
S'A'
p4
F168.25
sS'ME'
p5
F100.75
sS'E'
p6
F193.0
sS'OplusAV'
p7
F106.25
sS'OplusAR'
p8
F118.25
sS'JP'
p9
F91.25
sS'PA'
p10
F105.75
sS'M'
p11
F98.0
sS'OmoinsAR'
p12
F106.0
sS'TO_off'
p13
F109.0
sS'TO_def'
p14
F101.5
sS'OmoinsAV'
p15
F109.25
sS'R'
p16
F189.0
ssS'totaux_old'
p17
(dp18
S'T2'
p19
F182.75
sS'T3'
p20
F96.5
sS'T1'
p21
F197.5
ssS'roles'
p22
(dp23
S'SA_scd'
p24
(ijoueur
joueur
p25
(dp26
S'EV_saison_11'
p27
F10.941176470588236
sS'rouges_total'
p28
I0
sS'EV_saison_12'
p29
F10.185185185185185
sS'changements_postes'
p30
S''
p31
sS'drops_total'
p32
I0
sS'xp_total'
p33
I0
sS'blessure'
p34
I0
sS'RG_max'
p35
ccopy_reg
_reconstructor
p36
(cjoueur
rang_new
p37
c__builtin__
object
p38
Ntp39
Rp40
(dp41
S'type_nb'
p42
I5
sS'rang'
p43
S'**'
p44
sS'type'
p45
S'seigneur'
p46
sbsS'MJ2_total'
p47
(dp48
S'SR'
p49
I0
sS'ST'
p50
I0
sS'CR'
p51
I0
sS'CT'
p52
I0
ssS'MJ3_total'
p53
(dp54
g49
I0
sg50
I0
sg51
I0
sg52
I0
ssS'xp'
p55
I0
sS'drop_rates_total'
p56
I0
sS'EV'
p57
F9.735294117647058
sS'drop_rates_saison'
p58
I0
sS'transformations'
p59
I0
sS'penalites'
p60
I0
sS'essais_saison'
p61
I0
sS'penalite_ratees_saison'
p62
I0
sS'transformations_saison'
p63
I0
sS'postes'
p64
(S'dummy'
p65
S'DL'
p66
S'N8'
p67
g31
tp68
sS'veut_partir'
p69
I00
sS'RG'
p70
g36
(g37
g38
Ntp71
Rp72
(dp73
g42
I5
sg43
S'**'
p74
sg45
g46
sbsS'MJ1'
p75
(dp76
S'SR'
p77
I0
sS'CT'
p78
I0
sS'CR'
p79
I0
sS'ST'
p80
I0
ssS'MS_probleme'
p81
I00
sS'MJ3'
p82
(dp83
g77
I0
sg78
I0
sg79
I0
sg80
I0
ssS'MJ1_total'
p84
(dp85
g49
I1
sg50
I6
sg51
I0
sg52
I29
ssS'penalites_total'
p86
I0
sS'penalites_saison'
p87
I0
sS'nom'
p88
S'Drodengh'
p89
sS'C'
p90
I9
sS'transformations_total'
p91
I0
sS'D'
p92
I14
sS'VAL'
p93
I140
sS'club'
p94
S'KAK'
p95
sS'caracs'
p96
(dp97
S'A'
p98
I11
sS'ME'
p99
I11
sS'RP2'
p100
I6
sS'E'
p101
I10
sS'P'
p102
I4
sS'RP1'
p103
I13
sS'JP'
p104
I4
sS'RP_tot'
p105
I13
sS'TO'
p106
I10
sS'PA'
p107
I9
sS'M'
p108
I6
sS'R'
p109
I8
sS'TB'
p110
I3
sS'PL'
p111
I8
sS'TA'
p112
I5
ssS'jj_passe'
p113
(dp114
S's12'
p115
(ijoueur
joueur
p116
(dp117
g27
F10.941176470588236
sg28
I0
sg30
g31
sg32
I0
sg34
I0
sg35
g36
(g37
g38
Ntp118
Rp119
(dp120
g42
I5
sg43
S'**'
p121
sg45
S'seigneur'
p122
sbsg47
(dp123
S'SR'
p124
I0
sS'ST'
p125
I0
sS'CR'
p126
I0
sS'CT'
p127
I0
ssg53
(dp128
g124
I0
sg125
I0
sg126
I0
sg127
I0
ssg56
I0
sg58
I0
sg59
I0
sg60
I0
sg81
I00
sg61
I1
sg62
I0
sg63
I0
sg64
(S'dummy'
p129
S'DL'
p130
S'N8'
p131
g31
tp132
sg69
I00
sg70
g36
(g37
g38
Ntp133
Rp134
(dp135
g42
I5
sg43
S'**'
p136
sg45
g122
sbsg75
(dp137
S'SR'
p138
I0
sS'ST'
p139
I0
sS'CR'
p140
I0
sS'CT'
p141
I13
ssS'MJ2'
p142
(dp143
g138
I0
sg139
I0
sg140
I0
sg141
I0
ssg82
(dp144
g138
I0
sg139
I0
sg140
I0
sg141
I0
ssg84
(dp145
g124
I1
sg125
I6
sg126
I0
sg127
I29
ssg86
I0
sg87
I0
sg88
S'Drodengh'
p146
sg90
I9
sg91
I0
sg92
I14
sg93
I140
sg94
S'KAK'
p147
sg96
(dp148
S'A'
p149
I11
sS'ME'
p150
I11
sS'RP2'
p151
I6
sS'E'
p152
I10
sS'TO'
p153
I10
sS'RP1'
p154
I13
sS'JP'
p155
I4
sS'RP_tot'
p156
I13
sS'P'
p157
I4
sS'PA'
p158
I9
sS'M'
p159
I6
sS'R'
p160
I10
sS'TB'
p161
I3
sS'PL'
p162
I8
sS'TA'
p163
I5
ssg113
(dp164
S's11'
p165
(ijoueur
joueur
p166
(dp167
g28
I0
sg32
I0
sg34
I0
sg35
g36
(g37
g38
Ntp168
Rp169
(dp170
g42
I5
sg43
S'**'
p171
sg45
S'seigneur'
p172
sbsg47
(dp173
S'SR'
p174
I0
sS'ST'
p175
I0
sS'CR'
p176
I0
sS'CT'
p177
I0
ssg53
(dp178
g174
I0
sg175
I0
sg176
I0
sg177
I0
ssg142
(dp179
g174
I0
sg175
I0
sg176
I0
sg177
I0
ssg56
I0
sg58
I0
sg59
I0
sg60
I0
sg61
I3
sg62
I0
sg63
I0
sg64
(S'dummy'
p180
S'DL'
p181
S'N8'
p182
g31
tp183
sg69
I00
sg70
g36
(g37
g38
Ntp184
Rp185
(dp186
g42
I5
sg43
S'**'
p187
sg45
g172
sbsg75
(dp188
g174
I1
sg175
I6
sg176
I0
sg177
I16
ssg81
I00
sg82
(dp189
g174
I0
sg175
I0
sg176
I0
sg177
I0
ssg84
(dp190
g174
I1
sg175
I6
sg176
I0
sg177
I16
ssg86
I0
sg87
I0
sg88
S'Drodengh'
p191
sg90
I9
sg91
I0
sg92
I14
sg93
I140
sg94
S'KAK'
p192
sg96
(dp193
S'A'
p194
I11
sS'ME'
p195
I11
sS'RP2'
p196
I7
sS'E'
p197
I10
sS'TO'
p198
I12
sS'RP1'
p199
I13
sS'JP'
p200
I4
sS'RP_tot'
p201
I13
sS'P'
p202
I4
sS'PA'
p203
I9
sS'M'
p204
I7
sS'R'
p205
I10
sS'TB'
p206
I3
sS'PL'
p207
I11
sS'TA'
p208
I5
ssS'fatigue'
p209
I0
sS'drop_ratees_total'
p210
I0
sS'blessures_total'
p211
I0
sS'XP'
p212
I0
sg57
F10.941176470588236
sS'penalite_ratees_total'
p213
I0
sS'drops'
p214
I0
sS'blessures_saison'
p215
I0
sS'jaunes_total'
p216
I1
sS'caracs_saison_11'
p217
(dp218
S'A'
p219
I11
sS'ME'
p220
I11
sS'RP2'
p221
I7
sS'E'
p222
I10
sS'TO'
p223
I12
sS'RP1'
p224
I13
sS'JP'
p225
I4
sS'RP_tot'
p226
I13
sS'P'
p227
I4
sS'PA'
p228
I9
sS'M'
p229
I7
sS'R'
p230
I10
sS'TB'
p231
I3
sS'PL'
p232
I11
sS'TA'
p233
I5
ssS'caracs_sans_fatigue'
p234
g193
sS'rouges_saison'
p235
I0
sS'anciens_clubs'
p236
g31
sS'transformation_ratees_total'
p237
I0
sS'drops_saison'
p238
I0
sS'transformation_ratees_saison'
p239
I0
sS'MS'
p240
I22
sS'essais_total'
p241
I26
sS'jaunes_saison'
p242
I1
sS'ARM'
p243
S'HB'
p244
sbssg209
I0
sg210
I0
sg211
I0
sg212
I0
sg57
F10.185185185185185
sg213
I0
sg214
I0
sg215
I0
sg216
I1
sg217
(dp245
S'A'
p246
I11
sS'ME'
p247
I11
sS'RP2'
p248
I7
sS'E'
p249
I10
sS'TO'
p250
I12
sS'RP1'
p251
I13
sS'JP'
p252
I4
sS'RP_tot'
p253
I13
sS'P'
p254
I4
sS'PA'
p255
I9
sS'M'
p256
I7
sS'R'
p257
I10
sS'TB'
p258
I3
sS'PL'
p259
I11
sS'TA'
p260
I5
ssg234
g148
sg235
I0
sg236
g31
sg237
I0
sg238
I0
sg239
I0
sg240
I22
sg241
I27
sg242
I0
sg243
S'HB'
p261
sbsS's11'
p262
(ijoueur
joueur
p263
(dp264
g28
I0
sg32
I0
sg34
I0
sg35
g36
(g37
g38
Ntp265
Rp266
(dp267
g42
I5
sg43
S'**'
p268
sg45
S'seigneur'
p269
sbsg47
(dp270
S'SR'
p271
I0
sS'ST'
p272
I0
sS'CR'
p273
I0
sS'CT'
p274
I0
ssg53
(dp275
g271
I0
sg272
I0
sg273
I0
sg274
I0
ssg142
(dp276
g271
I0
sg272
I0
sg273
I0
sg274
I0
ssg56
I0
sg58
I0
sg59
I0
sg60
I0
sg61
I3
sg62
I0
sg63
I0
sg64
(S'dummy'
p277
S'DL'
p278
S'N8'
p279
g31
tp280
sg69
I00
sg70
g36
(g37
g38
Ntp281
Rp282
(dp283
g42
I5
sg43
S'**'
p284
sg45
g269
sbsg75
(dp285
g271
I1
sg272
I6
sg273
I0
sg274
I16
ssg81
I00
sg82
(dp286
g271
I0
sg272
I0
sg273
I0
sg274
I0
ssg84
(dp287
g271
I1
sg272
I6
sg273
I0
sg274
I16
ssg86
I0
sg87
I0
sg88
S'Drodengh'
p288
sg90
I9
sg91
I0
sg92
I14
sg93
I140
sg94
S'KAK'
p289
sg96
(dp290
S'A'
p291
I11
sS'ME'
p292
I11
sS'RP2'
p293
I7
sS'E'
p294
I10
sS'TO'
p295
I12
sS'RP1'
p296
I13
sS'JP'
p297
I4
sS'RP_tot'
p298
I13
sS'P'
p299
I4
sS'PA'
p300
I9
sS'M'
p301
I7
sS'R'
p302
I10
sS'TB'
p303
I3
sS'PL'
p304
I11
sS'TA'
p305
I5
ssg209
I0
sg210
I0
sg211
I0
sg212
I0
sg57
F10.941176470588236
sg213
I0
sg214
I0
sg215
I0
sg216
I1
sg217
(dp306
S'A'
p307
I11
sS'ME'
p308
I11
sS'RP2'
p309
I7
sS'E'
p310
I10
sS'TO'
p311
I12
sS'RP1'
p312
I13
sS'JP'
p313
I4
sS'RP_tot'
p314
I13
sS'P'
p315
I4
sS'PA'
p316
I9
sS'M'
p317
I7
sS'R'
p318
I10
sS'TB'
p319
I3
sS'PL'
p320
I11
sS'TA'
p321
I5
ssg234
g290
sg235
I0
sg236
g31
sg237
I0
sg238
I0
sg239
I0
sg240
I22
sg241
I26
sg242
I1
sg243
S'HB'
p322
sbssg209
I0
sg210
I0
sg211
I0
sg212
I0
sg142
(dp323
g77
I0
sg78
I0
sg79
I0
sg80
I0
ssg213
I0
sS'xp_saison'
p324
I0
sg214
I0
sg215
I0
sg216
I1
sg217
(dp325
S'A'
p326
I11
sS'ME'
p327
I11
sS'RP2'
p328
I7
sS'E'
p329
I10
sS'TO'
p330
I12
sS'RP1'
p331
I13
sS'JP'
p332
I4
sS'RP_tot'
p333
I13
sS'P'
p334
I4
sS'PA'
p335
I9
sS'M'
p336
I7
sS'R'
p337
I10
sS'TB'
p338
I3
sS'PL'
p339
I11
sS'TA'
p340
I5
ssg234
(dp341
g98
I11
sg99
I11
sg100
I6
sg101
I10
sg106
I10
sg103
I13
sg104
I4
sg105
I13
sg102
I4
sg107
I9
sg108
I6
sg109
I8
sg110
I3
sg111
I8
sg112
I5
ssg235
I0
sS'caracs_saison_12'
p342
(dp343
sg237
I0
sg236
g31
sg238
I0
sg239
I0
sg240
I22
sg241
I27
sg242
I0
sg243
S'HB'
p344
sbsS'drop3'
p345
(ijoueur
joueur
p346
(dp347
g27
F7.793103448275862
sg28
I0
sg29
F9.206896551724139
sg30
g31
sg32
I0
sg33
I0
sg34
I0
sg35
g36
(g37
g38
Ntp348
Rp349
(dp350
g42
I5
sg43
S'**'
p351
sg45
g46
sbsg47
(dp352
g49
I0
sg50
I0
sg51
I0
sg52
I0
ssg53
(dp353
g49
I0
sg50
I0
sg51
I0
sg52
I0
ssg55
I0
sg56
I0
sg57
F10.586206896551724
sg58
I0
sg59
I0
sg60
I0
sg61
I0
sg62
I0
sg63
I0
sg64
(g65
S'DM'
p354
g31
g31
tp355
sg69
I00
sg70
g349
sg75
(dp356
g77
I0
sg78
I0
sg79
I0
sg80
I0
ssg81
I00
sg82
(dp357
g77
I0
sg78
I0
sg79
I0
sg80
I0
ssg84
(dp358
g49
I0
sg50
I6
sg51
I5
sg52
I1
ssg86
I0
sg87
I0
sg88
S'Ractoin'
p359
sg90
I11
sg91
I0
sg92
I26
sg93
I160
sg94
g95
sg96
(dp360
g98
I12
sg99
I4
sg100
I8
sg101
I12
sg102
I10
sg103
I8
sg104
I10
sg105
I10
sg106
I5
sg107
I12
sg108
I7
sg109
I7
sg110
I9
sg111
I11
sg112
I5
ssg113
(dp361
g115
(ijoueur
joueur
p362
(dp363
g27
F7.793103448275862
sg28
I0
sg30
g31
sg32
I0
sg34
I0
sg35
g36
(g37
g38
Ntp364
Rp365
(dp366
g42
I5
sg43
S'**'
p367
sg45
g122
sbsg47
(dp368
g124
I0
sg125
I0
sg126
I0
sg127
I0
ssg53
(dp369
g124
I0
sg125
I0
sg126
I0
sg127
I0
ssg56
I0
sg58
I0
sg59
I0
sg60
I0
sg81
I00
sg61
I0
sg62
I0
sg63
I0
sg64
(g129
S'DM'
p370
g31
g31
tp371
sg69
I00
sg70
g36
(g37
g38
Ntp372
Rp373
(dp374
g42
I4
sg43
S'x'
p375
sg45
S'heros'
p376
sbsg75
(dp377
g138
I0
sg139
I6
sg140
I3
sg141
I1
ssg142
(dp378
g138
I0
sg139
I0
sg140
I0
sg141
I0
ssg82
(dp379
g138
I0
sg139
I0
sg140
I0
sg141
I0
ssg84
(dp380
g124
I0
sg125
I6
sg126
I5
sg127
I1
ssg86
I0
sg87
I0
sg88
S'Ractoin'
p381
sg90
I11
sg91
I0
sg92
I26
sg93
I100
sg94
g147
sg96
(dp382
g149
I11
sg150
I4
sg151
I8
sg152
I12
sg153
I4
sg154
I7
sg155
I9
sg156
I8
sg157
I9
sg158
I9
sg159
I7
sg160
I6
sg161
I8
sg162
I9
sg163
I5
ssg113
(dp383
g165
(ijoueur
joueur
p384
(dp385
g28
I0
sg32
I0
sg34
I0
sg35
g36
(g37
g38
Ntp386
Rp387
(dp388
g42
I5
sg43
S'**'
p389
sg45
S'seigneur'
p390
sbsg47
(dp391
S'SR'
p392
I0
sS'ST'
p393
I0
sS'CR'
p394
I0
sS'CT'
p395
I0
ssg53
(dp396
g392
I0
sg393
I0
sg394
I0
sg395
I0
ssg142
(dp397
g392
I0
sg393
I0
sg394
I0
sg395
I0
ssg56
I0
sg58
I0
sg59
I0
sg60
I0
sg61
I0
sg62
I0
sg63
I0
sg64
(S'dummy'
p398
S'DM'
p399
g31
g31
tp400
sg69
I00
sg70
g36
(g37
g38
Ntp401
Rp402
(dp403
g42
I1
sg43
S'>'
p404
sg45
S'base'
p405
sbsg75
(dp406
g392
I0
sg393
I0
sg394
I2
sg395
I0
ssg81
I00
sg82
(dp407
g392
I0
sg393
I0
sg394
I0
sg395
I0
ssg84
(dp408
g392
I0
sg393
I0
sg394
I2
sg395
I0
ssg86
I0
sg87
I0
sg88
S'Ractoin'
p409
sg90
I11
sg91
I0
sg92
I26
sg93
I17
sg94
S'KAK'
p410
sg96
(dp411
S'A'
p412
I9
sS'ME'
p413
I3
sS'RP2'
p414
I6
sS'E'
p415
I11
sS'TO'
p416
I3
sS'RP1'
p417
I5
sS'JP'
p418
I7
sS'RP_tot'
p419
I6
sS'P'
p420
I8
sS'PA'
p421
I8
sS'M'
p422
I6
sS'R'
p423
I5
sS'TB'
p424
I7
sS'PL'
p425
I7
sS'TA'
p426
I4
ssg209
I0
sg210
I0
sg211
I0
sg212
I0
sg57
F7.793103448275862
sg213
I0
sg214
I0
sg215
I0
sg216
I0
sg217
(dp427
S'A'
p428
I9
sS'ME'
p429
I3
sS'RP2'
p430
I6
sS'E'
p431
I11
sS'TO'
p432
I3
sS'RP1'
p433
I5
sS'JP'
p434
I7
sS'RP_tot'
p435
I6
sS'P'
p436
I8
sS'PA'
p437
I8
sS'M'
p438
I6
sS'R'
p439
I5
sS'TB'
p440
I7
sS'PL'
p441
I7
sS'TA'
p442
I4
ssg234
g411
sg235
I0
sg236
g31
sg237
I0
sg238
I0
sg239
I0
sg240
I1
sg241
I0
sg242
I0
sg243
S'N'
p443
sbssg209
I9
sg210
I0
sg211
I0
sg212
I0
sg57
F9.206896551724139
sg213
I0
sg214
I0
sg215
I0
sg216
I0
sg217
(dp444
g246
I9
sg247
I3
sg248
I6
sg249
I11
sg250
I3
sg251
I5
sg252
I7
sg253
I6
sg254
I8
sg255
I8
sg256
I6
sg257
I5
sg258
I7
sg259
I7
sg260
I4
ssg234
g382
sg235
I0
sg236
g31
sg237
I0
sg238
I0
sg239
I0
sg240
I8
sg241
I0
sg242
I0
sg243
S'N'
p445
sbsg262
(ijoueur
joueur
p446
(dp447
g28
I0
sg32
I0
sg34
I0
sg35
g36
(g37
g38
Ntp448
Rp449
(dp450
g42
I5
sg43
S'**'
p451
sg45
S'seigneur'
p452
sbsg47
(dp453
S'SR'
p454
I0
sS'ST'
p455
I0
sS'CR'
p456
I0
sS'CT'
p457
I0
ssg53
(dp458
g454
I0
sg455
I0
sg456
I0
sg457
I0
ssg142
(dp459
g454
I0
sg455
I0
sg456
I0
sg457
I0
ssg56
I0
sg58
I0
sg59
I0
sg60
I0
sg61
I0
sg62
I0
sg63
I0
sg64
(S'dummy'
p460
S'DM'
p461
g31
g31
tp462
sg69
I00
sg70
g36
(g37
g38
Ntp463
Rp464
(dp465
g42
I1
sg43
S'>'
p466
sg45
S'base'
p467
sbsg75
(dp468
g454
I0
sg455
I0
sg456
I2
sg457
I0
ssg81
I00
sg82
(dp469
g454
I0
sg455
I0
sg456
I0
sg457
I0
ssg84
(dp470
g454
I0
sg455
I0
sg456
I2
sg457
I0
ssg86
I0
sg87
I0
sg88
S'Ractoin'
p471
sg90
I11
sg91
I0
sg92
I26
sg93
I17
sg94
S'KAK'
p472
sg96
(dp473
S'A'
p474
I9
sS'ME'
p475
I3
sS'RP2'
p476
I6
sS'E'
p477
I11
sS'TO'
p478
I3
sS'RP1'
p479
I5
sS'JP'
p480
I7
sS'RP_tot'
p481
I6
sS'P'
p482
I8
sS'PA'
p483
I8
sS'M'
p484
I6
sS'R'
p485
I5
sS'TB'
p486
I7
sS'PL'
p487
I7
sS'TA'
p488
I4
ssg209
I0
sg210
I0
sg211
I0
sg212
I0
sg57
F7.793103448275862
sg213
I0
sg214
I0
sg215
I0
sg216
I0
sg217
(dp489
S'A'
p490
I9
sS'ME'
p491
I3
sS'RP2'
p492
I6
sS'E'
p493
I11
sS'TO'
p494
I3
sS'RP1'
p495
I5
sS'JP'
p496
I7
sS'RP_tot'
p497
I6
sS'P'
p498
I8
sS'PA'
p499
I8
sS'M'
p500
I6
sS'R'
p501
I5
sS'TB'
p502
I7
sS'PL'
p503
I7
sS'TA'
p504
I4
ssg234
g473
sg235
I0
sg236
g31
sg237
I0
sg238
I0
sg239
I0
sg240
I1
sg241
I0
sg242
I0
sg243
S'N'
p505
sbssg209
I0
sg210
I0
sg211
I0
sg212
I0
sg142
(dp506
g77
I0
sg78
I0
sg79
I0
sg80
I0
ssg213
I0
sg324
I0
sg214
I0
sg215
I0
sg216
I0
sg217
(dp507
g326
I9
sg327
I3
sg328
I6
sg329
I11
sg330
I3
sg331
I5
sg332
I7
sg333
I6
sg334
I8
sg335
I8
sg336
I6
sg337
I5
sg338
I7
sg339
I7
sg340
I4
ssg234
(dp508
g98
I12
sg99
I4
sg100
I8
sg101
I12
sg106
I5
sg103
I8
sg104
I10
sg105
I10
sg102
I10
sg107
I12
sg108
I7
sg109
I7
sg110
I9
sg111
I11
sg112
I5
ssg235
I0
sg342
(dp509
sg237
I0
sg236
g31
sg238
I0
sg239
I0
sg240
I14
sg241
I0
sg242
I0
sg243
S'N'
p510
sbsS'cap'
p511
(ijoueur
joueur
p512
(dp513
g27
F11.37037037037037
sg28
I1
sg29
F11.555555555555555
sg30
g31
sg32
I0
sg33
I0
sg34
I0
sg35
g36
(g37
g38
Ntp514
Rp515
(dp516
g42
I4
sg43
S'x'
p517
sg45
S'heros'
p518
sbsg47
(dp519
g49
I0
sg50
I0
sg51
I0
sg52
I0
ssg53
(dp520
g49
I0
sg50
I0
sg51
I0
sg52
I0
ssg55
I0
sg56
I0
sg57
F10.962962962962964
sg58
I0
sg59
I0
sg60
I0
sg61
I0
sg62
I0
sg63
I0
sg64
(g65
S'PI'
p521
S'TA'
p522
S'N8'
p523
tp524
sg69
I00
sg70
g36
(g37
g38
Ntp525
Rp526
(dp527
g42
I4
sg43
g517
sg45
g518
sbsg75
(dp528
g77
I0
sg78
I0
sg79
I0
sg80
I0
ssg81
I00
sg82
(dp529
g77
I0
sg78
I0
sg79
I0
sg80
I0
ssg84
(dp530
g49
I0
sg50
I12
sg51
I0
sg52
I29
ssg86
I0
sg87
I0
sg88
S'Otopo'
p531
sg90
I8
sg91
I0
sg92
I20
sg93
I343
sg94
g95
sg96
(dp532
g98
I7
sg99
I11
sg100
I10
sg101
I12
sg102
I6
sg103
I14
sg104
I9
sg105
I15
sg106
I4
sg107
I7
sg108
I10
sg109
I11
sg110
I5
sg111
I9
sg112
I8
ssg113
(dp533
g115
(ijoueur
joueur
p534
(dp535
g27
F11.37037037037037
sg28
I1
sg30
g31
sg32
I0
sg34
I0
sg35
g36
(g37
g38
Ntp536
Rp537
(dp538
g42
I4
sg43
S'x'
p539
sg45
S'heros'
p540
sbsg47
(dp541
g124
I0
sg125
I0
sg126
I0
sg127
I0
ssg53
(dp542
g124
I0
sg125
I0
sg126
I0
sg127
I0
ssg56
I0
sg58
I0
sg59
I0
sg60
I0
sg81
I00
sg61
I2
sg62
I0
sg63
I0
sg64
(g129
S'PI'
p543
S'TA'
p544
S'N8'
p545
tp546
sg69
I00
sg70
g36
(g37
g38
Ntp547
Rp548
(dp549
g42
I4
sg43
g539
sg45
g540
sbsg75
(dp550
g138
I0
sg139
I6
sg140
I0
sg141
I13
ssg142
(dp551
g138
I0
sg139
I0
sg140
I0
sg141
I0
ssg82
(dp552
g138
I0
sg139
I0
sg140
I0
sg141
I0
ssg84
(dp553
g124
I0
sg125
I12
sg126
I0
sg127
I29
ssg86
I0
sg87
I0
sg88
S'Otopo'
p554
sg90
I8
sg91
I0
sg92
I20
sg93
I343
sg94
g147
sg96
(dp555
g149
I7
sg150
I11
sg151
I10
sg152
I13
sg153
I4
sg154
I15
sg155
I8
sg156
I18
sg157
I6
sg158
I7
sg159
I10
sg160
I11
sg161
I5
sg162
I9
sg163
I10
ssg113
(dp556
g165
(ijoueur
joueur
p557
(dp558
g28
I1
sg32
I0
sg34
I0
sg35
g36
(g37
g38
Ntp559
Rp560
(dp561
g42
I4
sg43
S'x'
p562
sg45
S'heros'
p563
sbsg47
(dp564
S'SR'
p565
I0
sS'ST'
p566
I0
sS'CR'
p567
I0
sS'CT'
p568
I0
ssg53
(dp569
g565
I0
sg566
I0
sg567
I0
sg568
I0
ssg142
(dp570
g565
I0
sg566
I0
sg567
I0
sg568
I0
ssg56
I0
sg58
I0
sg59
I0
sg60
I0
sg61
I2
sg62
I0
sg63
I0
sg64
(S'dummy'
p571
S'PI'
p572
S'TA'
p573
S'N8'
p574
tp575
sg69
I01
sg70
g36
(g37
g38
Ntp576
Rp577
(dp578
g42
I4
sg43
g562
sg45
g563
sbsg75
(dp579
g565
I0
sg566
I5
sg567
I0
sg568
I16
ssg81
I00
sg82
(dp580
g565
I0
sg566
I0
sg567
I0
sg568
I0
ssg84
(dp581
g565
I0
sg566
I5
sg567
I0
sg568
I16
ssg86
I0
sg87
I0
sg88
S'Otopo'
p582
sg90
I8
sg91
I0
sg92
I20
sg93
I343
sg94
S'KAK'
p583
sg96
(dp584
S'A'
p585
I8
sS'ME'
p586
I10
sS'RP2'
p587
I10
sS'E'
p588
I14
sS'TO'
p589
I4
sS'RP1'
p590
I15
sS'JP'
p591
I7
sS'RP_tot'
p592
I18
sS'P'
p593
I6
sS'PA'
p594
I7
sS'M'
p595
I10
sS'R'
p596
I10
sS'TB'
p597
I5
sS'PL'
p598
I9
sS'TA'
p599
I10
ssg209
I0
sg210
I0
sg211
I0
sg212
I0
sg57
F11.37037037037037
sg213
I0
sg214
I0
sg215
I0
sg216
I0
sg217
(dp600
S'A'
p601
I8
sS'ME'
p602
I10
sS'RP2'
p603
I10
sS'E'
p604
I14
sS'TO'
p605
I4
sS'RP1'
p606
I15
sS'JP'
p607
I7
sS'RP_tot'
p608
I18
sS'P'
p609
I6
sS'PA'
p610
I7
sS'M'
p611
I10
sS'R'
p612
I10
sS'TB'
p613
I5
sS'PL'
p614
I9
sS'TA'
p615
I10
ssg234
g584
sg235
I1
sg236
S'MDL 11'
p616
sg237
I0
sg238
I0
sg239
I0
sg240
I21
sg241
I12
sg242
I0
sg243
S'OG'
p617
sbssg209
I12
sg210
I0
sg211
I0
sg212
I0
sg57
F11.555555555555555
sg213
I0
sg214
I0
sg215
I0
sg216
I0
sg217
(dp618
g246
I8
sg247
I10
sg248
I10
sg249
I14
sg250
I4
sg251
I15
sg252
I7
sg253
I18
sg254
I6
sg255
I7
sg256
I10
sg257
I10
sg258
I5
sg259
I9
sg260
I10
ssg234
g555
sg235
I0
sg236
S'MDL 11'
p619
sg237
I0
sg238
I0
sg239
I0
sg240
I21
sg241
I14
sg242
I0
sg243
S'OG'
p620
sbsg262
(ijoueur
joueur
p621
(dp622
g28
I1
sg32
I0
sg34
I0
sg35
g36
(g37
g38
Ntp623
Rp624
(dp625
g42
I4
sg43
S'x'
p626
sg45
S'heros'
p627
sbsg47
(dp628
S'SR'
p629
I0
sS'ST'
p630
I0
sS'CR'
p631
I0
sS'CT'
p632
I0
ssg53
(dp633
g629
I0
sg630
I0
sg631
I0
sg632
I0
ssg142
(dp634
g629
I0
sg630
I0
sg631
I0
sg632
I0
ssg56
I0
sg58
I0
sg59
I0
sg60
I0
sg61
I2
sg62
I0
sg63
I0
sg64
(S'dummy'
p635
S'PI'
p636
S'TA'
p637
S'N8'
p638
tp639
sg69
I01
sg70
g36
(g37
g38
Ntp640
Rp641
(dp642
g42
I4
sg43
g626
sg45
g627
sbsg75
(dp643
g629
I0
sg630
I5
sg631
I0
sg632
I16
ssg81
I00
sg82
(dp644
g629
I0
sg630
I0
sg631
I0
sg632
I0
ssg84
(dp645
g629
I0
sg630
I5
sg631
I0
sg632
I16
ssg86
I0
sg87
I0
sg88
S'Otopo'
p646
sg90
I8
sg91
I0
sg92
I20
sg93
I343
sg94
S'KAK'
p647
sg96
(dp648
S'A'
p649
I8
sS'ME'
p650
I10
sS'RP2'
p651
I10
sS'E'
p652
I14
sS'TO'
p653
I4
sS'RP1'
p654
I15
sS'JP'
p655
I7
sS'RP_tot'
p656
I18
sS'P'
p657
I6
sS'PA'
p658
I7
sS'M'
p659
I10
sS'R'
p660
I10
sS'TB'
p661
I5
sS'PL'
p662
I9
sS'TA'
p663
I10
ssg209
I0
sg210
I0
sg211
I0
sg212
I0
sg57
F11.37037037037037
sg213
I0
sg214
I0
sg215
I0
sg216
I0
sg217
(dp664
S'A'
p665
I8
sS'ME'
p666
I10
sS'RP2'
p667
I10
sS'E'
p668
I14
sS'TO'
p669
I4
sS'RP1'
p670
I15
sS'JP'
p671
I7
sS'RP_tot'
p672
I18
sS'P'
p673
I6
sS'PA'
p674
I7
sS'M'
p675
I10
sS'R'
p676
I10
sS'TB'
p677
I5
sS'PL'
p678
I9
sS'TA'
p679
I10
ssg234
g648
sg235
I1
sg236
S'MDL 11'
p680
sg237
I0
sg238
I0
sg239
I0
sg240
I21
sg241
I12
sg242
I0
sg243
S'OG'
p681
sbssg209
I0
sg210
I0
sg211
I0
sg212
I0
sg142
(dp682
g77
I0
sg78
I0
sg79
I0
sg80
I0
ssg213
I0
sg324
I0
sg214
I0
sg215
I0
sg216
I0
sg217
(dp683
g326
I8
sg327
I10
sg328
I10
sg329
I14
sg330
I4
sg331
I15
sg332
I7
sg333
I18
sg334
I6
sg335
I7
sg336
I10
sg337
I10
sg338
I5
sg339
I9
sg340
I10
ssg234
(dp684
g98
I7
sg99
I11
sg100
I10
sg101
I12
sg106
I4
sg103
I14
sg104
I9
sg105
I15
sg102
I6
sg107
I7
sg108
I10
sg109
I11
sg110
I5
sg111
I9
sg112
I8
ssg235
I0
sg342
(dp685
sg237
I0
sg236
S'MDL 11'
p686
sg238
I0
sg239
I0
sg240
I21
sg241
I14
sg242
I0
sg243
S'OG'
p687
sbsS'SA_pcp1'
p688
(ijoueur
joueur
p689
(dp690
g27
F11.31578947368421
sg28
I0
sg29
F12.157894736842104
sg30
g31
sg32
I0
sg33
I0
sg34
I0
sg35
g36
(g37
g38
Ntp691
Rp692
(dp693
g42
I6
sg43
S'***'
p694
sg45
S'personnage'
p695
sbsg47
(dp696
g49
I0
sg50
I1
sg51
I0
sg52
I15
ssg53
(dp697
g49
I4
sg50
I0
sg51
I0
sg52
I0
ssg55
I0
sg56
I0
sg57
F12.052631578947368
sg58
I0
sg59
I0
sg60
I0
sg61
I0
sg62
I0
sg63
I0
sg64
(g65
S'TL'
p698
S'N8'
p699
S'DL'
p700
tp701
sg69
I00
sg70
g36
(g37
g38
Ntp702
Rp703
(dp704
g42
I6
sg43
S'***'
p705
sg45
g695
sbsg75
(dp706
g77
I0
sg78
I0
sg79
I0
sg80
I0
ssg81
I00
sg82
(dp707
g77
I0
sg78
I0
sg79
I0
sg80
I0
ssg84
(dp708
g49
I0
sg50
I6
sg51
I0
sg52
I13
ssg86
I0
sg87
I0
sg88
S"U'zhul"
p709
sg90
I8
sg91
I0
sg92
I18
sg93
I651
sg94
g95
sg96
(dp710
g98
I15
sg99
I12
sg100
I8
sg101
I11
sg102
I0
sg103
I10
sg104
I0
sg105
I11
sg106
I14
sg107
I11
sg108
I9
sg109
I10
sg110
I0
sg111
I14
sg112
I6
ssg113
(dp711
g115
(ijoueur
joueur
p712
(dp713
g27
F11.31578947368421
sg28
I0
sg30
g31
sg32
I0
sg34
I0
sg35
g36
(g37
g38
Ntp714
Rp715
(dp716
g42
I6
sg43
S'***'
p717
sg45
S'personnage'
p718
sbsg47
(dp719
g124
I0
sg125
I1
sg126
I0
sg127
I15
ssg53
(dp720
g124
I4
sg125
I0
sg126
I0
sg127
I0
ssg56
I0
sg58
I0
sg59
I0
sg60
I0
sg81
I00
sg61
I1
sg62
I0
sg63
I0
sg64
(g129
S'TL'
p721
S'N8'
p722
S'DL'
p723
tp724
sg69
I00
sg70
g36
(g37
g38
Ntp725
Rp726
(dp727
g42
I6
sg43
S'***'
p728
sg45
g718
sbsg75
(dp729
g138
I0
sg139
I4
sg140
I0
sg141
I1
ssg142
(dp730
g138
I0
sg139
I1
sg140
I0
sg141
I13
ssg82
(dp731
g138
I1
sg139
I0
sg140
I0
sg141
I0
ssg84
(dp732
g124
I0
sg125
I6
sg126
I0
sg127
I13
ssg86
I0
sg87
I0
sg88
S"U'zhul"
p733
sg90
I8
sg91
I0
sg92
I18
sg93
I651
sg94
g147
sg96
(dp734
g149
I15
sg150
I12
sg151
I8
sg152
I12
sg153
I14
sg154
I10
sg155
I0
sg156
I11
sg157
I0
sg158
I11
sg159
I9
sg160
I10
sg161
I0
sg162
I14
sg163
I6
ssg113
(dp735
g165
(ijoueur
joueur
p736
(dp737
g28
I0
sg32
I0
sg34
I0
sg35
g36
(g37
g38
Ntp738
Rp739
(dp740
g42
I6
sg43
S'***'
p741
sg45
S'personnage'
p742
sbsg47
(dp743
S'SR'
p744
I0
sS'ST'
p745
I0
sS'CR'
p746
I0
sS'CT'
p747
I2
ssg53
(dp748
g744
I3
sg745
I0
sg746
I0
sg747
I0
ssg142
(dp749
g744
I0
sg745
I0
sg746
I0
sg747
I2
ssg56
I0
sg58
I0
sg59
I0
sg60
I0
sg61
I2
sg62
I0
sg63
I0
sg64
(S'dummy'
p750
S'TL'
p751
S'N8'
p752
S'DL'
p753
tp754
sg69
I00
sg70
g36
(g37
g38
Ntp755
Rp756
(dp757
g42
I6
sg43
S'***'
p758
sg45
g742
sbsg75
(dp759
g744
I0
sg745
I2
sg746
I0
sg747
I12
ssg81
I00
sg82
(dp760
g744
I3
sg745
I0
sg746
I0
sg747
I0
ssg84
(dp761
g744
I0
sg745
I2
sg746
I0
sg747
I12
ssg86
I0
sg87
I0
sg88
S"U'zhul"
p762
sg90
I8
sg91
I0
sg92
I18
sg93
I651
sg94
S'KAK'
p763
sg96
(dp764
S'A'
p765
I14
sS'ME'
p766
I10
sS'RP2'
p767
I7
sS'E'
p768
I12
sS'TO'
p769
I14
sS'RP1'
p770
I10
sS'JP'
p771
I0
sS'RP_tot'
p772
I10
sS'P'
p773
I0
sS'PA'
p774
I11
sS'M'
p775
I9
sS'R'
p776
I9
sS'TB'
p777
I0
sS'PL'
p778
I12
sS'TA'
p779
I6
ssg209
I0
sg210
I0
sg211
I0
sg212
I0
sg57
F11.31578947368421
sg213
I0
sg214
I0
sg215
I0
sg216
I0
sg217
(dp780
S'A'
p781
I14
sS'ME'
p782
I10
sS'RP2'
p783
I7
sS'E'
p784
I12
sS'TO'
p785
I14
sS'RP1'
p786
I10
sS'JP'
p787
I0
sS'RP_tot'
p788
I10
sS'P'
p789
I0
sS'PA'
p790
I11
sS'M'
p791
I9
sS'R'
p792
I9
sS'TB'
p793
I0
sS'PL'
p794
I12
sS'TA'
p795
I6
ssg234
g764
sg235
I0
sg236
g31
sg237
I0
sg238
I0
sg239
I0
sg240
I56
sg241
I13
sg242
I0
sg243
S'CHS'
p796
sbssg209
I7
sg210
I0
sg211
I0
sg212
I0
sg57
F12.157894736842104
sg213
I0
sg214
I0
sg215
I0
sg216
I0
sg217
(dp797
g246
I14
sg247
I10
sg248
I7
sg249
I12
sg250
I14
sg251
I10
sg252
I0
sg253
I10
sg254
I0
sg255
I11
sg256
I9
sg257
I9
sg258
I0
sg259
I12
sg260
I6
ssg234
g734
sg235
I0
sg236
g31
sg237
I0
sg238
I0
sg239
I0
sg240
I56
sg241
I14
sg242
I0
sg243
S'CHS'
p798
sbsg262
(ijoueur
joueur
p799
(dp800
g28
I0
sg32
I0
sg34
I0
sg35
g36
(g37
g38
Ntp801
Rp802
(dp803
g42
I6
sg43
S'***'
p804
sg45
S'personnage'
p805
sbsg47
(dp806
S'SR'
p807
I0
sS'ST'
p808
I0
sS'CR'
p809
I0
sS'CT'
p810
I2
ssg53
(dp811
g807
I3
sg808
I0
sg809
I0
sg810
I0
ssg142
(dp812
g807
I0
sg808
I0
sg809
I0
sg810
I2
ssg56
I0
sg58
I0
sg59
I0
sg60
I0
sg61
I2
sg62
I0
sg63
I0
sg64
(S'dummy'
p813
S'TL'
p814
S'N8'
p815
S'DL'
p816
tp817
sg69
I00
sg70
g36
(g37
g38
Ntp818
Rp819
(dp820
g42
I6
sg43
S'***'
p821
sg45
g805
sbsg75
(dp822
g807
I0
sg808
I2
sg809
I0
sg810
I12
ssg81
I00
sg82
(dp823
g807
I3
sg808
I0
sg809
I0
sg810
I0
ssg84
(dp824
g807
I0
sg808
I2
sg809
I0
sg810
I12
ssg86
I0
sg87
I0
sg88
S"U'zhul"
p825
sg90
I8
sg91
I0
sg92
I18
sg93
I651
sg94
S'KAK'
p826
sg96
(dp827
S'A'
p828
I14
sS'ME'
p829
I10
sS'RP2'
p830
I7
sS'E'
p831
I12
sS'TO'
p832
I14
sS'RP1'
p833
I10
sS'JP'
p834
I0
sS'RP_tot'
p835
I10
sS'P'
p836
I0
sS'PA'
p837
I11
sS'M'
p838
I9
sS'R'
p839
I9
sS'TB'
p840
I0
sS'PL'
p841
I12
sS'TA'
p842
I6
ssg209
I0
sg210
I0
sg211
I0
sg212
I0
sg57
F11.31578947368421
sg213
I0
sg214
I0
sg215
I0
sg216
I0
sg217
(dp843
S'A'
p844
I14
sS'ME'
p845
I10
sS'RP2'
p846
I7
sS'E'
p847
I12
sS'TO'
p848
I14
sS'RP1'
p849
I10
sS'JP'
p850
I0
sS'RP_tot'
p851
I10
sS'P'
p852
I0
sS'PA'
p853
I11
sS'M'
p854
I9
sS'R'
p855
I9
sS'TB'
p856
I0
sS'PL'
p857
I12
sS'TA'
p858
I6
ssg234
g827
sg235
I0
sg236
g31
sg237
I0
sg238
I0
sg239
I0
sg240
I56
sg241
I13
sg242
I0
sg243
S'CHS'
p859
sbssg209
I0
sg210
I0
sg211
I0
sg212
I0
sg142
(dp860
g77
I0
sg78
I0
sg79
I0
sg80
I0
ssg213
I0
sg324
I0
sg214
I0
sg215
I0
sg216
I0
sg217
(dp861
g326
I14
sg327
I10
sg328
I7
sg329
I12
sg330
I14
sg331
I10
sg332
I0
sg333
I10
sg334
I0
sg335
I11
sg336
I9
sg337
I9
sg338
I0
sg339
I12
sg340
I6
ssg234
(dp862
g98
I15
sg99
I12
sg100
I8
sg101
I11
sg106
I14
sg103
I10
sg104
I0
sg105
I11
sg102
I0
sg107
I11
sg108
I9
sg109
I10
sg110
I0
sg111
I14
sg112
I6
ssg235
I0
sg342
(dp863
sg237
I0
sg236
g31
sg238
I0
sg239
I0
sg240
I56
sg241
I14
sg242
I0
sg243
S'CHS'
p864
sbsS'B4'
p865
(ijoueur
joueur
p866
(dp867
g27
F12.06060606060606
sg28
I0
sg29
F13.06060606060606
sg30
g31
sg32
I10
sg33
I0
sg34
I0
sg35
g36
(g37
g38
Ntp868
Rp869
(dp870
g42
I5
sg43
S'**'
p871
sg45
g46
sbsg47
(dp872
g49
I0
sg50
I1
sg51
I0
sg52
I14
ssg53
(dp873
g49
I0
sg50
I8
sg51
I0
sg52
I3
ssg55
I0
sg56
I0
sg57
F12.484848484848484
sg58
I0
sg59
I39
sg60
I46
sg61
I0
sg62
I0
sg63
I0
sg64
(g65
S'AR'
p874
S'CE'
p875
S'DO'
p876
tp877
sg69
I00
sg70
g36
(g37
g38
Ntp878
Rp879
(dp880
g42
I5
sg43
S'**'
p881
sg45
g46
sbsg75
(dp882
g77
I0
sg78
I0
sg79
I0
sg80
I0
ssg81
I00
sg82
(dp883
g77
I0
sg78
I0
sg79
I0
sg80
I0
ssg84
(dp884
g49
I0
sg50
I6
sg51
I0
sg52
I11
ssg86
I76
sg87
I0
sg88
S'Ukatas'
p885
sg90
I6
sg91
I50
sg92
I15
sg93
I150
sg94
g95
sg96
(dp886
g98
I14
sg99
I4
sg100
I14
sg101
I10
sg102
I13
sg103
I8
sg104
I9
sg105
I15
sg106
I8
sg107
I12
sg108
I10
sg109
I9
sg110
I10
sg111
I14
sg112
I4
ssg113
(dp887
g115
(ijoueur
joueur
p888
(dp889
g27
F12.06060606060606
sg28
I0
sg30
g31
sg32
I10
sg34
I0
sg35
g36
(g37
g38
Ntp890
Rp891
(dp892
g42
I5
sg43
S'**'
p893
sg45
g122
sbsg47
(dp894
g124
I0
sg125
I1
sg126
I0
sg127
I14
ssg53
(dp895
g124
I0
sg125
I8
sg126
I0
sg127
I3
ssg56
I0
sg58
I0
sg59
I39
sg60
I46
sg81
I01
sg61
I2
sg62
I1
sg63
I11
sg64
(g129
S'AR'
p896
S'CE'
p897
S'DO'
p898
tp899
sg69
I00
sg70
g36
(g37
g38
Ntp900
Rp901
(dp902
g42
I5
sg43
S'**'
p903
sg45
g122
sbsg75
(dp904
g138
I0
sg139
I5
sg140
I0
sg141
I11
ssg142
(dp905
g138
I0
sg139
I1
sg140
I0
sg141
I0
ssg82
(dp906
g138
I0
sg139
I0
sg140
I0
sg141
I1
ssg84
(dp907
g124
I0
sg125
I6
sg126
I0
sg127
I11
ssg86
I76
sg87
I30
sg88
S'Ukatas'
p908
sg90
I6
sg91
I50
sg92
I15
sg93
I150
sg94
g147
sg96
(dp909
g149
I15
sg150
I4
sg151
I14
sg152
I10
sg153
I8
sg154
I8
sg155
I10
sg156
I15
sg157
I14
sg158
I13
sg159
I10
sg160
I9
sg161
I11
sg162
I15
sg163
I4
ssg113
(dp910
g165
(ijoueur
joueur
p911
(dp912
g28
I0
sg32
I8
sg34
I0
sg35
g36
(g37
g38
Ntp913
Rp914
(dp915
g42
I5
sg43
S'**'
p916
sg45
S'seigneur'
p917
sbsg47
(dp918
S'SR'
p919
I0
sS'ST'
p920
I0
sS'CR'
p921
I0
sS'CT'
p922
I14
ssg53
(dp923
g919
I0
sg920
I8
sg921
I0
sg922
I2
ssg142
(dp924
g919
I0
sg920
I0
sg921
I0
sg922
I14
ssg56
I0
sg58
I0
sg59
I39
sg60
I46
sg61
I1
sg62
I0
sg63
I0
sg64
(S'dummy'
p925
S'AR'
p926
S'CE'
p927
S'DO'
p928
tp929
sg69
I00
sg70
g36
(g37
g38
Ntp930
Rp931
(dp932
g42
I5
sg43
S'**'
p933
sg45
g917
sbsg75
(dp934
g919
I0
sg920
I0
sg921
I0
sg922
I0
ssg81
I01
sg82
(dp935
g919
I0
sg920
I8
sg921
I0
sg922
I2
ssg84
(dp936
g919
I0
sg920
I0
sg921
I0
sg922
I0
ssg86
I46
sg87
I0
sg88
S'Ukatas'
p937
sg90
I6
sg91
I39
sg92
I15
sg93
I150
sg94
S'KAK'
p938
sg96
(dp939
S'A'
p940
I14
sS'ME'
p941
I4
sS'RP2'
p942
I13
sS'E'
p943
I10
sS'TO'
p944
I8
sS'RP1'
p945
I7
sS'JP'
p946
I10
sS'RP_tot'
p947
I13
sS'P'
p948
I10
sS'PA'
p949
I12
sS'M'
p950
I10
sS'R'
p951
I9
sS'TB'
p952
I10
sS'PL'
p953
I14
sS'TA'
p954
I4
ssg209
I0
sg210
I0
sg211
I0
sg212
I0
sg57
F12.06060606060606
sg213
I0
sg214
I3
sg215
I0
sg216
I0
sg217
(dp955
S'A'
p956
I14
sS'ME'
p957
I4
sS'RP2'
p958
I13
sS'E'
p959
I10
sS'TO'
p960
I8
sS'RP1'
p961
I7
sS'JP'
p962
I10
sS'RP_tot'
p963
I13
sS'P'
p964
I10
sS'PA'
p965
I12
sS'M'
p966
I10
sS'R'
p967
I9
sS'TB'
p968
I10
sS'PL'
p969
I14
sS'TA'
p970
I4
ssg234
g939
sg235
I0
sg236
S'ED 9'
p971
sg237
I0
sg238
I6
sg239
I0
sg240
I15
sg241
I12
sg242
I0
sg243
S'S'
p972
sbssg209
I5
sg210
I0
sg211
I0
sg212
I0
sg57
F13.06060606060606
sg213
I1
sg214
I3
sg215
I0
sg216
I1
sg217
(dp973
g246
I14
sg247
I4
sg248
I13
sg249
I10
sg250
I8
sg251
I7
sg252
I10
sg253
I13
sg254
I10
sg255
I12
sg256
I10
sg257
I9
sg258
I10
sg259
I14
sg260
I4
ssg234
g909
sg235
I0
sg236
S'ED 9'
p974
sg237
I2
sg238
I2
sg239
I2
sg240
I15
sg241
I14
sg242
I1
sg243
S'S'
p975
sbsg262
(ijoueur
joueur
p976
(dp977
g28
I0
sg32
I8
sg34
I0
sg35
g36
(g37
g38
Ntp978
Rp979
(dp980
g42
I5
sg43
S'**'
p981
sg45
S'seigneur'
p982
sbsg47
(dp983
S'SR'
p984
I0
sS'ST'
p985
I0
sS'CR'
p986
I0
sS'CT'
p987
I14
ssg53
(dp988
g984
I0
sg985
I8
sg986
I0
sg987
I2
ssg142
(dp989
g984
I0
sg985
I0
sg986
I0
sg987
I14
ssg56
I0
sg58
I0
sg59
I39
sg60
I46
sg61
I1
sg62
I0
sg63
I0
sg64
(S'dummy'
p990
S'AR'
p991
S'CE'
p992
S'DO'
p993
tp994
sg69
I00
sg70
g36
(g37
g38
Ntp995
Rp996
(dp997
g42
I5
sg43
S'**'
p998
sg45
g982
sbsg75
(dp999
g984
I0
sg985
I0
sg986
I0
sg987
I0
ssg81
I01
sg82
(dp1000
g984
I0
sg985
I8
sg986
I0
sg987
I2
ssg84
(dp1001
g984
I0
sg985
I0
sg986
I0
sg987
I0
ssg86
I46
sg87
I0
sg88
S'Ukatas'
p1002
sg90
I6
sg91
I39
sg92
I15
sg93
I150
sg94
S'KAK'
p1003
sg96
(dp1004
S'A'
p1005
I14
sS'ME'
p1006
I4
sS'RP2'
p1007
I13
sS'E'
p1008
I10
sS'TO'
p1009
I8
sS'RP1'
p1010
I7
sS'JP'
p1011
I10
sS'RP_tot'
p1012
I13
sS'P'
p1013
I10
sS'PA'
p1014
I12
sS'M'
p1015
I10
sS'R'
p1016
I9
sS'TB'
p1017
I10
sS'PL'
p1018
I14
sS'TA'
p1019
I4
ssg209
I0
sg210
I0
sg211
I0
sg212
I0
sg57
F12.06060606060606
sg213
I0
sg214
I3
sg215
I0
sg216
I0
sg217
(dp1020
S'A'
p1021
I14
sS'ME'
p1022
I4
sS'RP2'
p1023
I13
sS'E'
p1024
I10
sS'TO'
p1025
I8
sS'RP1'
p1026
I7
sS'JP'
p1027
I10
sS'RP_tot'
p1028
I13
sS'P'
p1029
I10
sS'PA'
p1030
I12
sS'M'
p1031
I10
sS'R'
p1032
I9
sS'TB'
p1033
I10
sS'PL'
p1034
I14
sS'TA'
p1035
I4
ssg234
g1004
sg235
I0
sg236
S'ED 9'
p1036
sg237
I0
sg238
I6
sg239
I0
sg240
I15
sg241
I12
sg242
I0
sg243
S'S'
p1037
sbssg209
I0
sg210
I0
sg211
I0
sg212
I0
sg142
(dp1038
g77
I0
sg78
I0
sg79
I0
sg80
I0
ssg213
I1
sg324
I0
sg214
I3
sg215
I0
sg216
I1
sg217
(dp1039
g326
I14
sg327
I4
sg328
I13
sg329
I10
sg330
I8
sg331
I7
sg332
I10
sg333
I13
sg334
I10
sg335
I12
sg336
I10
sg337
I9
sg338
I10
sg339
I14
sg340
I4
ssg234
(dp1040
g98
I14
sg99
I4
sg100
I14
sg101
I10
sg106
I8
sg103
I8
sg104
I9
sg105
I15
sg102
I13
sg107
I12
sg108
I10
sg109
I9
sg110
I10
sg111
I14
sg112
I4
ssg235
I0
sg342
(dp1041
sg237
I2
sg236
S'ED 9'
p1042
sg238
I0
sg239
I0
sg240
I15
sg241
I14
sg242
I0
sg243
S'S'
p1043
sbsS'RJC'
p1044
g866
sS'B1'
p1045
(ijoueur
joueur
p1046
(dp1047
g27
F10.0
sg28
I0
sg29
F9.4
sg30
g31
sg32
I0
sg33
I0
sg34
I0
sg35
g36
(g37
g38
Ntp1048
Rp1049
(dp1050
g42
I2
sg43
S'<<'
p1051
sg45
S'special'
p1052
sbsg47
(dp1053
g49
I0
sg50
I0
sg51
I3
sg52
I18
ssg53
(dp1054
g49
I0
sg50
I0
sg51
I3
sg52
I2
ssg55
I0
sg56
I0
sg57
F9.628571428571428
sg58
I0
sg59
I26
sg60
I69
sg61
I0
sg62
I0
sg63
I0
sg64
(g65
S'DO'
p1055
S'CE'
p1056
S'AI'
p1057
tp1058
sg69
I00
sg70
g36
(g37
g38
Ntp1059
Rp1060
(dp1061
g42
I2
sg43
S'<<'
p1062
sg45
g1052
sbsg75
(dp1063
g77
I0
sg78
I0
sg79
I0
sg80
I0
ssg81
I00
sg82
(dp1064
g77
I0
sg78
I0
sg79
I0
sg80
I0
ssg84
(dp1065
g49
I0
sg50
I0
sg51
I1
sg52
I1
ssg86
I85
sg87
I0
sg88
S'Fetaor'
p1066
sg90
I8
sg91
I34
sg92
I15
sg93
I50
sg94
g95
sg96
(dp1067
g98
I14
sg99
I3
sg100
I8
sg101
I9
sg102
I10
sg103
I6
sg104
I6
sg105
I8
sg106
I7
sg107
I10
sg108
I8
sg109
I7
sg110
I11
sg111
I13
sg112
I5
ssg113
(dp1068
g115
(ijoueur
joueur
p1069
(dp1070
g27
F10.0
sg28
I0
sg30
g31
sg32
I0
sg34
I0
sg35
g36
(g37
g38
Ntp1071
Rp1072
(dp1073
g42
I2
sg43
S'<<'
p1074
sg45
S'special'
p1075
sbsg47
(dp1076
g124
I0
sg125
I0
sg126
I3
sg127
I18
ssg53
(dp1077
g124
I0
sg125
I0
sg126
I3
sg127
I2
ssg56
I0
sg58
I0
sg59
I26
sg60
I69
sg81
I00
sg61
I1
sg62
I0
sg63
I7
sg64
(g129
S'DO'
p1078
S'CE'
p1079
S'AI'
p1080
tp1081
sg69
I00
sg70
g36
(g37
g38
Ntp1082
Rp1083
(dp1084
g42
I2
sg43
S'<<'
p1085
sg45
g1075
sbsg75
(dp1086
g138
I0
sg139
I0
sg140
I0
sg141
I0
ssg142
(dp1087
g138
I0
sg139
I0
sg140
I0
sg141
I12
ssg82
(dp1088
g138
I0
sg139
I0
sg140
I0
sg141
I0
ssg84
(dp1089
g124
I0
sg125
I0
sg126
I1
sg127
I1
ssg86
I85
sg87
I16
sg88
S'Fetaor'
p1090
sg90
I8
sg91
I34
sg92
I15
sg93
I50
sg94
g147
sg96
(dp1091
g149
I14
sg150
I3
sg151
I8
sg152
I9
sg153
I7
sg154
I6
sg155
I5
sg156
I8
sg157
I10
sg158
I9
sg159
I8
sg160
I7
sg161
I12
sg162
I13
sg163
I5
ssg113
(dp1092
g165
(ijoueur
joueur
p1093
(dp1094
g28
I0
sg32
I0
sg34
I0
sg35
g36
(g37
g38
Ntp1095
Rp1096
(dp1097
g42
I2
sg43
S'<<'
p1098
sg45
S'special'
p1099
sbsg47
(dp1100
S'SR'
p1101
I0
sS'ST'
p1102
I0
sS'CR'
p1103
I3
sS'CT'
p1104
I6
ssg53
(dp1105
g1101
I0
sg1102
I0
sg1103
I3
sg1104
I2
ssg142
(dp1106
g1101
I0
sg1102
I0
sg1103
I3
sg1104
I6
ssg56
I0
sg58
I0
sg59
I26
sg60
I69
sg61
I0
sg62
I0
sg63
I1
sg64
(S'dummy'
p1107
S'DO'
p1108
S'CE'
p1109
S'AI'
p1110
tp1111
sg69
I01
sg70
g36
(g37
g38
Ntp1112
Rp1113
(dp1114
g42
I2
sg43
S'<<'
p1115
sg45
g1099
sbsg75
(dp1116
g1101
I0
sg1102
I0
sg1103
I1
sg1104
I1
ssg81
I01
sg82
(dp1117
g1101
I0
sg1102
I0
sg1103
I3
sg1104
I2
ssg84
(dp1118
g1101
I0
sg1102
I0
sg1103
I1
sg1104
I1
ssg86
I69
sg87
I0
sg88
S'Fetaor'
p1119
sg90
I8
sg91
I27
sg92
I15
sg93
I50
sg94
S'KAK'
p1120
sg96
(dp1121
S'A'
p1122
I14
sS'ME'
p1123
I3
sS'RP2'
p1124
I8
sS'E'
p1125
I10
sS'TO'
p1126
I7
sS'RP1'
p1127
I6
sS'JP'
p1128
I6
sS'RP_tot'
p1129
I8
sS'P'
p1130
I10
sS'PA'
p1131
I11
sS'M'
p1132
I8
sS'R'
p1133
I7
sS'TB'
p1134
I11
sS'PL'
p1135
I14
sS'TA'
p1136
I5
ssg209
I0
sg210
I0
sg211
I0
sg212
I0
sg57
F10.0
sg213
I0
sg214
I0
sg215
I0
sg216
I0
sg217
(dp1137
S'A'
p1138
I14
sS'ME'
p1139
I3
sS'RP2'
p1140
I8
sS'E'
p1141
I10
sS'TO'
p1142
I7
sS'RP1'
p1143
I6
sS'JP'
p1144
I6
sS'RP_tot'
p1145
I8
sS'P'
p1146
I10
sS'PA'
p1147
I11
sS'M'
p1148
I8
sS'R'
p1149
I7
sS'TB'
p1150
I11
sS'PL'
p1151
I14
sS'TA'
p1152
I5
ssg234
g1121
sg235
I0
sg236
S'PRG 11'
p1153
sg237
I0
sg238
I0
sg239
I0
sg240
I5
sg241
I0
sg242
I0
sg243
S'EN'
p1154
sbssg209
I0
sg210
I0
sg211
I0
sg212
I0
sg57
F9.4
sg213
I0
sg214
I0
sg215
I0
sg216
I0
sg217
(dp1155
g246
I14
sg247
I3
sg248
I8
sg249
I10
sg250
I7
sg251
I6
sg252
I6
sg253
I8
sg254
I10
sg255
I11
sg256
I8
sg257
I7
sg258
I11
sg259
I14
sg260
I5
ssg234
g1091
sg235
I0
sg236
S'PRG 11'
p1156
sg237
I1
sg238
I0
sg239
I1
sg240
I5
sg241
I1
sg242
I0
sg243
S'EN'
p1157
sbsg262
(ijoueur
joueur
p1158
(dp1159
g28
I0
sg32
I0
sg34
I0
sg35
g36
(g37
g38
Ntp1160
Rp1161
(dp1162
g42
I2
sg43
S'<<'
p1163
sg45
S'special'
p1164
sbsg47
(dp1165
S'SR'
p1166
I0
sS'ST'
p1167
I0
sS'CR'
p1168
I3
sS'CT'
p1169
I6
ssg53
(dp1170
g1166
I0
sg1167
I0
sg1168
I3
sg1169
I2
ssg142
(dp1171
g1166
I0
sg1167
I0
sg1168
I3
sg1169
I6
ssg56
I0
sg58
I0
sg59
I26
sg60
I69
sg61
I0
sg62
I0
sg63
I1
sg64
(S'dummy'
p1172
S'DO'
p1173
S'CE'
p1174
S'AI'
p1175
tp1176
sg69
I01
sg70
g36
(g37
g38
Ntp1177
Rp1178
(dp1179
g42
I2
sg43
S'<<'
p1180
sg45
g1164
sbsg75
(dp1181
g1166
I0
sg1167
I0
sg1168
I1
sg1169
I1
ssg81
I01
sg82
(dp1182
g1166
I0
sg1167
I0
sg1168
I3
sg1169
I2
ssg84
(dp1183
g1166
I0
sg1167
I0
sg1168
I1
sg1169
I1
ssg86
I69
sg87
I0
sg88
S'Fetaor'
p1184
sg90
I8
sg91
I27
sg92
I15
sg93
I50
sg94
S'KAK'
p1185
sg96
(dp1186
S'A'
p1187
I14
sS'ME'
p1188
I3
sS'RP2'
p1189
I8
sS'E'
p1190
I10
sS'TO'
p1191
I7
sS'RP1'
p1192
I6
sS'JP'
p1193
I6
sS'RP_tot'
p1194
I8
sS'P'
p1195
I10
sS'PA'
p1196
I11
sS'M'
p1197
I8
sS'R'
p1198
I7
sS'TB'
p1199
I11
sS'PL'
p1200
I14
sS'TA'
p1201
I5
ssg209
I0
sg210
I0
sg211
I0
sg212
I0
sg57
F10.0
sg213
I0
sg214
I0
sg215
I0
sg216
I0
sg217
(dp1202
S'A'
p1203
I14
sS'ME'
p1204
I3
sS'RP2'
p1205
I8
sS'E'
p1206
I10
sS'TO'
p1207
I7
sS'RP1'
p1208
I6
sS'JP'
p1209
I6
sS'RP_tot'
p1210
I8
sS'P'
p1211
I10
sS'PA'
p1212
I11
sS'M'
p1213
I8
sS'R'
p1214
I7
sS'TB'
p1215
I11
sS'PL'
p1216
I14
sS'TA'
p1217
I5
ssg234
g1186
sg235
I0
sg236
S'PRG 11'
p1218
sg237
I0
sg238
I0
sg239
I0
sg240
I5
sg241
I0
sg242
I0
sg243
S'EN'
p1219
sbssg209
I0
sg210
I0
sg211
I0
sg212
I0
sg142
(dp1220
g77
I0
sg78
I0
sg79
I0
sg80
I0
ssg213
I0
sg324
I0
sg214
I0
sg215
I0
sg216
I0
sg217
(dp1221
g326
I14
sg327
I3
sg328
I8
sg329
I10
sg330
I7
sg331
I6
sg332
I6
sg333
I8
sg334
I10
sg335
I11
sg336
I8
sg337
I7
sg338
I11
sg339
I14
sg340
I5
ssg234
(dp1222
g98
I14
sg99
I3
sg100
I8
sg101
I9
sg106
I7
sg103
I6
sg104
I6
sg105
I8
sg102
I10
sg107
I10
sg108
I8
sg109
I7
sg110
I11
sg111
I13
sg112
I5
ssg235
I0
sg342
(dp1223
sg237
I1
sg236
S'PRG 11'
p1224
sg238
I0
sg239
I0
sg240
I5
sg241
I1
sg242
I0
sg243
S'EN'
p1225
sbsS'B2'
p1226
g1046
sS'B3'
p1227
g1046
sS'SA_pcp2'
p1228
(ijoueur
joueur
p1229
(dp1230
g27
F10.580645161290322
sg28
I0
sg29
F11.0
sg30
g31
sg32
I0
sg33
I0
sg34
I0
sg35
g36
(g37
g38
Ntp1231
Rp1232
(dp1233
g42
I4
sg43
S'*'
p1234
sg45
g518
sbsg47
(dp1235
g49
I0
sg50
I0
sg51
I0
sg52
I13
ssg53
(dp1236
g49
I0
sg50
I0
sg51
I0
sg52
I0
ssg55
I0
sg56
I0
sg57
F10.789473684210526
sg58
I0
sg59
I0
sg60
I0
sg61
I0
sg62
I0
sg63
I0
sg64
(g65
S'TL'
p1237
S'DL'
p1238
g31
tp1239
sg69
I00
sg70
g36
(g37
g38
Ntp1240
Rp1241
(dp1242
g42
I4
sg43
g1234
sg45
g518
sbsg75
(dp1243
g77
I0
sg78
I0
sg79
I0
sg80
I0
ssg81
I00
sg82
(dp1244
g77
I0
sg78
I0
sg79
I0
sg80
I0
ssg84
(dp1245
g49
I0
sg50
I0
sg51
I2
sg52
I12
ssg86
I0
sg87
I0
sg88
S'Xouvess'
p1246
sg90
I5
sg91
I0
sg92
I13
sg93
I150
sg94
g95
sg96
(dp1247
g98
I12
sg99
I8
sg100
I6
sg101
I10
sg102
I4
sg103
I9
sg104
I3
sg105
I9
sg106
I12
sg107
I8
sg108
I8
sg109
I10
sg110
I4
sg111
I14
sg112
I7
ssg113
(dp1248
g115
(ijoueur
joueur
p1249
(dp1250
g27
F10.580645161290322
sg28
I0
sg30
g31
sg32
I0
sg34
I0
sg35
g36
(g37
g38
Ntp1251
Rp1252
(dp1253
g42
I4
sg43
S'*'
p1254
sg45
g540
sbsg47
(dp1255
g124
I0
sg125
I0
sg126
I0
sg127
I13
ssg53
(dp1256
g124
I0
sg125
I0
sg126
I0
sg127
I0
ssg56
I0
sg58
I0
sg59
I0
sg60
I0
sg81
I01
sg61
I1
sg62
I0
sg63
I0
sg64
(g129
S'TL'
p1257
S'DL'
p1258
g31
tp1259
sg69
I00
sg70
g36
(g37
g38
Ntp1260
Rp1261
(dp1262
g42
I4
sg43
g1254
sg45
g540
sbsg75
(dp1263
g138
I0
sg139
I0
sg140
I0
sg141
I0
ssg142
(dp1264
g138
I0
sg139
I0
sg140
I0
sg141
I13
ssg82
(dp1265
g138
I0
sg139
I0
sg140
I0
sg141
I0
ssg84
(dp1266
g124
I0
sg125
I0
sg126
I2
sg127
I12
ssg86
I0
sg87
I0
sg88
S'Xouvess'
p1267
sg90
I5
sg91
I0
sg92
I13
sg93
I150
sg94
g147
sg96
(dp1268
g149
I12
sg150
I9
sg151
I7
sg152
I10
sg153
I12
sg154
I9
sg155
I3
sg156
I9
sg157
I4
sg158
I8
sg159
I8
sg160
I10
sg161
I4
sg162
I15
sg163
I7
ssg113
(dp1269
g165
(ijoueur
joueur
p1270
(dp1271
g28
I0
sg32
I0
sg34
I0
sg35
g36
(g37
g38
Ntp1272
Rp1273
(dp1274
g42
I4
sg43
S'*'
p1275
sg45
S'heros'
p1276
sbsg47
(dp1277
S'SR'
p1278
I0
sS'ST'
p1279
I0
sS'CR'
p1280
I0
sS'CT'
p1281
I0
ssg53
(dp1282
g1278
I0
sg1279
I0
sg1280
I0
sg1281
I0
ssg142
(dp1283
g1278
I0
sg1279
I0
sg1280
I0
sg1281
I0
ssg56
I0
sg58
I0
sg59
I0
sg60
I0
sg61
I1
sg62
I0
sg63
I0
sg64
(S'dummy'
p1284
S'TL'
p1285
S'DL'
p1286
g31
tp1287
sg69
I00
sg70
g36
(g37
g38
Ntp1288
Rp1289
(dp1290
g42
I4
sg43
g1275
sg45
g1276
sbsg75
(dp1291
g1278
I0
sg1279
I0
sg1280
I2
sg1281
I12
ssg81
I00
sg82
(dp1292
g1278
I0
sg1279
I0
sg1280
I0
sg1281
I0
ssg84
(dp1293
g1278
I0
sg1279
I0
sg1280
I2
sg1281
I12
ssg86
I0
sg87
I0
sg88
S'Xouvess'
p1294
sg90
I5
sg91
I0
sg92
I13
sg93
I150
sg94
S'KAK'
p1295
sg96
(dp1296
S'A'
p1297
I10
sS'ME'
p1298
I9
sS'RP2'
p1299
I6
sS'E'
p1300
I10
sS'TO'
p1301
I10
sS'RP1'
p1302
I9
sS'JP'
p1303
I3
sS'RP_tot'
p1304
I9
sS'P'
p1305
I4
sS'PA'
p1306
I8
sS'M'
p1307
I8
sS'R'
p1308
I10
sS'TB'
p1309
I4
sS'PL'
p1310
I15
sS'TA'
p1311
I7
ssg209
I0
sg210
I0
sg211
I0
sg212
I0
sg57
F10.580645161290322
sg213
I0
sg214
I0
sg215
I0
sg216
I0
sg217
(dp1312
S'A'
p1313
I10
sS'ME'
p1314
I9
sS'RP2'
p1315
I6
sS'E'
p1316
I10
sS'TO'
p1317
I10
sS'RP1'
p1318
I9
sS'JP'
p1319
I3
sS'RP_tot'
p1320
I9
sS'P'
p1321
I4
sS'PA'
p1322
I8
sS'M'
p1323
I8
sS'R'
p1324
I10
sS'TB'
p1325
I4
sS'PL'
p1326
I15
sS'TA'
p1327
I7
ssg234
g1296
sg235
I0
sg236
S'PRG 11'
p1328
sg237
I0
sg238
I0
sg239
I0
sg240
I15
sg241
I2
sg242
I0
sg243
S'CHS'
p1329
sbssg209
I0
sg210
I0
sg211
I0
sg212
I0
sg57
F11.0
sg213
I0
sg214
I0
sg215
I0
sg216
I0
sg217
(dp1330
g246
I10
sg247
I9
sg248
I6
sg249
I10
sg250
I10
sg251
I9
sg252
I3
sg253
I9
sg254
I4
sg255
I8
sg256
I8
sg257
I10
sg258
I4
sg259
I15
sg260
I7
ssg234
g1268
sg235
I0
sg236
S'PRG 11'
p1331
sg237
I0
sg238
I0
sg239
I0
sg240
I15
sg241
I3
sg242
I0
sg243
S'CHS'
p1332
sbsg262
(ijoueur
joueur
p1333
(dp1334
g28
I0
sg32
I0
sg34
I0
sg35
g36
(g37
g38
Ntp1335
Rp1336
(dp1337
g42
I4
sg43
S'*'
p1338
sg45
S'heros'
p1339
sbsg47
(dp1340
S'SR'
p1341
I0
sS'ST'
p1342
I0
sS'CR'
p1343
I0
sS'CT'
p1344
I0
ssg53
(dp1345
g1341
I0
sg1342
I0
sg1343
I0
sg1344
I0
ssg142
(dp1346
g1341
I0
sg1342
I0
sg1343
I0
sg1344
I0
ssg56
I0
sg58
I0
sg59
I0
sg60
I0
sg61
I1
sg62
I0
sg63
I0
sg64
(S'dummy'
p1347
S'TL'
p1348
S'DL'
p1349
g31
tp1350
sg69
I00
sg70
g36
(g37
g38
Ntp1351
Rp1352
(dp1353
g42
I4
sg43
g1338
sg45
g1339
sbsg75
(dp1354
g1341
I0
sg1342
I0
sg1343
I2
sg1344
I12
ssg81
I00
sg82
(dp1355
g1341
I0
sg1342
I0
sg1343
I0
sg1344
I0
ssg84
(dp1356
g1341
I0
sg1342
I0
sg1343
I2
sg1344
I12
ssg86
I0
sg87
I0
sg88
S'Xouvess'
p1357
sg90
I5
sg91
I0
sg92
I13
sg93
I150
sg94
S'KAK'
p1358
sg96
(dp1359
S'A'
p1360
I10
sS'ME'
p1361
I9
sS'RP2'
p1362
I6
sS'E'
p1363
I10
sS'TO'
p1364
I10
sS'RP1'
p1365
I9
sS'JP'
p1366
I3
sS'RP_tot'
p1367
I9
sS'P'
p1368
I4
sS'PA'
p1369
I8
sS'M'
p1370
I8
sS'R'
p1371
I10
sS'TB'
p1372
I4
sS'PL'
p1373
I15
sS'TA'
p1374
I7
ssg209
I0
sg210
I0
sg211
I0
sg212
I0
sg57
F10.580645161290322
sg213
I0
sg214
I0
sg215
I0
sg216
I0
sg217
(dp1375
S'A'
p1376
I10
sS'ME'
p1377
I9
sS'RP2'
p1378
I6
sS'E'
p1379
I10
sS'TO'
p1380
I10
sS'RP1'
p1381
I9
sS'JP'
p1382
I3
sS'RP_tot'
p1383
I9
sS'P'
p1384
I4
sS'PA'
p1385
I8
sS'M'
p1386
I8
sS'R'
p1387
I10
sS'TB'
p1388
I4
sS'PL'
p1389
I15
sS'TA'
p1390
I7
ssg234
g1359
sg235
I0
sg236
S'PRG 11'
p1391
sg237
I0
sg238
I0
sg239
I0
sg240
I15
sg241
I2
sg242
I0
sg243
S'CHS'
p1392
sbssg209
I0
sg210
I0
sg211
I0
sg212
I0
sg142
(dp1393
g77
I0
sg78
I0
sg79
I0
sg80
I0
ssg213
I0
sg324
I0
sg214
I0
sg215
I0
sg216
I0
sg217
(dp1394
g326
I10
sg327
I9
sg328
I6
sg329
I10
sg330
I10
sg331
I9
sg332
I3
sg333
I9
sg334
I4
sg335
I8
sg336
I8
sg337
I10
sg338
I4
sg339
I15
sg340
I7
ssg234
(dp1395
g98
I12
sg99
I8
sg100
I6
sg101
I10
sg106
I12
sg103
I9
sg104
I3
sg105
I9
sg102
I4
sg107
I8
sg108
I8
sg109
I10
sg110
I4
sg111
I14
sg112
I7
ssg235
I0
sg342
(dp1396
sg237
I0
sg236
S'PRG 11'
p1397
sg238
I0
sg239
I0
sg240
I15
sg241
I3
sg242
I0
sg243
S'CHS'
p1398
sbsS'drop2'
p1399
(ijoueur
joueur
p1400
(dp1401
g27
F9.448275862068966
sg28
I0
sg29
F9.517241379310345
sg30
g31
sg32
I1
sg33
I0
sg34
I0
sg35
g36
(g37
g38
Ntp1402
Rp1403
(dp1404
g42
I2
sg43
S'^^'
p1405
sg45
S'special'
p1406
sbsg47
(dp1407
S'SR'
p1408
I0
sS'CT'
p1409
I2
sS'CR'
p1410
I5
sS'ST'
p1411
I0
ssg53
(dp1412
g1408
I0
sg1409
I0
sg1410
I0
sg1411
I0
ssg55
I0
sg56
I0
sg58
I0
sg324
I0
sg81
I00
sg61
I0
sg62
I0
sg63
I0
sg64
(S'dummy'
p1413
S'C2'
p1414
S'AR'
p1415
S'AI'
p1416
tp1417
sg69
I00
sg70
g36
(g37
g38
Ntp1418
Rp1419
(dp1420
g42
I2
sg43
S'^^'
p1421
sg45
g1406
sbsg75
(dp1422
g77
I0
sg78
I0
sg79
I0
sg80
I0
ssg142
(dp1423
g77
I0
sg78
I0
sg79
I0
sg80
I0
ssg82
(dp1424
g77
I0
sg78
I0
sg79
I0
sg80
I0
ssg84
(dp1425
g1408
I0
sg1409
I7
sg1410
I13
sg1411
I0
ssg86
I0
sg87
I0
sg88
S'Kledyr'
p1426
sg90
I8
sg91
I0
sg92
I15
sg93
I50
sg94
g95
sg96
(dp1427
S'A'
p1428
I11
sS'ME'
p1429
I3
sS'RP2'
p1430
I8
sS'E'
p1431
I8
sS'TO'
p1432
I6
sS'RP1'
p1433
I7
sS'JP'
p1434
I9
sS'RP_tot'
p1435
I9
sS'P'
p1436
I9
sS'PA'
p1437
I11
sS'M'
p1438
I10
sS'R'
p1439
I2
sS'TB'
p1440
I8
sS'PL'
p1441
I11
sS'TA'
p1442
I3
ssg113
(dp1443
g115
(ijoueur
joueur
p1444
(dp1445
g27
F9.448275862068966
sg28
I0
sg30
g31
sg32
I1
sg34
I0
sg35
g36
(g37
g38
Ntp1446
Rp1447
(dp1448
g42
I2
sg43
S'^^'
p1449
sg45
S'special'
p1450
sbsg47
(dp1451
S'SR'
p1452
I0
sS'CT'
p1453
I2
sS'CR'
p1454
I5
sS'ST'
p1455
I0
ssg53
(dp1456
g1452
I0
sg1453
I0
sg1454
I0
sg1455
I0
ssg142
(dp1457
g138
I0
sg139
I0
sg140
I5
sg141
I1
ssg56
I0
sg58
I0
sg61
I1
sg62
I0
sg63
I0
sg64
(S'dummy'
p1458
S'C2'
p1459
S'AR'
p1460
S'AI'
p1461
tp1462
sg69
I00
sg70
g36
(g37
g38
Ntp1463
Rp1464
(dp1465
g42
I2
sg43
S'^^'
p1466
sg45
g1450
sbsg75
(dp1467
g138
I0
sg139
I0
sg140
I3
sg141
I4
ssg81
I00
sg82
(dp1468
g138
I0
sg139
I0
sg140
I0
sg141
I0
ssg84
(dp1469
g1452
I0
sg1453
I7
sg1454
I13
sg1455
I0
ssg86
I0
sg87
I0
sg88
S'Kledyr'
p1470
sg90
I8
sg91
I0
sg92
I15
sg93
I50
sg94
g147
sg96
(dp1471
S'A'
p1472
I11
sS'ME'
p1473
I3
sS'RP2'
p1474
I8
sS'E'
p1475
I8
sS'P'
p1476
I9
sS'RP1'
p1477
I7
sS'JP'
p1478
I9
sS'RP_tot'
p1479
I8
sS'TO'
p1480
I6
sS'PA'
p1481
I11
sS'M'
p1482
I10
sS'R'
p1483
I4
sS'TB'
p1484
I8
sS'PL'
p1485
I12
sS'TA'
p1486
I3
ssg113
(dp1487
g165
(ijoueur
joueur
p1488
(dp1489
g28
I0
sg32
I0
sg34
I0
sg35
g36
(g37
g38
Ntp1490
Rp1491
(dp1492
g42
I2
sg43
S'^^'
p1493
sg45
S'special'
p1494
sbsg47
(dp1495
S'SR'
p1496
I0
sS'CT'
p1497
I1
sS'CR'
p1498
I0
sS'ST'
p1499
I0
ssg53
(dp1500
g1496
I0
sg1497
I0
sg1498
I0
sg1499
I0
ssg56
I0
sg58
I0
sg81
I01
sg61
I0
sg62
I0
sg63
I0
sg64
(S'dummy'
p1501
S'C2'
p1502
S'AR'
p1503
S'AI'
p1504
tp1505
sg69
I01
sg70
g36
(g37
g38
Ntp1506
Rp1507
(dp1508
g42
I2
sg43
S'^^'
p1509
sg45
g1494
sbsg75
(dp1510
g1496
I0
sg1497
I3
sg1498
I10
sg1499
I0
ssg142
(dp1511
g1496
I0
sg1497
I1
sg1498
I0
sg1499
I0
ssg82
(dp1512
g1496
I0
sg1497
I0
sg1498
I0
sg1499
I0
ssg84
(dp1513
g1496
I0
sg1497
I3
sg1498
I10
sg1499
I0
ssg86
I0
sg87
I0
sg88
S'Kledyr'
p1514
sg90
I8
sg91
I0
sg92
I15
sg93
I28
sg94
S'CAT'
p1515
sg96
(dp1516
S'A'
p1517
I11
sS'ME'
p1518
I3
sS'RP2'
p1519
I8
sS'E'
p1520
I8
sS'P'
p1521
I9
sS'RP1'
p1522
I7
sS'JP'
p1523
I8
sS'RP_tot'
p1524
I8
sS'TO'
p1525
I6
sS'PA'
p1526
I10
sS'M'
p1527
I11
sS'R'
p1528
I4
sS'TB'
p1529
I7
sS'PL'
p1530
I12
sS'TA'
p1531
I3
ssg209
I0
sg210
I0
sg211
I0
sg212
I0
sg57
F9.448275862068966
sg213
I0
sg215
I0
sg216
I0
sg217
(dp1532
S'A'
p1533
I11
sS'ME'
p1534
I3
sS'RP2'
p1535
I8
sS'E'
p1536
I8
sS'P'
p1537
I9
sS'RP1'
p1538
I7
sS'JP'
p1539
I8
sS'RP_tot'
p1540
I8
sS'TO'
p1541
I6
sS'PA'
p1542
I10
sS'M'
p1543
I11
sS'R'
p1544
I4
sS'TB'
p1545
I7
sS'PL'
p1546
I12
sS'TA'
p1547
I3
ssg234
g1516
sg235
I0
sg236
g31
sg237
I0
sg238
I0
sg239
I0
sg240
I3
sg241
I0
sg242
I0
sg243
S'EN'
p1548
sbssg209
I0
sg210
I0
sg211
I0
sg212
I0
sg57
F9.517241379310345
sg213
I0
sg215
I0
sg216
I0
sg217
(dp1549
S'A'
p1550
I11
sS'ME'
p1551
I3
sS'RP2'
p1552
I8
sS'E'
p1553
I8
sS'P'
p1554
I9
sS'RP1'
p1555
I7
sS'JP'
p1556
I8
sS'RP_tot'
p1557
I8
sS'TO'
p1558
I6
sS'PA'
p1559
I10
sS'M'
p1560
I11
sS'R'
p1561
I4
sS'TB'
p1562
I7
sS'PL'
p1563
I12
sS'TA'
p1564
I3
ssg234
g1471
sg235
I0
sg236
S'CAT 12'
p1565
sg237
I0
sg238
I1
sg239
I0
sg240
I9
sg241
I1
sg242
I0
sg243
S'EN'
p1566
sbsg262
(ijoueur
joueur
p1567
(dp1568
g28
I0
sg32
I0
sg34
I0
sg35
g36
(g37
g38
Ntp1569
Rp1570
(dp1571
g42
I2
sg43
S'^^'
p1572
sg45
S'special'
p1573
sbsg47
(dp1574
S'SR'
p1575
I0
sS'CT'
p1576
I1
sS'CR'
p1577
I0
sS'ST'
p1578
I0
ssg53
(dp1579
g1575
I0
sg1576
I0
sg1577
I0
sg1578
I0
ssg56
I0
sg58
I0
sg81
I01
sg61
I0
sg62
I0
sg63
I0
sg64
(S'dummy'
p1580
S'C2'
p1581
S'AR'
p1582
S'AI'
p1583
tp1584
sg69
I01
sg70
g36
(g37
g38
Ntp1585
Rp1586
(dp1587
g42
I2
sg43
S'^^'
p1588
sg45
g1573
sbsg75
(dp1589
g1575
I0
sg1576
I3
sg1577
I10
sg1578
I0
ssg142
(dp1590
g1575
I0
sg1576
I1
sg1577
I0
sg1578
I0
ssg82
(dp1591
g1575
I0
sg1576
I0
sg1577
I0
sg1578
I0
ssg84
(dp1592
g1575
I0
sg1576
I3
sg1577
I10
sg1578
I0
ssg86
I0
sg87
I0
sg88
S'Kledyr'
p1593
sg90
I8
sg91
I0
sg92
I15
sg93
I28
sg94
S'CAT'
p1594
sg96
(dp1595
S'A'
p1596
I11
sS'ME'
p1597
I3
sS'RP2'
p1598
I8
sS'E'
p1599
I8
sS'P'
p1600
I9
sS'RP1'
p1601
I7
sS'JP'
p1602
I8
sS'RP_tot'
p1603
I8
sS'TO'
p1604
I6
sS'PA'
p1605
I10
sS'M'
p1606
I11
sS'R'
p1607
I4
sS'TB'
p1608
I7
sS'PL'
p1609
I12
sS'TA'
p1610
I3
ssg209
I0
sg210
I0
sg211
I0
sg212
I0
sg57
F9.448275862068966
sg213
I0
sg215
I0
sg216
I0
sg217
(dp1611
S'A'
p1612
I11
sS'ME'
p1613
I3
sS'RP2'
p1614
I8
sS'E'
p1615
I8
sS'P'
p1616
I9
sS'RP1'
p1617
I7
sS'JP'
p1618
I8
sS'RP_tot'
p1619
I8
sS'TO'
p1620
I6
sS'PA'
p1621
I10
sS'M'
p1622
I11
sS'R'
p1623
I4
sS'TB'
p1624
I7
sS'PL'
p1625
I12
sS'TA'
p1626
I3
ssg234
g1595
sg235
I0
sg236
g31
sg237
I0
sg238
I0
sg239
I0
sg240
I3
sg241
I0
sg242
I0
sg243
S'EN'
p1627
sbssg209
I0
sg210
I0
sg211
I0
sg212
I0
sg57
F9.379310344827585
sg213
I0
sg215
I0
sg216
I0
sg217
(dp1628
S'A'
p1629
I11
sS'ME'
p1630
I3
sS'RP2'
p1631
I8
sS'E'
p1632
I8
sS'P'
p1633
I9
sS'RP1'
p1634
I7
sS'JP'
p1635
I8
sS'RP_tot'
p1636
I8
sS'TO'
p1637
I6
sS'PA'
p1638
I10
sS'M'
p1639
I11
sS'R'
p1640
I4
sS'TB'
p1641
I7
sS'PL'
p1642
I12
sS'TA'
p1643
I3
ssg234
(dp1644
g1428
I11
sg1429
I3
sg1430
I8
sg1431
I8
sg1436
I9
sg1433
I7
sg1434
I9
sg1435
I9
sg1432
I6
sg1437
I11
sg1438
I10
sg1439
I2
sg1440
I8
sg1441
I11
sg1442
I3
ssg235
I0
sg342
(dp1645
sg237
I0
sg236
S'CAT 12'
p1646
sg238
I0
sg239
I0
sg240
I9
sg241
I1
sg242
I0
sg243
S'EN'
p1647
sbsS'RJL'
p1648
g866
sS'SA_remp1'
p1649
(ijoueur
joueur
p1650
(dp1651
g27
F9.5
sg28
I0
sg29
F8.944444444444445
sg30
g31
sg32
I0
sg33
I0
sg34
I0
sg35
g36
(g37
g38
Ntp1652
Rp1653
(dp1654
g42
I4
sg43
g1234
sg45
g518
sbsg47
(dp1655
g49
I0
sg50
I0
sg51
I0
sg52
I0
ssg53
(dp1656
g49
I0
sg50
I0
sg51
I0
sg52
I0
ssg55
I0
sg56
I0
sg57
F8.833333333333334
sg58
I0
sg59
I0
sg60
I0
sg61
I0
sg62
I0
sg63
I0
sg64
(g65
S'DL'
p1657
S'TL'
p1658
g31
tp1659
sg69
I00
sg70
g36
(g37
g38
Ntp1660
Rp1661
(dp1662
g42
I4
sg43
g1234
sg45
g518
sbsg75
(dp1663
g77
I0
sg78
I0
sg79
I0
sg80
I0
ssg81
I00
sg82
(dp1664
g77
I0
sg78
I0
sg79
I0
sg80
I0
ssg84
(dp1665
g49
I0
sg50
I0
sg51
I18
sg52
I7
ssg86
I0
sg87
I0
sg88
S'Impenor'
p1666
sg90
I2
sg91
I0
sg92
I10
sg93
I76
sg94
g95
sg96
(dp1667
g98
I13
sg99
I7
sg100
I7
sg101
I10
sg102
I8
sg103
I8
sg104
I5
sg105
I9
sg106
I11
sg107
I9
sg108
I7
sg109
I7
sg110
I9
sg111
I7
sg112
I6
ssg113
(dp1668
g115
(ijoueur
joueur
p1669
(dp1670
g27
F9.5
sg28
I0
sg30
g31
sg32
I0
sg34
I0
sg35
g36
(g37
g38
Ntp1671
Rp1672
(dp1673
g42
I4
sg43
g1254
sg45
g540
sbsg47
(dp1674
g124
I0
sg125
I0
sg126
I0
sg127
I0
ssg53
(dp1675
g124
I0
sg125
I0
sg126
I0
sg127
I0
ssg56
I0
sg58
I0
sg59
I0
sg60
I0
sg81
I00
sg61
I1
sg62
I0
sg63
I0
sg64
(g129
S'DL'
p1676
S'TL'
p1677
g31
tp1678
sg69
I00
sg70
g36
(g37
g38
Ntp1679
Rp1680
(dp1681
g42
I4
sg43
g1254
sg45
g540
sbsg75
(dp1682
g138
I0
sg139
I0
sg140
I12
sg141
I3
ssg142
(dp1683
g138
I0
sg139
I0
sg140
I0
sg141
I0
ssg82
(dp1684
g138
I0
sg139
I0
sg140
I0
sg141
I0
ssg84
(dp1685
g124
I0
sg125
I0
sg126
I18
sg127
I7
ssg86
I0
sg87
I0
sg88
S'Impenor'
p1686
sg90
I2
sg91
I0
sg92
I10
sg93
I76
sg94
g147
sg96
(dp1687
g149
I13
sg150
I7
sg151
I7
sg152
I10
sg153
I12
sg154
I8
sg155
I5
sg156
I8
sg157
I7
sg158
I9
sg159
I8
sg160
I7
sg161
I9
sg162
I7
sg163
I6
ssg113
(dp1688
g165
(ijoueur
joueur
p1689
(dp1690
g28
I0
sg32
I0
sg34
I0
sg35
g36
(g37
g38
Ntp1691
Rp1692
(dp1693
g42
I4
sg43
S'*'
p1694
sg45
S'heros'
p1695
sbsg47
(dp1696
S'SR'
p1697
I0
sS'ST'
p1698
I0
sS'CR'
p1699
I0
sS'CT'
p1700
I0
ssg53
(dp1701
g1697
I0
sg1698
I0
sg1699
I0
sg1700
I0
ssg142
(dp1702
g1697
I0
sg1698
I0
sg1699
I0
sg1700
I0
ssg56
I0
sg58
I0
sg59
I0
sg60
I0
sg61
I0
sg62
I0
sg63
I0
sg64
(S'dummy'
p1703
S'DL'
p1704
S'TL'
p1705
g31
tp1706
sg69
I00
sg70
g36
(g37
g38
Ntp1707
Rp1708
(dp1709
g42
I4
sg43
g1694
sg45
g1695
sbsg75
(dp1710
g1697
I0
sg1698
I0
sg1699
I6
sg1700
I4
ssg81
I00
sg82
(dp1711
g1697
I0
sg1698
I0
sg1699
I0
sg1700
I0
ssg84
(dp1712
g1697
I0
sg1698
I0
sg1699
I6
sg1700
I4
ssg86
I0
sg87
I0
sg88
S'Impenor'
p1713
sg90
I2
sg91
I0
sg92
I10
sg93
I76
sg94
S'KAK'
p1714
sg96
(dp1715
S'A'
p1716
I13
sS'ME'
p1717
I9
sS'RP2'
p1718
I7
sS'E'
p1719
I11
sS'TO'
p1720
I12
sS'RP1'
p1721
I8
sS'JP'
p1722
I5
sS'RP_tot'
p1723
I8
sS'P'
p1724
I7
sS'PA'
p1725
I9
sS'M'
p1726
I8
sS'R'
p1727
I7
sS'TB'
p1728
I9
sS'PL'
p1729
I9
sS'TA'
p1730
I6
ssg209
I0
sg210
I0
sg211
I0
sg212
I0
sg57
F9.5
sg213
I0
sg214
I0
sg215
I0
sg216
I0
sg217
(dp1731
S'A'
p1732
I13
sS'ME'
p1733
I9
sS'RP2'
p1734
I7
sS'E'
p1735
I11
sS'TO'
p1736
I12
sS'RP1'
p1737
I8
sS'JP'
p1738
I5
sS'RP_tot'
p1739
I8
sS'P'
p1740
I7
sS'PA'
p1741
I9
sS'M'
p1742
I8
sS'R'
p1743
I7
sS'TB'
p1744
I9
sS'PL'
p1745
I9
sS'TA'
p1746
I6
ssg234
g1715
sg235
I0
sg236
g31
sg237
I0
sg238
I0
sg239
I0
sg240
I9
sg241
I14
sg242
I0
sg243
S'ES'
p1747
sbssg209
I0
sg210
I0
sg211
I0
sg212
I0
sg57
F8.944444444444445
sg213
I0
sg214
I0
sg215
I0
sg216
I0
sg217
(dp1748
g246
I13
sg247
I9
sg248
I7
sg249
I11
sg250
I12
sg251
I8
sg252
I5
sg253
I8
sg254
I7
sg255
I9
sg256
I8
sg257
I7
sg258
I9
sg259
I9
sg260
I6
ssg234
g1687
sg235
I0
sg236
g31
sg237
I0
sg238
I0
sg239
I0
sg240
I9
sg241
I15
sg242
I0
sg243
S'ES'
p1749
sbsg262
(ijoueur
joueur
p1750
(dp1751
g28
I0
sg32
I0
sg34
I0
sg35
g36
(g37
g38
Ntp1752
Rp1753
(dp1754
g42
I4
sg43
S'*'
p1755
sg45
S'heros'
p1756
sbsg47
(dp1757
S'SR'
p1758
I0
sS'ST'
p1759
I0
sS'CR'
p1760
I0
sS'CT'
p1761
I0
ssg53
(dp1762
g1758
I0
sg1759
I0
sg1760
I0
sg1761
I0
ssg142
(dp1763
g1758
I0
sg1759
I0
sg1760
I0
sg1761
I0
ssg56
I0
sg58
I0
sg59
I0
sg60
I0
sg61
I0
sg62
I0
sg63
I0
sg64
(S'dummy'
p1764
S'DL'
p1765
S'TL'
p1766
g31
tp1767
sg69
I00
sg70
g36
(g37
g38
Ntp1768
Rp1769
(dp1770
g42
I4
sg43
g1755
sg45
g1756
sbsg75
(dp1771
g1758
I0
sg1759
I0
sg1760
I6
sg1761
I4
ssg81
I00
sg82
(dp1772
g1758
I0
sg1759
I0
sg1760
I0
sg1761
I0
ssg84
(dp1773
g1758
I0
sg1759
I0
sg1760
I6
sg1761
I4
ssg86
I0
sg87
I0
sg88
S'Impenor'
p1774
sg90
I2
sg91
I0
sg92
I10
sg93
I76
sg94
S'KAK'
p1775
sg96
(dp1776
S'A'
p1777
I13
sS'ME'
p1778
I9
sS'RP2'
p1779
I7
sS'E'
p1780
I11
sS'TO'
p1781
I12
sS'RP1'
p1782
I8
sS'JP'
p1783
I5
sS'RP_tot'
p1784
I8
sS'P'
p1785
I7
sS'PA'
p1786
I9
sS'M'
p1787
I8
sS'R'
p1788
I7
sS'TB'
p1789
I9
sS'PL'
p1790
I9
sS'TA'
p1791
I6
ssg209
I0
sg210
I0
sg211
I0
sg212
I0
sg57
F9.5
sg213
I0
sg214
I0
sg215
I0
sg216
I0
sg217
(dp1792
S'A'
p1793
I13
sS'ME'
p1794
I9
sS'RP2'
p1795
I7
sS'E'
p1796
I11
sS'TO'
p1797
I12
sS'RP1'
p1798
I8
sS'JP'
p1799
I5
sS'RP_tot'
p1800
I8
sS'P'
p1801
I7
sS'PA'
p1802
I9
sS'M'
p1803
I8
sS'R'
p1804
I7
sS'TB'
p1805
I9
sS'PL'
p1806
I9
sS'TA'
p1807
I6
ssg234
g1776
sg235
I0
sg236
g31
sg237
I0
sg238
I0
sg239
I0
sg240
I9
sg241
I14
sg242
I0
sg243
S'ES'
p1808
sbssg209
I0
sg210
I0
sg211
I0
sg212
I0
sg142
(dp1809
g77
I0
sg78
I0
sg79
I0
sg80
I0
ssg213
I0
sg324
I0
sg214
I0
sg215
I0
sg216
I0
sg217
(dp1810
g326
I13
sg327
I9
sg328
I7
sg329
I11
sg330
I12
sg331
I8
sg332
I5
sg333
I8
sg334
I7
sg335
I9
sg336
I8
sg337
I7
sg338
I9
sg339
I9
sg340
I6
ssg234
(dp1811
g98
I13
sg99
I7
sg100
I7
sg101
I10
sg106
I11
sg103
I8
sg104
I5
sg105
I9
sg102
I8
sg107
I9
sg108
I7
sg109
I7
sg110
I9
sg111
I7
sg112
I6
ssg235
I0
sg342
(dp1812
sg237
I0
sg236
g31
sg238
I0
sg239
I0
sg240
I9
sg241
I15
sg242
I0
sg243
S'ES'
p1813
sbsS'drop1'
p1814
g866
sS'SA_remp2'
p1815
(ijoueur
joueur
p1816
(dp1817
g27
F11.481481481481481
sg28
I0
sg29
F10.777777777777779
sg30
g31
sg32
I0
sg33
I0
sg34
I0
sg35
g36
(g37
g38
Ntp1818
Rp1819
(dp1820
g42
I4
sg43
g517
sg45
g518
sbsg47
(dp1821
g49
I0
sg50
I0
sg51
I0
sg52
I0
ssg53
(dp1822
g49
I0
sg50
I0
sg51
I0
sg52
I0
ssg55
I0
sg56
I0
sg57
F11.037037037037036
sg58
I0
sg59
I0
sg60
I0
sg61
I0
sg62
I0
sg63
I0
sg64
(g65
S'PI'
p1823
S'DL'
p1824
g31
tp1825
sg69
I00
sg70
g36
(g37
g38
Ntp1826
Rp1827
(dp1828
g42
I4
sg43
g517
sg45
g518
sbsg75
(dp1829
g77
I0
sg78
I0
sg79
I0
sg80
I0
ssg81
I00
sg82
(dp1830
g77
I0
sg78
I0
sg79
I0
sg80
I0
ssg84
(dp1831
g49
I0
sg50
I12
sg51
I0
sg52
I27
ssg86
I0
sg87
I0
sg88
S'Ovlehr'
p1832
sg90
I9
sg91
I0
sg92
I19
sg93
I187
sg94
g95
sg96
(dp1833
g98
I10
sg99
I14
sg100
I9
sg101
I9
sg102
I5
sg103
I10
sg104
I6
sg105
I11
sg106
I9
sg107
I9
sg108
I9
sg109
I11
sg110
I6
sg111
I11
sg112
I6
ssg113
(dp1834
g115
(ijoueur
joueur
p1835
(dp1836
g27
F11.481481481481481
sg28
I0
sg30
g31
sg32
I0
sg34
I0
sg35
g36
(g37
g38
Ntp1837
Rp1838
(dp1839
g42
I4
sg43
g539
sg45
g540
sbsg47
(dp1840
g124
I0
sg125
I0
sg126
I0
sg127
I0
ssg53
(dp1841
g124
I0
sg125
I0
sg126
I0
sg127
I0
ssg56
I0
sg58
I0
sg59
I0
sg60
I0
sg81
I00
sg61
I0
sg62
I0
sg63
I0
sg64
(g129
S'PI'
p1842
S'DL'
p1843
g31
tp1844
sg69
I00
sg70
g36
(g37
g38
Ntp1845
Rp1846
(dp1847
g42
I4
sg43
g539
sg45
g540
sbsg75
(dp1848
g138
I0
sg139
I6
sg140
I0
sg141
I12
ssg142
(dp1849
g138
I0
sg139
I0
sg140
I0
sg141
I0
ssg82
(dp1850
g138
I0
sg139
I0
sg140
I0
sg141
I0
ssg84
(dp1851
g124
I0
sg125
I12
sg126
I0
sg127
I27
ssg86
I0
sg87
I0
sg88
S'Ovlehr'
p1852
sg90
I9
sg91
I0
sg92
I19
sg93
I187
sg94
g147
sg96
(dp1853
g149
I9
sg150
I13
sg151
I9
sg152
I9
sg153
I9
sg154
I10
sg155
I6
sg156
I12
sg157
I5
sg158
I9
sg159
I9
sg160
I11
sg161
I6
sg162
I10
sg163
I6
ssg113
(dp1854
g165
(ijoueur
joueur
p1855
(dp1856
g28
I0
sg32
I0
sg34
I0
sg35
g36
(g37
g38
Ntp1857
Rp1858
(dp1859
g42
I4
sg43
S'x'
p1860
sg45
S'heros'
p1861
sbsg47
(dp1862
S'SR'
p1863
I0
sS'ST'
p1864
I0
sS'CR'
p1865
I0
sS'CT'
p1866
I0
ssg53
(dp1867
g1863
I0
sg1864
I0
sg1865
I0
sg1866
I0
ssg142
(dp1868
g1863
I0
sg1864
I0
sg1865
I0
sg1866
I0
ssg56
I0
sg58
I0
sg59
I0
sg60
I0
sg61
I0
sg62
I0
sg63
I0
sg64
(S'dummy'
p1869
S'PI'
p1870
S'DL'
p1871
g31
tp1872
sg69
I01
sg70
g36
(g37
g38
Ntp1873
Rp1874
(dp1875
g42
I4
sg43
g1860
sg45
g1861
sbsg75
(dp1876
g1863
I0
sg1864
I5
sg1865
I0
sg1866
I15
ssg81
I01
sg82
(dp1877
g1863
I0
sg1864
I0
sg1865
I0
sg1866
I0
ssg84
(dp1878
g1863
I0
sg1864
I5
sg1865
I0
sg1866
I15
ssg86
I0
sg87
I0
sg88
S'Ovlehr'
p1879
sg90
I9
sg91
I0
sg92
I19
sg93
I187
sg94
S'KAK'
p1880
sg96
(dp1881
S'A'
p1882
I10
sS'ME'
p1883
I13
sS'RP2'
p1884
I9
sS'E'
p1885
I9
sS'TO'
p1886
I9
sS'RP1'
p1887
I10
sS'JP'
p1888
I6
sS'RP_tot'
p1889
I12
sS'P'
p1890
I5
sS'PA'
p1891
I9
sS'M'
p1892
I10
sS'R'
p1893
I13
sS'TB'
p1894
I6
sS'PL'
p1895
I11
sS'TA'
p1896
I7
ssg209
I0
sg210
I0
sg211
I1
sg212
I0
sg57
F11.481481481481481
sg213
I0
sg214
I0
sg215
I1
sg216
I0
sg217
(dp1897
S'A'
p1898
I10
sS'ME'
p1899
I13
sS'RP2'
p1900
I9
sS'E'
p1901
I9
sS'TO'
p1902
I9
sS'RP1'
p1903
I10
sS'JP'
p1904
I6
sS'RP_tot'
p1905
I12
sS'P'
p1906
I5
sS'PA'
p1907
I9
sS'M'
p1908
I10
sS'R'
p1909
I13
sS'TB'
p1910
I6
sS'PL'
p1911
I11
sS'TA'
p1912
I7
ssg234
g1881
sg235
I0
sg236
S'DKF 11'
p1913
sg237
I0
sg238
I0
sg239
I0
sg240
I17
sg241
I0
sg242
I0
sg243
S'CV'
p1914
sbssg209
I10
sg210
I0
sg211
I1
sg212
I0
sg57
F10.777777777777779
sg213
I0
sg214
I0
sg215
I0
sg216
I0
sg217
(dp1915
g246
I10
sg247
I13
sg248
I9
sg249
I9
sg250
I9
sg251
I10
sg252
I6
sg253
I12
sg254
I5
sg255
I9
sg256
I10
sg257
I13
sg258
I6
sg259
I11
sg260
I7
ssg234
g1853
sg235
I0
sg236
S'DKF 11'
p1916
sg237
I0
sg238
I0
sg239
I0
sg240
I17
sg241
I0
sg242
I0
sg243
S'CV'
p1917
sbsg262
(ijoueur
joueur
p1918
(dp1919
g28
I0
sg32
I0
sg34
I0
sg35
g36
(g37
g38
Ntp1920
Rp1921
(dp1922
g42
I4
sg43
S'x'
p1923
sg45
S'heros'
p1924
sbsg47
(dp1925
S'SR'
p1926
I0
sS'ST'
p1927
I0
sS'CR'
p1928
I0
sS'CT'
p1929
I0
ssg53
(dp1930
g1926
I0
sg1927
I0
sg1928
I0
sg1929
I0
ssg142
(dp1931
g1926
I0
sg1927
I0
sg1928
I0
sg1929
I0
ssg56
I0
sg58
I0
sg59
I0
sg60
I0
sg61
I0
sg62
I0
sg63
I0
sg64
(S'dummy'
p1932
S'PI'
p1933
S'DL'
p1934
g31
tp1935
sg69
I01
sg70
g36
(g37
g38
Ntp1936
Rp1937
(dp1938
g42
I4
sg43
g1923
sg45
g1924
sbsg75
(dp1939
g1926
I0
sg1927
I5
sg1928
I0
sg1929
I15
ssg81
I01
sg82
(dp1940
g1926
I0
sg1927
I0
sg1928
I0
sg1929
I0
ssg84
(dp1941
g1926
I0
sg1927
I5
sg1928
I0
sg1929
I15
ssg86
I0
sg87
I0
sg88
S'Ovlehr'
p1942
sg90
I9
sg91
I0
sg92
I19
sg93
I187
sg94
S'KAK'
p1943
sg96
(dp1944
S'A'
p1945
I10
sS'ME'
p1946
I13
sS'RP2'
p1947
I9
sS'E'
p1948
I9
sS'TO'
p1949
I9
sS'RP1'
p1950
I10
sS'JP'
p1951
I6
sS'RP_tot'
p1952
I12
sS'P'
p1953
I5
sS'PA'
p1954
I9
sS'M'
p1955
I10
sS'R'
p1956
I13
sS'TB'
p1957
I6
sS'PL'
p1958
I11
sS'TA'
p1959
I7
ssg209
I0
sg210
I0
sg211
I1
sg212
I0
sg57
F11.481481481481481
sg213
I0
sg214
I0
sg215
I1
sg216
I0
sg217
(dp1960
S'A'
p1961
I10
sS'ME'
p1962
I13
sS'RP2'
p1963
I9
sS'E'
p1964
I9
sS'TO'
p1965
I9
sS'RP1'
p1966
I10
sS'JP'
p1967
I6
sS'RP_tot'
p1968
I12
sS'P'
p1969
I5
sS'PA'
p1970
I9
sS'M'
p1971
I10
sS'R'
p1972
I13
sS'TB'
p1973
I6
sS'PL'
p1974
I11
sS'TA'
p1975
I7
ssg234
g1944
sg235
I0
sg236
S'DKF 11'
p1976
sg237
I0
sg238
I0
sg239
I0
sg240
I17
sg241
I0
sg242
I0
sg243
S'CV'
p1977
sbssg209
I0
sg210
I0
sg211
I1
sg212
I0
sg142
(dp1978
g77
I0
sg78
I0
sg79
I0
sg80
I0
ssg213
I0
sg324
I0
sg214
I0
sg215
I0
sg216
I0
sg217
(dp1979
g326
I10
sg327
I13
sg328
I9
sg329
I9
sg330
I9
sg331
I10
sg332
I6
sg333
I12
sg334
I5
sg335
I9
sg336
I10
sg337
I13
sg338
I6
sg339
I11
sg340
I7
ssg234
(dp1980
g98
I10
sg99
I14
sg100
I9
sg101
I9
sg106
I9
sg103
I10
sg104
I6
sg105
I11
sg102
I5
sg107
I9
sg108
I9
sg109
I11
sg110
I6
sg111
I11
sg112
I6
ssg235
I0
sg342
(dp1981
sg237
I0
sg236
S'DKF 11'
p1982
sg238
I0
sg239
I0
sg240
I17
sg241
I0
sg242
I0
sg243
S'CV'
p1983
sbssS'totaux'
p1984
(dp1985
g19
I0
sg20
I0
sg21
I0
ssS'_compo_defaut_fatigue'
p1986
Nsg96
(dp1987
g4
I0
sg5
I0
sg6
I0
sg7
I0
sg8
I0
sg9
I0
sg10
I0
sg11
I0
sg12
I0
sg13
I0
sg14
I0
sg15
I0
sg16
I0
ssS'joueurs'
p1988
(dp1989
S'n12'
p1990
g1400
sS'n13'
p1991
g1046
sS'n10'
p1992
(ijoueur
joueur
p1993
(dp1994
g27
F10.6
sg28
I1
sg29
F10.4
sg30
g31
sg32
I2
sg33
I0
sg34
I0
sg35
g36
(g37
g38
Ntp1995
Rp1996
(dp1997
g42
I5
sg43
S'**'
p1998
sg45
g46
sbsg47
(dp1999
g49
I0
sg50
I0
sg51
I0
sg52
I5
ssg53
(dp2000
g49
I0
sg50
I0
sg51
I0
sg52
I0
ssg55
I0
sg56
I0
sg57
F10.266666666666667
sg58
I0
sg59
I0
sg60
I0
sg61
I0
sg62
I0
sg63
I0
sg64
(g65
S'C1'
p2001
S'DO'
p2002
S'AR'
p2003
tp2004
sg69
I00
sg70
g36
(g37
g38
Ntp2005
Rp2006
(dp2007
g42
I5
sg43
S'**'
p2008
sg45
g46
sbsg75
(dp2009
g77
I0
sg78
I0
sg79
I0
sg80
I0
ssg81
I00
sg82
(dp2010
g77
I0
sg78
I0
sg79
I0
sg80
I0
ssg84
(dp2011
g49
I0
sg50
I0
sg51
I2
sg52
I21
ssg86
I0
sg87
I0
sg88
S'Silodem'
p2012
sg90
I3
sg91
I0
sg92
I13
sg93
I188
sg94
g95
sg96
(dp2013
g98
I12
sg99
I6
sg100
I9
sg101
I11
sg102
I10
sg103
I9
sg104
I8
sg105
I11
sg106
I8
sg107
I11
sg108
I10
sg109
I6
sg110
I10
sg111
I10
sg112
I5
ssg113
(dp2014
g115
(ijoueur
joueur
p2015
(dp2016
g27
F10.6
sg28
I1
sg30
g31
sg32
I2
sg34
I0
sg35
g36
(g37
g38
Ntp2017
Rp2018
(dp2019
g42
I5
sg43
S'**'
p2020
sg45
g122
sbsg47
(dp2021
g124
I0
sg125
I0
sg126
I0
sg127
I5
ssg53
(dp2022
g124
I0
sg125
I0
sg126
I0
sg127
I0
ssg56
I0
sg58
I0
sg59
I0
sg60
I0
sg81
I00
sg61
I2
sg62
I0
sg63
I0
sg64
(g129
S'C1'
p2023
S'DO'
p2024
S'AR'
p2025
tp2026
sg69
I00
sg70
g36
(g37
g38
Ntp2027
Rp2028
(dp2029
g42
I5
sg43
S'**'
p2030
sg45
g122
sbsg75
(dp2031
g138
I0
sg139
I0
sg140
I0
sg141
I9
ssg142
(dp2032
g138
I0
sg139
I0
sg140
I0
sg141
I3
ssg82
(dp2033
g138
I0
sg139
I0
sg140
I0
sg141
I0
ssg84
(dp2034
g124
I0
sg125
I0
sg126
I2
sg127
I21
ssg86
I0
sg87
I0
sg88
S'Silodem'
p2035
sg90
I3
sg91
I0
sg92
I13
sg93
I188
sg94
g147
sg96
(dp2036
g149
I12
sg150
I6
sg151
I9
sg152
I12
sg153
I8
sg154
I9
sg155
I8
sg156
I11
sg157
I10
sg158
I11
sg159
I10
sg160
I6
sg161
I10
sg162
I10
sg163
I5
ssg113
(dp2037
g165
(ijoueur
joueur
p2038
(dp2039
g28
I0
sg32
I2
sg34
I0
sg35
g36
(g37
g38
Ntp2040
Rp2041
(dp2042
g42
I5
sg43
S'**'
p2043
sg45
S'seigneur'
p2044
sbsg47
(dp2045
S'SR'
p2046
I0
sS'ST'
p2047
I0
sS'CR'
p2048
I0
sS'CT'
p2049
I2
ssg53
(dp2050
g2046
I0
sg2047
I0
sg2048
I0
sg2049
I0
ssg142
(dp2051
g2046
I0
sg2047
I0
sg2048
I0
sg2049
I2
ssg56
I0
sg58
I0
sg59
I0
sg60
I0
sg61
I0
sg62
I0
sg63
I0
sg64
(S'dummy'
p2052
S'C1'
p2053
S'DO'
p2054
S'AR'
p2055
tp2056
sg69
I00
sg70
g36
(g37
g38
Ntp2057
Rp2058
(dp2059
g42
I5
sg43
S'**'
p2060
sg45
g2044
sbsg75
(dp2061
g2046
I0
sg2047
I0
sg2048
I2
sg2049
I12
ssg81
I00
sg82
(dp2062
g2046
I0
sg2047
I0
sg2048
I0
sg2049
I0
ssg84
(dp2063
g2046
I0
sg2047
I0
sg2048
I2
sg2049
I12
ssg86
I0
sg87
I0
sg88
S'Silodem'
p2064
sg90
I3
sg91
I0
sg92
I13
sg93
I188
sg94
S'KAK'
p2065
sg96
(dp2066
S'A'
p2067
I12
sS'ME'
p2068
I6
sS'RP2'
p2069
I9
sS'E'
p2070
I12
sS'TO'
p2071
I8
sS'RP1'
p2072
I9
sS'JP'
p2073
I10
sS'RP_tot'
p2074
I11
sS'P'
p2075
I10
sS'PA'
p2076
I11
sS'M'
p2077
I10
sS'R'
p2078
I7
sS'TB'
p2079
I9
sS'PL'
p2080
I10
sS'TA'
p2081
I5
ssg209
I0
sg210
I0
sg211
I0
sg212
I0
sg57
F10.6
sg213
I0
sg214
I0
sg215
I0
sg216
I0
sg217
(dp2082
S'A'
p2083
I12
sS'ME'
p2084
I6
sS'RP2'
p2085
I9
sS'E'
p2086
I12
sS'TO'
p2087
I8
sS'RP1'
p2088
I9
sS'JP'
p2089
I10
sS'RP_tot'
p2090
I11
sS'P'
p2091
I10
sS'PA'
p2092
I11
sS'M'
p2093
I10
sS'R'
p2094
I7
sS'TB'
p2095
I9
sS'PL'
p2096
I10
sS'TA'
p2097
I5
ssg234
g2066
sg235
I0
sg236
g31
sg237
I0
sg238
I2
sg239
I0
sg240
I16
sg241
I10
sg242
I0
sg243
S'S'
p2098
sbssg209
I0
sg210
I0
sg211
I0
sg212
I0
sg57
F10.4
sg213
I0
sg214
I0
sg215
I0
sg216
I0
sg217
(dp2099
g246
I12
sg247
I6
sg248
I9
sg249
I12
sg250
I8
sg251
I9
sg252
I10
sg253
I11
sg254
I10
sg255
I11
sg256
I10
sg257
I7
sg258
I9
sg259
I10
sg260
I5
ssg234
g2036
sg235
I1
sg236
g31
sg237
I0
sg238
I0
sg239
I0
sg240
I16
sg241
I12
sg242
I0
sg243
g975
sbsg262
(ijoueur
joueur
p2100
(dp2101
g28
I0
sg32
I2
sg34
I0
sg35
g36
(g37
g38
Ntp2102
Rp2103
(dp2104
g42
I5
sg43
S'**'
p2105
sg45
S'seigneur'
p2106
sbsg47
(dp2107
S'SR'
p2108
I0
sS'ST'
p2109
I0
sS'CR'
p2110
I0
sS'CT'
p2111
I2
ssg53
(dp2112
g2108
I0
sg2109
I0
sg2110
I0
sg2111
I0
ssg142
(dp2113
g2108
I0
sg2109
I0
sg2110
I0
sg2111
I2
ssg56
I0
sg58
I0
sg59
I0
sg60
I0
sg61
I0
sg62
I0
sg63
I0
sg64
(S'dummy'
p2114
S'C1'
p2115
S'DO'
p2116
S'AR'
p2117
tp2118
sg69
I00
sg70
g36
(g37
g38
Ntp2119
Rp2120
(dp2121
g42
I5
sg43
S'**'
p2122
sg45
g2106
sbsg75
(dp2123
g2108
I0
sg2109
I0
sg2110
I2
sg2111
I12
ssg81
I00
sg82
(dp2124
g2108
I0
sg2109
I0
sg2110
I0
sg2111
I0
ssg84
(dp2125
g2108
I0
sg2109
I0
sg2110
I2
sg2111
I12
ssg86
I0
sg87
I0
sg88
S'Silodem'
p2126
sg90
I3
sg91
I0
sg92
I13
sg93
I188
sg94
S'KAK'
p2127
sg96
(dp2128
S'A'
p2129
I12
sS'ME'
p2130
I6
sS'RP2'
p2131
I9
sS'E'
p2132
I12
sS'TO'
p2133
I8
sS'RP1'
p2134
I9
sS'JP'
p2135
I10
sS'RP_tot'
p2136
I11
sS'P'
p2137
I10
sS'PA'
p2138
I11
sS'M'
p2139
I10
sS'R'
p2140
I7
sS'TB'
p2141
I9
sS'PL'
p2142
I10
sS'TA'
p2143
I5
ssg209
I0
sg210
I0
sg211
I0
sg212
I0
sg57
F10.6
sg213
I0
sg214
I0
sg215
I0
sg216
I0
sg217
(dp2144
S'A'
p2145
I12
sS'ME'
p2146
I6
sS'RP2'
p2147
I9
sS'E'
p2148
I12
sS'TO'
p2149
I8
sS'RP1'
p2150
I9
sS'JP'
p2151
I10
sS'RP_tot'
p2152
I11
sS'P'
p2153
I10
sS'PA'
p2154
I11
sS'M'
p2155
I10
sS'R'
p2156
I7
sS'TB'
p2157
I9
sS'PL'
p2158
I10
sS'TA'
p2159
I5
ssg234
g2128
sg235
I0
sg236
g31
sg237
I0
sg238
I2
sg239
I0
sg240
I16
sg241
I10
sg242
I0
sg243
S'S'
p2160
sbssg209
I0
sg210
I0
sg211
I0
sg212
I0
sg142
(dp2161
g77
I0
sg78
I0
sg79
I0
sg80
I0
ssg213
I0
sg324
I0
sg214
I0
sg215
I0
sg216
I0
sg217
(dp2162
g326
I12
sg327
I6
sg328
I9
sg329
I12
sg330
I8
sg331
I9
sg332
I10
sg333
I11
sg334
I10
sg335
I11
sg336
I10
sg337
I7
sg338
I9
sg339
I10
sg340
I5
ssg234
(dp2163
g98
I12
sg99
I6
sg100
I9
sg101
I11
sg106
I8
sg103
I9
sg104
I8
sg105
I11
sg102
I10
sg107
I11
sg108
I10
sg109
I6
sg110
I10
sg111
I10
sg112
I5
ssg235
I0
sg342
(dp2164
sg237
I0
sg236
g31
sg238
I0
sg239
I0
sg240
I16
sg241
I12
sg242
I0
sg243
g1043
sbsS'n11'
p2165
(ijoueur
joueur
p2166
(dp2167
g27
F11.903225806451612
sg28
I0
sg29
F12.258064516129032
sg30
g31
sg32
I0
sg33
I0
sg34
I0
sg35
g36
(g37
g38
Ntp2168
Rp2169
(dp2170
g42
I5
sg43
S'xx'
p2171
sg45
S'seigneur'
p2172
sbsg47
(dp2173
S'SR'
p2174
I0
sS'CT'
p2175
I0
sS'CR'
p2176
I0
sS'ST'
p2177
I0
ssg53
(dp2178
g2174
I0
sg2175
I0
sg2176
I0
sg2177
I0
ssg55
I0
sg56
I0
sg58
I0
sg324
I0
sg81
I00
sg61
I0
sg62
I0
sg63
I0
sg64
(S'dummy'
p2179
S'AI'
p2180
g31
g31
tp2181
sg69
I00
sg70
g36
(g37
g38
Ntp2182
Rp2183
(dp2184
g42
I5
sg43
S'xx'
p2185
sg45
g2172
sbsg75
(dp2186
g77
I0
sg78
I0
sg79
I0
sg80
I0
ssg142
(dp2187
g77
I0
sg78
I0
sg79
I0
sg80
I0
ssg82
(dp2188
g77
I0
sg78
I0
sg79
I0
sg80
I0
ssg84
(dp2189
g2174
I0
sg2175
I26
sg2176
I0
sg2177
I12
ssg86
I0
sg87
I0
sg88
S'Lumoor'
p2190
sg90
I9
sg91
I0
sg92
I25
sg93
I688
sg94
g95
sg96
(dp2191
S'A'
p2192
I13
sS'ME'
p2193
I7
sS'RP2'
p2194
I9
sS'E'
p2195
I10
sS'TO'
p2196
I6
sS'RP1'
p2197
I16
sS'JP'
p2198
I8
sS'RP_tot'
p2199
I17
sS'P'
p2200
I7
sS'PA'
p2201
I10
sS'M'
p2202
I11
sS'R'
p2203
I8
sS'TB'
p2204
I7
sS'PL'
p2205
I10
sS'TA'
p2206
I6
ssg113
(dp2207
g115
(ijoueur
joueur
p2208
(dp2209
g27
F11.903225806451612
sg28
I0
sg30
g31
sg32
I0
sg34
I0
sg35
g36
(g37
g38
Ntp2210
Rp2211
(dp2212
g42
I5
sg43
S'xx'
p2213
sg45
S'seigneur'
p2214
sbsg47
(dp2215
S'SR'
p2216
I0
sS'CT'
p2217
I0
sS'CR'
p2218
I0
sS'ST'
p2219
I0
ssg53
(dp2220
g2216
I0
sg2217
I0
sg2218
I0
sg2219
I0
ssg142
(dp2221
g138
I0
sg139
I0
sg140
I0
sg141
I0
ssg56
I0
sg58
I0
sg61
I7
sg62
I0
sg63
I0
sg64
(S'dummy'
p2222
S'AI'
p2223
g31
g31
tp2224
sg69
I00
sg70
g36
(g37
g38
Ntp2225
Rp2226
(dp2227
g42
I5
sg43
S'xx'
p2228
sg45
g2214
sbsg75
(dp2229
g138
I0
sg139
I6
sg140
I0
sg141
I11
ssg81
I01
sg82
(dp2230
g138
I0
sg139
I0
sg140
I0
sg141
I0
ssg84
(dp2231
g2216
I0
sg2217
I26
sg2218
I0
sg2219
I12
ssg86
I0
sg87
I0
sg88
S'Lumoor'
p2232
sg90
I9
sg91
I0
sg92
I25
sg93
I688
sg94
g147
sg96
(dp2233
S'A'
p2234
I13
sS'ME'
p2235
I7
sS'RP2'
p2236
I9
sS'E'
p2237
I10
sS'P'
p2238
I8
sS'RP1'
p2239
I16
sS'JP'
p2240
I8
sS'RP_tot'
p2241
I18
sS'TO'
p2242
I6
sS'PA'
p2243
I10
sS'M'
p2244
I12
sS'R'
p2245
I8
sS'TB'
p2246
I7
sS'PL'
p2247
I10
sS'TA'
p2248
I6
ssg113
(dp2249
g165
(ijoueur
joueur
p2250
(dp2251
g28
I0
sg32
I0
sg34
I0
sg35
g36
(g37
g38
Ntp2252
Rp2253
(dp2254
g42
I5
sg43
S'xx'
p2255
sg45
S'seigneur'
p2256
sbsg47
(dp2257
S'SR'
p2258
I0
sS'CT'
p2259
I0
sS'CR'
p2260
I0
sS'ST'
p2261
I0
ssg53
(dp2262
g2258
I0
sg2259
I0
sg2260
I0
sg2261
I0
ssg56
I0
sg58
I0
sg81
I00
sg61
I3
sg62
I0
sg63
I0
sg64
(S'dummy'
p2263
S'AI'
p2264
g31
g31
tp2265
sg69
I01
sg70
g36
(g37
g38
Ntp2266
Rp2267
(dp2268
g42
I5
sg43
S'xx'
p2269
sg45
g2256
sbsg75
(dp2270
g2258
I0
sg2259
I15
sg2260
I0
sg2261
I6
ssg142
(dp2271
g2258
I0
sg2259
I0
sg2260
I0
sg2261
I0
ssg82
(dp2272
g2258
I0
sg2259
I0
sg2260
I0
sg2261
I0
ssg84
(dp2273
g2258
I0
sg2259
I15
sg2260
I0
sg2261
I6
ssg86
I0
sg87
I0
sg88
S'Lumoor'
p2274
sg90
I9
sg91
I0
sg92
I25
sg93
I266
sg94
S'TO'
p2275
sg96
(dp2276
S'A'
p2277
I12
sS'ME'
p2278
I7
sS'RP2'
p2279
I9
sS'E'
p2280
I10
sS'P'
p2281
I8
sS'RP1'
p2282
I16
sS'JP'
p2283
I8
sS'RP_tot'
p2284
I18
sS'TO'
p2285
I6
sS'PA'
p2286
I10
sS'M'
p2287
I11
sS'R'
p2288
I8
sS'TB'
p2289
I7
sS'PL'
p2290
I10
sS'TA'
p2291
I6
ssg209
I0
sg210
I0
sg211
I0
sg212
I0
sg57
F11.903225806451612
sg213
I0
sg215
I0
sg216
I0
sg217
(dp2292
S'A'
p2293
I12
sS'ME'
p2294
I7
sS'RP2'
p2295
I9
sS'E'
p2296
I10
sS'P'
p2297
I8
sS'RP1'
p2298
I16
sS'JP'
p2299
I8
sS'RP_tot'
p2300
I18
sS'TO'
p2301
I6
sS'PA'
p2302
I10
sS'M'
p2303
I11
sS'R'
p2304
I8
sS'TB'
p2305
I7
sS'PL'
p2306
I10
sS'TA'
p2307
I6
ssg234
g2276
sg235
I0
sg236
g31
sg237
I0
sg238
I0
sg239
I0
sg240
I28
sg241
I5
sg242
I0
sg243
S'HL'
p2308
sbssg209
I5
sg210
I0
sg211
I1
sg212
I0
sg57
F12.258064516129032
sg213
I0
sg215
I1
sg216
I2
sg217
(dp2309
S'A'
p2310
I12
sS'ME'
p2311
I7
sS'RP2'
p2312
I9
sS'E'
p2313
I10
sS'P'
p2314
I8
sS'RP1'
p2315
I16
sS'JP'
p2316
I8
sS'RP_tot'
p2317
I18
sS'TO'
p2318
I6
sS'PA'
p2319
I10
sS'M'
p2320
I11
sS'R'
p2321
I8
sS'TB'
p2322
I7
sS'PL'
p2323
I10
sS'TA'
p2324
I6
ssg234
g2233
sg235
I0
sg236
S'TO 12'
p2325
sg237
I0
sg238
I0
sg239
I0
sg240
I24
sg241
I12
sg242
I2
sg243
S'HL'
p2326
sbsg262
(ijoueur
joueur
p2327
(dp2328
g28
I0
sg32
I0
sg34
I0
sg35
g36
(g37
g38
Ntp2329
Rp2330
(dp2331
g42
I5
sg43
S'xx'
p2332
sg45
S'seigneur'
p2333
sbsg47
(dp2334
S'SR'
p2335
I0
sS'CT'
p2336
I0
sS'CR'
p2337
I0
sS'ST'
p2338
I0
ssg53
(dp2339
g2335
I0
sg2336
I0
sg2337
I0
sg2338
I0
ssg56
I0
sg58
I0
sg81
I00
sg61
I3
sg62
I0
sg63
I0
sg64
(S'dummy'
p2340
S'AI'
p2341
g31
g31
tp2342
sg69
I01
sg70
g36
(g37
g38
Ntp2343
Rp2344
(dp2345
g42
I5
sg43
S'xx'
p2346
sg45
g2333
sbsg75
(dp2347
g2335
I0
sg2336
I15
sg2337
I0
sg2338
I6
ssg142
(dp2348
g2335
I0
sg2336
I0
sg2337
I0
sg2338
I0
ssg82
(dp2349
g2335
I0
sg2336
I0
sg2337
I0
sg2338
I0
ssg84
(dp2350
g2335
I0
sg2336
I15
sg2337
I0
sg2338
I6
ssg86
I0
sg87
I0
sg88
S'Lumoor'
p2351
sg90
I9
sg91
I0
sg92
I25
sg93
I266
sg94
S'TO'
p2352
sg96
(dp2353
S'A'
p2354
I12
sS'ME'
p2355
I7
sS'RP2'
p2356
I9
sS'E'
p2357
I10
sS'P'
p2358
I8
sS'RP1'
p2359
I16
sS'JP'
p2360
I8
sS'RP_tot'
p2361
I18
sS'TO'
p2362
I6
sS'PA'
p2363
I10
sS'M'
p2364
I11
sS'R'
p2365
I8
sS'TB'
p2366
I7
sS'PL'
p2367
I10
sS'TA'
p2368
I6
ssg209
I0
sg210
I0
sg211
I0
sg212
I0
sg57
F11.903225806451612
sg213
I0
sg215
I0
sg216
I0
sg217
(dp2369
S'A'
p2370
I12
sS'ME'
p2371
I7
sS'RP2'
p2372
I9
sS'E'
p2373
I10
sS'P'
p2374
I8
sS'RP1'
p2375
I16
sS'JP'
p2376
I8
sS'RP_tot'
p2377
I18
sS'TO'
p2378
I6
sS'PA'
p2379
I10
sS'M'
p2380
I11
sS'R'
p2381
I8
sS'TB'
p2382
I7
sS'PL'
p2383
I10
sS'TA'
p2384
I6
ssg234
g2353
sg235
I0
sg236
g31
sg237
I0
sg238
I0
sg239
I0
sg240
I28
sg241
I5
sg242
I0
sg243
S'HL'
p2385
sbssg209
I0
sg210
I0
sg211
I1
sg212
I0
sg57
F11.870967741935484
sg213
I0
sg215
I0
sg216
I2
sg217
(dp2386
S'A'
p2387
I12
sS'ME'
p2388
I7
sS'RP2'
p2389
I9
sS'E'
p2390
I10
sS'P'
p2391
I8
sS'RP1'
p2392
I16
sS'JP'
p2393
I8
sS'RP_tot'
p2394
I18
sS'TO'
p2395
I6
sS'PA'
p2396
I10
sS'M'
p2397
I11
sS'R'
p2398
I8
sS'TB'
p2399
I7
sS'PL'
p2400
I10
sS'TA'
p2401
I6
ssg234
(dp2402
g2192
I13
sg2193
I7
sg2194
I9
sg2195
I10
sg2200
I7
sg2197
I16
sg2198
I8
sg2199
I17
sg2196
I6
sg2201
I10
sg2202
I11
sg2203
I8
sg2204
I7
sg2205
I10
sg2206
I6
ssg235
I0
sg342
(dp2403
sg237
I0
sg236
S'TO 12'
p2404
sg238
I0
sg239
I0
sg240
I24
sg241
I12
sg242
I0
sg243
S'HL'
p2405
sbsS'n16'
p2406
(ijoueur
joueur
p2407
(dp2408
g27
F9.482758620689655
sg28
I0
sg29
F8.689655172413794
sg30
g31
sg32
I0
sg33
I0
sg34
I0
sg35
g36
(g37
g38
Ntp2409
Rp2410
(dp2411
g42
I3
sg43
S'^^^'
p2412
sg45
S'rare'
p2413
sbsg47
(dp2414
g49
I0
sg50
I0
sg51
I10
sg52
I2
ssg53
(dp2415
g49
I0
sg50
I0
sg51
I0
sg52
I0
ssg55
I0
sg56
I0
sg57
F8.620689655172415
sg58
I0
sg59
I0
sg60
I0
sg61
I0
sg62
I0
sg63
I0
sg64
(g65
S'TA'
p2416
S'PI'
p2417
g31
tp2418
sg69
I00
sg70
g36
(g37
g38
Ntp2419
Rp2420
(dp2421
g42
I3
sg43
S'^^^'
p2422
sg45
g2413
sbsg75
(dp2423
g77
I0
sg78
I0
sg79
I0
sg80
I0
ssg81
I00
sg82
(dp2424
g77
I0
sg78
I0
sg79
I0
sg80
I0
ssg84
(dp2425
g49
I0
sg50
I0
sg51
I15
sg52
I1
ssg86
I0
sg87
I0
sg88
S'Ssladom'
p2426
sg90
I3
sg91
I0
sg92
I12
sg93
I117
sg94
g95
sg96
(dp2427
g98
I9
sg99
I9
sg100
I5
sg101
I11
sg102
I3
sg103
I9
sg104
I0
sg105
I9
sg106
I6
sg107
I6
sg108
I7
sg109
I6
sg110
I0
sg111
I9
sg112
I10
ssg113
(dp2428
g115
(ijoueur
joueur
p2429
(dp2430
g27
F9.482758620689655
sg28
I0
sg30
g31
sg32
I0
sg34
I0
sg35
g36
(g37
g38
Ntp2431
Rp2432
(dp2433
g42
I3
sg43
S'^^^'
p2434
sg45
S'rare'
p2435
sbsg47
(dp2436
g124
I0
sg125
I0
sg126
I10
sg127
I2
ssg53
(dp2437
g124
I0
sg125
I0
sg126
I0
sg127
I0
ssg56
I0
sg58
I0
sg59
I0
sg60
I0
sg81
I00
sg61
I0
sg62
I0
sg63
I0
sg64
(g129
S'TA'
p2438
S'PI'
p2439
g31
tp2440
sg69
I00
sg70
g36
(g37
g38
Ntp2441
Rp2442
(dp2443
g42
I3
sg43
S'^^^'
p2444
sg45
g2435
sbsg75
(dp2445
g138
I0
sg139
I0
sg140
I0
sg141
I0
ssg142
(dp2446
g138
I0
sg139
I0
sg140
I10
sg141
I2
ssg82
(dp2447
g138
I0
sg139
I0
sg140
I0
sg141
I0
ssg84
(dp2448
g124
I0
sg125
I0
sg126
I15
sg127
I1
ssg86
I0
sg87
I0
sg88
S'Ssladom'
p2449
sg90
I3
sg91
I0
sg92
I12
sg93
I117
sg94
g147
sg96
(dp2450
g149
I9
sg150
I9
sg151
I7
sg152
I11
sg153
I6
sg154
I9
sg155
I0
sg156
I9
sg157
I3
sg158
I6
sg159
I9
sg160
I6
sg161
I0
sg162
I9
sg163
I10
ssg113
(dp2451
g165
(ijoueur
joueur
p2452
(dp2453
g28
I0
sg32
I0
sg34
I0
sg35
g36
(g37
g38
Ntp2454
Rp2455
(dp2456
g42
I3
sg43
S'^^^'
p2457
sg45
S'rare'
p2458
sbsg47
(dp2459
S'SR'
p2460
I0
sS'ST'
p2461
I0
sS'CR'
p2462
I0
sS'CT'
p2463
I0
ssg53
(dp2464
g2460
I0
sg2461
I0
sg2462
I0
sg2463
I0
ssg142
(dp2465
g2460
I0
sg2461
I0
sg2462
I0
sg2463
I0
ssg56
I0
sg58
I0
sg59
I0
sg60
I0
sg61
I0
sg62
I0
sg63
I0
sg64
(S'dummy'
p2466
S'TA'
p2467
S'PI'
p2468
g31
tp2469
sg69
I00
sg70
g36
(g37
g38
Ntp2470
Rp2471
(dp2472
g42
I3
sg43
S'^^^'
p2473
sg45
g2458
sbsg75
(dp2474
g2460
I0
sg2461
I0
sg2462
I15
sg2463
I1
ssg81
I00
sg82
(dp2475
g2460
I0
sg2461
I0
sg2462
I0
sg2463
I0
ssg84
(dp2476
g2460
I0
sg2461
I0
sg2462
I15
sg2463
I1
ssg86
I0
sg87
I0
sg88
S'Ssladom'
p2477
sg90
I3
sg91
I0
sg92
I12
sg93
I117
sg94
S'KAK'
p2478
sg96
(dp2479
S'A'
p2480
I9
sS'ME'
p2481
I10
sS'RP2'
p2482
I7
sS'E'
p2483
I11
sS'TO'
p2484
I6
sS'RP1'
p2485
I10
sS'JP'
p2486
I0
sS'RP_tot'
p2487
I10
sS'P'
p2488
I3
sS'PA'
p2489
I6
sS'M'
p2490
I9
sS'R'
p2491
I8
sS'TB'
p2492
I0
sS'PL'
p2493
I10
sS'TA'
p2494
I10
ssg209
I0
sg210
I0
sg211
I0
sg212
I0
sg57
F9.482758620689655
sg213
I0
sg214
I0
sg215
I0
sg216
I0
sg217
(dp2495
S'A'
p2496
I9
sS'ME'
p2497
I10
sS'RP2'
p2498
I7
sS'E'
p2499
I11
sS'TO'
p2500
I6
sS'RP1'
p2501
I10
sS'JP'
p2502
I0
sS'RP_tot'
p2503
I10
sS'P'
p2504
I3
sS'PA'
p2505
I6
sS'M'
p2506
I9
sS'R'
p2507
I8
sS'TB'
p2508
I0
sS'PL'
p2509
I10
sS'TA'
p2510
I10
ssg234
g2479
sg235
I0
sg236
g31
sg237
I0
sg238
I0
sg239
I0
sg240
I10
sg241
I10
sg242
I0
sg243
S'HL'
p2511
sbssg209
I0
sg210
I0
sg211
I1
sg212
I0
sg57
F8.689655172413794
sg213
I0
sg214
I0
sg215
I1
sg216
I0
sg217
(dp2512
g246
I9
sg247
I10
sg248
I7
sg249
I11
sg250
I6
sg251
I10
sg252
I0
sg253
I10
sg254
I3
sg255
I6
sg256
I9
sg257
I8
sg258
I0
sg259
I10
sg260
I10
ssg234
g2450
sg235
I0
sg236
g31
sg237
I0
sg238
I0
sg239
I0
sg240
I10
sg241
I10
sg242
I0
sg243
S'HL'
p2513
sbsg262
(ijoueur
joueur
p2514
(dp2515
g28
I0
sg32
I0
sg34
I0
sg35
g36
(g37
g38
Ntp2516
Rp2517
(dp2518
g42
I3
sg43
S'^^^'
p2519
sg45
S'rare'
p2520
sbsg47
(dp2521
S'SR'
p2522
I0
sS'ST'
p2523
I0
sS'CR'
p2524
I0
sS'CT'
p2525
I0
ssg53
(dp2526
g2522
I0
sg2523
I0
sg2524
I0
sg2525
I0
ssg142
(dp2527
g2522
I0
sg2523
I0
sg2524
I0
sg2525
I0
ssg56
I0
sg58
I0
sg59
I0
sg60
I0
sg61
I0
sg62
I0
sg63
I0
sg64
(S'dummy'
p2528
S'TA'
p2529
S'PI'
p2530
g31
tp2531
sg69
I00
sg70
g36
(g37
g38
Ntp2532
Rp2533
(dp2534
g42
I3
sg43
S'^^^'
p2535
sg45
g2520
sbsg75
(dp2536
g2522
I0
sg2523
I0
sg2524
I15
sg2525
I1
ssg81
I00
sg82
(dp2537
g2522
I0
sg2523
I0
sg2524
I0
sg2525
I0
ssg84
(dp2538
g2522
I0
sg2523
I0
sg2524
I15
sg2525
I1
ssg86
I0
sg87
I0
sg88
S'Ssladom'
p2539
sg90
I3
sg91
I0
sg92
I12
sg93
I117
sg94
S'KAK'
p2540
sg96
(dp2541
S'A'
p2542
I9
sS'ME'
p2543
I10
sS'RP2'
p2544
I7
sS'E'
p2545
I11
sS'TO'
p2546
I6
sS'RP1'
p2547
I10
sS'JP'
p2548
I0
sS'RP_tot'
p2549
I10
sS'P'
p2550
I3
sS'PA'
p2551
I6
sS'M'
p2552
I9
sS'R'
p2553
I8
sS'TB'
p2554
I0
sS'PL'
p2555
I10
sS'TA'
p2556
I10
ssg209
I0
sg210
I0
sg211
I0
sg212
I0
sg57
F9.482758620689655
sg213
I0
sg214
I0
sg215
I0
sg216
I0
sg217
(dp2557
S'A'
p2558
I9
sS'ME'
p2559
I10
sS'RP2'
p2560
I7
sS'E'
p2561
I11
sS'TO'
p2562
I6
sS'RP1'
p2563
I10
sS'JP'
p2564
I0
sS'RP_tot'
p2565
I10
sS'P'
p2566
I3
sS'PA'
p2567
I6
sS'M'
p2568
I9
sS'R'
p2569
I8
sS'TB'
p2570
I0
sS'PL'
p2571
I10
sS'TA'
p2572
I10
ssg234
g2541
sg235
I0
sg236
g31
sg237
I0
sg238
I0
sg239
I0
sg240
I10
sg241
I10
sg242
I0
sg243
S'HL'
p2573
sbssg209
I0
sg210
I0
sg211
I1
sg212
I0
sg142
(dp2574
g77
I0
sg78
I0
sg79
I0
sg80
I0
ssg213
I0
sg324
I0
sg214
I0
sg215
I0
sg216
I0
sg217
(dp2575
g326
I9
sg327
I10
sg328
I7
sg329
I11
sg330
I6
sg331
I10
sg332
I0
sg333
I10
sg334
I3
sg335
I6
sg336
I9
sg337
I8
sg338
I0
sg339
I10
sg340
I10
ssg234
(dp2576
g98
I9
sg99
I9
sg100
I5
sg101
I11
sg106
I6
sg103
I9
sg104
I0
sg105
I9
sg102
I3
sg107
I6
sg108
I7
sg109
I6
sg110
I0
sg111
I9
sg112
I10
ssg235
I0
sg342
(dp2577
sg237
I0
sg236
g31
sg238
I0
sg239
I0
sg240
I10
sg241
I10
sg242
I0
sg243
S'HL'
p2578
sbsS'n17'
p2579
(ijoueur
joueur
p2580
(dp2581
g27
F10.11111111111111
sg28
I0
sg29
F9.814814814814815
sg30
g31
sg32
I0
sg33
I0
sg34
I0
sg35
g36
(g37
g38
Ntp2582
Rp2583
(dp2584
g42
I5
sg43
S'**'
p2585
sg45
S'seigneur'
p2586
sbsg47
(dp2587
S'SR'
p2588
I0
sS'CT'
p2589
I1
sS'CR'
p2590
I3
sS'ST'
p2591
I0
ssg53
(dp2592
g2588
I0
sg2589
I3
sg2590
I1
sg2591
I0
ssg55
I0
sg56
I0
sg58
I0
sg324
I0
sg81
I00
sg61
I0
sg62
I0
sg63
I0
sg64
(S'dummy'
p2593
S'PI'
p2594
S'N8'
p2595
S'TL'
p2596
tp2597
sg69
I00
sg70
g36
(g37
g38
Ntp2598
Rp2599
(dp2600
g42
I5
sg43
S'**'
p2601
sg45
g2586
sbsg75
(dp2602
g77
I0
sg78
I0
sg79
I0
sg80
I0
ssg142
(dp2603
g77
I0
sg78
I0
sg79
I0
sg80
I0
ssg82
(dp2604
g77
I0
sg78
I0
sg79
I0
sg80
I0
ssg84
(dp2605
g2588
I0
sg2589
I7
sg2590
I14
sg2591
I0
ssg86
I0
sg87
I0
sg88
S'Gorr'
p2606
sg90
I5
sg91
I0
sg92
I15
sg93
I258
sg94
g95
sg96
(dp2607
S'A'
p2608
I10
sS'ME'
p2609
I10
sS'RP2'
p2610
I7
sS'E'
p2611
I10
sS'TO'
p2612
I9
sS'RP1'
p2613
I9
sS'JP'
p2614
I2
sS'RP_tot'
p2615
I9
sS'P'
p2616
I3
sS'PA'
p2617
I9
sS'M'
p2618
I7
sS'R'
p2619
I13
sS'TB'
p2620
I2
sS'PL'
p2621
I8
sS'TA'
p2622
I7
ssg113
(dp2623
S's12'
p2624
(ijoueur
joueur
p2625
(dp2626
g27
F10.11111111111111
sg28
I0
sg30
g31
sg32
I0
sg34
I0
sg35
g36
(g37
g38
Ntp2627
Rp2628
(dp2629
g42
I5
sg43
S'**'
p2630
sg45
S'seigneur'
p2631
sbsg47
(dp2632
S'SR'
p2633
I0
sS'CT'
p2634
I1
sS'CR'
p2635
I3
sS'ST'
p2636
I0
ssg53
(dp2637
g2633
I0
sg2634
I3
sg2635
I1
sg2636
I0
ssg142
(dp2638
S'SR'
p2639
I0
sS'CT'
p2640
I1
sS'CR'
p2641
I3
sS'ST'
p2642
I0
ssg56
I0
sg58
I0
sg61
I0
sg62
I0
sg63
I0
sg64
(S'dummy'
p2643
S'PI'
p2644
S'N8'
p2645
S'TL'
p2646
tp2647
sg69
I01
sg70
g36
(g37
g38
Ntp2648
Rp2649
(dp2650
g42
I5
sg43
S'**'
p2651
sg45
g2631
sbsg75
(dp2652
g2639
I0
sg2640
I0
sg2641
I4
sg2642
I0
ssg81
I00
sg82
(dp2653
g2639
I0
sg2640
I3
sg2641
I1
sg2642
I0
ssg84
(dp2654
g2633
I0
sg2634
I7
sg2635
I14
sg2636
I0
ssg86
I0
sg87
I0
sg88
S'Gorr'
p2655
sg90
I5
sg91
I0
sg92
I15
sg93
I150
sg94
S'TO'
p2656
sg96
(dp2657
S'A'
p2658
I10
sS'ME'
p2659
I10
sS'RP2'
p2660
I7
sS'E'
p2661
I10
sS'P'
p2662
I3
sS'RP1'
p2663
I9
sS'JP'
p2664
I2
sS'RP_tot'
p2665
I9
sS'TO'
p2666
I8
sS'PA'
p2667
I9
sS'M'
p2668
I6
sS'R'
p2669
I12
sS'TB'
p2670
I2
sS'PL'
p2671
I8
sS'TA'
p2672
I7
ssg113
(dp2673
S's11'
p2674
(ijoueur
joueur
p2675
(dp2676
g28
I0
sg32
I0
sg34
I0
sg35
g36
(g37
g38
Ntp2677
Rp2678
(dp2679
g42
I5
sg43
S'**'
p2680
sg45
S'seigneur'
p2681
sbsg47
(dp2682
S'SR'
p2683
I0
sS'CT'
p2684
I0
sS'CR'
p2685
I0
sS'ST'
p2686
I0
ssg53
(dp2687
g2683
I0
sg2684
I0
sg2685
I0
sg2686
I0
ssg56
I0
sg58
I0
sg81
I00
sg61
I1
sg62
I0
sg63
I0
sg64
(S'dummy'
p2688
S'PI'
p2689
S'N8'
p2690
S'TL'
p2691
tp2692
sg69
I00
sg70
g36
(g37
g38
Ntp2693
Rp2694
(dp2695
g42
I5
sg43
S'**'
p2696
sg45
g2681
sbsg75
(dp2697
g2683
I0
sg2684
I7
sg2685
I10
sg2686
I0
ssg142
(dp2698
g2683
I0
sg2684
I0
sg2685
I0
sg2686
I0
ssg82
(dp2699
g2683
I0
sg2684
I0
sg2685
I0
sg2686
I0
ssg84
(dp2700
g2683
I0
sg2684
I7
sg2685
I10
sg2686
I0
ssg86
I0
sg87
I0
sg88
S'Gorr'
p2701
sg90
I5
sg91
I0
sg92
I15
sg93
I150
sg94
S'TO'
p2702
sg96
(dp2703
S'A'
p2704
I10
sS'ME'
p2705
I10
sS'RP2'
p2706
I7
sS'E'
p2707
I11
sS'P'
p2708
I3
sS'RP1'
p2709
I9
sS'JP'
p2710
I2
sS'RP_tot'
p2711
I9
sS'TO'
p2712
I8
sS'PA'
p2713
I9
sS'M'
p2714
I6
sS'R'
p2715
I12
sS'TB'
p2716
I2
sS'PL'
p2717
I9
sS'TA'
p2718
I7
ssg209
I0
sg210
I0
sg211
I0
sg212
I0
sg57
F10.11111111111111
sg213
I0
sg215
I0
sg216
I0
sg217
(dp2719
S'A'
p2720
I10
sS'ME'
p2721
I10
sS'RP2'
p2722
I7
sS'E'
p2723
I11
sS'P'
p2724
I3
sS'RP1'
p2725
I9
sS'JP'
p2726
I2
sS'RP_tot'
p2727
I9
sS'TO'
p2728
I8
sS'PA'
p2729
I9
sS'M'
p2730
I6
sS'R'
p2731
I12
sS'TB'
p2732
I2
sS'PL'
p2733
I9
sS'TA'
p2734
I7
ssg234
g2703
sg235
I0
sg236
g31
sg237
I0
sg238
I0
sg239
I0
sg240
I16
sg241
I10
sg242
I0
sg243
S'HB'
p2735
sbssg209
I0
sg210
I0
sg211
I0
sg212
I0
sg57
F9.814814814814815
sg213
I0
sg215
I0
sg216
I0
sg217
(dp2736
S'A'
p2737
I10
sS'ME'
p2738
I10
sS'RP2'
p2739
I7
sS'E'
p2740
I11
sS'TO'
p2741
I8
sS'RP1'
p2742
I9
sS'JP'
p2743
I2
sS'RP_tot'
p2744
I9
sS'P'
p2745
I3
sS'PA'
p2746
I9
sS'M'
p2747
I6
sS'R'
p2748
I12
sS'TB'
p2749
I2
sS'PL'
p2750
I9
sS'TA'
p2751
I7
ssg234
g2657
sg235
I0
sg236
g31
sg237
I0
sg238
I0
sg239
I0
sg240
I16
sg241
I10
sg242
I0
sg243
S'HB'
p2752
sbsS's11'
p2753
(ijoueur
joueur
p2754
(dp2755
g28
I0
sg32
I0
sg34
I0
sg35
g36
(g37
g38
Ntp2756
Rp2757
(dp2758
g42
I5
sg43
S'**'
p2759
sg45
S'seigneur'
p2760
sbsg47
(dp2761
S'SR'
p2762
I0
sS'CT'
p2763
I0
sS'CR'
p2764
I0
sS'ST'
p2765
I0
ssg53
(dp2766
g2762
I0
sg2763
I0
sg2764
I0
sg2765
I0
ssg56
I0
sg58
I0
sg81
I00
sg61
I1
sg62
I0
sg63
I0
sg64
(S'dummy'
p2767
S'PI'
p2768
S'N8'
p2769
S'TL'
p2770
tp2771
sg69
I00
sg70
g36
(g37
g38
Ntp2772
Rp2773
(dp2774
g42
I5
sg43
S'**'
p2775
sg45
g2760
sbsg75
(dp2776
g2762
I0
sg2763
I7
sg2764
I10
sg2765
I0
ssg142
(dp2777
g2762
I0
sg2763
I0
sg2764
I0
sg2765
I0
ssg82
(dp2778
g2762
I0
sg2763
I0
sg2764
I0
sg2765
I0
ssg84
(dp2779
g2762
I0
sg2763
I7
sg2764
I10
sg2765
I0
ssg86
I0
sg87
I0
sg88
S'Gorr'
p2780
sg90
I5
sg91
I0
sg92
I15
sg93
I150
sg94
S'TO'
p2781
sg96
(dp2782
S'A'
p2783
I10
sS'ME'
p2784
I10
sS'RP2'
p2785
I7
sS'E'
p2786
I11
sS'P'
p2787
I3
sS'RP1'
p2788
I9
sS'JP'
p2789
I2
sS'RP_tot'
p2790
I9
sS'TO'
p2791
I8
sS'PA'
p2792
I9
sS'M'
p2793
I6
sS'R'
p2794
I12
sS'TB'
p2795
I2
sS'PL'
p2796
I9
sS'TA'
p2797
I7
ssg209
I0
sg210
I0
sg211
I0
sg212
I0
sg57
F10.11111111111111
sg213
I0
sg215
I0
sg216
I0
sg217
(dp2798
S'A'
p2799
I10
sS'ME'
p2800
I10
sS'RP2'
p2801
I7
sS'E'
p2802
I11
sS'P'
p2803
I3
sS'RP1'
p2804
I9
sS'JP'
p2805
I2
sS'RP_tot'
p2806
I9
sS'TO'
p2807
I8
sS'PA'
p2808
I9
sS'M'
p2809
I6
sS'R'
p2810
I12
sS'TB'
p2811
I2
sS'PL'
p2812
I9
sS'TA'
p2813
I7
ssg234
g2782
sg235
I0
sg236
g31
sg237
I0
sg238
I0
sg239
I0
sg240
I16
sg241
I10
sg242
I0
sg243
S'HB'
p2814
sbssg209
I0
sg210
I0
sg211
I0
sg212
I0
sg57
F10.074074074074074
sg213
I0
sg215
I0
sg216
I0
sg217
(dp2815
S'A'
p2816
I10
sS'ME'
p2817
I10
sS'RP2'
p2818
I7
sS'E'
p2819
I11
sS'TO'
p2820
I8
sS'RP1'
p2821
I9
sS'JP'
p2822
I2
sS'RP_tot'
p2823
I9
sS'P'
p2824
I3
sS'PA'
p2825
I9
sS'M'
p2826
I6
sS'R'
p2827
I12
sS'TB'
p2828
I2
sS'PL'
p2829
I9
sS'TA'
p2830
I7
ssg234
(dp2831
g2608
I10
sg2609
I10
sg2610
I7
sg2611
I10
sg2616
I3
sg2613
I9
sg2614
I2
sg2615
I9
sg2612
I9
sg2617
I9
sg2618
I7
sg2619
I13
sg2620
I2
sg2621
I8
sg2622
I7
ssg235
I0
sg342
(dp2832
sg237
I0
sg236
S'TO 13'
p2833
sg238
I0
sg239
I0
sg240
I8
sg241
I10
sg242
I0
sg243
S'HB'
p2834
sbsS'n14'
p2835
(ijoueur
joueur
p2836
(dp2837
g27
F11.161290322580646
sg28
I0
sg29
F10.838709677419354
sg30
g31
sg32
I0
sg33
I0
sS'poste3'
p2838
g31
sg34
I0
sS'poste1'
p2839
g31
sg35
g36
(g37
g38
Ntp2840
Rp2841
(dp2842
g42
I4
sg43
S'*'
p2843
sg45
S'heros'
p2844
sbsg47
(dp2845
S'SR'
p2846
I0
sS'CT'
p2847
I0
sS'CR'
p2848
I0
sS'ST'
p2849
I0
ssg53
(dp2850
g2846
I0
sg2847
I0
sg2848
I0
sg2849
I0
ssg55
I0
sg236
S'vide 12'
p2851
sg58
I0
sg324
I0
sg81
I00
sg61
I0
sg62
I0
sg63
I0
sg94
g95
sg69
I00
sg70
g2841
sg75
(dp2852
g77
I0
sg78
I0
sg79
I0
sg80
I0
ssg142
(dp2853
g77
I0
sg78
I0
sg79
I0
sg80
I0
ssg82
(dp2854
g77
I0
sg78
I0
sg79
I0
sg80
I0
ssg84
(dp2855
g2846
I0
sg2847
I12
sg2848
I0
sg2849
I10
ssg86
I0
sg87
I0
sg88
S'Osimpo'
p2856
sg90
I2
sg91
I0
sg92
I10
sg93
I297
sg64
(S'dummy'
p2857
S'AI'
p2858
g31
g31
tp2859
sS'poste2'
p2860
g31
sg96
(dp2861
S'RP1'
p2862
I12
sS'ME'
p2863
I6
sS'RP2'
p2864
I9
sS'E'
p2865
I11
sS'TO'
p2866
I7
sS'M'
p2867
I12
sS'JP'
p2868
I7
sS'RP_tot'
p2869
I13
sS'P'
p2870
I9
sS'PA'
p2871
I11
sS'A'
p2872
I10
sS'R'
p2873
I6
sS'TB'
p2874
I8
sS'PL'
p2875
I6
sS'TA'
p2876
I4
ssg113
(dp2877
g115
(ijoueur
joueur
p2878
(dp2879
g27
F11.161290322580646
sg28
I0
sg30
g31
sg32
I0
sg2838
g31
sg34
I0
sg2839
g31
sg35
g36
(g37
g38
Ntp2880
Rp2881
(dp2882
g42
I4
sg43
S'*'
p2883
sg45
S'heros'
p2884
sbsg47
(dp2885
S'SR'
p2886
I0
sS'CT'
p2887
I0
sS'CR'
p2888
I0
sS'ST'
p2889
I0
ssg53
(dp2890
g2886
I0
sg2887
I0
sg2888
I0
sg2889
I0
ssg142
(dp2891
g138
I0
sg139
I0
sg140
I0
sg141
I0
ssg236
S'vide 12'
p2892
sg58
I0
sg61
I3
sg62
I0
sg63
I0
sg94
g147
sg69
I00
sg70
g2881
sg75
(dp2893
g138
I0
sg139
I7
sg140
I0
sg141
I12
ssg81
I00
sg82
(dp2894
g138
I0
sg139
I0
sg140
I0
sg141
I0
ssg84
(dp2895
g2886
I0
sg2887
I12
sg2888
I0
sg2889
I10
ssg86
I0
sg87
I0
sg88
S'Osimpo'
p2896
sg90
I2
sg91
I0
sg92
I10
sg93
I297
sg64
(S'dummy'
p2897
S'AI'
p2898
g31
g31
tp2899
sg2860
g31
sg96
(dp2900
S'RP1'
p2901
I12
sS'ME'
p2902
I6
sS'RP2'
p2903
I9
sS'E'
p2904
I11
sS'P'
p2905
I9
sS'JP'
p2906
I7
sS'M'
p2907
I12
sS'RP_tot'
p2908
I14
sS'TO'
p2909
I7
sS'PA'
p2910
I11
sS'A'
p2911
I10
sS'R'
p2912
I7
sS'TB'
p2913
I8
sS'PL'
p2914
I8
sS'TA'
p2915
I4
ssg113
(dp2916
g165
(ijoueur
joueur
p2917
(dp2918
g28
I0
sg32
I0
sg2838
g31
sg34
I0
sg2839
g31
sg35
g36
(g37
g38
Ntp2919
Rp2920
(dp2921
g42
I4
sg43
S'*'
p2922
sg45
S'heros'
p2923
sbsg47
(dp2924
S'SR'
p2925
I0
sS'CT'
p2926
I0
sS'CR'
p2927
I0
sS'ST'
p2928
I0
ssg53
(dp2929
g2925
I0
sg2926
I0
sg2927
I0
sg2928
I0
ssg236
g31
sg58
I0
sg81
I01
sg61
I0
sg62
I0
sg63
I0
sg94
S'vide'
p2930
sg69
I01
sg70
g2920
sg75
(dp2931
g2925
I0
sg2926
I0
sg2927
I0
sg2928
I3
ssg142
(dp2932
g2925
I0
sg2926
I0
sg2927
I0
sg2928
I0
ssg82
(dp2933
g2925
I0
sg2926
I0
sg2927
I0
sg2928
I0
ssg84
(dp2934
g2925
I0
sg2926
I0
sg2927
I0
sg2928
I3
ssg86
I0
sg87
I0
sg88
S'Osimpo'
p2935
sg90
I2
sg91
I0
sg92
I10
sg93
I110
sg64
(S'dummy'
p2936
S'AI'
p2937
g31
g31
tp2938
sg2860
g31
sg96
(dp2939
S'RP1'
p2940
I12
sS'ME'
p2941
I6
sS'RP2'
p2942
I9
sS'E'
p2943
I11
sS'P'
p2944
I9
sS'JP'
p2945
I7
sS'M'
p2946
I12
sS'RP_tot'
p2947
I14
sS'TO'
p2948
I7
sS'PA'
p2949
I11
sS'A'
p2950
I11
sS'R'
p2951
I7
sS'TB'
p2952
I8
sS'PL'
p2953
I9
sS'TA'
p2954
I4
ssg209
I0
sg210
I0
sg211
I0
sg212
I0
sg57
F11.161290322580646
sg213
I0
sg215
I0
sg216
I0
sg217
(dp2955
S'RP1'
p2956
I12
sS'ME'
p2957
I6
sS'RP2'
p2958
I9
sS'E'
p2959
I11
sS'P'
p2960
I9
sS'JP'
p2961
I7
sS'M'
p2962
I12
sS'RP_tot'
p2963
I14
sS'TO'
p2964
I7
sS'PA'
p2965
I11
sS'A'
p2966
I11
sS'R'
p2967
I7
sS'TB'
p2968
I8
sS'PL'
p2969
I9
sS'TA'
p2970
I4
ssg234
g2939
sg235
I0
sg237
I0
sg238
I0
sg239
I0
sg240
I11
sg241
I0
sg242
I0
sg243
S'EST'
p2971
sbssg209
I5
sg210
I0
sg211
I0
sg212
I0
sg57
F10.838709677419354
sg213
I0
sg215
I0
sg216
I1
sg217
(dp2972
S'RP1'
p2973
I12
sS'ME'
p2974
I6
sS'RP2'
p2975
I9
sS'E'
p2976
I11
sS'TO'
p2977
I7
sS'M'
p2978
I12
sS'JP'
p2979
I7
sS'RP_tot'
p2980
I14
sS'P'
p2981
I9
sS'PA'
p2982
I11
sS'A'
p2983
I11
sS'R'
p2984
I7
sS'TB'
p2985
I8
sS'PL'
p2986
I9
sS'TA'
p2987
I4
ssg234
g2900
sg235
I0
sg237
I0
sg238
I0
sg239
I0
sg240
I54
sg241
I3
sg242
I1
sg243
S'EST'
p2988
sbsg262
(ijoueur
joueur
p2989
(dp2990
g28
I0
sg32
I0
sg2838
g31
sg34
I0
sg2839
g31
sg35
g36
(g37
g38
Ntp2991
Rp2992
(dp2993
g42
I4
sg43
S'*'
p2994
sg45
S'heros'
p2995
sbsg47
(dp2996
S'SR'
p2997
I0
sS'CT'
p2998
I0
sS'CR'
p2999
I0
sS'ST'
p3000
I0
ssg53
(dp3001
g2997
I0
sg2998
I0
sg2999
I0
sg3000
I0
ssg236
g31
sg58
I0
sg81
I01
sg61
I0
sg62
I0
sg63
I0
sg94
S'vide'
p3002
sg69
I01
sg70
g2992
sg75
(dp3003
g2997
I0
sg2998
I0
sg2999
I0
sg3000
I3
ssg142
(dp3004
g2997
I0
sg2998
I0
sg2999
I0
sg3000
I0
ssg82
(dp3005
g2997
I0
sg2998
I0
sg2999
I0
sg3000
I0
ssg84
(dp3006
g2997
I0
sg2998
I0
sg2999
I0
sg3000
I3
ssg86
I0
sg87
I0
sg88
S'Osimpo'
p3007
sg90
I2
sg91
I0
sg92
I10
sg93
I110
sg64
(S'dummy'
p3008
S'AI'
p3009
g31
g31
tp3010
sg2860
g31
sg96
(dp3011
S'RP1'
p3012
I12
sS'ME'
p3013
I6
sS'RP2'
p3014
I9
sS'E'
p3015
I11
sS'P'
p3016
I9
sS'JP'
p3017
I7
sS'M'
p3018
I12
sS'RP_tot'
p3019
I14
sS'TO'
p3020
I7
sS'PA'
p3021
I11
sS'A'
p3022
I11
sS'R'
p3023
I7
sS'TB'
p3024
I8
sS'PL'
p3025
I9
sS'TA'
p3026
I4
ssg209
I0
sg210
I0
sg211
I0
sg212
I0
sg57
F11.161290322580646
sg213
I0
sg215
I0
sg216
I0
sg217
(dp3027
S'RP1'
p3028
I12
sS'ME'
p3029
I6
sS'RP2'
p3030
I9
sS'E'
p3031
I11
sS'P'
p3032
I9
sS'JP'
p3033
I7
sS'M'
p3034
I12
sS'RP_tot'
p3035
I14
sS'TO'
p3036
I7
sS'PA'
p3037
I11
sS'A'
p3038
I11
sS'R'
p3039
I7
sS'TB'
p3040
I8
sS'PL'
p3041
I9
sS'TA'
p3042
I4
ssg234
g3011
sg235
I0
sg237
I0
sg238
I0
sg239
I0
sg240
I11
sg241
I0
sg242
I0
sg243
S'EST'
p3043
sbssg209
I0
sg210
I0
sg211
I0
sg212
I0
sg57
F10.35483870967742
sg213
I0
sg215
I0
sg216
I1
sg217
(dp3044
S'RP1'
p3045
I12
sS'ME'
p3046
I6
sS'RP2'
p3047
I9
sS'E'
p3048
I11
sS'TO'
p3049
I7
sS'M'
p3050
I12
sS'JP'
p3051
I7
sS'RP_tot'
p3052
I14
sS'P'
p3053
I9
sS'PA'
p3054
I11
sS'A'
p3055
I11
sS'R'
p3056
I7
sS'TB'
p3057
I8
sS'PL'
p3058
I9
sS'TA'
p3059
I4
ssg234
(dp3060
g2862
I12
sg2863
I6
sg2864
I9
sg2865
I11
sg2870
I9
sg2868
I7
sg2867
I12
sg2869
I13
sg2866
I7
sg2871
I11
sg2872
I10
sg2873
I6
sg2874
I8
sg2875
I6
sg2876
I4
ssg235
I0
sg342
(dp3061
sg237
I0
sg238
I0
sg239
I0
sg240
I54
sg241
I3
sg242
I0
sg243
S'EST'
p3062
sbsS'n15'
p3063
g866
sS'n18'
p3064
g1650
sS'n19'
p3065
(ijoueur
joueur
p3066
(dp3067
g28
I0
sg210
I0
sg32
I0
sg33
I0
sg2838
g31
sg34
I0
sg2839
g31
sg35
g36
(g37
g38
Ntp3068
Rp3069
(dp3070
g42
I1
sg43
S'^'
p3071
sg45
S'base'
p3072
sbsg47
(dp3073
S'SR'
p3074
I0
sS'CT'
p3075
I0
sS'CR'
p3076
I0
sS'ST'
p3077
I0
ssg53
(dp3078
g3074
I0
sg3075
I0
sg3076
I0
sg3077
I0
ssg55
I0
sg92
I26
sg236
g31
sg58
I0
sg324
I0
sg61
I0
sg62
I0
sg63
I0
sg94
g95
sg69
I00
sg70
g3069
sg75
(dp3079
g3074
I0
sg3075
I0
sg3076
I0
sg3077
I0
ssg81
I00
sg82
(dp3080
g3074
I0
sg3075
I0
sg3076
I0
sg3077
I0
ssg84
(dp3081
g3074
I0
sg3075
I0
sg3076
I0
sg3077
I0
ssg86
I0
sg87
I0
sg88
S'Harde'
p3082
sg90
I13
sg91
I0
sg142
(dp3083
g3074
I0
sg3075
I0
sg3076
I0
sg3077
I0
ssg93
I20
sg64
(S'dummy'
p3084
S'TL'
p3085
g31
g31
tp3086
sg2860
g31
sg96
(dp3087
S'RP1'
p3088
I6
sS'ME'
p3089
I8
sS'RP2'
p3090
I8
sS'E'
p3091
I11
sS'TO'
p3092
I8
sS'M'
p3093
I7
sS'JP'
p3094
I3
sS'RP_tot'
p3095
I8
sS'P'
p3096
I5
sS'PA'
p3097
I7
sS'A'
p3098
I8
sS'R'
p3099
I10
sS'TB'
p3100
I5
sS'PL'
p3101
I11
sS'TA'
p3102
I2
ssg209
I0
sg30
g31
sg211
I0
sg212
I0
sg57
F9.451612903225806
sg213
I0
sg215
I0
sg216
I0
sg234
(dp3103
g3088
I6
sg3089
I8
sg3090
I8
sg3091
I11
sg3096
I5
sg3094
I3
sg3093
I7
sg3095
I8
sg3092
I8
sg3097
I7
sg3098
I8
sg3099
I10
sg3100
I5
sg3101
I11
sg3102
I2
ssg235
I0
sg237
I0
sg238
I0
sg239
I0
sg240
I2
sg241
I0
sg242
I0
sg243
S'N'
p3104
sbsS'n22'
p3105
(ijoueur
joueur
p3106
(dp3107
g27
F10.548387096774194
sg28
I4
sg29
F9.870967741935484
sg30
g31
sg32
I0
sg33
I0
sg34
I0
sg35
g36
(g37
g38
Ntp3108
Rp3109
(dp3110
g42
I4
sg43
S'x'
p3111
sg45
g518
sbsg47
(dp3112
g49
I0
sg50
I0
sg51
I0
sg52
I0
ssg53
(dp3113
g49
I0
sg50
I0
sg51
I0
sg52
I0
ssg55
I0
sg56
I0
sg57
F9.903225806451612
sg58
I0
sg59
I0
sg60
I0
sg61
I0
sg62
I0
sg63
I0
sg64
(g65
S'AI'
p3114
g31
g31
tp3115
sg69
I00
sg70
g36
(g37
g38
Ntp3116
Rp3117
(dp3118
g42
I4
sg43
g517
sg45
g518
sbsg75
(dp3119
g77
I0
sg78
I0
sg79
I0
sg80
I0
ssg81
I00
sg82
(dp3120
g77
I0
sg78
I0
sg79
I0
sg80
I0
ssg84
(dp3121
g49
I5
sg50
I6
sg51
I9
sg52
I20
ssg86
I0
sg87
I0
sg88
S'Ptork'
p3122
sg90
I7
sg91
I0
sg92
I16
sg93
I176
sg94
g95
sg96
(dp3123
g98
I12
sg99
I6
sg100
I9
sg101
I7
sg102
I8
sg103
I9
sg104
I6
sg105
I11
sg106
I4
sg107
I11
sg108
I9
sg109
I9
sg110
I5
sg111
I10
sg112
I7
ssg113
(dp3124
g115
(ijoueur
joueur
p3125
(dp3126
g27
F10.548387096774194
sg28
I4
sg30
g31
sg32
I0
sg34
I0
sg35
g36
(g37
g38
Ntp3127
Rp3128
(dp3129
g42
I4
sg43
S'x'
p3130
sg45
g540
sbsg47
(dp3131
g124
I0
sg125
I0
sg126
I0
sg127
I0
ssg53
(dp3132
g124
I0
sg125
I0
sg126
I0
sg127
I0
ssg56
I0
sg58
I0
sg59
I0
sg60
I0
sg81
I00
sg61
I2
sg62
I0
sg63
I0
sg64
(g129
S'AI'
p3133
g31
g31
tp3134
sg69
I00
sg70
g36
(g37
g38
Ntp3135
Rp3136
(dp3137
g42
I4
sg43
g539
sg45
g540
sbsg75
(dp3138
g138
I5
sg139
I1
sg140
I9
sg141
I5
ssg142
(dp3139
g138
I0
sg139
I0
sg140
I0
sg141
I0
ssg82
(dp3140
g138
I0
sg139
I0
sg140
I0
sg141
I0
ssg84
(dp3141
g124
I5
sg125
I6
sg126
I9
sg127
I20
ssg86
I0
sg87
I0
sg88
S'Ptork'
p3142
sg90
I7
sg91
I0
sg92
I16
sg93
I176
sg94
g147
sg96
(dp3143
g149
I12
sg150
I6
sg151
I9
sg152
I7
sg153
I4
sg154
I9
sg155
I5
sg156
I11
sg157
I8
sg158
I11
sg159
I9
sg160
I9
sg161
I5
sg162
I10
sg163
I7
ssg113
(dp3144
g165
(ijoueur
joueur
p3145
(dp3146
g28
I3
sg32
I0
sg34
I0
sg35
g36
(g37
g38
Ntp3147
Rp3148
(dp3149
g42
I4
sg43
S'x'
p3150
sg45
S'heros'
p3151
sbsg47
(dp3152
S'SR'
p3153
I0
sS'ST'
p3154
I0
sS'CR'
p3155
I0
sS'CT'
p3156
I0
ssg53
(dp3157
g3153
I0
sg3154
I0
sg3155
I0
sg3156
I0
ssg142
(dp3158
g3153
I0
sg3154
I0
sg3155
I0
sg3156
I0
ssg56
I0
sg58
I0
sg59
I0
sg60
I0
sg61
I5
sg62
I0
sg63
I0
sg64
(S'dummy'
p3159
S'AI'
p3160
g31
g31
tp3161
sg69
I00
sg70
g36
(g37
g38
Ntp3162
Rp3163
(dp3164
g42
I4
sg43
S'x'
p3165
sg45
g3151
sbsg75
(dp3166
g3153
I0
sg3154
I5
sg3155
I0
sg3156
I15
ssg81
I00
sg82
(dp3167
g3153
I0
sg3154
I0
sg3155
I0
sg3156
I0
ssg84
(dp3168
g3153
I0
sg3154
I5
sg3155
I0
sg3156
I15
ssg86
I0
sg87
I0
sg88
S'Ptork'
p3169
sg90
I7
sg91
I0
sg92
I16
sg93
I176
sg94
S'KAK'
p3170
sg96
(dp3171
S'A'
p3172
I13
sS'ME'
p3173
I6
sS'RP2'
p3174
I9
sS'E'
p3175
I8
sS'TO'
p3176
I4
sS'RP1'
p3177
I9
sS'JP'
p3178
I5
sS'RP_tot'
p3179
I11
sS'P'
p3180
I8
sS'PA'
p3181
I11
sS'M'
p3182
I11
sS'R'
p3183
I10
sS'TB'
p3184
I5
sS'PL'
p3185
I10
sS'TA'
p3186
I7
ssg209
I0
sg210
I0
sg211
I0
sg212
I0
sg57
F10.548387096774194
sg213
I0
sg214
I0
sg215
I0
sg216
I0
sg217
(dp3187
S'A'
p3188
I13
sS'ME'
p3189
I6
sS'RP2'
p3190
I9
sS'E'
p3191
I8
sS'TO'
p3192
I4
sS'RP1'
p3193
I9
sS'JP'
p3194
I5
sS'RP_tot'
p3195
I11
sS'P'
p3196
I8
sS'PA'
p3197
I11
sS'M'
p3198
I11
sS'R'
p3199
I10
sS'TB'
p3200
I5
sS'PL'
p3201
I10
sS'TA'
p3202
I7
ssg234
g3171
sg235
I3
sg236
g31
sg237
I0
sg238
I0
sg239
I0
sg240
I17
sg241
I15
sg242
I0
sg243
S'O'
p3203
sbssg209
I0
sg210
I0
sg211
I0
sg212
I0
sg57
F9.870967741935484
sg213
I0
sg214
I0
sg215
I0
sg216
I0
sg217
(dp3204
g246
I13
sg247
I6
sg248
I9
sg249
I8
sg250
I4
sg251
I9
sg252
I5
sg253
I11
sg254
I8
sg255
I11
sg256
I11
sg257
I10
sg258
I5
sg259
I10
sg260
I7
ssg234
g3143
sg235
I1
sg236
g31
sg237
I0
sg238
I0
sg239
I0
sg240
I17
sg241
I17
sg242
I0
sg243
S'O'
p3205
sbsg262
(ijoueur
joueur
p3206
(dp3207
g28
I3
sg32
I0
sg34
I0
sg35
g36
(g37
g38
Ntp3208
Rp3209
(dp3210
g42
I4
sg43
S'x'
p3211
sg45
S'heros'
p3212
sbsg47
(dp3213
S'SR'
p3214
I0
sS'ST'
p3215
I0
sS'CR'
p3216
I0
sS'CT'
p3217
I0
ssg53
(dp3218
g3214
I0
sg3215
I0
sg3216
I0
sg3217
I0
ssg142
(dp3219
g3214
I0
sg3215
I0
sg3216
I0
sg3217
I0
ssg56
I0
sg58
I0
sg59
I0
sg60
I0
sg61
I5
sg62
I0
sg63
I0
sg64
(S'dummy'
p3220
S'AI'
p3221
g31
g31
tp3222
sg69
I00
sg70
g36
(g37
g38
Ntp3223
Rp3224
(dp3225
g42
I4
sg43
S'x'
p3226
sg45
g3212
sbsg75
(dp3227
g3214
I0
sg3215
I5
sg3216
I0
sg3217
I15
ssg81
I00
sg82
(dp3228
g3214
I0
sg3215
I0
sg3216
I0
sg3217
I0
ssg84
(dp3229
g3214
I0
sg3215
I5
sg3216
I0
sg3217
I15
ssg86
I0
sg87
I0
sg88
S'Ptork'
p3230
sg90
I7
sg91
I0
sg92
I16
sg93
I176
sg94
S'KAK'
p3231
sg96
(dp3232
S'A'
p3233
I13
sS'ME'
p3234
I6
sS'RP2'
p3235
I9
sS'E'
p3236
I8
sS'TO'
p3237
I4
sS'RP1'
p3238
I9
sS'JP'
p3239
I5
sS'RP_tot'
p3240
I11
sS'P'
p3241
I8
sS'PA'
p3242
I11
sS'M'
p3243
I11
sS'R'
p3244
I10
sS'TB'
p3245
I5
sS'PL'
p3246
I10
sS'TA'
p3247
I7
ssg209
I0
sg210
I0
sg211
I0
sg212
I0
sg57
F10.548387096774194
sg213
I0
sg214
I0
sg215
I0
sg216
I0
sg217
(dp3248
S'A'
p3249
I13
sS'ME'
p3250
I6
sS'RP2'
p3251
I9
sS'E'
p3252
I8
sS'TO'
p3253
I4
sS'RP1'
p3254
I9
sS'JP'
p3255
I5
sS'RP_tot'
p3256
I11
sS'P'
p3257
I8
sS'PA'
p3258
I11
sS'M'
p3259
I11
sS'R'
p3260
I10
sS'TB'
p3261
I5
sS'PL'
p3262
I10
sS'TA'
p3263
I7
ssg234
g3232
sg235
I3
sg236
g31
sg237
I0
sg238
I0
sg239
I0
sg240
I17
sg241
I15
sg242
I0
sg243
S'O'
p3264
sbssg209
I0
sg210
I0
sg211
I0
sg212
I0
sg142
(dp3265
g77
I0
sg78
I0
sg79
I0
sg80
I0
ssg213
I0
sg324
I0
sg214
I0
sg215
I0
sg216
I0
sg217
(dp3266
g326
I13
sg327
I6
sg328
I9
sg329
I8
sg330
I4
sg331
I9
sg332
I5
sg333
I11
sg334
I8
sg335
I11
sg336
I11
sg337
I10
sg338
I5
sg339
I10
sg340
I7
ssg234
(dp3267
g98
I12
sg99
I6
sg100
I9
sg101
I7
sg106
I4
sg103
I9
sg104
I6
sg105
I11
sg102
I8
sg107
I11
sg108
I9
sg109
I9
sg110
I5
sg111
I10
sg112
I7
ssg235
I0
sg342
(dp3268
sg237
I0
sg236
g31
sg238
I0
sg239
I0
sg240
I17
sg241
I17
sg242
I0
sg243
S'O'
p3269
sbsS'n21'
p3270
(ijoueur
joueur
p3271
(dp3272
g28
I0
sg29
F9.333333333333334
sg30
g31
sg32
I0
sg33
I0
sg2838
g31
sg34
I0
sg2839
g31
sg35
g36
(g37
g38
Ntp3273
Rp3274
(dp3275
g42
I1
sg43
S'^'
p3276
sg45
S'base'
p3277
sbsg47
(dp3278
S'SR'
p3279
I0
sS'ST'
p3280
I0
sS'CR'
p3281
I0
sS'CT'
p3282
I0
ssg53
(dp3283
g3279
I0
sg3280
I0
sg3281
I0
sg3282
I0
ssg55
I0
sg236
g31
sg58
I0
sg324
I0
sg81
I00
sg61
I0
sg62
I0
sg63
I0
sg94
g95
sg69
I00
sg70
g3274
sg75
(dp3284
g77
I0
sg78
I0
sg79
I0
sg80
I0
ssg142
(dp3285
g77
I0
sg78
I0
sg79
I0
sg80
I0
ssg82
(dp3286
g77
I0
sg78
I0
sg79
I0
sg80
I0
ssg84
(dp3287
g3279
I0
sg3280
I0
sg3281
I1
sg3282
I3
ssg86
I0
sg87
I0
sg88
S'Ertenkor'
p3288
sg90
I12
sg91
I0
sg92
I21
sg93
I23
sg64
(S'dummy'
p3289
S'AR'
p3290
g31
g31
tp3291
sg2860
g31
sg96
(dp3292
S'RP1'
p3293
I6
sS'ME'
p3294
I3
sS'RP2'
p3295
I9
sS'E'
p3296
I11
sS'P'
p3297
I6
sS'JP'
p3298
I7
sS'M'
p3299
I10
sS'RP_tot'
p3300
I9
sS'TO'
p3301
I3
sS'PA'
p3302
I7
sS'A'
p3303
I9
sS'R'
p3304
I8
sS'TB'
p3305
I6
sS'PL'
p3306
I11
sS'TA'
p3307
I6
ssg113
(dp3308
g115
(ijoueur
joueur
p3309
(dp3310
g28
I0
sg30
g31
sg32
I0
sg2838
g31
sg34
I0
sg2839
g31
sg35
g36
(g37
g38
Ntp3311
Rp3312
(dp3313
g42
I1
sg43
S'^'
p3314
sg45
S'base'
p3315
sbsg47
(dp3316
S'SR'
p3317
I0
sS'ST'
p3318
I0
sS'CR'
p3319
I0
sS'CT'
p3320
I0
ssg53
(dp3321
g3317
I0
sg3318
I0
sg3319
I0
sg3320
I0
ssg142
(dp3322
g3317
I0
sg3318
I0
sg3319
I0
sg3320
I0
ssg236
g31
sg58
I0
sg61
I0
sg62
I0
sg63
I0
sg94
g147
sg69
I00
sg70
g3312
sg75
(dp3323
g3317
I0
sg3318
I0
sg3319
I1
sg3320
I3
ssg81
I01
sg82
(dp3324
g3317
I0
sg3318
I0
sg3319
I0
sg3320
I0
ssg84
(dp3325
g3317
I0
sg3318
I0
sg3319
I1
sg3320
I3
ssg86
I0
sg87
I0
sg88
S'Ertenkor'
p3326
sg90
I12
sg91
I0
sg92
I21
sg93
I23
sg64
(S'dummy'
p3327
S'AR'
p3328
g31
g31
tp3329
sg2860
g31
sg96
(dp3330
S'RP1'
p3331
I6
sS'ME'
p3332
I3
sS'RP2'
p3333
I9
sS'E'
p3334
I11
sS'TO'
p3335
I3
sS'M'
p3336
I10
sS'JP'
p3337
I7
sS'RP_tot'
p3338
I9
sS'P'
p3339
I8
sS'PA'
p3340
I7
sS'A'
p3341
I9
sS'R'
p3342
I8
sS'TB'
p3343
I6
sS'PL'
p3344
I11
sS'TA'
p3345
I6
ssg113
(dp3346
sg209
I0
sg210
I0
sg211
I0
sg212
I0
sg57
F9.333333333333334
sg213
I0
sg215
I0
sg216
I0
sg234
g3330
sg235
I0
sg237
I0
sg238
I0
sg239
I0
sg240
I2
sg241
I0
sg242
I0
sg243
S'N'
p3347
sbssg209
I0
sg210
I0
sg211
I0
sg212
I0
sg57
F9.212121212121213
sg213
I0
sg215
I0
sg216
I0
sg234
(dp3348
g3293
I6
sg3294
I3
sg3295
I9
sg3296
I11
sg3301
I3
sg3299
I10
sg3298
I7
sg3300
I9
sg3297
I6
sg3302
I7
sg3303
I9
sg3304
I8
sg3305
I6
sg3306
I11
sg3307
I6
ssg235
I0
sg342
(dp3349
sg237
I0
sg238
I0
sg239
I0
sg240
I2
sg241
I0
sg242
I0
sg243
S'N'
p3350
sbsS'n20'
p3351
g346
sS'n8'
p3352
g689
sS'n9'
p3353
(ijoueur
joueur
p3354
(dp3355
g27
F10.0
sg28
I0
sg29
F10.620689655172415
sg30
g31
sg32
I0
sg33
I0
sg34
I0
sg35
g36
(g37
g38
Ntp3356
Rp3357
(dp3358
g42
I4
sg43
g517
sg45
g518
sbsg47
(dp3359
g49
I0
sg50
I0
sg51
I0
sg52
I0
ssg53
(dp3360
g49
I0
sg50
I0
sg51
I0
sg52
I0
ssg55
I0
sg56
I0
sg57
F10.827586206896552
sg58
I0
sg59
I0
sg60
I0
sg61
I0
sg62
I0
sg63
I0
sg64
(g65
S'DM'
p3361
g31
g31
tp3362
sg69
I00
sg70
g36
(g37
g38
Ntp3363
Rp3364
(dp3365
g42
I4
sg43
g517
sg45
g518
sbsg75
(dp3366
g77
I0
sg78
I0
sg79
I0
sg80
I0
ssg81
I00
sg82
(dp3367
g77
I0
sg78
I0
sg79
I0
sg80
I0
ssg84
(dp3368
g49
I0
sg50
I0
sg51
I14
sg52
I14
ssg86
I0
sg87
I0
sg88
S'Haodel'
p3369
sg90
I5
sg91
I0
sg92
I14
sg93
I238
sg94
g95
sg96
(dp3370
g98
I14
sg99
I4
sg100
I8
sg101
I11
sg102
I9
sg103
I6
sg104
I8
sg105
I8
sg106
I8
sg107
I13
sg108
I10
sg109
I6
sg110
I7
sg111
I13
sg112
I5
ssg113
(dp3371
g115
(ijoueur
joueur
p3372
(dp3373
g27
F10.0
sg28
I0
sg30
g31
sg32
I0
sg34
I0
sg35
g36
(g37
g38
Ntp3374
Rp3375
(dp3376
g42
I4
sg43
g539
sg45
g540
sbsg47
(dp3377
g124
I0
sg125
I0
sg126
I0
sg127
I0
ssg53
(dp3378
g124
I0
sg125
I0
sg126
I0
sg127
I0
ssg56
I0
sg58
I0
sg59
I0
sg60
I0
sg81
I00
sg61
I2
sg62
I0
sg63
I0
sg64
(g129
S'DM'
p3379
g31
g31
tp3380
sg69
I00
sg70
g36
(g37
g38
Ntp3381
Rp3382
(dp3383
g42
I4
sg43
g539
sg45
g540
sbsg75
(dp3384
g138
I0
sg139
I0
sg140
I1
sg141
I11
ssg142
(dp3385
g138
I0
sg139
I0
sg140
I0
sg141
I0
ssg82
(dp3386
g138
I0
sg139
I0
sg140
I0
sg141
I0
ssg84
(dp3387
g124
I0
sg125
I0
sg126
I14
sg127
I14
ssg86
I0
sg87
I0
sg88
S'Haodel'
p3388
sg90
I5
sg91
I0
sg92
I14
sg93
I238
sg94
g147
sg96
(dp3389
g149
I13
sg150
I4
sg151
I8
sg152
I11
sg153
I8
sg154
I6
sg155
I8
sg156
I8
sg157
I9
sg158
I13
sg159
I9
sg160
I6
sg161
I7
sg162
I13
sg163
I5
ssg113
(dp3390
g165
(ijoueur
joueur
p3391
(dp3392
g28
I0
sg32
I0
sg34
I0
sg35
g36
(g37
g38
Ntp3393
Rp3394
(dp3395
g42
I4
sg43
S'x'
p3396
sg45
S'heros'
p3397
sbsg47
(dp3398
S'SR'
p3399
I0
sS'ST'
p3400
I0
sS'CR'
p3401
I0
sS'CT'
p3402
I0
ssg53
(dp3403
g3399
I0
sg3400
I0
sg3401
I0
sg3402
I0
ssg142
(dp3404
g3399
I0
sg3400
I0
sg3401
I0
sg3402
I0
ssg56
I0
sg58
I0
sg59
I0
sg60
I0
sg61
I0
sg62
I0
sg63
I0
sg64
(S'dummy'
p3405
S'DM'
p3406
g31
g31
tp3407
sg69
I00
sg70
g36
(g37
g38
Ntp3408
Rp3409
(dp3410
g42
I4
sg43
g3396
sg45
g3397
sbsg75
(dp3411
g3399
I0
sg3400
I0
sg3401
I13
sg3402
I3
ssg81
I00
sg82
(dp3412
g3399
I0
sg3400
I0
sg3401
I0
sg3402
I0
ssg84
(dp3413
g3399
I0
sg3400
I0
sg3401
I13
sg3402
I3
ssg86
I0
sg87
I0
sg88
S'Haodel'
p3414
sg90
I5
sg91
I0
sg92
I14
sg93
I238
sg94
S'KAK'
p3415
sg96
(dp3416
S'A'
p3417
I13
sS'ME'
p3418
I4
sS'RP2'
p3419
I7
sS'E'
p3420
I11
sS'TO'
p3421
I8
sS'RP1'
p3422
I6
sS'JP'
p3423
I6
sS'RP_tot'
p3424
I7
sS'P'
p3425
I8
sS'PA'
p3426
I13
sS'M'
p3427
I8
sS'R'
p3428
I6
sS'TB'
p3429
I7
sS'PL'
p3430
I12
sS'TA'
p3431
I5
ssg209
I0
sg210
I0
sg211
I0
sg212
I0
sg57
F10.0
sg213
I0
sg214
I0
sg215
I0
sg216
I0
sg217
(dp3432
S'A'
p3433
I13
sS'ME'
p3434
I4
sS'RP2'
p3435
I7
sS'E'
p3436
I11
sS'TO'
p3437
I8
sS'RP1'
p3438
I6
sS'JP'
p3439
I6
sS'RP_tot'
p3440
I7
sS'P'
p3441
I8
sS'PA'
p3442
I13
sS'M'
p3443
I8
sS'R'
p3444
I6
sS'TB'
p3445
I7
sS'PL'
p3446
I12
sS'TA'
p3447
I5
ssg234
g3416
sg235
I0
sg236
S'TA 9'
p3448
sg237
I0
sg238
I0
sg239
I0
sg240
I21
sg241
I4
sg242
I0
sg243
S'ES'
p3449
sbssg209
I0
sg210
I0
sg211
I0
sg212
I0
sg57
F10.620689655172415
sg213
I0
sg214
I0
sg215
I0
sg216
I0
sg217
(dp3450
g246
I13
sg247
I4
sg248
I7
sg249
I11
sg250
I8
sg251
I6
sg252
I6
sg253
I7
sg254
I8
sg255
I13
sg256
I8
sg257
I6
sg258
I7
sg259
I12
sg260
I5
ssg234
g3389
sg235
I0
sg236
S'TA 9'
p3451
sg237
I0
sg238
I0
sg239
I0
sg240
I21
sg241
I6
sg242
I0
sg243
S'ES'
p3452
sbsg262
(ijoueur
joueur
p3453
(dp3454
g28
I0
sg32
I0
sg34
I0
sg35
g36
(g37
g38
Ntp3455
Rp3456
(dp3457
g42
I4
sg43
S'x'
p3458
sg45
S'heros'
p3459
sbsg47
(dp3460
S'SR'
p3461
I0
sS'ST'
p3462
I0
sS'CR'
p3463
I0
sS'CT'
p3464
I0
ssg53
(dp3465
g3461
I0
sg3462
I0
sg3463
I0
sg3464
I0
ssg142
(dp3466
g3461
I0
sg3462
I0
sg3463
I0
sg3464
I0
ssg56
I0
sg58
I0
sg59
I0
sg60
I0
sg61
I0
sg62
I0
sg63
I0
sg64
(S'dummy'
p3467
S'DM'
p3468
g31
g31
tp3469
sg69
I00
sg70
g36
(g37
g38
Ntp3470
Rp3471
(dp3472
g42
I4
sg43
g3458
sg45
g3459
sbsg75
(dp3473
g3461
I0
sg3462
I0
sg3463
I13
sg3464
I3
ssg81
I00
sg82
(dp3474
g3461
I0
sg3462
I0
sg3463
I0
sg3464
I0
ssg84
(dp3475
g3461
I0
sg3462
I0
sg3463
I13
sg3464
I3
ssg86
I0
sg87
I0
sg88
S'Haodel'
p3476
sg90
I5
sg91
I0
sg92
I14
sg93
I238
sg94
S'KAK'
p3477
sg96
(dp3478
S'A'
p3479
I13
sS'ME'
p3480
I4
sS'RP2'
p3481
I7
sS'E'
p3482
I11
sS'TO'
p3483
I8
sS'RP1'
p3484
I6
sS'JP'
p3485
I6
sS'RP_tot'
p3486
I7
sS'P'
p3487
I8
sS'PA'
p3488
I13
sS'M'
p3489
I8
sS'R'
p3490
I6
sS'TB'
p3491
I7
sS'PL'
p3492
I12
sS'TA'
p3493
I5
ssg209
I0
sg210
I0
sg211
I0
sg212
I0
sg57
F10.0
sg213
I0
sg214
I0
sg215
I0
sg216
I0
sg217
(dp3494
S'A'
p3495
I13
sS'ME'
p3496
I4
sS'RP2'
p3497
I7
sS'E'
p3498
I11
sS'TO'
p3499
I8
sS'RP1'
p3500
I6
sS'JP'
p3501
I6
sS'RP_tot'
p3502
I7
sS'P'
p3503
I8
sS'PA'
p3504
I13
sS'M'
p3505
I8
sS'R'
p3506
I6
sS'TB'
p3507
I7
sS'PL'
p3508
I12
sS'TA'
p3509
I5
ssg234
g3478
sg235
I0
sg236
S'TA 9'
p3510
sg237
I0
sg238
I0
sg239
I0
sg240
I21
sg241
I4
sg242
I0
sg243
S'ES'
p3511
sbssg209
I0
sg210
I0
sg211
I0
sg212
I0
sg142
(dp3512
g77
I0
sg78
I0
sg79
I0
sg80
I0
ssg213
I0
sg324
I0
sg214
I0
sg215
I0
sg216
I0
sg217
(dp3513
g326
I13
sg327
I4
sg328
I7
sg329
I11
sg330
I8
sg331
I6
sg332
I6
sg333
I7
sg334
I8
sg335
I13
sg336
I8
sg337
I6
sg338
I7
sg339
I12
sg340
I5
ssg234
(dp3514
g98
I14
sg99
I4
sg100
I8
sg101
I11
sg106
I8
sg103
I6
sg104
I8
sg105
I8
sg102
I9
sg107
I13
sg108
I10
sg109
I6
sg110
I7
sg111
I13
sg112
I5
ssg235
I0
sg342
(dp3515
sg237
I0
sg236
S'TA 9'
p3516
sg238
I0
sg239
I0
sg240
I21
sg241
I6
sg242
I0
sg243
S'ES'
p3517
sbsS'n1'
p3518
g1816
sS'n2'
p3519
(ijoueur
joueur
p3520
(dp3521
g27
F9.206896551724139
sg28
I0
sg29
F9.172413793103448
sg30
g31
sg32
I0
sg33
I0
sg34
I0
sg35
g36
(g37
g38
Ntp3522
Rp3523
(dp3524
g42
I1
sg43
S'^'
p3525
sg45
S'base'
p3526
sbsg47
(dp3527
g49
I0
sg50
I0
sg51
I0
sg52
I0
ssg53
(dp3528
g49
I0
sg50
I0
sg51
I0
sg52
I0
ssg55
I0
sg56
I0
sg57
F9.310344827586206
sg58
I0
sg59
I0
sg60
I0
sg61
I0
sg62
I0
sg63
I0
sg64
(g65
S'TA'
p3529
S'PI'
p3530
g31
tp3531
sg69
I00
sg70
g36
(g37
g38
Ntp3532
Rp3533
(dp3534
g42
I1
sg43
g3525
sg45
g3526
sbsg75
(dp3535
g77
I0
sg78
I0
sg79
I0
sg80
I0
ssg81
I00
sg82
(dp3536
g77
I0
sg78
I0
sg79
I0
sg80
I0
ssg84
(dp3537
g49
I0
sg50
I0
sg51
I6
sg52
I10
ssg86
I0
sg87
I0
sg88
S'Uktreg'
p3538
sg90
I11
sg91
I0
sg92
I21
sg93
I23
sg94
g95
sg96
(dp3539
g98
I6
sg99
I10
sg100
I5
sg101
I10
sg102
I6
sg103
I11
sg104
I2
sg105
I11
sg106
I6
sg107
I8
sg108
I6
sg109
I9
sg110
I1
sg111
I9
sg112
I10
ssg113
(dp3540
g115
(ijoueur
joueur
p3541
(dp3542
g27
F9.206896551724139
sg28
I0
sg30
g31
sg32
I0
sg34
I0
sg35
g36
(g37
g38
Ntp3543
Rp3544
(dp3545
g42
I1
sg43
S'^'
p3546
sg45
S'base'
p3547
sbsg47
(dp3548
g124
I0
sg125
I0
sg126
I0
sg127
I0
ssg53
(dp3549
g124
I0
sg125
I0
sg126
I0
sg127
I0
ssg56
I0
sg58
I0
sg59
I0
sg60
I0
sg81
I01
sg61
I0
sg62
I0
sg63
I0
sg64
(g129
S'TA'
p3550
S'PI'
p3551
g31
tp3552
sg69
I00
sg70
g36
(g37
g38
Ntp3553
Rp3554
(dp3555
g42
I1
sg43
g3546
sg45
g3547
sbsg75
(dp3556
g138
I0
sg139
I0
sg140
I5
sg141
I9
ssg142
(dp3557
g138
I0
sg139
I0
sg140
I0
sg141
I0
ssg82
(dp3558
g138
I0
sg139
I0
sg140
I0
sg141
I0
ssg84
(dp3559
g124
I0
sg125
I0
sg126
I6
sg127
I10
ssg86
I0
sg87
I0
sg88
S'Uktreg'
p3560
sg90
I11
sg91
I0
sg92
I21
sg93
I23
sg94
g147
sg96
(dp3561
g149
I6
sg150
I10
sg151
I5
sg152
I10
sg153
I6
sg154
I10
sg155
I2
sg156
I10
sg157
I6
sg158
I8
sg159
I6
sg160
I9
sg161
I1
sg162
I9
sg163
I10
ssg113
(dp3562
g165
(ijoueur
joueur
p3563
(dp3564
g28
I0
sg32
I0
sg34
I0
sg35
g36
(g37
g38
Ntp3565
Rp3566
(dp3567
g42
I1
sg43
S'^'
p3568
sg45
S'base'
p3569
sbsg47
(dp3570
S'SR'
p3571
I0
sS'ST'
p3572
I0
sS'CR'
p3573
I0
sS'CT'
p3574
I0
ssg53
(dp3575
g3571
I0
sg3572
I0
sg3573
I0
sg3574
I0
ssg142
(dp3576
g3571
I0
sg3572
I0
sg3573
I0
sg3574
I0
ssg56
I0
sg58
I0
sg59
I0
sg60
I0
sg61
I0
sg62
I0
sg63
I0
sg64
(S'dummy'
p3577
S'TA'
p3578
S'PI'
p3579
g31
tp3580
sg69
I00
sg70
g36
(g37
g38
Ntp3581
Rp3582
(dp3583
g42
I1
sg43
g3568
sg45
g3569
sbsg75
(dp3584
g3571
I0
sg3572
I0
sg3573
I1
sg3574
I1
ssg81
I01
sg82
(dp3585
g3571
I0
sg3572
I0
sg3573
I0
sg3574
I0
ssg84
(dp3586
g3571
I0
sg3572
I0
sg3573
I1
sg3574
I1
ssg86
I0
sg87
I0
sg88
S'Uktreg'
p3587
sg90
I11
sg91
I0
sg92
I21
sg93
I23
sg94
S'KAK'
p3588
sg96
(dp3589
S'A'
p3590
I6
sS'ME'
p3591
I9
sS'RP2'
p3592
I5
sS'E'
p3593
I10
sS'TO'
p3594
I6
sS'RP1'
p3595
I10
sS'JP'
p3596
I2
sS'RP_tot'
p3597
I10
sS'P'
p3598
I6
sS'PA'
p3599
I8
sS'M'
p3600
I6
sS'R'
p3601
I9
sS'TB'
p3602
I1
sS'PL'
p3603
I11
sS'TA'
p3604
I9
ssg209
I0
sg210
I0
sg211
I0
sg212
I0
sg57
F9.206896551724139
sg213
I0
sg214
I0
sg215
I0
sg216
I0
sg217
(dp3605
S'A'
p3606
I6
sS'ME'
p3607
I9
sS'RP2'
p3608
I5
sS'E'
p3609
I10
sS'TO'
p3610
I6
sS'RP1'
p3611
I10
sS'JP'
p3612
I2
sS'RP_tot'
p3613
I10
sS'P'
p3614
I6
sS'PA'
p3615
I8
sS'M'
p3616
I6
sS'R'
p3617
I9
sS'TB'
p3618
I1
sS'PL'
p3619
I11
sS'TA'
p3620
I9
ssg234
g3589
sg235
I0
sg236
g31
sg237
I0
sg238
I0
sg239
I0
sg240
I2
sg241
I0
sg242
I0
sg243
S'N'
p3621
sbssg209
I0
sg210
I0
sg211
I0
sg212
I0
sg57
F9.172413793103448
sg213
I0
sg214
I0
sg215
I0
sg216
I1
sg217
(dp3622
g246
I6
sg247
I9
sg248
I5
sg249
I10
sg250
I6
sg251
I10
sg252
I2
sg253
I10
sg254
I6
sg255
I8
sg256
I6
sg257
I9
sg258
I1
sg259
I11
sg260
I9
ssg234
g3561
sg235
I0
sg236
g31
sg237
I0
sg238
I0
sg239
I0
sg240
I2
sg241
I0
sg242
I1
sg243
g445
sbsg262
(ijoueur
joueur
p3623
(dp3624
g28
I0
sg32
I0
sg34
I0
sg35
g36
(g37
g38
Ntp3625
Rp3626
(dp3627
g42
I1
sg43
S'^'
p3628
sg45
S'base'
p3629
sbsg47
(dp3630
S'SR'
p3631
I0
sS'ST'
p3632
I0
sS'CR'
p3633
I0
sS'CT'
p3634
I0
ssg53
(dp3635
g3631
I0
sg3632
I0
sg3633
I0
sg3634
I0
ssg142
(dp3636
g3631
I0
sg3632
I0
sg3633
I0
sg3634
I0
ssg56
I0
sg58
I0
sg59
I0
sg60
I0
sg61
I0
sg62
I0
sg63
I0
sg64
(S'dummy'
p3637
S'TA'
p3638
S'PI'
p3639
g31
tp3640
sg69
I00
sg70
g36
(g37
g38
Ntp3641
Rp3642
(dp3643
g42
I1
sg43
g3628
sg45
g3629
sbsg75
(dp3644
g3631
I0
sg3632
I0
sg3633
I1
sg3634
I1
ssg81
I01
sg82
(dp3645
g3631
I0
sg3632
I0
sg3633
I0
sg3634
I0
ssg84
(dp3646
g3631
I0
sg3632
I0
sg3633
I1
sg3634
I1
ssg86
I0
sg87
I0
sg88
S'Uktreg'
p3647
sg90
I11
sg91
I0
sg92
I21
sg93
I23
sg94
S'KAK'
p3648
sg96
(dp3649
S'A'
p3650
I6
sS'ME'
p3651
I9
sS'RP2'
p3652
I5
sS'E'
p3653
I10
sS'TO'
p3654
I6
sS'RP1'
p3655
I10
sS'JP'
p3656
I2
sS'RP_tot'
p3657
I10
sS'P'
p3658
I6
sS'PA'
p3659
I8
sS'M'
p3660
I6
sS'R'
p3661
I9
sS'TB'
p3662
I1
sS'PL'
p3663
I11
sS'TA'
p3664
I9
ssg209
I0
sg210
I0
sg211
I0
sg212
I0
sg57
F9.206896551724139
sg213
I0
sg214
I0
sg215
I0
sg216
I0
sg217
(dp3665
S'A'
p3666
I6
sS'ME'
p3667
I9
sS'RP2'
p3668
I5
sS'E'
p3669
I10
sS'TO'
p3670
I6
sS'RP1'
p3671
I10
sS'JP'
p3672
I2
sS'RP_tot'
p3673
I10
sS'P'
p3674
I6
sS'PA'
p3675
I8
sS'M'
p3676
I6
sS'R'
p3677
I9
sS'TB'
p3678
I1
sS'PL'
p3679
I11
sS'TA'
p3680
I9
ssg234
g3649
sg235
I0
sg236
g31
sg237
I0
sg238
I0
sg239
I0
sg240
I2
sg241
I0
sg242
I0
sg243
S'N'
p3681
sbssg209
I0
sg210
I0
sg211
I0
sg212
I0
sg142
(dp3682
g77
I0
sg78
I0
sg79
I0
sg80
I0
ssg213
I0
sg324
I0
sg214
I0
sg215
I0
sg216
I1
sg217
(dp3683
g326
I6
sg327
I9
sg328
I5
sg329
I10
sg330
I6
sg331
I10
sg332
I2
sg333
I10
sg334
I6
sg335
I8
sg336
I6
sg337
I9
sg338
I1
sg339
I11
sg340
I9
ssg234
(dp3684
g98
I6
sg99
I10
sg100
I5
sg101
I10
sg106
I6
sg103
I11
sg104
I2
sg105
I11
sg102
I6
sg107
I8
sg108
I6
sg109
I9
sg110
I1
sg111
I9
sg112
I10
ssg235
I0
sg342
(dp3685
sg237
I0
sg236
g31
sg238
I0
sg239
I0
sg240
I2
sg241
I0
sg242
I0
sg243
g510
sbsS'n3'
p3686
g512
sS'n4'
p3687
g25
sS'n5'
p3688
g1229
sS'n6'
p3689
(ijoueur
joueur
p3690
(dp3691
g27
F11.419354838709678
sg28
I0
sg29
F11.258064516129032
sg30
g31
sg32
I0
sg33
I0
sg34
I0
sg35
g36
(g37
g38
Ntp3692
Rp3693
(dp3694
g42
I5
sg43
S'xx'
p3695
sg45
g46
sbsg47
(dp3696
g49
I0
sg50
I0
sg51
I0
sg52
I16
ssg53
(dp3697
g49
I0
sg50
I0
sg51
I0
sg52
I0
ssg55
I0
sg56
I0
sg57
F11.129032258064516
sg58
I0
sg59
I0
sg60
I0
sg61
I0
sg62
I0
sg63
I0
sg64
(g65
S'TL'
p3698
S'N8'
p3699
g31
tp3700
sg69
I00
sg70
g36
(g37
g38
Ntp3701
Rp3702
(dp3703
g42
I5
sg43
S'xx'
p3704
sg45
g46
sbsg75
(dp3705
g77
I0
sg78
I0
sg79
I0
sg80
I0
ssg81
I00
sg82
(dp3706
g77
I0
sg78
I0
sg79
I0
sg80
I0
ssg84
(dp3707
g49
I0
sg50
I11
sg51
I0
sg52
I12
ssg86
I0
sg87
I0
sg88
S'Kulaaq'
p3708
sg90
I4
sg91
I0
sg92
I11
sg93
I365
sg94
g95
sg96
(dp3709
g98
I6
sg99
I9
sg100
I6
sg101
I10
sg102
I3
sg103
I15
sg104
I4
sg105
I15
sg106
I8
sg107
I7
sg108
I8
sg109
I12
sg110
I2
sg111
I13
sg112
I7
ssg113
(dp3710
g115
(ijoueur
joueur
p3711
(dp3712
g27
F11.419354838709678
sg28
I0
sg30
g31
sg32
I0
sg34
I0
sg35
g36
(g37
g38
Ntp3713
Rp3714
(dp3715
g42
I5
sg43
S'xx'
p3716
sg45
g122
sbsg47
(dp3717
g124
I0
sg125
I0
sg126
I0
sg127
I16
ssg53
(dp3718
g124
I0
sg125
I0
sg126
I0
sg127
I0
ssg56
I0
sg58
I0
sg59
I0
sg60
I0
sg81
I00
sg61
I1
sg62
I0
sg63
I0
sg64
(g129
S'TL'
p3719
S'N8'
p3720
g31
tp3721
sg69
I00
sg70
g36
(g37
g38
Ntp3722
Rp3723
(dp3724
g42
I5
sg43
S'xx'
p3725
sg45
g122
sbsg75
(dp3726
g138
I0
sg139
I5
sg140
I0
sg141
I12
ssg142
(dp3727
g138
I0
sg139
I0
sg140
I0
sg141
I1
ssg82
(dp3728
g138
I0
sg139
I0
sg140
I0
sg141
I0
ssg84
(dp3729
g124
I0
sg125
I11
sg126
I0
sg127
I12
ssg86
I0
sg87
I0
sg88
S'Kulaaq'
p3730
sg90
I4
sg91
I0
sg92
I11
sg93
I365
sg94
g147
sg96
(dp3731
g149
I6
sg150
I9
sg151
I6
sg152
I11
sg153
I8
sg154
I15
sg155
I4
sg156
I15
sg157
I3
sg158
I7
sg159
I8
sg160
I12
sg161
I2
sg162
I13
sg163
I7
ssg113
(dp3732
g165
(ijoueur
joueur
p3733
(dp3734
g28
I0
sg32
I0
sg34
I0
sg35
g36
(g37
g38
Ntp3735
Rp3736
(dp3737
g42
I5
sg43
S'xx'
p3738
sg45
S'seigneur'
p3739
sbsg47
(dp3740
S'SR'
p3741
I0
sS'ST'
p3742
I0
sS'CR'
p3743
I0
sS'CT'
p3744
I15
ssg53
(dp3745
g3741
I0
sg3742
I0
sg3743
I0
sg3744
I0
ssg142
(dp3746
g3741
I0
sg3742
I0
sg3743
I0
sg3744
I15
ssg56
I0
sg58
I0
sg59
I0
sg60
I0
sg61
I1
sg62
I0
sg63
I0
sg64
(S'dummy'
p3747
S'TL'
p3748
S'N8'
p3749
g31
tp3750
sg69
I00
sg70
g36
(g37
g38
Ntp3751
Rp3752
(dp3753
g42
I5
sg43
S'xx'
p3754
sg45
g3739
sbsg75
(dp3755
g3741
I0
sg3742
I6
sg3743
I0
sg3744
I0
ssg81
I00
sg82
(dp3756
g3741
I0
sg3742
I0
sg3743
I0
sg3744
I0
ssg84
(dp3757
g3741
I0
sg3742
I6
sg3743
I0
sg3744
I0
ssg86
I0
sg87
I0
sg88
S'Kulaaq'
p3758
sg90
I4
sg91
I0
sg92
I11
sg93
I365
sg94
S'KAK'
p3759
sg96
(dp3760
S'A'
p3761
I7
sS'ME'
p3762
I9
sS'RP2'
p3763
I6
sS'E'
p3764
I11
sS'TO'
p3765
I10
sS'RP1'
p3766
I15
sS'JP'
p3767
I4
sS'RP_tot'
p3768
I15
sS'P'
p3769
I3
sS'PA'
p3770
I7
sS'M'
p3771
I9
sS'R'
p3772
I12
sS'TB'
p3773
I2
sS'PL'
p3774
I13
sS'TA'
p3775
I7
ssg209
I0
sg210
I0
sg211
I0
sg212
I0
sg57
F11.419354838709678
sg213
I0
sg214
I0
sg215
I0
sg216
I1
sg217
(dp3776
S'A'
p3777
I7
sS'ME'
p3778
I9
sS'RP2'
p3779
I6
sS'E'
p3780
I11
sS'TO'
p3781
I10
sS'RP1'
p3782
I15
sS'JP'
p3783
I4
sS'RP_tot'
p3784
I15
sS'P'
p3785
I3
sS'PA'
p3786
I7
sS'M'
p3787
I9
sS'R'
p3788
I12
sS'TB'
p3789
I2
sS'PL'
p3790
I13
sS'TA'
p3791
I7
ssg234
g3760
sg235
I0
sg236
g31
sg237
I0
sg238
I0
sg239
I0
sg240
I39
sg241
I30
sg242
I1
sg243
S'HL'
p3792
sbssg209
I3
sg210
I0
sg211
I0
sg212
I0
sg57
F11.258064516129032
sg213
I0
sg214
I0
sg215
I0
sg216
I1
sg217
(dp3793
g246
I7
sg247
I9
sg248
I6
sg249
I11
sg250
I10
sg251
I15
sg252
I4
sg253
I15
sg254
I3
sg255
I7
sg256
I9
sg257
I12
sg258
I2
sg259
I13
sg260
I7
ssg234
g3731
sg235
I0
sg236
g31
sg237
I0
sg238
I0
sg239
I0
sg240
I39
sg241
I31
sg242
I0
sg243
S'HL'
p3794
sbsg262
(ijoueur
joueur
p3795
(dp3796
g28
I0
sg32
I0
sg34
I0
sg35
g36
(g37
g38
Ntp3797
Rp3798
(dp3799
g42
I5
sg43
S'xx'
p3800
sg45
S'seigneur'
p3801
sbsg47
(dp3802
S'SR'
p3803
I0
sS'ST'
p3804
I0
sS'CR'
p3805
I0
sS'CT'
p3806
I15
ssg53
(dp3807
g3803
I0
sg3804
I0
sg3805
I0
sg3806
I0
ssg142
(dp3808
g3803
I0
sg3804
I0
sg3805
I0
sg3806
I15
ssg56
I0
sg58
I0
sg59
I0
sg60
I0
sg61
I1
sg62
I0
sg63
I0
sg64
(S'dummy'
p3809
S'TL'
p3810
S'N8'
p3811
g31
tp3812
sg69
I00
sg70
g36
(g37
g38
Ntp3813
Rp3814
(dp3815
g42
I5
sg43
S'xx'
p3816
sg45
g3801
sbsg75
(dp3817
g3803
I0
sg3804
I6
sg3805
I0
sg3806
I0
ssg81
I00
sg82
(dp3818
g3803
I0
sg3804
I0
sg3805
I0
sg3806
I0
ssg84
(dp3819
g3803
I0
sg3804
I6
sg3805
I0
sg3806
I0
ssg86
I0
sg87
I0
sg88
S'Kulaaq'
p3820
sg90
I4
sg91
I0
sg92
I11
sg93
I365
sg94
S'KAK'
p3821
sg96
(dp3822
S'A'
p3823
I7
sS'ME'
p3824
I9
sS'RP2'
p3825
I6
sS'E'
p3826
I11
sS'TO'
p3827
I10
sS'RP1'
p3828
I15
sS'JP'
p3829
I4
sS'RP_tot'
p3830
I15
sS'P'
p3831
I3
sS'PA'
p3832
I7
sS'M'
p3833
I9
sS'R'
p3834
I12
sS'TB'
p3835
I2
sS'PL'
p3836
I13
sS'TA'
p3837
I7
ssg209
I0
sg210
I0
sg211
I0
sg212
I0
sg57
F11.419354838709678
sg213
I0
sg214
I0
sg215
I0
sg216
I1
sg217
(dp3838
S'A'
p3839
I7
sS'ME'
p3840
I9
sS'RP2'
p3841
I6
sS'E'
p3842
I11
sS'TO'
p3843
I10
sS'RP1'
p3844
I15
sS'JP'
p3845
I4
sS'RP_tot'
p3846
I15
sS'P'
p3847
I3
sS'PA'
p3848
I7
sS'M'
p3849
I9
sS'R'
p3850
I12
sS'TB'
p3851
I2
sS'PL'
p3852
I13
sS'TA'
p3853
I7
ssg234
g3822
sg235
I0
sg236
g31
sg237
I0
sg238
I0
sg239
I0
sg240
I39
sg241
I30
sg242
I1
sg243
S'HL'
p3854
sbssg209
I0
sg210
I0
sg211
I0
sg212
I0
sg142
(dp3855
g77
I0
sg78
I0
sg79
I0
sg80
I0
ssg213
I0
sg324
I0
sg214
I0
sg215
I0
sg216
I1
sg217
(dp3856
g326
I7
sg327
I9
sg328
I6
sg329
I11
sg330
I10
sg331
I15
sg332
I4
sg333
I15
sg334
I3
sg335
I7
sg336
I9
sg337
I12
sg338
I2
sg339
I13
sg340
I7
ssg234
(dp3857
g98
I6
sg99
I9
sg100
I6
sg101
I10
sg106
I8
sg103
I15
sg104
I4
sg105
I15
sg102
I3
sg107
I7
sg108
I8
sg109
I12
sg110
I2
sg111
I13
sg112
I7
ssg235
I0
sg342
(dp3858
sg237
I0
sg236
g31
sg238
I0
sg239
I0
sg240
I39
sg241
I31
sg242
I0
sg243
S'HL'
p3859
sbsS'n7'
p3860
(ijoueur
joueur
p3861
(dp3862
g27
F10.451612903225806
sg28
I0
sg29
F10.225806451612904
sg30
g31
sg32
I0
sg33
I0
sg34
I0
sg35
g36
(g37
g38
Ntp3863
Rp3864
(dp3865
g42
I4
sg43
g517
sg45
g518
sbsg47
(dp3866
g49
I1
sg50
I0
sg51
I5
sg52
I0
ssg53
(dp3867
g49
I0
sg50
I0
sg51
I0
sg52
I0
ssg55
I0
sg56
I0
sg57
F9.67741935483871
sg58
I0
sg59
I0
sg60
I0
sg61
I0
sg62
I0
sg63
I0
sg64
(g65
S'TL'
p3868
S'N8'
p3869
g31
tp3870
sg69
I00
sg70
g36
(g37
g38
Ntp3871
Rp3872
(dp3873
g42
I4
sg43
g517
sg45
g518
sbsg75
(dp3874
g77
I0
sg78
I0
sg79
I0
sg80
I0
ssg81
I00
sg82
(dp3875
g77
I0
sg78
I0
sg79
I0
sg80
I0
ssg84
(dp3876
g49
I1
sg50
I0
sg51
I7
sg52
I18
ssg86
I0
sg87
I0
sg88
S"Naas'Tal"
p3877
sg90
I7
sg91
I0
sg92
I16
sg93
I157
sg94
g95
sg96
(dp3878
g98
I8
sg99
I9
sg100
I7
sg101
I9
sg102
I2
sg103
I9
sg104
I1
sg105
I9
sg106
I9
sg107
I6
sg108
I12
sg109
I10
sg110
I2
sg111
I11
sg112
I8
ssg113
(dp3879
g115
(ijoueur
joueur
p3880
(dp3881
g27
F10.451612903225806
sg28
I0
sg30
g31
sg32
I0
sg34
I0
sg35
g36
(g37
g38
Ntp3882
Rp3883
(dp3884
g42
I4
sg43
g539
sg45
g540
sbsg47
(dp3885
g124
I1
sg125
I0
sg126
I5
sg127
I0
ssg53
(dp3886
g124
I0
sg125
I0
sg126
I0
sg127
I0
ssg56
I0
sg58
I0
sg59
I0
sg60
I0
sg81
I00
sg61
I1
sg62
I0
sg63
I0
sg64
(g129
S'TL'
p3887
S'N8'
p3888
g31
tp3889
sg69
I00
sg70
g36
(g37
g38
Ntp3890
Rp3891
(dp3892
g42
I4
sg43
g539
sg45
g540
sbsg75
(dp3893
g138
I1
sg139
I0
sg140
I2
sg141
I11
ssg142
(dp3894
g138
I1
sg139
I0
sg140
I1
sg141
I0
ssg82
(dp3895
g138
I0
sg139
I0
sg140
I0
sg141
I0
ssg84
(dp3896
g124
I1
sg125
I0
sg126
I7
sg127
I18
ssg86
I0
sg87
I0
sg88
S"Naas'Tal"
p3897
sg90
I7
sg91
I0
sg92
I16
sg93
I157
sg94
g147
sg96
(dp3898
g149
I8
sg150
I9
sg151
I8
sg152
I10
sg153
I9
sg154
I9
sg155
I1
sg156
I10
sg157
I2
sg158
I6
sg159
I12
sg160
I11
sg161
I2
sg162
I11
sg163
I8
ssg113
(dp3899
g165
(ijoueur
joueur
p3900
(dp3901
g28
I0
sg32
I0
sg34
I0
sg35
g36
(g37
g38
Ntp3902
Rp3903
(dp3904
g42
I4
sg43
S'x'
p3905
sg45
S'heros'
p3906
sbsg47
(dp3907
S'SR'
p3908
I0
sS'ST'
p3909
I0
sS'CR'
p3910
I4
sS'CT'
p3911
I0
ssg53
(dp3912
g3908
I0
sg3909
I0
sg3910
I0
sg3911
I0
ssg142
(dp3913
g3908
I0
sg3909
I0
sg3910
I4
sg3911
I0
ssg56
I0
sg58
I0
sg59
I0
sg60
I0
sg61
I0
sg62
I0
sg63
I0
sg64
(S'dummy'
p3914
S'TL'
p3915
S'N8'
p3916
g31
tp3917
sg69
I00
sg70
g36
(g37
g38
Ntp3918
Rp3919
(dp3920
g42
I4
sg43
g3905
sg45
g3906
sbsg75
(dp3921
g3908
I0
sg3909
I0
sg3910
I5
sg3911
I7
ssg81
I00
sg82
(dp3922
g3908
I0
sg3909
I0
sg3910
I0
sg3911
I0
ssg84
(dp3923
g3908
I0
sg3909
I0
sg3910
I5
sg3911
I7
ssg86
I0
sg87
I0
sg88
S"Naas'Tal"
p3924
sg90
I7
sg91
I0
sg92
I16
sg93
I157
sg94
S'KAK'
p3925
sg96
(dp3926
S'A'
p3927
I8
sS'ME'
p3928
I9
sS'RP2'
p3929
I8
sS'E'
p3930
I10
sS'TO'
p3931
I9
sS'RP1'
p3932
I10
sS'JP'
p3933
I1
sS'RP_tot'
p3934
I11
sS'P'
p3935
I2
sS'PA'
p3936
I6
sS'M'
p3937
I12
sS'R'
p3938
I12
sS'TB'
p3939
I2
sS'PL'
p3940
I10
sS'TA'
p3941
I8
ssg209
I0
sg210
I0
sg211
I0
sg212
I0
sg57
F10.451612903225806
sg213
I0
sg214
I0
sg215
I0
sg216
I0
sg217
(dp3942
S'A'
p3943
I8
sS'ME'
p3944
I9
sS'RP2'
p3945
I8
sS'E'
p3946
I10
sS'TO'
p3947
I9
sS'RP1'
p3948
I10
sS'JP'
p3949
I1
sS'RP_tot'
p3950
I11
sS'P'
p3951
I2
sS'PA'
p3952
I6
sS'M'
p3953
I12
sS'R'
p3954
I12
sS'TB'
p3955
I2
sS'PL'
p3956
I10
sS'TA'
p3957
I8
ssg234
g3926
sg235
I0
sg236
S'AL 10'
p3958
sg237
I0
sg238
I0
sg239
I0
sg240
I17
sg241
I2
sg242
I0
sg243
S'HL'
p3959
sbssg209
I0
sg210
I0
sg211
I1
sg212
I0
sg57
F10.225806451612904
sg213
I0
sg214
I0
sg215
I1
sg216
I0
sg217
(dp3960
g246
I8
sg247
I9
sg248
I8
sg249
I10
sg250
I9
sg251
I10
sg252
I1
sg253
I11
sg254
I2
sg255
I6
sg256
I12
sg257
I12
sg258
I2
sg259
I10
sg260
I8
ssg234
g3898
sg235
I0
sg236
S'AL 10'
p3961
sg237
I0
sg238
I0
sg239
I0
sg240
I17
sg241
I3
sg242
I0
sg243
S'HL'
p3962
sbsg262
(ijoueur
joueur
p3963
(dp3964
g28
I0
sg32
I0
sg34
I0
sg35
g36
(g37
g38
Ntp3965
Rp3966
(dp3967
g42
I4
sg43
S'x'
p3968
sg45
S'heros'
p3969
sbsg47
(dp3970
S'SR'
p3971
I0
sS'ST'
p3972
I0
sS'CR'
p3973
I4
sS'CT'
p3974
I0
ssg53
(dp3975
g3971
I0
sg3972
I0
sg3973
I0
sg3974
I0
ssg142
(dp3976
g3971
I0
sg3972
I0
sg3973
I4
sg3974
I0
ssg56
I0
sg58
I0
sg59
I0
sg60
I0
sg61
I0
sg62
I0
sg63
I0
sg64
(S'dummy'
p3977
S'TL'
p3978
S'N8'
p3979
g31
tp3980
sg69
I00
sg70
g36
(g37
g38
Ntp3981
Rp3982
(dp3983
g42
I4
sg43
g3968
sg45
g3969
sbsg75
(dp3984
g3971
I0
sg3972
I0
sg3973
I5
sg3974
I7
ssg81
I00
sg82
(dp3985
g3971
I0
sg3972
I0
sg3973
I0
sg3974
I0
ssg84
(dp3986
g3971
I0
sg3972
I0
sg3973
I5
sg3974
I7
ssg86
I0
sg87
I0
sg88
S"Naas'Tal"
p3987
sg90
I7
sg91
I0
sg92
I16
sg93
I157
sg94
S'KAK'
p3988
sg96
(dp3989
S'A'
p3990
I8
sS'ME'
p3991
I9
sS'RP2'
p3992
I8
sS'E'
p3993
I10
sS'TO'
p3994
I9
sS'RP1'
p3995
I10
sS'JP'
p3996
I1
sS'RP_tot'
p3997
I11
sS'P'
p3998
I2
sS'PA'
p3999
I6
sS'M'
p4000
I12
sS'R'
p4001
I12
sS'TB'
p4002
I2
sS'PL'
p4003
I10
sS'TA'
p4004
I8
ssg209
I0
sg210
I0
sg211
I0
sg212
I0
sg57
F10.451612903225806
sg213
I0
sg214
I0
sg215
I0
sg216
I0
sg217
(dp4005
S'A'
p4006
I8
sS'ME'
p4007
I9
sS'RP2'
p4008
I8
sS'E'
p4009
I10
sS'TO'
p4010
I9
sS'RP1'
p4011
I10
sS'JP'
p4012
I1
sS'RP_tot'
p4013
I11
sS'P'
p4014
I2
sS'PA'
p4015
I6
sS'M'
p4016
I12
sS'R'
p4017
I12
sS'TB'
p4018
I2
sS'PL'
p4019
I10
sS'TA'
p4020
I8
ssg234
g3989
sg235
I0
sg236
S'AL 10'
p4021
sg237
I0
sg238
I0
sg239
I0
sg240
I17
sg241
I2
sg242
I0
sg243
S'HL'
p4022
sbssg209
I0
sg210
I0
sg211
I1
sg212
I0
sg142
(dp4023
g77
I0
sg78
I0
sg79
I0
sg80
I0
ssg213
I0
sg324
I0
sg214
I0
sg215
I0
sg216
I0
sg217
(dp4024
g326
I8
sg327
I9
sg328
I8
sg329
I10
sg330
I9
sg331
I10
sg332
I1
sg333
I11
sg334
I2
sg335
I6
sg336
I12
sg337
I12
sg338
I2
sg339
I10
sg340
I8
ssg234
(dp4025
g98
I8
sg99
I9
sg100
I7
sg101
I9
sg106
I9
sg103
I9
sg104
I1
sg105
I9
sg102
I2
sg107
I6
sg108
I12
sg109
I10
sg110
I2
sg111
I11
sg112
I8
ssg235
I0
sg342
(dp4026
sg237
I0
sg236
S'AL 10'
p4027
sg238
I0
sg239
I0
sg240
I17
sg241
I3
sg242
I0
sg243
S'HL'
p4028
sbssS'remplacements'
p4029
(dp4030
g3351
S'n0'
p4031
sg2406
g4031
sg2579
g4031
sg3105
g4031
sg3064
g4031
sg3065
g4031
sg3270
g4031
ssb.