(iclub
compo
p0
(dp1
S'caracs_old'
p2
(dp3
S'A'
p4
F199.0
sS'ME'
p5
F95.5
sS'E'
p6
I226
sS'OplusAV'
p7
F48.5
sS'TO_off'
p8
F133.5
sS'OplusAR'
p9
F93.0
sS'M'
p10
F53.0
sS'JP'
p11
F120.5
sS'OmoinsAR'
p12
F96.5
sS'PA'
p13
F113.5
sS'TO_def'
p14
F126.0
sS'OmoinsAV'
p15
F83.5
sS'R'
p16
F159.0
ssS'totaux_old'
p17
(dp18
S'T2'
p19
F216.5
sS'T3'
p20
F113.0
sS'T1'
p21
F192.125
ssS'roles'
p22
(dp23
S'drop1'
p24
(ijoueur
joueur
p25
(dp26
S'rouges_total'
p27
I0
sS'drops_total'
p28
I6
sS'blessure'
p29
I0
sS'RG_max'
p30
(ijoueur
rang
p31
(dp32
S'type_nb'
p33
I4
sS'rang'
p34
S'*'
p35
sS'type'
p36
S'heros'
p37
sbsS'MJ2_total'
p38
(dp39
S'SR'
p40
I0
sS'CT'
p41
I1
sS'CR'
p42
I0
sS'ST'
p43
I0
ssS'MJ3_total'
p44
(dp45
g40
I0
sg41
I0
sg42
I0
sg43
I0
ssS'anciens_clubs'
p46
S''
p47
sS'drop_rates_saison'
p48
I0
sS'essais_saison'
p49
I1
sS'penalite_ratees_saison'
p50
I1
sS'transformations_saison'
p51
I14
sS'postes'
p52
(S'dummy'
p53
S'C1'
p54
S'DO'
p55
g47
tp56
sS'RG'
p57
(ijoueur
rang
p58
(dp59
g33
I4
sg34
S'*'
p60
sg36
g37
sbsS'MJ1'
p61
(dp62
g40
I0
sg41
I10
sg42
I0
sg43
I0
ssS'MJ2'
p63
(dp64
g40
I0
sg41
I1
sg42
I0
sg43
I0
ssS'MJ3'
p65
(dp66
g40
I0
sg41
I0
sg42
I0
sg43
I0
ssS'MJ1_total'
p67
(dp68
g40
I0
sg41
I10
sg42
I0
sg43
I0
ssS'penalites_total'
p69
I19
sS'penalites_saison'
p70
I18
sS'nom'
p71
S'Jtaren'
p72
sS'C'
p73
I8
sS'transformations_total'
p74
I15
sS'D'
p75
I17
sS'VAL'
p76
I70
sS'club'
p77
S'AL'
p78
sS'caracs'
p79
(dp80
S'A'
p81
I11
sS'ME'
p82
I6
sS'RP2'
p83
I9
sS'E'
p84
I10
sS'P'
p85
I9
sS'RP1'
p86
I8
sS'JP'
p87
I14
sS'RP_tot'
p88
I10
sS'TO'
p89
I8
sS'PA'
p90
I12
sS'M'
p91
I10
sS'R'
p92
I4
sS'TB'
p93
I11
sS'PL'
p94
I12
sS'TA'
p95
I4
ssS'caracs_sans_fatigue'
p96
g80
sS'fatigue'
p97
I5
sS'drop_ratees_total'
p98
I1
sS'blessures_total'
p99
I0
sS'XP'
p100
I0
sS'EV'
p101
F10.5625
sS'penalite_ratees_total'
p102
I1
sS'pas_meme_type'
p103
(lp104
S'EV'
p105
asS'blessures_saison'
p106
I0
sS'jaunes_total'
p107
I0
sS'attribute_error'
p108
(lp109
sS'rouges_saison'
p110
I0
sS'transformation_ratees_total'
p111
I2
sS'drops_saison'
p112
I0
sS'transformation_ratees_saison'
p113
I2
sS'MS'
p114
I7
sS'essais_total'
p115
I3
sS'jaunes_saison'
p116
I0
sS'ARM'
p117
S'ES'
p118
sbsS'SA_scd'
p119
(ijoueur
joueur
p120
(dp121
g27
I0
sg28
I0
sg29
I0
sg30
(ijoueur
rang
p122
(dp123
g33
I4
sg34
S'*'
p124
sg36
g37
sbsg38
(dp125
g40
I0
sg41
I0
sg42
I0
sg43
I0
ssg44
(dp126
g40
I0
sg41
I0
sg42
I0
sg43
I0
ssg46
g47
sg48
I0
sg49
I0
sg50
I0
sg51
I0
sg52
(g53
S'DL'
p127
g47
g47
tp128
sg57
(ijoueur
rang
p129
(dp130
g33
I4
sg34
S'*'
p131
sg36
g37
sbsg61
(dp132
g40
I0
sg41
I12
sg42
I0
sg43
I0
ssg63
(dp133
g40
I0
sg41
I0
sg42
I0
sg43
I0
ssg65
(dp134
g40
I0
sg41
I0
sg42
I0
sg43
I0
ssg67
(dp135
g40
I0
sg41
I12
sg42
I0
sg43
I0
ssg69
I0
sg70
I0
sg71
S'Offendal'
p136
sg73
I4
sg74
I0
sg75
I16
sg76
I70
sg77
g78
sg79
(dp137
g81
I10
sg82
I9
sg83
I8
sg84
I10
sg85
I7
sg86
I8
sg87
I7
sg88
I9
sg89
I13
sg90
I10
sg91
I11
sg92
I7
sg93
I8
sg94
I10
sg95
I5
ssg96
g137
sg97
I5
sg98
I0
sg99
I0
sg100
I0
sg101
F9.794117647058824
sg102
I0
sg103
(lp138
g105
asg106
I0
sg107
I0
sg108
(lp139
sg110
I0
sg111
I0
sg112
I0
sg113
I0
sg114
I7
sg115
I0
sg116
I0
sg117
S'ES'
p140
sbsS'RJL'
p141
(ijoueur
joueur
p142
(dp143
g27
I0
sg28
I1
sg29
I0
sg30
(ijoueur
rang
p144
(dp145
g33
I5
sg34
S'**'
p146
sg36
S'seigneur'
p147
sbsg38
(dp148
g40
I0
sg41
I0
sg42
I0
sg43
I0
ssg44
(dp149
g40
I0
sg41
I0
sg42
I0
sg43
I0
ssg46
g47
sg48
I0
sg49
I1
sg50
I3
sg51
I3
sg52
(g53
S'DM'
p150
S'DO'
p151
g47
tp152
sg57
(ijoueur
rang
p153
(dp154
g33
I5
sg34
S'**'
p155
sg36
g147
sbsg61
(dp156
g40
I0
sg41
I12
sg42
I0
sg43
I0
ssg63
(dp157
g40
I0
sg41
I0
sg42
I0
sg43
I0
ssg65
(dp158
g40
I0
sg41
I0
sg42
I0
sg43
I0
ssg67
(dp159
g40
I0
sg41
I12
sg42
I0
sg43
I0
ssg69
I112
sg70
I11
sg71
S'Zumaen'
p160
sg73
I3
sg74
I29
sg75
I13
sg76
I135
sg77
g78
sg79
(dp161
g81
I13
sg82
I4
sg83
I9
sg84
I13
sg85
I15
sg86
I7
sg87
I12
sg88
I9
sg89
I9
sg90
I14
sg91
I8
sg92
I7
sg93
I10
sg94
I12
sg95
I4
ssg96
g161
sg97
I1
sg98
I0
sg99
I0
sg100
I0
sg101
F12.068965517241379
sg102
I3
sg103
(lp162
g105
asg106
I0
sg107
I0
sg108
(lp163
sg110
I0
sg111
I1
sg112
I0
sg113
I1
sg114
I14
sg115
I4
sg116
I0
sg117
S'ES'
p164
sbsS'cap'
p165
(ijoueur
joueur
p166
(dp167
g27
I0
sg28
I0
sg29
I0
sg30
(ijoueur
rang
p168
(dp169
g33
I4
sg34
S'*'
p170
sg36
S'heros'
p171
sbsg38
(dp172
S'SR'
p173
I0
sS'ST'
p174
I0
sS'CR'
p175
I0
sS'CT'
p176
I7
ssg44
(dp177
g173
I0
sg174
I0
sg175
I0
sg176
I0
ssg46
g47
sg48
I0
sg49
I0
sg50
I0
sg51
I0
sg52
(g53
S'PI'
p178
S'TA'
p179
g47
tp180
sg57
(ijoueur
rang
p181
(dp182
g33
I4
sg34
S'*'
p183
sg36
g171
sbsg61
(dp184
g173
I0
sg174
I0
sg175
I0
sg176
I3
ssg63
(dp185
g173
I0
sg174
I0
sg175
I0
sg176
I7
ssg65
(dp186
g173
I0
sg174
I0
sg175
I0
sg176
I0
ssg67
(dp187
g173
I0
sg174
I0
sg175
I0
sg176
I3
ssg69
I0
sg70
I0
sg71
S'Itanel'
p188
sg73
I7
sg74
I0
sg75
I19
sg76
I70
sg77
g78
sg79
(dp189
S'A'
p190
I12
sS'ME'
p191
I10
sS'RP2'
p192
I7
sS'E'
p193
I14
sS'TO'
p194
I10
sS'RP1'
p195
I9
sS'JP'
p196
I10
sS'RP_tot'
p197
I9
sS'P'
p198
I10
sS'PA'
p199
I11
sS'M'
p200
I8
sS'R'
p201
I7
sS'TB'
p202
I6
sS'PL'
p203
I13
sS'TA'
p204
I10
ssg96
g189
sg97
I0
sg98
I0
sg99
I1
sg100
I0
sg101
F10.333333333333334
sg102
I0
sg103
(lp205
g105
asg106
I1
sg107
I0
sg108
(lp206
sg110
I0
sg111
I0
sg112
I0
sg113
I0
sg114
I7
sg115
I1
sg116
I0
sg117
S'ES'
p207
sbsS'B4'
p208
g142
sS'RJC'
p209
g25
sS'B1'
p210
g25
sS'B2'
p211
g25
sS'B3'
p212
g142
sS'SA_pcp2'
p213
(ijoueur
joueur
p214
(dp215
g27
I0
sg28
I0
sg29
I0
sg30
(ijoueur
rang
p216
(dp217
g33
I5
sg34
S'**'
p218
sg36
g147
sbsg38
(dp219
g40
I0
sg41
I0
sg42
I0
sg43
I0
ssg44
(dp220
g40
I0
sg41
I0
sg42
I0
sg43
I0
ssg46
g47
sg48
I0
sg49
I2
sg50
I0
sg51
I0
sg52
(g53
S'N8'
p221
S'DL'
p222
g47
tp223
sg57
(ijoueur
rang
p224
(dp225
g33
I5
sg34
S'**'
p226
sg36
g147
sbsg61
(dp227
g40
I0
sg41
I11
sg42
I0
sg43
I0
ssg63
(dp228
g40
I0
sg41
I0
sg42
I0
sg43
I0
ssg65
(dp229
g40
I0
sg41
I0
sg42
I0
sg43
I0
ssg67
(dp230
g40
I0
sg41
I11
sg42
I0
sg43
I0
ssg69
I0
sg70
I0
sg71
S'Faross'
p231
sg73
I8
sg74
I0
sg75
I21
sg76
I135
sg77
g78
sg79
(dp232
g81
I13
sg82
I10
sg83
I7
sg84
I11
sg85
I9
sg86
I7
sg87
I8
sg88
I7
sg89
I13
sg90
I13
sg91
I8
sg92
I9
sg93
I7
sg94
I13
sg95
I6
ssg96
g232
sg97
I1
sg98
I0
sg99
I1
sg100
I0
sg101
F10.777777777777779
sg102
I0
sg103
(lp233
g105
asg106
I1
sg107
I1
sg108
(lp234
sg110
I0
sg111
I0
sg112
I0
sg113
I0
sg114
I14
sg115
I2
sg116
I1
sg117
S'ES'
p235
sbsS'SA_pcp1'
p236
(ijoueur
joueur
p237
(dp238
g27
I0
sg28
I0
sg29
I0
sg30
(ijoueur
rang
p239
(dp240
g33
I4
sg34
S'*'
p241
sg36
g37
sbsg38
(dp242
g40
I0
sg41
I0
sg42
I0
sg43
I0
ssg44
(dp243
g40
I0
sg41
I0
sg42
I0
sg43
I0
ssg46
g47
sg48
I0
sg49
I3
sg50
I0
sg51
I0
sg52
(g53
S'TL'
p244
g47
g47
tp245
sg57
(ijoueur
rang
p246
(dp247
g33
I4
sg34
S'*'
p248
sg36
g37
sbsg61
(dp249
g40
I0
sg41
I12
sg42
I0
sg43
I0
ssg63
(dp250
g40
I0
sg41
I0
sg42
I0
sg43
I0
ssg65
(dp251
g40
I0
sg41
I0
sg42
I0
sg43
I0
ssg67
(dp252
g40
I0
sg41
I12
sg42
I0
sg43
I0
ssg69
I0
sg70
I0
sg71
S'Qaia'
p253
sg73
I8
sg74
I0
sg75
I20
sg76
I70
sg77
g78
sg79
(dp254
g81
I14
sg82
I8
sg83
I10
sg84
I10
sg85
I7
sg86
I8
sg87
I7
sg88
I11
sg89
I14
sg90
I11
sg91
I11
sg92
I12
sg93
I9
sg94
I13
sg95
I6
ssg96
g254
sg97
I5
sg98
I0
sg99
I0
sg100
I0
sg101
F12.078947368421053
sg102
I0
sg103
(lp255
g105
asg106
I0
sg107
I1
sg108
(lp256
sg110
I0
sg111
I0
sg112
I0
sg113
I0
sg114
I7
sg115
I4
sg116
I1
sg117
S'ES'
p257
sbsS'drop3'
p258
(ijoueur
joueur
p259
(dp260
g27
I1
sg28
I10
sg29
I0
sg30
(ijoueur
rang
p261
(dp262
g33
I4
sg34
S'*'
p263
sg36
g37
sbsg38
(dp264
g40
I0
sg41
I0
sg42
I0
sg43
I0
ssg44
(dp265
g40
I0
sg41
I0
sg42
I0
sg43
I0
ssg46
g47
sg48
I1
sg49
I0
sg50
I0
sg51
I0
sg52
(g53
S'DO'
p266
g47
g47
tp267
sg57
(ijoueur
rang
p268
(dp269
g33
I4
sg34
S'*'
p270
sg36
g37
sbsg61
(dp271
g40
I0
sg41
I12
sg42
I0
sg43
I0
ssg63
(dp272
g40
I0
sg41
I0
sg42
I0
sg43
I0
ssg65
(dp273
g40
I0
sg41
I0
sg42
I0
sg43
I0
ssg67
(dp274
g40
I0
sg41
I12
sg42
I0
sg43
I0
ssg69
I0
sg70
I0
sg71
S'Tladol'
p275
sg73
I4
sg74
I0
sg75
I14
sg76
I70
sg77
g78
sg79
(dp276
g81
I12
sg82
I2
sg83
I10
sg84
I11
sg85
I11
sg86
I7
sg87
I13
sg88
I10
sg89
I7
sg90
I11
sg91
I9
sg92
I6
sg93
I8
sg94
I11
sg95
I5
ssg96
g276
sg97
I3
sg98
I1
sg99
I0
sg100
I0
sg101
F10.969696969696969
sg102
I0
sg103
(lp277
g105
asg106
I0
sg107
I1
sg108
(lp278
sg110
I1
sg111
I0
sg112
I1
sg113
I0
sg114
I7
sg115
I2
sg116
I1
sg117
S'ES'
p279
sbsS'SA_remp1'
p280
(ijoueur
joueur
p281
(dp282
g27
I0
sg28
I0
sg29
I0
sg30
(ijoueur
rang
p283
(dp284
g33
I4
sg34
S'*'
p285
sg36
g37
sbsg38
(dp286
g40
I0
sg41
I11
sg42
I0
sg43
I0
ssg44
(dp287
g40
I0
sg41
I0
sg42
I0
sg43
I0
ssg46
g47
sg48
I0
sg49
I0
sg50
I0
sg51
I0
sg52
(g53
S'TL'
p288
S'DL'
p289
g47
tp290
sg57
(ijoueur
rang
p291
(dp292
g33
I4
sg34
S'*'
p293
sg36
g37
sbsg61
(dp294
g40
I0
sg41
I0
sg42
I1
sg43
I0
ssg63
(dp295
g40
I0
sg41
I11
sg42
I0
sg43
I0
ssg65
(dp296
g40
I0
sg41
I0
sg42
I0
sg43
I0
ssg67
(dp297
g40
I0
sg41
I0
sg42
I1
sg43
I0
ssg69
I0
sg70
I0
sg71
S'Yssendil'
p298
sg73
I8
sg74
I0
sg75
I20
sg76
I70
sg77
g78
sg79
(dp299
g81
I12
sg82
I9
sg83
I7
sg84
I11
sg85
I9
sg86
I9
sg87
I7
sg88
I9
sg89
I13
sg90
I11
sg91
I8
sg92
I8
sg93
I6
sg94
I12
sg95
I5
ssg96
g299
sg97
I11
sg98
I0
sg99
I0
sg100
I0
sg101
F10.421052631578947
sg102
I0
sg103
(lp300
g105
asg106
I0
sg107
I0
sg108
(lp301
sg110
I0
sg111
I0
sg112
I0
sg113
I0
sg114
I7
sg115
I0
sg116
I0
sg117
S'ES'
p302
sbsS'drop2'
p303
g142
sS'SA_remp2'
p304
(ijoueur
joueur
p305
(dp306
g27
I0
sg28
I0
sg29
I0
sg30
(ijoueur
rang
p307
(dp308
g33
I2
sg34
S'^^'
p309
sg36
S'special'
p310
sbsg38
(dp311
g40
I0
sg41
I0
sg42
I0
sg43
I0
ssg44
(dp312
g40
I0
sg41
I0
sg42
I0
sg43
I0
ssg46
g47
sg48
I0
sg49
I0
sg50
I0
sg51
I0
sg52
(g53
S'DL'
p313
g47
g47
tp314
sg57
(ijoueur
rang
p315
(dp316
g33
I2
sg34
S'^^'
p317
sg36
g310
sbsg61
(dp318
g40
I0
sg41
I7
sg42
I5
sg43
I0
ssg63
(dp319
g40
I0
sg41
I0
sg42
I0
sg43
I0
ssg65
(dp320
g40
I0
sg41
I0
sg42
I0
sg43
I0
ssg67
(dp321
g40
I0
sg41
I7
sg42
I5
sg43
I0
ssg69
I0
sg70
I0
sg71
S'Guiyohar'
p322
sg73
I7
sg74
I0
sg75
I17
sg76
I15
sg77
g78
sg79
(dp323
g81
I11
sg82
I6
sg83
I6
sg84
I9
sg85
I4
sg86
I8
sg87
I5
sg88
I8
sg89
I12
sg90
I9
sg91
I8
sg92
I7
sg93
I6
sg94
I9
sg95
I3
ssg96
g323
sg97
I5
sg98
I0
sg99
I0
sg100
I0
sg101
F8.823529411764707
sg102
I0
sg103
(lp324
g105
asg106
I0
sg107
I0
sg108
(lp325
sg110
I0
sg111
I0
sg112
I0
sg113
I0
sg114
I2
sg115
I0
sg116
I0
sg117
S'ES'
p326
sbssS'totaux'
p327
(dp328
g19
I0
sg20
I0
sg21
I0
ssS'_compo_defaut_fatigue'
p329
Nsg79
(dp330
g4
I0
sg5
I0
sg6
I0
sg7
I0
sg8
I0
sg9
I0
sg10
I0
sg11
I0
sg12
I0
sg13
I0
sg14
I0
sg15
I0
sg16
I0
ssS'joueurs'
p331
(dp332
S'n12'
p333
g25
sS'n13'
p334
(ijoueur
joueur
p335
(dp336
g27
I0
sg28
I0
sg29
I0
sg30
(ijoueur
rang
p337
(dp338
g33
I6
sg34
S'***'
p339
sg36
S'personnage'
p340
sbsg38
(dp341
g40
I0
sg41
I0
sg42
I0
sg43
I0
ssg44
(dp342
g40
I0
sg41
I7
sg42
I0
sg43
I0
ssg46
S'FS 9'
p343
sg48
I0
sg49
I1
sg50
I0
sg51
I0
sg52
(g53
S'AI'
p344
S'AR'
p345
S'CE'
p346
tp347
sg57
(ijoueur
rang
p348
(dp349
g33
I6
sg34
S'***'
p350
sg36
g340
sbsg61
(dp351
g40
I0
sg41
I5
sg42
I0
sg43
I0
ssg63
(dp352
g40
I0
sg41
I0
sg42
I0
sg43
I0
ssg65
(dp353
g40
I0
sg41
I7
sg42
I0
sg43
I0
ssg67
(dp354
g40
I0
sg41
I5
sg42
I0
sg43
I0
ssg69
I0
sg70
I0
sg71
S'De Sinople'
p355
sg73
I0
sg74
I0
sg75
I13
sg76
I418
sg77
g78
sg79
(dp356
g81
I13
sg82
I4
sg83
I13
sg84
I11
sg85
I8
sg86
I9
sg87
I5
sg88
I15
sg89
I6
sg90
I10
sg91
I9
sg92
I7
sg93
I6
sg94
I13
sg95
I6
ssg96
g356
sg97
I3
sg98
I0
sg99
I0
sg100
I0
sg101
F11.580645161290322
sg102
I0
sg103
(lp357
g105
asg106
I0
sg107
I0
sg108
(lp358
sg110
I0
sg111
I0
sg112
I0
sg113
I0
sg114
I62
sg115
I21
sg116
I0
sg117
S'B'
p359
sbsS'n10'
p360
g259
sS'n11'
p361
(ijoueur
joueur
p362
(dp363
g27
I0
sg28
I0
sg29
I0
sg30
(ijoueur
rang
p364
(dp365
g33
I4
sg34
S'*'
p366
sg36
g37
sbsg38
(dp367
g40
I0
sg41
I1
sg42
I0
sg43
I0
ssg44
(dp368
g40
I0
sg41
I0
sg42
I0
sg43
I0
ssg46
g47
sg48
I0
sg49
I1
sg50
I1
sg51
I1
sg52
(g53
S'AI'
p369
S'AR'
p370
g47
tp371
sg57
(ijoueur
rang
p372
(dp373
g33
I4
sg34
S'*'
p374
sg36
g37
sbsg61
(dp375
g40
I0
sg41
I12
sg42
I0
sg43
I0
ssg63
(dp376
g40
I0
sg41
I1
sg42
I0
sg43
I0
ssg65
(dp377
g40
I0
sg41
I0
sg42
I0
sg43
I0
ssg67
(dp378
g40
I0
sg41
I12
sg42
I0
sg43
I0
ssg69
I7
sg70
I6
sg71
S'Ilemen'
p379
sg73
I9
sg74
I1
sg75
I24
sg76
I23
sg77
g78
sg79
(dp380
g81
I15
sg82
I2
sg83
I10
sg84
I11
sg85
I11
sg86
I8
sg87
I9
sg88
I11
sg89
I7
sg90
I12
sg91
I10
sg92
I7
sg93
I9
sg94
I13
sg95
I3
ssg96
g380
sg97
I10
sg98
I0
sg99
I0
sg100
I0
sg101
F11.774193548387096
sg102
I1
sg103
(lp381
g105
asg106
I0
sg107
I1
sg108
(lp382
sg110
I0
sg111
I0
sg112
I0
sg113
I0
sg114
I4
sg115
I2
sg116
I1
sg117
S'ES'
p383
sbsS'n16'
p384
(ijoueur
joueur
p385
(dp386
g27
I0
sg28
I0
sg29
I0
sg30
(ijoueur
rang
p387
(dp388
g33
I2
sg34
S'<<'
p389
sg36
S'special'
p390
sbsg38
(dp391
g173
I0
sg174
I0
sg175
I3
sg176
I0
ssg44
(dp392
g173
I0
sg174
I0
sg175
I0
sg176
I0
ssg46
g47
sg48
I0
sg49
I0
sg50
I0
sg51
I0
sg52
(g53
S'TA'
p393
S'PI'
p394
g47
tp395
sg57
(ijoueur
rang
p396
(dp397
g33
I2
sg34
S'<<'
p398
sg36
g390
sbsg61
(dp399
g173
I0
sg174
I0
sg175
I10
sg176
I1
ssg63
(dp400
g173
I0
sg174
I0
sg175
I3
sg176
I0
ssg65
(dp401
g173
I0
sg174
I0
sg175
I0
sg176
I0
ssg67
(dp402
g173
I0
sg174
I0
sg175
I10
sg176
I1
ssg69
I0
sg70
I0
sg71
S'Hegard'
p403
sg73
I5
sg74
I0
sg75
I16
sg76
I28
sg77
g78
sg79
(dp404
g190
I6
sg191
I11
sg192
I6
sg193
I7
sg194
I5
sg195
I8
sg196
I2
sg197
I8
sg198
I3
sg199
I6
sg200
I8
sg201
I10
sg202
I3
sg203
I8
sg204
I10
ssg96
g404
sg97
I1
sg98
I0
sg99
I0
sg100
I0
sg101
F8.655172413793103
sg102
I0
sg103
(lp405
g105
asg106
I0
sg107
I0
sg108
(lp406
sg110
I0
sg111
I0
sg112
I0
sg113
I0
sg114
I3
sg115
I0
sg116
I0
sg117
S'B'
p407
sbsS'n17'
p408
(ijoueur
joueur
p409
(dp410
g27
I0
sg28
I0
sg29
I0
sg30
(ijoueur
rang
p411
(dp412
g33
I5
sg34
S'**'
p413
sg36
g147
sbsg38
(dp414
g40
I0
sg41
I3
sg42
I6
sg43
I0
ssg44
(dp415
g40
I0
sg41
I0
sg42
I0
sg43
I0
ssg46
g47
sg48
I0
sg49
I0
sg50
I0
sg51
I0
sg52
(g53
S'DL'
p416
S'PI'
p417
g47
tp418
sg57
(ijoueur
rang
p419
(dp420
g33
I1
sg34
S'^'
p421
sg36
S'base'
p422
sbsg61
(dp423
g40
I0
sg41
I0
sg42
I4
sg43
I0
ssg63
(dp424
g40
I0
sg41
I3
sg42
I6
sg43
I0
ssg65
(dp425
g40
I0
sg41
I0
sg42
I0
sg43
I0
ssg67
(dp426
g40
I0
sg41
I0
sg42
I4
sg43
I0
ssg69
I0
sg70
I0
sg71
S'Jenhair'
p427
sg73
I11
sg74
I0
sg75
I27
sg76
I42
sg77
g78
sg79
(dp428
g81
I8
sg82
I10
sg83
I6
sg84
I10
sg85
I5
sg86
I8
sg87
I3
sg88
I8
sg89
I11
sg90
I9
sg91
I9
sg92
I7
sg93
I5
sg94
I7
sg95
I5
ssg96
g428
sg97
I0
sg98
I0
sg99
I0
sg100
I0
sg101
F8.823529411764707
sg102
I0
sg103
(lp429
g105
asg106
I0
sg107
I0
sg108
(lp430
sg110
I0
sg111
I0
sg112
I0
sg113
I0
sg114
I3
sg115
I0
sg116
I0
sg117
S'ES'
p431
sbsS'n14'
p432
(ijoueur
joueur
p433
(dp434
g27
I0
sg28
I0
sg29
I0
sg30
(ijoueur
rang
p435
(dp436
g33
I6
sg34
S'***'
p437
sg36
g340
sbsg38
(dp438
g40
I0
sg41
I6
sg42
I1
sg43
I0
ssg44
(dp439
g40
I0
sg41
I0
sg42
I0
sg43
I0
ssg46
g47
sg48
I0
sg49
I1
sg50
I0
sg51
I0
sg52
(g53
S'C2'
p440
S'AI'
p441
g47
tp442
sg57
(ijoueur
rang
p443
(dp444
g33
I6
sg34
S'***'
p445
sg36
g340
sbsg61
(dp446
g40
I0
sg41
I5
sg42
I0
sg43
I0
ssg63
(dp447
g40
I0
sg41
I6
sg42
I1
sg43
I0
ssg65
(dp448
g40
I0
sg41
I0
sg42
I0
sg43
I0
ssg67
(dp449
g40
I0
sg41
I5
sg42
I0
sg43
I0
ssg69
I0
sg70
I0
sg71
S'Golfag'
p450
sg73
I11
sg74
I0
sg75
I22
sg76
I700
sg77
g78
sg79
(dp451
g81
I10
sg82
I6
sg83
I9
sg84
I10
sg85
I9
sg86
I10
sg87
I8
sg88
I12
sg89
I4
sg90
I8
sg91
I11
sg92
I6
sg93
I7
sg94
I11
sg95
I6
ssg96
g451
sg97
I4
sg98
I0
sg99
I0
sg100
I0
sg101
F9.96551724137931
sg102
I0
sg103
(lp452
g105
asg106
I0
sg107
I1
sg108
(lp453
sg110
I0
sg111
I0
sg112
I0
sg113
I0
sg114
I58
sg115
I1
sg116
I1
sg117
S'OG'
p454
sbsS'n15'
p455
(ijoueur
joueur
p456
(dp457
g27
I0
sg28
I2
sg29
I0
sg30
(ijoueur
rang
p458
(dp459
g33
I5
sg34
S'xx'
p460
sg36
g147
sbsg38
(dp461
g40
I0
sg41
I0
sg42
I0
sg43
I0
ssg44
(dp462
g40
I0
sg41
I0
sg42
I0
sg43
I0
ssg46
S'TO 8;FS 10'
p463
sg48
I0
sg49
I0
sg50
I0
sg51
I0
sg52
(g53
S'AR'
p464
S'DO'
p465
g47
tp466
sg57
(ijoueur
rang
p467
(dp468
g33
I5
sg34
S'xx'
p469
sg36
g147
sbsg61
(dp470
g40
I0
sg41
I11
sg42
I0
sg43
I0
ssg63
(dp471
g40
I0
sg41
I0
sg42
I0
sg43
I0
ssg65
(dp472
g40
I0
sg41
I0
sg42
I0
sg43
I0
ssg67
(dp473
g40
I0
sg41
I11
sg42
I0
sg43
I0
ssg69
I3
sg70
I0
sg71
S'Aadeel'
p474
sg73
I2
sg74
I6
sg75
I13
sg76
I754
sg77
g78
sg79
(dp475
g81
I10
sg82
I4
sg83
I10
sg84
I10
sg85
I8
sg86
I13
sg87
I10
sg88
I16
sg89
I4
sg90
I6
sg91
I8
sg92
I10
sg93
I7
sg94
I14
sg95
I5
ssg96
g475
sg97
I2
sg98
I0
sg99
I0
sg100
I0
sg101
F10.909090909090908
sg102
I0
sg103
(lp476
g105
asg106
I0
sg107
I0
sg108
(lp477
sg110
I0
sg111
I0
sg112
I0
sg113
I0
sg114
I125
sg115
I19
sg116
I0
sg117
S'HL'
p478
sbsS'n18'
p479
g305
sS'n19'
p480
(ijoueur
joueur
p481
(dp482
g27
I0
sg28
I0
sg29
I0
sg30
(ijoueur
rang
p483
(dp484
g33
I5
sg34
S'xx'
p485
sg36
g147
sbsg38
(dp486
g40
I0
sg41
I1
sg42
I2
sg43
I0
ssg44
(dp487
g40
I0
sg41
I0
sg42
I0
sg43
I0
ssg46
g47
sg48
I0
sg49
I2
sg50
I0
sg51
I0
sg52
(g53
S'N8'
p488
S'TL'
p489
g47
tp490
sg57
(ijoueur
rang
p491
(dp492
g33
I5
sg34
S'xx'
p493
sg36
g147
sbsg61
(dp494
g40
I0
sg41
I4
sg42
I3
sg43
I0
ssg63
(dp495
g40
I0
sg41
I1
sg42
I2
sg43
I0
ssg65
(dp496
g40
I0
sg41
I0
sg42
I0
sg43
I0
ssg67
(dp497
g40
I0
sg41
I4
sg42
I3
sg43
I0
ssg69
I0
sg70
I0
sg71
S'Quank'
p498
sg73
I8
sg74
I0
sg75
I19
sg76
I140
sg77
g78
sg79
(dp499
g81
I9
sg82
I8
sg83
I7
sg84
I9
sg85
I5
sg86
I9
sg87
I5
sg88
I9
sg89
I10
sg90
I9
sg91
I8
sg92
I11
sg93
I4
sg94
I10
sg95
I5
ssg96
g499
sg97
I6
sg98
I0
sg99
I2
sg100
I0
sg101
F9.61111111111111
sg102
I0
sg103
(lp500
g105
asg106
I2
sg107
I0
sg108
(lp501
sg110
I0
sg111
I0
sg112
I0
sg113
I0
sg114
I14
sg115
I4
sg116
I0
sg117
S'N'
p502
sbsS'n22'
p503
(ijoueur
joueur
p504
(dp505
g27
I0
sg28
I0
sg29
I0
sg30
(ijoueur
rang
p506
(dp507
g33
I2
sg34
S'^^'
p508
sg36
g310
sbsg38
(dp509
g40
I0
sg41
I3
sg42
I5
sg43
I0
ssg44
(dp510
g40
I0
sg41
I0
sg42
I0
sg43
I0
ssg46
S'FS 11'
p511
sg48
I0
sg49
I1
sg50
I0
sg51
I0
sg52
(g53
S'C1'
p512
S'AI'
p513
g47
tp514
sg57
(ijoueur
rang
p515
(dp516
g33
I2
sg34
S'^^'
p517
sg36
g310
sbsg61
(dp518
g40
I0
sg41
I2
sg42
I2
sg43
I0
ssg63
(dp519
g40
I0
sg41
I3
sg42
I5
sg43
I0
ssg65
(dp520
g40
I0
sg41
I0
sg42
I0
sg43
I0
ssg67
(dp521
g40
I0
sg41
I2
sg42
I2
sg43
I0
ssg69
I0
sg70
I0
sg71
S'Nanael'
p522
sg73
I8
sg74
I0
sg75
I18
sg76
I77
sg77
g78
sg79
(dp523
g81
I11
sg82
I4
sg83
I8
sg84
I10
sg85
I9
sg86
I8
sg87
I8
sg88
I9
sg89
I8
sg90
I10
sg91
I10
sg92
I6
sg93
I9
sg94
I10
sg95
I3
ssg96
g523
sg97
I0
sg98
I0
sg99
I0
sg100
I0
sg101
F9.533333333333333
sg102
I0
sg103
(lp524
g105
asg106
I0
sg107
I0
sg108
(lp525
sg110
I0
sg111
I0
sg112
I0
sg113
I0
sg114
I5
sg115
I2
sg116
I0
sg117
S'ES'
p526
sbsS'n21'
p527
(ijoueur
joueur
p528
(dp529
g27
I1
sg28
I0
sg29
I0
sg30
(ijoueur
rang
p530
(dp531
g33
I1
sg34
S'^'
p532
sg36
g422
sbsg38
(dp533
g40
I0
sg41
I5
sg42
I6
sg43
I0
ssg44
(dp534
g40
I0
sg41
I0
sg42
I0
sg43
I0
ssg46
g47
sg48
I0
sg49
I1
sg50
I0
sg51
I0
sg52
(g53
S'AR'
p535
S'CE'
p536
g47
tp537
sg57
(ijoueur
rang
p538
(dp539
g33
I1
sg34
S'^'
p540
sg36
g422
sbsg61
(dp541
g40
I0
sg41
I2
sg42
I0
sg43
I0
ssg63
(dp542
g40
I0
sg41
I5
sg42
I6
sg43
I0
ssg65
(dp543
g40
I0
sg41
I0
sg42
I0
sg43
I0
ssg67
(dp544
g40
I0
sg41
I2
sg42
I0
sg43
I0
ssg69
I0
sg70
I0
sg71
S'Nekloir'
p545
sg73
I11
sg74
I0
sg75
I22
sg76
I48
sg77
g78
sg79
(dp546
g81
I11
sg82
I5
sg83
I8
sg84
I10
sg85
I8
sg86
I6
sg87
I8
sg88
I8
sg89
I6
sg90
I9
sg91
I11
sg92
I10
sg93
I8
sg94
I10
sg95
I5
ssg96
g546
sg97
I6
sg98
I0
sg99
I0
sg100
I0
sg101
F9.666666666666666
sg102
I0
sg103
(lp547
g105
asg106
I0
sg107
I0
sg108
(lp548
sg110
I1
sg111
I0
sg112
I0
sg113
I0
sg114
I4
sg115
I1
sg116
I0
sg117
S'ES'
p549
sbsS'n20'
p550
(ijoueur
joueur
p551
(dp552
g27
I0
sg28
I0
sg29
I2
sg30
(ijoueur
rang
p553
(dp554
g33
I4
sg34
S'*'
p555
sg36
g37
sbsg38
(dp556
g40
I0
sg41
I1
sg42
I5
sg43
I0
ssg44
(dp557
g40
I0
sg41
I0
sg42
I0
sg43
I0
ssg46
g47
sg48
I0
sg49
I0
sg50
I0
sg51
I0
sg52
(g53
S'DO'
p558
S'DM'
p559
g47
tp560
sg57
(ijoueur
rang
p561
(dp562
g33
I2
sg34
S'<<'
p563
sg36
g310
sbsg61
(dp564
g40
I0
sg41
I2
sg42
I6
sg43
I0
ssg63
(dp565
g40
I0
sg41
I1
sg42
I5
sg43
I0
ssg65
(dp566
g40
I0
sg41
I0
sg42
I0
sg43
I0
ssg67
(dp567
g40
I0
sg41
I2
sg42
I6
sg43
I0
ssg69
I0
sg70
I0
sg71
S'Orthanol'
p568
sg73
I11
sg74
I0
sg75
I22
sg76
I30
sg77
g78
sg79
(dp569
g81
I10
sg82
I4
sg83
I6
sg84
I9
sg85
I8
sg86
I8
sg87
I9
sg88
I8
sg89
I5
sg90
I11
sg91
I11
sg92
I6
sg93
I8
sg94
I9
sg95
I3
ssg96
g569
sg97
I4
sg98
I0
sg99
I1
sg100
I0
sg101
F9.242424242424242
sg102
I0
sg103
(lp570
g105
asg106
I1
sg107
I0
sg108
(lp571
sg110
I0
sg111
I0
sg112
I0
sg113
I0
sg114
I5
sg115
I0
sg116
I0
sg117
S'ES'
p572
sbsS'n8'
p573
g214
sS'n9'
p574
g142
sS'n1'
p575
(ijoueur
joueur
p576
(dp577
g27
I0
sg28
I0
sg29
I0
sg30
(ijoueur
rang
p578
(dp579
g33
I4
sg34
S'*'
p580
sg36
g171
sbsg38
(dp581
g173
I0
sg174
I0
sg175
I0
sg176
I3
ssg44
(dp582
g173
I0
sg174
I0
sg175
I0
sg176
I0
ssg46
g47
sg48
I0
sg49
I0
sg50
I0
sg51
I0
sg52
(g53
S'PI'
p583
S'TA'
p584
S'DL'
p585
tp586
sg57
(ijoueur
rang
p587
(dp588
g33
I4
sg34
S'*'
p589
sg36
g171
sbsg61
(dp590
g173
I0
sg174
I0
sg175
I1
sg176
I8
ssg63
(dp591
g173
I0
sg174
I0
sg175
I0
sg176
I3
ssg65
(dp592
g173
I0
sg174
I0
sg175
I0
sg176
I0
ssg67
(dp593
g173
I0
sg174
I0
sg175
I1
sg176
I8
ssg69
I0
sg70
I0
sg71
S'Koussir'
p594
sg73
I4
sg74
I0
sg75
I17
sg76
I70
sg77
g78
sg79
(dp595
g190
I11
sg191
I9
sg192
I7
sg193
I11
sg194
I10
sg195
I10
sg196
I5
sg197
I10
sg198
I9
sg199
I10
sg200
I8
sg201
I7
sg202
I9
sg203
I10
sg204
I8
ssg96
g595
sg97
I2
sg98
I0
sg99
I0
sg100
I0
sg101
F9.441176470588236
sg102
I0
sg103
(lp596
g105
asg106
I0
sg107
I0
sg108
(lp597
sg110
I0
sg111
I0
sg112
I0
sg113
I0
sg114
I7
sg115
I2
sg116
I0
sg117
S'ES'
p598
sbsS'n2'
p599
g166
sS'n3'
p600
(ijoueur
joueur
p601
(dp602
g27
I0
sg28
I0
sg29
I0
sg30
(ijoueur
rang
p603
(dp604
g33
I2
sg34
S'<<'
p605
sg36
g390
sbsg38
(dp606
g173
I0
sg174
I0
sg175
I0
sg176
I0
ssg44
(dp607
g173
I0
sg174
I0
sg175
I0
sg176
I0
ssg46
S'HTH 9'
p608
sg48
I0
sg49
I2
sg50
I0
sg51
I0
sg52
(g53
S'PI'
p609
g47
g47
tp610
sg57
(ijoueur
rang
p611
(dp612
g33
I2
sg34
S'<<'
p613
sg36
g390
sbsg61
(dp614
g173
I0
sg174
I0
sg175
I0
sg176
I11
ssg63
(dp615
g173
I0
sg174
I0
sg175
I0
sg176
I0
ssg65
(dp616
g173
I0
sg174
I0
sg175
I0
sg176
I0
ssg67
(dp617
g173
I0
sg174
I0
sg175
I0
sg176
I11
ssg69
I0
sg70
I0
sg71
S'Maethol'
p618
sg73
I4
sg74
I0
sg75
I13
sg76
I50
sg77
g78
sg79
(dp619
g190
I11
sg191
I13
sg192
I6
sg193
I13
sg194
I9
sg195
I12
sg196
I5
sg197
I12
sg198
I3
sg199
I8
sg200
I8
sg201
I10
sg202
I5
sg203
I9
sg204
I8
ssg96
g619
sg97
I5
sg98
I0
sg99
I0
sg100
I0
sg101
F11.074074074074074
sg102
I0
sg103
(lp620
g105
asg106
I0
sg107
I0
sg108
(lp621
sg110
I0
sg111
I0
sg112
I0
sg113
I0
sg114
I5
sg115
I9
sg116
I0
sg117
S'HE'
p622
sbsS'n4'
p623
g120
sS'n5'
p624
g281
sS'n6'
p625
g237
sS'n7'
p626
(ijoueur
joueur
p627
(dp628
g27
I0
sg28
I0
sg29
I0
sg30
(ijoueur
rang
p629
(dp630
g33
I5
sg34
S'xx'
p631
sg36
g147
sbsg38
(dp632
g40
I0
sg41
I0
sg42
I0
sg43
I0
ssg44
(dp633
g40
I0
sg41
I0
sg42
I0
sg43
I0
ssg46
S'KAK 10'
p634
sg48
I0
sg49
I4
sg50
I0
sg51
I0
sg52
(g53
S'TL'
p635
g47
g47
tp636
sg57
(ijoueur
rang
p637
(dp638
g33
I5
sg34
S'xx'
p639
sg36
g147
sbsg61
(dp640
g40
I0
sg41
I12
sg42
I1
sg43
I0
ssg63
(dp641
g40
I0
sg41
I0
sg42
I0
sg43
I0
ssg65
(dp642
g40
I0
sg41
I0
sg42
I0
sg43
I0
ssg67
(dp643
g40
I0
sg41
I12
sg42
I1
sg43
I0
ssg69
I0
sg70
I0
sg71
S'Rohogd'
p644
sg73
I7
sg74
I0
sg75
I21
sg76
I359
sg77
g78
sg79
(dp645
g81
I12
sg82
I13
sg83
I7
sg84
I13
sg85
I8
sg86
I14
sg87
I9
sg88
I14
sg89
I11
sg90
I7
sg91
I13
sg92
I13
sg93
I7
sg94
I12
sg95
I9
ssg96
g645
sg97
I10
sg98
I0
sg99
I0
sg100
I0
sg101
F12.64516129032258
sg102
I0
sg103
(lp646
g105
asg106
I0
sg107
I0
sg108
(lp647
sg110
I0
sg111
I0
sg112
I0
sg113
I0
sg114
I24
sg115
I8
sg116
I0
sg117
S'HB'
p648
sbssS'remplacements'
p649
(dp650
g384
S'n0'
p651
sg408
g651
sg479
g651
sg480
g651
sg503
g651
sg527
g651
sg550
g651
ssb.