(iclub
compo
p0
(dp1
S'caracs_old'
p2
(dp3
S'A'
p4
F190.5
sS'ME'
p5
F94.5
sS'E'
p6
I227
sS'OplusAV'
p7
F48.0
sS'TO_off'
p8
F133.5
sS'OplusAR'
p9
F93.0
sS'M'
p10
F53.0
sS'JP'
p11
F120.5
sS'OmoinsAR'
p12
F92.5
sS'PA'
p13
F113.5
sS'TO_def'
p14
F126.0
sS'OmoinsAV'
p15
F70.0
sS'R'
p16
F135.5
ssS'totaux_old'
p17
(dp18
S'T2'
p19
F212.25
sS'T3'
p20
F113.5
sS'T1'
p21
F179.875
ssS'roles'
p22
(dp23
S'drop1'
p24
(ijoueur
joueur
p25
(dp26
S'rouges_total'
p27
I0
sS'drops_total'
p28
I6
sS'blessure'
p29
I0
sS'essais'
p30
I2
sS'RG_max'
p31
(ijoueur
rang
p32
(dp33
S'type_nb'
p34
I4
sS'rang'
p35
S'*'
p36
sS'type'
p37
S'heros'
p38
sbsS'drop_ratees_saison'
p39
I-1
sS'MJ2_total'
p40
(dp41
S'SR'
p42
I0
sS'CT'
p43
I0
sS'CR'
p44
I0
sS'ST'
p45
I0
ssS'penalite_ratees'
p46
I0
sS'MJ3_total'
p47
(dp48
g42
I0
sg43
I0
sg44
I0
sg45
I0
ssS'anciens_clubs'
p49
S''
p50
sS'drop_rates_saison'
p51
I0
sS'transformations'
p52
I1
sS'penalites'
p53
I1
sS'essais_saison'
p54
I0
sS'penalite_ratees_saison'
p55
I0
sS'transformations_saison'
p56
I0
sS'postes'
p57
(S'dummy'
p58
S'C1'
p59
S'DO'
p60
g50
tp61
sS'RG'
p62
(ijoueur
rang
p63
(dp64
g34
I4
sg35
S'*'
p65
sg37
g38
sbsS'MJ1'
p66
(dp67
g42
I0
sg43
I1
sg44
I0
sg45
I0
ssS'MJ2'
p68
(dp69
g42
I0
sg43
I0
sg44
I0
sg45
I0
ssS'MJ3'
p70
(dp71
g42
I0
sg43
I0
sg44
I0
sg45
I0
ssS'MJ1_total'
p72
(dp73
g42
I0
sg43
I1
sg44
I0
sg45
I0
ssS'penalites_total'
p74
I1
sS'penalites_saison'
p75
I0
sS'jaunes'
p76
I0
sS'nom'
p77
S'Jtaren'
p78
sS'C'
p79
I8
sS'rouges'
p80
I0
sS'transformations_total'
p81
I1
sS'D'
p82
I17
sS'VAL'
p83
I70
sS'club'
p84
S'AL'
p85
sS'transformation_ratees'
p86
I1
sS'caracs'
p87
(dp88
S'A'
p89
I11
sS'ME'
p90
I6
sS'RP2'
p91
I9
sS'E'
p92
I10
sS'P'
p93
I9
sS'RP1'
p94
I8
sS'JP'
p95
I14
sS'RP_tot'
p96
I10
sS'TO'
p97
I8
sS'PA'
p98
I12
sS'M'
p99
I10
sS'R'
p100
I4
sS'TB'
p101
I11
sS'PL'
p102
I12
sS'TA'
p103
I4
ssS'fatigue'
p104
I7
sS'drop_ratees_total'
p105
I1
sS'blessures_total'
p106
I0
sS'XP'
p107
I0
sS'EV'
p108
F10.5625
sS'penalite_ratees_total'
p109
I0
sS'drops'
p110
I6
sS'blessures_saison'
p111
I0
sS'jaunes_total'
p112
I0
sS'caracs_sans_fatigue'
p113
g88
sS'rouges_saison'
p114
I0
sS'transformation_ratees_total'
p115
I0
sS'drops_saison'
p116
I0
sS'transformation_ratees_saison'
p117
I0
sS'MS'
p118
I7
sS'essais_total'
p119
I2
sS'jaunes_saison'
p120
I0
sS'ARM'
p121
S'ES'
p122
sbsS'SA_scd'
p123
(ijoueur
joueur
p124
(dp125
g27
I0
sg28
I0
sg29
I0
sg31
(ijoueur
rang
p126
(dp127
g34
I4
sg35
S'*'
p128
sg37
g38
sbsg40
(dp129
g42
I0
sg43
I1
sg44
I0
sg45
I0
ssg47
(dp130
g42
I0
sg43
I0
sg44
I0
sg45
I0
ssg49
g50
sg51
I0
sg52
I0
sg53
I0
sg54
I0
sg55
I0
sg56
I0
sg57
(g58
S'TL'
p131
S'DL'
p132
g50
tp133
sg62
(ijoueur
rang
p134
(dp135
g34
I4
sg35
S'*'
p136
sg37
g38
sbsg66
(dp137
g42
I0
sg43
I0
sg44
I0
sg45
I0
ssg68
(dp138
g42
I0
sg43
I1
sg44
I0
sg45
I0
ssg70
(dp139
g42
I0
sg43
I0
sg44
I0
sg45
I0
ssg72
(dp140
g42
I0
sg43
I0
sg44
I0
sg45
I0
ssg74
I0
sg75
I0
sg77
S'Yssendil'
p141
sg79
I8
sg81
I0
sg82
I20
sg83
I70
sg84
g85
sg87
(dp142
g89
I10
sg90
I9
sg91
I7
sg92
I11
sg93
I9
sg94
I9
sg95
I7
sg96
I9
sg97
I13
sg98
I11
sg99
I8
sg100
I6
sg101
I6
sg102
I10
sg103
I5
ssg104
I8
sg105
I0
sg106
I0
sg107
I0
sg108
F10.421052631578947
sg109
I0
sg110
I0
sg111
I0
sg112
I0
sg113
g142
sg114
I0
sg115
I0
sg116
I0
sg117
I0
sg118
I7
sg119
I0
sg120
I0
sg121
S'ES'
p143
sbsS'RJL'
p144
(ijoueur
joueur
p145
(dp146
g27
I0
sg28
I1
sg29
I0
sg30
I1
sg31
(ijoueur
rang
p147
(dp148
g34
I5
sg35
S'**'
p149
sg37
S'seigneur'
p150
sbsg40
(dp151
g42
I0
sg43
I0
sg44
I0
sg45
I0
ssg46
I2
sg47
(dp152
g42
I0
sg43
I0
sg44
I0
sg45
I0
ssg49
g50
sg51
I0
sg52
I26
sg53
I101
sg54
I0
sg55
I0
sg56
I0
sg57
(g58
S'DM'
p153
S'DO'
p154
g50
tp155
sg62
(ijoueur
rang
p156
(dp157
g34
I5
sg35
S'**'
p158
sg37
g150
sbsg66
(dp159
g42
I0
sg43
I1
sg44
I0
sg45
I0
ssg68
(dp160
g42
I0
sg43
I0
sg44
I0
sg45
I0
ssg70
(dp161
g42
I0
sg43
I0
sg44
I0
sg45
I0
ssg72
(dp162
g42
I0
sg43
I1
sg44
I0
sg45
I0
ssg74
I103
sg75
I2
sg76
I0
sg77
S'Zumaen'
p163
sg79
I3
sg80
I0
sg81
I26
sg82
I13
sg83
I135
sg84
g85
sg86
I0
sg87
(dp164
g89
I13
sg90
I4
sg91
I9
sg92
I13
sg93
I15
sg94
I7
sg95
I12
sg96
I9
sg97
I9
sg98
I14
sg99
I8
sg100
I7
sg101
I10
sg102
I12
sg103
I4
ssg104
I6
sg105
I0
sg106
I0
sg107
I0
sg108
F12.068965517241379
sg109
I0
sg110
I1
sg111
I0
sg112
I0
sg113
g164
sg114
I0
sg115
I0
sg116
I0
sg117
I0
sg118
I14
sg119
I3
sg120
I0
sg121
S'ES'
p165
sbsS'cap'
p166
(ijoueur
joueur
p167
(dp168
g27
I0
sg28
I0
sg29
I0
sg31
(ijoueur
rang
p169
(dp170
g34
I4
sg35
S'*'
p171
sg37
S'heros'
p172
sbsg40
(dp173
S'SR'
p174
I0
sS'ST'
p175
I0
sS'CR'
p176
I0
sS'CT'
p177
I1
ssg47
(dp178
g174
I0
sg175
I0
sg176
I0
sg177
I0
ssg49
g50
sg51
I0
sg52
I0
sg53
I0
sg54
I0
sg55
I0
sg56
I0
sg57
(g58
S'PI'
p179
S'TA'
p180
g50
tp181
sg62
(ijoueur
rang
p182
(dp183
g34
I4
sg35
S'*'
p184
sg37
g172
sbsg66
(dp185
g174
I0
sg175
I0
sg176
I0
sg177
I0
ssg68
(dp186
g174
I0
sg175
I0
sg176
I0
sg177
I1
ssg70
(dp187
g174
I0
sg175
I0
sg176
I0
sg177
I0
ssg72
(dp188
g174
I0
sg175
I0
sg176
I0
sg177
I0
ssg74
I0
sg75
I0
sg77
S'Itanel'
p189
sg79
I7
sg81
I0
sg82
I19
sg83
I70
sg84
g85
sg87
(dp190
S'A'
p191
I10
sS'ME'
p192
I10
sS'RP2'
p193
I7
sS'E'
p194
I14
sS'TO'
p195
I10
sS'RP1'
p196
I9
sS'JP'
p197
I10
sS'RP_tot'
p198
I9
sS'P'
p199
I10
sS'PA'
p200
I11
sS'M'
p201
I8
sS'R'
p202
I5
sS'TB'
p203
I6
sS'PL'
p204
I11
sS'TA'
p205
I10
ssg104
I8
sg105
I0
sg106
I0
sg107
I0
sg108
F10.333333333333334
sg109
I0
sg110
I0
sg111
I0
sg112
I0
sg113
g190
sg114
I0
sg115
I0
sg116
I0
sg117
I0
sg118
I7
sg119
I1
sg120
I0
sg121
S'ES'
p206
sbsS'B4'
p207
g145
sS'RJC'
p208
g25
sS'B1'
p209
g25
sS'B2'
p210
g25
sS'B3'
p211
g145
sS'SA_pcp2'
p212
(ijoueur
joueur
p213
(dp214
g27
I0
sg28
I0
sg29
I0
sg31
(ijoueur
rang
p215
(dp216
g34
I5
sg35
S'**'
p217
sg37
g150
sbsg40
(dp218
g42
I0
sg43
I0
sg44
I0
sg45
I0
ssg47
(dp219
g42
I0
sg43
I0
sg44
I0
sg45
I0
ssg49
g50
sg51
I0
sg52
I0
sg53
I0
sg54
I0
sg55
I0
sg56
I0
sg57
(g58
S'N8'
p220
S'DL'
p221
g50
tp222
sg62
(ijoueur
rang
p223
(dp224
g34
I5
sg35
S'**'
p225
sg37
g150
sbsg66
(dp226
g42
I0
sg43
I1
sg44
I0
sg45
I0
ssg68
(dp227
g42
I0
sg43
I0
sg44
I0
sg45
I0
ssg70
(dp228
g42
I0
sg43
I0
sg44
I0
sg45
I0
ssg72
(dp229
g42
I0
sg43
I1
sg44
I0
sg45
I0
ssg74
I0
sg75
I0
sg77
S'Faross'
p230
sg79
I8
sg81
I0
sg82
I21
sg83
I135
sg84
g85
sg87
(dp231
g89
I13
sg90
I10
sg91
I7
sg92
I11
sg93
I9
sg94
I7
sg95
I8
sg96
I7
sg97
I13
sg98
I13
sg99
I8
sg100
I9
sg101
I7
sg102
I13
sg103
I6
ssg104
I5
sg105
I0
sg106
I0
sg107
I0
sg108
F10.777777777777779
sg109
I0
sg110
I0
sg111
I0
sg112
I0
sg113
g231
sg114
I0
sg115
I0
sg116
I0
sg117
I0
sg118
I14
sg119
I0
sg120
I0
sg121
S'ES'
p232
sbsS'SA_pcp1'
p233
(ijoueur
joueur
p234
(dp235
g27
I0
sg28
I0
sg29
I0
sg31
(ijoueur
rang
p236
(dp237
g34
I4
sg35
S'*'
p238
sg37
g38
sbsg40
(dp239
g42
I0
sg43
I0
sg44
I0
sg45
I0
ssg47
(dp240
g42
I0
sg43
I0
sg44
I0
sg45
I0
ssg49
g50
sg51
I0
sg52
I0
sg53
I0
sg54
I0
sg55
I0
sg56
I0
sg57
(g58
S'TL'
p241
g50
g50
tp242
sg62
(ijoueur
rang
p243
(dp244
g34
I4
sg35
S'*'
p245
sg37
g38
sbsg66
(dp246
g42
I0
sg43
I1
sg44
I0
sg45
I0
ssg68
(dp247
g42
I0
sg43
I0
sg44
I0
sg45
I0
ssg70
(dp248
g42
I0
sg43
I0
sg44
I0
sg45
I0
ssg72
(dp249
g42
I0
sg43
I1
sg44
I0
sg45
I0
ssg74
I0
sg75
I0
sg77
S'Qaia'
p250
sg79
I8
sg81
I0
sg82
I20
sg83
I70
sg84
g85
sg87
(dp251
g89
I14
sg90
I8
sg91
I10
sg92
I10
sg93
I7
sg94
I8
sg95
I7
sg96
I11
sg97
I14
sg98
I11
sg99
I11
sg100
I12
sg101
I9
sg102
I13
sg103
I6
ssg104
I5
sg105
I0
sg106
I0
sg107
I0
sg108
F12.078947368421053
sg109
I0
sg110
I0
sg111
I0
sg112
I0
sg113
g251
sg114
I0
sg115
I0
sg116
I0
sg117
I0
sg118
I7
sg119
I1
sg120
I0
sg121
S'ES'
p252
sbsS'drop3'
p253
g145
sS'SA_remp1'
p254
(ijoueur
joueur
p255
(dp256
g27
I0
sg28
I0
sg29
I0
sg31
(ijoueur
rang
p257
(dp258
g34
I4
sg35
S'*'
p259
sg37
g38
sbsg40
(dp260
g42
I0
sg43
I0
sg44
I0
sg45
I0
ssg47
(dp261
g42
I0
sg43
I0
sg44
I0
sg45
I0
ssg49
g50
sg51
I0
sg52
I0
sg53
I0
sg54
I0
sg55
I0
sg56
I0
sg57
(g58
S'DL'
p262
g50
g50
tp263
sg62
(ijoueur
rang
p264
(dp265
g34
I4
sg35
S'*'
p266
sg37
g38
sbsg66
(dp267
g42
I0
sg43
I1
sg44
I0
sg45
I0
ssg68
(dp268
g42
I0
sg43
I0
sg44
I0
sg45
I0
ssg70
(dp269
g42
I0
sg43
I0
sg44
I0
sg45
I0
ssg72
(dp270
g42
I0
sg43
I1
sg44
I0
sg45
I0
ssg74
I0
sg75
I0
sg77
S'Offendal'
p271
sg79
I4
sg81
I0
sg82
I16
sg83
I70
sg84
g85
sg87
(dp272
g89
I10
sg90
I9
sg91
I8
sg92
I10
sg93
I7
sg94
I8
sg95
I7
sg96
I9
sg97
I13
sg98
I10
sg99
I11
sg100
I7
sg101
I8
sg102
I10
sg103
I5
ssg104
I7
sg105
I0
sg106
I0
sg107
I0
sg108
F9.794117647058824
sg109
I0
sg110
I0
sg111
I0
sg112
I0
sg113
g272
sg114
I0
sg115
I0
sg116
I0
sg117
I0
sg118
I7
sg119
I0
sg120
I0
sg121
S'ES'
p273
sbsS'drop2'
p274
(ijoueur
joueur
p275
(dp276
g27
I0
sg28
I9
sg29
I0
sg31
(ijoueur
rang
p277
(dp278
g34
I4
sg35
S'*'
p279
sg37
g38
sbsg40
(dp280
g42
I0
sg43
I0
sg44
I0
sg45
I0
ssg47
(dp281
g42
I0
sg43
I0
sg44
I0
sg45
I0
ssg49
g50
sg51
I0
sg52
I0
sg53
I0
sg54
I0
sg55
I0
sg56
I0
sg57
(g58
S'DO'
p282
g50
g50
tp283
sg62
(ijoueur
rang
p284
(dp285
g34
I4
sg35
S'*'
p286
sg37
g38
sbsg66
(dp287
g42
I0
sg43
I1
sg44
I0
sg45
I0
ssg68
(dp288
g42
I0
sg43
I0
sg44
I0
sg45
I0
ssg70
(dp289
g42
I0
sg43
I0
sg44
I0
sg45
I0
ssg72
(dp290
g42
I0
sg43
I1
sg44
I0
sg45
I0
ssg74
I0
sg75
I0
sg77
S'Tladol'
p291
sg79
I4
sg81
I0
sg82
I14
sg83
I70
sg84
g85
sg87
(dp292
g89
I10
sg90
I2
sg91
I10
sg92
I11
sg93
I11
sg94
I7
sg95
I13
sg96
I10
sg97
I7
sg98
I11
sg99
I9
sg100
I4
sg101
I8
sg102
I9
sg103
I5
ssg104
I8
sg105
I0
sg106
I0
sg107
I0
sg108
F10.969696969696969
sg109
I0
sg110
I10
sg111
I0
sg112
I0
sg113
g292
sg114
I0
sg115
I0
sg116
I0
sg117
I0
sg118
I7
sg119
I2
sg120
I0
sg121
S'ES'
p293
sbsS'SA_remp2'
p294
(ijoueur
joueur
p295
(dp296
g27
I0
sg28
I0
sg29
I0
sg31
(ijoueur
rang
p297
(dp298
g34
I2
sg35
S'^^'
p299
sg37
S'special'
p300
sbsg40
(dp301
g42
I0
sg43
I0
sg44
I0
sg45
I0
ssg47
(dp302
g42
I0
sg43
I0
sg44
I0
sg45
I0
ssg49
g50
sg51
I0
sg52
I0
sg53
I0
sg54
I0
sg55
I0
sg56
I0
sg57
(g58
S'DL'
p303
g50
g50
tp304
sg62
(ijoueur
rang
p305
(dp306
g34
I2
sg35
S'^^'
p307
sg37
g300
sbsg66
(dp308
g42
I0
sg43
I0
sg44
I0
sg45
I0
ssg68
(dp309
g42
I0
sg43
I0
sg44
I0
sg45
I0
ssg70
(dp310
g42
I0
sg43
I0
sg44
I0
sg45
I0
ssg72
(dp311
g42
I0
sg43
I0
sg44
I0
sg45
I0
ssg74
I0
sg75
I0
sg77
S'Guiyohar'
p312
sg79
I7
sg81
I0
sg82
I17
sg83
I15
sg84
g85
sg87
(dp313
g89
I11
sg90
I6
sg91
I6
sg92
I9
sg93
I4
sg94
I8
sg95
I5
sg96
I8
sg97
I12
sg98
I9
sg99
I8
sg100
I7
sg101
I6
sg102
I9
sg103
I3
ssg104
I0
sg105
I0
sg106
I0
sg107
I0
sg108
F8.823529411764707
sg109
I0
sg110
I0
sg111
I0
sg112
I0
sg113
g313
sg114
I0
sg115
I0
sg116
I0
sg117
I0
sg118
I2
sg119
I0
sg120
I0
sg121
S'ES'
p314
sbssS'totaux'
p315
(dp316
g19
I0
sg20
I0
sg21
I0
ssS'_compo_defaut_fatigue'
p317
Nsg87
(dp318
g4
I0
sg5
I0
sg6
I0
sg7
I0
sg8
I0
sg9
I0
sg10
I0
sg11
I0
sg12
I0
sg13
I0
sg14
I0
sg15
I0
sg16
I0
ssS'joueurs'
p319
(dp320
S'n12'
p321
g25
sS'n13'
p322
(ijoueur
joueur
p323
(dp324
g27
I0
sg28
I0
sg29
I0
sg31
(ijoueur
rang
p325
(dp326
g34
I6
sg35
S'***'
p327
sg37
S'personnage'
p328
sbsg40
(dp329
g42
I0
sg43
I0
sg44
I0
sg45
I0
ssg47
(dp330
g42
I0
sg43
I0
sg44
I0
sg45
I0
ssg49
S'FS 9'
p331
sg51
I0
sg52
I0
sg53
I0
sg54
I0
sg55
I0
sg56
I0
sg57
(g58
S'AI'
p332
S'AR'
p333
S'CE'
p334
tp335
sg62
(ijoueur
rang
p336
(dp337
g34
I6
sg35
S'***'
p338
sg37
g328
sbsg66
(dp339
g42
I0
sg43
I1
sg44
I0
sg45
I0
ssg68
(dp340
g42
I0
sg43
I0
sg44
I0
sg45
I0
ssg70
(dp341
g42
I0
sg43
I0
sg44
I0
sg45
I0
ssg72
(dp342
g42
I0
sg43
I1
sg44
I0
sg45
I0
ssg74
I0
sg75
I0
sg77
S'De Sinople'
p343
sg79
I0
sg81
I0
sg82
I13
sg83
I418
sg84
g85
sg87
(dp344
g89
I13
sg90
I4
sg91
I13
sg92
I11
sg93
I8
sg94
I9
sg95
I5
sg96
I15
sg97
I6
sg98
I10
sg99
I9
sg100
I7
sg101
I6
sg102
I13
sg103
I6
ssg104
I6
sg105
I0
sg106
I0
sg107
I0
sg108
F11.580645161290322
sg109
I0
sg110
I0
sg111
I0
sg112
I0
sg113
g344
sg114
I0
sg115
I0
sg116
I0
sg117
I0
sg118
I62
sg119
I20
sg120
I0
sg121
S'B'
p345
sbsS'n10'
p346
g275
sS'n11'
p347
(ijoueur
joueur
p348
(dp349
g27
I0
sg28
I0
sg29
I0
sg31
(ijoueur
rang
p350
(dp351
g34
I4
sg35
S'*'
p352
sg37
g38
sbsg40
(dp353
g42
I0
sg43
I0
sg44
I0
sg45
I0
ssg47
(dp354
g42
I0
sg43
I0
sg44
I0
sg45
I0
ssg49
g50
sg51
I0
sg52
I0
sg53
I1
sg54
I0
sg55
I0
sg56
I0
sg57
(g58
S'AI'
p355
S'AR'
p356
g50
tp357
sg62
(ijoueur
rang
p358
(dp359
g34
I4
sg35
S'*'
p360
sg37
g38
sbsg66
(dp361
g42
I0
sg43
I1
sg44
I0
sg45
I0
ssg68
(dp362
g42
I0
sg43
I0
sg44
I0
sg45
I0
ssg70
(dp363
g42
I0
sg43
I0
sg44
I0
sg45
I0
ssg72
(dp364
g42
I0
sg43
I1
sg44
I0
sg45
I0
ssg74
I1
sg75
I0
sg77
S'Ilemen'
p365
sg79
I9
sg81
I0
sg82
I24
sg83
I23
sg84
g85
sg87
(dp366
g89
I15
sg90
I2
sg91
I10
sg92
I11
sg93
I11
sg94
I8
sg95
I9
sg96
I11
sg97
I7
sg98
I12
sg99
I10
sg100
I7
sg101
I9
sg102
I13
sg103
I3
ssg104
I5
sg105
I0
sg106
I0
sg107
I0
sg108
F11.774193548387096
sg109
I0
sg110
I0
sg111
I0
sg112
I0
sg113
g366
sg114
I0
sg115
I0
sg116
I0
sg117
I0
sg118
I4
sg119
I1
sg120
I0
sg121
S'ES'
p367
sbsS'n16'
p368
(ijoueur
joueur
p369
(dp370
g27
I0
sg28
I0
sg29
I0
sg31
(ijoueur
rang
p371
(dp372
g34
I2
sg35
S'<<'
p373
sg37
S'special'
p374
sbsg40
(dp375
g174
I0
sg175
I0
sg176
I0
sg177
I0
ssg47
(dp376
g174
I0
sg175
I0
sg176
I0
sg177
I0
ssg49
g50
sg51
I0
sg52
I0
sg53
I0
sg54
I0
sg55
I0
sg56
I0
sg57
(g58
S'TA'
p377
S'PI'
p378
g50
tp379
sg62
(ijoueur
rang
p380
(dp381
g34
I2
sg35
S'<<'
p382
sg37
g374
sbsg66
(dp383
g174
I0
sg175
I0
sg176
I1
sg177
I0
ssg68
(dp384
g174
I0
sg175
I0
sg176
I0
sg177
I0
ssg70
(dp385
g174
I0
sg175
I0
sg176
I0
sg177
I0
ssg72
(dp386
g174
I0
sg175
I0
sg176
I1
sg177
I0
ssg74
I0
sg75
I0
sg77
S'Hegard'
p387
sg79
I5
sg81
I0
sg82
I16
sg83
I28
sg84
g85
sg87
(dp388
g191
I6
sg192
I11
sg193
I6
sg194
I7
sg195
I5
sg196
I8
sg197
I2
sg198
I8
sg199
I3
sg200
I6
sg201
I8
sg202
I10
sg203
I3
sg204
I8
sg205
I10
ssg104
I4
sg105
I0
sg106
I0
sg107
I0
sg108
F8.655172413793103
sg109
I0
sg110
I0
sg111
I0
sg112
I0
sg113
g388
sg114
I0
sg115
I0
sg116
I0
sg117
I0
sg118
I3
sg119
I0
sg120
I0
sg121
S'B'
p389
sbsS'n17'
p390
(ijoueur
joueur
p391
(dp392
g27
I0
sg28
I0
sg29
I0
sg31
(ijoueur
rang
p393
(dp394
g34
I5
sg35
S'**'
p395
sg37
g150
sbsg40
(dp396
g42
I0
sg43
I0
sg44
I0
sg45
I0
ssg47
(dp397
g42
I0
sg43
I0
sg44
I0
sg45
I0
ssg49
g50
sg51
I0
sg52
I0
sg53
I0
sg54
I0
sg55
I0
sg56
I0
sg57
(g58
S'DL'
p398
S'PI'
p399
g50
tp400
sg62
(ijoueur
rang
p401
(dp402
g34
I1
sg35
S'^'
p403
sg37
S'base'
p404
sbsg66
(dp405
g42
I0
sg43
I0
sg44
I1
sg45
I0
ssg68
(dp406
g42
I0
sg43
I0
sg44
I0
sg45
I0
ssg70
(dp407
g42
I0
sg43
I0
sg44
I0
sg45
I0
ssg72
(dp408
g42
I0
sg43
I0
sg44
I1
sg45
I0
ssg74
I0
sg75
I0
sg77
S'Jenhair'
p409
sg79
I11
sg81
I0
sg82
I27
sg83
I42
sg84
g85
sg87
(dp410
g89
I8
sg90
I10
sg91
I6
sg92
I10
sg93
I5
sg94
I8
sg95
I3
sg96
I8
sg97
I11
sg98
I9
sg99
I9
sg100
I7
sg101
I5
sg102
I7
sg103
I5
ssg104
I5
sg105
I0
sg106
I0
sg107
I0
sg108
F8.823529411764707
sg109
I0
sg110
I0
sg111
I0
sg112
I0
sg113
g410
sg114
I0
sg115
I0
sg116
I0
sg117
I0
sg118
I3
sg119
I0
sg120
I0
sg121
S'ES'
p411
sbsS'n14'
p412
(ijoueur
joueur
p413
(dp414
g27
I0
sg28
I0
sg29
I0
sg31
(ijoueur
rang
p415
(dp416
g34
I6
sg35
S'***'
p417
sg37
g328
sbsg40
(dp418
g42
I0
sg43
I0
sg44
I0
sg45
I0
ssg47
(dp419
g42
I0
sg43
I0
sg44
I0
sg45
I0
ssg49
g50
sg51
I0
sg52
I0
sg53
I0
sg54
I0
sg55
I0
sg56
I0
sg57
(g58
S'C2'
p420
S'AI'
p421
g50
tp422
sg62
(ijoueur
rang
p423
(dp424
g34
I6
sg35
S'***'
p425
sg37
g328
sbsg66
(dp426
g42
I0
sg43
I1
sg44
I0
sg45
I0
ssg68
(dp427
g42
I0
sg43
I0
sg44
I0
sg45
I0
ssg70
(dp428
g42
I0
sg43
I0
sg44
I0
sg45
I0
ssg72
(dp429
g42
I0
sg43
I1
sg44
I0
sg45
I0
ssg74
I0
sg75
I0
sg77
S'Golfag'
p430
sg79
I11
sg81
I0
sg82
I22
sg83
I700
sg84
g85
sg87
(dp431
g89
I10
sg90
I6
sg91
I9
sg92
I10
sg93
I9
sg94
I10
sg95
I8
sg96
I12
sg97
I4
sg98
I8
sg99
I11
sg100
I6
sg101
I7
sg102
I11
sg103
I6
ssg104
I5
sg105
I0
sg106
I0
sg107
I0
sg108
F9.96551724137931
sg109
I0
sg110
I0
sg111
I0
sg112
I0
sg113
g431
sg114
I0
sg115
I0
sg116
I0
sg117
I0
sg118
I58
sg119
I0
sg120
I0
sg121
S'OG'
p432
sbsS'n15'
p433
(ijoueur
joueur
p434
(dp435
g27
I0
sg28
I2
sg29
I0
sg31
(ijoueur
rang
p436
(dp437
g34
I5
sg35
S'xx'
p438
sg37
g150
sbsg40
(dp439
g42
I0
sg43
I0
sg44
I0
sg45
I0
ssg47
(dp440
g42
I0
sg43
I0
sg44
I0
sg45
I0
ssg49
S'TO 8 ; FS 10'
p441
sg51
I0
sg52
I6
sg53
I3
sg54
I0
sg55
I0
sg56
I0
sg57
(g58
S'AR'
p442
S'DO'
p443
g50
tp444
sg62
(ijoueur
rang
p445
(dp446
g34
I5
sg35
S'xx'
p447
sg37
g150
sbsg66
(dp448
g42
I0
sg43
I1
sg44
I0
sg45
I0
ssg68
(dp449
g42
I0
sg43
I0
sg44
I0
sg45
I0
ssg70
(dp450
g42
I0
sg43
I0
sg44
I0
sg45
I0
ssg72
(dp451
g42
I0
sg43
I1
sg44
I0
sg45
I0
ssg74
I3
sg75
I0
sg77
S'Aadeel'
p452
sg79
I2
sg81
I6
sg82
I13
sg83
I754
sg84
g85
sg87
(dp453
g89
I10
sg90
I4
sg91
I10
sg92
I10
sg93
I8
sg94
I13
sg95
I10
sg96
I16
sg97
I4
sg98
I6
sg99
I8
sg100
I10
sg101
I7
sg102
I14
sg103
I5
ssg104
I5
sg105
I0
sg106
I0
sg107
I0
sg108
F10.909090909090908
sg109
I0
sg110
I2
sg111
I0
sg112
I0
sg113
g453
sg114
I0
sg115
I0
sg116
I0
sg117
I0
sg118
I125
sg119
I19
sg120
I0
sg121
S'HL'
p454
sbsS'n18'
p455
g295
sS'n19'
p456
(ijoueur
joueur
p457
(dp458
g27
I0
sg28
I0
sg29
I0
sg31
(ijoueur
rang
p459
(dp460
g34
I2
sg35
S'^^'
p461
sg37
g300
sbsg40
(dp462
g42
I0
sg43
I0
sg44
I0
sg45
I0
ssg47
(dp463
g42
I0
sg43
I0
sg44
I0
sg45
I0
ssg49
g50
sg51
I0
sg52
I0
sg53
I0
sg54
I0
sg55
I0
sg56
I0
sg57
(g58
S'N8'
p464
S'TL'
p465
g50
tp466
sg62
(ijoueur
rang
p467
(dp468
g34
I2
sg35
S'^^'
p469
sg37
g300
sbsg66
(dp470
g42
I0
sg43
I0
sg44
I0
sg45
I0
ssg68
(dp471
g42
I0
sg43
I0
sg44
I0
sg45
I0
ssg70
(dp472
g42
I0
sg43
I0
sg44
I0
sg45
I0
ssg72
(dp473
g42
I0
sg43
I0
sg44
I0
sg45
I0
ssg74
I0
sg75
I0
sg77
S'Vlenael'
p474
sg79
I11
sg81
I0
sg82
I23
sg83
I17
sg84
g85
sg87
(dp475
g89
I10
sg90
I6
sg91
I7
sg92
I10
sg93
I5
sg94
I8
sg95
I5
sg96
I8
sg97
I13
sg98
I9
sg99
I8
sg100
I9
sg101
I5
sg102
I9
sg103
I4
ssg104
I0
sg105
I0
sg106
I0
sg107
I0
sg108
F9.555555555555555
sg109
I0
sg110
I0
sg111
I0
sg112
I0
sg113
g475
sg114
I0
sg115
I0
sg116
I0
sg117
I0
sg118
I2
sg119
I0
sg120
I0
sg121
S'ES'
p476
sbsS'n22'
p477
(ijoueur
joueur
p478
(dp479
g27
I0
sg28
I0
sg29
I0
sg31
(ijoueur
rang
p480
(dp481
g34
I2
sg35
S'^^'
p482
sg37
g300
sbsg40
(dp483
g42
I0
sg43
I0
sg44
I0
sg45
I0
ssg47
(dp484
g42
I0
sg43
I0
sg44
I0
sg45
I0
ssg49
S'FS 11'
p485
sg51
I0
sg52
I0
sg53
I0
sg54
I0
sg55
I0
sg56
I0
sg57
(g58
S'C1'
p486
S'AI'
p487
g50
tp488
sg62
(ijoueur
rang
p489
(dp490
g34
I2
sg35
S'^^'
p491
sg37
g300
sbsg66
(dp492
g42
I0
sg43
I0
sg44
I0
sg45
I0
ssg68
(dp493
g42
I0
sg43
I0
sg44
I0
sg45
I0
ssg70
(dp494
g42
I0
sg43
I0
sg44
I0
sg45
I0
ssg72
(dp495
g42
I0
sg43
I0
sg44
I0
sg45
I0
ssg74
I0
sg75
I0
sg77
S'Nanael'
p496
sg79
I8
sg81
I0
sg82
I18
sg83
I77
sg84
g85
sg87
(dp497
g89
I11
sg90
I4
sg91
I8
sg92
I10
sg93
I9
sg94
I8
sg95
I8
sg96
I9
sg97
I8
sg98
I10
sg99
I10
sg100
I6
sg101
I9
sg102
I10
sg103
I3
ssg104
I0
sg105
I0
sg106
I0
sg107
I0
sg108
F9.533333333333333
sg109
I0
sg110
I0
sg111
I0
sg112
I0
sg113
g497
sg114
I0
sg115
I0
sg116
I0
sg117
I0
sg118
I5
sg119
I1
sg120
I0
sg121
S'ES'
p498
sbsS'n21'
p499
(ijoueur
joueur
p500
(dp501
g27
I0
sg28
I0
sg29
I0
sg31
(ijoueur
rang
p502
(dp503
g34
I1
sg35
S'^'
p504
sg37
g404
sbsg40
(dp505
g42
I0
sg43
I0
sg44
I1
sg45
I0
ssg47
(dp506
g42
I0
sg43
I0
sg44
I0
sg45
I0
ssg49
g50
sg51
I0
sg52
I0
sg53
I0
sg54
I0
sg55
I0
sg56
I0
sg57
(g58
S'AR'
p507
S'CE'
p508
g50
tp509
sg62
(ijoueur
rang
p510
(dp511
g34
I1
sg35
S'^'
p512
sg37
g404
sbsg66
(dp513
g42
I0
sg43
I0
sg44
I0
sg45
I0
ssg68
(dp514
g42
I0
sg43
I0
sg44
I1
sg45
I0
ssg70
(dp515
g42
I0
sg43
I0
sg44
I0
sg45
I0
ssg72
(dp516
g42
I0
sg43
I0
sg44
I0
sg45
I0
ssg74
I0
sg75
I0
sg77
S'Nekloir'
p517
sg79
I11
sg81
I0
sg82
I22
sg83
I48
sg84
g85
sg87
(dp518
g89
I11
sg90
I5
sg91
I8
sg92
I10
sg93
I8
sg94
I6
sg95
I8
sg96
I8
sg97
I6
sg98
I9
sg99
I11
sg100
I10
sg101
I8
sg102
I10
sg103
I5
ssg104
I4
sg105
I0
sg106
I0
sg107
I0
sg108
F9.666666666666666
sg109
I0
sg110
I0
sg111
I0
sg112
I0
sg113
g518
sg114
I0
sg115
I0
sg116
I0
sg117
I0
sg118
I4
sg119
I0
sg120
I0
sg121
S'ES'
p519
sbsS'n20'
p520
(ijoueur
joueur
p521
(dp522
g27
I0
sg28
I0
sg29
I0
sg31
(ijoueur
rang
p523
(dp524
g34
I4
sg35
S'*'
p525
sg37
g38
sbsg40
(dp526
g42
I0
sg43
I0
sg44
I0
sg45
I0
ssg47
(dp527
g42
I0
sg43
I0
sg44
I0
sg45
I0
ssg49
g50
sg51
I0
sg52
I0
sg53
I0
sg54
I0
sg55
I0
sg56
I0
sg57
(g58
S'DO'
p528
S'DM'
p529
g50
tp530
sg62
(ijoueur
rang
p531
(dp532
g34
I2
sg35
S'<<'
p533
sg37
g300
sbsg66
(dp534
g42
I0
sg43
I0
sg44
I1
sg45
I0
ssg68
(dp535
g42
I0
sg43
I0
sg44
I0
sg45
I0
ssg70
(dp536
g42
I0
sg43
I0
sg44
I0
sg45
I0
ssg72
(dp537
g42
I0
sg43
I0
sg44
I1
sg45
I0
ssg74
I0
sg75
I0
sg77
S'Orthanol'
p538
sg79
I11
sg81
I0
sg82
I22
sg83
I30
sg84
g85
sg87
(dp539
g89
I10
sg90
I4
sg91
I6
sg92
I9
sg93
I8
sg94
I8
sg95
I9
sg96
I8
sg97
I5
sg98
I11
sg99
I11
sg100
I6
sg101
I8
sg102
I9
sg103
I3
ssg104
I2
sg105
I0
sg106
I0
sg107
I0
sg108
F9.242424242424242
sg109
I0
sg110
I0
sg111
I0
sg112
I0
sg113
g539
sg114
I0
sg115
I0
sg116
I0
sg117
I0
sg118
I5
sg119
I0
sg120
I0
sg121
S'ES'
p540
sbsS'n8'
p541
g213
sS'n9'
p542
g145
sS'n1'
p543
(ijoueur
joueur
p544
(dp545
g27
I0
sg28
I0
sg29
I0
sg31
(ijoueur
rang
p546
(dp547
g34
I4
sg35
S'*'
p548
sg37
g172
sbsg40
(dp549
g174
I0
sg175
I0
sg176
I0
sg177
I0
ssg47
(dp550
g174
I0
sg175
I0
sg176
I0
sg177
I0
ssg49
g50
sg51
I0
sg52
I0
sg53
I0
sg54
I0
sg55
I0
sg56
I0
sg57
(g58
S'PI'
p551
S'TA'
p552
S'DL'
p553
tp554
sg62
(ijoueur
rang
p555
(dp556
g34
I4
sg35
S'*'
p557
sg37
g172
sbsg66
(dp558
g174
I0
sg175
I0
sg176
I0
sg177
I1
ssg68
(dp559
g174
I0
sg175
I0
sg176
I0
sg177
I0
ssg70
(dp560
g174
I0
sg175
I0
sg176
I0
sg177
I0
ssg72
(dp561
g174
I0
sg175
I0
sg176
I0
sg177
I1
ssg74
I0
sg75
I0
sg77
S'Koussir'
p562
sg79
I4
sg81
I0
sg82
I17
sg83
I70
sg84
g85
sg87
(dp563
g191
I11
sg192
I9
sg193
I7
sg194
I11
sg195
I10
sg196
I10
sg197
I5
sg198
I10
sg199
I9
sg200
I10
sg201
I8
sg202
I7
sg203
I9
sg204
I10
sg205
I8
ssg104
I4
sg105
I0
sg106
I0
sg107
I0
sg108
F9.441176470588236
sg109
I0
sg110
I0
sg111
I0
sg112
I0
sg113
g563
sg114
I0
sg115
I0
sg116
I0
sg117
I0
sg118
I7
sg119
I2
sg120
I0
sg121
S'ES'
p564
sbsS'n2'
p565
g167
sS'n3'
p566
(ijoueur
joueur
p567
(dp568
g27
I0
sg28
I0
sg29
I0
sg31
(ijoueur
rang
p569
(dp570
g34
I2
sg35
S'<<'
p571
sg37
g374
sbsg40
(dp572
g174
I0
sg175
I0
sg176
I0
sg177
I0
ssg47
(dp573
g174
I0
sg175
I0
sg176
I0
sg177
I0
ssg49
S'HTH 9'
p574
sg51
I0
sg52
I0
sg53
I0
sg54
I0
sg55
I0
sg56
I0
sg57
(g58
S'PI'
p575
g50
g50
tp576
sg62
(ijoueur
rang
p577
(dp578
g34
I2
sg35
S'<<'
p579
sg37
g374
sbsg66
(dp580
g174
I0
sg175
I0
sg176
I0
sg177
I1
ssg68
(dp581
g174
I0
sg175
I0
sg176
I0
sg177
I0
ssg70
(dp582
g174
I0
sg175
I0
sg176
I0
sg177
I0
ssg72
(dp583
g174
I0
sg175
I0
sg176
I0
sg177
I1
ssg74
I0
sg75
I0
sg77
S'Maethol'
p584
sg79
I4
sg81
I0
sg82
I13
sg83
I50
sg84
g85
sg87
(dp585
g191
I9
sg192
I13
sg193
I6
sg194
I13
sg195
I9
sg196
I12
sg197
I5
sg198
I12
sg199
I3
sg200
I8
sg201
I8
sg202
I8
sg203
I5
sg204
I7
sg205
I8
ssg104
I10
sg105
I0
sg106
I0
sg107
I0
sg108
F11.074074074074074
sg109
I0
sg110
I0
sg111
I0
sg112
I0
sg113
g585
sg114
I0
sg115
I0
sg116
I0
sg117
I0
sg118
I5
sg119
I7
sg120
I0
sg121
S'HE'
p586
sbsS'n4'
p587
g255
sS'n5'
p588
g124
sS'n6'
p589
g234
sS'n7'
p590
(ijoueur
joueur
p591
(dp592
g27
I0
sg28
I0
sg29
I0
sg31
(ijoueur
rang
p593
(dp594
g34
I5
sg35
S'xx'
p595
sg37
g150
sbsg40
(dp596
g42
I0
sg43
I0
sg44
I0
sg45
I0
ssg47
(dp597
g42
I0
sg43
I0
sg44
I0
sg45
I0
ssg49
S'KAK 10'
p598
sg51
I0
sg52
I0
sg53
I0
sg54
I0
sg55
I0
sg56
I0
sg57
(g58
S'TL'
p599
g50
g50
tp600
sg62
(ijoueur
rang
p601
(dp602
g34
I5
sg35
S'xx'
p603
sg37
g150
sbsg66
(dp604
g42
I0
sg43
I1
sg44
I0
sg45
I0
ssg68
(dp605
g42
I0
sg43
I0
sg44
I0
sg45
I0
ssg70
(dp606
g42
I0
sg43
I0
sg44
I0
sg45
I0
ssg72
(dp607
g42
I0
sg43
I1
sg44
I0
sg45
I0
ssg74
I0
sg75
I0
sg77
S'Rohogd'
p608
sg79
I7
sg81
I0
sg82
I21
sg83
I359
sg84
g85
sg87
(dp609
g89
I12
sg90
I13
sg91
I7
sg92
I13
sg93
I8
sg94
I14
sg95
I9
sg96
I14
sg97
I11
sg98
I7
sg99
I13
sg100
I13
sg101
I7
sg102
I12
sg103
I9
ssg104
I3
sg105
I0
sg106
I0
sg107
I0
sg108
F12.64516129032258
sg109
I0
sg110
I0
sg111
I0
sg112
I0
sg113
g609
sg114
I0
sg115
I0
sg116
I0
sg117
I0
sg118
I24
sg119
I4
sg120
I0
sg121
S'HB'
p610
sbssS'remplacements'
p611
(dp612
g368
S'n0'
p613
sg390
g613
sg455
g613
sg456
g613
sg477
g613
sg499
g613
sg520
g613
ssb.