(iclub
compo
p0
(dp1
S'caracs_old'
p2
(dp3
S'A'
p4
F167.5
sS'ME'
p5
F94.5
sS'E'
p6
I221
sS'OplusAV'
p7
F71.0
sS'TO_off'
p8
F142.0
sS'OplusAR'
p9
F87.0
sS'M'
p10
F54.5
sS'JP'
p11
F104.5
sS'OmoinsAR'
p12
F75.0
sS'PA'
p13
F123.5
sS'TO_def'
p14
F133.5
sS'OmoinsAV'
p15
F80.5
sS'R'
p16
F201.0
ssS'totaux_old'
p17
(dp18
S'T2'
p19
F197.75
sS'T3'
p20
F110.5
sS'T1'
p21
F216.625
ssS'roles'
p22
(dp23
S'drop1'
p24
(ijoueur
joueur
p25
(dp26
S'rouges_total'
p27
I0
sS'drops_total'
p28
I8
sS'blessure'
p29
I0
sS'RG_max'
p30
(ijoueur
rang
p31
(dp32
S'type_nb'
p33
I4
sS'rang'
p34
S'*'
p35
sS'type'
p36
S'heros'
p37
sbsS'MJ2_total'
p38
(dp39
S'SR'
p40
I0
sS'CT'
p41
I0
sS'CR'
p42
I0
sS'ST'
p43
I0
ssS'MJ3_total'
p44
(dp45
g40
I0
sg41
I0
sg42
I0
sg43
I0
ssS'anciens_clubs'
p46
S''
p47
sS'drop_rates_saison'
p48
I0
sS'essais_saison'
p49
I0
sS'penalite_ratees_saison'
p50
I0
sS'transformations_saison'
p51
I0
sS'postes'
p52
(S'dummy'
p53
S'C1'
p54
S'AR'
p55
S'AI'
p56
tp57
sS'RG'
p58
(ijoueur
rang
p59
(dp60
g33
I4
sg34
g35
sg36
g37
sbsS'MJ1'
p61
(dp62
g40
I0
sg41
I0
sg42
I0
sg43
I0
ssS'MJ2'
p63
(dp64
g40
I0
sg41
I0
sg42
I0
sg43
I0
ssS'MJ3'
p65
(dp66
g40
I0
sg41
I0
sg42
I0
sg43
I0
ssS'MJ1_total'
p67
(dp68
g40
I0
sg41
I0
sg42
I0
sg43
I0
ssS'penalites_total'
p69
I0
sS'penalites_saison'
p70
I0
sS'nom'
p71
S'Soled'
p72
sS'C'
p73
I5
sS'transformations_total'
p74
I0
sS'D'
p75
I18
sS'VAL'
p76
I133
sS'club'
p77
S'KHR'
p78
sS'caracs'
p79
(dp80
S'A'
p81
I14
sS'ME'
p82
I6
sS'RP2'
p83
I9
sS'E'
p84
I11
sS'P'
p85
I8
sS'RP1'
p86
I9
sS'JP'
p87
I11
sS'RP_tot'
p88
I11
sS'TO'
p89
I9
sS'PA'
p90
I14
sS'M'
p91
I10
sS'R'
p92
I7
sS'TB'
p93
I8
sS'PL'
p94
I11
sS'TA'
p95
I5
ssS'fatigue'
p96
I0
sS'drop_ratees_total'
p97
I0
sS'blessures_total'
p98
I0
sS'XP'
p99
I0
sS'EV'
p100
F11.233333333333333
sS'penalite_ratees_total'
p101
I0
sS'blessures_saison'
p102
I0
sS'jaunes_total'
p103
I0
sS'caracs_sans_fatigue'
p104
g80
sS'rouges_saison'
p105
I0
sS'transformation_ratees_total'
p106
I0
sS'drops_saison'
p107
I0
sS'transformation_ratees_saison'
p108
I0
sS'MS'
p109
I8
sS'essais_total'
p110
I8
sS'jaunes_saison'
p111
I0
sS'ARM'
p112
S'ES'
p113
sbsS'SA_scd'
p114
(ijoueur
joueur
p115
(dp116
g27
I0
sg28
I0
sg29
I0
sg30
(ijoueur
rang
p117
(dp118
g33
I4
sg34
g35
sg36
g37
sbsg38
(dp119
g40
I0
sg41
I0
sg42
I0
sg43
I0
ssg44
(dp120
g40
I0
sg41
I0
sg42
I0
sg43
I0
ssg46
g47
sg48
I0
sg49
I0
sg50
I0
sg51
I0
sg52
(g53
S'DL'
p121
S'N8'
p122
g47
tp123
sg58
(ijoueur
rang
p124
(dp125
g33
I4
sg34
g35
sg36
g37
sbsg61
(dp126
g40
I0
sg41
I0
sg42
I0
sg43
I0
ssg63
(dp127
g40
I0
sg41
I0
sg42
I0
sg43
I0
ssg65
(dp128
g40
I0
sg41
I0
sg42
I0
sg43
I0
ssg67
(dp129
g40
I0
sg41
I0
sg42
I0
sg43
I0
ssg69
I0
sg70
I0
sg71
S'Vyenzhol'
p130
sg73
I7
sg74
I0
sg75
I14
sg76
I152
sg77
g78
sg79
(dp131
g81
I11
sg82
I13
sg83
I6
sg84
I9
sg85
I3
sg86
I11
sg87
I4
sg88
I11
sg89
I14
sg90
I10
sg91
I9
sg92
I9
sg93
I2
sg94
I10
sg95
I6
ssg96
I0
sg97
I0
sg98
I0
sg99
I0
sg100
F11.0
sg101
I0
sg102
I0
sg103
I0
sg104
g131
sg105
I0
sg106
I0
sg107
I0
sg108
I0
sg109
I15
sg110
I5
sg111
I0
sg112
S'CHS'
p132
sbsS'RJL'
p133
(ijoueur
joueur
p134
(dp135
g27
I0
sg28
I17
sg29
I0
sg30
(ijoueur
rang
p136
(dp137
g33
I5
sg34
S'**'
p138
sg36
S'seigneur'
p139
sbsg38
(dp140
g40
I0
sg41
I0
sg42
I0
sg43
I0
ssg44
(dp141
g40
I0
sg41
I0
sg42
I0
sg43
I0
ssg46
S'KH11'
p142
sg48
I0
sg49
I0
sg50
I0
sg51
I0
sg52
(g53
S'DO'
p143
S'CE'
p144
S'AR'
p145
tp146
sg58
(ijoueur
rang
p147
(dp148
g33
I5
sg34
S'**'
p149
sg36
g139
sbsg61
(dp150
g40
I0
sg41
I0
sg42
I0
sg43
I0
ssg63
(dp151
g40
I0
sg41
I0
sg42
I0
sg43
I0
ssg65
(dp152
g40
I0
sg41
I0
sg42
I0
sg43
I0
ssg67
(dp153
g40
I0
sg41
I0
sg42
I0
sg43
I0
ssg69
I7
sg70
I0
sg71
S'Rotovlav'
p154
sg73
I1
sg74
I0
sg75
I18
sg76
I477
sg77
g78
sg79
(dp155
g81
I12
sg82
I6
sg83
I10
sg84
I11
sg85
I12
sg86
I7
sg87
I13
sg88
I10
sg89
I7
sg90
I11
sg91
I12
sg92
I8
sg93
I8
sg94
I11
sg95
I6
ssg96
I0
sg97
I0
sg98
I0
sg99
I0
sg100
F11.454545454545455
sg101
I0
sg102
I0
sg103
I0
sg104
g155
sg105
I0
sg106
I0
sg107
I0
sg108
I0
sg109
I42
sg110
I3
sg111
I0
sg112
S'CV'
p156
sbsS'cap'
p157
(ijoueur
joueur
p158
(dp159
g27
I0
sg28
I0
sg29
I0
sg30
(ijoueur
rang
p160
(dp161
g33
I5
sg34
S'**'
p162
sg36
g139
sbsg38
(dp163
g40
I0
sg41
I0
sg42
I0
sg43
I0
ssg44
(dp164
g40
I0
sg41
I0
sg42
I0
sg43
I0
ssg46
S'MRB8;TO10'
p165
sg48
I0
sg49
I0
sg50
I0
sg51
I0
sg52
(g53
S'DL'
p166
g47
g47
tp167
sg58
(ijoueur
rang
p168
(dp169
g33
I5
sg34
S'**'
p170
sg36
g139
sbsg61
(dp171
g40
I0
sg41
I0
sg42
I0
sg43
I0
ssg63
(dp172
g40
I0
sg41
I0
sg42
I0
sg43
I0
ssg65
(dp173
g40
I0
sg41
I0
sg42
I0
sg43
I0
ssg67
(dp174
g40
I0
sg41
I0
sg42
I0
sg43
I0
ssg69
I0
sg70
I0
sg71
S'Yoenthor'
p175
sg73
I5
sg74
I0
sg75
I13
sg76
I997
sg77
g78
sg79
(dp176
g81
I14
sg82
I10
sg83
I9
sg84
I13
sg85
I7
sg86
I10
sg87
I6
sg88
I12
sg89
I14
sg90
I11
sg91
I9
sg92
I11
sg93
I6
sg94
I12
sg95
I6
ssg96
I0
sg97
I0
sg98
I0
sg99
I0
sg100
F12.088235294117647
sg101
I0
sg102
I0
sg103
I0
sg104
g176
sg105
I0
sg106
I0
sg107
I0
sg108
I0
sg109
I64
sg110
I13
sg111
I0
sg112
S'EN'
p177
sbsS'B4'
p178
(ijoueur
joueur
p179
(dp180
g27
I0
sg28
I5
sg29
I0
sg30
(ijoueur
rang
p181
(dp182
g33
I2
sg34
S'^^'
p183
sg36
S'special'
p184
sbsg38
(dp185
g40
I0
sg41
I0
sg42
I0
sg43
I0
ssg44
(dp186
g40
I0
sg41
I0
sg42
I0
sg43
I0
ssg46
g47
sg48
I0
sg49
I0
sg50
I0
sg51
I0
sg52
(g53
S'AR'
p187
S'AI'
p188
S'CE'
p189
tp190
sg58
(ijoueur
rang
p191
(dp192
g33
I2
sg34
S'^^'
p193
sg36
g184
sbsg61
(dp194
g40
I0
sg41
I0
sg42
I0
sg43
I0
ssg63
(dp195
g40
I0
sg41
I0
sg42
I0
sg43
I0
ssg65
(dp196
g40
I0
sg41
I0
sg42
I0
sg43
I0
ssg67
(dp197
g40
I0
sg41
I0
sg42
I0
sg43
I0
ssg69
I0
sg70
I0
sg71
S'Wydoeth'
p198
sg73
I5
sg74
I0
sg75
I16
sg76
I62
sg77
g78
sg79
(dp199
g81
I10
sg82
I5
sg83
I11
sg84
I10
sg85
I10
sg86
I6
sg87
I11
sg88
I11
sg89
I4
sg90
I10
sg91
I11
sg92
I7
sg93
I10
sg94
I10
sg95
I3
ssg96
I0
sg97
I0
sg98
I0
sg99
I0
sg100
F10.242424242424242
sg101
I0
sg102
I0
sg103
I0
sg104
g199
sg105
I0
sg106
I0
sg107
I0
sg108
I0
sg109
I4
sg110
I2
sg111
I0
sg112
S'EN'
p200
sbsS'RJC'
p201
g134
sS'B1'
p202
g179
sS'B2'
p203
g179
sS'B3'
p204
g179
sS'SA_pcp2'
p205
(ijoueur
joueur
p206
(dp207
g27
I0
sg28
I0
sg29
I0
sg30
(ijoueur
rang
p208
(dp209
g33
I2
sg34
S'^^'
p210
sg36
g184
sbsg38
(dp211
g40
I0
sg41
I0
sg42
I0
sg43
I0
ssg44
(dp212
g40
I0
sg41
I0
sg42
I0
sg43
I0
ssg46
S'DKF11'
p213
sg48
I0
sg49
I0
sg50
I0
sg51
I0
sg52
(g53
S'TL'
p214
S'DL'
p215
g47
tp216
sg58
(ijoueur
rang
p217
(dp218
g33
I2
sg34
S'^^'
p219
sg36
g184
sbsg61
(dp220
g40
I0
sg41
I0
sg42
I0
sg43
I0
ssg63
(dp221
g40
I0
sg41
I0
sg42
I0
sg43
I0
ssg65
(dp222
g40
I0
sg41
I0
sg42
I0
sg43
I0
ssg67
(dp223
g40
I0
sg41
I0
sg42
I0
sg43
I0
ssg69
I0
sg70
I0
sg71
S'Filodil'
p224
sg73
I3
sg74
I0
sg75
I13
sg76
I100
sg77
g78
sg79
(dp225
g81
I7
sg82
I9
sg83
I7
sg84
I10
sg85
I7
sg86
I6
sg87
I3
sg88
I7
sg89
I14
sg90
I9
sg91
I8
sg92
I14
sg93
I5
sg94
I14
sg95
I3
ssg96
I0
sg97
I0
sg98
I0
sg99
I0
sg100
F11.578947368421053
sg101
I0
sg102
I0
sg103
I0
sg104
g225
sg105
I0
sg106
I0
sg107
I0
sg108
I0
sg109
I10
sg110
I0
sg111
I0
sg112
S'ES'
p226
sbsS'SA_pcp1'
p227
g158
sS'drop3'
p228
g179
sS'SA_remp1'
p229
(ijoueur
joueur
p230
(dp231
g27
I0
sg28
I0
sg29
I0
sg30
(ijoueur
rang
p232
(dp233
g33
I5
sg34
S'**'
p234
sg36
g139
sbsg38
(dp235
g40
I0
sg41
I0
sg42
I0
sg43
I0
ssg44
(dp236
g40
I0
sg41
I0
sg42
I0
sg43
I0
ssg46
S'MSL9'
p237
sg48
I0
sg49
I0
sg50
I0
sg51
I0
sg52
(g53
S'DL'
p238
g47
g47
tp239
sg58
(ijoueur
rang
p240
(dp241
g33
I5
sg34
S'**'
p242
sg36
g139
sbsg61
(dp243
g40
I0
sg41
I0
sg42
I0
sg43
I0
ssg63
(dp244
g40
I0
sg41
I0
sg42
I0
sg43
I0
ssg65
(dp245
g40
I0
sg41
I0
sg42
I0
sg43
I0
ssg67
(dp246
g40
I0
sg41
I0
sg42
I0
sg43
I0
ssg69
I0
sg70
I0
sg71
S'Dopregd'
p247
sg73
I6
sg74
I0
sg75
I18
sg76
I153
sg77
g78
sg79
(dp248
g81
I10
sg82
I7
sg83
I7
sg84
I12
sg85
I4
sg86
I10
sg87
I5
sg88
I10
sg89
I13
sg90
I10
sg91
I7
sg92
I8
sg93
I5
sg94
I10
sg95
I4
ssg96
I0
sg97
I0
sg98
I0
sg99
I0
sg100
F10.0
sg101
I0
sg102
I0
sg103
I0
sg104
g248
sg105
I0
sg106
I0
sg107
I0
sg108
I0
sg109
I12
sg110
I1
sg111
I0
sg112
S'HB'
p249
sbsS'drop2'
p250
g134
sS'SA_remp2'
p251
(ijoueur
joueur
p252
(dp253
g27
I0
sg28
I0
sg29
I0
sg30
(ijoueur
rang
p254
(dp255
g33
I5
sg34
S'**'
p256
sg36
g139
sbsg38
(dp257
g40
I0
sg41
I0
sg42
I0
sg43
I0
ssg44
(dp258
g40
I0
sg41
I0
sg42
I0
sg43
I0
ssg46
g47
sg48
I0
sg49
I0
sg50
I0
sg51
I0
sg52
(g53
S'PI'
p259
S'N8'
p260
S'DL'
p261
tp262
sg58
(ijoueur
rang
p263
(dp264
g33
I5
sg34
S'**'
p265
sg36
g139
sbsg61
(dp266
g40
I0
sg41
I0
sg42
I0
sg43
I0
ssg63
(dp267
g40
I0
sg41
I0
sg42
I0
sg43
I0
ssg65
(dp268
g40
I0
sg41
I0
sg42
I0
sg43
I0
ssg67
(dp269
g40
I0
sg41
I0
sg42
I0
sg43
I0
ssg69
I0
sg70
I0
sg71
S'Dylzohed'
p270
sg73
I6
sg74
I0
sg75
I16
sg76
I210
sg77
g78
sg79
(dp271
g81
I10
sg82
I11
sg83
I7
sg84
I11
sg85
I4
sg86
I11
sg87
I2
sg88
I11
sg89
I12
sg90
I12
sg91
I7
sg92
I10
sg93
I4
sg94
I12
sg95
I8
ssg96
I0
sg97
I0
sg98
I0
sg99
I0
sg100
F11.0
sg101
I0
sg102
I0
sg103
I0
sg104
g271
sg105
I0
sg106
I0
sg107
I0
sg108
I0
sg109
I21
sg110
I12
sg111
I0
sg112
S'CHS'
p272
sbssS'totaux'
p273
(dp274
g19
I0
sg20
I0
sg21
I0
ssS'_compo_defaut_fatigue'
p275
Nsg79
(dp276
g4
I0
sg5
I0
sg6
I0
sg7
I0
sg8
I0
sg9
I0
sg10
I0
sg11
I0
sg12
I0
sg13
I0
sg14
I0
sg15
I0
sg16
I0
ssS'joueurs'
p277
(dp278
S'n12'
p279
g25
sS'n13'
p280
(ijoueur
joueur
p281
(dp282
g27
I0
sg28
I0
sg29
I0
sg30
(ijoueur
rang
p283
(dp284
g33
I3
sg34
S'^^^'
p285
sg36
S'rare'
p286
sbsg38
(dp287
g40
I0
sg41
I0
sg42
I0
sg43
I0
ssg44
(dp288
g40
I0
sg41
I0
sg42
I0
sg43
I0
ssg46
S'MSL11'
p289
sg48
I0
sg49
I0
sg50
I0
sg51
I0
sg52
(g53
S'AR'
p290
S'AI'
p291
S'CE'
p292
tp293
sg58
(ijoueur
rang
p294
(dp295
g33
I3
sg34
S'^^^'
p296
sg36
g286
sbsg61
(dp297
g40
I0
sg41
I0
sg42
I0
sg43
I0
ssg63
(dp298
g40
I0
sg41
I0
sg42
I0
sg43
I0
ssg65
(dp299
g40
I0
sg41
I0
sg42
I0
sg43
I0
ssg67
(dp300
g40
I0
sg41
I0
sg42
I0
sg43
I0
ssg69
I0
sg70
I0
sg71
S'De Portel'
p301
sg73
I2
sg74
I0
sg75
I15
sg76
I100
sg77
g78
sg79
(dp302
g81
I11
sg82
I5
sg83
I11
sg84
I10
sg85
I10
sg86
I9
sg87
I7
sg88
I13
sg89
I3
sg90
I12
sg91
I10
sg92
I8
sg93
I6
sg94
I9
sg95
I4
ssg96
I0
sg97
I0
sg98
I0
sg99
I0
sg100
F10.393939393939394
sg101
I0
sg102
I0
sg103
I0
sg104
g302
sg105
I0
sg106
I0
sg107
I0
sg108
I0
sg109
I10
sg110
I0
sg111
I0
sg112
S'B'
p303
sbsS'n10'
p304
g134
sS'n11'
p305
(ijoueur
joueur
p306
(dp307
g27
I0
sg28
I0
sg29
I0
sg30
(ijoueur
rang
p308
(dp309
g33
I5
sg34
S'xx'
p310
sg36
g139
sbsg38
(dp311
g40
I0
sg41
I0
sg42
I0
sg43
I0
ssg44
(dp312
g40
I0
sg41
I0
sg42
I0
sg43
I0
ssg46
g47
sg48
I0
sg49
I0
sg50
I0
sg51
I0
sg52
(g53
S'AI'
p313
S'AR'
p314
g47
tp315
sg58
(ijoueur
rang
p316
(dp317
g33
I5
sg34
S'xx'
p318
sg36
g139
sbsg61
(dp319
g40
I0
sg41
I0
sg42
I0
sg43
I0
ssg63
(dp320
g40
I0
sg41
I0
sg42
I0
sg43
I0
ssg65
(dp321
g40
I0
sg41
I0
sg42
I0
sg43
I0
ssg67
(dp322
g40
I0
sg41
I0
sg42
I0
sg43
I0
ssg69
I0
sg70
I0
sg71
S'Thrond'
p323
sg73
I4
sg74
I0
sg75
I11
sg76
I236
sg77
g78
sg79
(dp324
g81
I11
sg82
I6
sg83
I10
sg84
I12
sg85
I7
sg86
I10
sg87
I6
sg88
I13
sg89
I6
sg90
I8
sg91
I9
sg92
I6
sg93
I5
sg94
I12
sg95
I6
ssg96
I0
sg97
I0
sg98
I0
sg99
I0
sg100
F10.580645161290322
sg101
I0
sg102
I0
sg103
I0
sg104
g324
sg105
I0
sg106
I0
sg107
I0
sg108
I0
sg109
I24
sg110
I16
sg111
I0
sg112
S'N'
p325
sbsS'n16'
p326
(ijoueur
joueur
p327
(dp328
g27
I0
sg28
I0
sg29
I0
sg30
(ijoueur
rang
p329
(dp330
g33
I1
sg34
S'^'
p331
sg36
S'base'
p332
sbsg38
(dp333
g40
I0
sg41
I0
sg42
I0
sg43
I0
ssg44
(dp334
g40
I0
sg41
I0
sg42
I0
sg43
I0
ssg46
g47
sg48
I0
sg49
I0
sg50
I0
sg51
I0
sg52
(g53
S'TA'
p335
g47
g47
tp336
sg58
(ijoueur
rang
p337
(dp338
g33
I1
sg34
g331
sg36
g332
sbsg61
(dp339
g40
I0
sg41
I0
sg42
I0
sg43
I0
ssg63
(dp340
g40
I0
sg41
I0
sg42
I0
sg43
I0
ssg65
(dp341
g40
I0
sg41
I0
sg42
I0
sg43
I0
ssg67
(dp342
g40
I0
sg41
I0
sg42
I0
sg43
I0
ssg69
I0
sg70
I0
sg71
S'Naitheor'
p343
sg73
I11
sg74
I0
sg75
I20
sg76
I29
sg77
g78
sg79
(dp344
g81
I11
sg82
I8
sg83
I8
sg84
I9
sg85
I5
sg86
I8
sg87
I3
sg88
I9
sg89
I7
sg90
I8
sg91
I7
sg92
I9
sg93
I3
sg94
I9
sg95
I12
ssg96
I0
sg97
I0
sg98
I0
sg99
I0
sg100
F9.344827586206897
sg101
I0
sg102
I0
sg103
I0
sg104
g344
sg105
I0
sg106
I0
sg107
I0
sg108
I0
sg109
I3
sg110
I0
sg111
I0
sg112
S'CHS'
p345
sbsS'n17'
p346
(ijoueur
joueur
p347
(dp348
g27
I0
sg28
I0
sg29
I0
sg30
(ijoueur
rang
p349
(dp350
g33
I5
sg34
S'**'
p351
sg36
g139
sbsg38
(dp352
g40
I0
sg41
I0
sg42
I0
sg43
I0
ssg44
(dp353
g40
I0
sg41
I0
sg42
I0
sg43
I0
ssg46
g47
sg48
I0
sg49
I0
sg50
I0
sg51
I0
sg52
(g53
S'PI'
p354
g47
g47
tp355
sg58
(ijoueur
rang
p356
(dp357
g33
I4
sg34
S'x'
p358
sg36
g37
sbsg61
(dp359
g40
I0
sg41
I0
sg42
I0
sg43
I0
ssg63
(dp360
g40
I0
sg41
I0
sg42
I0
sg43
I0
ssg65
(dp361
g40
I0
sg41
I0
sg42
I0
sg43
I0
ssg67
(dp362
g40
I0
sg41
I0
sg42
I0
sg43
I0
ssg69
I0
sg70
I0
sg71
S'Nravyx'
p363
sg73
I9
sg74
I0
sg75
I25
sg76
I114
sg77
g78
sg79
(dp364
g81
I10
sg82
I10
sg83
I9
sg84
I8
sg85
I4
sg86
I11
sg87
I3
sg88
I13
sg89
I9
sg90
I10
sg91
I8
sg92
I7
sg93
I3
sg94
I10
sg95
I8
ssg96
I0
sg97
I0
sg98
I0
sg99
I0
sg100
F9.407407407407407
sg101
I0
sg102
I0
sg103
I0
sg104
g364
sg105
I0
sg106
I0
sg107
I0
sg108
I0
sg109
I12
sg110
I0
sg111
I0
sg112
S'CHS'
p365
sbsS'n14'
p366
(ijoueur
joueur
p367
(dp368
g27
I0
sg28
I0
sg29
I0
sg30
(ijoueur
rang
p369
(dp370
g33
I5
sg34
S'**'
p371
sg36
g139
sbsg38
(dp372
g40
I0
sg41
I0
sg42
I0
sg43
I0
ssg44
(dp373
g40
I0
sg41
I0
sg42
I0
sg43
I0
ssg46
g47
sg48
I0
sg49
I0
sg50
I0
sg51
I0
sg52
(g53
S'AI'
p374
g47
g47
tp375
sg58
(ijoueur
rang
p376
(dp377
g33
I5
sg34
S'**'
p378
sg36
g139
sbsg61
(dp379
g40
I0
sg41
I0
sg42
I0
sg43
I0
ssg63
(dp380
g40
I0
sg41
I0
sg42
I0
sg43
I0
ssg65
(dp381
g40
I0
sg41
I0
sg42
I0
sg43
I0
ssg67
(dp382
g40
I0
sg41
I0
sg42
I0
sg43
I0
ssg69
I0
sg70
I0
sg71
S'Lamene'
p383
sg73
I5
sg74
I0
sg75
I16
sg76
I165
sg77
g78
sg79
(dp384
g81
I9
sg82
I7
sg83
I13
sg84
I11
sg85
I6
sg86
I9
sg87
I6
sg88
I15
sg89
I7
sg90
I11
sg91
I11
sg92
I10
sg93
I6
sg94
I13
sg95
I4
ssg96
I0
sg97
I0
sg98
I0
sg99
I0
sg100
F11.290322580645162
sg101
I0
sg102
I0
sg103
I0
sg104
g384
sg105
I0
sg106
I0
sg107
I0
sg108
I0
sg109
I19
sg110
I31
sg111
I0
sg112
g303
sbsS'n15'
p385
g179
sS'n18'
p386
g230
sS'n19'
p387
(ijoueur
joueur
p388
(dp389
g27
I0
sg28
I0
sg29
I0
sg30
(ijoueur
rang
p390
(dp391
g33
I4
sg34
g35
sg36
g37
sbsg38
(dp392
g40
I0
sg41
I0
sg42
I0
sg43
I0
ssg44
(dp393
g40
I0
sg41
I0
sg42
I0
sg43
I0
ssg46
S'ALT8'
p394
sg48
I0
sg49
I0
sg50
I0
sg51
I0
sg52
(g53
S'N8'
p395
S'TL'
p396
S'DL'
p397
tp398
sg58
(ijoueur
rang
p399
(dp400
g33
I4
sg34
g35
sg36
g37
sbsg61
(dp401
g40
I0
sg41
I0
sg42
I0
sg43
I0
ssg63
(dp402
g40
I0
sg41
I0
sg42
I0
sg43
I0
ssg65
(dp403
g40
I0
sg41
I0
sg42
I0
sg43
I0
ssg67
(dp404
g40
I0
sg41
I0
sg42
I0
sg43
I0
ssg69
I0
sg70
I0
sg71
S'Garrin'
p405
sg73
I1
sg74
I0
sg75
I10
sg76
I98
sg77
g78
sg79
(dp406
g81
I9
sg82
I10
sg83
I8
sg84
I11
sg85
I8
sg86
I10
sg87
I3
sg88
I11
sg89
I9
sg90
I10
sg91
I7
sg92
I10
sg93
I5
sg94
I9
sg95
I5
ssg96
I0
sg97
I0
sg98
I0
sg99
I0
sg100
F9.931034482758621
sg101
I0
sg102
I0
sg103
I0
sg104
g406
sg105
I0
sg106
I0
sg107
I0
sg108
I0
sg109
I13
sg110
I3
sg111
I0
sg112
S'EMP'
p407
sbsS'n22'
p408
(ijoueur
joueur
p409
(dp410
g27
I0
sg28
I0
sg29
I0
sg30
(ijoueur
rang
p411
(dp412
g33
I2
sg34
S'<<'
p413
sg36
g184
sbsg38
(dp414
g40
I0
sg41
I0
sg42
I0
sg43
I0
ssg44
(dp415
g40
I0
sg41
I0
sg42
I0
sg43
I0
ssg46
g47
sg48
I0
sg49
I0
sg50
I0
sg51
I0
sg52
(g53
S'AR'
p416
S'CE'
p417
S'DO'
p418
tp419
sg58
(ijoueur
rang
p420
(dp421
g33
I2
sg34
S'<<'
p422
sg36
g184
sbsg61
(dp423
g40
I0
sg41
I0
sg42
I0
sg43
I0
ssg63
(dp424
g40
I0
sg41
I0
sg42
I0
sg43
I0
ssg65
(dp425
g40
I0
sg41
I0
sg42
I0
sg43
I0
ssg67
(dp426
g40
I0
sg41
I0
sg42
I0
sg43
I0
ssg69
I0
sg70
I0
sg71
S'Northend'
p427
sg73
I4
sg74
I0
sg75
I16
sg76
I19
sg77
g78
sg79
(dp428
g81
I11
sg82
I4
sg83
I7
sg84
I8
sg85
I8
sg86
I7
sg87
I8
sg88
I7
sg89
I8
sg90
I8
sg91
I13
sg92
I8
sg93
I8
sg94
I11
sg95
I5
ssg96
I0
sg97
I0
sg98
I0
sg99
I0
sg100
F9.545454545454545
sg101
I0
sg102
I0
sg103
I0
sg104
g428
sg105
I0
sg106
I0
sg107
I0
sg108
I0
sg109
I3
sg110
I4
sg111
I0
sg112
S'EN'
p429
sbsS'n21'
p430
(ijoueur
joueur
p431
(dp432
g27
I0
sg28
I0
sg29
I0
sg30
(ijoueur
rang
p433
(dp434
g33
I2
sg34
S'<<'
p435
sg36
g184
sbsg38
(dp436
g40
I0
sg41
I0
sg42
I0
sg43
I0
ssg44
(dp437
g40
I0
sg41
I0
sg42
I0
sg43
I0
ssg46
g47
sg48
I0
sg49
I0
sg50
I0
sg51
I0
sg52
(g53
S'C2'
p438
S'AI'
p439
g47
tp440
sg58
(ijoueur
rang
p441
(dp442
g33
I2
sg34
S'<<'
p443
sg36
g184
sbsg61
(dp444
g40
I0
sg41
I0
sg42
I0
sg43
I0
ssg63
(dp445
g40
I0
sg41
I0
sg42
I0
sg43
I0
ssg65
(dp446
g40
I0
sg41
I0
sg42
I0
sg43
I0
ssg67
(dp447
g40
I0
sg41
I0
sg42
I0
sg43
I0
ssg69
I0
sg70
I0
sg71
S'Laror'
p448
sg73
I8
sg74
I0
sg75
I19
sg76
I29
sg77
g78
sg79
(dp449
g81
I9
sg82
I4
sg83
I6
sg84
I9
sg85
I10
sg86
I9
sg87
I9
sg88
I9
sg89
I4
sg90
I12
sg91
I9
sg92
I5
sg93
I6
sg94
I11
sg95
I6
ssg96
I0
sg97
I0
sg98
I0
sg99
I0
sg100
F9.517241379310345
sg101
I0
sg102
I0
sg103
I0
sg104
g449
sg105
I0
sg106
I0
sg107
I0
sg108
I0
sg109
I2
sg110
I0
sg111
I0
sg112
S'CHS'
p450
sbsS'n20'
p451
(ijoueur
joueur
p452
(dp453
g27
I0
sg28
I1
sg29
I0
sg30
(ijoueur
rang
p454
(dp455
g33
I2
sg34
S'^^'
p456
sg36
g184
sbsg38
(dp457
g40
I0
sg41
I0
sg42
I0
sg43
I0
ssg44
(dp458
g40
I0
sg41
I0
sg42
I0
sg43
I0
ssg46
g47
sg48
I0
sg49
I0
sg50
I0
sg51
I0
sg52
(g53
S'C1'
p459
S'DO'
p460
g47
tp461
sg58
(ijoueur
rang
p462
(dp463
g33
I2
sg34
S'^^'
p464
sg36
g184
sbsg61
(dp465
g40
I0
sg41
I0
sg42
I0
sg43
I0
ssg63
(dp466
g40
I0
sg41
I0
sg42
I0
sg43
I0
ssg65
(dp467
g40
I0
sg41
I0
sg42
I0
sg43
I0
ssg67
(dp468
g40
I0
sg41
I0
sg42
I0
sg43
I0
ssg69
I68
sg70
I0
sg71
S'Rieulex'
p469
sg73
I1
sg74
I47
sg75
I9
sg76
I40
sg77
g78
sg79
(dp470
g81
I9
sg82
I5
sg83
I6
sg84
I9
sg85
I9
sg86
I8
sg87
I9
sg88
I8
sg89
I7
sg90
I10
sg91
I7
sg92
I6
sg93
I9
sg94
I10
sg95
I5
ssg96
I0
sg97
I0
sg98
I0
sg99
I0
sg100
F8.78125
sg101
I0
sg102
I0
sg103
I0
sg104
g470
sg105
I0
sg106
I0
sg107
I0
sg108
I0
sg109
I6
sg110
I9
sg111
I0
sg112
g303
sbsS'n8'
p471
(ijoueur
joueur
p472
(dp473
g27
I0
sg28
I0
sg29
I0
sg30
(ijoueur
rang
p474
(dp475
g33
I4
sg34
g35
sg36
g37
sbsg38
(dp476
g40
I0
sg41
I0
sg42
I0
sg43
I0
ssg44
(dp477
g40
I0
sg41
I0
sg42
I0
sg43
I0
ssg46
S'QNL11'
p478
sg48
I0
sg49
I0
sg50
I0
sg51
I0
sg52
(g53
S'TL'
p479
S'N8'
p480
g47
tp481
sg58
(ijoueur
rang
p482
(dp483
g33
I4
sg34
g35
sg36
g37
sbsg61
(dp484
g40
I0
sg41
I0
sg42
I0
sg43
I0
ssg63
(dp485
g40
I0
sg41
I0
sg42
I0
sg43
I0
ssg65
(dp486
g40
I0
sg41
I0
sg42
I0
sg43
I0
ssg67
(dp487
g40
I0
sg41
I0
sg42
I0
sg43
I0
ssg69
I0
sg70
I0
sg71
S'Vgadhr'
p488
sg73
I7
sg74
I0
sg75
I20
sg76
I494
sg77
g78
sg79
(dp489
g81
I9
sg82
I10
sg83
I7
sg84
I12
sg85
I6
sg86
I11
sg87
I5
sg88
I11
sg89
I10
sg90
I8
sg91
I10
sg92
I11
sg93
I4
sg94
I12
sg95
I6
ssg96
I0
sg97
I0
sg98
I0
sg99
I0
sg100
F10.903225806451612
sg101
I0
sg102
I0
sg103
I0
sg104
g489
sg105
I0
sg106
I0
sg107
I0
sg108
I0
sg109
I42
sg110
I9
sg111
I0
sg112
S'HB'
p490
sbsS'n9'
p491
(ijoueur
joueur
p492
(dp493
g27
I0
sg28
I0
sg29
I0
sg30
(ijoueur
rang
p494
(dp495
g33
I6
sg34
S'***'
p496
sg36
S'personnage'
p497
sbsg38
(dp498
g40
I0
sg41
I0
sg42
I0
sg43
I0
ssg44
(dp499
g40
I0
sg41
I0
sg42
I0
sg43
I0
ssg46
g47
sg48
I0
sg49
I0
sg50
I0
sg51
I0
sg52
(g53
S'DM'
p500
S'DO'
p501
S'AR'
p502
tp503
sg58
(ijoueur
rang
p504
(dp505
g33
I6
sg34
S'***'
p506
sg36
g497
sbsg61
(dp507
g40
I0
sg41
I0
sg42
I0
sg43
I0
ssg63
(dp508
g40
I0
sg41
I0
sg42
I0
sg43
I0
ssg65
(dp509
g40
I0
sg41
I0
sg42
I0
sg43
I0
ssg67
(dp510
g40
I0
sg41
I0
sg42
I0
sg43
I0
ssg69
I0
sg70
I0
sg71
S'Eltharion'
p511
sg73
I8
sg74
I0
sg75
I15
sg76
I587
sg77
g78
sg79
(dp512
g81
I14
sg82
I5
sg83
I9
sg84
I12
sg85
I10
sg86
I7
sg87
I9
sg88
I9
sg89
I7
sg90
I14
sg91
I8
sg92
I7
sg93
I8
sg94
I11
sg95
I7
ssg96
I0
sg97
I0
sg98
I0
sg99
I0
sg100
F11.10344827586207
sg101
I0
sg102
I0
sg103
I0
sg104
g512
sg105
I0
sg106
I0
sg107
I0
sg108
I0
sg109
I59
sg110
I4
sg111
I0
sg112
S'HE'
p513
sbsS'n1'
p514
g252
sS'n2'
p515
(ijoueur
joueur
p516
(dp517
g27
I0
sg28
I0
sg29
I0
sg30
(ijoueur
rang
p518
(dp519
g33
I5
sg34
S'**'
p520
sg36
g139
sbsg38
(dp521
g40
I0
sg41
I0
sg42
I0
sg43
I0
ssg44
(dp522
g40
I0
sg41
I0
sg42
I0
sg43
I0
ssg46
S'FS9'
p523
sg48
I0
sg49
I0
sg50
I0
sg51
I0
sg52
(g53
S'TA'
p524
S'TL'
p525
S'N8'
p526
tp527
sg58
(ijoueur
rang
p528
(dp529
g33
I5
sg34
S'**'
p530
sg36
g139
sbsg61
(dp531
g40
I0
sg41
I0
sg42
I0
sg43
I0
ssg63
(dp532
g40
I0
sg41
I0
sg42
I0
sg43
I0
ssg65
(dp533
g40
I0
sg41
I0
sg42
I0
sg43
I0
ssg67
(dp534
g40
I0
sg41
I0
sg42
I0
sg43
I0
ssg69
I0
sg70
I0
sg71
S'Gound'
p535
sg73
I2
sg74
I0
sg75
I10
sg76
I119
sg77
g78
sg79
(dp536
g81
I9
sg82
I8
sg83
I6
sg84
I11
sg85
I4
sg86
I10
sg87
I4
sg88
I10
sg89
I6
sg90
I9
sg91
I9
sg92
I11
sg93
I3
sg94
I6
sg95
I10
ssg96
I0
sg97
I0
sg98
I0
sg99
I0
sg100
F9.448275862068966
sg101
I0
sg102
I0
sg103
I0
sg104
g536
sg105
I0
sg106
I0
sg107
I0
sg108
I0
sg109
I19
sg110
I14
sg111
I0
sg112
S'O'
p537
sbsS'n3'
p538
(ijoueur
joueur
p539
(dp540
g27
I0
sg28
I0
sg29
I0
sg30
(ijoueur
rang
p541
(dp542
g33
I4
sg34
g35
sg36
g37
sbsg38
(dp543
g40
I0
sg41
I0
sg42
I0
sg43
I0
ssg44
(dp544
g40
I0
sg41
I0
sg42
I0
sg43
I0
ssg46
S'AL11'
p545
sg48
I0
sg49
I0
sg50
I0
sg51
I0
sg52
(g53
S'PI'
p546
g47
g47
tp547
sg58
(ijoueur
rang
p548
(dp549
g33
I4
sg34
g35
sg36
g37
sbsg61
(dp550
g40
I0
sg41
I0
sg42
I0
sg43
I0
ssg63
(dp551
g40
I0
sg41
I0
sg42
I0
sg43
I0
ssg65
(dp552
g40
I0
sg41
I0
sg42
I0
sg43
I0
ssg67
(dp553
g40
I0
sg41
I0
sg42
I0
sg43
I0
ssg69
I0
sg70
I0
sg71
S'Stavaer'
p554
sg73
I5
sg74
I0
sg75
I15
sg76
I168
sg77
g78
sg79
(dp555
g81
I11
sg82
I9
sg83
I8
sg84
I11
sg85
I8
sg86
I11
sg87
I6
sg88
I12
sg89
I7
sg90
I10
sg91
I7
sg92
I10
sg93
I9
sg94
I12
sg95
I7
ssg96
I0
sg97
I0
sg98
I0
sg99
I0
sg100
F10.518518518518519
sg101
I0
sg102
I0
sg103
I0
sg104
g555
sg105
I0
sg106
I0
sg107
I0
sg108
I0
sg109
I7
sg110
I3
sg111
I0
sg112
S'ES'
p556
sbsS'n4'
p557
g158
sS'n5'
p558
g115
sS'n6'
p559
(ijoueur
joueur
p560
(dp561
g27
I0
sg28
I0
sg29
I0
sg30
(ijoueur
rang
p562
(dp563
g33
I1
sg34
g331
sg36
g332
sbsg38
(dp564
g40
I0
sg41
I0
sg42
I0
sg43
I0
ssg44
(dp565
g40
I0
sg41
I0
sg42
I0
sg43
I0
ssg46
g47
sg48
I0
sg49
I0
sg50
I0
sg51
I0
sg52
(g53
S'TL'
p566
S'DL'
p567
g47
tp568
sg58
(ijoueur
rang
p569
(dp570
g33
I1
sg34
g331
sg36
g332
sbsg61
(dp571
g40
I0
sg41
I0
sg42
I0
sg43
I0
ssg63
(dp572
g40
I0
sg41
I0
sg42
I0
sg43
I0
ssg65
(dp573
g40
I0
sg41
I0
sg42
I0
sg43
I0
ssg67
(dp574
g40
I0
sg41
I0
sg42
I0
sg43
I0
ssg69
I0
sg70
I0
sg71
S'Ryed'
p575
sg73
I3
sg74
I0
sg75
I14
sg76
I14
sg77
g78
sg79
(dp576
g81
I10
sg82
I9
sg83
I5
sg84
I12
sg85
I5
sg86
I11
sg87
I2
sg88
I11
sg89
I9
sg90
I8
sg91
I8
sg92
I10
sg93
I3
sg94
I11
sg95
I6
ssg96
I0
sg97
I0
sg98
I0
sg99
I0
sg100
F10.32258064516129
sg101
I0
sg102
I0
sg103
I0
sg104
g576
sg105
I0
sg106
I0
sg107
I0
sg108
I0
sg109
I1
sg110
I6
sg111
I0
sg112
S'CHS'
p577
sbsS'n7'
p578
g206
ssS'remplacements'
p579
(dp580
g326
S'n0'
p581
sg346
g581
sg386
g581
sg387
g581
sg408
g581
sg430
g581
sg451
g581
ssb.