(iclub
compo
p0
(dp1
S'caracs_old'
p2
(dp3
S'A'
p4
F192.0
sS'ME'
p5
F118.5
sS'E'
p6
I239
sS'OplusAV'
p7
F90.0
sS'TO_off'
p8
F93.0
sS'OplusAR'
p9
F84.0
sS'M'
p10
F55.0
sS'JP'
p11
F122.0
sS'OmoinsAR'
p12
F84.5
sS'PA'
p13
F131.5
sS'TO_def'
p14
F81.5
sS'OmoinsAV'
p15
F48.5
sS'R'
p16
F190.5
ssS'totaux_old'
p17
(dp18
S'T2'
p19
F222.75
sS'T3'
p20
F119.5
sS'T1'
p21
F198.125
ssS'roles'
p22
(dp23
S'drop1'
p24
(ijoueur
joueur
p25
(dp26
S'rouges_total'
p27
I0
sS'drops_total'
p28
I25
sS'blessure'
p29
I0
sS'RG_max'
p30
(ijoueur
rang
p31
(dp32
S'type_nb'
p33
I4
sS'rang'
p34
S'x'
p35
sS'type'
p36
S'heros'
p37
sbsS'MJ2_total'
p38
(dp39
S'SR'
p40
I0
sS'ST'
p41
I0
sS'CR'
p42
I0
sS'CT'
p43
I0
ssS'MJ3_total'
p44
(dp45
g40
I0
sg41
I0
sg42
I0
sg43
I0
ssS'drop_rates_total'
p46
I0
sS'drop_rates_saison'
p47
I0
sS'essais_saison'
p48
I0
sS'penalite_ratees_saison'
p49
I0
sS'transformations_saison'
p50
I0
sS'postes'
p51
(S'dummy'
p52
S'C1'
p53
S'DO'
p54
S'PI'
p55
tp56
sS'RG'
p57
(ijoueur
rang
p58
(dp59
g33
I4
sg34
g35
sg36
g37
sbsS'MJ1'
p60
(dp61
g40
I0
sg41
I0
sg42
I0
sg43
I0
ssS'MJ2'
p62
(dp63
g40
I0
sg41
I0
sg42
I0
sg43
I0
ssS'MJ3'
p64
(dp65
g40
I0
sg41
I0
sg42
I0
sg43
I0
ssS'MJ1_total'
p66
(dp67
g40
I0
sg41
I0
sg42
I0
sg43
I0
ssS'penalites_total'
p68
I2
sS'penalites_saison'
p69
I0
sS'nom'
p70
S'Naedol'
p71
sS'C'
p72
I4
sS'transformations_total'
p73
I1
sS'D'
p74
I14
sS'VAL'
p75
I250
sS'club'
p76
S'MRB'
p77
sS'caracs'
p78
(dp79
S'A'
p80
I14
sS'ME'
p81
I9
sS'RP2'
p82
I10
sS'E'
p83
I14
sS'TO'
p84
I12
sS'RP1'
p85
I7
sS'JP'
p86
I12
sS'RP_tot'
p87
I10
sS'P'
p88
I10
sS'PA'
p89
I16
sS'M'
p90
I9
sS'R'
p91
I8
sS'TB'
p92
I11
sS'PL'
p93
I12
sS'TA'
p94
I7
ssS'fatigue'
p95
I0
sS'drop_ratees_total'
p96
I0
sS'blessures_total'
p97
I0
sS'XP'
p98
I0
sS'EV'
p99
F12.1
sS'penalite_ratees_total'
p100
I0
sS'blessures_saison'
p101
I0
sS'jaunes_total'
p102
I0
sS'caracs_sans_fatigue'
p103
g79
sS'rouges_saison'
p104
I0
sS'anciens_clubs'
p105
S''
p106
sS'transformation_ratees_total'
p107
I0
sS'drops_saison'
p108
I0
sS'transformation_ratees_saison'
p109
I0
sS'MS'
p110
I25
sS'essais_total'
p111
I21
sS'jaunes_saison'
p112
I0
sS'ARM'
p113
S'EN'
p114
sbsS'SA_scd'
p115
(ijoueur
joueur
p116
(dp117
g27
I0
sg28
I0
sg29
I0
sg30
(ijoueur
rang
p118
(dp119
g33
I2
sg34
S'<<'
p120
sg36
S'special'
p121
sbsg38
(dp122
g40
I0
sg41
I0
sg42
I0
sg43
I0
ssg44
(dp123
g40
I0
sg41
I0
sg42
I0
sg43
I0
ssg46
I0
sg47
I0
sg48
I0
sg49
I0
sg50
I0
sg51
(g52
S'TL'
p124
S'N8'
p125
g106
tp126
sg57
(ijoueur
rang
p127
(dp128
g33
I2
sg34
S'<<'
p129
sg36
g121
sbsg60
(dp130
g40
I0
sg41
I0
sg42
I0
sg43
I0
ssg62
(dp131
g40
I0
sg41
I0
sg42
I0
sg43
I0
ssg64
(dp132
g40
I0
sg41
I0
sg42
I0
sg43
I0
ssg66
(dp133
g40
I0
sg41
I0
sg42
I0
sg43
I0
ssg68
I0
sg69
I0
sg70
S'Dvonen'
p134
sg72
I4
sg73
I0
sg74
I13
sg75
I11
sg76
g77
sg78
(dp135
g80
I9
sg81
I10
sg82
I6
sg83
I11
sg84
I10
sg85
I9
sg86
I5
sg87
I9
sg88
I5
sg89
I9
sg90
I10
sg91
I10
sg92
I4
sg93
I11
sg94
I5
ssg95
I0
sg96
I0
sg97
I0
sg98
I0
sg99
F10.064516129032258
sg100
I0
sg101
I0
sg102
I0
sg103
g135
sg104
I0
sg105
g106
sg107
I0
sg108
I0
sg109
I0
sg110
I1
sg111
I4
sg112
I0
sg113
S'EN'
p136
sbsS'RJL'
p137
(ijoueur
joueur
p138
(dp139
g27
I0
sg28
I22
sg29
I0
sg30
(ijoueur
rang
p140
(dp141
g33
I4
sg34
g35
sg36
g37
sbsg38
(dp142
g40
I0
sg41
I0
sg42
I0
sg43
I0
ssg44
(dp143
g40
I0
sg41
I0
sg42
I0
sg43
I0
ssg46
I0
sg47
I0
sg48
I0
sg49
I0
sg50
I0
sg51
(g52
S'DM'
p144
S'DO'
p145
S'CE'
p146
tp147
sg57
(ijoueur
rang
p148
(dp149
g33
I4
sg34
g35
sg36
g37
sbsg60
(dp150
g40
I0
sg41
I0
sg42
I0
sg43
I0
ssg62
(dp151
g40
I0
sg41
I0
sg42
I0
sg43
I0
ssg64
(dp152
g40
I0
sg41
I0
sg42
I0
sg43
I0
ssg66
(dp153
g40
I0
sg41
I0
sg42
I0
sg43
I0
ssg68
I297
sg69
I4
sg70
S'Siloth'
p154
sg72
I3
sg73
I134
sg74
I12
sg75
I1575
sg76
g77
sg78
(dp155
g80
I13
sg81
I4
sg82
I9
sg83
I11
sg84
I10
sg85
I7
sg86
I14
sg87
I9
sg88
I13
sg89
I15
sg90
I10
sg91
I4
sg92
I12
sg93
I13
sg94
I7
ssg95
I0
sg96
I0
sg97
I0
sg98
I0
sg99
F12.206896551724139
sg100
I0
sg101
I0
sg102
I0
sg103
g155
sg104
I0
sg105
S'HTH11'
p156
sg107
I0
sg108
I0
sg109
I0
sg110
I76
sg111
I5
sg112
I0
sg113
S'EN'
p157
sbsS'cap'
p158
g25
sS'B4'
p159
g138
sS'RJC'
p160
g138
sS'B1'
p161
g138
sS'B2'
p162
g138
sS'B3'
p163
g138
sS'SA_pcp2'
p164
(ijoueur
joueur
p165
(dp166
g27
I0
sg28
I0
sg29
I0
sg30
(ijoueur
rang
p167
(dp168
g33
I1
sg34
S'^'
p169
sg36
S'base'
p170
sbsg38
(dp171
g40
I0
sg41
I0
sg42
I0
sg43
I0
ssg44
(dp172
g40
I0
sg41
I0
sg42
I0
sg43
I0
ssg46
I0
sg47
I0
sg48
I0
sg49
I0
sg50
I0
sg51
(g52
S'TL'
p173
S'DL'
p174
g106
tp175
sg57
(ijoueur
rang
p176
(dp177
g33
I1
sg34
g169
sg36
g170
sbsg60
(dp178
g40
I0
sg41
I0
sg42
I0
sg43
I0
ssg62
(dp179
g40
I0
sg41
I0
sg42
I0
sg43
I0
ssg64
(dp180
g40
I0
sg41
I0
sg42
I0
sg43
I0
ssg66
(dp181
g40
I0
sg41
I0
sg42
I0
sg43
I0
ssg68
I0
sg69
I0
sg70
S'Blaeden'
p182
sg72
I4
sg73
I0
sg74
I13
sg75
I11
sg76
g77
sg78
(dp183
g80
I9
sg81
I9
sg82
I6
sg83
I10
sg84
I11
sg85
I10
sg86
I5
sg87
I10
sg88
I5
sg89
I9
sg90
I8
sg91
I11
sg92
I5
sg93
I10
sg94
I3
ssg95
I0
sg96
I0
sg97
I0
sg98
I0
sg99
F10.157894736842104
sg100
I0
sg101
I0
sg102
I0
sg103
g183
sg104
I0
sg105
g106
sg107
I0
sg108
I0
sg109
I0
sg110
I1
sg111
I5
sg112
I0
sg113
S'HE'
p184
sbsS'SA_pcp1'
p185
(ijoueur
joueur
p186
(dp187
g27
I0
sg28
I0
sg29
I0
sg30
(ijoueur
rang
p188
(dp189
g33
I1
sg34
g169
sg36
g170
sbsg38
(dp190
g40
I0
sg41
I0
sg42
I0
sg43
I0
ssg44
(dp191
g40
I0
sg41
I0
sg42
I0
sg43
I0
ssg46
I0
sg47
I0
sg48
I0
sg49
I0
sg50
I0
sg51
(g52
S'DL'
p192
g106
g106
tp193
sg57
(ijoueur
rang
p194
(dp195
g33
I2
sg34
S'<<'
p196
sg36
g121
sbsg60
(dp197
g40
I0
sg41
I0
sg42
I0
sg43
I0
ssg62
(dp198
g40
I0
sg41
I0
sg42
I0
sg43
I0
ssg64
(dp199
g40
I0
sg41
I0
sg42
I0
sg43
I0
ssg66
(dp200
g40
I0
sg41
I0
sg42
I0
sg43
I0
ssg68
I0
sg69
I0
sg70
S'Prendt'
p201
sg72
I9
sg73
I0
sg74
I20
sg75
I30
sg76
g77
sg78
(dp202
g80
I11
sg81
I11
sg82
I6
sg83
I12
sg84
I11
sg85
I7
sg86
I4
sg87
I7
sg88
I5
sg89
I7
sg90
I9
sg91
I9
sg92
I4
sg93
I7
sg94
I4
ssg95
I0
sg96
I0
sg97
I0
sg98
I0
sg99
F9.588235294117647
sg100
I0
sg101
I0
sg102
I0
sg103
g202
sg104
I0
sg105
g106
sg107
I0
sg108
I0
sg109
I0
sg110
I3
sg111
I0
sg112
I0
sg113
S'EMP'
p203
sbsS'drop3'
p204
(ijoueur
joueur
p205
(dp206
g27
I0
sg28
I1
sg29
I0
sg30
(ijoueur
rang
p207
(dp208
g33
I4
sg34
S'*'
p209
sg36
g37
sbsg38
(dp210
g40
I0
sg41
I0
sg42
I0
sg43
I0
ssg44
(dp211
g40
I0
sg41
I0
sg42
I0
sg43
I0
ssg46
I0
sg47
I0
sg48
I0
sg49
I0
sg50
I0
sg51
(g52
S'AR'
p212
S'CE'
p213
S'DO'
p214
tp215
sg57
(ijoueur
rang
p216
(dp217
g33
I5
sg34
S'**'
p218
sg36
S'seigneur'
p219
sbsg60
(dp220
g40
I0
sg41
I0
sg42
I0
sg43
I0
ssg62
(dp221
g40
I0
sg41
I0
sg42
I0
sg43
I0
ssg64
(dp222
g40
I0
sg41
I0
sg42
I0
sg43
I0
ssg66
(dp223
g40
I0
sg41
I0
sg42
I0
sg43
I0
ssg68
I0
sg69
I0
sg70
S'Refed'
p224
sg72
I6
sg73
I0
sg74
I17
sg75
I172
sg76
g77
sg78
(dp225
g80
I14
sg81
I4
sg82
I11
sg83
I12
sg84
I8
sg85
I6
sg86
I11
sg87
I11
sg88
I10
sg89
I13
sg90
I11
sg91
I10
sg92
I10
sg93
I12
sg94
I3
ssg95
I0
sg96
I0
sg97
I0
sg98
I0
sg99
F11.93939393939394
sg100
I0
sg101
I0
sg102
I0
sg103
g225
sg104
I0
sg105
S'QNL10'
p226
sg107
I0
sg108
I0
sg109
I0
sg110
I14
sg111
I7
sg112
I0
sg113
S'EN'
p227
sbsS'SA_remp1'
p228
(ijoueur
joueur
p229
(dp230
g27
I0
sg28
I0
sg29
I0
sg30
(ijoueur
rang
p231
(dp232
g33
I4
sg34
g209
sg36
g37
sbsg38
(dp233
g40
I0
sg41
I0
sg42
I0
sg43
I0
ssg44
(dp234
g40
I0
sg41
I0
sg42
I0
sg43
I0
ssg46
I0
sg47
I0
sg48
I0
sg49
I0
sg50
I0
sg51
(g52
S'TL'
p235
g106
g106
tp236
sg57
(ijoueur
rang
p237
(dp238
g33
I4
sg34
g209
sg36
g37
sbsg60
(dp239
g40
I0
sg41
I0
sg42
I0
sg43
I0
ssg62
(dp240
g40
I0
sg41
I0
sg42
I0
sg43
I0
ssg64
(dp241
g40
I0
sg41
I0
sg42
I0
sg43
I0
ssg66
(dp242
g40
I0
sg41
I0
sg42
I0
sg43
I0
ssg68
I0
sg69
I0
sg70
S'Prateps'
p243
sg72
I3
sg73
I0
sg74
I16
sg75
I112
sg76
g77
sg78
(dp244
g80
I12
sg81
I9
sg82
I8
sg83
I10
sg84
I10
sg85
I8
sg86
I6
sg87
I9
sg88
I6
sg89
I11
sg90
I9
sg91
I11
sg92
I5
sg93
I8
sg94
I7
ssg95
I0
sg96
I0
sg97
I0
sg98
I0
sg99
F9.894736842105264
sg100
I0
sg101
I0
sg102
I0
sg103
g244
sg104
I0
sg105
S'ED9'
p245
sg107
I0
sg108
I0
sg109
I0
sg110
I10
sg111
I2
sg112
I0
sg113
S'S'
p246
sbsS'drop2'
p247
g138
sS'SA_remp2'
p248
(ijoueur
joueur
p249
(dp250
g27
I0
sg28
I0
sg29
I0
sg30
(ijoueur
rang
p251
(dp252
g33
I6
sg34
S'***'
p253
sg36
S'personnage'
p254
sbsg38
(dp255
g40
I0
sg41
I0
sg42
I0
sg43
I0
ssg44
(dp256
g40
I0
sg41
I0
sg42
I0
sg43
I0
ssg46
I0
sg47
I0
sg48
I0
sg49
I0
sg50
I0
sg51
(g52
S'N8'
p257
S'TL'
p258
g106
tp259
sg57
(ijoueur
rang
p260
(dp261
g33
I6
sg34
S'***'
p262
sg36
g254
sbsg60
(dp263
g40
I0
sg41
I0
sg42
I0
sg43
I0
ssg62
(dp264
g40
I0
sg41
I0
sg42
I0
sg43
I0
ssg64
(dp265
g40
I0
sg41
I0
sg42
I0
sg43
I0
ssg66
(dp266
g40
I0
sg41
I0
sg42
I0
sg43
I0
ssg68
I0
sg69
I0
sg70
S'Grimgor'
p267
sg72
I11
sg73
I0
sg74
I18
sg75
I940
sg76
g77
sg78
(dp268
g80
I10
sg81
I10
sg82
I7
sg83
I13
sg84
I8
sg85
I12
sg86
I4
sg87
I12
sg88
I2
sg89
I10
sg90
I9
sg91
I9
sg92
I5
sg93
I13
sg94
I7
ssg95
I0
sg96
I0
sg97
I0
sg98
I0
sg99
F11.0
sg100
I0
sg101
I0
sg102
I0
sg103
g268
sg104
I0
sg105
g106
sg107
I0
sg108
I0
sg109
I0
sg110
I68
sg111
I0
sg112
I0
sg113
S'O'
p269
sbssS'totaux'
p270
(dp271
g19
I0
sg20
I0
sg21
I0
ssS'_compo_defaut_fatigue'
p272
Nsg78
(dp273
g4
I0
sg5
I0
sg6
I0
sg7
I0
sg8
I0
sg9
I0
sg10
I0
sg11
I0
sg12
I0
sg13
I0
sg14
I0
sg15
I0
sg16
I0
ssS'joueurs'
p274
(dp275
S'n12'
p276
g25
sS'n13'
p277
(ijoueur
joueur
p278
(dp279
g27
I0
sg28
I0
sg29
I0
sg30
(ijoueur
rang
p280
(dp281
g33
I4
sg34
g35
sg36
g37
sbsg38
(dp282
g40
I0
sg41
I0
sg42
I0
sg43
I0
ssg44
(dp283
g40
I0
sg41
I0
sg42
I0
sg43
I0
ssg46
I0
sg47
I0
sg48
I0
sg49
I0
sg50
I0
sg51
(g52
S'C1'
p284
S'DO'
p285
g106
tp286
sg57
(ijoueur
rang
p287
(dp288
g33
I4
sg34
g35
sg36
g37
sbsg60
(dp289
g40
I0
sg41
I0
sg42
I0
sg43
I0
ssg62
(dp290
g40
I0
sg41
I0
sg42
I0
sg43
I0
ssg64
(dp291
g40
I0
sg41
I0
sg42
I0
sg43
I0
ssg66
(dp292
g40
I0
sg41
I0
sg42
I0
sg43
I0
ssg68
I0
sg69
I0
sg70
S'Jopleur'
p293
sg72
I8
sg73
I0
sg74
I20
sg75
I100
sg76
g77
sg78
(dp294
g80
I8
sg81
I6
sg82
I8
sg83
I12
sg84
I2
sg85
I12
sg86
I10
sg87
I13
sg88
I13
sg89
I7
sg90
I11
sg91
I6
sg92
I9
sg93
I10
sg94
I8
ssg95
I0
sg96
I0
sg97
I0
sg98
I0
sg99
F10.033333333333333
sg100
I0
sg101
I0
sg102
I0
sg103
g294
sg104
I0
sg105
S'ED10'
p295
sg107
I0
sg108
I0
sg109
I0
sg110
I11
sg111
I1
sg112
I0
sg113
S'OG'
p296
sbsS'n10'
p297
g138
sS'n11'
p298
(ijoueur
joueur
p299
(dp300
g27
I0
sg28
I0
sg29
I0
sg30
(ijoueur
rang
p301
(dp302
g33
I5
sg34
S'**'
p303
sg36
g219
sbsg38
(dp304
g40
I0
sg41
I0
sg42
I0
sg43
I0
ssg44
(dp305
g40
I0
sg41
I0
sg42
I0
sg43
I0
ssg46
I0
sg47
I0
sg48
I0
sg49
I0
sg50
I0
sg51
(g52
S'AI'
p306
S'AR'
p307
S'CE'
p308
tp309
sg57
(ijoueur
rang
p310
(dp311
g33
I5
sg34
S'**'
p312
sg36
g219
sbsg60
(dp313
g40
I0
sg41
I0
sg42
I0
sg43
I0
ssg62
(dp314
g40
I0
sg41
I0
sg42
I0
sg43
I0
ssg64
(dp315
g40
I0
sg41
I0
sg42
I0
sg43
I0
ssg66
(dp316
g40
I0
sg41
I0
sg42
I0
sg43
I0
ssg68
I0
sg69
I0
sg70
S'Abalyl'
p317
sg72
I3
sg73
I0
sg74
I12
sg75
I232
sg76
g77
sg78
(dp318
g80
I14
sg81
I6
sg82
I12
sg83
I12
sg84
I8
sg85
I11
sg86
I6
sg87
I16
sg88
I6
sg89
I12
sg90
I10
sg91
I8
sg92
I5
sg93
I15
sg94
I6
ssg95
I0
sg96
I0
sg97
I0
sg98
I0
sg99
F12.709677419354838
sg100
I0
sg101
I0
sg102
I0
sg103
g318
sg104
I0
sg105
S'SN7'
p319
sg107
I0
sg108
I0
sg109
I0
sg110
I37
sg111
I34
sg112
I0
sg113
S'CHS'
p320
sbsS'n16'
p321
(ijoueur
joueur
p322
(dp323
g27
I0
sg28
I0
sg29
I0
sg30
(ijoueur
rang
p324
(dp325
g33
I4
sg34
g209
sg36
g37
sbsg38
(dp326
g40
I0
sg41
I0
sg42
I0
sg43
I0
ssg44
(dp327
g40
I0
sg41
I0
sg42
I0
sg43
I0
ssg46
I0
sg47
I0
sg48
I0
sg49
I0
sg50
I0
sg51
(g52
S'PI'
p328
S'TA'
p329
g106
tp330
sg57
(ijoueur
rang
p331
(dp332
g33
I3
sg34
S'^^^'
p333
sg36
S'rare'
p334
sbsg60
(dp335
g40
I0
sg41
I0
sg42
I0
sg43
I0
ssg62
(dp336
g40
I0
sg41
I0
sg42
I0
sg43
I0
ssg64
(dp337
g40
I0
sg41
I0
sg42
I0
sg43
I0
ssg66
(dp338
g40
I0
sg41
I0
sg42
I0
sg43
I0
ssg68
I0
sg69
I0
sg70
S'Xavor'
p339
sg72
I9
sg73
I0
sg74
I21
sg75
I15
sg76
g77
sg78
(dp340
g80
I12
sg81
I11
sg82
I6
sg83
I10
sg84
I9
sg85
I11
sg86
I4
sg87
I11
sg88
I5
sg89
I11
sg90
I7
sg91
I8
sg92
I5
sg93
I9
sg94
I10
ssg95
I0
sg96
I0
sg97
I0
sg98
I0
sg99
F9.827586206896552
sg100
I0
sg101
I0
sg102
I0
sg103
g340
sg104
I0
sg105
g106
sg107
I0
sg108
I0
sg109
I0
sg110
I1
sg111
I2
sg112
I0
sg113
S'EN'
p341
sbsS'n17'
p342
(ijoueur
joueur
p343
(dp344
g27
I0
sg28
I0
sg29
I0
sg30
(ijoueur
rang
p345
(dp346
g33
I5
sg34
S'xx'
p347
sg36
g219
sbsg38
(dp348
g40
I0
sg41
I0
sg42
I0
sg43
I0
ssg44
(dp349
g40
I0
sg41
I0
sg42
I0
sg43
I0
ssg46
I0
sg47
I0
sg48
I0
sg49
I0
sg50
I0
sg51
(g52
S'PI'
p350
S'TA'
p351
g106
tp352
sg57
(ijoueur
rang
p353
(dp354
g33
I5
sg34
S'xx'
p355
sg36
g219
sbsg60
(dp356
g40
I0
sg41
I0
sg42
I0
sg43
I0
ssg62
(dp357
g40
I0
sg41
I0
sg42
I0
sg43
I0
ssg64
(dp358
g40
I0
sg41
I0
sg42
I0
sg43
I0
ssg66
(dp359
g40
I0
sg41
I0
sg42
I0
sg43
I0
ssg68
I0
sg69
I0
sg70
S'Nexter'
p360
sg72
I8
sg73
I0
sg74
I19
sg75
I219
sg76
g77
sg78
(dp361
g80
I9
sg81
I10
sg82
I8
sg83
I9
sg84
I7
sg85
I10
sg86
I6
sg87
I11
sg88
I5
sg89
I8
sg90
I8
sg91
I9
sg92
I8
sg93
I10
sg94
I8
ssg95
I0
sg96
I0
sg97
I0
sg98
I0
sg99
F9.555555555555555
sg100
I0
sg101
I0
sg102
I0
sg103
g361
sg104
I0
sg105
S'PRG10'
p362
sg107
I0
sg108
I0
sg109
I0
sg110
I5
sg111
I2
sg112
I0
sg113
S'EMP'
p363
sbsS'n14'
p364
(ijoueur
joueur
p365
(dp366
g27
I0
sg28
I0
sg29
I0
sg30
(ijoueur
rang
p367
(dp368
g33
I4
sg34
g35
sg36
g37
sbsg38
(dp369
g40
I0
sg41
I0
sg42
I0
sg43
I0
ssg44
(dp370
g40
I0
sg41
I0
sg42
I0
sg43
I0
ssg46
I0
sg47
I0
sg48
I0
sg49
I0
sg50
I0
sg51
(g52
S'AR'
p371
S'AI'
p372
g106
tp373
sg57
(ijoueur
rang
p374
(dp375
g33
I2
sg34
S'^^'
p376
sg36
g121
sbsg60
(dp377
g40
I0
sg41
I0
sg42
I0
sg43
I0
ssg62
(dp378
g40
I0
sg41
I0
sg42
I0
sg43
I0
ssg64
(dp379
g40
I0
sg41
I0
sg42
I0
sg43
I0
ssg66
(dp380
g40
I0
sg41
I0
sg42
I0
sg43
I0
ssg68
I0
sg69
I0
sg70
S'Kemfa'
p381
sg72
I10
sg73
I0
sg74
I22
sg75
I29
sg76
g77
sg78
(dp382
g80
I14
sg81
I5
sg82
I9
sg83
I10
sg84
I7
sg85
I7
sg86
I8
sg87
I9
sg88
I8
sg89
I9
sg90
I11
sg91
I3
sg92
I6
sg93
I12
sg94
I5
ssg95
I0
sg96
I0
sg97
I0
sg98
I0
sg99
F10.515151515151516
sg100
I0
sg101
I0
sg102
I0
sg103
g382
sg104
I0
sg105
g106
sg107
I0
sg108
I0
sg109
I0
sg110
I3
sg111
I0
sg112
I0
sg113
S'EN'
p383
sbsS'n15'
p384
g205
sS'n18'
p385
(ijoueur
joueur
p386
(dp387
g27
I0
sg28
I0
sg29
I0
sg30
(ijoueur
rang
p388
(dp389
g33
I6
sg34
S'***'
p390
sg36
g254
sbsg38
(dp391
g40
I0
sg41
I0
sg42
I0
sg43
I0
ssg44
(dp392
g40
I0
sg41
I0
sg42
I0
sg43
I0
ssg46
I0
sg47
I0
sg48
I0
sg49
I0
sg50
I0
sg51
(g52
S'DL'
p393
S'PI'
p394
g106
tp395
sg57
(ijoueur
rang
p396
(dp397
g33
I6
sg34
S'***'
p398
sg36
g254
sbsg60
(dp399
g40
I0
sg41
I0
sg42
I0
sg43
I0
ssg62
(dp400
g40
I0
sg41
I0
sg42
I0
sg43
I0
ssg64
(dp401
g40
I0
sg41
I0
sg42
I0
sg43
I0
ssg66
(dp402
g40
I0
sg41
I0
sg42
I0
sg43
I0
ssg68
I0
sg69
I0
sg70
S'Krell'
p403
sg72
I11
sg73
I0
sg74
I19
sg75
I308
sg76
g77
sg78
(dp404
g80
I9
sg81
I9
sg82
I6
sg83
I11
sg84
I8
sg85
I10
sg86
I2
sg87
I10
sg88
I1
sg89
I10
sg90
I6
sg91
I9
sg92
I0
sg93
I9
sg94
I4
ssg95
I0
sg96
I0
sg97
I0
sg98
I0
sg99
F9.37037037037037
sg100
I0
sg101
I0
sg102
I0
sg103
g404
sg104
I0
sg105
g106
sg107
I0
sg108
I0
sg109
I0
sg110
I23
sg111
I0
sg112
I0
sg113
S'CV'
p405
sbsS'n19'
p406
g229
sS'n22'
p407
(ijoueur
joueur
p408
(dp409
g27
I0
sg28
I0
sg29
I0
sg30
(ijoueur
rang
p410
(dp411
g33
I5
sg34
S'**'
p412
sg36
g219
sbsg38
(dp413
g40
I0
sg41
I0
sg42
I0
sg43
I0
ssg44
(dp414
g40
I0
sg41
I0
sg42
I0
sg43
I0
ssg46
I0
sg47
I0
sg48
I0
sg49
I0
sg50
I0
sg51
(g52
S'AI'
p415
S'CE'
p416
S'DM'
p417
tp418
sg57
(ijoueur
rang
p419
(dp420
g33
I5
sg34
S'**'
p421
sg36
g219
sbsg60
(dp422
g40
I0
sg41
I0
sg42
I0
sg43
I0
ssg62
(dp423
g40
I0
sg41
I0
sg42
I0
sg43
I0
ssg64
(dp424
g40
I0
sg41
I0
sg42
I0
sg43
I0
ssg66
(dp425
g40
I0
sg41
I0
sg42
I0
sg43
I0
ssg68
I0
sg69
I0
sg70
S'Dorbert'
p426
sg72
I1
sg73
I0
sg74
I9
sg75
I105
sg76
g77
sg78
(dp427
g80
I9
sg81
I6
sg82
I10
sg83
I12
sg84
I6
sg85
I8
sg86
I6
sg87
I11
sg88
I7
sg89
I10
sg90
I10
sg91
I5
sg92
I5
sg93
I8
sg94
I4
ssg95
I0
sg96
I0
sg97
I0
sg98
I0
sg99
F9.612903225806452
sg100
I0
sg101
I0
sg102
I0
sg103
g427
sg104
I0
sg105
g106
sg107
I0
sg108
I0
sg109
I0
sg110
I15
sg111
I22
sg112
I0
sg113
S'EMP'
p428
sbsS'n21'
p429
(ijoueur
joueur
p430
(dp431
g27
I0
sg28
I0
sg29
I0
sg30
(ijoueur
rang
p432
(dp433
g33
I3
sg34
S'^^^'
p434
sg36
g334
sbsg38
(dp435
g40
I0
sg41
I0
sg42
I0
sg43
I0
ssg44
(dp436
g40
I0
sg41
I0
sg42
I0
sg43
I0
ssg46
I0
sg47
I0
sg48
I0
sg49
I0
sg50
I0
sg51
(S'dummy'
p437
S'DO'
p438
S'DM'
p439
S'CE'
p440
tp441
sg57
(ijoueur
rang
p442
(dp443
g33
I2
sg34
S'<<'
p444
sg36
g121
sbsg60
(dp445
g40
I0
sg41
I0
sg42
I0
sg43
I0
ssg62
(dp446
g40
I0
sg41
I0
sg42
I0
sg43
I0
ssg64
(dp447
g40
I0
sg41
I0
sg42
I0
sg43
I0
ssg66
(dp448
g40
I0
sg41
I0
sg42
I0
sg43
I0
ssg68
I0
sg69
I0
sg70
S'Venmaol'
p449
sg72
I11
sg73
I0
sg74
I23
sg75
I20
sg76
g77
sg78
(dp450
g80
I10
sg81
I3
sg82
I7
sg83
I9
sg84
I8
sg85
I7
sg86
I9
sg87
I7
sg88
I9
sg89
I11
sg90
I9
sg91
I9
sg92
I10
sg93
I10
sg94
I4
ssg95
I0
sg96
I0
sg97
I0
sg98
I0
sg99
F9.371428571428572
sg100
I0
sg101
I0
sg102
I0
sg103
g450
sg104
I0
sg105
g106
sg107
I0
sg108
I0
sg109
I0
sg110
I1
sg111
I0
sg112
I0
sg113
S'EN'
p451
sbsS'n20'
p452
(ijoueur
joueur
p453
(dp454
g27
I0
sg28
I0
sg29
I0
sg30
(ijoueur
rang
p455
(dp456
g33
I4
sg34
g209
sg36
g37
sbsg38
(dp457
g40
I0
sg41
I0
sg42
I0
sg43
I0
ssg44
(dp458
g40
I0
sg41
I0
sg42
I0
sg43
I0
ssg46
I0
sg47
I0
sg48
I0
sg49
I0
sg50
I0
sg51
(g52
S'DM'
p459
S'DO'
p460
g106
tp461
sg57
(ijoueur
rang
p462
(dp463
g33
I4
sg34
g209
sg36
g37
sbsg60
(dp464
g40
I0
sg41
I0
sg42
I0
sg43
I0
ssg62
(dp465
g40
I0
sg41
I0
sg42
I0
sg43
I0
ssg64
(dp466
g40
I0
sg41
I0
sg42
I0
sg43
I0
ssg66
(dp467
g40
I0
sg41
I0
sg42
I0
sg43
I0
ssg68
I1
sg69
I0
sg70
S'Elethor'
p468
sg72
I4
sg73
I4
sg74
I14
sg75
I212
sg76
g77
sg78
(dp469
g80
I11
sg81
I2
sg82
I9
sg83
I10
sg84
I7
sg85
I6
sg86
I11
sg87
I9
sg88
I9
sg89
I11
sg90
I10
sg91
I4
sg92
I10
sg93
I9
sg94
I4
ssg95
I0
sg96
I0
sg97
I0
sg98
I0
sg99
F9.903225806451612
sg100
I0
sg101
I0
sg102
I0
sg103
g469
sg104
I0
sg105
S'QNL9'
p470
sg107
I0
sg108
I0
sg109
I0
sg110
I11
sg111
I5
sg112
I0
sg113
S'HE'
p471
sbsS'n8'
p472
g249
sS'n9'
p473
(ijoueur
joueur
p474
(dp475
g27
I0
sg28
I6
sg29
I0
sg30
(ijoueur
rang
p476
(dp477
g33
I4
sg34
g209
sg36
g37
sbsg38
(dp478
g40
I0
sg41
I0
sg42
I0
sg43
I0
ssg44
(dp479
g40
I0
sg41
I0
sg42
I0
sg43
I0
ssg46
I0
sg47
I0
sg48
I0
sg49
I0
sg50
I0
sg51
(g52
S'DO'
p480
S'DM'
p481
g106
tp482
sg57
(ijoueur
rang
p483
(dp484
g33
I4
sg34
g209
sg36
g37
sbsg60
(dp485
g40
I0
sg41
I0
sg42
I0
sg43
I0
ssg62
(dp486
g40
I0
sg41
I0
sg42
I0
sg43
I0
ssg64
(dp487
g40
I0
sg41
I0
sg42
I0
sg43
I0
ssg66
(dp488
g40
I0
sg41
I0
sg42
I0
sg43
I0
ssg68
I90
sg69
I0
sg70
S'Lataen'
p489
sg72
I1
sg73
I69
sg74
I12
sg75
I100
sg76
g77
sg78
(dp490
g80
I12
sg81
I1
sg82
I12
sg83
I14
sg84
I9
sg85
I6
sg86
I10
sg87
I12
sg88
I10
sg89
I14
sg90
I9
sg91
I5
sg92
I11
sg93
I9
sg94
I5
ssg95
I0
sg96
I0
sg97
I0
sg98
I0
sg99
F11.090909090909092
sg100
I0
sg101
I0
sg102
I0
sg103
g490
sg104
I0
sg105
S'APA10'
p491
sg107
I0
sg108
I0
sg109
I0
sg110
I10
sg111
I5
sg112
I0
sg113
S'HE'
p492
sbsS'n1'
p493
(ijoueur
joueur
p494
(dp495
g27
I0
sg28
I0
sg29
I0
sg30
(ijoueur
rang
p496
(dp497
g33
I3
sg34
S'^^^'
p498
sg36
g334
sbsg38
(dp499
g40
I0
sg41
I0
sg42
I0
sg43
I0
ssg44
(dp500
g40
I0
sg41
I0
sg42
I0
sg43
I0
ssg46
I0
sg47
I0
sg48
I0
sg49
I0
sg50
I0
sg51
(g52
S'PI'
p501
g106
g106
tp502
sg57
(ijoueur
rang
p503
(dp504
g33
I3
sg34
S'^^^'
p505
sg36
g334
sbsg60
(dp506
g40
I0
sg41
I0
sg42
I0
sg43
I0
ssg62
(dp507
g40
I0
sg41
I0
sg42
I0
sg43
I0
ssg64
(dp508
g40
I0
sg41
I0
sg42
I0
sg43
I0
ssg66
(dp509
g40
I0
sg41
I0
sg42
I0
sg43
I0
ssg68
I0
sg69
I0
sg70
S'Denard'
p510
sg72
I4
sg73
I0
sg74
I15
sg75
I10
sg76
g77
sg78
(dp511
g80
I8
sg81
I11
sg82
I13
sg83
I10
sg84
I5
sg85
I6
sg86
I4
sg87
I13
sg88
I2
sg89
I8
sg90
I7
sg91
I10
sg92
I2
sg93
I9
sg94
I8
ssg95
I0
sg96
I0
sg97
I0
sg98
I0
sg99
F10.148148148148149
sg100
I0
sg101
I0
sg102
I0
sg103
g511
sg104
I0
sg105
g106
sg107
I0
sg108
I0
sg109
I0
sg110
I1
sg111
I0
sg112
I0
sg113
S'EMP'
p512
sbsS'n2'
p513
(ijoueur
joueur
p514
(dp515
g27
I0
sg28
I0
sg29
I0
sg30
(ijoueur
rang
p516
(dp517
g33
I5
sg34
S'**'
p518
sg36
g219
sbsg38
(dp519
g40
I0
sg41
I0
sg42
I0
sg43
I0
ssg44
(dp520
g40
I0
sg41
I0
sg42
I0
sg43
I0
ssg46
I0
sg47
I0
sg48
I0
sg49
I0
sg50
I0
sg51
(g52
S'TA'
p521
g106
g106
tp522
sg57
(ijoueur
rang
p523
(dp524
g33
I5
sg34
S'**'
p525
sg36
g219
sbsg60
(dp526
g40
I0
sg41
I0
sg42
I0
sg43
I0
ssg62
(dp527
g40
I0
sg41
I0
sg42
I0
sg43
I0
ssg64
(dp528
g40
I0
sg41
I0
sg42
I0
sg43
I0
ssg66
(dp529
g40
I0
sg41
I0
sg42
I0
sg43
I0
ssg68
I0
sg69
I0
sg70
S'Haphard'
p530
sg72
I6
sg73
I0
sg74
I22
sg75
I836
sg76
g77
sg78
(dp531
g80
I10
sg81
I9
sg82
I11
sg83
I10
sg84
I8
sg85
I9
sg86
I5
sg87
I13
sg88
I7
sg89
I10
sg90
I8
sg91
I12
sg92
I4
sg93
I10
sg94
I14
ssg95
I0
sg96
I0
sg97
I0
sg98
I0
sg99
F11.206896551724139
sg100
I0
sg101
I0
sg102
I0
sg103
g531
sg104
I0
sg105
S'MSL9;AL11'
p532
sg107
I0
sg108
I0
sg109
I0
sg110
I49
sg111
I3
sg112
I0
sg113
S'CV'
p533
sbsS'n3'
p534
(ijoueur
joueur
p535
(dp536
g27
I0
sg28
I0
sg29
I0
sg30
(ijoueur
rang
p537
(dp538
g33
I6
sg34
S'***'
p539
sg36
g254
sbsg38
(dp540
g40
I0
sg41
I0
sg42
I0
sg43
I0
ssg44
(dp541
g40
I0
sg41
I0
sg42
I0
sg43
I0
ssg46
I0
sg47
I0
sg48
I0
sg49
I0
sg50
I0
sg51
(g52
S'PI'
p542
g106
g106
tp543
sg57
(ijoueur
rang
p544
(dp545
g33
I6
sg34
S'***'
p546
sg36
g254
sbsg60
(dp547
g40
I0
sg41
I0
sg42
I0
sg43
I0
ssg62
(dp548
g40
I0
sg41
I0
sg42
I0
sg43
I0
ssg64
(dp549
g40
I0
sg41
I0
sg42
I0
sg43
I0
ssg66
(dp550
g40
I0
sg41
I0
sg42
I0
sg43
I0
ssg68
I0
sg69
I0
sg70
S'Graissus'
p551
sg72
I3
sg73
I0
sg74
I15
sg75
I678
sg76
g77
sg78
(dp552
g80
I9
sg81
I17
sg82
I8
sg83
I9
sg84
I3
sg85
I15
sg86
I4
sg87
I16
sg88
I4
sg89
I5
sg90
I7
sg91
I12
sg92
I3
sg93
I8
sg94
I8
ssg95
I0
sg96
I0
sg97
I0
sg98
I0
sg99
F11.814814814814815
sg100
I0
sg101
I0
sg102
I0
sg103
g552
sg104
I0
sg105
g106
sg107
I0
sg108
I0
sg109
I0
sg110
I62
sg111
I8
sg112
I0
sg113
S'OG'
p553
sbsS'n4'
p554
g186
sS'n5'
p555
(ijoueur
joueur
p556
(dp557
g27
I0
sg28
I0
sg29
I0
sg30
(ijoueur
rang
p558
(dp559
g33
I4
sg34
g209
sg36
g37
sbsg38
(dp560
g40
I0
sg41
I0
sg42
I0
sg43
I0
ssg44
(dp561
g40
I0
sg41
I0
sg42
I0
sg43
I0
ssg46
I0
sg47
I0
sg48
I0
sg49
I0
sg50
I0
sg51
(g52
S'PI'
p562
S'DL'
p563
S'TL'
p564
tp565
sg57
(ijoueur
rang
p566
(dp567
g33
I5
sg34
S'xx'
p568
sg36
g219
sbsg60
(dp569
g40
I0
sg41
I0
sg42
I0
sg43
I0
ssg62
(dp570
g40
I0
sg41
I0
sg42
I0
sg43
I0
ssg64
(dp571
g40
I0
sg41
I0
sg42
I0
sg43
I0
ssg66
(dp572
g40
I0
sg41
I0
sg42
I0
sg43
I0
ssg68
I0
sg69
I0
sg70
S'Slend'
p573
sg72
I3
sg73
I0
sg74
I15
sg75
I363
sg76
g77
sg78
(dp574
g80
I9
sg81
I9
sg82
I7
sg83
I12
sg84
I8
sg85
I15
sg86
I4
sg87
I15
sg88
I5
sg89
I9
sg90
I9
sg91
I11
sg92
I3
sg93
I8
sg94
I8
ssg95
I0
sg96
I0
sg97
I0
sg98
I0
sg99
F10.62962962962963
sg100
I0
sg101
I0
sg102
I0
sg103
g574
sg104
I0
sg105
S'TO10'
p575
sg107
I0
sg108
I0
sg109
I0
sg110
I41
sg111
I4
sg112
I0
sg113
S'HL'
p576
sbsS'n6'
p577
g165
sS'n7'
p578
g116
ssS'remplacements'
p579
(dp580
g321
S'n0'
p581
sg342
g581
sg385
g581
sg406
g581
sg407
g581
sg429
g581
sg452
g581
ssb.