(iclub
compo
p0
(dp1
S'caracs_old'
p2
(dp3
S'A'
p4
F177.5
sS'ME'
p5
F119.5
sS'E'
p6
I233
sS'OplusAV'
p7
F80.0
sS'TO_off'
p8
F93.0
sS'OplusAR'
p9
F64.5
sS'M'
p10
F52.0
sS'JP'
p11
F122.5
sS'OmoinsAR'
p12
F72.5
sS'PA'
p13
F128.0
sS'TO_def'
p14
F81.5
sS'OmoinsAV'
p15
F50.5
sS'R'
p16
F183.5
ssS'totaux_old'
p17
(dp18
S'T2'
p19
F214.0
sS'T3'
p20
F116.5
sS'T1'
p21
F195.125
ssS'roles'
p22
(dp23
S'drop1'
p24
(ijoueur
joueur
p25
(dp26
S'rouges_total'
p27
I0
sS'drops_total'
p28
I25
sS'blessure'
p29
I0
sS'RG_max'
p30
(ijoueur
rang
p31
(dp32
S'type_nb'
p33
I4
sS'rang'
p34
S'x'
p35
sS'type'
p36
S'heros'
p37
sbsS'MJ2_total'
p38
(dp39
S'SR'
p40
I0
sS'ST'
p41
I0
sS'CR'
p42
I0
sS'CT'
p43
I0
ssS'MJ3_total'
p44
(dp45
g40
I0
sg41
I0
sg42
I0
sg43
I0
ssS'drop_rates_total'
p46
I0
sS'drop_rates_saison'
p47
I0
sS'transformations'
p48
I1
sS'penalites'
p49
I2
sS'essais_saison'
p50
I0
sS'penalite_ratees_saison'
p51
I0
sS'transformations_saison'
p52
I0
sS'postes'
p53
(S'dummy'
p54
S'C1'
p55
S'DO'
p56
S'PI'
p57
tp58
sS'RG'
p59
(ijoueur
rang
p60
(dp61
g33
I4
sg34
g35
sg36
g37
sbsS'MJ1'
p62
(dp63
g40
I0
sg41
I0
sg42
I0
sg43
I1
ssS'MJ2'
p64
(dp65
g40
I0
sg41
I0
sg42
I0
sg43
I0
ssS'MJ3'
p66
(dp67
g40
I0
sg41
I0
sg42
I0
sg43
I0
ssS'MJ1_total'
p68
(dp69
g40
I0
sg41
I0
sg42
I0
sg43
I1
ssS'penalites_total'
p70
I2
sS'penalites_saison'
p71
I0
sS'nom'
p72
S'Naedol'
p73
sS'C'
p74
I4
sS'transformations_total'
p75
I1
sS'D'
p76
I14
sS'VAL'
p77
I250
sS'club'
p78
S'MRB'
p79
sS'caracs'
p80
(dp81
S'A'
p82
I14
sS'ME'
p83
I9
sS'RP2'
p84
I10
sS'E'
p85
I14
sS'TO'
p86
I12
sS'RP1'
p87
I7
sS'JP'
p88
I12
sS'RP_tot'
p89
I10
sS'P'
p90
I10
sS'PA'
p91
I16
sS'M'
p92
I9
sS'R'
p93
I8
sS'TB'
p94
I11
sS'PL'
p95
I12
sS'TA'
p96
I7
ssS'fatigue'
p97
I2
sS'drop_ratees_total'
p98
I0
sS'blessures_total'
p99
I0
sS'XP'
p100
I0
sS'EV'
p101
F12.1
sS'penalite_ratees_total'
p102
I0
sS'drops'
p103
I25
sS'blessures_saison'
p104
I0
sS'jaunes_total'
p105
I0
sS'caracs_sans_fatigue'
p106
g81
sS'rouges_saison'
p107
I0
sS'anciens_clubs'
p108
S''
p109
sS'transformation_ratees_total'
p110
I0
sS'drops_saison'
p111
I0
sS'transformation_ratees_saison'
p112
I0
sS'MS'
p113
I25
sS'essais_total'
p114
I21
sS'jaunes_saison'
p115
I0
sS'ARM'
p116
S'EN'
p117
sbsS'SA_scd'
p118
(ijoueur
joueur
p119
(dp120
g27
I0
sg28
I0
sg29
I0
sg30
(ijoueur
rang
p121
(dp122
g33
I2
sg34
S'<<'
p123
sg36
S'special'
p124
sbsg38
(dp125
g40
I0
sg41
I0
sg42
I0
sg43
I0
ssg44
(dp126
g40
I0
sg41
I0
sg42
I0
sg43
I0
ssg46
I0
sg47
I0
sg48
I0
sg49
I0
sg50
I0
sg51
I0
sg52
I0
sg53
(g54
S'TL'
p127
S'N8'
p128
g109
tp129
sg59
(ijoueur
rang
p130
(dp131
g33
I2
sg34
S'<<'
p132
sg36
g124
sbsg62
(dp133
g40
I0
sg41
I0
sg42
I0
sg43
I1
ssg64
(dp134
g40
I0
sg41
I0
sg42
I0
sg43
I0
ssg66
(dp135
g40
I0
sg41
I0
sg42
I0
sg43
I0
ssg68
(dp136
g40
I0
sg41
I0
sg42
I0
sg43
I1
ssg70
I0
sg71
I0
sg72
S'Dvonen'
p137
sg74
I4
sg75
I0
sg76
I13
sg77
I11
sg78
g79
sg80
(dp138
g82
I9
sg83
I10
sg84
I6
sg85
I11
sg86
I10
sg87
I9
sg88
I5
sg89
I9
sg90
I5
sg91
I9
sg92
I10
sg93
I10
sg94
I4
sg95
I11
sg96
I5
ssg97
I2
sg98
I0
sg99
I0
sg100
I0
sg101
F10.064516129032258
sg102
I0
sg103
I0
sg104
I0
sg105
I0
sg106
g138
sg107
I0
sg108
g109
sg110
I0
sg111
I0
sg112
I0
sg113
I1
sg114
I4
sg115
I0
sg116
S'EN'
p139
sbsS'RJL'
p140
(ijoueur
joueur
p141
(dp142
g27
I0
sg28
I22
sg29
I0
sg30
(ijoueur
rang
p143
(dp144
g33
I4
sg34
g35
sg36
g37
sbsg38
(dp145
g40
I0
sg41
I0
sg42
I0
sg43
I0
ssg44
(dp146
g40
I0
sg41
I0
sg42
I0
sg43
I0
ssg46
I0
sg47
I0
sg48
I134
sg49
I301
sg50
I0
sg51
I0
sg52
I0
sg53
(g54
S'DM'
p147
S'DO'
p148
S'CE'
p149
tp150
sg59
(ijoueur
rang
p151
(dp152
g33
I4
sg34
g35
sg36
g37
sbsg62
(dp153
g40
I0
sg41
I0
sg42
I0
sg43
I1
ssg64
(dp154
g40
I0
sg41
I0
sg42
I0
sg43
I0
ssg66
(dp155
g40
I0
sg41
I0
sg42
I0
sg43
I0
ssg68
(dp156
g40
I0
sg41
I0
sg42
I0
sg43
I1
ssg70
I301
sg71
I4
sg72
S'Siloth'
p157
sg74
I3
sg75
I134
sg76
I12
sg77
I1575
sg78
g79
sg80
(dp158
g82
I13
sg83
I4
sg84
I9
sg85
I11
sg86
I10
sg87
I7
sg88
I14
sg89
I9
sg90
I13
sg91
I15
sg92
I10
sg93
I4
sg94
I12
sg95
I13
sg96
I7
ssg97
I4
sg98
I0
sg99
I0
sg100
I0
sg101
F12.206896551724139
sg102
I0
sg103
I22
sg104
I0
sg105
I0
sg106
g158
sg107
I0
sg108
S'HTH11'
p159
sg110
I0
sg111
I0
sg112
I0
sg113
I76
sg114
I5
sg115
I0
sg116
S'EN'
p160
sbsS'cap'
p161
g25
sS'B4'
p162
g141
sS'RJC'
p163
g141
sS'B1'
p164
g141
sS'B2'
p165
g141
sS'B3'
p166
g141
sS'SA_pcp2'
p167
(ijoueur
joueur
p168
(dp169
g27
I0
sg28
I0
sg29
I0
sg30
(ijoueur
rang
p170
(dp171
g33
I1
sg34
S'^'
p172
sg36
S'base'
p173
sbsg38
(dp174
g40
I0
sg41
I0
sg42
I0
sg43
I0
ssg44
(dp175
g40
I0
sg41
I0
sg42
I0
sg43
I0
ssg46
I0
sg47
I0
sg48
I0
sg49
I0
sg50
I0
sg51
I0
sg52
I0
sg53
(g54
S'TL'
p176
S'DL'
p177
g109
tp178
sg59
(ijoueur
rang
p179
(dp180
g33
I1
sg34
g172
sg36
g173
sbsg62
(dp181
g40
I0
sg41
I0
sg42
I0
sg43
I1
ssg64
(dp182
g40
I0
sg41
I0
sg42
I0
sg43
I0
ssg66
(dp183
g40
I0
sg41
I0
sg42
I0
sg43
I0
ssg68
(dp184
g40
I0
sg41
I0
sg42
I0
sg43
I1
ssg70
I0
sg71
I0
sg72
S'Blaeden'
p185
sg74
I4
sg75
I0
sg76
I13
sg77
I11
sg78
g79
sg80
(dp186
g82
I9
sg83
I9
sg84
I6
sg85
I10
sg86
I11
sg87
I10
sg88
I5
sg89
I10
sg90
I5
sg91
I9
sg92
I8
sg93
I11
sg94
I5
sg95
I10
sg96
I3
ssg97
I3
sg98
I0
sg99
I0
sg100
I0
sg101
F10.157894736842104
sg102
I0
sg103
I0
sg104
I0
sg105
I0
sg106
g186
sg107
I0
sg108
g109
sg110
I0
sg111
I0
sg112
I0
sg113
I1
sg114
I5
sg115
I0
sg116
S'HE'
p187
sbsS'SA_pcp1'
p188
(ijoueur
joueur
p189
(dp190
g27
I0
sg28
I0
sg29
I0
sg30
(ijoueur
rang
p191
(dp192
g33
I1
sg34
g172
sg36
g173
sbsg38
(dp193
g40
I0
sg41
I0
sg42
I0
sg43
I0
ssg44
(dp194
g40
I0
sg41
I0
sg42
I0
sg43
I0
ssg46
I0
sg47
I0
sg48
I0
sg49
I0
sg50
I0
sg51
I0
sg52
I0
sg53
(g54
S'DL'
p195
g109
g109
tp196
sg59
(ijoueur
rang
p197
(dp198
g33
I2
sg34
S'<<'
p199
sg36
g124
sbsg62
(dp200
g40
I0
sg41
I0
sg42
I0
sg43
I1
ssg64
(dp201
g40
I0
sg41
I0
sg42
I0
sg43
I0
ssg66
(dp202
g40
I0
sg41
I0
sg42
I0
sg43
I0
ssg68
(dp203
g40
I0
sg41
I0
sg42
I0
sg43
I1
ssg70
I0
sg71
I0
sg72
S'Prendt'
p204
sg74
I9
sg75
I0
sg76
I20
sg77
I30
sg78
g79
sg80
(dp205
g82
I11
sg83
I11
sg84
I6
sg85
I12
sg86
I11
sg87
I7
sg88
I4
sg89
I7
sg90
I5
sg91
I7
sg92
I9
sg93
I9
sg94
I4
sg95
I7
sg96
I4
ssg97
I4
sg98
I0
sg99
I0
sg100
I0
sg101
F9.588235294117647
sg102
I0
sg103
I0
sg104
I0
sg105
I0
sg106
g205
sg107
I0
sg108
g109
sg110
I0
sg111
I0
sg112
I0
sg113
I3
sg114
I0
sg115
I0
sg116
S'EMP'
p206
sbsS'drop3'
p207
(ijoueur
joueur
p208
(dp209
g27
I0
sg28
I1
sg29
I0
sg30
(ijoueur
rang
p210
(dp211
g33
I4
sg34
S'*'
p212
sg36
g37
sbsg38
(dp213
g40
I0
sg41
I0
sg42
I0
sg43
I0
ssg44
(dp214
g40
I0
sg41
I0
sg42
I0
sg43
I0
ssg46
I0
sg47
I0
sg48
I0
sg49
I0
sg50
I0
sg51
I0
sg52
I0
sg53
(g54
S'AR'
p215
S'CE'
p216
S'DO'
p217
tp218
sg59
(ijoueur
rang
p219
(dp220
g33
I5
sg34
S'**'
p221
sg36
S'seigneur'
p222
sbsg62
(dp223
g40
I0
sg41
I0
sg42
I0
sg43
I1
ssg64
(dp224
g40
I0
sg41
I0
sg42
I0
sg43
I0
ssg66
(dp225
g40
I0
sg41
I0
sg42
I0
sg43
I0
ssg68
(dp226
g40
I0
sg41
I0
sg42
I0
sg43
I1
ssg70
I0
sg71
I0
sg72
S'Refed'
p227
sg74
I6
sg75
I0
sg76
I17
sg77
I172
sg78
g79
sg80
(dp228
g82
I14
sg83
I4
sg84
I11
sg85
I12
sg86
I8
sg87
I6
sg88
I11
sg89
I11
sg90
I10
sg91
I13
sg92
I11
sg93
I10
sg94
I10
sg95
I12
sg96
I3
ssg97
I2
sg98
I0
sg99
I0
sg100
I0
sg101
F11.93939393939394
sg102
I0
sg103
I1
sg104
I0
sg105
I0
sg106
g228
sg107
I0
sg108
S'QNL10'
p229
sg110
I0
sg111
I0
sg112
I0
sg113
I14
sg114
I7
sg115
I0
sg116
S'EN'
p230
sbsS'SA_remp1'
p231
(ijoueur
joueur
p232
(dp233
g27
I0
sg28
I0
sg29
I0
sg30
(ijoueur
rang
p234
(dp235
g33
I4
sg34
g212
sg36
g37
sbsg38
(dp236
g40
I0
sg41
I0
sg42
I0
sg43
I0
ssg44
(dp237
g40
I0
sg41
I0
sg42
I0
sg43
I0
ssg46
I0
sg47
I0
sg48
I0
sg49
I0
sg50
I0
sg51
I0
sg52
I0
sg53
(g54
S'TL'
p238
g109
g109
tp239
sg59
(ijoueur
rang
p240
(dp241
g33
I4
sg34
g212
sg36
g37
sbsg62
(dp242
g40
I0
sg41
I0
sg42
I1
sg43
I0
ssg64
(dp243
g40
I0
sg41
I0
sg42
I0
sg43
I0
ssg66
(dp244
g40
I0
sg41
I0
sg42
I0
sg43
I0
ssg68
(dp245
g40
I0
sg41
I0
sg42
I1
sg43
I0
ssg70
I0
sg71
I0
sg72
S'Prateps'
p246
sg74
I3
sg75
I0
sg76
I16
sg77
I112
sg78
g79
sg80
(dp247
g82
I12
sg83
I9
sg84
I8
sg85
I10
sg86
I10
sg87
I8
sg88
I6
sg89
I9
sg90
I6
sg91
I11
sg92
I9
sg93
I11
sg94
I5
sg95
I8
sg96
I7
ssg97
I0
sg98
I0
sg99
I0
sg100
I0
sg101
F9.894736842105264
sg102
I0
sg103
I0
sg104
I0
sg105
I0
sg106
g247
sg107
I0
sg108
S'ED9'
p248
sg110
I0
sg111
I0
sg112
I0
sg113
I10
sg114
I2
sg115
I0
sg116
S'S'
p249
sbsS'drop2'
p250
g141
sS'SA_remp2'
p251
(ijoueur
joueur
p252
(dp253
g27
I0
sg28
I0
sg29
I0
sg30
(ijoueur
rang
p254
(dp255
g33
I6
sg34
S'***'
p256
sg36
S'personnage'
p257
sbsg38
(dp258
g40
I0
sg41
I0
sg42
I0
sg43
I0
ssg44
(dp259
g40
I0
sg41
I0
sg42
I0
sg43
I0
ssg46
I0
sg47
I0
sg48
I0
sg49
I0
sg50
I0
sg51
I0
sg52
I0
sg53
(g54
S'N8'
p260
S'TL'
p261
g109
tp262
sg59
(ijoueur
rang
p263
(dp264
g33
I6
sg34
S'***'
p265
sg36
g257
sbsg62
(dp266
g40
I0
sg41
I0
sg42
I0
sg43
I1
ssg64
(dp267
g40
I0
sg41
I0
sg42
I0
sg43
I0
ssg66
(dp268
g40
I0
sg41
I0
sg42
I0
sg43
I0
ssg68
(dp269
g40
I0
sg41
I0
sg42
I0
sg43
I1
ssg70
I0
sg71
I0
sg72
S'Grimgor'
p270
sg74
I11
sg75
I0
sg76
I18
sg77
I940
sg78
g79
sg80
(dp271
g82
I10
sg83
I10
sg84
I7
sg85
I13
sg86
I8
sg87
I12
sg88
I4
sg89
I12
sg90
I2
sg91
I10
sg92
I9
sg93
I9
sg94
I5
sg95
I13
sg96
I7
ssg97
I3
sg98
I0
sg99
I0
sg100
I0
sg101
F11.0
sg102
I0
sg103
I0
sg104
I0
sg105
I0
sg106
g271
sg107
I0
sg108
g109
sg110
I0
sg111
I0
sg112
I0
sg113
I68
sg114
I0
sg115
I0
sg116
S'O'
p272
sbssS'totaux'
p273
(dp274
g19
I0
sg20
I0
sg21
I0
ssS'_compo_defaut_fatigue'
p275
Nsg80
(dp276
g4
I0
sg5
I0
sg6
I0
sg7
I0
sg8
I0
sg9
I0
sg10
I0
sg11
I0
sg12
I0
sg13
I0
sg14
I0
sg15
I0
sg16
I0
ssS'joueurs'
p277
(dp278
S'n12'
p279
g25
sS'n13'
p280
(ijoueur
joueur
p281
(dp282
g27
I0
sg28
I0
sg29
I0
sg30
(ijoueur
rang
p283
(dp284
g33
I4
sg34
g35
sg36
g37
sbsg38
(dp285
g40
I0
sg41
I0
sg42
I0
sg43
I0
ssg44
(dp286
g40
I0
sg41
I0
sg42
I0
sg43
I0
ssg46
I0
sg47
I0
sg48
I0
sg49
I1
sg50
I0
sg51
I0
sg52
I0
sg53
(g54
S'C1'
p287
S'DO'
p288
g109
tp289
sg59
(ijoueur
rang
p290
(dp291
g33
I4
sg34
g35
sg36
g37
sbsg62
(dp292
g40
I0
sg41
I0
sg42
I0
sg43
I1
ssg64
(dp293
g40
I0
sg41
I0
sg42
I0
sg43
I0
ssg66
(dp294
g40
I0
sg41
I0
sg42
I0
sg43
I0
ssg68
(dp295
g40
I0
sg41
I0
sg42
I0
sg43
I1
ssg70
I0
sg71
I0
sg72
S'Jopleur'
p296
sg74
I8
sg75
I0
sg76
I20
sg77
I100
sg78
g79
sg80
(dp297
g82
I8
sg83
I6
sg84
I8
sg85
I12
sg86
I2
sg87
I12
sg88
I10
sg89
I13
sg90
I13
sg91
I7
sg92
I11
sg93
I6
sg94
I9
sg95
I10
sg96
I8
ssg97
I3
sg98
I0
sg99
I0
sg100
I0
sg101
F10.033333333333333
sg102
I0
sg103
I0
sg104
I0
sg105
I0
sg106
g297
sg107
I0
sg108
S'ED10'
p298
sg110
I0
sg111
I0
sg112
I0
sg113
I11
sg114
I1
sg115
I0
sg116
S'OG'
p299
sbsS'n10'
p300
g141
sS'n11'
p301
(ijoueur
joueur
p302
(dp303
g27
I0
sg28
I0
sg29
I0
sg30
(ijoueur
rang
p304
(dp305
g33
I5
sg34
S'**'
p306
sg36
g222
sbsg38
(dp307
g40
I0
sg41
I0
sg42
I0
sg43
I0
ssg44
(dp308
g40
I0
sg41
I0
sg42
I0
sg43
I0
ssg46
I0
sg47
I0
sg48
I0
sg49
I0
sg50
I0
sg51
I0
sg52
I0
sg53
(g54
S'AI'
p309
S'CE'
p310
S'DM'
p311
tp312
sg59
(ijoueur
rang
p313
(dp314
g33
I5
sg34
S'**'
p315
sg36
g222
sbsg62
(dp316
g40
I0
sg41
I0
sg42
I1
sg43
I0
ssg64
(dp317
g40
I0
sg41
I0
sg42
I0
sg43
I0
ssg66
(dp318
g40
I0
sg41
I0
sg42
I0
sg43
I0
ssg68
(dp319
g40
I0
sg41
I0
sg42
I1
sg43
I0
ssg70
I0
sg71
I0
sg72
S'Dorbert'
p320
sg74
I1
sg75
I0
sg76
I9
sg77
I105
sg78
g79
sg80
(dp321
g82
I9
sg83
I6
sg84
I10
sg85
I12
sg86
I6
sg87
I8
sg88
I6
sg89
I11
sg90
I7
sg91
I10
sg92
I10
sg93
I5
sg94
I5
sg95
I8
sg96
I4
ssg97
I1
sg98
I0
sg99
I0
sg100
I0
sg101
F9.612903225806452
sg102
I0
sg103
I0
sg104
I0
sg105
I0
sg106
g321
sg107
I0
sg108
g109
sg110
I0
sg111
I0
sg112
I0
sg113
I15
sg114
I22
sg115
I0
sg116
S'EMP'
p322
sbsS'n16'
p323
(ijoueur
joueur
p324
(dp325
g27
I0
sg28
I0
sg29
I0
sg30
(ijoueur
rang
p326
(dp327
g33
I4
sg34
g212
sg36
g37
sbsg38
(dp328
g40
I0
sg41
I0
sg42
I0
sg43
I0
ssg44
(dp329
g40
I0
sg41
I0
sg42
I0
sg43
I0
ssg46
I0
sg47
I0
sg48
I0
sg49
I0
sg50
I0
sg51
I0
sg52
I0
sg53
(g54
S'PI'
p330
S'TA'
p331
g109
tp332
sg59
(ijoueur
rang
p333
(dp334
g33
I3
sg34
S'^^^'
p335
sg36
S'rare'
p336
sbsg62
(dp337
g40
I0
sg41
I0
sg42
I1
sg43
I0
ssg64
(dp338
g40
I0
sg41
I0
sg42
I0
sg43
I0
ssg66
(dp339
g40
I0
sg41
I0
sg42
I0
sg43
I0
ssg68
(dp340
g40
I0
sg41
I0
sg42
I1
sg43
I0
ssg70
I0
sg71
I0
sg72
S'Xavor'
p341
sg74
I9
sg75
I0
sg76
I21
sg77
I15
sg78
g79
sg80
(dp342
g82
I12
sg83
I11
sg84
I6
sg85
I10
sg86
I9
sg87
I11
sg88
I4
sg89
I11
sg90
I5
sg91
I11
sg92
I7
sg93
I8
sg94
I5
sg95
I9
sg96
I10
ssg97
I2
sg98
I0
sg99
I1
sg100
I0
sg101
F9.827586206896552
sg102
I0
sg103
I0
sg104
I1
sg105
I0
sg106
g342
sg107
I0
sg108
g109
sg110
I0
sg111
I0
sg112
I0
sg113
I1
sg114
I2
sg115
I0
sg116
S'EN'
p343
sbsS'n17'
p344
(ijoueur
joueur
p345
(dp346
g27
I0
sg28
I0
sg29
I0
sg30
(ijoueur
rang
p347
(dp348
g33
I5
sg34
S'xx'
p349
sg36
g222
sbsg38
(dp350
g40
I0
sg41
I0
sg42
I0
sg43
I0
ssg44
(dp351
g40
I0
sg41
I0
sg42
I0
sg43
I0
ssg46
I0
sg47
I0
sg48
I0
sg49
I0
sg50
I0
sg51
I0
sg52
I0
sg53
(g54
S'PI'
p352
S'TA'
p353
g109
tp354
sg59
(ijoueur
rang
p355
(dp356
g33
I5
sg34
S'xx'
p357
sg36
g222
sbsg62
(dp358
g40
I0
sg41
I0
sg42
I0
sg43
I0
ssg64
(dp359
g40
I0
sg41
I0
sg42
I0
sg43
I0
ssg66
(dp360
g40
I0
sg41
I0
sg42
I0
sg43
I0
ssg68
(dp361
g40
I0
sg41
I0
sg42
I0
sg43
I0
ssg70
I0
sg71
I0
sg72
S'Nexter'
p362
sg74
I8
sg75
I0
sg76
I19
sg77
I219
sg78
g79
sg80
(dp363
g82
I9
sg83
I10
sg84
I8
sg85
I9
sg86
I7
sg87
I10
sg88
I6
sg89
I11
sg90
I5
sg91
I8
sg92
I8
sg93
I9
sg94
I8
sg95
I10
sg96
I8
ssg97
I0
sg98
I0
sg99
I0
sg100
I0
sg101
F9.555555555555555
sg102
I0
sg103
I0
sg104
I0
sg105
I0
sg106
g363
sg107
I0
sg108
S'PRG10'
p364
sg110
I0
sg111
I0
sg112
I0
sg113
I5
sg114
I2
sg115
I0
sg116
S'EMP'
p365
sbsS'n14'
p366
(ijoueur
joueur
p367
(dp368
g27
I0
sg28
I0
sg29
I0
sg30
(ijoueur
rang
p369
(dp370
g33
I4
sg34
g35
sg36
g37
sbsg38
(dp371
g40
I0
sg41
I0
sg42
I0
sg43
I1
ssg44
(dp372
g40
I0
sg41
I0
sg42
I0
sg43
I0
ssg46
I0
sg47
I0
sg48
I0
sg49
I0
sg50
I0
sg51
I0
sg52
I0
sg53
(g54
S'AR'
p373
S'AI'
p374
g109
tp375
sg59
(ijoueur
rang
p376
(dp377
g33
I2
sg34
S'^^'
p378
sg36
g124
sbsg62
(dp379
g40
I0
sg41
I0
sg42
I0
sg43
I0
ssg64
(dp380
g40
I0
sg41
I0
sg42
I0
sg43
I1
ssg66
(dp381
g40
I0
sg41
I0
sg42
I0
sg43
I0
ssg68
(dp382
g40
I0
sg41
I0
sg42
I0
sg43
I0
ssg70
I0
sg71
I0
sg72
S'Kemfa'
p383
sg74
I10
sg75
I0
sg76
I22
sg77
I29
sg78
g79
sg80
(dp384
g82
I14
sg83
I5
sg84
I9
sg85
I10
sg86
I7
sg87
I7
sg88
I8
sg89
I9
sg90
I8
sg91
I9
sg92
I11
sg93
I3
sg94
I6
sg95
I12
sg96
I5
ssg97
I3
sg98
I0
sg99
I0
sg100
I0
sg101
F10.515151515151516
sg102
I0
sg103
I0
sg104
I0
sg105
I0
sg106
g384
sg107
I0
sg108
g109
sg110
I0
sg111
I0
sg112
I0
sg113
I3
sg114
I0
sg115
I0
sg116
S'EN'
p385
sbsS'n15'
p386
g208
sS'n18'
p387
(ijoueur
joueur
p388
(dp389
g27
I0
sg28
I0
sg29
I0
sg30
(ijoueur
rang
p390
(dp391
g33
I3
sg34
S'^^^'
p392
sg36
g336
sbsg38
(dp393
g40
I0
sg41
I0
sg42
I0
sg43
I0
ssg44
(dp394
g40
I0
sg41
I0
sg42
I0
sg43
I0
ssg46
I0
sg47
I0
sg48
I0
sg49
I0
sg50
I0
sg51
I0
sg52
I0
sg53
(g54
S'N8'
p395
S'TL'
p396
S'DL'
p397
tp398
sg59
(ijoueur
rang
p399
(dp400
g33
I3
sg34
S'^^^'
p401
sg36
g336
sbsg62
(dp402
g40
I0
sg41
I0
sg42
I0
sg43
I0
ssg64
(dp403
g40
I0
sg41
I0
sg42
I0
sg43
I0
ssg66
(dp404
g40
I0
sg41
I0
sg42
I0
sg43
I0
ssg68
(dp405
g40
I0
sg41
I0
sg42
I0
sg43
I0
ssg70
I0
sg71
I0
sg72
S'Duumt'
p406
sg74
I3
sg75
I0
sg76
I11
sg77
I45
sg78
g79
sg80
(dp407
g82
I10
sg83
I10
sg84
I8
sg85
I10
sg86
I6
sg87
I9
sg88
I3
sg89
I10
sg90
I2
sg91
I6
sg92
I5
sg93
I9
sg94
I5
sg95
I9
sg96
I6
ssg97
I0
sg98
I0
sg99
I0
sg100
I0
sg101
F9.275862068965518
sg102
I0
sg103
I0
sg104
I0
sg105
I0
sg106
g407
sg107
I0
sg108
S'KAK9'
p408
sg110
I0
sg111
I0
sg112
I0
sg113
I5
sg114
I4
sg115
I0
sg116
S'N'
p409
sbsS'n19'
p410
g232
sS'n22'
p411
(ijoueur
joueur
p412
(dp413
g27
I0
sg28
I0
sg29
I0
sg30
(ijoueur
rang
p414
(dp415
g33
I1
sg34
g172
sg36
g173
sbsg38
(dp416
g40
I0
sg41
I0
sg42
I0
sg43
I0
ssg44
(dp417
g40
I0
sg41
I0
sg42
I0
sg43
I0
ssg46
I0
sg47
I0
sg48
I0
sg49
I0
sg50
I0
sg51
I0
sg52
I0
sg53
(g54
S'AI'
p418
g109
g109
tp419
sg59
(ijoueur
rang
p420
(dp421
g33
I1
sg34
g172
sg36
g173
sbsg62
(dp422
g40
I0
sg41
I0
sg42
I0
sg43
I0
ssg64
(dp423
g40
I0
sg41
I0
sg42
I0
sg43
I0
ssg66
(dp424
g40
I0
sg41
I0
sg42
I0
sg43
I0
ssg68
(dp425
g40
I0
sg41
I0
sg42
I0
sg43
I0
ssg70
I0
sg71
I0
sg72
S'Renald'
p426
sg74
I11
sg75
I0
sg76
I19
sg77
I7
sg78
g79
sg80
(dp427
g82
I9
sg83
I3
sg84
I8
sg85
I9
sg86
I5
sg87
I6
sg88
I8
sg89
I8
sg90
I7
sg91
I8
sg92
I8
sg93
I8
sg94
I7
sg95
I10
sg96
I4
ssg97
I0
sg98
I0
sg99
I0
sg100
I0
sg101
F8.548387096774194
sg102
I0
sg103
I0
sg104
I0
sg105
I0
sg106
g427
sg107
I0
sg108
g109
sg110
I0
sg111
I0
sg112
I0
sg113
I1
sg114
I0
sg115
I0
sg116
S'EMP'
p428
sbsS'n21'
p429
(ijoueur
joueur
p430
(dp431
g27
I0
sg28
I0
sg29
I0
sg30
(ijoueur
rang
p432
(dp433
g33
I3
sg34
S'^^^'
p434
sg36
g336
sbsg38
(dp435
g40
I0
sg41
I0
sg42
I0
sg43
I0
ssg44
(dp436
g40
I0
sg41
I0
sg42
I0
sg43
I0
ssg46
I0
sg47
I0
sg48
I0
sg49
I0
sg50
I0
sg51
I0
sg52
I0
sg53
(S'dummy'
p437
S'DO'
p438
S'DM'
p439
S'CE'
p440
tp441
sg59
(ijoueur
rang
p442
(dp443
g33
I2
sg34
S'<<'
p444
sg36
g124
sbsg62
(dp445
g40
I0
sg41
I0
sg42
I0
sg43
I0
ssg64
(dp446
g40
I0
sg41
I0
sg42
I0
sg43
I0
ssg66
(dp447
g40
I0
sg41
I0
sg42
I0
sg43
I0
ssg68
(dp448
g40
I0
sg41
I0
sg42
I0
sg43
I0
ssg70
I0
sg71
I0
sg72
S'Venmaol'
p449
sg74
I11
sg75
I0
sg76
I23
sg77
I20
sg78
g79
sg80
(dp450
g82
I10
sg83
I3
sg84
I7
sg85
I9
sg86
I8
sg87
I7
sg88
I9
sg89
I7
sg90
I9
sg91
I11
sg92
I9
sg93
I9
sg94
I10
sg95
I10
sg96
I4
ssg97
I0
sg98
I0
sg99
I0
sg100
I0
sg101
F9.371428571428572
sg102
I0
sg103
I0
sg104
I0
sg105
I0
sg106
g450
sg107
I0
sg108
g109
sg110
I0
sg111
I0
sg112
I0
sg113
I1
sg114
I0
sg115
I0
sg116
S'EN'
p451
sbsS'n20'
p452
(ijoueur
joueur
p453
(dp454
g27
I0
sg28
I0
sg29
I0
sg30
(ijoueur
rang
p455
(dp456
g33
I4
sg34
g212
sg36
g37
sbsg38
(dp457
g40
I0
sg41
I0
sg42
I0
sg43
I0
ssg44
(dp458
g40
I0
sg41
I0
sg42
I0
sg43
I0
ssg46
I0
sg47
I0
sg48
I4
sg49
I1
sg50
I0
sg51
I0
sg52
I0
sg53
(g54
S'DM'
p459
S'DO'
p460
g109
tp461
sg59
(ijoueur
rang
p462
(dp463
g33
I4
sg34
g212
sg36
g37
sbsg62
(dp464
g40
I0
sg41
I0
sg42
I1
sg43
I0
ssg64
(dp465
g40
I0
sg41
I0
sg42
I0
sg43
I0
ssg66
(dp466
g40
I0
sg41
I0
sg42
I0
sg43
I0
ssg68
(dp467
g40
I0
sg41
I0
sg42
I1
sg43
I0
ssg70
I1
sg71
I0
sg72
S'Elethor'
p468
sg74
I4
sg75
I4
sg76
I14
sg77
I212
sg78
g79
sg80
(dp469
g82
I11
sg83
I2
sg84
I9
sg85
I10
sg86
I7
sg87
I6
sg88
I11
sg89
I9
sg90
I9
sg91
I11
sg92
I10
sg93
I4
sg94
I10
sg95
I9
sg96
I4
ssg97
I2
sg98
I0
sg99
I0
sg100
I0
sg101
F9.903225806451612
sg102
I0
sg103
I0
sg104
I0
sg105
I0
sg106
g469
sg107
I0
sg108
S'QNL9'
p470
sg110
I0
sg111
I0
sg112
I0
sg113
I11
sg114
I5
sg115
I0
sg116
S'HE'
p471
sbsS'n8'
p472
g252
sS'n9'
p473
(ijoueur
joueur
p474
(dp475
g27
I0
sg28
I6
sg29
I0
sg30
(ijoueur
rang
p476
(dp477
g33
I4
sg34
g212
sg36
g37
sbsg38
(dp478
g40
I0
sg41
I0
sg42
I0
sg43
I0
ssg44
(dp479
g40
I0
sg41
I0
sg42
I0
sg43
I0
ssg46
I0
sg47
I0
sg48
I69
sg49
I90
sg50
I0
sg51
I0
sg52
I0
sg53
(g54
S'DO'
p480
S'DM'
p481
g109
tp482
sg59
(ijoueur
rang
p483
(dp484
g33
I4
sg34
g212
sg36
g37
sbsg62
(dp485
g40
I0
sg41
I0
sg42
I0
sg43
I1
ssg64
(dp486
g40
I0
sg41
I0
sg42
I0
sg43
I0
ssg66
(dp487
g40
I0
sg41
I0
sg42
I0
sg43
I0
ssg68
(dp488
g40
I0
sg41
I0
sg42
I0
sg43
I1
ssg70
I90
sg71
I0
sg72
S'Lataen'
p489
sg74
I1
sg75
I69
sg76
I12
sg77
I100
sg78
g79
sg80
(dp490
g82
I12
sg83
I1
sg84
I12
sg85
I14
sg86
I9
sg87
I6
sg88
I10
sg89
I12
sg90
I10
sg91
I14
sg92
I9
sg93
I5
sg94
I11
sg95
I9
sg96
I5
ssg97
I3
sg98
I0
sg99
I0
sg100
I0
sg101
F11.090909090909092
sg102
I0
sg103
I6
sg104
I0
sg105
I0
sg106
g490
sg107
I0
sg108
S'APA10'
p491
sg110
I0
sg111
I0
sg112
I0
sg113
I10
sg114
I5
sg115
I0
sg116
S'HE'
p492
sbsS'n1'
p493
(ijoueur
joueur
p494
(dp495
g27
I0
sg28
I0
sg29
I0
sg30
(ijoueur
rang
p496
(dp497
g33
I3
sg34
S'^^^'
p498
sg36
g336
sbsg38
(dp499
g40
I0
sg41
I0
sg42
I0
sg43
I0
ssg44
(dp500
g40
I0
sg41
I0
sg42
I0
sg43
I0
ssg46
I0
sg47
I0
sg48
I0
sg49
I0
sg50
I0
sg51
I0
sg52
I0
sg53
(g54
S'PI'
p501
g109
g109
tp502
sg59
(ijoueur
rang
p503
(dp504
g33
I3
sg34
S'^^^'
p505
sg36
g336
sbsg62
(dp506
g40
I0
sg41
I0
sg42
I0
sg43
I1
ssg64
(dp507
g40
I0
sg41
I0
sg42
I0
sg43
I0
ssg66
(dp508
g40
I0
sg41
I0
sg42
I0
sg43
I0
ssg68
(dp509
g40
I0
sg41
I0
sg42
I0
sg43
I1
ssg70
I0
sg71
I0
sg72
S'Denard'
p510
sg74
I4
sg75
I0
sg76
I15
sg77
I10
sg78
g79
sg80
(dp511
g82
I8
sg83
I11
sg84
I13
sg85
I10
sg86
I5
sg87
I6
sg88
I4
sg89
I13
sg90
I2
sg91
I8
sg92
I7
sg93
I10
sg94
I2
sg95
I9
sg96
I8
ssg97
I3
sg98
I0
sg99
I0
sg100
I0
sg101
F10.148148148148149
sg102
I0
sg103
I0
sg104
I0
sg105
I0
sg106
g511
sg107
I0
sg108
g109
sg110
I0
sg111
I0
sg112
I0
sg113
I1
sg114
I0
sg115
I0
sg116
S'EMP'
p512
sbsS'n2'
p513
(ijoueur
joueur
p514
(dp515
g27
I0
sg28
I0
sg29
I0
sg30
(ijoueur
rang
p516
(dp517
g33
I5
sg34
S'**'
p518
sg36
g222
sbsg38
(dp519
g40
I0
sg41
I0
sg42
I0
sg43
I0
ssg44
(dp520
g40
I0
sg41
I0
sg42
I0
sg43
I0
ssg46
I0
sg47
I0
sg48
I0
sg49
I0
sg50
I0
sg51
I0
sg52
I0
sg53
(g54
S'TA'
p521
g109
g109
tp522
sg59
(ijoueur
rang
p523
(dp524
g33
I5
sg34
S'**'
p525
sg36
g222
sbsg62
(dp526
g40
I0
sg41
I0
sg42
I0
sg43
I1
ssg64
(dp527
g40
I0
sg41
I0
sg42
I0
sg43
I0
ssg66
(dp528
g40
I0
sg41
I0
sg42
I0
sg43
I0
ssg68
(dp529
g40
I0
sg41
I0
sg42
I0
sg43
I1
ssg70
I0
sg71
I0
sg72
S'Haphard'
p530
sg74
I6
sg75
I0
sg76
I22
sg77
I836
sg78
g79
sg80
(dp531
g82
I10
sg83
I9
sg84
I11
sg85
I10
sg86
I8
sg87
I9
sg88
I5
sg89
I13
sg90
I7
sg91
I10
sg92
I8
sg93
I12
sg94
I4
sg95
I10
sg96
I14
ssg97
I2
sg98
I0
sg99
I0
sg100
I0
sg101
F11.206896551724139
sg102
I0
sg103
I0
sg104
I0
sg105
I0
sg106
g531
sg107
I0
sg108
S'MSL9;AL11'
p532
sg110
I0
sg111
I0
sg112
I0
sg113
I49
sg114
I3
sg115
I0
sg116
S'CV'
p533
sbsS'n3'
p534
(ijoueur
joueur
p535
(dp536
g27
I0
sg28
I0
sg29
I0
sg30
(ijoueur
rang
p537
(dp538
g33
I6
sg34
S'***'
p539
sg36
g257
sbsg38
(dp540
g40
I0
sg41
I0
sg42
I0
sg43
I0
ssg44
(dp541
g40
I0
sg41
I0
sg42
I0
sg43
I0
ssg46
I0
sg47
I0
sg48
I0
sg49
I0
sg50
I0
sg51
I0
sg52
I0
sg53
(g54
S'PI'
p542
g109
g109
tp543
sg59
(ijoueur
rang
p544
(dp545
g33
I6
sg34
S'***'
p546
sg36
g257
sbsg62
(dp547
g40
I0
sg41
I0
sg42
I0
sg43
I1
ssg64
(dp548
g40
I0
sg41
I0
sg42
I0
sg43
I0
ssg66
(dp549
g40
I0
sg41
I0
sg42
I0
sg43
I0
ssg68
(dp550
g40
I0
sg41
I0
sg42
I0
sg43
I1
ssg70
I0
sg71
I0
sg72
S'Graissus'
p551
sg74
I3
sg75
I0
sg76
I15
sg77
I678
sg78
g79
sg80
(dp552
g82
I9
sg83
I17
sg84
I8
sg85
I9
sg86
I3
sg87
I15
sg88
I4
sg89
I16
sg90
I4
sg91
I5
sg92
I7
sg93
I12
sg94
I3
sg95
I8
sg96
I8
ssg97
I3
sg98
I0
sg99
I0
sg100
I0
sg101
F11.814814814814815
sg102
I0
sg103
I0
sg104
I0
sg105
I0
sg106
g552
sg107
I0
sg108
g109
sg110
I0
sg111
I0
sg112
I0
sg113
I62
sg114
I8
sg115
I0
sg116
S'OG'
p553
sbsS'n4'
p554
g189
sS'n5'
p555
(ijoueur
joueur
p556
(dp557
g27
I0
sg28
I0
sg29
I0
sg30
(ijoueur
rang
p558
(dp559
g33
I6
sg34
S'***'
p560
sg36
g257
sbsg38
(dp561
g40
I0
sg41
I0
sg42
I0
sg43
I0
ssg44
(dp562
g40
I0
sg41
I0
sg42
I0
sg43
I0
ssg46
I0
sg47
I0
sg48
I0
sg49
I0
sg50
I0
sg51
I0
sg52
I0
sg53
(g54
S'DL'
p563
S'PI'
p564
g109
tp565
sg59
(ijoueur
rang
p566
(dp567
g33
I6
sg34
S'***'
p568
sg36
g257
sbsg62
(dp569
g40
I0
sg41
I0
sg42
I1
sg43
I0
ssg64
(dp570
g40
I0
sg41
I0
sg42
I0
sg43
I0
ssg66
(dp571
g40
I0
sg41
I0
sg42
I0
sg43
I0
ssg68
(dp572
g40
I0
sg41
I0
sg42
I1
sg43
I0
ssg70
I0
sg71
I0
sg72
S'Krell'
p573
sg74
I11
sg75
I0
sg76
I19
sg77
I308
sg78
g79
sg80
(dp574
g82
I9
sg83
I9
sg84
I6
sg85
I11
sg86
I8
sg87
I10
sg88
I2
sg89
I10
sg90
I1
sg91
I10
sg92
I6
sg93
I9
sg94
I0
sg95
I9
sg96
I4
ssg97
I2
sg98
I0
sg99
I0
sg100
I0
sg101
F9.37037037037037
sg102
I0
sg103
I0
sg104
I0
sg105
I0
sg106
g574
sg107
I0
sg108
g109
sg110
I0
sg111
I0
sg112
I0
sg113
I23
sg114
I0
sg115
I0
sg116
S'CV'
p575
sbsS'n6'
p576
g168
sS'n7'
p577
g119
ssS'remplacements'
p578
(dp579
g323
S'n0'
p580
sg344
g580
sg387
g580
sg410
g580
sg411
g580
sg429
g580
sg452
g580
ssb.