(iclub
compo
p0
(dp1
S'caracs_old'
p2
(dp3
S'A'
p4
F151.75
sS'ME'
p5
F100.25
sS'E'
p6
F195.0
sS'OplusAV'
p7
F99.75
sS'OplusAR'
p8
F103.5
sS'JP'
p9
F97.75
sS'PA'
p10
F98.75
sS'M'
p11
F87.0
sS'OmoinsAR'
p12
F95.5
sS'TO_off'
p13
F114.0
sS'TO_def'
p14
F106.5
sS'OmoinsAV'
p15
F102.0
sS'R'
p16
F178.75
ssS'totaux_old'
p17
(dp18
S'T2'
p19
F174.25
sS'T3'
p20
F97.5
sS'T1'
p21
F194.75
ssS'roles'
p22
(dp23
S'SA_scd'
p24
(ijoueur
joueur
p25
(dp26
S'rouges_total'
p27
I0
sS'residu_experience'
p28
F3.0
sS'drop_ratees_total'
p29
I0
sS'drops_total'
p30
I0
sS'xp_total'
p31
F39.502908735920435
sS'poste3'
p32
S''
p33
sS'blessure'
p34
I0
sS'poste1'
p35
g33
sS'points_retraite'
p36
I0
sS'RG_max'
p37
ccopy_reg
_reconstructor
p38
(cjoueur
rang_new
p39
c__builtin__
object
p40
Ntp41
Rp42
(dp43
S'type_nb'
p44
I4
sS'rang'
p45
S'x'
p46
sS'type'
p47
S'heros'
p48
sbsS'caracs_saison_13'
p49
(dp50
sS'MJ2_total'
p51
(dp52
S'SR'
p53
I0
sS'ST'
p54
I6
sS'CR'
p55
I2
sS'CT'
p56
I11
ssS'EV_saison_13'
p57
F10.029411764705882
sS'MJ3_total'
p58
(dp59
g53
I0
sg54
I0
sg55
I0
sg56
I0
ssS'random_retraite'
p60
I9
sS'anciens_clubs'
p61
g33
sS'carte_evolution'
p62
(dp63
S'couleur'
p64
I4
sS'valeur'
p65
I12
sS'r_n'
p66
S'r'
p67
ssS'drop_rates_saison'
p68
I0
sS'xp_saison'
p69
F39.502908735920435
sS'nouveau_bonus_evolution'
p70
I00
sS'num_dernier_bonus'
p71
I2
sS'essais_saison'
p72
I0
sS'penalite_ratees_saison'
p73
I0
sS'transformations_saison'
p74
I0
sS'club'
p75
S'MAG'
p76
sS'veut_partir'
p77
I00
sS'experience_total'
p78
F18.0
sS'MJ1'
p79
(dp80
S'SR'
p81
I0
sS'CT'
p82
I0
sS'CR'
p83
I0
sS'ST'
p84
I0
ssS'MS_probleme'
p85
I00
sS'MJ3'
p86
(dp87
g81
I0
sg82
I0
sg83
I0
sg84
I0
ssS'MJ1_total'
p88
(dp89
g53
I0
sg54
I0
sg55
I0
sg56
I3
ssS'penalites_total'
p90
I0
sS'postes_maitrises'
p91
(lp92
S'dummy'
p93
aI01
aI01
aI00
asS'penalites_saison'
p94
I0
sS'nom'
p95
S'Woelod'
p96
sS'C'
p97
I6
sS'transformations_total'
p98
I0
sS'D'
p99
I14
sS'VAL'
p100
I157
sS'bonus'
p101
I3
sS'retraite'
p102
I00
sS'poste2'
p103
g33
sS'caracs'
p104
(dp105
S'RP1'
p106
I8
sS'ME'
p107
I9
sS'RP2'
p108
I8
sS'E'
p109
I9
sS'P'
p110
I5
sS'JP'
p111
I5
sS'M'
p112
I7
sS'RP_tot'
p113
I10
sS'TO'
p114
I12
sS'PA'
p115
I10
sS'A'
p116
I9
sS'R'
p117
I10
sS'TB'
p118
I5
sS'PL'
p119
I10
sS'TA'
p120
I4
ssS'RG'
p121
g42
sS'fatigue'
p122
cnumpy.core.multiarray
scalar
p123
(cnumpy
dtype
p124
(S'i4'
p125
I0
I1
tp126
Rp127
(I3
S'<'
p128
NNNI-1
I-1
I0
tp129
bS'\x04\x00\x00\x00'
p130
tp131
Rp132
sS'changements_postes'
p133
g33
sS'blessures_total'
p134
I0
sS'experience_saison'
p135
I0
sS'XP'
p136
I0
sS'EV'
p137
F10.029411764705882
sS'penalite_ratees_total'
p138
I0
sS'postes'
p139
(S'dummy'
p140
S'DL'
p141
S'TL'
p142
g33
tp143
sS'evolution'
p144
I0
sS'MJ2'
p145
(dp146
g81
I0
sg82
I2
sg83
I2
sg84
I0
ssS'jj_passe'
p147
(dp148
S's13'
p149
(ijoueur
joueur
p150
(dp151
g27
I0
sg28
F3.0
sg29
I0
sg30
I0
sg71
I2
sg34
I0
sg37
g42
sg51
(dp152
S'SR'
p153
I0
sS'CT'
p154
I0
sS'CR'
p155
I0
sS'ST'
p156
I0
ssg58
g59
sg61
g33
sg62
(dp157
S'couleur'
p158
I1
sS'valeur'
p159
I1
sS'r_n'
p160
S'n'
p161
ssg68
I0
sg72
I1
sg73
I0
sg74
I0
sg139
g143
sg77
I00
sg121
g42
sg78
F18.0
sg85
I00
sg86
(dp162
g53
I0
sg54
I0
sg55
I0
sg56
I0
ssg88
g89
sg90
I0
sg91
(lp163
S'dummy'
p164
aI01
aI01
aI00
asg79
(dp165
g53
I0
sg54
I0
sg55
I0
sg56
I3
ssg75
g76
sg95
S'Woelod (13)'
p166
sg97
I6
sg98
I0
sg99
I14
sg100
I157
sg101
I0
sg104
(dp167
S'A'
p168
I0
sS'ME'
p169
I0
sS'RP2'
p170
I0
sS'E'
p171
I0
sS'P'
p172
I0
sS'RP1'
p173
I0
sS'JP'
p174
I0
sS'RP_tot'
p175
I0
sS'TO'
p176
I0
sS'PA'
p177
I0
sS'M'
p178
I0
sS'R'
p179
I0
sS'TB'
p180
I0
sS'PL'
p181
I0
sS'TA'
p182
I0
ssg147
(dp183
sg122
I0
sg133
g33
sg134
I0
sg135
F18.0
sg136
I0
sg137
F10.029411764705882
sg138
I0
sg144
I0
sg145
(dp184
g53
I0
sg54
I6
sg55
I0
sg56
I9
ssS'jaunes_total'
p185
I0
sS'caracs_sans_fatigue'
p186
(dp187
S'A'
p188
I9
sS'ME'
p189
I9
sS'RP2'
p190
I8
sS'E'
p191
I9
sS'TO'
p192
I12
sS'RP1'
p193
I8
sS'JP'
p194
I5
sS'RP_tot'
p195
I10
sS'P'
p196
I5
sS'PA'
p197
I10
sS'M'
p198
I7
sS'R'
p199
I10
sS'TB'
p200
I5
sS'PL'
p201
I10
sS'TA'
p202
I4
ssS'rouges_saison'
p203
I0
sS'transformation_ratees_total'
p204
I0
sS'drops_saison'
p205
I0
sS'transformation_ratees_saison'
p206
I0
sS'MS'
p207
I15
sS'essais_total'
p208
I0
sS'blessures_saison'
p209
I0
sg94
I0
sS'jaunes_saison'
p210
I0
sS'ARM'
p211
S'EST'
p212
sbsS's12'
p213
(ijoueur
joueur
p214
(dp215
g27
I0
sg28
I0
sg29
I0
sg30
I0
sg71
I0
sg34
I0
sg37
g38
(g39
g40
Ntp216
Rp217
(dp218
g45
g33
sbsg51
(dp219
g53
I0
sg54
I0
sg55
I0
sg56
I0
ssg58
(dp220
g53
I0
sg54
I0
sg55
I0
sg56
I0
ssg61
g33
sg62
(dp221
g158
I1
sg159
I1
sg160
g161
ssg68
I0
sg72
I0
sg73
I0
sg74
I0
sg139
(g140
g141
g33
g33
tp222
sg77
I00
sg121
g38
(g39
g40
Ntp223
Rp224
(dp225
g45
g33
sbsg78
I0
sg85
I00
sg86
(dp226
g53
I0
sg54
I0
sg55
I0
sg56
I0
ssg88
(dp227
g53
I0
sg54
I0
sg55
I0
sg56
I0
ssg90
I0
sg91
(lp228
g164
aI01
aI00
aI00
asg79
(dp229
g53
I0
sg54
I0
sg55
I0
sg56
I0
ssg75
g76
sg95
S'Woelod (12)'
p230
sg97
I0
sg98
I0
sg99
I0
sg100
I0
sg101
I0
sg104
(dp231
g116
I0
sg107
I0
sg108
I0
sg109
I0
sg114
I0
sg106
I0
sg111
I0
sg113
I0
sg110
I0
sg115
I0
sg112
I0
sg117
I0
sg118
I0
sg119
I0
sg120
I0
ssg147
(dp232
sg122
I0
sg133
g33
sg134
I0
sg135
I0
sg136
I0
sg137
F10.029411764705882
sg138
I0
sg144
I0
sg145
(dp233
g53
I0
sg54
I0
sg55
I0
sg56
I0
ssg185
I0
sg186
(dp234
g106
I8
sg107
I9
sg108
I8
sg109
I9
sg114
I12
sg112
I7
sg111
I5
sg113
I10
sg110
I5
sg115
I10
sg116
I9
sg117
I10
sg118
I5
sg119
I10
sg120
I4
ssg203
I0
sg204
I0
sg205
I0
sg206
I0
sg207
I0
sg208
I0
sg209
I0
sg94
I0
sg210
I0
sg211
g33
sbsS's11'
p235
(ijoueur
joueur
p236
(dp237
g27
I0
sg28
I0
sg29
I0
sg30
I0
sg71
I0
sg34
I0
sg37
g38
(g39
g40
Ntp238
Rp239
(dp240
g45
g33
sbsg51
(dp241
g53
I0
sg54
I0
sg55
I0
sg56
I0
ssg58
(dp242
g53
I0
sg54
I0
sg55
I0
sg56
I0
ssg61
g33
sg62
(dp243
g158
I1
sg159
I1
sg160
g161
ssg68
I0
sg72
I0
sg73
I0
sg74
I0
sg139
g222
sg77
I00
sg121
g38
(g39
g40
Ntp244
Rp245
(dp246
g45
g33
sbsg78
I0
sg85
I00
sg86
(dp247
g53
I0
sg54
I0
sg55
I0
sg56
I0
ssg88
(dp248
g53
I0
sg54
I0
sg55
I0
sg56
I0
ssg90
I0
sg91
(lp249
g164
aI01
aI00
aI00
asg79
(dp250
g53
I0
sg54
I0
sg55
I0
sg56
I0
ssg75
g76
sg95
S'Woelod (11)'
p251
sg97
I0
sg98
I0
sg99
I0
sg100
I0
sg101
I0
sg104
(dp252
g116
I0
sg107
I0
sg108
I0
sg109
I0
sg114
I0
sg106
I0
sg111
I0
sg113
I0
sg110
I0
sg115
I0
sg112
I0
sg117
I0
sg118
I0
sg119
I0
sg120
I0
ssg147
(dp253
sg122
I0
sg133
g33
sg134
I0
sg135
I0
sg136
I0
sg137
F10.029411764705882
sg138
I0
sg144
I0
sg145
(dp254
g53
I0
sg54
I0
sg55
I0
sg56
I0
ssg185
I0
sg186
g234
sg203
I0
sg204
I0
sg205
I0
sg206
I0
sg207
I0
sg208
I0
sg209
I0
sg94
I0
sg210
I0
sg211
g33
sbssg185
I0
sg186
g234
sg203
I0
sg204
I0
sg205
I0
sg206
I0
sg207
I15
sg208
I1
sg209
I0
sg210
I0
sg211
g212
sbsS'drop3'
p255
(ijoueur
joueur
p256
(dp257
g27
I1
sg28
F1.0
sg29
I3
sg30
I5
sg31
F29.649905636007844
sg32
g33
sg34
I0
sg35
g33
sg36
I0
sg37
g38
(g39
g40
Ntp258
Rp259
(dp260
g44
I4
sg45
S'*'
p261
sg47
S'heros'
p262
sbsg49
(dp263
sg51
(dp264
S'SR'
p265
I0
sS'ST'
p266
I0
sS'CR'
p267
I0
sS'CT'
p268
I0
ssg57
F8.741935483870968
sg58
(dp269
g265
I0
sg266
I0
sg267
I0
sg268
I0
ssS'rand_retraite'
p270
I10
sg61
g33
sg62
(dp271
S'couleur'
p272
I2
sS'valeur'
p273
I3
sS'r_n'
p274
S'r'
p275
ssg68
I0
sg69
F29.649905636007844
sg70
I01
sg71
I3
sg72
I0
sg73
I0
sg74
I0
sg75
S'MAG'
p276
sg77
I00
sg78
F11.0
sg79
(dp277
S'SR'
p278
I0
sS'CT'
p279
I3
sS'CR'
p280
I0
sS'ST'
p281
I0
ssg145
(dp282
g278
I0
sg279
I0
sg280
I0
sg281
I0
ssg86
(dp283
g278
I0
sg279
I0
sg280
I0
sg281
I0
ssg88
(dp284
g265
I0
sg266
I0
sg267
I0
sg268
I14
ssg90
I0
sg91
(lp285
S'dummy'
p286
aI01
aI01
aI00
asg94
I0
sg95
S'Nardel'
p287
sg97
I12
sg98
I0
sg85
I00
sg100
I54
sg101
I3
sg102
I00
sg103
g33
sg99
I23
sg104
(dp288
S'RP1'
p289
I9
sS'ME'
p290
I4
sS'RP2'
p291
I9
sS'E'
p292
I8
sS'P'
p293
I9
sS'JP'
p294
I11
sS'M'
p295
I9
sS'RP_tot'
p296
I11
sS'TO'
p297
I4
sS'PA'
p298
I9
sS'A'
p299
I11
sS'R'
p300
I9
sS'TB'
p301
I8
sS'PL'
p302
I9
sS'TA'
p303
I5
ssg121
g259
sg122
g123
(g127
S'\x04\x00\x00\x00'
p304
tp305
Rp306
sg133
g33
sg134
I0
sg135
I0
sg136
I0
sg137
F9.709677419354838
sg138
I0
sg139
(S'dummy'
p307
S'AI'
p308
S'CE'
p309
g33
tp310
sg144
I2
sg209
I0
sg147
(dp311
S's13'
p312
(ijoueur
joueur
p313
(dp314
g27
I0
sg28
F4.0
sg29
I0
sg30
I0
sg71
I3
sg34
I0
sg37
g259
sg51
(dp315
S'SR'
p316
I0
sS'CT'
p317
I0
sS'CR'
p318
I0
sS'ST'
p319
I0
ssg58
g269
sg61
g33
sg207
I1
sg62
(dp320
S'couleur'
p321
I1
sS'valeur'
p322
I1
sS'r_n'
p323
S'n'
p324
ssg68
I3
sg72
I0
sg73
I0
sg74
I0
sg75
g276
sg77
I00
sg121
g38
(g39
g40
Ntp325
Rp326
(dp327
g44
I3
sg45
S'^^^'
p328
sg47
S'rare'
p329
sbsg78
F11.0
sg85
I00
sg86
(dp330
g265
I0
sg266
I0
sg267
I0
sg268
I0
ssg88
g284
sg90
I0
sg91
(lp331
S'dummy'
p332
aI01
aI01
aI00
asg79
(dp333
g265
I0
sg266
I0
sg267
I0
sg268
I11
ssg95
g287
sg97
I12
sg98
I0
sg99
I23
sg100
I14
sg139
g310
sg104
(dp334
S'A'
p335
I0
sS'ME'
p336
I0
sS'RP2'
p337
I0
sS'E'
p338
I0
sS'P'
p339
I0
sS'RP1'
p340
I0
sS'JP'
p341
I0
sS'RP_tot'
p342
I0
sS'TO'
p343
I0
sS'PA'
p344
I0
sS'M'
p345
I0
sS'R'
p346
I0
sS'TB'
p347
I0
sS'PL'
p348
I0
sS'TA'
p349
I0
ssg147
(dp350
sg122
I0
sg133
g33
sg134
I0
sg135
F11.0
sg136
I0
sg137
F8.741935483870968
sg138
I0
sg144
I0
sg145
(dp351
g265
I0
sg266
I0
sg267
I0
sg268
I0
ssg185
I0
sg186
(dp352
S'A'
p353
I10
sS'ME'
p354
I3
sS'RP2'
p355
I7
sS'E'
p356
I8
sS'TO'
p357
I3
sS'RP1'
p358
I8
sS'JP'
p359
I9
sS'RP_tot'
p360
I9
sS'P'
p361
I8
sS'PA'
p362
I8
sS'M'
p363
I9
sS'R'
p364
I7
sS'TB'
p365
I7
sS'PL'
p366
I8
sS'TA'
p367
I4
ssg203
I0
sg204
I0
sg205
I4
sg206
I0
sg101
I0
sg208
I0
sg209
I0
sg94
I0
sg210
I0
sg211
S'EST'
p368
sbsS's12'
p369
(ijoueur
joueur
p370
(dp371
g27
I0
sg28
I0
sg29
I0
sg30
I0
sg71
I0
sg34
I0
sg37
g38
(g39
g40
Ntp372
Rp373
(dp374
g45
g33
sbsg51
(dp375
g265
I0
sg266
I0
sg267
I0
sg268
I0
ssg58
(dp376
g265
I0
sg266
I0
sg267
I0
sg268
I0
ssg61
g33
sg207
I0
sg62
(dp377
g321
I1
sg322
I1
sg323
g324
ssg68
I0
sg72
I0
sg73
I0
sg74
I0
sg75
g276
sg77
I00
sg121
g38
(g39
g40
Ntp378
Rp379
(dp380
g45
g33
sbsg78
I0
sg85
I00
sg86
(dp381
g265
I0
sg266
I0
sg267
I0
sg268
I0
ssg88
(dp382
g265
I0
sg266
I0
sg267
I0
sg268
I0
ssg90
I0
sg91
(lp383
g332
aI01
aI00
aI00
asg79
(dp384
g265
I0
sg266
I0
sg267
I0
sg268
I0
ssg95
g33
sg97
I0
sg98
I0
sg99
I0
sg100
I0
sg139
(g307
g308
g33
g33
tp385
sg104
(dp386
g299
I0
sg290
I0
sg291
I0
sg292
I0
sg297
I0
sg289
I0
sg294
I0
sg296
I0
sg293
I0
sg298
I0
sg295
I0
sg300
I0
sg301
I0
sg302
I0
sg303
I0
ssg147
(dp387
sg122
I0
sg133
g33
sg134
I0
sg135
I0
sg136
I0
sg137
F8.741935483870968
sg138
I0
sg144
I0
sg145
(dp388
g265
I0
sg266
I0
sg267
I0
sg268
I0
ssg185
I0
sg186
(dp389
g289
I9
sg290
I4
sg291
I9
sg292
I8
sg297
I4
sg295
I9
sg294
I11
sg296
I11
sg293
I9
sg298
I9
sg299
I11
sg300
I9
sg301
I8
sg302
I9
sg303
I5
ssg203
I0
sg204
I0
sg205
I0
sg206
I0
sg101
I0
sg208
I0
sg209
I0
sg94
I0
sg210
I0
sg211
g33
sbssg185
I2
sg186
g389
sg203
I0
sg204
I0
sg205
I1
sg206
I0
sg207
I5
sg208
I0
sg210
I0
sg211
g368
sbsS'cap'
p390
(ijoueur
joueur
p391
(dp392
g27
I0
sg28
F4.5
sg29
I0
sg30
I0
sg31
F39.502908735920435
sg32
g33
sg34
I0
sg35
g33
sg36
I0
sg37
g38
(g39
g40
Ntp393
Rp394
(dp395
g44
I5
sg45
S'**'
p396
sg47
S'seigneur'
p397
sbsg49
(dp398
sg51
(dp399
g265
I0
sg266
I0
sg267
I0
sg268
I1
ssg57
F10.764705882352942
sg58
(dp400
g265
I0
sg266
I0
sg267
I0
sg268
I0
ssg270
I10
sg61
g33
sg62
(dp401
g272
I1
sg273
I1
sg274
S'n'
p402
ssg68
I0
sg69
F39.502908735920435
sg70
I00
sg71
I3
sg72
I0
sg73
I0
sg74
I0
sg75
g276
sg77
I00
sg78
F17.5
sg79
(dp403
g278
I0
sg279
I4
sg280
I0
sg281
I0
ssg145
(dp404
g278
I0
sg279
I0
sg280
I0
sg281
I0
ssg86
(dp405
g278
I0
sg279
I0
sg280
I0
sg281
I0
ssg88
(dp406
g265
I0
sg266
I7
sg267
I1
sg268
I13
ssg90
I0
sg91
(lp407
g286
aI01
aI01
aI00
asg94
I0
sg95
S'Fafonel'
p408
sg97
I10
sg98
I0
sg85
I00
sg100
I144
sg101
I3
sg102
I00
sg103
g33
sg99
I22
sg104
(dp409
g289
I10
sg290
I12
sg291
I8
sg292
I13
sg293
I3
sg294
I4
sg295
I7
sg296
I11
sg297
I12
sg298
I9
sg299
I9
sg300
I9
sg301
I5
sg302
I10
sg303
I6
ssg121
g394
sg122
I12
sg133
g33
sg134
I1
sg135
I0
sg136
I0
sg137
F11.117647058823529
sg138
I0
sg139
(g307
S'DL'
p410
S'TL'
p411
g33
tp412
sg144
I3
sg209
I0
sg147
(dp413
S's13'
p414
(ijoueur
joueur
p415
(dp416
g27
I0
sg28
F4.5
sg29
I0
sg30
I0
sg71
I3
sg34
I0
sg37
g394
sg51
(dp417
g316
I0
sg317
I0
sg318
I0
sg319
I0
ssg58
g400
sg61
g33
sg207
I14
sg62
(dp418
g321
I1
sg322
I1
sg323
g324
ssg68
I0
sg72
I1
sg73
I0
sg74
I0
sg75
g276
sg77
I00
sg121
g394
sg78
F17.5
sg85
I00
sg86
(dp419
g265
I0
sg266
I0
sg267
I0
sg268
I0
ssg88
g406
sg90
I0
sg91
(lp420
g332
aI01
aI01
aI00
asg79
(dp421
g265
I0
sg266
I7
sg267
I1
sg268
I9
ssg95
g408
sg97
I10
sg98
I0
sg99
I22
sg100
I144
sg139
g412
sg104
(dp422
g335
I0
sg336
I0
sg337
I0
sg338
I0
sg339
I0
sg340
I0
sg341
I0
sg342
I0
sg343
I0
sg344
I0
sg345
I0
sg346
I0
sg347
I0
sg348
I0
sg349
I0
ssg147
(dp423
sg122
I0
sg133
g33
sg134
I0
sg135
F17.5
sg136
I0
sg137
F10.764705882352942
sg138
I0
sg144
I0
sg145
(dp424
g265
I0
sg266
I0
sg267
I0
sg268
I1
ssg185
I0
sg186
(dp425
g353
I10
sg354
I10
sg355
I8
sg356
I13
sg357
I12
sg358
I10
sg359
I4
sg360
I11
sg361
I3
sg362
I9
sg363
I7
sg364
I10
sg365
I5
sg366
I10
sg367
I6
ssg203
I0
sg204
I0
sg205
I0
sg206
I0
sg101
I0
sg208
I0
sg209
I0
sg94
I0
sg210
I0
sg211
g368
sbsS's12'
p426
(ijoueur
joueur
p427
(dp428
g27
I0
sg28
I0
sg29
I0
sg30
I0
sg71
I0
sg34
I0
sg37
g38
(g39
g40
Ntp429
Rp430
(dp431
g45
g33
sbsg51
(dp432
g265
I0
sg266
I0
sg267
I0
sg268
I0
ssg58
(dp433
g265
I0
sg266
I0
sg267
I0
sg268
I0
ssg61
g33
sg207
I0
sg62
(dp434
g321
I1
sg322
I1
sg323
g324
ssg68
I0
sg72
I0
sg73
I0
sg74
I0
sg75
g276
sg77
I00
sg121
g38
(g39
g40
Ntp435
Rp436
(dp437
g45
g33
sbsg78
I0
sg85
I00
sg86
(dp438
g265
I0
sg266
I0
sg267
I0
sg268
I0
ssg88
(dp439
g265
I0
sg266
I0
sg267
I0
sg268
I0
ssg90
I0
sg91
(lp440
g332
aI01
aI00
aI00
asg79
(dp441
g265
I0
sg266
I0
sg267
I0
sg268
I0
ssg95
g33
sg97
I0
sg98
I0
sg99
I0
sg100
I0
sg139
(g307
g410
g33
g33
tp442
sg104
(dp443
g299
I0
sg290
I0
sg291
I0
sg292
I0
sg297
I0
sg289
I0
sg294
I0
sg296
I0
sg293
I0
sg298
I0
sg295
I0
sg300
I0
sg301
I0
sg302
I0
sg303
I0
ssg147
(dp444
sg122
I0
sg133
g33
sg134
I0
sg135
I0
sg136
I0
sg137
F10.764705882352942
sg138
I0
sg144
I0
sg145
(dp445
g265
I0
sg266
I0
sg267
I0
sg268
I0
ssg185
I0
sg186
(dp446
g289
I10
sg290
I12
sg291
I8
sg292
I13
sg297
I12
sg295
I7
sg294
I4
sg296
I11
sg293
I3
sg298
I9
sg299
I10
sg300
I10
sg301
I5
sg302
I11
sg303
I6
ssg203
I0
sg204
I0
sg205
I0
sg206
I0
sg101
I0
sg208
I0
sg209
I0
sg94
I0
sg210
I0
sg211
g33
sbsS's11'
p447
(ijoueur
joueur
p448
(dp449
g27
I0
sg28
I0
sg29
I0
sg30
I0
sg71
I0
sg34
I0
sg37
g38
(g39
g40
Ntp450
Rp451
(dp452
g45
g33
sbsg51
(dp453
g265
I0
sg266
I0
sg267
I0
sg268
I0
ssg58
(dp454
g265
I0
sg266
I0
sg267
I0
sg268
I0
ssg61
g33
sg207
I0
sg62
(dp455
g321
I1
sg322
I1
sg323
g324
ssg68
I0
sg72
I0
sg73
I0
sg74
I0
sg75
g276
sg77
I00
sg121
g38
(g39
g40
Ntp456
Rp457
(dp458
g45
g33
sbsg78
I0
sg85
I00
sg86
(dp459
g265
I0
sg266
I0
sg267
I0
sg268
I0
ssg88
(dp460
g265
I0
sg266
I0
sg267
I0
sg268
I0
ssg90
I0
sg91
(lp461
g332
aI01
aI00
aI00
asg79
(dp462
g265
I0
sg266
I0
sg267
I0
sg268
I0
ssg95
g33
sg97
I0
sg98
I0
sg99
I0
sg100
I0
sg139
g442
sg104
(dp463
g299
I0
sg290
I0
sg291
I0
sg292
I0
sg297
I0
sg289
I0
sg294
I0
sg296
I0
sg293
I0
sg298
I0
sg295
I0
sg300
I0
sg301
I0
sg302
I0
sg303
I0
ssg147
(dp464
sg122
I0
sg133
g33
sg134
I0
sg135
I0
sg136
I0
sg137
F10.764705882352942
sg138
I0
sg144
I0
sg145
(dp465
g265
I0
sg266
I0
sg267
I0
sg268
I0
ssg185
I0
sg186
g446
sg203
I0
sg204
I0
sg205
I0
sg206
I0
sg101
I0
sg208
I0
sg209
I0
sg94
I0
sg210
I0
sg211
g33
sbssg185
I0
sg186
g446
sg203
I0
sg204
I0
sg205
I0
sg206
I0
sg207
I14
sg208
I1
sg210
I0
sg211
g368
sbsS'SA_pcp2'
p466
(ijoueur
joueur
p467
(dp468
g27
I0
sg28
F4.5
sg29
I0
sg30
I0
sg31
F39.502908735920435
sg32
g33
sg34
I0
sg35
g33
sg36
I0
sg37
g38
(g39
g40
Ntp469
Rp470
(dp471
g44
I5
sg45
S'**'
p472
sg47
S'seigneur'
p473
sbsg49
(dp474
sg51
(dp475
g53
I0
sg54
I0
sg55
I0
sg56
I1
ssg57
F10.764705882352942
sg58
(dp476
g53
I0
sg54
I0
sg55
I0
sg56
I0
ssg270
I10
sg61
g33
sg62
(dp477
g64
I1
sg65
I1
sg66
S'n'
p478
ssg68
I0
sg69
F39.502908735920435
sg70
I00
sg71
I3
sg72
I0
sg73
I0
sg74
I0
sg75
g76
sg77
I00
sg78
F17.5
sg79
(dp479
g81
I0
sg82
I4
sg83
I0
sg84
I0
ssg145
(dp480
g81
I0
sg82
I0
sg83
I0
sg84
I0
ssg86
(dp481
g81
I0
sg82
I0
sg83
I0
sg84
I0
ssg88
(dp482
g53
I0
sg54
I7
sg55
I1
sg56
I13
ssg90
I0
sg91
(lp483
g93
aI01
aI01
aI00
asg94
I0
sg95
S'Fafonel'
p484
sg97
I10
sg98
I0
sg85
I00
sg100
I144
sg101
I3
sg102
I00
sg103
g33
sg99
I22
sg104
(dp485
g106
I10
sg107
I12
sg108
I8
sg109
I13
sg110
I3
sg111
I4
sg112
I7
sg113
I11
sg114
I12
sg115
I9
sg116
I9
sg117
I9
sg118
I5
sg119
I10
sg120
I6
ssg121
g470
sg122
I12
sg133
g33
sg134
I1
sg135
I0
sg136
I0
sg137
F11.117647058823529
sg138
I0
sg139
(g140
g141
S'TL'
p486
g33
tp487
sg144
I3
sg209
I0
sg147
(dp488
S's13'
p489
(ijoueur
joueur
p490
(dp491
g27
I0
sg28
F4.5
sg29
I0
sg30
I0
sg71
I3
sg34
I0
sg37
g470
sg51
(dp492
g153
I0
sg154
I0
sg155
I0
sg156
I0
ssg58
g476
sg61
g33
sg62
(dp493
g158
I1
sg159
I1
sg160
g161
ssg68
I0
sg72
I1
sg73
I0
sg74
I0
sg139
g487
sg77
I00
sg121
g470
sg78
F17.5
sg85
I00
sg86
(dp494
g53
I0
sg54
I0
sg55
I0
sg56
I0
ssg88
g482
sg90
I0
sg91
(lp495
g164
aI01
aI01
aI00
asg79
(dp496
g53
I0
sg54
I7
sg55
I1
sg56
I9
ssg75
g76
sg95
S'Fafonel (13)'
p497
sg97
I10
sg98
I0
sg99
I22
sg100
I144
sg101
I0
sg104
(dp498
g168
I0
sg169
I0
sg170
I0
sg171
I0
sg172
I0
sg173
I0
sg174
I0
sg175
I0
sg176
I0
sg177
I0
sg178
I0
sg179
I0
sg180
I0
sg181
I0
sg182
I0
ssg147
(dp499
sg122
I0
sg133
g33
sg134
I0
sg135
F17.5
sg136
I0
sg137
F10.764705882352942
sg138
I0
sg144
I0
sg145
(dp500
g53
I0
sg54
I0
sg55
I0
sg56
I1
ssg185
I0
sg186
(dp501
g188
I10
sg189
I10
sg190
I8
sg191
I13
sg192
I12
sg193
I10
sg194
I4
sg195
I11
sg196
I3
sg197
I9
sg198
I7
sg199
I10
sg200
I5
sg201
I10
sg202
I6
ssg203
I0
sg204
I0
sg205
I0
sg206
I0
sg207
I14
sg208
I0
sg209
I0
sg94
I0
sg210
I0
sg211
g212
sbsS's12'
p502
(ijoueur
joueur
p503
(dp504
g27
I0
sg28
I0
sg29
I0
sg30
I0
sg71
I0
sg34
I0
sg37
g38
(g39
g40
Ntp505
Rp506
(dp507
g45
g33
sbsg51
(dp508
g53
I0
sg54
I0
sg55
I0
sg56
I0
ssg58
(dp509
g53
I0
sg54
I0
sg55
I0
sg56
I0
ssg61
g33
sg62
(dp510
g158
I1
sg159
I1
sg160
g161
ssg68
I0
sg72
I0
sg73
I0
sg74
I0
sg139
(g140
g141
g33
g33
tp511
sg77
I00
sg121
g38
(g39
g40
Ntp512
Rp513
(dp514
g45
g33
sbsg78
I0
sg85
I00
sg86
(dp515
g53
I0
sg54
I0
sg55
I0
sg56
I0
ssg88
(dp516
g53
I0
sg54
I0
sg55
I0
sg56
I0
ssg90
I0
sg91
(lp517
g164
aI01
aI00
aI00
asg79
(dp518
g53
I0
sg54
I0
sg55
I0
sg56
I0
ssg75
g76
sg95
S'Fafonel (12)'
p519
sg97
I0
sg98
I0
sg99
I0
sg100
I0
sg101
I0
sg104
(dp520
g116
I0
sg107
I0
sg108
I0
sg109
I0
sg114
I0
sg106
I0
sg111
I0
sg113
I0
sg110
I0
sg115
I0
sg112
I0
sg117
I0
sg118
I0
sg119
I0
sg120
I0
ssg147
(dp521
sg122
I0
sg133
g33
sg134
I0
sg135
I0
sg136
I0
sg137
F10.764705882352942
sg138
I0
sg144
I0
sg145
(dp522
g53
I0
sg54
I0
sg55
I0
sg56
I0
ssg185
I0
sg186
(dp523
g106
I10
sg107
I12
sg108
I8
sg109
I13
sg114
I12
sg112
I7
sg111
I4
sg113
I11
sg110
I3
sg115
I9
sg116
I10
sg117
I10
sg118
I5
sg119
I11
sg120
I6
ssg203
I0
sg204
I0
sg205
I0
sg206
I0
sg207
I0
sg208
I0
sg209
I0
sg94
I0
sg210
I0
sg211
g33
sbsS's11'
p524
(ijoueur
joueur
p525
(dp526
g27
I0
sg28
I0
sg29
I0
sg30
I0
sg71
I0
sg34
I0
sg37
g38
(g39
g40
Ntp527
Rp528
(dp529
g45
g33
sbsg51
(dp530
g53
I0
sg54
I0
sg55
I0
sg56
I0
ssg58
(dp531
g53
I0
sg54
I0
sg55
I0
sg56
I0
ssg61
g33
sg62
(dp532
g158
I1
sg159
I1
sg160
g161
ssg68
I0
sg72
I0
sg73
I0
sg74
I0
sg139
g511
sg77
I00
sg121
g38
(g39
g40
Ntp533
Rp534
(dp535
g45
g33
sbsg78
I0
sg85
I00
sg86
(dp536
g53
I0
sg54
I0
sg55
I0
sg56
I0
ssg88
(dp537
g53
I0
sg54
I0
sg55
I0
sg56
I0
ssg90
I0
sg91
(lp538
g164
aI01
aI00
aI00
asg79
(dp539
g53
I0
sg54
I0
sg55
I0
sg56
I0
ssg75
g76
sg95
S'Fafonel (11)'
p540
sg97
I0
sg98
I0
sg99
I0
sg100
I0
sg101
I0
sg104
(dp541
g116
I0
sg107
I0
sg108
I0
sg109
I0
sg114
I0
sg106
I0
sg111
I0
sg113
I0
sg110
I0
sg115
I0
sg112
I0
sg117
I0
sg118
I0
sg119
I0
sg120
I0
ssg147
(dp542
sg122
I0
sg133
g33
sg134
I0
sg135
I0
sg136
I0
sg137
F10.764705882352942
sg138
I0
sg144
I0
sg145
(dp543
g53
I0
sg54
I0
sg55
I0
sg56
I0
ssg185
I0
sg186
g523
sg203
I0
sg204
I0
sg205
I0
sg206
I0
sg207
I0
sg208
I0
sg209
I0
sg94
I0
sg210
I0
sg211
g33
sbssg185
I0
sg186
g523
sg203
I0
sg204
I0
sg205
I0
sg206
I0
sg207
I14
sg208
I1
sg210
I0
sg211
g212
sbsS'B4'
p544
(ijoueur
joueur
p545
(dp546
g27
I0
sg28
F5.0
sg29
I1
sg30
I0
sg31
F39.502908735920435
sg32
g33
sg34
I0
sg35
g33
sg36
I0
sg37
g38
(g39
g40
Ntp547
Rp548
(dp549
g44
I4
sg45
g261
sg47
g262
sbsg49
(dp550
sg51
(dp551
g265
I0
sg266
I0
sg267
I0
sg268
I0
ssg57
F9.233333333333333
sg58
(dp552
g265
I0
sg266
I0
sg267
I0
sg268
I0
ssg270
I10
sg61
g33
sg62
(dp553
g272
I1
sg273
I12
sg274
g402
ssg68
I1
sg69
F39.502908735920435
sg70
I01
sg71
I2
sg72
I2
sg73
I1
sg74
I3
sg75
g276
sg77
I00
sg78
F12.0
sg79
(dp554
g278
I0
sg279
I4
sg280
I0
sg281
I0
ssg145
(dp555
g278
I0
sg279
I0
sg280
I0
sg281
I0
ssg86
(dp556
g278
I0
sg279
I0
sg280
I0
sg281
I0
ssg88
(dp557
g265
I0
sg266
I0
sg267
I0
sg268
I16
ssg90
I13
sg91
(lp558
g286
aI01
aI00
aI00
asg94
I11
sg95
S'Valle'
p559
sg97
I11
sg98
I3
sg85
I00
sg100
I114
sg101
I2
sg102
I00
sg103
g33
sg99
I18
sg104
(dp560
g289
I9
sg290
I6
sg291
I10
sg292
I10
sg293
I11
sg294
I9
sg295
I8
sg296
I11
sg297
I5
sg298
I11
sg299
I9
sg300
I8
sg301
I10
sg302
I9
sg303
I4
ssg121
g548
sg122
g123
(g127
S'\x07\x00\x00\x00'
p561
tp562
Rp563
sg133
g33
sg134
I0
sg135
I0
sg136
I0
sg137
F9.65625
sg138
I1
sg139
(g307
S'C1'
p564
g33
g33
tp565
sg144
I5
sg209
I0
sg147
(dp566
S's13'
p567
(ijoueur
joueur
p568
(dp569
g27
I0
sg28
F2.0
sg29
I0
sg30
I0
sg71
I3
sg34
I0
sg37
g548
sg51
(dp570
g316
I0
sg317
I0
sg318
I0
sg319
I0
ssg58
g552
sg61
g33
sg207
I11
sg62
(dp571
g321
I1
sg322
I1
sg323
g324
ssg68
I0
sg72
I1
sg73
I0
sg74
I0
sg75
g276
sg77
I00
sg121
g548
sg78
F12.0
sg85
I00
sg86
(dp572
g265
I0
sg266
I0
sg267
I0
sg268
I0
ssg88
g557
sg90
I0
sg91
(lp573
g332
aI01
aI00
aI00
asg79
(dp574
g265
I0
sg266
I0
sg267
I0
sg268
I12
ssg95
g559
sg97
I11
sg98
I0
sg99
I18
sg100
I114
sg139
g565
sg104
(dp575
g335
I0
sg336
I0
sg337
I0
sg338
I0
sg339
I0
sg340
I0
sg341
I0
sg342
I0
sg343
I0
sg344
I0
sg345
I0
sg346
I0
sg347
I0
sg348
I0
sg349
I0
ssg147
(dp576
sg122
I0
sg133
g33
sg134
I0
sg135
F12.0
sg136
I0
sg137
F9.233333333333333
sg138
I0
sg144
I0
sg145
(dp577
g265
I0
sg266
I0
sg267
I0
sg268
I0
ssg185
I0
sg186
(dp578
g353
I9
sg354
I6
sg355
I10
sg356
I9
sg357
I5
sg358
I8
sg359
I8
sg360
I11
sg361
I10
sg362
I10
sg363
I8
sg364
I8
sg365
I9
sg366
I9
sg367
I4
ssg203
I0
sg204
I0
sg205
I0
sg206
I0
sg101
I0
sg208
I0
sg209
I0
sg94
I2
sg210
I0
sg211
g368
sbsS's12'
p579
(ijoueur
joueur
p580
(dp581
g27
I0
sg28
I0
sg29
I0
sg30
I0
sg71
I0
sg34
I0
sg37
g38
(g39
g40
Ntp582
Rp583
(dp584
g45
g33
sbsg51
(dp585
g265
I0
sg266
I0
sg267
I0
sg268
I0
ssg58
(dp586
g265
I0
sg266
I0
sg267
I0
sg268
I0
ssg61
g33
sg207
I0
sg62
(dp587
g321
I1
sg322
I1
sg323
g324
ssg68
I0
sg72
I0
sg73
I0
sg74
I0
sg75
g276
sg77
I00
sg121
g38
(g39
g40
Ntp588
Rp589
(dp590
g45
g33
sbsg78
I0
sg85
I00
sg86
(dp591
g265
I0
sg266
I0
sg267
I0
sg268
I0
ssg88
(dp592
g265
I0
sg266
I0
sg267
I0
sg268
I0
ssg90
I0
sg91
(lp593
g332
aI01
aI00
aI00
asg79
(dp594
g265
I0
sg266
I0
sg267
I0
sg268
I0
ssg95
g33
sg97
I0
sg98
I0
sg99
I0
sg100
I0
sg139
(g307
S'CE'
p595
g33
g33
tp596
sg104
(dp597
g299
I0
sg290
I0
sg291
I0
sg292
I0
sg297
I0
sg289
I0
sg294
I0
sg296
I0
sg293
I0
sg298
I0
sg295
I0
sg300
I0
sg301
I0
sg302
I0
sg303
I0
ssg147
(dp598
sg122
I0
sg133
g33
sg134
I0
sg135
I0
sg136
I0
sg137
F9.233333333333333
sg138
I0
sg144
I0
sg145
(dp599
g265
I0
sg266
I0
sg267
I0
sg268
I0
ssg185
I0
sg186
(dp600
g289
I9
sg290
I6
sg291
I10
sg292
I10
sg297
I5
sg295
I8
sg294
I9
sg296
I11
sg293
I11
sg298
I11
sg299
I9
sg300
I8
sg301
I10
sg302
I9
sg303
I4
ssg203
I0
sg204
I0
sg205
I0
sg206
I0
sg101
I0
sg208
I0
sg209
I0
sg94
I0
sg210
I0
sg211
g33
sbsS's11'
p601
(ijoueur
joueur
p602
(dp603
g27
I0
sg28
I0
sg29
I0
sg30
I0
sg71
I0
sg34
I0
sg37
g38
(g39
g40
Ntp604
Rp605
(dp606
g45
g33
sbsg51
(dp607
g265
I0
sg266
I0
sg267
I0
sg268
I0
ssg58
(dp608
g265
I0
sg266
I0
sg267
I0
sg268
I0
ssg61
g33
sg207
I0
sg62
(dp609
g321
I1
sg322
I1
sg323
g324
ssg68
I0
sg72
I0
sg73
I0
sg74
I0
sg75
g276
sg77
I00
sg121
g38
(g39
g40
Ntp610
Rp611
(dp612
g45
g33
sbsg78
I0
sg85
I00
sg86
(dp613
g265
I0
sg266
I0
sg267
I0
sg268
I0
ssg88
(dp614
g265
I0
sg266
I0
sg267
I0
sg268
I0
ssg90
I0
sg91
(lp615
g332
aI01
aI00
aI00
asg79
(dp616
g265
I0
sg266
I0
sg267
I0
sg268
I0
ssg95
g33
sg97
I0
sg98
I0
sg99
I0
sg100
I0
sg139
g596
sg104
(dp617
g299
I0
sg290
I0
sg291
I0
sg292
I0
sg297
I0
sg289
I0
sg294
I0
sg296
I0
sg293
I0
sg298
I0
sg295
I0
sg300
I0
sg301
I0
sg302
I0
sg303
I0
ssg147
(dp618
sg122
I0
sg133
g33
sg134
I0
sg135
I0
sg136
I0
sg137
F9.233333333333333
sg138
I0
sg144
I0
sg145
(dp619
g265
I0
sg266
I0
sg267
I0
sg268
I0
ssg185
I0
sg186
g600
sg203
I0
sg204
I0
sg205
I0
sg206
I0
sg101
I0
sg208
I0
sg209
I0
sg94
I0
sg210
I0
sg211
g33
sbssg185
I0
sg186
g600
sg203
I0
sg204
I1
sg205
I0
sg206
I1
sg207
I11
sg208
I3
sg210
I0
sg211
g368
sbsS'RJC'
p620
g256
sS'B1'
p621
g545
sS'B2'
p622
g545
sS'B3'
p623
g545
sS'drop1'
p624
g256
sS'SA_pcp1'
p625
(ijoueur
joueur
p626
(dp627
S'EV_saison_11'
p628
F8.241379310344827
sg27
I0
sS'EV_saison_12'
p629
F8.758620689655173
sg28
F0.5
sg133
g33
sg30
I0
sg31
F39.502908735920435
sg32
g33
sg34
I0
sg35
g33
sg36
I0
sg37
g38
(g39
g40
Ntp630
Rp631
(dp632
g44
I4
sg45
S'x'
p633
sg47
S'heros'
p634
sbsg49
(dp635
sg51
(dp636
S'SR'
p637
I0
sS'ST'
p638
I0
sS'CR'
p639
I0
sS'CT'
p640
I0
ssg57
F9.448275862068966
sS'xp'
p641
I0
sg270
I10
sg61
S'vide 13'
p642
sg62
(dp643
g272
I3
sg273
I9
sg274
g402
ssg68
I0
sg69
F39.502908735920435
sg70
I00
sg71
I2
sg72
I1
sg73
I0
sg74
I0
sg101
I1
sg77
I00
sg78
F9.5
sg79
(dp644
g278
I0
sg279
I4
sg280
I0
sg281
I0
ssg145
(dp645
g278
I0
sg279
I0
sg280
I0
sg281
I0
ssg86
(dp646
g278
I0
sg279
I0
sg280
I0
sg281
I0
ssg88
(dp647
g637
I2
sg638
I0
sg639
I7
sg640
I9
ssg90
I0
sg91
(lp648
g286
aI01
aI00
aI00
asg94
I0
sg95
S'Lucas'
p649
sg97
I9
sg98
I0
sg85
I00
sg100
I93
sg75
g276
sg102
I00
sg103
g33
sg99
I18
sg104
(dp650
S'RP1'
p651
I8
sS'ME'
p652
I11
sS'RP2'
p653
I9
sS'E'
p654
I10
sS'P'
p655
I6
sS'JP'
p656
I5
sS'M'
p657
I9
sS'RP_tot'
p658
I10
sS'TO'
p659
I12
sS'PA'
p660
I10
sS'A'
p661
I14
sS'R'
p662
I11
sS'TB'
p663
I7
sS'PL'
p664
I12
sS'TA'
p665
I5
ssg186
(dp666
g651
I8
sg652
I11
sg653
I9
sg654
I10
sg659
I12
sg657
I9
sg656
I5
sg658
I10
sg655
I6
sg660
I10
sg661
I14
sg662
I11
sg663
I7
sg664
I12
sg665
I5
ssg121
g631
sg122
g123
(g127
S'\x06\x00\x00\x00'
p667
tp668
Rp669
sg29
I0
sg134
I0
sg135
I0
sg136
I0
sg137
F11.25
sg138
I0
sg139
(S'dummy'
p670
S'N8'
p671
g33
g33
tp672
sg58
(dp673
g637
I0
sg638
I0
sg639
I0
sg640
I0
ssg144
I4
sg209
I0
sg147
(dp674
S's13'
p675
(ijoueur
joueur
p676
(dp677
g27
I0
sg28
F0.5
sg29
I0
sg30
I0
sg71
I2
sg34
I0
sg37
g631
sg51
(dp678
g316
I0
sg317
I0
sg318
I0
sg319
I0
ssg58
g673
sg61
g642
sg207
I2
sg62
(dp679
g321
I1
sg322
I1
sg323
g324
ssg68
I0
sg72
I0
sg73
I0
sg74
I0
sg75
g276
sg77
I00
sg121
g38
(g39
g40
Ntp680
Rp681
(dp682
g44
I3
sg45
S'^^^'
p683
sg47
S'rare'
p684
sbsg78
F9.5
sg85
I00
sg86
(dp685
S'SR'
p686
I0
sS'ST'
p687
I0
sS'CR'
p688
I0
sS'CT'
p689
I0
ssg88
g647
sg90
I0
sg91
(lp690
g332
aI01
aI00
aI00
asg79
(dp691
g686
I2
sg687
I0
sg688
I7
sg689
I5
ssg95
g649
sg97
I9
sg98
I0
sg99
I18
sg100
I28
sg139
g672
sg104
(dp692
g335
I0
sg336
I0
sg337
I0
sg338
I0
sg339
I0
sg340
I0
sg341
I0
sg342
I0
sg343
I0
sg344
I0
sg345
I0
sg346
I0
sg347
I0
sg348
I0
sg349
I0
ssg147
(dp693
sg122
I0
sg133
g33
sg134
I0
sg135
F9.5
sg136
I0
sg137
F9.448275862068966
sg138
I0
sg144
I0
sg145
(dp694
g686
I0
sg687
I0
sg688
I0
sg689
I0
ssg185
I0
sg186
(dp695
g353
I11
sg354
I10
sg355
I7
sg356
I10
sg357
I9
sg358
I7
sg359
I4
sg360
I8
sg361
I5
sg362
I8
sg363
I8
sg364
I10
sg365
I6
sg366
I9
sg367
I4
ssg203
I0
sg204
I0
sg205
I0
sg206
I0
sg101
I0
sg208
I0
sg209
I0
sg94
I0
sg210
I0
sg211
S'EST'
p696
sbsS's12'
p697
(ijoueur
joueur
p698
(dp699
g628
F8.241379310344827
sg27
I0
sg28
I0
sg133
g33
sg30
I0
sg71
I0
sg32
g33
sg34
I0
sg35
g33
sg37
g38
(g39
g40
Ntp700
Rp701
(dp702
g44
I4
sg45
S'x'
p703
sg47
S'heros'
p704
sbsg51
(dp705
S'SR'
p706
I0
sS'CT'
p707
I0
sS'CR'
p708
I0
sS'ST'
p709
I0
ssg58
(dp710
g706
I0
sg707
I0
sg708
I0
sg709
I0
ssg61
g33
sg62
(dp711
g321
I1
sg322
I1
sg323
g324
ssg68
I0
sg72
I0
sg73
I0
sg74
I0
sg75
S'vide'
p712
sg77
I01
sg78
I0
sg79
(dp713
S'SR'
p714
I0
sS'CT'
p715
I0
sS'CR'
p716
I0
sS'ST'
p717
I0
ssg85
I00
sg86
(dp718
g714
I0
sg715
I0
sg716
I0
sg717
I0
ssg88
(dp719
g706
I0
sg707
I0
sg708
I0
sg709
I0
ssg90
I0
sg91
(lp720
g332
aI01
aI00
aI00
asg94
I0
sg95
S'Lucas'
p721
sg97
I9
sg98
I0
sg99
I18
sg100
I28
sg101
I0
sg103
g33
sg104
(dp722
S'RP1'
p723
I7
sS'ME'
p724
I10
sS'RP2'
p725
I7
sS'E'
p726
I9
sS'P'
p727
I5
sS'JP'
p728
I4
sS'M'
p729
I8
sS'RP_tot'
p730
I7
sS'TO'
p731
I7
sS'PA'
p732
I7
sS'A'
p733
I10
sS'R'
p734
I9
sS'TB'
p735
I6
sS'PL'
p736
I9
sS'TA'
p737
I4
ssg121
g38
(g39
g40
Ntp738
Rp739
(dp740
g44
I2
sg45
S'^^'
p741
sg47
S'special'
p742
sbsg122
I0
sg29
I0
sg134
I0
sg135
I0
sg136
I0
sg137
F8.758620689655173
sg138
I0
sg139
(S'dummy'
p743
S'N8'
p744
g33
g33
tp745
sg144
I0
sg145
(dp746
g714
I0
sg715
I0
sg716
I0
sg717
I0
ssg147
(dp747
S's11'
p748
(ijoueur
joueur
p749
(dp750
g27
I0
sg30
I0
sg32
g33
sg34
I0
sg35
g33
sg37
g38
(g39
g40
Ntp751
Rp752
(dp753
g44
I4
sg45
S'x'
p754
sg47
S'heros'
p755
sbsg51
(dp756
S'SR'
p757
I0
sS'ST'
p758
I0
sS'CR'
p759
I0
sS'CT'
p760
I0
ssg58
(dp761
g757
I0
sg758
I0
sg759
I0
sg760
I0
ssg61
g33
sg68
I0
sg85
I01
sg72
I0
sg73
I0
sg74
I0
sg75
S'vide'
p762
sg77
I00
sg121
g38
(g39
g40
Ntp763
Rp764
(dp765
g44
I1
sg45
S'<'
p766
sg47
S'base'
p767
sbsg79
(dp768
g757
I0
sg758
I0
sg759
I0
sg760
I0
ssg145
(dp769
g757
I0
sg758
I0
sg759
I0
sg760
I0
ssg86
(dp770
g757
I0
sg758
I0
sg759
I0
sg760
I0
ssg88
(dp771
g757
I0
sg758
I0
sg759
I0
sg760
I0
ssg90
I0
sg94
I0
sg95
S'Lucas'
p772
sg97
I9
sg98
I0
sg99
I18
sg100
I11
sg139
(S'dummy'
p773
S'N8'
p774
g33
g33
tp775
sg103
g33
sg104
(dp776
S'RP1'
p777
I7
sS'ME'
p778
I10
sS'RP2'
p779
I7
sS'E'
p780
I8
sS'TO'
p781
I7
sS'M'
p782
I7
sS'JP'
p783
I3
sS'RP_tot'
p784
I7
sS'P'
p785
I4
sS'PA'
p786
I7
sS'A'
p787
I9
sS'R'
p788
I8
sS'TB'
p789
I5
sS'PL'
p790
I9
sS'TA'
p791
I4
ssg122
I0
sg29
I0
sg134
I0
sg136
I0
sg137
F8.241379310344827
sg138
I0
sg209
I0
sg185
I0
sS'caracs_saison_11'
p792
(dp793
S'RP1'
p794
I7
sS'ME'
p795
I10
sS'RP2'
p796
I7
sS'E'
p797
I8
sS'TO'
p798
I7
sS'M'
p799
I7
sS'JP'
p800
I3
sS'RP_tot'
p801
I7
sS'P'
p802
I4
sS'PA'
p803
I7
sS'A'
p804
I9
sS'R'
p805
I8
sS'TB'
p806
I5
sS'PL'
p807
I9
sS'TA'
p808
I4
ssg186
g776
sg203
I0
sg204
I0
sg205
I0
sg206
I0
sg207
I1
sg208
I0
sg210
I0
sg211
S'EST'
p809
sbssg185
I0
sg792
(dp810
g723
I7
sg724
I10
sg725
I7
sg726
I8
sg731
I7
sg729
I7
sg728
I3
sg730
I7
sg727
I4
sg732
I7
sg733
I9
sg734
I8
sg735
I5
sg736
I9
sg737
I4
ssg186
g722
sg203
I0
sg204
I0
sg205
I0
sg206
I0
sg207
I2
sg208
I0
sg209
I0
sg210
I0
sg211
S'EST'
p811
sbsS's11'
p812
(ijoueur
joueur
p813
(dp814
g27
I0
sg28
F0.0
sg30
I0
sg71
I0
sg32
g33
sg34
I0
sg35
g33
sg37
g38
(g39
g40
Ntp815
Rp816
(dp817
g44
I4
sg45
S'x'
p818
sg47
S'heros'
p819
sbsg51
(dp820
S'SR'
p821
I0
sS'CT'
p822
I0
sS'CR'
p823
I0
sS'ST'
p824
I0
ssg58
(dp825
g821
I0
sg822
I0
sg823
I0
sg824
I0
ssg61
g33
sg62
(dp826
g321
I1
sg322
I1
sg323
g324
ssg68
I0
sg85
I01
sg72
I0
sg73
I0
sg74
I0
sg75
S'vide'
p827
sg77
I00
sg78
F0.0
sg79
(dp828
g821
I0
sg822
I0
sg823
I0
sg824
I0
ssg145
(dp829
g821
I0
sg822
I0
sg823
I0
sg824
I0
ssg86
(dp830
g821
I0
sg822
I0
sg823
I0
sg824
I0
ssg88
(dp831
g821
I0
sg822
I0
sg823
I0
sg824
I0
ssg90
I0
sg91
(lp832
g332
aI01
aI00
aI00
asg94
I0
sg95
S'Lucas'
p833
sg97
I9
sg98
I0
sg99
I18
sg100
I11
sg101
I0
sg103
g33
sg104
(dp834
S'RP1'
p835
I7
sS'ME'
p836
I10
sS'RP2'
p837
I7
sS'E'
p838
I8
sS'P'
p839
I4
sS'JP'
p840
I3
sS'M'
p841
I7
sS'RP_tot'
p842
I7
sS'TO'
p843
I7
sS'PA'
p844
I7
sS'A'
p845
I9
sS'R'
p846
I8
sS'TB'
p847
I5
sS'PL'
p848
I9
sS'TA'
p849
I4
ssg121
g38
(g39
g40
Ntp850
Rp851
(dp852
g44
I1
sg45
S'<'
p853
sg47
S'base'
p854
sbsg122
I0
sg29
I0
sg134
I0
sg135
F0.0
sg136
I0
sg137
F8.241379310344827
sg138
I0
sg139
(S'dummy'
p855
S'N8'
p856
g33
g33
tp857
sg144
I0
sg209
I0
sg185
I0
sg792
(dp858
S'RP1'
p859
I7
sS'ME'
p860
I10
sS'RP2'
p861
I7
sS'E'
p862
I8
sS'P'
p863
I4
sS'JP'
p864
I3
sS'M'
p865
I7
sS'RP_tot'
p866
I7
sS'TO'
p867
I7
sS'PA'
p868
I7
sS'A'
p869
I9
sS'R'
p870
I8
sS'TB'
p871
I5
sS'PL'
p872
I9
sS'TA'
p873
I4
ssg186
g834
sg203
I0
sg204
I0
sg205
I0
sg206
I0
sg207
I1
sg208
I0
sg210
I0
sg211
S'EST'
p874
sbssg185
I0
sg792
(dp875
g651
I7
sg652
I10
sg653
I7
sg654
I8
sg655
I4
sg656
I3
sg657
I7
sg658
I7
sg659
I7
sg660
I7
sg661
I9
sg662
I8
sg663
I5
sg664
I9
sg665
I4
ssg203
I0
sS'caracs_saison_12'
p876
(dp877
sg204
I0
sg205
I0
sg206
I0
sg207
I8
sg208
I1
sg210
I0
sg211
g696
sbsS'RJL'
p878
(ijoueur
joueur
p879
(dp880
g27
I0
sg28
F2.0
sg29
I1
sg30
I0
sg31
F39.502908735920435
sg32
g33
sg34
I0
sg35
g33
sg36
I0
sg37
g38
(g39
g40
Ntp881
Rp882
(dp883
g44
I4
sg45
S'*'
p884
sg47
S'heros'
p885
sbsg49
(dp886
sg51
(dp887
S'SR'
p888
I0
sS'CT'
p889
I0
sS'CR'
p890
I0
sS'ST'
p891
I0
ssg57
F9.818181818181818
sg58
(dp892
g888
I0
sg889
I0
sg890
I0
sg891
I0
ssg270
I10
sg61
g33
sg62
(dp893
g272
I4
sg273
I7
sg274
g275
ssg68
I0
sg69
F39.502908735920435
sg70
I01
sg71
I3
sg72
I0
sg73
I0
sg74
I0
sg75
g276
sg77
I00
sg78
F15.0
sg79
(dp894
g278
I0
sg279
I4
sg280
I0
sg281
I0
ssg85
I00
sg86
(dp895
g278
I0
sg279
I0
sg280
I0
sg281
I0
ssg88
(dp896
g888
I2
sg889
I9
sg890
I8
sg891
I5
ssg90
I6
sg91
(lp897
g286
aI01
aI00
aI00
asg94
I0
sg95
S'Clodenio'
p898
sg97
I11
sg98
I0
sg145
(dp899
g278
I0
sg279
I0
sg280
I0
sg281
I0
ssg100
I95
sg101
I3
sg102
I00
sg103
g33
sg99
I19
sg104
(dp900
S'RP1'
p901
I6
sS'ME'
p902
I6
sS'RP2'
p903
I8
sS'E'
p904
I10
sS'TO'
p905
I5
sS'M'
p906
I9
sS'JP'
p907
I10
sS'RP_tot'
p908
I8
sS'P'
p909
I12
sS'PA'
p910
I10
sS'A'
p911
I10
sS'R'
p912
I8
sS'TB'
p913
I8
sS'PL'
p914
I10
sS'TA'
p915
I6
ssg121
g882
sg122
g123
(g127
S'\x07\x00\x00\x00'
p916
tp917
Rp918
sg133
g33
sg134
I0
sg135
I0
sg136
I0
sg137
F9.969696969696969
sg138
I2
sg139
(S'dummy'
p919
S'DO'
p920
g33
g33
tp921
sg144
I1
sg209
I0
sg147
(dp922
S's13'
p923
(ijoueur
joueur
p924
(dp925
g27
I0
sg28
F5.0
sg29
I0
sg30
I0
sg71
I3
sg34
I0
sg37
g882
sg51
(dp926
g316
I0
sg317
I0
sg318
I0
sg319
I0
ssg58
g892
sg61
g33
sg207
I9
sg62
(dp927
g321
I1
sg322
I1
sg323
g324
ssg68
I1
sg72
I1
sg73
I2
sg74
I0
sg75
g276
sg77
I00
sg121
g882
sg78
F15.0
sg85
I00
sg86
(dp928
g888
I0
sg889
I0
sg890
I0
sg891
I0
ssg88
g896
sg90
I0
sg91
(lp929
g332
aI01
aI00
aI00
asg79
(dp930
g888
I2
sg889
I5
sg890
I8
sg891
I5
ssg95
g898
sg97
I11
sg98
I0
sg99
I19
sg100
I95
sg139
g921
sg104
(dp931
g335
I0
sg336
I0
sg337
I0
sg338
I0
sg339
I0
sg340
I0
sg341
I0
sg342
I0
sg343
I0
sg344
I0
sg345
I0
sg346
I0
sg347
I0
sg348
I0
sg349
I0
ssg147
(dp932
sg122
I0
sg133
g33
sg134
I0
sg135
F15.0
sg136
I0
sg137
F9.818181818181818
sg138
I0
sg144
I0
sg145
(dp933
g888
I0
sg889
I0
sg890
I0
sg891
I0
ssg185
I0
sg186
(dp934
g353
I10
sg354
I6
sg355
I8
sg356
I10
sg357
I5
sg358
I6
sg359
I9
sg360
I8
sg361
I12
sg362
I10
sg363
I9
sg364
I8
sg365
I8
sg366
I10
sg367
I6
ssg203
I0
sg204
I0
sg205
I0
sg206
I0
sg101
I0
sg208
I0
sg209
I0
sg94
I6
sg210
I0
sg211
S'EST'
p935
sbsS's12'
p936
(ijoueur
joueur
p937
(dp938
g27
I0
sg28
I0
sg29
I0
sg30
I0
sg71
I0
sg34
I0
sg37
g38
(g39
g40
Ntp939
Rp940
(dp941
g45
g33
sbsg51
(dp942
g888
I0
sg889
I0
sg890
I0
sg891
I0
ssg58
(dp943
g888
I0
sg889
I0
sg890
I0
sg891
I0
ssg61
g33
sg207
I0
sg62
(dp944
g321
I1
sg322
I1
sg323
g324
ssg68
I0
sg72
I0
sg73
I0
sg74
I0
sg75
g276
sg77
I00
sg121
g38
(g39
g40
Ntp945
Rp946
(dp947
g45
g33
sbsg78
I0
sg85
I00
sg86
(dp948
g888
I0
sg889
I0
sg890
I0
sg891
I0
ssg88
(dp949
g888
I0
sg889
I0
sg890
I0
sg891
I0
ssg90
I0
sg91
(lp950
g332
aI01
aI00
aI00
asg79
(dp951
g888
I0
sg889
I0
sg890
I0
sg891
I0
ssg95
g33
sg97
I0
sg98
I0
sg99
I0
sg100
I0
sg139
(g919
g920
g33
g33
tp952
sg104
(dp953
g911
I0
sg902
I0
sg903
I0
sg904
I0
sg909
I0
sg901
I0
sg907
I0
sg908
I0
sg905
I0
sg910
I0
sg906
I0
sg912
I0
sg913
I0
sg914
I0
sg915
I0
ssg147
(dp954
sg122
I0
sg133
g33
sg134
I0
sg135
I0
sg136
I0
sg137
F9.818181818181818
sg138
I0
sg144
I0
sg145
(dp955
g888
I0
sg889
I0
sg890
I0
sg891
I0
ssg185
I0
sg186
(dp956
g901
I6
sg902
I6
sg903
I8
sg904
I10
sg909
I12
sg907
I10
sg906
I9
sg908
I8
sg905
I5
sg910
I10
sg911
I10
sg912
I8
sg913
I8
sg914
I10
sg915
I6
ssg203
I0
sg204
I0
sg205
I0
sg206
I0
sg101
I0
sg208
I0
sg209
I0
sg94
I0
sg210
I0
sg211
g33
sbsS's11'
p957
(ijoueur
joueur
p958
(dp959
g27
I0
sg28
I0
sg29
I0
sg30
I0
sg71
I0
sg34
I0
sg37
g38
(g39
g40
Ntp960
Rp961
(dp962
g45
g33
sbsg51
(dp963
g888
I0
sg889
I0
sg890
I0
sg891
I0
ssg58
(dp964
g888
I0
sg889
I0
sg890
I0
sg891
I0
ssg61
g33
sg207
I0
sg62
(dp965
g321
I1
sg322
I1
sg323
g324
ssg68
I0
sg72
I0
sg73
I0
sg74
I0
sg75
g276
sg77
I00
sg121
g38
(g39
g40
Ntp966
Rp967
(dp968
g45
g33
sbsg78
I0
sg85
I00
sg86
(dp969
g888
I0
sg889
I0
sg890
I0
sg891
I0
ssg88
(dp970
g888
I0
sg889
I0
sg890
I0
sg891
I0
ssg90
I0
sg91
(lp971
g332
aI01
aI00
aI00
asg79
(dp972
g888
I0
sg889
I0
sg890
I0
sg891
I0
ssg95
g33
sg97
I0
sg98
I0
sg99
I0
sg100
I0
sg139
g952
sg104
(dp973
g911
I0
sg902
I0
sg903
I0
sg904
I0
sg909
I0
sg901
I0
sg907
I0
sg908
I0
sg905
I0
sg910
I0
sg906
I0
sg912
I0
sg913
I0
sg914
I0
sg915
I0
ssg147
(dp974
sg122
I0
sg133
g33
sg134
I0
sg135
I0
sg136
I0
sg137
F9.818181818181818
sg138
I0
sg144
I0
sg145
(dp975
g888
I0
sg889
I0
sg890
I0
sg891
I0
ssg185
I0
sg186
g956
sg203
I0
sg204
I0
sg205
I0
sg206
I0
sg101
I0
sg208
I0
sg209
I0
sg94
I0
sg210
I0
sg211
g33
sbssg185
I2
sg186
g956
sg203
I0
sg204
I0
sg205
I0
sg206
I0
sg207
I9
sg208
I1
sg210
I1
sg211
g935
sbsS'SA_remp1'
p976
(ijoueur
joueur
p977
(dp978
g628
F8.117647058823529
sg27
I0
sg629
F8.970588235294118
sg28
F5.0
sg133
g33
sg30
I0
sg31
F39.502908735920435
sg32
g33
sg34
I0
sg35
g33
sg36
I0
sg37
g38
(g39
g40
Ntp979
Rp980
(dp981
g44
I4
sg45
S'x'
p982
sg47
S'heros'
p983
sbsg49
(dp984
sg51
(dp985
S'SR'
p986
I0
sS'CT'
p987
I0
sS'CR'
p988
I0
sS'ST'
p989
I0
ssg57
F9.529411764705882
sg641
I0
sg270
I10
sg61
S'vide 13'
p990
sg62
(dp991
g272
I2
sg273
I3
sg274
g275
ssg68
I0
sg69
F39.502908735920435
sg70
I01
sg71
I4
sg72
I0
sg73
I0
sg74
I0
sg101
I1
sg77
I00
sg78
F11.0
sg79
(dp992
g278
I0
sg279
I0
sg280
I4
sg281
I0
ssg145
(dp993
g278
I0
sg279
I0
sg280
I0
sg281
I0
ssg86
(dp994
g278
I0
sg279
I0
sg280
I0
sg281
I0
ssg88
(dp995
g986
I2
sg987
I9
sg988
I7
sg989
I7
ssg90
I0
sg91
(lp996
g286
aI01
aI01
aI00
asg94
I0
sg95
S'Rodrigues'
p997
sg97
I11
sg98
I0
sg85
I00
sg100
I82
sg75
g276
sg102
I00
sg103
g33
sg99
I24
sg104
(dp998
S'RP1'
p999
I7
sS'ME'
p1000
I10
sS'RP2'
p1001
I8
sS'E'
p1002
I10
sS'TO'
p1003
I12
sS'M'
p1004
I8
sS'JP'
p1005
I4
sS'RP_tot'
p1006
I9
sS'P'
p1007
I4
sS'PA'
p1008
I9
sS'A'
p1009
I11
sS'R'
p1010
I7
sS'TB'
p1011
I5
sS'PL'
p1012
I9
sS'TA'
p1013
I4
ssg186
(dp1014
g999
I7
sg1000
I10
sg1001
I8
sg1002
I10
sg1007
I4
sg1005
I4
sg1004
I8
sg1006
I9
sg1003
I12
sg1008
I9
sg1009
I11
sg1010
I7
sg1011
I5
sg1012
I9
sg1013
I4
ssg121
g980
sg122
I4
sg29
I0
sg134
I0
sg135
I0
sg136
I0
sg137
F9.529411764705882
sg138
I0
sg139
(S'dummy'
p1015
S'DL'
p1016
S'N8'
p1017
g33
tp1018
sg58
(dp1019
g986
I0
sg987
I0
sg988
I0
sg989
I0
ssg144
I0
sg209
I0
sg147
(dp1020
S's13'
p1021
(ijoueur
joueur
p1022
(dp1023
g27
I0
sg28
F1.0
sg29
I0
sg30
I0
sg71
I3
sg34
I0
sg37
g980
sg51
(dp1024
g316
I0
sg317
I0
sg318
I0
sg319
I0
ssg58
g1019
sg61
g990
sg207
I7
sg62
(dp1025
g321
I1
sg322
I1
sg323
g324
ssg68
I0
sg72
I0
sg73
I0
sg74
I0
sg75
g276
sg77
I00
sg121
g980
sg78
F11.0
sg85
I00
sg86
(dp1026
g686
I0
sg687
I0
sg688
I0
sg689
I0
ssg88
g995
sg90
I0
sg91
(lp1027
g332
aI01
aI01
aI00
asg79
(dp1028
g686
I1
sg687
I0
sg688
I3
sg689
I9
ssg95
g997
sg97
I11
sg98
I0
sg99
I24
sg100
I82
sg139
g1018
sg104
(dp1029
g335
I0
sg336
I0
sg337
I0
sg338
I0
sg339
I0
sg340
I0
sg341
I0
sg342
I0
sg343
I0
sg344
I0
sg345
I0
sg346
I0
sg347
I0
sg348
I0
sg349
I0
ssg147
(dp1030
sg122
I0
sg133
g33
sg134
I0
sg135
F11.0
sg136
I0
sg137
F9.529411764705882
sg138
I0
sg144
I0
sg145
(dp1031
g686
I0
sg687
I0
sg688
I0
sg689
I0
ssg185
I0
sg186
(dp1032
g353
I11
sg354
I10
sg355
I8
sg356
I10
sg357
I12
sg358
I7
sg359
I4
sg360
I9
sg361
I4
sg362
I9
sg363
I8
sg364
I7
sg365
I5
sg366
I9
sg367
I4
ssg203
I0
sg204
I0
sg205
I0
sg206
I0
sg101
I0
sg208
I0
sg209
I0
sg94
I0
sg210
I0
sg211
S'EST'
p1033
sbsg697
(ijoueur
joueur
p1034
(dp1035
g628
F8.117647058823529
sg27
I0
sg28
F0.0
sg133
g33
sg30
I0
sg71
I3
sg32
g33
sg34
I0
sg35
g33
sg37
g38
(g39
g40
Ntp1036
Rp1037
(dp1038
g44
I4
sg45
S'x'
p1039
sg47
S'heros'
p1040
sbsg51
(dp1041
S'SR'
p1042
I0
sS'CT'
p1043
I0
sS'CR'
p1044
I0
sS'ST'
p1045
I0
ssg58
(dp1046
g1042
I0
sg1043
I0
sg1044
I0
sg1045
I0
ssg61
g33
sg62
(dp1047
g321
I1
sg322
I1
sg323
g324
ssg68
I0
sg72
I0
sg73
I0
sg74
I0
sg75
S'vide'
p1048
sg77
I00
sg78
F7.0
sg79
(dp1049
S'SR'
p1050
I0
sS'ST'
p1051
I7
sS'CR'
p1052
I0
sS'CT'
p1053
I0
ssg85
I00
sg86
(dp1054
g1050
I0
sg1051
I0
sg1052
I0
sg1053
I0
ssg88
(dp1055
g1042
I1
sg1043
I0
sg1044
I0
sg1045
I7
ssg90
I0
sg91
(lp1056
g332
aI01
aI01
aI00
asg94
I0
sg95
S'Rodrigues'
p1057
sg97
I11
sg98
I0
sg99
I24
sg100
I82
sg101
I0
sg103
g33
sg104
(dp1058
S'RP1'
p1059
I7
sS'ME'
p1060
I9
sS'RP2'
p1061
I8
sS'E'
p1062
I9
sS'P'
p1063
I4
sS'JP'
p1064
I4
sS'M'
p1065
I8
sS'RP_tot'
p1066
I8
sS'TO'
p1067
I11
sS'PA'
p1068
I9
sS'A'
p1069
I11
sS'R'
p1070
I7
sS'TB'
p1071
I5
sS'PL'
p1072
I9
sS'TA'
p1073
I4
ssg121
g1037
sg122
I3
sg29
I0
sg134
I0
sg135
F7.0
sg136
I0
sg137
F8.970588235294118
sg138
I0
sg139
(S'dummy'
p1074
S'DL'
p1075
S'N8'
p1076
g33
tp1077
sg144
I0
sg145
(dp1078
g1050
I0
sg1051
I0
sg1052
I0
sg1053
I0
ssg147
(dp1079
S's11'
p1080
(ijoueur
joueur
p1081
(dp1082
g27
I0
sg30
I0
sg32
g33
sg34
I0
sg35
g33
sg37
g38
(g39
g40
Ntp1083
Rp1084
(dp1085
g44
I4
sg45
S'x'
p1086
sg47
S'heros'
p1087
sbsg51
(dp1088
S'SR'
p1089
I0
sS'ST'
p1090
I0
sS'CR'
p1091
I0
sS'CT'
p1092
I0
ssg58
(dp1093
g1089
I0
sg1090
I0
sg1091
I0
sg1092
I0
ssg61
g33
sg68
I0
sg85
I01
sg72
I0
sg73
I0
sg74
I0
sg75
S'vide'
p1094
sg77
I01
sg121
g38
(g39
g40
Ntp1095
Rp1096
(dp1097
g44
I3
sg45
S'^^^'
p1098
sg47
S'rare'
p1099
sbsg79
(dp1100
g1089
I1
sg1090
I0
sg1091
I0
sg1092
I0
ssg145
(dp1101
g1089
I0
sg1090
I0
sg1091
I0
sg1092
I0
ssg86
(dp1102
g1089
I0
sg1090
I0
sg1091
I0
sg1092
I0
ssg88
(dp1103
g1089
I1
sg1090
I0
sg1091
I0
sg1092
I0
ssg90
I0
sg94
I0
sg95
S'Rodrigues'
p1104
sg97
I11
sg98
I0
sg99
I24
sg100
I17
sg139
(S'dummy'
p1105
S'DL'
p1106
S'N8'
p1107
g33
tp1108
sg103
g33
sg104
(dp1109
S'RP1'
p1110
I6
sS'ME'
p1111
I8
sS'RP2'
p1112
I6
sS'E'
p1113
I9
sS'TO'
p1114
I10
sS'M'
p1115
I8
sS'JP'
p1116
I3
sS'RP_tot'
p1117
I6
sS'P'
p1118
I3
sS'PA'
p1119
I7
sS'A'
p1120
I9
sS'R'
p1121
I7
sS'TB'
p1122
I4
sS'PL'
p1123
I8
sS'TA'
p1124
I3
ssg122
I0
sg29
I0
sg134
I0
sg136
I0
sg137
F8.117647058823529
sg138
I0
sg209
I0
sg185
I0
sg792
(dp1125
S'RP1'
p1126
I6
sS'ME'
p1127
I8
sS'RP2'
p1128
I6
sS'E'
p1129
I9
sS'TO'
p1130
I10
sS'M'
p1131
I8
sS'JP'
p1132
I3
sS'RP_tot'
p1133
I6
sS'P'
p1134
I3
sS'PA'
p1135
I7
sS'A'
p1136
I9
sS'R'
p1137
I7
sS'TB'
p1138
I4
sS'PL'
p1139
I8
sS'TA'
p1140
I3
ssg186
g1109
sg203
I0
sg204
I0
sg205
I0
sg206
I0
sg207
I1
sg208
I0
sg210
I0
sg211
S'EST'
p1141
sbssg185
I1
sg792
(dp1142
g1059
I6
sg1060
I8
sg1061
I6
sg1062
I9
sg1067
I10
sg1065
I8
sg1064
I3
sg1066
I6
sg1063
I3
sg1068
I7
sg1069
I9
sg1070
I7
sg1071
I4
sg1072
I8
sg1073
I3
ssg186
g1058
sg203
I0
sg204
I0
sg205
I0
sg206
I0
sg207
I7
sg208
I0
sg209
I0
sg210
I1
sg211
S'EST'
p1143
sbsg812
(ijoueur
joueur
p1144
(dp1145
g27
I0
sg28
F0.5
sg30
I0
sg71
I1
sg32
g33
sg34
I0
sg35
g33
sg37
g38
(g39
g40
Ntp1146
Rp1147
(dp1148
g44
I4
sg45
S'x'
p1149
sg47
S'heros'
p1150
sbsg51
(dp1151
S'SR'
p1152
I0
sS'ST'
p1153
I0
sS'CR'
p1154
I0
sS'CT'
p1155
I0
ssg58
(dp1156
g1152
I0
sg1153
I0
sg1154
I0
sg1155
I0
ssg61
g33
sg62
(dp1157
g321
I1
sg322
I1
sg323
g324
ssg68
I0
sg85
I01
sg72
I0
sg73
I0
sg74
I0
sg75
S'vide'
p1158
sg77
I01
sg78
F0.5
sg79
(dp1159
g1152
I1
sg1153
I0
sg1154
I0
sg1155
I0
ssg145
(dp1160
g1152
I0
sg1153
I0
sg1154
I0
sg1155
I0
ssg86
(dp1161
g1152
I0
sg1153
I0
sg1154
I0
sg1155
I0
ssg88
(dp1162
g1152
I1
sg1153
I0
sg1154
I0
sg1155
I0
ssg90
I0
sg91
(lp1163
g332
aI01
aI01
aI00
asg94
I0
sg95
S'Rodrigues'
p1164
sg97
I11
sg98
I0
sg99
I24
sg100
I17
sg101
I0
sg103
g33
sg104
(dp1165
S'RP1'
p1166
I6
sS'ME'
p1167
I8
sS'RP2'
p1168
I6
sS'E'
p1169
I9
sS'TO'
p1170
I10
sS'M'
p1171
I8
sS'JP'
p1172
I3
sS'RP_tot'
p1173
I6
sS'P'
p1174
I3
sS'PA'
p1175
I7
sS'A'
p1176
I9
sS'R'
p1177
I7
sS'TB'
p1178
I4
sS'PL'
p1179
I8
sS'TA'
p1180
I3
ssg121
g38
(g39
g40
Ntp1181
Rp1182
(dp1183
g44
I3
sg45
S'^^^'
p1184
sg47
S'rare'
p1185
sbsg122
I0
sg29
I0
sg134
I0
sg135
F0.5
sg136
I0
sg137
F8.117647058823529
sg138
I0
sg139
(S'dummy'
p1186
S'DL'
p1187
S'N8'
p1188
g33
tp1189
sg144
I0
sg209
I0
sg185
I0
sg792
(dp1190
S'RP1'
p1191
I6
sS'ME'
p1192
I8
sS'RP2'
p1193
I6
sS'E'
p1194
I9
sS'TO'
p1195
I10
sS'M'
p1196
I8
sS'JP'
p1197
I3
sS'RP_tot'
p1198
I6
sS'P'
p1199
I3
sS'PA'
p1200
I7
sS'A'
p1201
I9
sS'R'
p1202
I7
sS'TB'
p1203
I4
sS'PL'
p1204
I8
sS'TA'
p1205
I3
ssg186
g1165
sg203
I0
sg204
I0
sg205
I0
sg206
I0
sg207
I1
sg208
I0
sg210
I0
sg211
S'EST'
p1206
sbssg185
I1
sg792
(dp1207
g999
I6
sg1000
I8
sg1001
I6
sg1002
I9
sg1003
I10
sg1004
I8
sg1005
I3
sg1006
I6
sg1007
I3
sg1008
I7
sg1009
I9
sg1010
I7
sg1011
I4
sg1012
I8
sg1013
I3
ssg203
I0
sg876
(dp1208
sg204
I0
sg205
I0
sg206
I0
sg207
I7
sg208
I0
sg210
I0
sg211
g1033
sbsS'drop2'
p1209
g256
sS'SA_remp2'
p1210
(ijoueur
joueur
p1211
(dp1212
g27
I0
sg28
F4.0
sg29
I0
sg30
I0
sg31
F29.649905636007844
sg32
g33
sg34
I0
sg35
g33
sg36
I-8
sg37
g38
(g39
g40
Ntp1213
Rp1214
(dp1215
g44
I4
sg45
S'*'
p1216
sg47
g48
sbsg49
(dp1217
sg51
(dp1218
g53
I0
sg54
I0
sg55
I0
sg56
I0
ssg57
F10.0
sg58
(dp1219
g53
I0
sg54
I0
sg55
I0
sg56
I0
ssg60
I7
sg61
g33
sg62
(dp1220
g64
I2
sg65
I3
sg66
g67
ssg68
I0
sg69
F29.649905636007844
sg70
I00
sg71
I1
sg72
I0
sg73
I0
sg74
I0
sg75
g76
sg77
I00
sg78
F14.0
sg79
(dp1221
g81
I0
sg82
I3
sg83
I0
sg84
I0
ssg85
I00
sg86
(dp1222
g81
I0
sg82
I0
sg83
I0
sg84
I0
ssg88
(dp1223
g53
I0
sg54
I0
sg55
I0
sg56
I17
ssg90
I0
sg91
(lp1224
g93
aI01
aI00
aI00
asg94
I0
sg95
S'Sthiael'
p1225
sg97
I3
sg98
I0
sg99
I12
sg100
I84
sg101
I2
sg102
I00
sg103
g33
sg104
(dp1226
g106
I7
sg107
I7
sg108
I8
sg109
I11
sg110
I8
sg111
I8
sg112
I8
sg113
I9
sg114
I11
sg115
I10
sg116
I13
sg117
I8
sg118
I6
sg119
I13
sg120
I4
ssg121
g1214
sg122
g123
(g127
S'\x03\x00\x00\x00'
p1227
tp1228
Rp1229
sg133
g33
sg134
I0
sg135
I0
sg136
I0
sg137
F10.157894736842104
sg138
I0
sg139
(g140
S'TL'
p1230
g33
g33
tp1231
sg144
I1
sg145
(dp1232
g81
I0
sg82
I0
sg83
I0
sg84
I0
ssg147
(dp1233
S's13'
p1234
(ijoueur
joueur
p1235
(dp1236
g27
I0
sg28
F4.0
sg29
I0
sg30
I0
sg71
I1
sg34
I0
sg37
g1214
sg51
(dp1237
g153
I0
sg154
I0
sg155
I0
sg156
I0
ssg58
g1219
sg61
g33
sg62
(dp1238
g158
I1
sg159
I1
sg160
g161
ssg68
I0
sg72
I0
sg73
I0
sg74
I0
sg139
g1231
sg77
I00
sg121
g1214
sg78
F14.0
sg85
I00
sg86
(dp1239
g53
I0
sg54
I0
sg55
I0
sg56
I0
ssg88
g1223
sg90
I0
sg91
(lp1240
g164
aI01
aI00
aI00
asg79
(dp1241
g53
I0
sg54
I0
sg55
I0
sg56
I14
ssg75
g76
sg95
S'Sthiael (13)'
p1242
sg97
I3
sg98
I0
sg99
I12
sg100
I84
sg101
I0
sg104
(dp1243
g168
I0
sg169
I0
sg170
I0
sg171
I0
sg172
I0
sg173
I0
sg174
I0
sg175
I0
sg176
I0
sg177
I0
sg178
I0
sg179
I0
sg180
I0
sg181
I0
sg182
I0
ssg147
(dp1244
sg122
I0
sg133
g33
sg134
I0
sg135
F14.0
sg136
I0
sg137
F10.0
sg138
I0
sg144
I0
sg145
(dp1245
g53
I0
sg54
I0
sg55
I0
sg56
I0
ssg185
I0
sg186
(dp1246
g188
I13
sg189
I7
sg190
I8
sg191
I11
sg192
I11
sg193
I7
sg194
I7
sg195
I9
sg196
I8
sg197
I10
sg198
I8
sg199
I8
sg200
I6
sg201
I12
sg202
I4
ssg203
I0
sg204
I0
sg205
I0
sg206
I0
sg207
I8
sg208
I0
sg209
I0
sg94
I0
sg210
I0
sg211
S'HE'
p1247
sbsS's12'
p1248
(ijoueur
joueur
p1249
(dp1250
g27
I0
sg28
I0
sg29
I0
sg30
I0
sg71
I0
sg34
I0
sg37
g38
(g39
g40
Ntp1251
Rp1252
(dp1253
g45
g33
sbsg51
(dp1254
g53
I0
sg54
I0
sg55
I0
sg56
I0
ssg58
(dp1255
g53
I0
sg54
I0
sg55
I0
sg56
I0
ssg61
g33
sg62
(dp1256
g158
I1
sg159
I1
sg160
g161
ssg68
I0
sg72
I0
sg73
I0
sg74
I0
sg139
(g140
g1230
g33
g33
tp1257
sg77
I00
sg121
g38
(g39
g40
Ntp1258
Rp1259
(dp1260
g45
g33
sbsg78
I0
sg85
I00
sg86
(dp1261
g53
I0
sg54
I0
sg55
I0
sg56
I0
ssg88
(dp1262
g53
I0
sg54
I0
sg55
I0
sg56
I0
ssg90
I0
sg91
(lp1263
g164
aI01
aI00
aI00
asg79
(dp1264
g53
I0
sg54
I0
sg55
I0
sg56
I0
ssg75
g76
sg95
S'Sthiael (12)'
p1265
sg97
I0
sg98
I0
sg99
I0
sg100
I0
sg101
I0
sg104
(dp1266
g116
I0
sg107
I0
sg108
I0
sg109
I0
sg114
I0
sg106
I0
sg111
I0
sg113
I0
sg110
I0
sg115
I0
sg112
I0
sg117
I0
sg118
I0
sg119
I0
sg120
I0
ssg147
(dp1267
sg122
I0
sg133
g33
sg134
I0
sg135
I0
sg136
I0
sg137
F10.0
sg138
I0
sg144
I0
sg145
(dp1268
g53
I0
sg54
I0
sg55
I0
sg56
I0
ssg185
I0
sg186
(dp1269
g106
I7
sg107
I7
sg108
I8
sg109
I11
sg114
I11
sg112
I8
sg111
I8
sg113
I9
sg110
I8
sg115
I10
sg116
I13
sg117
I8
sg118
I6
sg119
I13
sg120
I4
ssg203
I0
sg204
I0
sg205
I0
sg206
I0
sg207
I0
sg208
I0
sg209
I0
sg94
I0
sg210
I0
sg211
g33
sbsS's11'
p1270
(ijoueur
joueur
p1271
(dp1272
g27
I0
sg28
I0
sg29
I0
sg30
I0
sg71
I0
sg34
I0
sg37
g38
(g39
g40
Ntp1273
Rp1274
(dp1275
g45
g33
sbsg51
(dp1276
g53
I0
sg54
I0
sg55
I0
sg56
I0
ssg58
(dp1277
g53
I0
sg54
I0
sg55
I0
sg56
I0
ssg61
g33
sg62
(dp1278
g158
I1
sg159
I1
sg160
g161
ssg68
I0
sg72
I0
sg73
I0
sg74
I0
sg139
g1257
sg77
I00
sg121
g38
(g39
g40
Ntp1279
Rp1280
(dp1281
g45
g33
sbsg78
I0
sg85
I00
sg86
(dp1282
g53
I0
sg54
I0
sg55
I0
sg56
I0
ssg88
(dp1283
g53
I0
sg54
I0
sg55
I0
sg56
I0
ssg90
I0
sg91
(lp1284
g164
aI01
aI00
aI00
asg79
(dp1285
g53
I0
sg54
I0
sg55
I0
sg56
I0
ssg75
g76
sg95
S'Sthiael (11)'
p1286
sg97
I0
sg98
I0
sg99
I0
sg100
I0
sg101
I0
sg104
(dp1287
g116
I0
sg107
I0
sg108
I0
sg109
I0
sg114
I0
sg106
I0
sg111
I0
sg113
I0
sg110
I0
sg115
I0
sg112
I0
sg117
I0
sg118
I0
sg119
I0
sg120
I0
ssg147
(dp1288
sg122
I0
sg133
g33
sg134
I0
sg135
I0
sg136
I0
sg137
F10.0
sg138
I0
sg144
I0
sg145
(dp1289
g53
I0
sg54
I0
sg55
I0
sg56
I0
ssg185
I0
sg186
g1269
sg203
I0
sg204
I0
sg205
I0
sg206
I0
sg207
I0
sg208
I0
sg209
I0
sg94
I0
sg210
I0
sg211
g33
sbssg185
I1
sg186
g1269
sg203
I0
sg204
I0
sg205
I0
sg206
I0
sg207
I8
sg208
I0
sg209
I0
sg210
I0
sg211
g1247
sbssg95
csip
_unpickle_type
p1290
(S'PyQt4.QtCore'
p1291
S'QString'
p1292
(VEKR_MAG_c
p1293
tp1294
tp1295
Rp1296
sS'totaux'
p1297
(dp1298
g19
I0
sg20
I0
sg21
I0
ssS'_compo_defaut_fatigue'
p1299
Nsg104
(dp1300
g4
I0
sg5
I0
sg6
I0
sg7
I0
sg8
I0
sg9
I0
sg10
I0
sg11
I0
sg12
I0
sg13
I0
sg14
I0
sg15
I0
sg16
I0
ssS'joueurs'
p1301
(dp1302
S'n12'
p1303
g545
sS'n13'
p1304
(ijoueur
joueur
p1305
(dp1306
g27
I1
sg28
F6.0
sg29
I0
sg30
I0
sg31
F39.502908735920435
sg32
g33
sg34
I0
sg35
g33
sg36
I0
sg37
g38
(g39
g40
Ntp1307
Rp1308
(dp1309
g44
I5
sg45
g396
sg47
g397
sbsg49
(dp1310
sg51
(dp1311
g265
I0
sg266
I0
sg267
I0
sg268
I0
ssg57
F10.517241379310345
sg58
(dp1312
g265
I0
sg266
I0
sg267
I0
sg268
I0
ssg270
I10
sg61
g33
sg62
(dp1313
g272
I2
sg273
I5
sg274
g275
ssg68
I0
sg69
F39.502908735920435
sg70
I00
sg71
I3
sg72
I0
sg73
I0
sg74
I0
sg75
g276
sg77
I00
sg78
F19.0
sg79
(dp1314
g278
I0
sg279
I4
sg280
I0
sg281
I0
ssg145
(dp1315
g278
I0
sg279
I0
sg280
I0
sg281
I0
ssg86
(dp1316
g278
I0
sg279
I0
sg280
I0
sg281
I0
ssg88
(dp1317
g265
I0
sg266
I7
sg267
I0
sg268
I16
ssg90
I0
sg91
(lp1318
g286
aI01
aI01
aI00
asg94
I0
sg95
S'De Zenfet'
p1319
sg97
I10
sg98
I0
sg85
I00
sg100
I242
sg101
I3
sg102
I00
sg103
g33
sg99
I23
sg104
(dp1320
g289
I10
sg290
I5
sg291
I11
sg292
I11
sg293
I9
sg294
I8
sg295
I10
sg296
I13
sg297
I8
sg298
I11
sg299
I10
sg300
I7
sg301
I9
sg302
I9
sg303
I4
ssg121
g1308
sg122
g123
(g127
S'\n\x00\x00\x00'
p1321
tp1322
Rp1323
sg133
g33
sg134
I0
sg135
I0
sg136
I0
sg137
F10.689655172413794
sg138
I0
sg139
(g307
S'C2'
p1324
S'AR'
p1325
g33
tp1326
sg144
I1
sg209
I0
sg147
(dp1327
S's13'
p1328
(ijoueur
joueur
p1329
(dp1330
g27
I0
sg28
F6.0
sg29
I0
sg30
I0
sg71
I3
sg34
I0
sg37
g1308
sg51
(dp1331
g316
I0
sg317
I0
sg318
I0
sg319
I0
ssg58
g1312
sg61
g33
sg207
I24
sg62
(dp1332
g321
I1
sg322
I1
sg323
g324
ssg68
I0
sg72
I2
sg73
I0
sg74
I0
sg75
g276
sg77
I00
sg121
g1308
sg78
F19.0
sg85
I00
sg86
(dp1333
g265
I0
sg266
I0
sg267
I0
sg268
I0
ssg88
g1317
sg90
I0
sg91
(lp1334
g332
aI01
aI01
aI00
asg79
(dp1335
g265
I0
sg266
I7
sg267
I0
sg268
I12
ssg95
g1319
sg97
I10
sg98
I0
sg99
I23
sg100
I242
sg139
g1326
sg104
(dp1336
g335
I0
sg336
I0
sg337
I0
sg338
I0
sg339
I0
sg340
I0
sg341
I0
sg342
I0
sg343
I0
sg344
I0
sg345
I0
sg346
I0
sg347
I0
sg348
I0
sg349
I0
ssg147
(dp1337
sg122
I0
sg133
g33
sg134
I0
sg135
F19.0
sg136
I0
sg137
F10.517241379310345
sg138
I0
sg144
I0
sg145
(dp1338
g265
I0
sg266
I0
sg267
I0
sg268
I0
ssg185
I0
sg186
(dp1339
g353
I11
sg354
I5
sg355
I10
sg356
I11
sg357
I8
sg358
I10
sg359
I8
sg360
I12
sg361
I9
sg362
I11
sg363
I10
sg364
I8
sg365
I8
sg366
I10
sg367
I4
ssg203
I0
sg204
I0
sg205
I0
sg206
I0
sg101
I0
sg208
I0
sg209
I0
sg94
I0
sg210
I0
sg211
S'B'
p1340
sbsS's12'
p1341
(ijoueur
joueur
p1342
(dp1343
g27
I0
sg28
I0
sg29
I0
sg30
I0
sg71
I0
sg34
I0
sg37
g38
(g39
g40
Ntp1344
Rp1345
(dp1346
g45
g33
sbsg51
(dp1347
g265
I0
sg266
I0
sg267
I0
sg268
I0
ssg58
(dp1348
g265
I0
sg266
I0
sg267
I0
sg268
I0
ssg61
g33
sg207
I0
sg62
(dp1349
g321
I1
sg322
I1
sg323
g324
ssg68
I0
sg72
I0
sg73
I0
sg74
I0
sg75
g276
sg77
I00
sg121
g38
(g39
g40
Ntp1350
Rp1351
(dp1352
g45
g33
sbsg78
I0
sg85
I00
sg86
(dp1353
g265
I0
sg266
I0
sg267
I0
sg268
I0
ssg88
(dp1354
g265
I0
sg266
I0
sg267
I0
sg268
I0
ssg90
I0
sg91
(lp1355
g332
aI01
aI00
aI00
asg79
(dp1356
g265
I0
sg266
I0
sg267
I0
sg268
I0
ssg95
g33
sg97
I0
sg98
I0
sg99
I0
sg100
I0
sg139
(g307
g595
g33
g33
tp1357
sg104
(dp1358
g299
I0
sg290
I0
sg291
I0
sg292
I0
sg297
I0
sg289
I0
sg294
I0
sg296
I0
sg293
I0
sg298
I0
sg295
I0
sg300
I0
sg301
I0
sg302
I0
sg303
I0
ssg147
(dp1359
sg122
I0
sg133
g33
sg134
I0
sg135
I0
sg136
I0
sg137
F10.517241379310345
sg138
I0
sg144
I0
sg145
(dp1360
g265
I0
sg266
I0
sg267
I0
sg268
I0
ssg185
I0
sg186
(dp1361
g289
I10
sg290
I5
sg291
I11
sg292
I11
sg297
I8
sg295
I10
sg294
I8
sg296
I13
sg293
I9
sg298
I11
sg299
I11
sg300
I8
sg301
I9
sg302
I10
sg303
I4
ssg203
I0
sg204
I0
sg205
I0
sg206
I0
sg101
I0
sg208
I0
sg209
I0
sg94
I0
sg210
I0
sg211
g33
sbsS's11'
p1362
(ijoueur
joueur
p1363
(dp1364
g27
I0
sg28
I0
sg29
I0
sg30
I0
sg71
I0
sg34
I0
sg37
g38
(g39
g40
Ntp1365
Rp1366
(dp1367
g45
g33
sbsg51
(dp1368
g265
I0
sg266
I0
sg267
I0
sg268
I0
ssg58
(dp1369
g265
I0
sg266
I0
sg267
I0
sg268
I0
ssg61
g33
sg207
I0
sg62
(dp1370
g321
I1
sg322
I1
sg323
g324
ssg68
I0
sg72
I0
sg73
I0
sg74
I0
sg75
g276
sg77
I00
sg121
g38
(g39
g40
Ntp1371
Rp1372
(dp1373
g45
g33
sbsg78
I0
sg85
I00
sg86
(dp1374
g265
I0
sg266
I0
sg267
I0
sg268
I0
ssg88
(dp1375
g265
I0
sg266
I0
sg267
I0
sg268
I0
ssg90
I0
sg91
(lp1376
g332
aI01
aI00
aI00
asg79
(dp1377
g265
I0
sg266
I0
sg267
I0
sg268
I0
ssg95
g33
sg97
I0
sg98
I0
sg99
I0
sg100
I0
sg139
g1357
sg104
(dp1378
g299
I0
sg290
I0
sg291
I0
sg292
I0
sg297
I0
sg289
I0
sg294
I0
sg296
I0
sg293
I0
sg298
I0
sg295
I0
sg300
I0
sg301
I0
sg302
I0
sg303
I0
ssg147
(dp1379
sg122
I0
sg133
g33
sg134
I0
sg135
I0
sg136
I0
sg137
F10.517241379310345
sg138
I0
sg144
I0
sg145
(dp1380
g265
I0
sg266
I0
sg267
I0
sg268
I0
ssg185
I0
sg186
g1361
sg203
I0
sg204
I0
sg205
I0
sg206
I0
sg101
I0
sg208
I0
sg209
I0
sg94
I0
sg210
I0
sg211
g33
sbssg185
I0
sg186
g1361
sg203
I0
sg204
I0
sg205
I0
sg206
I0
sg207
I24
sg208
I2
sg210
I0
sg211
g1340
sbsS'n10'
p1381
g879
sS'n11'
p1382
g256
sS'n16'
p1383
(ijoueur
joueur
p1384
(dp1385
g628
F7.703703703703703
sg27
I0
sg629
F8.310344827586206
sg28
F1.0
sg133
g33
sg30
I0
sg31
F39.502908735920435
sg34
I0
sg36
I0
sg37
g38
(g39
g40
Ntp1386
Rp1387
(dp1388
g44
I4
sg45
S'*'
p1389
sg47
S'heros'
p1390
sbsg49
(dp1391
sg51
(dp1392
S'SR'
p1393
I0
sS'ST'
p1394
I0
sS'CR'
p1395
I4
sS'CT'
p1396
I0
ssg57
F8.793103448275861
sg641
I0
sg270
I10
sS'drop_rates_total'
p1397
I0
sg62
(dp1398
g272
I1
sg273
I11
sg274
g402
ssg68
I0
sg69
F39.502908735920435
sg70
I01
sg71
I1
sg72
I0
sg73
I0
sg74
I0
sg101
I0
sg77
I00
sg78
F0.0
sg79
(dp1399
g278
I0
sg279
I0
sg280
I0
sg281
I0
ssg85
I00
sg86
(dp1400
g278
I0
sg279
I0
sg280
I0
sg281
I0
ssg88
(dp1401
g1393
I0
sg1394
I0
sg1395
I0
sg1396
I1
ssg90
I0
sg91
(lp1402
g286
aI01
aI01
aI00
asg94
I0
sg95
S'Clebe'
p1403
sg97
I11
sg98
I0
sg145
(dp1404
g278
I0
sg279
I0
sg280
I4
sg281
I0
ssg100
I107
sg75
g276
sg102
I00
sg99
I25
sg104
(dp1405
S'A'
p1406
I8
sS'ME'
p1407
I11
sS'RP2'
p1408
I9
sS'E'
p1409
I12
sS'P'
p1410
I5
sS'RP1'
p1411
I10
sS'JP'
p1412
I5
sS'RP_tot'
p1413
I11
sS'TO'
p1414
I8
sS'PA'
p1415
I8
sS'M'
p1416
I9
sS'R'
p1417
I6
sS'TB'
p1418
I6
sS'PL'
p1419
I7
sS'TA'
p1420
I10
ssg186
(dp1421
g1406
I8
sg1407
I11
sg1408
I9
sg1409
I12
sg1414
I8
sg1411
I10
sg1412
I5
sg1413
I11
sg1410
I5
sg1415
I8
sg1416
I9
sg1417
I6
sg1418
I6
sg1419
I7
sg1420
I10
ssg121
g1387
sg122
I3
sg29
I0
sg134
I0
sg135
I0
sg136
I0
sg137
F9.10344827586207
sg138
I0
sg139
(S'dummy'
p1422
S'PI'
p1423
S'TA'
p1424
g33
tp1425
sg58
(dp1426
g1393
I0
sg1394
I0
sg1395
I0
sg1396
I0
ssg144
I3
sg209
I0
sg147
(dp1427
S's13'
p1428
(ijoueur
joueur
p1429
(dp1430
g27
I0
sg28
F1.0
sg29
I0
sg30
I0
sg71
I1
sg34
I0
sg37
g1387
sg51
(dp1431
S'SR'
p1432
I0
sS'ST'
p1433
I0
sS'CR'
p1434
I0
sS'CT'
p1435
I0
ssg58
g1426
sg61
S'TO 14'
p1436
sg207
I2
sg62
(dp1437
g321
I1
sg322
I1
sg323
g324
ssg68
I0
sg72
I0
sg73
I0
sg74
I0
sg75
S'TO'
p1438
sg77
I00
sg121
g1387
sg78
F0.5
sg85
I00
sg86
(dp1439
S'SR'
p1440
I0
sS'ST'
p1441
I0
sS'CR'
p1442
I0
sS'CT'
p1443
I0
ssg88
g1401
sg90
I0
sg91
(lp1444
g332
aI01
aI01
aI00
asg79
(dp1445
g1440
I0
sg1441
I0
sg1442
I0
sg1443
I0
ssg95
g1403
sg97
I11
sg98
I0
sg99
I25
sg100
I107
sg139
g1425
sg104
(dp1446
S'A'
p1447
I0
sS'ME'
p1448
I0
sS'RP2'
p1449
I0
sS'E'
p1450
I0
sS'TO'
p1451
I0
sS'RP1'
p1452
I0
sS'JP'
p1453
I0
sS'RP_tot'
p1454
I0
sS'P'
p1455
I0
sS'PA'
p1456
I0
sS'M'
p1457
I0
sS'R'
p1458
I0
sS'TB'
p1459
I0
sS'PL'
p1460
I0
sS'TA'
p1461
I0
ssg147
(dp1462
sg122
I0
sg133
g33
sg134
I0
sg135
F0.0
sg136
I0
sg137
F8.793103448275861
sg138
I0
sg144
I0
sg145
(dp1463
g1440
I0
sg1441
I0
sg1442
I0
sg1443
I0
ssg185
I0
sg186
(dp1464
g353
I8
sg354
I10
sg355
I8
sg356
I12
sg357
I8
sg358
I9
sg359
I5
sg360
I10
sg361
I5
sg362
I8
sg363
I9
sg364
I6
sg365
I6
sg366
I7
sg367
I10
ssg203
I0
sg204
I0
sg205
I0
sg206
I0
sg101
I0
sg208
I0
sg209
I0
sg94
I0
sg210
I0
sg211
S'HL'
p1465
sbsS's12'
p1466
(ijoueur
joueur
p1467
(dp1468
g628
F7.703703703703703
sg27
I0
sg28
F1.0
sg133
g33
sg30
I0
sg71
I1
sg34
I0
sg37
g38
(g39
g40
Ntp1469
Rp1470
(dp1471
g44
I4
sg45
S'*'
p1472
sg47
S'heros'
p1473
sbsg51
(dp1474
S'SR'
p1475
I0
sS'ST'
p1476
I0
sS'CR'
p1477
I0
sS'CT'
p1478
I0
ssg58
(dp1479
g1475
I0
sg1476
I0
sg1477
I0
sg1478
I0
ssg1397
I0
sg207
I8
sg62
(dp1480
g321
I1
sg322
I1
sg323
g324
ssg68
I0
sg72
I0
sg73
I0
sg74
I0
sg75
S'TO'
p1481
sg77
I00
sg121
g38
(g39
g40
Ntp1482
Rp1483
(dp1484
g44
I3
sg45
S'^^^'
p1485
sg47
S'rare'
p1486
sbsg78
F2.5
sg85
I00
sg86
(dp1487
S'SR'
p1488
I0
sS'ST'
p1489
I0
sS'CR'
p1490
I0
sS'CT'
p1491
I0
ssg88
(dp1492
g1475
I0
sg1476
I0
sg1477
I0
sg1478
I1
ssg90
I0
sg91
(lp1493
g332
aI01
aI01
aI00
asg79
(dp1494
g1488
I0
sg1489
I0
sg1490
I0
sg1491
I1
ssg95
S'Clebe'
p1495
sg97
I11
sg98
I0
sg99
I25
sg100
I68
sg139
(S'dummy'
p1496
S'PI'
p1497
S'TA'
p1498
g33
tp1499
sg104
(dp1500
S'A'
p1501
I6
sS'ME'
p1502
I10
sS'RP2'
p1503
I7
sS'E'
p1504
I12
sS'TO'
p1505
I6
sS'RP1'
p1506
I9
sS'JP'
p1507
I0
sS'RP_tot'
p1508
I9
sS'P'
p1509
I0
sS'PA'
p1510
I6
sS'M'
p1511
I9
sS'R'
p1512
I6
sS'TB'
p1513
I1
sS'PL'
p1514
I6
sS'TA'
p1515
I10
ssg147
(dp1516
S's11'
p1517
(ijoueur
joueur
p1518
(dp1519
g27
I0
sg30
I0
sg34
I0
sg37
g38
(g39
g40
Ntp1520
Rp1521
(dp1522
g44
I4
sg45
S'*'
p1523
sg47
S'heros'
p1524
sbsg51
(dp1525
S'SR'
p1526
I0
sS'ST'
p1527
I0
sS'CR'
p1528
I0
sS'CT'
p1529
I0
ssg58
(dp1530
g1526
I0
sg1527
I0
sg1528
I0
sg1529
I0
ssg1397
I0
sg68
I0
sg85
I00
sg72
I0
sg73
I0
sg74
I0
sg139
(S'dummy'
p1531
S'PI'
p1532
S'TA'
p1533
g33
tp1534
sg77
I00
sg121
g38
(g39
g40
Ntp1535
Rp1536
(dp1537
g44
I1
sg45
S'<'
p1538
sg47
S'base'
p1539
sbsg79
(dp1540
g1526
I0
sg1527
I0
sg1528
I0
sg1529
I0
ssg145
(dp1541
g1526
I0
sg1527
I0
sg1528
I0
sg1529
I0
ssg86
(dp1542
g1526
I0
sg1527
I0
sg1528
I0
sg1529
I0
ssg88
(dp1543
g1526
I0
sg1527
I0
sg1528
I0
sg1529
I0
ssg90
I0
sg94
I0
sg95
S'Clebe'
p1544
sg97
I11
sg98
I0
sg99
I25
sg100
I18
sg75
S'TO'
p1545
sg104
(dp1546
S'A'
p1547
I5
sS'ME'
p1548
I9
sS'RP2'
p1549
I6
sS'E'
p1550
I11
sS'TO'
p1551
I4
sS'RP1'
p1552
I8
sS'JP'
p1553
I0
sS'RP_tot'
p1554
I8
sS'P'
p1555
I0
sS'PA'
p1556
I4
sS'M'
p1557
I7
sS'R'
p1558
I7
sS'TB'
p1559
I1
sS'PL'
p1560
I6
sS'TA'
p1561
I9
ssg122
I0
sg29
I0
sg134
I0
sg136
I0
sg137
F7.793103448275862
sg138
I0
sg209
I0
sg185
I0
sg792
(dp1562
S'A'
p1563
I5
sS'ME'
p1564
I9
sS'RP2'
p1565
I6
sS'E'
p1566
I11
sS'TO'
p1567
I4
sS'RP1'
p1568
I8
sS'JP'
p1569
I0
sS'RP_tot'
p1570
I8
sS'P'
p1571
I0
sS'PA'
p1572
I4
sS'M'
p1573
I7
sS'R'
p1574
I7
sS'TB'
p1575
I1
sS'PL'
p1576
I6
sS'TA'
p1577
I9
ssg186
g1546
sg203
I0
sg61
g33
sg204
I0
sg205
I0
sg206
I0
sg207
I3
sg208
I0
sg210
I0
sg211
S'HL'
p1578
sbssg122
I0
sg29
I0
sg134
I0
sg135
F1.0
sg136
I0
sg137
F8.310344827586206
sg138
I0
sg144
I0
sg145
(dp1579
g1488
I0
sg1489
I0
sg1490
I0
sg1491
I0
ssg185
I0
sg792
(dp1580
S'A'
p1581
I5
sS'ME'
p1582
I9
sS'RP2'
p1583
I6
sS'E'
p1584
I11
sS'P'
p1585
I0
sS'RP1'
p1586
I8
sS'JP'
p1587
I0
sS'RP_tot'
p1588
I8
sS'TO'
p1589
I4
sS'PA'
p1590
I4
sS'M'
p1591
I7
sS'R'
p1592
I7
sS'TB'
p1593
I1
sS'PL'
p1594
I6
sS'TA'
p1595
I9
ssg186
g1500
sg203
I0
sg61
g33
sg204
I0
sg205
I0
sg206
I0
sg101
I0
sg208
I0
sg209
I0
sg94
I0
sg210
I0
sg211
S'HL'
p1596
sbsS's11'
p1597
(ijoueur
joueur
p1598
(dp1599
g27
I0
sg28
F0.0
sg30
I0
sg71
I1
sg34
I0
sg37
g38
(g39
g40
Ntp1600
Rp1601
(dp1602
g44
I4
sg45
S'*'
p1603
sg47
S'heros'
p1604
sbsg51
(dp1605
S'SR'
p1606
I0
sS'ST'
p1607
I0
sS'CR'
p1608
I0
sS'CT'
p1609
I0
ssg58
(dp1610
g1606
I0
sg1607
I0
sg1608
I0
sg1609
I0
ssg1397
I0
sg207
I3
sg62
(dp1611
g321
I1
sg322
I1
sg323
g324
ssg68
I0
sg72
I0
sg73
I0
sg74
I0
sg75
S'TO'
p1612
sg77
I00
sg121
g38
(g39
g40
Ntp1613
Rp1614
(dp1615
g44
I1
sg45
S'<'
p1616
sg47
S'base'
p1617
sbsg78
F0.0
sg85
I00
sg86
(dp1618
g1606
I0
sg1607
I0
sg1608
I0
sg1609
I0
ssg88
(dp1619
g1606
I0
sg1607
I0
sg1608
I0
sg1609
I0
ssg90
I0
sg91
(lp1620
g332
aI01
aI01
aI00
asg94
I0
sg95
S'Clebe'
p1621
sg97
I11
sg98
I0
sg99
I25
sg100
I18
sg139
(S'dummy'
p1622
S'PI'
p1623
S'TA'
p1624
g33
tp1625
sg79
(dp1626
g1606
I0
sg1607
I0
sg1608
I0
sg1609
I0
ssg104
(dp1627
S'A'
p1628
I5
sS'ME'
p1629
I9
sS'RP2'
p1630
I6
sS'E'
p1631
I11
sS'TO'
p1632
I4
sS'RP1'
p1633
I8
sS'JP'
p1634
I0
sS'RP_tot'
p1635
I8
sS'P'
p1636
I0
sS'PA'
p1637
I4
sS'M'
p1638
I7
sS'R'
p1639
I7
sS'TB'
p1640
I1
sS'PL'
p1641
I6
sS'TA'
p1642
I9
ssg122
I0
sg29
I0
sg134
I0
sg135
F0.0
sg136
I0
sg137
F7.793103448275862
sg138
I0
sg144
I0
sg145
(dp1643
g1606
I0
sg1607
I0
sg1608
I0
sg1609
I0
ssg185
I0
sg792
(dp1644
S'A'
p1645
I5
sS'ME'
p1646
I9
sS'RP2'
p1647
I6
sS'E'
p1648
I11
sS'TO'
p1649
I4
sS'RP1'
p1650
I8
sS'JP'
p1651
I0
sS'RP_tot'
p1652
I8
sS'P'
p1653
I0
sS'PA'
p1654
I4
sS'M'
p1655
I7
sS'R'
p1656
I7
sS'TB'
p1657
I1
sS'PL'
p1658
I6
sS'TA'
p1659
I9
ssg186
g1627
sg203
I0
sg61
g33
sg204
I0
sg205
I0
sg206
I0
sg101
I0
sg208
I0
sg209
I0
sg210
I0
sg211
S'HL'
p1660
sbssg185
I0
sg792
(dp1661
S'A'
p1662
I5
sS'ME'
p1663
I9
sS'RP2'
p1664
I6
sS'E'
p1665
I11
sS'P'
p1666
I0
sS'RP1'
p1667
I8
sS'JP'
p1668
I0
sS'RP_tot'
p1669
I8
sS'TO'
p1670
I4
sS'PA'
p1671
I4
sS'M'
p1672
I7
sS'R'
p1673
I7
sS'TB'
p1674
I1
sS'PL'
p1675
I6
sS'TA'
p1676
I9
ssg203
I0
sg876
(dp1677
sg204
I0
sg61
g1436
sg205
I0
sg206
I0
sg207
I2
sg208
I0
sg210
I0
sg211
g1465
sbsS'n17'
p1678
(ijoueur
joueur
p1679
(dp1680
g628
F9.148148148148149
sg27
I0
sg629
F9.148148148148149
sg28
F5.5
sg133
g33
sg30
I0
sg31
F39.502908735920435
sg34
I0
sg36
I0
sg37
g38
(g39
g40
Ntp1681
Rp1682
(dp1683
g44
I3
sg45
S'^^^'
p1684
sg47
S'rare'
p1685
sbsg49
(dp1686
sg51
(dp1687
S'SR'
p1688
I0
sS'ST'
p1689
I0
sS'CR'
p1690
I6
sS'CT'
p1691
I0
ssg57
F8.931034482758621
sg641
I0
sg270
I10
sg61
S'APA 11;TA 14'
p1692
sg62
(dp1693
g272
I3
sg273
I3
sg274
g402
ssg68
I0
sS'transformations'
p1694
I0
sS'penalites'
p1695
I0
sg70
I00
sg71
I1
sg72
I0
sg73
I0
sg74
I0
sg101
I0
sg77
I00
sg78
F4.5
sg79
(dp1696
g278
I0
sg279
I0
sg280
I4
sg281
I0
ssg85
I00
sg86
(dp1697
g278
I0
sg279
I0
sg280
I0
sg281
I0
ssg88
(dp1698
g1688
I0
sg1689
I0
sg1690
I13
sg1691
I1
ssg90
I0
sg91
(lp1699
g286
aI01
aI01
aI00
asg94
I0
sg95
S"X'uv"
p1700
sg97
I8
sg98
I0
sg145
(dp1701
g278
I0
sg279
I0
sg280
I0
sg281
I0
ssg100
I263
sg75
g276
sg102
I00
sg99
I19
sg104
(dp1702
S'A'
p1703
I6
sS'ME'
p1704
I10
sS'RP2'
p1705
I7
sS'E'
p1706
I13
sS'P'
p1707
I2
sS'RP1'
p1708
I9
sS'JP'
p1709
I2
sS'RP_tot'
p1710
I9
sS'TO'
p1711
I7
sS'PA'
p1712
I6
sS'M'
p1713
I9
sS'R'
p1714
I9
sS'TB'
p1715
I3
sS'PL'
p1716
I6
sS'TA'
p1717
I9
ssg186
(dp1718
g1703
I6
sg1704
I10
sg1705
I7
sg1706
I13
sg1711
I7
sg1708
I9
sg1709
I2
sg1710
I9
sg1707
I2
sg1712
I6
sg1713
I9
sg1714
I9
sg1715
I3
sg1716
I6
sg1717
I9
ssg121
g38
(g39
g40
Ntp1719
Rp1720
(dp1721
g44
I3
sg45
S'^^^'
p1722
sg47
g1685
sbsg122
I3
sg29
I0
sg134
I0
sg135
I0
sg136
I0
sg137
F9.0
sg138
I0
sg139
(S'dummy'
p1723
S'PI'
p1724
S'TA'
p1725
g33
tp1726
sg58
(dp1727
g1688
I0
sg1689
I0
sg1690
I0
sg1691
I0
ssg69
F39.502908735920435
sg144
I1
sS'drops'
p1728
I0
sg209
I0
sg147
(dp1729
S's13'
p1730
(ijoueur
joueur
p1731
(dp1732
g27
I0
sg28
F5.5
sg29
I0
sg30
I0
sg71
I1
sg34
I0
sg37
g1682
sg51
(dp1733
S'SR'
p1734
I0
sS'CT'
p1735
I0
sS'CR'
p1736
I0
sS'ST'
p1737
I0
ssg58
g1727
sg61
g1692
sg207
I2
sg62
(dp1738
g321
I1
sg322
I1
sg323
g324
ssg68
I0
sg72
I0
sg73
I0
sg74
I0
sg75
S'TA'
p1739
sg77
I00
sg121
g1720
sg78
F1.0
sg85
I00
sg86
(dp1740
S'SR'
p1741
I0
sS'CT'
p1742
I0
sS'CR'
p1743
I0
sS'ST'
p1744
I0
ssg88
g1698
sg90
I0
sg91
(lp1745
g332
aI01
aI01
aI00
asg79
(dp1746
g1741
I0
sg1742
I1
sg1743
I4
sg1744
I0
ssg95
g1700
sg97
I8
sg98
I0
sg99
I19
sg100
I263
sg139
g1726
sg104
(dp1747
S'A'
p1748
I0
sS'ME'
p1749
I0
sS'RP2'
p1750
I0
sS'E'
p1751
I0
sS'P'
p1752
I0
sS'RP1'
p1753
I0
sS'JP'
p1754
I0
sS'RP_tot'
p1755
I0
sS'TO'
p1756
I0
sS'PA'
p1757
I0
sS'M'
p1758
I0
sS'R'
p1759
I0
sS'TB'
p1760
I0
sS'PL'
p1761
I0
sS'TA'
p1762
I0
ssg147
(dp1763
sg122
I0
sg133
g33
sg134
I0
sg135
F4.5
sg136
I0
sg137
F8.931034482758621
sg138
I0
sg144
I0
sg145
(dp1764
g1741
I0
sg1742
I0
sg1743
I3
sg1744
I0
ssg185
I0
sg186
(dp1765
g353
I5
sg354
I10
sg355
I7
sg356
I13
sg357
I7
sg358
I9
sg359
I2
sg360
I9
sg361
I2
sg362
I6
sg363
I9
sg364
I9
sg365
I3
sg366
I6
sg367
I9
ssg203
I0
sg204
I0
sg205
I0
sg206
I0
sg101
I0
sg208
I0
sg209
I0
sg94
I0
sg210
I0
sg211
S'HL'
p1766
sbsS's12'
p1767
(ijoueur
joueur
p1768
(dp1769
g628
F9.148148148148149
sg27
I0
sg28
F1.0
sg133
g33
sg30
I0
sg71
I1
sg34
I0
sg37
g38
(g39
g40
Ntp1770
Rp1771
(dp1772
g44
I3
sg45
S'^^^'
p1773
sg47
S'rare'
p1774
sbsg51
(dp1775
S'SR'
p1776
I0
sS'ST'
p1777
I0
sS'CR'
p1778
I3
sS'CT'
p1779
I0
ssg58
(dp1780
g1776
I0
sg1777
I0
sg1778
I0
sg1779
I0
ssg61
S'APA 11'
p1781
sg207
I10
sg62
(dp1782
g321
I1
sg322
I1
sg323
g324
ssg68
I0
sg1694
I0
sg1695
I0
sg72
I0
sg73
I0
sg74
I0
sg75
S'TA'
p1783
sg77
I00
sg78
F0.0
sg79
(dp1784
S'SR'
p1785
I0
sS'ST'
p1786
I0
sS'CR'
p1787
I2
sS'CT'
p1788
I0
ssg85
I00
sg86
(dp1789
g1785
I0
sg1786
I0
sg1787
I0
sg1788
I0
ssg88
(dp1790
g1776
I0
sg1777
I0
sg1778
I5
sg1779
I0
ssg90
I0
sg91
(lp1791
g332
aI01
aI01
aI00
asg94
I0
sg95
S"X'uv"
p1792
sg97
I8
sg98
I0
sg99
I19
sg100
I185
sg139
(S'dummy'
p1793
S'PI'
p1794
S'TA'
p1795
g33
tp1796
sg104
(dp1797
S'A'
p1798
I6
sS'ME'
p1799
I10
sS'RP2'
p1800
I7
sS'E'
p1801
I13
sS'TO'
p1802
I7
sS'RP1'
p1803
I10
sS'JP'
p1804
I2
sS'RP_tot'
p1805
I10
sS'P'
p1806
I2
sS'PA'
p1807
I6
sS'M'
p1808
I9
sS'R'
p1809
I9
sS'TB'
p1810
I3
sS'PL'
p1811
I6
sS'TA'
p1812
I9
ssg121
g38
(g39
g40
Ntp1813
Rp1814
(dp1815
g44
I3
sg45
S'^^^'
p1816
sg47
g1774
sbsg122
I0
sg29
I0
sg134
I0
sg135
F1.0
sg136
I0
sg137
F9.148148148148149
sg138
I0
sg144
I0
sg1728
I0
sg145
(dp1817
g1785
I0
sg1786
I0
sg1787
I0
sg1788
I0
ssg147
(dp1818
S's11'
p1819
(ijoueur
joueur
p1820
(dp1821
g27
I0
sg30
I0
sg34
I0
sg37
g38
(g39
g40
Ntp1822
Rp1823
(dp1824
g44
I3
sg45
S'^^^'
p1825
sg47
S'rare'
p1826
sbsg51
(dp1827
S'SR'
p1828
I0
sS'ST'
p1829
I0
sS'CR'
p1830
I3
sS'CT'
p1831
I0
ssg58
(dp1832
g1828
I0
sg1829
I0
sg1830
I0
sg1831
I0
ssg145
(dp1833
g1828
I0
sg1829
I0
sg1830
I3
sg1831
I0
ssg61
S'APA 11'
p1834
sg68
I0
sg1694
I0
sg1695
I0
sg72
I0
sg73
I0
sg74
I0
sg139
(S'dummy'
p1835
S'PI'
p1836
S'TA'
p1837
g33
tp1838
sg77
I01
sg121
g38
(g39
g40
Ntp1839
Rp1840
(dp1841
g44
I3
sg45
S'^^^'
p1842
sg47
g1826
sbsg79
(dp1843
g1828
I0
sg1829
I0
sg1830
I3
sg1831
I0
ssg85
I00
sg86
(dp1844
g1828
I0
sg1829
I0
sg1830
I0
sg1831
I0
ssg88
(dp1845
g1828
I0
sg1829
I0
sg1830
I3
sg1831
I0
ssg90
I0
sg94
I0
sg95
S"X'uv"
p1846
sg97
I8
sg98
I0
sg99
I19
sg100
I185
sg75
S'TA'
p1847
sg104
(dp1848
S'A'
p1849
I6
sS'ME'
p1850
I10
sS'RP2'
p1851
I7
sS'E'
p1852
I13
sS'TO'
p1853
I7
sS'RP1'
p1854
I10
sS'JP'
p1855
I2
sS'RP_tot'
p1856
I10
sS'P'
p1857
I2
sS'PA'
p1858
I6
sS'M'
p1859
I9
sS'R'
p1860
I9
sS'TB'
p1861
I3
sS'PL'
p1862
I6
sS'TA'
p1863
I9
ssg122
I0
sg29
I0
sg134
I0
sg136
I0
sg137
F9.148148148148149
sg138
I0
sg1728
I0
sg209
I0
sg185
I0
sg792
(dp1864
S'A'
p1865
I6
sS'ME'
p1866
I10
sS'RP2'
p1867
I7
sS'E'
p1868
I13
sS'TO'
p1869
I7
sS'RP1'
p1870
I10
sS'JP'
p1871
I2
sS'RP_tot'
p1872
I10
sS'P'
p1873
I2
sS'PA'
p1874
I6
sS'M'
p1875
I9
sS'R'
p1876
I9
sS'TB'
p1877
I3
sS'PL'
p1878
I6
sS'TA'
p1879
I9
ssg186
g1848
sg203
I0
sg204
I0
sg205
I0
sg206
I0
sg207
I10
sg208
I0
sg210
I0
sg211
S'HL'
p1880
sbssg185
I0
sg792
(dp1881
S'A'
p1882
I6
sS'ME'
p1883
I10
sS'RP2'
p1884
I7
sS'E'
p1885
I13
sS'TO'
p1886
I7
sS'RP1'
p1887
I10
sS'JP'
p1888
I2
sS'RP_tot'
p1889
I10
sS'P'
p1890
I2
sS'PA'
p1891
I6
sS'M'
p1892
I9
sS'R'
p1893
I9
sS'TB'
p1894
I3
sS'PL'
p1895
I6
sS'TA'
p1896
I9
ssg186
g1797
sg203
I0
sg204
I0
sg205
I0
sg206
I0
sg101
I0
sg208
I0
sg209
I0
sg210
I0
sg211
S'HL'
p1897
sbsS's11'
p1898
(ijoueur
joueur
p1899
(dp1900
g27
I0
sg28
F0.0
sg30
I0
sg71
I1
sg34
I0
sg37
g38
(g39
g40
Ntp1901
Rp1902
(dp1903
g44
I3
sg45
S'^^^'
p1904
sg47
S'rare'
p1905
sbsg51
(dp1906
S'SR'
p1907
I0
sS'ST'
p1908
I0
sS'CR'
p1909
I3
sS'CT'
p1910
I0
ssg58
(dp1911
g1907
I0
sg1908
I0
sg1909
I0
sg1910
I0
ssg61
S'APA 11'
p1912
sg207
I10
sg62
(dp1913
g321
I1
sg322
I1
sg323
g324
ssg68
I0
sg1694
I0
sg1695
I0
sg72
I0
sg73
I0
sg74
I0
sg75
S'TA'
p1914
sg77
I01
sg78
F3.0
sg79
(dp1915
g1907
I0
sg1908
I0
sg1909
I3
sg1910
I0
ssg85
I00
sg86
(dp1916
g1907
I0
sg1908
I0
sg1909
I0
sg1910
I0
ssg88
(dp1917
g1907
I0
sg1908
I0
sg1909
I3
sg1910
I0
ssg90
I0
sg91
(lp1918
g332
aI01
aI01
aI00
asg94
I0
sg95
S"X'uv"
p1919
sg97
I8
sg98
I0
sg99
I19
sg100
I185
sg139
(S'dummy'
p1920
S'PI'
p1921
S'TA'
p1922
g33
tp1923
sg104
(dp1924
S'A'
p1925
I6
sS'ME'
p1926
I10
sS'RP2'
p1927
I7
sS'E'
p1928
I13
sS'TO'
p1929
I7
sS'RP1'
p1930
I10
sS'JP'
p1931
I2
sS'RP_tot'
p1932
I10
sS'P'
p1933
I2
sS'PA'
p1934
I6
sS'M'
p1935
I9
sS'R'
p1936
I9
sS'TB'
p1937
I3
sS'PL'
p1938
I6
sS'TA'
p1939
I9
ssg121
g38
(g39
g40
Ntp1940
Rp1941
(dp1942
g44
I3
sg45
S'^^^'
p1943
sg47
g1905
sbsg122
I0
sg29
I0
sg134
I0
sg135
F3.0
sg136
I0
sg137
F9.148148148148149
sg138
I0
sg144
I0
sg1728
I0
sg145
(dp1944
g1907
I0
sg1908
I0
sg1909
I3
sg1910
I0
ssg185
I0
sg792
(dp1945
S'A'
p1946
I6
sS'ME'
p1947
I10
sS'RP2'
p1948
I7
sS'E'
p1949
I13
sS'TO'
p1950
I7
sS'RP1'
p1951
I10
sS'JP'
p1952
I2
sS'RP_tot'
p1953
I10
sS'P'
p1954
I2
sS'PA'
p1955
I6
sS'M'
p1956
I9
sS'R'
p1957
I9
sS'TB'
p1958
I3
sS'PL'
p1959
I6
sS'TA'
p1960
I9
ssg186
g1924
sg203
I0
sg204
I0
sg205
I0
sg206
I0
sg101
I0
sg208
I0
sg209
I0
sg210
I0
sg211
S'HL'
p1961
sbssg185
I0
sg792
(dp1962
S'A'
p1963
I6
sS'ME'
p1964
I10
sS'RP2'
p1965
I7
sS'E'
p1966
I13
sS'TO'
p1967
I7
sS'RP1'
p1968
I10
sS'JP'
p1969
I2
sS'RP_tot'
p1970
I10
sS'P'
p1971
I2
sS'PA'
p1972
I6
sS'M'
p1973
I9
sS'R'
p1974
I9
sS'TB'
p1975
I3
sS'PL'
p1976
I6
sS'TA'
p1977
I9
ssg203
I0
sg876
(dp1978
sg204
I0
sg205
I0
sg206
I0
sg207
I2
sg208
I0
sg210
I0
sg211
g1766
sbsS'n14'
p1979
(ijoueur
joueur
p1980
(dp1981
g27
I0
sg28
F2.5
sg29
I0
sg30
I0
sg31
F39.502908735920435
sg32
g33
sg34
I0
sg35
g33
sg36
I0
sg37
g38
(g39
g40
Ntp1982
Rp1983
(dp1984
g44
I2
sg45
S'^^'
p1985
sg47
S'special'
p1986
sbsg49
(dp1987
sg51
(dp1988
S'SR'
p1989
I0
sS'CT'
p1990
I0
sS'CR'
p1991
I0
sS'ST'
p1992
I0
ssg57
F8.548387096774194
sg58
(dp1993
g1989
I0
sg1990
I0
sg1991
I0
sg1992
I0
ssg270
I10
sg61
g33
sg62
(dp1994
S'couleur'
p1995
I3
sS'valeur'
p1996
I7
sS'r_n'
p1997
S'n'
p1998
ssg68
I0
sg69
F39.502908735920435
sg70
I01
sg71
I3
sg72
I0
sg73
I0
sg74
I0
sg75
S'MAG'
p1999
sg77
I00
sg78
F9.5
sg79
(dp2000
S'SR'
p2001
I0
sS'ST'
p2002
I0
sS'CR'
p2003
I2
sS'CT'
p2004
I2
ssg145
(dp2005
g2001
I0
sg2002
I0
sg2003
I0
sg2004
I0
ssg86
(dp2006
g2001
I0
sg2002
I0
sg2003
I0
sg2004
I0
ssg88
(dp2007
g1989
I0
sg1990
I8
sg1991
I9
sg1992
I0
ssg90
I0
sg91
(lp2008
S'dummy'
p2009
aI01
aI01
aI00
asg94
I0
sg95
S'Qiamuel'
p2010
sg97
I13
sg98
I0
sg85
I00
sg100
I30
sg101
I3
sg102
I00
sg103
g33
sg99
I20
sg104
(dp2011
S'RP1'
p2012
I9
sS'ME'
p2013
I4
sS'RP2'
p2014
I9
sS'E'
p2015
I9
sS'TO'
p2016
I6
sS'M'
p2017
I11
sS'JP'
p2018
I7
sS'RP_tot'
p2019
I11
sS'P'
p2020
I9
sS'PA'
p2021
I6
sS'A'
p2022
I9
sS'R'
p2023
I8
sS'TB'
p2024
I9
sS'PL'
p2025
I11
sS'TA'
p2026
I6
ssg121
g1983
sg122
g123
(g127
S'\x03\x00\x00\x00'
p2027
tp2028
Rp2029
sg133
g33
sg134
I0
sg135
I0
sg136
I0
sg137
F9.580645161290322
sg138
I0
sg139
(S'dummy'
p2030
S'AI'
p2031
S'CE'
p2032
g33
tp2033
sg144
I5
sg209
I0
sg147
(dp2034
S's13'
p2035
(ijoueur
joueur
p2036
(dp2037
g27
I0
sg28
F5.5
sg29
I0
sg30
I0
sg71
I3
sg34
I0
sg37
g1983
sg51
(dp2038
S'SR'
p2039
I0
sS'ST'
p2040
I0
sS'CR'
p2041
I0
sS'CT'
p2042
I0
ssg58
g1993
sg101
I0
sg61
g33
sg62
(dp2043
S'couleur'
p2044
I1
sS'valeur'
p2045
I1
sS'r_n'
p2046
S'n'
p2047
ssg68
I0
sg72
I0
sg73
I0
sg74
I0
sg139
g2033
sg77
I00
sg121
g38
(g39
g40
Ntp2048
Rp2049
(dp2050
g44
I1
sg45
S'^'
p2051
sg47
S'base'
p2052
sbsg78
F9.5
sg85
I00
sg86
(dp2053
g1989
I0
sg1990
I0
sg1991
I0
sg1992
I0
ssg88
g2007
sg90
I0
sg91
(lp2054
S'dummy'
p2055
aI01
aI01
aI00
asg79
(dp2056
g1989
I0
sg1990
I6
sg1991
I7
sg1992
I0
ssg95
g2010
sg97
I13
sg98
I0
sg99
I20
sg100
I12
sg75
g1999
sg104
(dp2057
S'A'
p2058
I0
sS'ME'
p2059
I0
sS'RP2'
p2060
I0
sS'E'
p2061
I0
sS'TO'
p2062
I0
sS'RP1'
p2063
I0
sS'JP'
p2064
I0
sS'RP_tot'
p2065
I0
sS'P'
p2066
I0
sS'PA'
p2067
I0
sS'M'
p2068
I0
sS'R'
p2069
I0
sS'TB'
p2070
I0
sS'PL'
p2071
I0
sS'TA'
p2072
I0
ssg147
(dp2073
sg122
I0
sg133
g33
sg134
I0
sg135
F9.5
sg136
I0
sg137
F8.548387096774194
sg138
I0
sg144
I0
sg145
(dp2074
g1989
I0
sg1990
I0
sg1991
I0
sg1992
I0
ssg185
I0
sg186
(dp2075
S'A'
p2076
I9
sS'ME'
p2077
I4
sS'RP2'
p2078
I9
sS'E'
p2079
I8
sS'P'
p2080
I8
sS'RP1'
p2081
I9
sS'JP'
p2082
I6
sS'RP_tot'
p2083
I11
sS'TO'
p2084
I6
sS'PA'
p2085
I6
sS'M'
p2086
I10
sS'R'
p2087
I7
sS'TB'
p2088
I7
sS'PL'
p2089
I6
sS'TA'
p2090
I6
ssg203
I0
sg204
I0
sg205
I0
sg206
I0
sg207
I1
sg208
I0
sg209
I0
sg94
I0
sg210
I0
sg211
S'EST'
p2091
sbssg185
I1
sg186
(dp2092
g2012
I9
sg2013
I4
sg2014
I9
sg2015
I9
sg2020
I9
sg2018
I7
sg2017
I11
sg2019
I11
sg2016
I6
sg2021
I6
sg2022
I9
sg2023
I8
sg2024
I9
sg2025
I11
sg2026
I6
ssg203
I0
sg204
I0
sg205
I0
sg206
I0
sg207
I2
sg208
I0
sg210
I1
sg211
g2091
sbsS'n15'
p2093
(ijoueur
joueur
p2094
(dp2095
g628
F10.545454545454545
sg27
I0
sg629
F10.606060606060606
sg28
F2.5
sg133
g33
sg30
I3
sg31
F39.502908735920435
sg34
I0
sg36
I0
sg37
g38
(g39
g40
Ntp2096
Rp2097
(dp2098
g44
I6
sg45
S'***'
p2099
sg47
S'personnage'
p2100
sbsg49
(dp2101
sg51
(dp2102
S'SR'
p2103
I1
sS'CT'
p2104
I1
sS'CR'
p2105
I3
sS'ST'
p2106
I0
ssg57
F10.181818181818182
sg641
I0
sg270
I10
sg1397
I0
sg62
(dp2107
g272
I1
sg273
I13
sg274
g402
ssg68
I0
sg69
F39.502908735920435
sg70
I00
sg71
I6
sg72
I0
sg73
I0
sg74
I0
sg101
I0
sg77
I00
sg78
F6.5
sg79
(dp2108
g278
I0
sg279
I4
sg280
I0
sg281
I0
ssg145
(dp2109
g278
I0
sg279
I0
sg280
I0
sg281
I0
ssg86
(dp2110
g278
I0
sg279
I0
sg280
I0
sg281
I0
ssg88
(dp2111
g2103
I5
sg2104
I33
sg2105
I2
sg2106
I2
ssg90
I2
sg91
(lp2112
g286
aI01
aI01
aI01
asg94
I0
sg95
S'Leitdorf'
p2113
sg97
I9
sg98
I3
sg85
I00
sg100
I956
sg75
g276
sg102
I00
sg99
I18
sg104
(dp2114
S'A'
p2115
I12
sS'ME'
p2116
I7
sS'RP2'
p2117
I10
sS'E'
p2118
I11
sS'TO'
p2119
I4
sS'RP1'
p2120
I7
sS'JP'
p2121
I7
sS'RP_tot'
p2122
I10
sS'P'
p2123
I8
sS'PA'
p2124
I7
sS'M'
p2125
I10
sS'R'
p2126
I7
sS'TB'
p2127
I9
sS'PL'
p2128
I13
sS'TA'
p2129
I6
ssg186
(dp2130
g2115
I13
sg2116
I7
sg2117
I10
sg2118
I11
sg2123
I8
sg2120
I7
sg2121
I7
sg2122
I10
sg2119
I4
sg2124
I7
sg2125
I10
sg2126
I8
sg2127
I9
sg2128
I14
sg2129
I6
ssg121
g38
(g39
g40
Ntp2131
Rp2132
(dp2133
g44
I6
sg45
S'***'
p2134
sg47
g2100
sbsg122
g123
(g127
S'\x0c\x00\x00\x00'
p2135
tp2136
Rp2137
sg29
I0
sg134
I0
sg135
I0
sg136
I0
sg137
F10.757575757575758
sg138
I2
sg139
(S'dummy'
p2138
S'AR'
p2139
S'CE'
p2140
S'AI'
p2141
tp2142
sg58
(dp2143
g2103
I0
sg2104
I0
sg2105
I0
sg2106
I0
ssg144
I4
sg209
I0
sg147
(dp2144
S's13'
p2145
(ijoueur
joueur
p2146
(dp2147
g27
I0
sg28
F2.5
sg29
I0
sg30
I0
sg71
I6
sg34
I0
sg37
g2097
sg51
(dp2148
S'SR'
p2149
I0
sS'ST'
p2150
I0
sS'CR'
p2151
I0
sS'CT'
p2152
I0
ssg58
g2143
sg61
S'ED 14'
p2153
sg207
I18
sg62
(dp2154
g321
I1
sg322
I1
sg323
g324
ssg68
I0
sg72
I0
sg73
I0
sg74
I0
sg75
S'ED'
p2155
sg77
I00
sg121
g2132
sg78
F1.0
sg85
I00
sg86
(dp2156
S'SR'
p2157
I0
sS'CT'
p2158
I0
sS'CR'
p2159
I0
sS'ST'
p2160
I0
ssg88
g2111
sg90
I0
sg91
(lp2161
g332
aI01
aI01
aI01
asg79
(dp2162
g2157
I0
sg2158
I3
sg2159
I2
sg2160
I0
ssg95
g2113
sg97
I9
sg98
I0
sg99
I18
sg100
I956
sg139
g2142
sg104
(dp2163
S'A'
p2164
I0
sS'ME'
p2165
I0
sS'RP2'
p2166
I0
sS'E'
p2167
I0
sS'TO'
p2168
I0
sS'RP1'
p2169
I0
sS'JP'
p2170
I0
sS'RP_tot'
p2171
I0
sS'P'
p2172
I0
sS'PA'
p2173
I0
sS'M'
p2174
I0
sS'R'
p2175
I0
sS'TB'
p2176
I0
sS'PL'
p2177
I0
sS'TA'
p2178
I0
ssg147
(dp2179
sg122
I0
sg133
g33
sg134
I0
sg135
F6.5
sg136
I0
sg137
F10.181818181818182
sg138
I0
sg144
I0
sg145
(dp2180
g2157
I0
sg2158
I1
sg2159
I3
sg2160
I0
ssg185
I0
sg186
(dp2181
g353
I12
sg354
I7
sg355
I10
sg356
I11
sg357
I4
sg358
I7
sg359
I7
sg360
I10
sg361
I8
sg362
I6
sg363
I9
sg364
I8
sg365
I8
sg366
I13
sg367
I6
ssg203
I0
sg204
I0
sg205
I0
sg206
I0
sg101
I0
sg208
I0
sg209
I0
sg94
I0
sg210
I0
sg211
S'EMP'
p2182
sbsS's12'
p2183
(ijoueur
joueur
p2184
(dp2185
g628
F10.545454545454545
sg27
I0
sg28
F5.0
sg133
g33
sg30
I3
sg71
I5
sg34
I0
sg37
g38
(g39
g40
Ntp2186
Rp2187
(dp2188
g44
I6
sg45
S'***'
p2189
sg47
S'personnage'
p2190
sbsg51
(dp2191
S'SR'
p2192
I1
sS'CT'
p2193
I0
sS'CR'
p2194
I0
sS'ST'
p2195
I0
ssg58
(dp2196
g2192
I0
sg2193
I0
sg2194
I0
sg2195
I0
ssg1397
I0
sg207
I63
sg62
(dp2197
g321
I1
sg322
I1
sg323
g324
ssg68
I0
sg72
I2
sg73
I0
sg74
I0
sg75
S'ED'
p2198
sg77
I00
sg121
g38
(g39
g40
Ntp2199
Rp2200
(dp2201
g44
I6
sg45
S'***'
p2202
sg47
g2190
sbsg78
F0.0
sg85
I00
sg86
(dp2203
S'SR'
p2204
I0
sS'CT'
p2205
I0
sS'CR'
p2206
I0
sS'ST'
p2207
I0
ssg88
(dp2208
g2192
I5
sg2193
I26
sg2194
I0
sg2195
I2
ssg90
I2
sg91
(lp2209
g332
aI01
aI01
aI01
asg79
(dp2210
g2204
I5
sg2205
I12
sg2206
I0
sg2207
I1
ssg95
S'Leitdorf'
p2211
sg97
I9
sg98
I3
sg99
I18
sg100
I567
sg139
(S'dummy'
p2212
S'AR'
p2213
S'CE'
p2214
S'AI'
p2215
tp2216
sg104
(dp2217
S'A'
p2218
I12
sS'ME'
p2219
I7
sS'RP2'
p2220
I10
sS'E'
p2221
I11
sS'P'
p2222
I9
sS'RP1'
p2223
I7
sS'JP'
p2224
I8
sS'RP_tot'
p2225
I10
sS'TO'
p2226
I4
sS'PA'
p2227
I6
sS'M'
p2228
I10
sS'R'
p2229
I8
sS'TB'
p2230
I9
sS'PL'
p2231
I14
sS'TA'
p2232
I6
ssg147
(dp2233
S's11'
p2234
(ijoueur
joueur
p2235
(dp2236
g27
I0
sg30
I3
sg34
I0
sg37
g38
(g39
g40
Ntp2237
Rp2238
(dp2239
g44
I6
sg45
S'***'
p2240
sg47
S'personnage'
p2241
sbsg51
(dp2242
S'SR'
p2243
I0
sS'CT'
p2244
I0
sS'CR'
p2245
I0
sS'ST'
p2246
I0
ssg58
(dp2247
g2243
I0
sg2244
I0
sg2245
I0
sg2246
I0
ssg1397
I0
sg68
I0
sg85
I00
sg72
I0
sg73
I2
sg74
I2
sg139
(S'dummy'
p2248
S'AR'
p2249
S'CE'
p2250
S'AI'
p2251
tp2252
sg77
I00
sg121
g38
(g39
g40
Ntp2253
Rp2254
(dp2255
g44
I6
sg45
S'***'
p2256
sg47
g2241
sbsg79
(dp2257
g2243
I0
sg2244
I14
sg2245
I0
sg2246
I1
ssg145
(dp2258
g2243
I0
sg2244
I0
sg2245
I0
sg2246
I0
ssg86
(dp2259
g2243
I0
sg2244
I0
sg2245
I0
sg2246
I0
ssg88
(dp2260
g2243
I0
sg2244
I14
sg2245
I0
sg2246
I1
ssg90
I2
sg94
I1
sg95
S'Leitdorf'
p2261
sg97
I9
sg98
I3
sg99
I18
sg100
I567
sg75
S'ED'
p2262
sg104
(dp2263
S'A'
p2264
I11
sS'ME'
p2265
I7
sS'RP2'
p2266
I10
sS'E'
p2267
I12
sS'P'
p2268
I9
sS'RP1'
p2269
I7
sS'JP'
p2270
I8
sS'RP_tot'
p2271
I10
sS'TO'
p2272
I4
sS'PA'
p2273
I8
sS'M'
p2274
I10
sS'R'
p2275
I8
sS'TB'
p2276
I9
sS'PL'
p2277
I13
sS'TA'
p2278
I6
ssg122
I0
sg29
I0
sg134
I0
sg136
I0
sg137
F10.545454545454545
sg138
I2
sg209
I0
sg185
I0
sg792
(dp2279
S'A'
p2280
I11
sS'ME'
p2281
I7
sS'RP2'
p2282
I10
sS'E'
p2283
I12
sS'P'
p2284
I9
sS'RP1'
p2285
I7
sS'JP'
p2286
I8
sS'RP_tot'
p2287
I10
sS'TO'
p2288
I4
sS'PA'
p2289
I8
sS'M'
p2290
I10
sS'R'
p2291
I8
sS'TB'
p2292
I9
sS'PL'
p2293
I13
sS'TA'
p2294
I6
ssg186
g2263
sg203
I0
sg61
g33
sg204
I2
sg205
I1
sg206
I2
sg207
I63
sg208
I1
sg210
I0
sg211
S'EMP'
p2295
sbssg122
I3
sg29
I0
sg134
I0
sg135
F16.0
sg136
I0
sg137
F10.606060606060606
sg138
I2
sg144
I0
sg145
(dp2296
g2204
I1
sg2205
I0
sg2206
I0
sg2207
I0
ssg185
I0
sg792
(dp2297
S'A'
p2298
I11
sS'ME'
p2299
I7
sS'RP2'
p2300
I10
sS'E'
p2301
I12
sS'P'
p2302
I9
sS'RP1'
p2303
I7
sS'JP'
p2304
I8
sS'RP_tot'
p2305
I10
sS'TO'
p2306
I4
sS'PA'
p2307
I8
sS'M'
p2308
I10
sS'R'
p2309
I8
sS'TB'
p2310
I9
sS'PL'
p2311
I13
sS'TA'
p2312
I6
ssg186
g2217
sg203
I0
sg61
g33
sg204
I2
sg205
I0
sg206
I0
sg101
I0
sg208
I3
sg209
I0
sg94
I0
sg210
I0
sg211
S'EMP'
p2313
sbsS's11'
p2314
(ijoueur
joueur
p2315
(dp2316
g27
I0
sg28
F5.0
sg30
I3
sg71
I3
sg34
I0
sg37
g38
(g39
g40
Ntp2317
Rp2318
(dp2319
g44
I6
sg45
S'***'
p2320
sg47
S'personnage'
p2321
sbsg51
(dp2322
S'SR'
p2323
I0
sS'CT'
p2324
I0
sS'CR'
p2325
I0
sS'ST'
p2326
I0
ssg58
(dp2327
g2323
I0
sg2324
I0
sg2325
I0
sg2326
I0
ssg1397
I0
sg207
I63
sg62
(dp2328
g321
I1
sg322
I1
sg323
g324
ssg68
I0
sg72
I0
sg73
I2
sg74
I2
sg75
S'ED'
p2329
sg77
I00
sg121
g38
(g39
g40
Ntp2330
Rp2331
(dp2332
g44
I6
sg45
S'***'
p2333
sg47
g2321
sbsg78
F15.0
sg85
I00
sg86
(dp2334
g2323
I0
sg2324
I0
sg2325
I0
sg2326
I0
ssg88
(dp2335
g2323
I0
sg2324
I14
sg2325
I0
sg2326
I1
ssg90
I2
sg91
(lp2336
g332
aI01
aI01
aI01
asg94
I1
sg95
S'Leitdorf'
p2337
sg97
I9
sg98
I3
sg99
I18
sg100
I567
sg139
(S'dummy'
p2338
S'AR'
p2339
S'CE'
p2340
S'AI'
p2341
tp2342
sg79
(dp2343
g2323
I0
sg2324
I14
sg2325
I0
sg2326
I1
ssg104
(dp2344
S'A'
p2345
I11
sS'ME'
p2346
I7
sS'RP2'
p2347
I10
sS'E'
p2348
I12
sS'P'
p2349
I9
sS'RP1'
p2350
I7
sS'JP'
p2351
I8
sS'RP_tot'
p2352
I10
sS'TO'
p2353
I4
sS'PA'
p2354
I8
sS'M'
p2355
I10
sS'R'
p2356
I8
sS'TB'
p2357
I9
sS'PL'
p2358
I13
sS'TA'
p2359
I6
ssg122
I0
sg29
I0
sg134
I0
sg135
F15.0
sg136
I0
sg137
F10.545454545454545
sg138
I2
sg144
I0
sg145
(dp2360
g2323
I0
sg2324
I0
sg2325
I0
sg2326
I0
ssg185
I0
sg792
(dp2361
S'A'
p2362
I11
sS'ME'
p2363
I7
sS'RP2'
p2364
I10
sS'E'
p2365
I12
sS'P'
p2366
I9
sS'RP1'
p2367
I7
sS'JP'
p2368
I8
sS'RP_tot'
p2369
I10
sS'TO'
p2370
I4
sS'PA'
p2371
I8
sS'M'
p2372
I10
sS'R'
p2373
I8
sS'TB'
p2374
I9
sS'PL'
p2375
I13
sS'TA'
p2376
I6
ssg186
g2344
sg203
I0
sg61
g33
sg204
I2
sg205
I1
sg206
I2
sg101
I0
sg208
I1
sg209
I0
sg210
I0
sg211
S'EMP'
p2377
sbssg185
I0
sg792
(dp2378
S'A'
p2379
I11
sS'ME'
p2380
I7
sS'RP2'
p2381
I10
sS'E'
p2382
I12
sS'P'
p2383
I9
sS'RP1'
p2384
I7
sS'JP'
p2385
I8
sS'RP_tot'
p2386
I10
sS'TO'
p2387
I4
sS'PA'
p2388
I8
sS'M'
p2389
I10
sS'R'
p2390
I8
sS'TB'
p2391
I9
sS'PL'
p2392
I13
sS'TA'
p2393
I6
ssg203
I0
sg876
(dp2394
sg204
I2
sg61
g2153
sg205
I0
sg206
I0
sg207
I18
sg208
I3
sg210
I0
sg211
g2182
sbsS'n18'
p2395
g977
sS'n19'
p2396
(ijoueur
joueur
p2397
(dp2398
g27
I0
sg28
F2.5
sg29
I0
sg30
I0
sg31
I0
sg32
g33
sg34
I0
sg35
g33
sg36
I0
sg37
g38
(g39
g40
Ntp2399
Rp2400
(dp2401
g44
I3
sg45
S'<<<'
p2402
sg47
S'rare'
p2403
sbsg49
(dp2404
sg51
(dp2405
g1989
I0
sg1990
I4
sg1991
I5
sg1992
I0
ssg57
F9.096774193548388
sg58
(dp2406
g1989
I0
sg1990
I0
sg1991
I0
sg1992
I0
ssg270
I10
sg61
g33
sg62
(dp2407
g1995
I2
sg1996
I12
sg1997
S'r'
p2408
ssg68
I0
sg69
I0
sg70
I00
sg71
I1
sg72
I0
sg73
I0
sg74
I0
sg75
g1999
sg77
I00
sg78
F9.5
sg79
(dp2409
g2001
I0
sg2002
I0
sg2003
I0
sg2004
I0
ssg145
(dp2410
g2001
I0
sg2002
I0
sg2003
I0
sg2004
I0
ssg86
(dp2411
g2001
I0
sg2002
I0
sg2003
I0
sg2004
I0
ssg88
(dp2412
g1989
I0
sg1990
I2
sg1991
I2
sg1992
I0
ssg90
I0
sg91
(lp2413
g2009
aI01
aI01
aI00
asg94
I0
sg95
S'Qelopie'
p2414
sg97
I6
sg98
I0
sg85
I00
sg100
I25
sg101
I1
sg102
I00
sg103
g33
sg99
I19
sg104
(dp2415
g2012
I6
sg2013
I9
sg2014
I4
sg2015
I9
sg2016
I8
sg2017
I8
sg2018
I4
sg2019
I6
sg2020
I4
sg2021
I7
sg2022
I8
sg2023
I11
sg2024
I4
sg2025
I9
sg2026
I6
ssg121
g2400
sg122
I0
sg133
g33
sg134
I0
sg135
I0
sg136
I0
sg137
F8.96774193548387
sg138
I0
sg139
(g2030
S'TL'
p2416
S'DL'
p2417
g33
tp2418
sg144
I-2
sg209
I0
sg147
(dp2419
S's13'
p2420
(ijoueur
joueur
p2421
(dp2422
g27
I0
sg28
F2.5
sg29
I0
sg30
I0
sg71
I1
sg34
I0
sg37
g2400
sg51
(dp2423
g2039
I0
sg2040
I0
sg2041
I0
sg2042
I0
ssg58
g2406
sg101
I0
sg61
g33
sg62
(dp2424
g2044
I1
sg2045
I1
sg2046
g2047
ssg68
I0
sg72
I0
sg73
I0
sg74
I0
sg139
g2418
sg77
I00
sg121
g2400
sg78
F9.5
sg85
I00
sg86
(dp2425
g1989
I0
sg1990
I0
sg1991
I0
sg1992
I0
ssg88
g2412
sg90
I0
sg91
(lp2426
g2055
aI01
aI01
aI00
asg79
(dp2427
g1989
I0
sg1990
I2
sg1991
I2
sg1992
I0
ssg95
g2414
sg97
I6
sg98
I0
sg99
I19
sg100
I25
sg75
g1999
sg104
(dp2428
g2058
I0
sg2059
I0
sg2060
I0
sg2061
I0
sg2062
I0
sg2063
I0
sg2064
I0
sg2065
I0
sg2066
I0
sg2067
I0
sg2068
I0
sg2069
I0
sg2070
I0
sg2071
I0
sg2072
I0
ssg147
(dp2429
sg122
I0
sg133
g33
sg134
I0
sg135
F9.5
sg136
I0
sg137
F9.096774193548388
sg138
I0
sg144
I0
sg145
(dp2430
g1989
I0
sg1990
I4
sg1991
I5
sg1992
I0
ssg185
I0
sg186
(dp2431
g2076
I8
sg2077
I9
sg2078
I6
sg2079
I9
sg2080
I4
sg2081
I6
sg2082
I4
sg2083
I7
sg2084
I8
sg2085
I7
sg2086
I8
sg2087
I11
sg2088
I4
sg2089
I9
sg2090
I6
ssg203
I0
sg204
I0
sg205
I0
sg206
I0
sg207
I2
sg208
I0
sg209
I0
sg94
I0
sg210
I0
sg211
g2091
sbsS's12'
p2432
(ijoueur
joueur
p2433
(dp2434
g27
I0
sg28
I0
sg29
I0
sg30
I0
sg71
I0
sg34
I0
sg37
g38
(g39
g40
Ntp2435
Rp2436
(dp2437
g45
g33
sbsg51
(dp2438
g1989
I0
sg1990
I0
sg1991
I0
sg1992
I0
ssg58
(dp2439
g1989
I0
sg1990
I0
sg1991
I0
sg1992
I0
ssg101
I0
sg61
g33
sg62
(dp2440
g2044
I1
sg2045
I1
sg2046
g2047
ssg68
I0
sg72
I0
sg73
I0
sg74
I0
sg139
(g2030
g2416
g33
g33
tp2441
sg77
I00
sg121
g38
(g39
g40
Ntp2442
Rp2443
(dp2444
g45
g33
sbsg78
I0
sg85
I00
sg86
(dp2445
g1989
I0
sg1990
I0
sg1991
I0
sg1992
I0
ssg88
(dp2446
g1989
I0
sg1990
I0
sg1991
I0
sg1992
I0
ssg90
I0
sg91
(lp2447
g2055
aI01
aI00
aI00
asg79
(dp2448
g1989
I0
sg1990
I0
sg1991
I0
sg1992
I0
ssg95
g33
sg97
I0
sg98
I0
sg99
I0
sg100
I0
sg75
g1999
sg104
(dp2449
g2022
I0
sg2013
I0
sg2014
I0
sg2015
I0
sg2020
I0
sg2012
I0
sg2018
I0
sg2019
I0
sg2016
I0
sg2021
I0
sg2017
I0
sg2023
I0
sg2024
I0
sg2025
I0
sg2026
I0
ssg147
(dp2450
sg122
I0
sg133
g33
sg134
I0
sg135
I0
sg136
I0
sg137
F9.096774193548388
sg138
I0
sg144
I0
sg145
(dp2451
g1989
I0
sg1990
I0
sg1991
I0
sg1992
I0
ssg185
I0
sg186
(dp2452
g2012
I6
sg2013
I9
sg2014
I4
sg2015
I9
sg2020
I4
sg2018
I4
sg2017
I8
sg2019
I6
sg2016
I8
sg2021
I7
sg2022
I8
sg2023
I11
sg2024
I4
sg2025
I9
sg2026
I6
ssg203
I0
sg204
I0
sg205
I0
sg206
I0
sg207
I0
sg208
I0
sg209
I0
sg94
I0
sg210
I0
sg211
g33
sbsS's11'
p2453
(ijoueur
joueur
p2454
(dp2455
g27
I0
sg28
I0
sg29
I0
sg30
I0
sg71
I0
sg34
I0
sg37
g38
(g39
g40
Ntp2456
Rp2457
(dp2458
g45
g33
sbsg51
(dp2459
g1989
I0
sg1990
I0
sg1991
I0
sg1992
I0
ssg58
(dp2460
g1989
I0
sg1990
I0
sg1991
I0
sg1992
I0
ssg101
I0
sg61
g33
sg62
(dp2461
g2044
I1
sg2045
I1
sg2046
g2047
ssg68
I0
sg72
I0
sg73
I0
sg74
I0
sg139
g2441
sg77
I00
sg121
g38
(g39
g40
Ntp2462
Rp2463
(dp2464
g45
g33
sbsg78
I0
sg85
I00
sg86
(dp2465
g1989
I0
sg1990
I0
sg1991
I0
sg1992
I0
ssg88
(dp2466
g1989
I0
sg1990
I0
sg1991
I0
sg1992
I0
ssg90
I0
sg91
(lp2467
g2055
aI01
aI00
aI00
asg79
(dp2468
g1989
I0
sg1990
I0
sg1991
I0
sg1992
I0
ssg95
g33
sg97
I0
sg98
I0
sg99
I0
sg100
I0
sg75
g1999
sg104
(dp2469
g2022
I0
sg2013
I0
sg2014
I0
sg2015
I0
sg2020
I0
sg2012
I0
sg2018
I0
sg2019
I0
sg2016
I0
sg2021
I0
sg2017
I0
sg2023
I0
sg2024
I0
sg2025
I0
sg2026
I0
ssg147
(dp2470
sg122
I0
sg133
g33
sg134
I0
sg135
I0
sg136
I0
sg137
F9.096774193548388
sg138
I0
sg144
I0
sg145
(dp2471
g1989
I0
sg1990
I0
sg1991
I0
sg1992
I0
ssg185
I0
sg186
g2452
sg203
I0
sg204
I0
sg205
I0
sg206
I0
sg207
I0
sg208
I0
sg209
I0
sg94
I0
sg210
I0
sg211
g33
sbssg185
I0
sg186
g2452
sg203
I0
sg204
I0
sg205
I0
sg206
I0
sg207
I2
sg208
I0
sg210
I0
sg211
g2091
sbsS'n22'
p2472
(ijoueur
joueur
p2473
(dp2474
g27
I0
sg28
F5.0
sg29
I0
sg30
I0
sg31
F19.72818024929431
sg32
g33
sg34
I0
sg35
g33
sg36
I0
sg37
g38
(g39
g40
Ntp2475
Rp2476
(dp2477
g44
I3
sg45
g2402
sg47
g2403
sbsg49
(dp2478
sg51
(dp2479
g1989
I0
sg1990
I0
sg1991
I1
sg1992
I0
ssg57
F8.689655172413794
sg58
(dp2480
g1989
I0
sg1990
I12
sg1991
I1
sg1992
I0
ssg270
I10
sg61
g33
sg62
(dp2481
g1995
I3
sg1996
I4
sg1997
g1998
ssg68
I0
sg69
F19.72818024929431
sg70
I00
sg71
I2
sg72
I0
sg73
I0
sg74
I0
sg75
g1999
sg77
I00
sg78
F12.0
sg79
(dp2482
g2001
I0
sg2002
I0
sg2003
I0
sg2004
I0
ssg145
(dp2483
g2001
I0
sg2002
I0
sg2003
I1
sg2004
I0
ssg86
(dp2484
g2001
I0
sg2002
I0
sg2003
I1
sg2004
I0
ssg88
(dp2485
g1989
I0
sg1990
I0
sg1991
I0
sg1992
I0
ssg90
I0
sg91
(lp2486
g2009
aI01
aI01
aI01
asg94
I0
sg95
S'Joalhen'
p2487
sg97
I10
sg98
I0
sg85
I00
sg100
I26
sg101
I3
sg102
I00
sg103
g33
sg99
I23
sg104
(dp2488
g2012
I9
sg2013
I4
sg2014
I6
sg2015
I9
sg2016
I4
sg2017
I9
sg2018
I7
sg2019
I9
sg2020
I10
sg2021
I8
sg2022
I9
sg2023
I8
sg2024
I7
sg2025
I11
sg2026
I4
ssg121
g2476
sg122
I2
sg133
g33
sg134
I0
sg135
I0
sg136
I0
sg137
F9.10344827586207
sg138
I0
sg139
(g2030
S'C2'
p2489
S'AR'
p2490
S'AI'
p2491
tp2492
sg144
I4
sg209
I0
sg147
(dp2493
S's13'
p2494
(ijoueur
joueur
p2495
(dp2496
g27
I0
sg28
F5.0
sg29
I0
sg30
I0
sg71
I2
sg34
I0
sg37
g2476
sg51
(dp2497
g2039
I0
sg2040
I0
sg2041
I0
sg2042
I0
ssg58
g2480
sg101
I0
sg61
g33
sg62
(dp2498
g2044
I1
sg2045
I1
sg2046
g2047
ssg68
I0
sg72
I0
sg73
I0
sg74
I0
sg139
g2492
sg77
I00
sg121
g2476
sg78
F12.0
sg85
I00
sg86
(dp2499
g1989
I0
sg1990
I12
sg1991
I0
sg1992
I0
ssg88
g2485
sg90
I0
sg91
(lp2500
g2055
aI01
aI01
aI01
asg79
(dp2501
g1989
I0
sg1990
I0
sg1991
I0
sg1992
I0
ssg95
g2487
sg97
I10
sg98
I0
sg99
I23
sg100
I26
sg75
g1999
sg104
(dp2502
g2058
I0
sg2059
I0
sg2060
I0
sg2061
I0
sg2062
I0
sg2063
I0
sg2064
I0
sg2065
I0
sg2066
I0
sg2067
I0
sg2068
I0
sg2069
I0
sg2070
I0
sg2071
I0
sg2072
I0
ssg147
(dp2503
sg122
I0
sg133
g33
sg134
I0
sg135
F12.0
sg136
I0
sg137
F8.689655172413794
sg138
I0
sg144
I0
sg145
(dp2504
g1989
I0
sg1990
I0
sg1991
I0
sg1992
I0
ssg185
I0
sg186
(dp2505
g2076
I9
sg2077
I4
sg2078
I6
sg2079
I9
sg2080
I8
sg2081
I8
sg2082
I7
sg2083
I8
sg2084
I4
sg2085
I8
sg2086
I9
sg2087
I8
sg2088
I7
sg2089
I10
sg2090
I4
ssg203
I0
sg204
I0
sg205
I0
sg206
I0
sg207
I2
sg208
I0
sg209
I0
sg94
I0
sg210
I0
sg211
g2091
sbsS's12'
p2506
(ijoueur
joueur
p2507
(dp2508
g27
I0
sg28
I0
sg29
I0
sg30
I0
sg71
I0
sg34
I0
sg37
g38
(g39
g40
Ntp2509
Rp2510
(dp2511
g45
g33
sbsg51
(dp2512
g1989
I0
sg1990
I0
sg1991
I0
sg1992
I0
ssg58
(dp2513
g1989
I0
sg1990
I0
sg1991
I0
sg1992
I0
ssg101
I0
sg61
g33
sg62
(dp2514
g2044
I1
sg2045
I1
sg2046
g2047
ssg68
I0
sg72
I0
sg73
I0
sg74
I0
sg139
(g2030
S'CE'
p2515
g33
g33
tp2516
sg77
I00
sg121
g38
(g39
g40
Ntp2517
Rp2518
(dp2519
g45
g33
sbsg78
I0
sg85
I00
sg86
(dp2520
g1989
I0
sg1990
I0
sg1991
I0
sg1992
I0
ssg88
(dp2521
g1989
I0
sg1990
I0
sg1991
I0
sg1992
I0
ssg90
I0
sg91
(lp2522
g2055
aI01
aI00
aI00
asg79
(dp2523
g1989
I0
sg1990
I0
sg1991
I0
sg1992
I0
ssg95
g33
sg97
I0
sg98
I0
sg99
I0
sg100
I0
sg75
g1999
sg104
(dp2524
g2022
I0
sg2013
I0
sg2014
I0
sg2015
I0
sg2020
I0
sg2012
I0
sg2018
I0
sg2019
I0
sg2016
I0
sg2021
I0
sg2017
I0
sg2023
I0
sg2024
I0
sg2025
I0
sg2026
I0
ssg147
(dp2525
sg122
I0
sg133
g33
sg134
I0
sg135
I0
sg136
I0
sg137
F8.689655172413794
sg138
I0
sg144
I0
sg145
(dp2526
g1989
I0
sg1990
I0
sg1991
I0
sg1992
I0
ssg185
I0
sg186
(dp2527
g2012
I9
sg2013
I4
sg2014
I6
sg2015
I9
sg2020
I10
sg2018
I7
sg2017
I9
sg2019
I9
sg2016
I4
sg2021
I8
sg2022
I9
sg2023
I8
sg2024
I7
sg2025
I11
sg2026
I4
ssg203
I0
sg204
I0
sg205
I0
sg206
I0
sg207
I0
sg208
I0
sg209
I0
sg94
I0
sg210
I0
sg211
g33
sbsS's11'
p2528
(ijoueur
joueur
p2529
(dp2530
g27
I0
sg28
I0
sg29
I0
sg30
I0
sg71
I0
sg34
I0
sg37
g38
(g39
g40
Ntp2531
Rp2532
(dp2533
g45
g33
sbsg51
(dp2534
g1989
I0
sg1990
I0
sg1991
I0
sg1992
I0
ssg58
(dp2535
g1989
I0
sg1990
I0
sg1991
I0
sg1992
I0
ssg101
I0
sg61
g33
sg62
(dp2536
g2044
I1
sg2045
I1
sg2046
g2047
ssg68
I0
sg72
I0
sg73
I0
sg74
I0
sg139
g2516
sg77
I00
sg121
g38
(g39
g40
Ntp2537
Rp2538
(dp2539
g45
g33
sbsg78
I0
sg85
I00
sg86
(dp2540
g1989
I0
sg1990
I0
sg1991
I0
sg1992
I0
ssg88
(dp2541
g1989
I0
sg1990
I0
sg1991
I0
sg1992
I0
ssg90
I0
sg91
(lp2542
g2055
aI01
aI00
aI00
asg79
(dp2543
g1989
I0
sg1990
I0
sg1991
I0
sg1992
I0
ssg95
g33
sg97
I0
sg98
I0
sg99
I0
sg100
I0
sg75
g1999
sg104
(dp2544
g2022
I0
sg2013
I0
sg2014
I0
sg2015
I0
sg2020
I0
sg2012
I0
sg2018
I0
sg2019
I0
sg2016
I0
sg2021
I0
sg2017
I0
sg2023
I0
sg2024
I0
sg2025
I0
sg2026
I0
ssg147
(dp2545
sg122
I0
sg133
g33
sg134
I0
sg135
I0
sg136
I0
sg137
F8.689655172413794
sg138
I0
sg144
I0
sg145
(dp2546
g1989
I0
sg1990
I0
sg1991
I0
sg1992
I0
ssg185
I0
sg186
g2527
sg203
I0
sg204
I0
sg205
I0
sg206
I0
sg207
I0
sg208
I0
sg209
I0
sg94
I0
sg210
I0
sg211
g33
sbssg185
I0
sg186
g2527
sg203
I0
sg204
I0
sg205
I0
sg206
I0
sg207
I2
sg208
I0
sg210
I0
sg211
g2091
sbsS'n21'
p2547
(ijoueur
joueur
p2548
(dp2549
g27
I0
sg28
F2.0
sg29
I0
sg30
I0
sg31
F39.502908735920435
sg32
g33
sg34
I0
sg35
g33
sg36
I0
sg37
g38
(g39
g40
Ntp2550
Rp2551
(dp2552
g44
I4
sg45
g261
sg47
g262
sbsg49
(dp2553
sg51
(dp2554
g265
I0
sg266
I0
sg267
I5
sg268
I0
ssg57
F8.233333333333333
sg58
(dp2555
g265
I0
sg266
I0
sg267
I0
sg268
I0
ssg270
I10
sg61
g33
sg62
(dp2556
g272
I2
sg273
I11
sg274
g275
ssg68
I0
sg69
F39.502908735920435
sg70
I01
sg71
I3
sg72
I0
sg73
I0
sg74
I0
sg75
g276
sg77
I00
sg78
F9.0
sg79
(dp2557
g278
I0
sg279
I0
sg280
I2
sg281
I0
ssg145
(dp2558
g278
I0
sg279
I0
sg280
I2
sg281
I0
ssg86
(dp2559
g278
I0
sg279
I0
sg280
I0
sg281
I0
ssg88
(dp2560
g265
I0
sg266
I0
sg267
I7
sg268
I5
ssg90
I0
sg91
(lp2561
g286
aI01
aI01
aI01
asg94
I0
sg95
S'Sual'
p2562
sg97
I13
sg98
I0
sg85
I00
sg100
I57
sg101
I3
sg102
I00
sg103
g33
sg99
I21
sg104
(dp2563
g289
I7
sg290
I5
sg291
I10
sg292
I9
sg293
I11
sg294
I9
sg295
I8
sg296
I10
sg297
I6
sg298
I9
sg299
I11
sg300
I9
sg301
I9
sg302
I8
sg303
I7
ssg121
g2551
sg122
I1
sg133
g33
sg134
I0
sg135
I0
sg136
I0
sg137
F9.266666666666667
sg138
I0
sg139
(g307
S'C1'
p2564
S'DO'
p2565
S'AI'
p2566
tp2567
sg144
I0
sg209
I0
sg147
(dp2568
S's13'
p2569
(ijoueur
joueur
p2570
(dp2571
g27
I0
sg28
F5.0
sg29
I0
sg30
I0
sg71
I3
sg34
I0
sg37
g2551
sg51
(dp2572
g316
I0
sg317
I0
sg318
I0
sg319
I0
ssg58
g2555
sg61
g33
sg207
I2
sg62
(dp2573
g321
I1
sg322
I1
sg323
g324
ssg68
I0
sg72
I1
sg73
I0
sg74
I0
sg75
g276
sg77
I00
sg121
g38
(g39
g40
Ntp2574
Rp2575
(dp2576
g44
I3
sg45
S'<<<'
p2577
sg47
g329
sbsg78
F9.0
sg85
I00
sg86
(dp2578
g265
I0
sg266
I0
sg267
I0
sg268
I0
ssg88
g2560
sg90
I0
sg91
(lp2579
g332
aI01
aI01
aI01
asg79
(dp2580
g265
I0
sg266
I0
sg267
I5
sg268
I5
ssg95
g2562
sg97
I13
sg98
I0
sg99
I21
sg100
I21
sg139
g2567
sg104
(dp2581
g335
I0
sg336
I0
sg337
I0
sg338
I0
sg339
I0
sg340
I0
sg341
I0
sg342
I0
sg343
I0
sg344
I0
sg345
I0
sg346
I0
sg347
I0
sg348
I0
sg349
I0
ssg147
(dp2582
sg122
I0
sg133
g33
sg134
I0
sg135
F9.0
sg136
I0
sg137
F8.233333333333333
sg138
I0
sg144
I0
sg145
(dp2583
g265
I0
sg266
I0
sg267
I3
sg268
I0
ssg185
I0
sg186
(dp2584
g353
I10
sg354
I5
sg355
I8
sg356
I9
sg357
I5
sg358
I6
sg359
I7
sg360
I8
sg361
I9
sg362
I8
sg363
I8
sg364
I8
sg365
I6
sg366
I7
sg367
I7
ssg203
I0
sg204
I0
sg205
I0
sg206
I0
sg101
I0
sg208
I0
sg209
I0
sg94
I0
sg210
I0
sg211
g368
sbssg185
I0
sg186
(dp2585
g289
I7
sg290
I5
sg291
I10
sg292
I9
sg297
I6
sg295
I8
sg294
I9
sg296
I10
sg293
I11
sg298
I9
sg299
I11
sg300
I9
sg301
I9
sg302
I8
sg303
I7
ssg203
I0
sg204
I0
sg205
I0
sg206
I0
sg207
I5
sg208
I1
sg210
I0
sg211
g368
sbsS'n20'
p2586
(ijoueur
joueur
p2587
(dp2588
g27
I0
sg28
F4.5
sg29
I1
sg30
I5
sg31
F39.502908735920435
sg32
g33
sg34
I0
sg35
g33
sg36
I0
sg37
g38
(g39
g40
Ntp2589
Rp2590
(dp2591
g44
I4
sg45
S'x'
p2592
sg47
g262
sbsg49
(dp2593
sg51
(dp2594
g265
I0
sg266
I0
sg267
I0
sg268
I0
ssg57
F9.742857142857142
sg58
(dp2595
g265
I0
sg266
I0
sg267
I0
sg268
I0
ssg270
I10
sg61
g33
sg62
(dp2596
g272
I4
sg273
I12
sg274
g275
ssg68
I0
sg69
F39.502908735920435
sg70
I00
sg71
I2
sg72
I0
sg73
I0
sg74
I0
sg75
g276
sg77
I00
sg78
F15.5
sg79
(dp2597
g278
I0
sg279
I0
sg280
I4
sg281
I0
ssg145
(dp2598
g278
I0
sg279
I0
sg280
I0
sg281
I0
ssg86
(dp2599
g278
I0
sg279
I0
sg280
I0
sg281
I0
ssg88
(dp2600
g265
I5
sg266
I2
sg267
I6
sg268
I10
ssg90
I37
sg91
(lp2601
g286
aI01
aI00
aI00
asg94
I0
sg95
S'Klendo'
p2602
sg97
I8
sg98
I3
sg85
I00
sg100
I135
sg101
I3
sg102
I00
sg103
g33
sg99
I21
sg104
(dp2603
g289
I7
sg290
I4
sg291
I8
sg292
I11
sg293
I11
sg294
I8
sg295
I8
sg296
I9
sg297
I7
sg298
I11
sg299
I11
sg300
I7
sg301
I11
sg302
I9
sg303
I4
ssg121
g2590
sg122
I2
sg133
g33
sg134
I0
sg135
I0
sg136
I0
sg137
F9.8
sg138
I2
sg139
(g307
S'DO'
p2604
g33
g33
tp2605
sg144
I0
sg209
I0
sg147
(dp2606
S's13'
p2607
(ijoueur
joueur
p2608
(dp2609
g27
I0
sg28
F4.5
sg29
I0
sg30
I0
sg71
I2
sg34
I0
sg37
g2590
sg51
(dp2610
g316
I0
sg317
I0
sg318
I0
sg319
I0
ssg58
g2595
sg61
g33
sg207
I13
sg62
(dp2611
g321
I1
sg322
I1
sg323
g324
ssg68
I1
sg72
I2
sg73
I2
sg74
I3
sg75
g276
sg77
I00
sg121
g2590
sg78
F15.5
sg85
I00
sg86
(dp2612
g265
I0
sg266
I0
sg267
I0
sg268
I0
ssg88
g2600
sg90
I0
sg91
(lp2613
g332
aI01
aI00
aI00
asg79
(dp2614
g265
I5
sg266
I2
sg267
I2
sg268
I10
ssg95
g2602
sg97
I8
sg98
I0
sg99
I21
sg100
I135
sg139
g2605
sg104
(dp2615
g335
I0
sg336
I0
sg337
I0
sg338
I0
sg339
I0
sg340
I0
sg341
I0
sg342
I0
sg343
I0
sg344
I0
sg345
I0
sg346
I0
sg347
I0
sg348
I0
sg349
I0
ssg147
(dp2616
sg122
I0
sg133
g33
sg134
I0
sg135
F15.5
sg136
I0
sg137
F9.742857142857142
sg138
I0
sg144
I0
sg145
(dp2617
g265
I0
sg266
I0
sg267
I0
sg268
I0
ssg185
I0
sg186
(dp2618
g353
I11
sg354
I4
sg355
I8
sg356
I11
sg357
I7
sg358
I7
sg359
I8
sg360
I9
sg361
I11
sg362
I11
sg363
I8
sg364
I7
sg365
I10
sg366
I9
sg367
I4
ssg203
I0
sg204
I0
sg205
I5
sg206
I2
sg101
I0
sg208
I0
sg209
I0
sg94
I37
sg210
I0
sg211
g368
sbsS's12'
p2619
(ijoueur
joueur
p2620
(dp2621
g27
I0
sg28
I0
sg29
I0
sg30
I0
sg71
I0
sg34
I0
sg37
g38
(g39
g40
Ntp2622
Rp2623
(dp2624
g45
g33
sbsg51
(dp2625
g265
I0
sg266
I0
sg267
I0
sg268
I0
ssg58
(dp2626
g265
I0
sg266
I0
sg267
I0
sg268
I0
ssg61
g33
sg207
I0
sg62
(dp2627
g321
I1
sg322
I1
sg323
g324
ssg68
I0
sg72
I0
sg73
I0
sg74
I0
sg75
g276
sg77
I00
sg121
g38
(g39
g40
Ntp2628
Rp2629
(dp2630
g45
g33
sbsg78
I0
sg85
I00
sg86
(dp2631
g265
I0
sg266
I0
sg267
I0
sg268
I0
ssg88
(dp2632
g265
I0
sg266
I0
sg267
I0
sg268
I0
ssg90
I0
sg91
(lp2633
g332
aI01
aI00
aI00
asg79
(dp2634
g265
I0
sg266
I0
sg267
I0
sg268
I0
ssg95
g33
sg97
I0
sg98
I0
sg99
I0
sg100
I0
sg139
(g307
g2604
g33
g33
tp2635
sg104
(dp2636
g299
I0
sg290
I0
sg291
I0
sg292
I0
sg297
I0
sg289
I0
sg294
I0
sg296
I0
sg293
I0
sg298
I0
sg295
I0
sg300
I0
sg301
I0
sg302
I0
sg303
I0
ssg147
(dp2637
sg122
I0
sg133
g33
sg134
I0
sg135
I0
sg136
I0
sg137
F9.742857142857142
sg138
I0
sg144
I0
sg145
(dp2638
g265
I0
sg266
I0
sg267
I0
sg268
I0
ssg185
I0
sg186
(dp2639
g289
I7
sg290
I4
sg291
I8
sg292
I11
sg297
I7
sg295
I8
sg294
I8
sg296
I9
sg293
I11
sg298
I11
sg299
I11
sg300
I7
sg301
I11
sg302
I9
sg303
I4
ssg203
I0
sg204
I0
sg205
I0
sg206
I0
sg101
I0
sg208
I0
sg209
I0
sg94
I0
sg210
I0
sg211
g33
sbsS's11'
p2640
(ijoueur
joueur
p2641
(dp2642
g27
I0
sg28
I0
sg29
I0
sg30
I0
sg71
I0
sg34
I0
sg37
g38
(g39
g40
Ntp2643
Rp2644
(dp2645
g45
g33
sbsg51
(dp2646
g265
I0
sg266
I0
sg267
I0
sg268
I0
ssg58
(dp2647
g265
I0
sg266
I0
sg267
I0
sg268
I0
ssg61
g33
sg207
I0
sg62
(dp2648
g321
I1
sg322
I1
sg323
g324
ssg68
I0
sg72
I0
sg73
I0
sg74
I0
sg75
g276
sg77
I00
sg121
g38
(g39
g40
Ntp2649
Rp2650
(dp2651
g45
g33
sbsg78
I0
sg85
I00
sg86
(dp2652
g265
I0
sg266
I0
sg267
I0
sg268
I0
ssg88
(dp2653
g265
I0
sg266
I0
sg267
I0
sg268
I0
ssg90
I0
sg91
(lp2654
g332
aI01
aI00
aI00
asg79
(dp2655
g265
I0
sg266
I0
sg267
I0
sg268
I0
ssg95
g33
sg97
I0
sg98
I0
sg99
I0
sg100
I0
sg139
g2635
sg104
(dp2656
g299
I0
sg290
I0
sg291
I0
sg292
I0
sg297
I0
sg289
I0
sg294
I0
sg296
I0
sg293
I0
sg298
I0
sg295
I0
sg300
I0
sg301
I0
sg302
I0
sg303
I0
ssg147
(dp2657
sg122
I0
sg133
g33
sg134
I0
sg135
I0
sg136
I0
sg137
F9.742857142857142
sg138
I0
sg144
I0
sg145
(dp2658
g265
I0
sg266
I0
sg267
I0
sg268
I0
ssg185
I0
sg186
g2639
sg203
I0
sg204
I0
sg205
I0
sg206
I0
sg101
I0
sg208
I0
sg209
I0
sg94
I0
sg210
I0
sg211
g33
sbssg185
I2
sg186
g2639
sg203
I0
sg204
I2
sg205
I0
sg206
I0
sg207
I13
sg208
I2
sg210
I0
sg211
g368
sbsS'n8'
p2659
g626
sS'n9'
p2660
(ijoueur
joueur
p2661
(dp2662
g628
F9.758620689655173
sg27
I0
sg629
F9.448275862068966
sg28
F4.0
sg133
g33
sg30
I0
sg31
F39.502908735920435
sg32
g33
sg34
I0
sg35
g33
sg36
I1
sg37
g38
(g39
g40
Ntp2663
Rp2664
(dp2665
g44
I4
sg45
S'x'
p2666
sg47
S'heros'
p2667
sbsg49
(dp2668
sg51
(dp2669
S'SR'
p2670
I0
sS'CT'
p2671
I0
sS'CR'
p2672
I0
sS'ST'
p2673
I0
ssg57
F9.241379310344827
sg641
I0
sg60
I1
sg61
S'vide 13'
p2674
sg62
(dp2675
g272
I4
sg273
I4
sg274
g275
ssg68
I0
sg69
F39.502908735920435
sg70
I00
sg71
I1
sg72
I0
sg73
I0
sg74
I0
sg101
I2
sg77
I00
sg78
F12.0
sg79
(dp2676
g278
I0
sg279
I4
sg280
I0
sg281
I0
ssg85
I00
sg86
(dp2677
g278
I0
sg279
I0
sg280
I0
sg281
I0
ssg88
(dp2678
g2670
I0
sg2671
I15
sg2672
I0
sg2673
I11
ssg90
I4
sg91
(lp2679
g286
aI01
aI00
aI00
asg94
I0
sg95
S'Fredirico'
p2680
sg97
I5
sg98
I1
sg99
I13
sg100
I150
sg75
g276
sg102
I00
sg103
g33
sg104
(dp2681
S'RP1'
p2682
I7
sS'ME'
p2683
I5
sS'RP2'
p2684
I7
sS'E'
p2685
I9
sS'TO'
p2686
I8
sS'M'
p2687
I5
sS'JP'
p2688
I9
sS'RP_tot'
p2689
I8
sS'P'
p2690
I9
sS'PA'
p2691
I13
sS'A'
p2692
I11
sS'R'
p2693
I7
sS'TB'
p2694
I9
sS'PL'
p2695
I8
sS'TA'
p2696
I6
ssg186
(dp2697
g2682
I7
sg2683
I5
sg2684
I7
sg2685
I9
sg2690
I9
sg2688
I9
sg2687
I5
sg2689
I8
sg2686
I8
sg2691
I13
sg2692
I11
sg2693
I7
sg2694
I9
sg2695
I8
sg2696
I6
ssg121
g2664
sg122
g123
(g127
S'\x07\x00\x00\x00'
p2698
tp2699
Rp2700
sg29
I0
sg134
I0
sg135
I0
sg136
I0
sg137
F9.344827586206897
sg138
I1
sg139
(S'dummy'
p2701
S'DM'
p2702
g33
g33
tp2703
sg58
(dp2704
g2670
I0
sg2671
I0
sg2672
I0
sg2673
I0
ssg144
I1
sg145
(dp2705
g278
I0
sg279
I0
sg280
I0
sg281
I0
ssg147
(dp2706
S's13'
p2707
(ijoueur
joueur
p2708
(dp2709
g27
I0
sg28
F4.0
sg29
I0
sg30
I0
sg71
I1
sg34
I0
sg37
g2664
sg51
(dp2710
g316
I0
sg317
I0
sg318
I0
sg319
I0
ssg58
g2704
sg61
g2674
sg207
I14
sg62
(dp2711
g321
I1
sg322
I1
sg323
g324
ssg68
I0
sg72
I0
sg73
I1
sg74
I1
sg75
g276
sg77
I00
sg121
g2664
sg78
F12.0
sg85
I00
sg86
(dp2712
g686
I0
sg687
I0
sg688
I0
sg689
I0
ssg88
g2678
sg90
I0
sg91
(lp2713
g332
aI01
aI00
aI00
asg79
(dp2714
g686
I0
sg687
I1
sg688
I0
sg689
I11
ssg95
g2680
sg97
I5
sg98
I0
sg99
I13
sg100
I150
sg139
g2703
sg104
(dp2715
g335
I0
sg336
I0
sg337
I0
sg338
I0
sg339
I0
sg340
I0
sg341
I0
sg342
I0
sg343
I0
sg344
I0
sg345
I0
sg346
I0
sg347
I0
sg348
I0
sg349
I0
ssg147
(dp2716
sg122
I0
sg133
g33
sg134
I0
sg135
F12.0
sg136
I0
sg137
F9.241379310344827
sg138
I0
sg144
I0
sg145
(dp2717
g686
I0
sg687
I0
sg688
I0
sg689
I0
ssg185
I0
sg186
(dp2718
g353
I11
sg354
I5
sg355
I7
sg356
I9
sg357
I8
sg358
I7
sg359
I8
sg360
I8
sg361
I9
sg362
I13
sg363
I5
sg364
I7
sg365
I9
sg366
I8
sg367
I6
ssg203
I0
sg204
I0
sg205
I0
sg206
I3
sg101
I0
sg208
I0
sg209
I0
sg94
I4
sg210
I0
sg211
S'EST'
p2719
sbsg697
(ijoueur
joueur
p2720
(dp2721
g628
F9.758620689655173
sg27
I0
sg28
F0.0
sg133
g33
sg30
I0
sg71
I1
sg32
g33
sg34
I0
sg35
g33
sg37
g38
(g39
g40
Ntp2722
Rp2723
(dp2724
g44
I4
sg45
S'x'
p2725
sg47
S'heros'
p2726
sbsg51
(dp2727
S'SR'
p2728
I0
sS'CT'
p2729
I0
sS'CR'
p2730
I0
sS'ST'
p2731
I0
ssg58
(dp2732
g2728
I0
sg2729
I0
sg2730
I0
sg2731
I0
ssg61
g33
sg62
(dp2733
g321
I1
sg322
I1
sg323
g324
ssg68
I0
sg72
I0
sg73
I0
sg74
I0
sg75
g1048
sg77
I00
sg78
F7.0
sg79
(dp2734
g1050
I0
sg1051
I7
sg1052
I0
sg1053
I0
ssg85
I00
sg86
(dp2735
g1050
I0
sg1051
I0
sg1052
I0
sg1053
I0
ssg88
(dp2736
g2728
I0
sg2729
I0
sg2730
I0
sg2731
I10
ssg90
I0
sg91
(lp2737
g332
aI01
aI00
aI00
asg94
I0
sg95
S'Fredirico'
p2738
sg97
I5
sg98
I0
sg99
I13
sg100
I150
sg101
I0
sg103
g33
sg104
(dp2739
S'RP1'
p2740
I7
sS'ME'
p2741
I5
sS'RP2'
p2742
I7
sS'E'
p2743
I9
sS'P'
p2744
I9
sS'JP'
p2745
I9
sS'M'
p2746
I7
sS'RP_tot'
p2747
I7
sS'TO'
p2748
I8
sS'PA'
p2749
I13
sS'A'
p2750
I11
sS'R'
p2751
I7
sS'TB'
p2752
I9
sS'PL'
p2753
I8
sS'TA'
p2754
I6
ssg121
g2723
sg122
I9
sg29
I0
sg134
I0
sg135
F7.0
sg136
I0
sg137
F9.448275862068966
sg138
I0
sg139
(S'dummy'
p2755
S'DM'
p2756
g33
g33
tp2757
sg144
I0
sg145
(dp2758
g1050
I0
sg1051
I0
sg1052
I0
sg1053
I0
ssg147
(dp2759
g1080
(ijoueur
joueur
p2760
(dp2761
g27
I0
sg30
I0
sg32
g33
sg34
I0
sg35
g33
sg37
g38
(g39
g40
Ntp2762
Rp2763
(dp2764
g44
I4
sg45
S'x'
p2765
sg47
S'heros'
p2766
sbsg51
(dp2767
S'SR'
p2768
I0
sS'ST'
p2769
I0
sS'CR'
p2770
I0
sS'CT'
p2771
I0
ssg58
(dp2772
g2768
I0
sg2769
I0
sg2770
I0
sg2771
I0
ssg61
g33
sg68
I0
sg85
I00
sg72
I0
sg73
I0
sg74
I0
sg75
S'vide'
p2773
sg77
I00
sg121
g2763
sg79
(dp2774
g2768
I0
sg2769
I3
sg2770
I0
sg2771
I0
ssg145
(dp2775
g2768
I0
sg2769
I0
sg2770
I0
sg2771
I0
ssg86
(dp2776
g2768
I0
sg2769
I0
sg2770
I0
sg2771
I0
ssg88
(dp2777
g2768
I0
sg2769
I3
sg2770
I0
sg2771
I0
ssg90
I0
sg94
I0
sg95
S'Fredirico'
p2778
sg97
I5
sg98
I0
sg99
I13
sg100
I150
sg139
(S'dummy'
p2779
S'DM'
p2780
g33
g33
tp2781
sg103
g33
sg104
(dp2782
S'RP1'
p2783
I7
sS'ME'
p2784
I5
sS'RP2'
p2785
I8
sS'E'
p2786
I9
sS'TO'
p2787
I8
sS'M'
p2788
I7
sS'JP'
p2789
I9
sS'RP_tot'
p2790
I8
sS'P'
p2791
I10
sS'PA'
p2792
I13
sS'A'
p2793
I11
sS'R'
p2794
I7
sS'TB'
p2795
I8
sS'PL'
p2796
I9
sS'TA'
p2797
I6
ssg122
I0
sg29
I0
sg134
I0
sg136
I0
sg137
F9.758620689655173
sg138
I0
sg209
I0
sg185
I0
sg792
(dp2798
S'RP1'
p2799
I7
sS'ME'
p2800
I5
sS'RP2'
p2801
I8
sS'E'
p2802
I9
sS'TO'
p2803
I8
sS'M'
p2804
I7
sS'JP'
p2805
I9
sS'RP_tot'
p2806
I8
sS'P'
p2807
I10
sS'PA'
p2808
I13
sS'A'
p2809
I11
sS'R'
p2810
I7
sS'TB'
p2811
I8
sS'PL'
p2812
I9
sS'TA'
p2813
I6
ssg186
g2782
sg203
I0
sg204
I0
sg205
I0
sg206
I0
sg207
I14
sg208
I0
sg210
I0
sg211
S'EST'
p2814
sbssg185
I0
sg792
(dp2815
g2740
I7
sg2741
I5
sg2742
I8
sg2743
I9
sg2748
I8
sg2746
I7
sg2745
I9
sg2747
I8
sg2744
I10
sg2749
I13
sg2750
I11
sg2751
I7
sg2752
I8
sg2753
I9
sg2754
I6
ssg186
g2739
sg203
I0
sg204
I0
sg205
I0
sg206
I0
sg207
I14
sg208
I0
sg209
I0
sg210
I0
sg211
S'EST'
p2816
sbsg812
(ijoueur
joueur
p2817
(dp2818
g27
I0
sg28
F3.0
sg30
I0
sg71
I0
sg32
g33
sg34
I0
sg35
g33
sg37
g38
(g39
g40
Ntp2819
Rp2820
(dp2821
g44
I4
sg45
S'x'
p2822
sg47
S'heros'
p2823
sbsg51
(dp2824
S'SR'
p2825
I0
sS'ST'
p2826
I0
sS'CR'
p2827
I0
sS'CT'
p2828
I0
ssg58
(dp2829
g2825
I0
sg2826
I0
sg2827
I0
sg2828
I0
ssg61
g33
sg62
(dp2830
g321
I1
sg322
I1
sg323
g324
ssg68
I0
sg85
I00
sg72
I0
sg73
I0
sg74
I0
sg75
S'vide'
p2831
sg77
I00
sg78
F3.0
sg79
(dp2832
g2825
I0
sg2826
I3
sg2827
I0
sg2828
I0
ssg145
(dp2833
g2825
I0
sg2826
I0
sg2827
I0
sg2828
I0
ssg86
(dp2834
g2825
I0
sg2826
I0
sg2827
I0
sg2828
I0
ssg88
(dp2835
g2825
I0
sg2826
I3
sg2827
I0
sg2828
I0
ssg90
I0
sg91
(lp2836
g332
aI01
aI00
aI00
asg94
I0
sg95
S'Fredirico'
p2837
sg97
I5
sg98
I0
sg99
I13
sg100
I150
sg101
I0
sg103
g33
sg104
(dp2838
S'RP1'
p2839
I7
sS'ME'
p2840
I5
sS'RP2'
p2841
I8
sS'E'
p2842
I9
sS'TO'
p2843
I8
sS'M'
p2844
I7
sS'JP'
p2845
I9
sS'RP_tot'
p2846
I8
sS'P'
p2847
I10
sS'PA'
p2848
I13
sS'A'
p2849
I11
sS'R'
p2850
I7
sS'TB'
p2851
I8
sS'PL'
p2852
I9
sS'TA'
p2853
I6
ssg121
g2820
sg122
I0
sg29
I0
sg134
I0
sg135
F3.0
sg136
I0
sg137
F9.758620689655173
sg138
I0
sg139
(S'dummy'
p2854
S'DM'
p2855
g33
g33
tp2856
sg144
I0
sg209
I0
sg185
I0
sg792
(dp2857
S'RP1'
p2858
I7
sS'ME'
p2859
I5
sS'RP2'
p2860
I8
sS'E'
p2861
I9
sS'TO'
p2862
I8
sS'M'
p2863
I7
sS'JP'
p2864
I9
sS'RP_tot'
p2865
I8
sS'P'
p2866
I10
sS'PA'
p2867
I13
sS'A'
p2868
I11
sS'R'
p2869
I7
sS'TB'
p2870
I8
sS'PL'
p2871
I9
sS'TA'
p2872
I6
ssg186
g2838
sg203
I0
sg204
I0
sg205
I0
sg206
I0
sg207
I14
sg208
I0
sg210
I0
sg211
S'EST'
p2873
sbssg185
I0
sg792
(dp2874
g2682
I7
sg2683
I5
sg2684
I8
sg2685
I9
sg2686
I8
sg2687
I7
sg2688
I9
sg2689
I8
sg2690
I10
sg2691
I13
sg2692
I11
sg2693
I7
sg2694
I8
sg2695
I9
sg2696
I6
ssg203
I0
sg876
(dp2875
sg204
I3
sg205
I0
sg206
I0
sg207
I14
sg208
I0
sg209
I0
sg210
I0
sg211
g2719
sbsS'n1'
p2876
(ijoueur
joueur
p2877
(dp2878
g27
I1
sg28
F4.0
sg29
I0
sg30
I0
sg31
F39.502908735920435
sg32
g33
sg34
I0
sg35
g33
sg36
I0
sg37
g38
(g39
g40
Ntp2879
Rp2880
(dp2881
g44
I2
sg45
S'^^'
p2882
sg47
S'special'
p2883
sbsg49
(dp2884
sg51
(dp2885
g265
I0
sg266
I0
sg267
I0
sg268
I0
ssg57
F8.703703703703704
sg58
(dp2886
g265
I0
sg266
I0
sg267
I0
sg268
I0
ssg270
I10
sg61
g33
sg62
(dp2887
g272
I1
sg273
I9
sg274
g402
ssg68
I0
sg69
F39.502908735920435
sg70
I01
sg71
I3
sg72
I1
sg73
I0
sg74
I0
sg75
g276
sg77
I00
sg78
F11.0
sg79
(dp2888
g278
I0
sg279
I4
sg280
I0
sg281
I0
ssg145
(dp2889
g278
I0
sg279
I0
sg280
I0
sg281
I0
ssg86
(dp2890
g278
I0
sg279
I0
sg280
I0
sg281
I0
ssg88
(dp2891
g265
I0
sg266
I0
sg267
I2
sg268
I14
ssg90
I0
sg91
(lp2892
g286
aI01
aI00
aI00
asg94
I0
sg95
S'Tryrhg'
p2893
sg97
I13
sg98
I0
sg85
I00
sg100
I12
sg101
I3
sg102
I00
sg103
g33
sg99
I24
sg104
(dp2894
g289
I9
sg290
I11
sg291
I9
sg292
I9
sg293
I6
sg294
I4
sg295
I10
sg296
I11
sg297
I7
sg298
I8
sg299
I6
sg300
I10
sg301
I4
sg302
I9
sg303
I7
ssg121
g2880
sg122
g123
(g127
S'\x07\x00\x00\x00'
p2895
tp2896
Rp2897
sg133
g33
sg134
I0
sg135
I0
sg136
I0
sg137
F9.666666666666666
sg138
I0
sg139
(g307
S'PI'
p2898
g33
g33
tp2899
sg144
I6
sg209
I0
sg147
(dp2900
S's13'
p2901
(ijoueur
joueur
p2902
(dp2903
g27
I0
sg28
F1.0
sg29
I0
sg30
I0
sg71
I4
sg34
I0
sg37
g2880
sg51
(dp2904
g316
I0
sg317
I0
sg318
I0
sg319
I0
ssg58
g2886
sg61
g33
sg207
I1
sg62
(dp2905
g321
I1
sg322
I1
sg323
g324
ssg68
I0
sg72
I0
sg73
I0
sg74
I0
sg75
g276
sg77
I00
sg121
g38
(g39
g40
Ntp2906
Rp2907
(dp2908
g44
I1
sg45
S'^'
p2909
sg47
S'base'
p2910
sbsg78
F11.0
sg85
I00
sg86
(dp2911
g265
I0
sg266
I0
sg267
I0
sg268
I0
ssg88
g2891
sg90
I0
sg91
(lp2912
g332
aI01
aI00
aI00
asg79
(dp2913
g265
I0
sg266
I0
sg267
I2
sg268
I10
ssg95
g2893
sg97
I13
sg98
I0
sg99
I24
sg100
I10
sg139
g2899
sg104
(dp2914
g335
I0
sg336
I0
sg337
I0
sg338
I0
sg339
I0
sg340
I0
sg341
I0
sg342
I0
sg343
I0
sg344
I0
sg345
I0
sg346
I0
sg347
I0
sg348
I0
sg349
I0
ssg147
(dp2915
sg122
I0
sg133
g33
sg134
I0
sg135
F11.0
sg136
I0
sg137
F8.703703703703704
sg138
I0
sg144
I0
sg145
(dp2916
g265
I0
sg266
I0
sg267
I0
sg268
I0
ssg185
I0
sg186
(dp2917
g353
I6
sg354
I9
sg355
I8
sg356
I9
sg357
I7
sg358
I8
sg359
I4
sg360
I10
sg361
I6
sg362
I8
sg363
I8
sg364
I9
sg365
I4
sg366
I8
sg367
I6
ssg203
I0
sg204
I0
sg205
I0
sg206
I0
sg101
I0
sg208
I0
sg209
I0
sg94
I0
sg210
I0
sg211
S'HB'
p2918
sbssg185
I0
sg186
(dp2919
g289
I9
sg290
I11
sg291
I9
sg292
I9
sg297
I7
sg295
I10
sg294
I4
sg296
I11
sg293
I6
sg298
I8
sg299
I6
sg300
I10
sg301
I4
sg302
I9
sg303
I7
ssg203
I0
sg204
I0
sg205
I0
sg206
I0
sg207
I1
sg208
I1
sg210
I0
sg211
g2918
sbsS'n2'
p2920
(ijoueur
joueur
p2921
(dp2922
g27
I0
sg28
F5.5
sg29
I0
sg30
I0
sg31
F39.502908735920435
sg32
g33
sg34
I0
sg35
g33
sg36
I0
sg37
g38
(g39
g40
Ntp2923
Rp2924
(dp2925
g44
I4
sg45
g2592
sg47
g262
sbsg49
(dp2926
sg51
(dp2927
g265
I0
sg266
I0
sg267
I0
sg268
I0
ssg57
F9.068965517241379
sg58
(dp2928
g265
I0
sg266
I0
sg267
I0
sg268
I0
ssg270
I10
sg61
g33
sg62
(dp2929
g272
I1
sg273
I6
sg274
g402
ssg68
I0
sg69
F39.502908735920435
sg70
I00
sg71
I1
sg72
I0
sg73
I0
sg74
I0
sg75
g276
sg77
I00
sg78
F11.5
sg79
(dp2930
g278
I0
sg279
I4
sg280
I0
sg281
I0
ssg145
(dp2931
g278
I0
sg279
I0
sg280
I0
sg281
I0
ssg86
(dp2932
g278
I0
sg279
I0
sg280
I0
sg281
I0
ssg88
(dp2933
g265
I7
sg266
I0
sg267
I0
sg268
I12
ssg90
I0
sg91
(lp2934
g286
aI01
aI00
aI00
asg94
I0
sg95
S'Crastino'
p2935
sg97
I7
sg98
I0
sg85
I00
sg100
I180
sg101
I2
sg102
I00
sg103
g33
sg99
I15
sg104
(dp2936
g289
I11
sg290
I9
sg291
I9
sg292
I8
sg293
I6
sg294
I4
sg295
I8
sg296
I12
sg297
I6
sg298
I9
sg299
I9
sg300
I9
sg301
I2
sg302
I10
sg303
I10
ssg121
g2924
sg122
g123
(g127
S'\x07\x00\x00\x00'
p2937
tp2938
Rp2939
sg133
g33
sg134
I1
sg135
I0
sg136
I0
sg137
F9.517241379310345
sg138
I0
sg139
(g307
g303
g33
g33
tp2940
sg144
I4
sg209
I0
sg147
(dp2941
S's13'
p2942
(ijoueur
joueur
p2943
(dp2944
g27
I0
sg28
F5.5
sg29
I0
sg30
I0
sg71
I1
sg34
I0
sg37
g2924
sg51
(dp2945
g316
I0
sg317
I0
sg318
I0
sg319
I0
ssg58
g2928
sg61
g33
sg207
I18
sg62
(dp2946
g321
I1
sg322
I1
sg323
g324
ssg68
I0
sg72
I1
sg73
I0
sg74
I0
sg75
g276
sg77
I00
sg121
g2924
sg78
F11.5
sg85
I00
sg86
(dp2947
g265
I0
sg266
I0
sg267
I0
sg268
I0
ssg88
g2933
sg90
I0
sg91
(lp2948
g332
aI01
aI00
aI00
asg79
(dp2949
g265
I7
sg266
I0
sg267
I0
sg268
I8
ssg95
g2935
sg97
I7
sg98
I0
sg99
I15
sg100
I180
sg139
g2940
sg104
(dp2950
g335
I0
sg336
I0
sg337
I0
sg338
I0
sg339
I0
sg340
I0
sg341
I0
sg342
I0
sg343
I0
sg344
I0
sg345
I0
sg346
I0
sg347
I0
sg348
I0
sg349
I0
ssg147
(dp2951
sg122
I0
sg133
g33
sg134
I0
sg135
F11.5
sg136
I0
sg137
F9.068965517241379
sg138
I0
sg144
I0
sg145
(dp2952
g265
I0
sg266
I0
sg267
I0
sg268
I0
ssg185
I0
sg186
(dp2953
g353
I9
sg354
I8
sg355
I8
sg356
I8
sg357
I6
sg358
I10
sg359
I4
sg360
I11
sg361
I6
sg362
I9
sg363
I8
sg364
I8
sg365
I2
sg366
I10
sg367
I10
ssg203
I0
sg204
I0
sg205
I0
sg206
I0
sg101
I0
sg208
I0
sg209
I0
sg94
I0
sg210
I0
sg211
g368
sbsS's12'
p2954
(ijoueur
joueur
p2955
(dp2956
g27
I0
sg28
I0
sg29
I0
sg30
I0
sg71
I0
sg34
I0
sg37
g38
(g39
g40
Ntp2957
Rp2958
(dp2959
g45
g33
sbsg51
(dp2960
g265
I0
sg266
I0
sg267
I0
sg268
I0
ssg58
(dp2961
g265
I0
sg266
I0
sg267
I0
sg268
I0
ssg61
g33
sg207
I0
sg62
(dp2962
g321
I1
sg322
I1
sg323
g324
ssg68
I0
sg72
I0
sg73
I0
sg74
I0
sg75
g276
sg77
I00
sg121
g38
(g39
g40
Ntp2963
Rp2964
(dp2965
g45
g33
sbsg78
I0
sg85
I00
sg86
(dp2966
g265
I0
sg266
I0
sg267
I0
sg268
I0
ssg88
(dp2967
g265
I0
sg266
I0
sg267
I0
sg268
I0
ssg90
I0
sg91
(lp2968
g332
aI01
aI00
aI00
asg79
(dp2969
g265
I0
sg266
I0
sg267
I0
sg268
I0
ssg95
g33
sg97
I0
sg98
I0
sg99
I0
sg100
I0
sg139
(g307
g303
g33
g33
tp2970
sg104
(dp2971
g299
I0
sg290
I0
sg291
I0
sg292
I0
sg297
I0
sg289
I0
sg294
I0
sg296
I0
sg293
I0
sg298
I0
sg295
I0
sg300
I0
sg301
I0
sg302
I0
sg303
I0
ssg147
(dp2972
sg122
I0
sg133
g33
sg134
I0
sg135
I0
sg136
I0
sg137
F9.068965517241379
sg138
I0
sg144
I0
sg145
(dp2973
g265
I0
sg266
I0
sg267
I0
sg268
I0
ssg185
I0
sg186
(dp2974
g289
I11
sg290
I9
sg291
I9
sg292
I8
sg297
I6
sg295
I8
sg294
I4
sg296
I12
sg293
I6
sg298
I9
sg299
I9
sg300
I9
sg301
I2
sg302
I10
sg303
I10
ssg203
I0
sg204
I0
sg205
I0
sg206
I0
sg101
I0
sg208
I0
sg209
I0
sg94
I0
sg210
I0
sg211
g33
sbsS's11'
p2975
(ijoueur
joueur
p2976
(dp2977
g27
I0
sg28
I0
sg29
I0
sg30
I0
sg71
I0
sg34
I0
sg37
g38
(g39
g40
Ntp2978
Rp2979
(dp2980
g45
g33
sbsg51
(dp2981
g265
I0
sg266
I0
sg267
I0
sg268
I0
ssg58
(dp2982
g265
I0
sg266
I0
sg267
I0
sg268
I0
ssg61
g33
sg207
I0
sg62
(dp2983
g321
I1
sg322
I1
sg323
g324
ssg68
I0
sg72
I0
sg73
I0
sg74
I0
sg75
g276
sg77
I00
sg121
g38
(g39
g40
Ntp2984
Rp2985
(dp2986
g45
g33
sbsg78
I0
sg85
I00
sg86
(dp2987
g265
I0
sg266
I0
sg267
I0
sg268
I0
ssg88
(dp2988
g265
I0
sg266
I0
sg267
I0
sg268
I0
ssg90
I0
sg91
(lp2989
g332
aI01
aI00
aI00
asg79
(dp2990
g265
I0
sg266
I0
sg267
I0
sg268
I0
ssg95
g33
sg97
I0
sg98
I0
sg99
I0
sg100
I0
sg139
g2970
sg104
(dp2991
g299
I0
sg290
I0
sg291
I0
sg292
I0
sg297
I0
sg289
I0
sg294
I0
sg296
I0
sg293
I0
sg298
I0
sg295
I0
sg300
I0
sg301
I0
sg302
I0
sg303
I0
ssg147
(dp2992
sg122
I0
sg133
g33
sg134
I0
sg135
I0
sg136
I0
sg137
F9.068965517241379
sg138
I0
sg144
I0
sg145
(dp2993
g265
I0
sg266
I0
sg267
I0
sg268
I0
ssg185
I0
sg186
g2974
sg203
I0
sg204
I0
sg205
I0
sg206
I0
sg101
I0
sg208
I0
sg209
I0
sg94
I0
sg210
I0
sg211
g33
sbssg185
I0
sg186
g2974
sg203
I0
sg204
I0
sg205
I0
sg206
I0
sg207
I18
sg208
I1
sg210
I0
sg211
g368
sbsS'n3'
p2994
(ijoueur
joueur
p2995
(dp2996
g27
I0
sg28
F4.5
sg29
I0
sg30
I0
sg31
F39.502908735920435
sg32
g33
sg34
I0
sg35
g33
sg36
I0
sg37
g38
(g39
g40
Ntp2997
Rp2998
(dp2999
g44
I4
sg45
g261
sg47
g262
sbsg49
(dp3000
sg51
(dp3001
g265
I0
sg266
I0
sg267
I0
sg268
I0
ssg57
F9.37037037037037
sg58
(dp3002
g265
I0
sg266
I0
sg267
I0
sg268
I0
ssg270
I10
sg61
g33
sg62
(dp3003
g272
Nsg273
I14
sg274
g402
ssg68
I0
sg69
F39.502908735920435
sg70
I00
sg71
I2
sg72
I0
sg73
I0
sg74
I0
sg75
g276
sg77
I00
sg78
F19.5
sg79
(dp3004
g278
I0
sg279
I4
sg280
I0
sg281
I0
ssg145
(dp3005
g278
I0
sg279
I0
sg280
I0
sg281
I0
ssg86
(dp3006
g278
I0
sg279
I0
sg280
I0
sg281
I0
ssg88
(dp3007
g265
I0
sg266
I7
sg267
I1
sg268
I16
ssg90
I0
sg91
(lp3008
g286
aI01
aI00
aI00
asg94
I0
sg95
S'Zaloel'
p3009
sg97
I6
sg98
I0
sg85
I00
sg100
I65
sg101
I4
sg102
I00
sg103
g33
sg99
I15
sg104
(dp3010
g289
I10
sg290
I11
sg291
I9
sg292
I12
sg293
I7
sg294
I4
sg295
I8
sg296
I11
sg297
I8
sg298
I8
sg299
I9
sg300
I8
sg301
I6
sg302
I11
sg303
I7
ssg121
g2998
sg122
g123
(g127
S'\x08\x00\x00\x00'
p3011
tp3012
Rp3013
sg133
g33
sg134
I0
sg135
I0
sg136
I0
sg137
F10.555555555555555
sg138
I0
sg139
(g307
g2898
g33
g33
tp3014
sg144
I9
sg209
I0
sg147
(dp3015
S's13'
p3016
(ijoueur
joueur
p3017
(dp3018
g27
I0
sg28
F4.5
sg29
I0
sg30
I0
sg71
I2
sg34
I0
sg37
g2998
sg51
(dp3019
g316
I0
sg317
I0
sg318
I0
sg319
I0
ssg58
g3002
sg61
g33
sg207
I6
sg62
(dp3020
g321
I1
sg322
I1
sg323
g324
ssg68
I0
sg72
I2
sg73
I0
sg74
I0
sg75
g276
sg77
I00
sg121
g2998
sg78
F19.5
sg85
I00
sg86
(dp3021
g265
I0
sg266
I0
sg267
I0
sg268
I0
ssg88
g3007
sg90
I0
sg91
(lp3022
g332
aI01
aI00
aI00
asg79
(dp3023
g265
I0
sg266
I7
sg267
I1
sg268
I12
ssg95
g3009
sg97
I6
sg98
I0
sg99
I15
sg100
I65
sg139
g3014
sg104
(dp3024
g335
I0
sg336
I0
sg337
I0
sg338
I0
sg339
I0
sg340
I0
sg341
I0
sg342
I0
sg343
I0
sg344
I0
sg345
I0
sg346
I0
sg347
I0
sg348
I0
sg349
I0
ssg147
(dp3025
sg122
I0
sg133
g33
sg134
I0
sg135
F19.5
sg136
I0
sg137
F9.37037037037037
sg138
I0
sg144
I0
sg145
(dp3026
g265
I0
sg266
I0
sg267
I0
sg268
I0
ssg185
I0
sg186
(dp3027
g353
I9
sg354
I9
sg355
I8
sg356
I10
sg357
I8
sg358
I9
sg359
I4
sg360
I10
sg361
I7
sg362
I8
sg363
I8
sg364
I9
sg365
I6
sg366
I10
sg367
I7
ssg203
I0
sg204
I0
sg205
I0
sg206
I0
sg101
I0
sg208
I0
sg209
I0
sg94
I0
sg210
I0
sg211
g368
sbsS's12'
p3028
(ijoueur
joueur
p3029
(dp3030
g27
I0
sg28
I0
sg29
I0
sg30
I0
sg71
I0
sg34
I0
sg37
g38
(g39
g40
Ntp3031
Rp3032
(dp3033
g45
g33
sbsg51
(dp3034
g265
I0
sg266
I0
sg267
I0
sg268
I0
ssg58
(dp3035
g265
I0
sg266
I0
sg267
I0
sg268
I0
ssg61
g33
sg207
I0
sg62
(dp3036
g321
I1
sg322
I1
sg323
g324
ssg68
I0
sg72
I0
sg73
I0
sg74
I0
sg75
g276
sg77
I00
sg121
g38
(g39
g40
Ntp3037
Rp3038
(dp3039
g45
g33
sbsg78
I0
sg85
I00
sg86
(dp3040
g265
I0
sg266
I0
sg267
I0
sg268
I0
ssg88
(dp3041
g265
I0
sg266
I0
sg267
I0
sg268
I0
ssg90
I0
sg91
(lp3042
g332
aI01
aI00
aI00
asg79
(dp3043
g265
I0
sg266
I0
sg267
I0
sg268
I0
ssg95
g33
sg97
I0
sg98
I0
sg99
I0
sg100
I0
sg139
(g307
g2898
g33
g33
tp3044
sg104
(dp3045
g299
I0
sg290
I0
sg291
I0
sg292
I0
sg297
I0
sg289
I0
sg294
I0
sg296
I0
sg293
I0
sg298
I0
sg295
I0
sg300
I0
sg301
I0
sg302
I0
sg303
I0
ssg147
(dp3046
sg122
I0
sg133
g33
sg134
I0
sg135
I0
sg136
I0
sg137
F9.37037037037037
sg138
I0
sg144
I0
sg145
(dp3047
g265
I0
sg266
I0
sg267
I0
sg268
I0
ssg185
I0
sg186
(dp3048
g289
I10
sg290
I11
sg291
I9
sg292
I12
sg297
I8
sg295
I8
sg294
I4
sg296
I11
sg293
I7
sg298
I8
sg299
I10
sg300
I9
sg301
I6
sg302
I12
sg303
I7
ssg203
I0
sg204
I0
sg205
I0
sg206
I0
sg101
I0
sg208
I0
sg209
I0
sg94
I0
sg210
I0
sg211
g33
sbsS's11'
p3049
(ijoueur
joueur
p3050
(dp3051
g27
I0
sg28
I0
sg29
I0
sg30
I0
sg71
I0
sg34
I0
sg37
g38
(g39
g40
Ntp3052
Rp3053
(dp3054
g45
g33
sbsg51
(dp3055
g265
I0
sg266
I0
sg267
I0
sg268
I0
ssg58
(dp3056
g265
I0
sg266
I0
sg267
I0
sg268
I0
ssg61
g33
sg207
I0
sg62
(dp3057
g321
I1
sg322
I1
sg323
g324
ssg68
I0
sg72
I0
sg73
I0
sg74
I0
sg75
g276
sg77
I00
sg121
g38
(g39
g40
Ntp3058
Rp3059
(dp3060
g45
g33
sbsg78
I0
sg85
I00
sg86
(dp3061
g265
I0
sg266
I0
sg267
I0
sg268
I0
ssg88
(dp3062
g265
I0
sg266
I0
sg267
I0
sg268
I0
ssg90
I0
sg91
(lp3063
g332
aI01
aI00
aI00
asg79
(dp3064
g265
I0
sg266
I0
sg267
I0
sg268
I0
ssg95
g33
sg97
I0
sg98
I0
sg99
I0
sg100
I0
sg139
g3044
sg104
(dp3065
g299
I0
sg290
I0
sg291
I0
sg292
I0
sg297
I0
sg289
I0
sg294
I0
sg296
I0
sg293
I0
sg298
I0
sg295
I0
sg300
I0
sg301
I0
sg302
I0
sg303
I0
ssg147
(dp3066
sg122
I0
sg133
g33
sg134
I0
sg135
I0
sg136
I0
sg137
F9.37037037037037
sg138
I0
sg144
I0
sg145
(dp3067
g265
I0
sg266
I0
sg267
I0
sg268
I0
ssg185
I0
sg186
g3048
sg203
I0
sg204
I0
sg205
I0
sg206
I0
sg101
I0
sg208
I0
sg209
I0
sg94
I0
sg210
I0
sg211
g33
sbssg185
I0
sg186
g3048
sg203
I0
sg204
I0
sg205
I0
sg206
I0
sg207
I6
sg208
I2
sg210
I0
sg211
g368
sbsS'n4'
p3068
g391
sS'n5'
p3069
(ijoueur
joueur
p3070
(dp3071
g27
I0
sg28
F7.0
sg29
I0
sg30
I0
sg31
F39.502908735920435
sg32
g33
sg34
I0
sg35
g33
sg36
I0
sg37
g38
(g39
g40
Ntp3072
Rp3073
(dp3074
g44
I4
sg45
g261
sg47
g262
sbsg49
(dp3075
sg51
(dp3076
g265
I0
sg266
I7
sg267
I0
sg268
I9
ssg57
F10.205882352941176
sg58
(dp3077
g265
I0
sg266
I0
sg267
I0
sg268
I0
ssg270
I10
sg61
g33
sg62
(dp3078
g272
I4
sg273
I2
sg274
g275
ssg68
I0
sg69
F39.502908735920435
sg70
I00
sg71
I3
sg72
I0
sg73
I0
sg74
I0
sg75
g276
sg77
I00
sg78
F20.0
sg79
(dp3079
g278
I0
sg279
I4
sg280
I0
sg281
I0
ssg145
(dp3080
g278
I0
sg279
I0
sg280
I0
sg281
I0
ssg86
(dp3081
g278
I0
sg279
I0
sg280
I0
sg281
I0
ssg88
(dp3082
g265
I0
sg266
I0
sg267
I0
sg268
I8
ssg90
I0
sg91
(lp3083
g286
aI01
aI01
aI00
asg94
I0
sg95
S'Jtanov'
p3084
sg97
I10
sg98
I0
sg85
I00
sg100
I170
sg101
I4
sg102
I00
sg103
g33
sg99
I22
sg104
(dp3085
g289
I12
sg290
I10
sg291
I7
sg292
I12
sg293
I5
sg294
I8
sg295
I6
sg296
I12
sg297
I11
sg298
I10
sg299
I9
sg300
I9
sg301
I4
sg302
I9
sg303
I4
ssg121
g3073
sg122
g123
(g127
S'\n\x00\x00\x00'
p3086
tp3087
Rp3088
sg133
g33
sg134
I0
sg135
I0
sg136
I0
sg137
F10.558823529411764
sg138
I0
sg139
(g307
g410
S'N8'
p3089
g33
tp3090
sg144
I3
sg209
I0
sg147
(dp3091
S's13'
p3092
(ijoueur
joueur
p3093
(dp3094
g27
I0
sg28
F7.0
sg29
I0
sg30
I0
sg71
I3
sg34
I0
sg37
g3073
sg51
(dp3095
g316
I0
sg317
I0
sg318
I0
sg319
I0
ssg58
g3077
sg61
g33
sg207
I17
sg62
(dp3096
g321
I1
sg322
I1
sg323
g324
ssg68
I0
sg72
I0
sg73
I0
sg74
I0
sg75
g276
sg77
I00
sg121
g3073
sg78
F20.0
sg85
I00
sg86
(dp3097
g265
I0
sg266
I0
sg267
I0
sg268
I0
ssg88
g3082
sg90
I0
sg91
(lp3098
g332
aI01
aI01
aI00
asg79
(dp3099
g265
I0
sg266
I0
sg267
I0
sg268
I4
ssg95
g3084
sg97
I10
sg98
I0
sg99
I22
sg100
I170
sg139
g3090
sg104
(dp3100
g335
I0
sg336
I0
sg337
I0
sg338
I0
sg339
I0
sg340
I0
sg341
I0
sg342
I0
sg343
I0
sg344
I0
sg345
I0
sg346
I0
sg347
I0
sg348
I0
sg349
I0
ssg147
(dp3101
sg122
I0
sg133
g33
sg134
I0
sg135
F20.0
sg136
I0
sg137
F10.205882352941176
sg138
I0
sg144
I0
sg145
(dp3102
g265
I0
sg266
I7
sg267
I0
sg268
I9
ssg185
I0
sg186
(dp3103
g353
I10
sg354
I9
sg355
I7
sg356
I11
sg357
I11
sg358
I12
sg359
I7
sg360
I12
sg361
I5
sg362
I10
sg363
I6
sg364
I10
sg365
I4
sg366
I9
sg367
I4
ssg203
I0
sg204
I0
sg205
I0
sg206
I0
sg101
I0
sg208
I0
sg209
I0
sg94
I0
sg210
I0
sg211
S'K'
p3104
sbsS's12'
p3105
(ijoueur
joueur
p3106
(dp3107
g27
I0
sg28
I0
sg29
I0
sg30
I0
sg71
I0
sg34
I0
sg37
g38
(g39
g40
Ntp3108
Rp3109
(dp3110
g45
g33
sbsg51
(dp3111
g265
I0
sg266
I0
sg267
I0
sg268
I0
ssg58
(dp3112
g265
I0
sg266
I0
sg267
I0
sg268
I0
ssg61
g33
sg207
I0
sg62
(dp3113
g321
I1
sg322
I1
sg323
g324
ssg68
I0
sg72
I0
sg73
I0
sg74
I0
sg75
g276
sg77
I00
sg121
g38
(g39
g40
Ntp3114
Rp3115
(dp3116
g45
g33
sbsg78
I0
sg85
I00
sg86
(dp3117
g265
I0
sg266
I0
sg267
I0
sg268
I0
ssg88
(dp3118
g265
I0
sg266
I0
sg267
I0
sg268
I0
ssg90
I0
sg91
(lp3119
g332
aI01
aI00
aI00
asg79
(dp3120
g265
I0
sg266
I0
sg267
I0
sg268
I0
ssg95
g33
sg97
I0
sg98
I0
sg99
I0
sg100
I0
sg139
(g307
g410
g33
g33
tp3121
sg104
(dp3122
g299
I0
sg290
I0
sg291
I0
sg292
I0
sg297
I0
sg289
I0
sg294
I0
sg296
I0
sg293
I0
sg298
I0
sg295
I0
sg300
I0
sg301
I0
sg302
I0
sg303
I0
ssg147
(dp3123
sg122
I0
sg133
g33
sg134
I0
sg135
I0
sg136
I0
sg137
F10.205882352941176
sg138
I0
sg144
I0
sg145
(dp3124
g265
I0
sg266
I0
sg267
I0
sg268
I0
ssg185
I0
sg186
(dp3125
g289
I12
sg290
I10
sg291
I7
sg292
I12
sg297
I11
sg295
I6
sg294
I8
sg296
I12
sg293
I5
sg298
I10
sg299
I10
sg300
I10
sg301
I4
sg302
I10
sg303
I4
ssg203
I0
sg204
I0
sg205
I0
sg206
I0
sg101
I0
sg208
I0
sg209
I0
sg94
I0
sg210
I0
sg211
g33
sbsS's11'
p3126
(ijoueur
joueur
p3127
(dp3128
g27
I0
sg28
I0
sg29
I0
sg30
I0
sg71
I0
sg34
I0
sg37
g38
(g39
g40
Ntp3129
Rp3130
(dp3131
g45
g33
sbsg51
(dp3132
g265
I0
sg266
I0
sg267
I0
sg268
I0
ssg58
(dp3133
g265
I0
sg266
I0
sg267
I0
sg268
I0
ssg61
g33
sg207
I0
sg62
(dp3134
g321
I1
sg322
I1
sg323
g324
ssg68
I0
sg72
I0
sg73
I0
sg74
I0
sg75
g276
sg77
I00
sg121
g38
(g39
g40
Ntp3135
Rp3136
(dp3137
g45
g33
sbsg78
I0
sg85
I00
sg86
(dp3138
g265
I0
sg266
I0
sg267
I0
sg268
I0
ssg88
(dp3139
g265
I0
sg266
I0
sg267
I0
sg268
I0
ssg90
I0
sg91
(lp3140
g332
aI01
aI00
aI00
asg79
(dp3141
g265
I0
sg266
I0
sg267
I0
sg268
I0
ssg95
g33
sg97
I0
sg98
I0
sg99
I0
sg100
I0
sg139
g3121
sg104
(dp3142
g299
I0
sg290
I0
sg291
I0
sg292
I0
sg297
I0
sg289
I0
sg294
I0
sg296
I0
sg293
I0
sg298
I0
sg295
I0
sg300
I0
sg301
I0
sg302
I0
sg303
I0
ssg147
(dp3143
sg122
I0
sg133
g33
sg134
I0
sg135
I0
sg136
I0
sg137
F10.205882352941176
sg138
I0
sg144
I0
sg145
(dp3144
g265
I0
sg266
I0
sg267
I0
sg268
I0
ssg185
I0
sg186
g3125
sg203
I0
sg204
I0
sg205
I0
sg206
I0
sg101
I0
sg208
I0
sg209
I0
sg94
I0
sg210
I0
sg211
g33
sbssg185
I0
sg186
g3125
sg203
I0
sg204
I0
sg205
I0
sg206
I0
sg207
I17
sg208
I0
sg210
I0
sg211
g3104
sbsS'n6'
p3145
(ijoueur
joueur
p3146
(dp3147
g27
I0
sg28
F3.0
sg29
I0
sg30
I0
sg31
F39.502908735920435
sg32
g33
sg34
I0
sg35
g33
sg36
I0
sg37
g38
(g39
g40
Ntp3148
Rp3149
(dp3150
g44
I4
sg45
S'x'
p3151
sg47
S'heros'
p3152
sbsg49
(dp3153
sg51
(dp3154
g1989
I0
sg1990
I11
sg1991
I2
sg1992
I6
ssg57
F10.029411764705882
sg58
(dp3155
g1989
I0
sg1990
I0
sg1991
I0
sg1992
I0
ssg60
I9
sg61
g33
sg62
(dp3156
g1995
I4
sg1996
I12
sg1997
g2408
ssg68
I0
sg69
F39.502908735920435
sg70
I00
sg71
I2
sg72
I0
sg73
I0
sg74
I0
sg75
g1999
sg77
I00
sg78
F18.0
sg79
(dp3157
g2001
I0
sg2002
I0
sg2003
I0
sg2004
I0
ssg85
I00
sg86
(dp3158
g2001
I0
sg2002
I0
sg2003
I0
sg2004
I0
ssg88
(dp3159
g1989
I0
sg1990
I3
sg1991
I0
sg1992
I0
ssg90
I0
sg91
(lp3160
g2009
aI01
aI01
aI00
asg94
I0
sg95
S'Woelod'
p3161
sg97
I6
sg98
I0
sg99
I14
sg100
I157
sg101
I3
sg102
I00
sg103
g33
sg104
(dp3162
g2012
I8
sg2013
I9
sg2014
I8
sg2015
I9
sg2016
I12
sg2017
I7
sg2018
I5
sg2019
I10
sg2020
I5
sg2021
I10
sg2022
I9
sg2023
I10
sg2024
I5
sg2025
I10
sg2026
I4
ssg121
g3149
sg122
g123
(g127
S'\x04\x00\x00\x00'
p3163
tp3164
Rp3165
sg133
g33
sg134
I0
sg135
I0
sg136
I0
sg137
F10.029411764705882
sg138
I0
sg139
(g2030
S'DL'
p3166
S'TL'
p3167
g33
tp3168
sg144
I0
sg145
(dp3169
g2001
I0
sg2002
I0
sg2003
I2
sg2004
I2
ssg147
(dp3170
S's13'
p3171
(ijoueur
joueur
p3172
(dp3173
g27
I0
sg28
F3.0
sg29
I0
sg30
I0
sg71
I2
sg34
I0
sg37
g3149
sg51
(dp3174
g2039
I0
sg2040
I0
sg2041
I0
sg2042
I0
ssg58
g3155
sg101
I0
sg61
g33
sg62
(dp3175
g2044
I1
sg2045
I1
sg2046
g2047
ssg68
I0
sg72
I1
sg73
I0
sg74
I0
sg139
g3168
sg77
I00
sg121
g3149
sg78
F18.0
sg85
I00
sg86
(dp3176
g1989
I0
sg1990
I0
sg1991
I0
sg1992
I0
ssg88
g3159
sg90
I0
sg91
(lp3177
g2055
aI01
aI01
aI00
asg79
(dp3178
g1989
I0
sg1990
I3
sg1991
I0
sg1992
I0
ssg95
S'Woelod (13)'
p3179
sg97
I6
sg98
I0
sg99
I14
sg100
I157
sg75
g1999
sg104
(dp3180
g2058
I0
sg2059
I0
sg2060
I0
sg2061
I0
sg2062
I0
sg2063
I0
sg2064
I0
sg2065
I0
sg2066
I0
sg2067
I0
sg2068
I0
sg2069
I0
sg2070
I0
sg2071
I0
sg2072
I0
ssg147
(dp3181
sg122
I0
sg133
g33
sg134
I0
sg135
F18.0
sg136
I0
sg137
F10.029411764705882
sg138
I0
sg144
I0
sg145
(dp3182
g1989
I0
sg1990
I9
sg1991
I0
sg1992
I6
ssg185
I0
sg186
(dp3183
g2076
I9
sg2077
I9
sg2078
I8
sg2079
I9
sg2080
I5
sg2081
I8
sg2082
I5
sg2083
I10
sg2084
I12
sg2085
I10
sg2086
I7
sg2087
I10
sg2088
I5
sg2089
I10
sg2090
I4
ssg203
I0
sg204
I0
sg205
I0
sg206
I0
sg207
I15
sg208
I0
sg209
I0
sg94
I0
sg210
I0
sg211
g2091
sbsS's12'
p3184
(ijoueur
joueur
p3185
(dp3186
g27
I0
sg28
I0
sg29
I0
sg30
I0
sg71
I0
sg34
I0
sg37
g38
(g39
g40
Ntp3187
Rp3188
(dp3189
g45
g33
sbsg51
(dp3190
g1989
I0
sg1990
I0
sg1991
I0
sg1992
I0
ssg58
(dp3191
g1989
I0
sg1990
I0
sg1991
I0
sg1992
I0
ssg101
I0
sg61
g33
sg62
(dp3192
g2044
I1
sg2045
I1
sg2046
g2047
ssg68
I0
sg72
I0
sg73
I0
sg74
I0
sg139
(g2030
g3166
g33
g33
tp3193
sg77
I00
sg121
g38
(g39
g40
Ntp3194
Rp3195
(dp3196
g45
g33
sbsg78
I0
sg85
I00
sg86
(dp3197
g1989
I0
sg1990
I0
sg1991
I0
sg1992
I0
ssg88
(dp3198
g1989
I0
sg1990
I0
sg1991
I0
sg1992
I0
ssg90
I0
sg91
(lp3199
g2055
aI01
aI00
aI00
asg79
(dp3200
g1989
I0
sg1990
I0
sg1991
I0
sg1992
I0
ssg95
S'Woelod (12)'
p3201
sg97
I0
sg98
I0
sg99
I0
sg100
I0
sg75
g1999
sg104
(dp3202
g2022
I0
sg2013
I0
sg2014
I0
sg2015
I0
sg2020
I0
sg2012
I0
sg2018
I0
sg2019
I0
sg2016
I0
sg2021
I0
sg2017
I0
sg2023
I0
sg2024
I0
sg2025
I0
sg2026
I0
ssg147
(dp3203
sg122
I0
sg133
g33
sg134
I0
sg135
I0
sg136
I0
sg137
F10.029411764705882
sg138
I0
sg144
I0
sg145
(dp3204
g1989
I0
sg1990
I0
sg1991
I0
sg1992
I0
ssg185
I0
sg186
(dp3205
g2012
I8
sg2013
I9
sg2014
I8
sg2015
I9
sg2020
I5
sg2018
I5
sg2017
I7
sg2019
I10
sg2016
I12
sg2021
I10
sg2022
I9
sg2023
I10
sg2024
I5
sg2025
I10
sg2026
I4
ssg203
I0
sg204
I0
sg205
I0
sg206
I0
sg207
I0
sg208
I0
sg209
I0
sg94
I0
sg210
I0
sg211
g33
sbsS's11'
p3206
(ijoueur
joueur
p3207
(dp3208
g27
I0
sg28
I0
sg29
I0
sg30
I0
sg71
I0
sg34
I0
sg37
g38
(g39
g40
Ntp3209
Rp3210
(dp3211
g45
g33
sbsg51
(dp3212
g1989
I0
sg1990
I0
sg1991
I0
sg1992
I0
ssg58
(dp3213
g1989
I0
sg1990
I0
sg1991
I0
sg1992
I0
ssg101
I0
sg61
g33
sg62
(dp3214
g2044
I1
sg2045
I1
sg2046
g2047
ssg68
I0
sg72
I0
sg73
I0
sg74
I0
sg139
g3193
sg77
I00
sg121
g38
(g39
g40
Ntp3215
Rp3216
(dp3217
g45
g33
sbsg78
I0
sg85
I00
sg86
(dp3218
g1989
I0
sg1990
I0
sg1991
I0
sg1992
I0
ssg88
(dp3219
g1989
I0
sg1990
I0
sg1991
I0
sg1992
I0
ssg90
I0
sg91
(lp3220
g2055
aI01
aI00
aI00
asg79
(dp3221
g1989
I0
sg1990
I0
sg1991
I0
sg1992
I0
ssg95
S'Woelod (11)'
p3222
sg97
I0
sg98
I0
sg99
I0
sg100
I0
sg75
g1999
sg104
(dp3223
g2022
I0
sg2013
I0
sg2014
I0
sg2015
I0
sg2020
I0
sg2012
I0
sg2018
I0
sg2019
I0
sg2016
I0
sg2021
I0
sg2017
I0
sg2023
I0
sg2024
I0
sg2025
I0
sg2026
I0
ssg147
(dp3224
sg122
I0
sg133
g33
sg134
I0
sg135
I0
sg136
I0
sg137
F10.029411764705882
sg138
I0
sg144
I0
sg145
(dp3225
g1989
I0
sg1990
I0
sg1991
I0
sg1992
I0
ssg185
I0
sg186
g3205
sg203
I0
sg204
I0
sg205
I0
sg206
I0
sg207
I0
sg208
I0
sg209
I0
sg94
I0
sg210
I0
sg211
g33
sbssg185
I0
sg186
g3205
sg203
I0
sg204
I0
sg205
I0
sg206
I0
sg207
I15
sg208
I1
sg209
I0
sg210
I0
sg211
g2091
sbsS'n7'
p3226
(ijoueur
joueur
p3227
(dp3228
g27
I0
sg28
F4.0
sg29
I0
sg30
I0
sg31
F29.649905636007844
sg32
g33
sg34
I0
sg35
g33
sg36
I-8
sg37
g38
(g39
g40
Ntp3229
Rp3230
(dp3231
g44
I4
sg45
g261
sg47
g262
sbsg49
(dp3232
sg51
(dp3233
g265
I0
sg266
I0
sg267
I0
sg268
I0
ssg57
F10.0
sg58
(dp3234
g265
I0
sg266
I0
sg267
I0
sg268
I0
ssg60
I7
sg61
g33
sg62
(dp3235
g272
I2
sg273
I3
sg274
g275
ssg68
I0
sg69
F29.649905636007844
sg70
I00
sg71
I1
sg72
I0
sg73
I0
sg74
I0
sg75
g276
sg77
I00
sg78
F14.0
sg79
(dp3236
g278
I0
sg279
I3
sg280
I0
sg281
I0
ssg85
I00
sg86
(dp3237
g278
I0
sg279
I0
sg280
I0
sg281
I0
ssg88
(dp3238
g265
I0
sg266
I0
sg267
I0
sg268
I17
ssg90
I0
sg91
(lp3239
g286
aI01
aI00
aI00
asg94
I0
sg95
S'Sthiael'
p3240
sg97
I3
sg98
I0
sg99
I12
sg100
I84
sg101
I2
sg102
I00
sg103
g33
sg104
(dp3241
g289
I7
sg290
I7
sg291
I8
sg292
I11
sg293
I8
sg294
I8
sg295
I8
sg296
I9
sg297
I11
sg298
I10
sg299
I13
sg300
I8
sg301
I6
sg302
I13
sg303
I4
ssg121
g3230
sg122
g123
(g127
S'\x03\x00\x00\x00'
p3242
tp3243
Rp3244
sg133
g33
sg134
I0
sg135
I0
sg136
I0
sg137
F10.157894736842104
sg138
I0
sg139
(g307
S'TL'
p3245
g33
g33
tp3246
sg144
I1
sg145
(dp3247
g278
I0
sg279
I0
sg280
I0
sg281
I0
ssg147
(dp3248
S's13'
p3249
(ijoueur
joueur
p3250
(dp3251
g27
I0
sg28
F4.0
sg29
I0
sg30
I0
sg71
I1
sg34
I0
sg37
g3230
sg51
(dp3252
g316
I0
sg317
I0
sg318
I0
sg319
I0
ssg58
g3234
sg61
g33
sg207
I8
sg62
(dp3253
g321
I1
sg322
I1
sg323
g324
ssg68
I0
sg72
I0
sg73
I0
sg74
I0
sg75
g276
sg77
I00
sg121
g3230
sg78
F14.0
sg85
I00
sg86
(dp3254
g265
I0
sg266
I0
sg267
I0
sg268
I0
ssg88
g3238
sg90
I0
sg91
(lp3255
g332
aI01
aI00
aI00
asg79
(dp3256
g265
I0
sg266
I0
sg267
I0
sg268
I14
ssg95
g3240
sg97
I3
sg98
I0
sg99
I12
sg100
I84
sg139
g3246
sg104
(dp3257
g335
I0
sg336
I0
sg337
I0
sg338
I0
sg339
I0
sg340
I0
sg341
I0
sg342
I0
sg343
I0
sg344
I0
sg345
I0
sg346
I0
sg347
I0
sg348
I0
sg349
I0
ssg147
(dp3258
sg122
I0
sg133
g33
sg134
I0
sg135
F14.0
sg136
I0
sg137
F10.0
sg138
I0
sg144
I0
sg145
(dp3259
g265
I0
sg266
I0
sg267
I0
sg268
I0
ssg185
I0
sg186
(dp3260
g353
I13
sg354
I7
sg355
I8
sg356
I11
sg357
I11
sg358
I7
sg359
I7
sg360
I9
sg361
I8
sg362
I10
sg363
I8
sg364
I8
sg365
I6
sg366
I12
sg367
I4
ssg203
I0
sg204
I0
sg205
I0
sg206
I0
sg101
I0
sg208
I0
sg209
I0
sg94
I0
sg210
I0
sg211
S'HE'
p3261
sbsS's12'
p3262
(ijoueur
joueur
p3263
(dp3264
g27
I0
sg28
I0
sg29
I0
sg30
I0
sg71
I0
sg34
I0
sg37
g38
(g39
g40
Ntp3265
Rp3266
(dp3267
g45
g33
sbsg51
(dp3268
g265
I0
sg266
I0
sg267
I0
sg268
I0
ssg58
(dp3269
g265
I0
sg266
I0
sg267
I0
sg268
I0
ssg61
g33
sg207
I0
sg62
(dp3270
g321
I1
sg322
I1
sg323
g324
ssg68
I0
sg72
I0
sg73
I0
sg74
I0
sg75
g276
sg77
I00
sg121
g38
(g39
g40
Ntp3271
Rp3272
(dp3273
g45
g33
sbsg78
I0
sg85
I00
sg86
(dp3274
g265
I0
sg266
I0
sg267
I0
sg268
I0
ssg88
(dp3275
g265
I0
sg266
I0
sg267
I0
sg268
I0
ssg90
I0
sg91
(lp3276
g332
aI01
aI00
aI00
asg79
(dp3277
g265
I0
sg266
I0
sg267
I0
sg268
I0
ssg95
g33
sg97
I0
sg98
I0
sg99
I0
sg100
I0
sg139
(g307
g3245
g33
g33
tp3278
sg104
(dp3279
g299
I0
sg290
I0
sg291
I0
sg292
I0
sg297
I0
sg289
I0
sg294
I0
sg296
I0
sg293
I0
sg298
I0
sg295
I0
sg300
I0
sg301
I0
sg302
I0
sg303
I0
ssg147
(dp3280
sg122
I0
sg133
g33
sg134
I0
sg135
I0
sg136
I0
sg137
F10.0
sg138
I0
sg144
I0
sg145
(dp3281
g265
I0
sg266
I0
sg267
I0
sg268
I0
ssg185
I0
sg186
(dp3282
g289
I7
sg290
I7
sg291
I8
sg292
I11
sg297
I11
sg295
I8
sg294
I8
sg296
I9
sg293
I8
sg298
I10
sg299
I13
sg300
I8
sg301
I6
sg302
I13
sg303
I4
ssg203
I0
sg204
I0
sg205
I0
sg206
I0
sg101
I0
sg208
I0
sg209
I0
sg94
I0
sg210
I0
sg211
g33
sbsS's11'
p3283
(ijoueur
joueur
p3284
(dp3285
g27
I0
sg28
I0
sg29
I0
sg30
I0
sg71
I0
sg34
I0
sg37
g38
(g39
g40
Ntp3286
Rp3287
(dp3288
g45
g33
sbsg51
(dp3289
g265
I0
sg266
I0
sg267
I0
sg268
I0
ssg58
(dp3290
g265
I0
sg266
I0
sg267
I0
sg268
I0
ssg61
g33
sg207
I0
sg62
(dp3291
g321
I1
sg322
I1
sg323
g324
ssg68
I0
sg72
I0
sg73
I0
sg74
I0
sg75
g276
sg77
I00
sg121
g38
(g39
g40
Ntp3292
Rp3293
(dp3294
g45
g33
sbsg78
I0
sg85
I00
sg86
(dp3295
g265
I0
sg266
I0
sg267
I0
sg268
I0
ssg88
(dp3296
g265
I0
sg266
I0
sg267
I0
sg268
I0
ssg90
I0
sg91
(lp3297
g332
aI01
aI00
aI00
asg79
(dp3298
g265
I0
sg266
I0
sg267
I0
sg268
I0
ssg95
g33
sg97
I0
sg98
I0
sg99
I0
sg100
I0
sg139
g3278
sg104
(dp3299
g299
I0
sg290
I0
sg291
I0
sg292
I0
sg297
I0
sg289
I0
sg294
I0
sg296
I0
sg293
I0
sg298
I0
sg295
I0
sg300
I0
sg301
I0
sg302
I0
sg303
I0
ssg147
(dp3300
sg122
I0
sg133
g33
sg134
I0
sg135
I0
sg136
I0
sg137
F10.0
sg138
I0
sg144
I0
sg145
(dp3301
g265
I0
sg266
I0
sg267
I0
sg268
I0
ssg185
I0
sg186
g3282
sg203
I0
sg204
I0
sg205
I0
sg206
I0
sg101
I0
sg208
I0
sg209
I0
sg94
I0
sg210
I0
sg211
g33
sbssg185
I1
sg186
g3282
sg203
I0
sg204
I0
sg205
I0
sg206
I0
sg207
I8
sg208
I0
sg209
I0
sg210
I0
sg211
g3261
sbssS'remplacements'
p3302
(dp3303
g1383
S'n0'
p3304
sg1678
g3304
sg2395
g3304
sg2396
g3304
sg2472
g3304
sg2547
g3304
sg2586
g3304
ssb.