(iclub
compo
p0
(dp1
S'caracs_old'
p2
(dp3
S'A'
p4
F148.75
sS'ME'
p5
F95.0
sS'E'
p6
F191.0
sS'OplusAV'
p7
F86.25
sS'OplusAR'
p8
F95.75
sS'JP'
p9
F90.75
sS'PA'
p10
F90.0
sS'M'
p11
F87.5
sS'OmoinsAR'
p12
F90.25
sS'TO_off'
p13
F107.25
sS'TO_def'
p14
F100.5
sS'OmoinsAV'
p15
F95.0
sS'R'
p16
F173.0
ssS'totaux_old'
p17
(dp18
S'T2'
p19
F164.75
sS'T3'
p20
F95.5
sS'T1'
p21
F186.0
ssS'roles'
p22
(dp23
S'SA_scd'
p24
(ijoueur
joueur
p25
(dp26
S'EV_saison_11'
p27
F8.117647058823529
sS'rouges_total'
p28
I0
sS'EV_saison_12'
p29
F8.970588235294118
sS'residu_experience'
p30
F5.0
sS'changements_postes'
p31
S''
p32
sS'drops_total'
p33
I0
sS'xp_total'
p34
F48.98214942534719
sS'poste3'
p35
g32
sS'blessure'
p36
I0
sS'poste1'
p37
g32
sS'points_retraite'
p38
I0
sS'RG_max'
p39
ccopy_reg
_reconstructor
p40
(cjoueur
rang_new
p41
c__builtin__
object
p42
Ntp43
Rp44
(dp45
S'type_nb'
p46
I4
sS'rang'
p47
S'x'
p48
sS'type'
p49
S'heros'
p50
sbsS'caracs_saison_13'
p51
(dp52
sS'MJ2_total'
p53
(dp54
S'SR'
p55
I0
sS'CT'
p56
I0
sS'CR'
p57
I0
sS'ST'
p58
I0
ssS'EV_saison_13'
p59
F9.529411764705882
sS'xp'
p60
I0
sS'rand_retraite'
p61
I10
sS'anciens_clubs'
p62
S'vide 13'
p63
sS'carte_evolution'
p64
(dp65
S'couleur'
p66
I2
sS'valeur'
p67
I3
sS'r_n'
p68
S'r'
p69
ssS'drop_rates_saison'
p70
I0
sS'xp_saison'
p71
F48.98214942534719
sS'nouveau_bonus_evolution'
p72
I01
sS'num_dernier_bonus'
p73
I4
sS'essais_saison'
p74
I0
sS'penalite_ratees_saison'
p75
I0
sS'transformations_saison'
p76
I0
sS'bonus'
p77
I1
sS'veut_partir'
p78
I00
sS'experience_total'
p79
F11.0
sS'MJ1'
p80
(dp81
S'SR'
p82
I0
sS'CT'
p83
I0
sS'CR'
p84
I5
sS'ST'
p85
I0
ssS'MJ2'
p86
(dp87
g82
I0
sg83
I0
sg84
I0
sg85
I0
ssS'MJ3'
p88
(dp89
g82
I0
sg83
I0
sg84
I0
sg85
I0
ssS'MJ1_total'
p90
(dp91
g55
I2
sg56
I9
sg57
I8
sg58
I7
ssS'penalites_total'
p92
I0
sS'postes_maitrises'
p93
(lp94
S'dummy'
p95
aI01
aI01
aI00
asS'penalites_saison'
p96
I0
sS'nom'
p97
S'Rodrigues'
p98
sS'C'
p99
I11
sS'transformations_total'
p100
I0
sS'MS_probleme'
p101
I00
sS'VAL'
p102
I82
sS'club'
p103
S'MAG'
p104
sS'retraite'
p105
I00
sS'poste2'
p106
g32
sS'D'
p107
I24
sS'caracs'
p108
(dp109
S'RP1'
p110
I7
sS'ME'
p111
I10
sS'RP2'
p112
I8
sS'E'
p113
I10
sS'TO'
p114
I12
sS'M'
p115
I8
sS'JP'
p116
I4
sS'RP_tot'
p117
I9
sS'P'
p118
I4
sS'PA'
p119
I9
sS'A'
p120
I11
sS'R'
p121
I7
sS'TB'
p122
I5
sS'PL'
p123
I9
sS'TA'
p124
I4
ssS'caracs_sans_fatigue'
p125
(dp126
g110
I7
sg111
I10
sg112
I8
sg113
I10
sg118
I4
sg116
I4
sg115
I8
sg117
I9
sg114
I12
sg119
I9
sg120
I11
sg121
I7
sg122
I5
sg123
I9
sg124
I4
ssS'RG'
p127
g44
sS'fatigue'
p128
I6
sS'drop_ratees_total'
p129
I0
sS'blessures_total'
p130
I0
sS'experience_saison'
p131
I0
sS'XP'
p132
I0
sS'EV'
p133
F9.529411764705882
sS'penalite_ratees_total'
p134
I0
sS'postes'
p135
(S'dummy'
p136
S'DL'
p137
S'N8'
p138
g32
tp139
sS'MJ3_total'
p140
(dp141
g55
I0
sg56
I0
sg57
I0
sg58
I0
ssS'evolution'
p142
I0
sS'blessures_saison'
p143
I0
sS'jj_passe'
p144
(dp145
S's13'
p146
(ijoueur
joueur
p147
(dp148
g28
I0
sg30
F1.0
sg129
I0
sg33
I0
sg73
I3
sg36
I0
sg39
g44
sg53
(dp149
S'SR'
p150
I0
sS'CT'
p151
I0
sS'CR'
p152
I0
sS'ST'
p153
I0
ssg140
g141
sg62
g63
sS'MS'
p154
I7
sg64
(dp155
S'couleur'
p156
I1
sS'valeur'
p157
I1
sS'r_n'
p158
S'n'
p159
ssg70
I0
sg74
I0
sg75
I0
sg76
I0
sg103
g104
sg78
I00
sg127
g44
sg79
F11.0
sg101
I00
sg88
(dp160
S'SR'
p161
I0
sS'ST'
p162
I0
sS'CR'
p163
I0
sS'CT'
p164
I0
ssg90
g91
sg92
I0
sg93
(lp165
S'dummy'
p166
aI01
aI01
aI00
asg80
(dp167
g161
I1
sg162
I0
sg163
I3
sg164
I9
ssg97
S'Rodrigues (13)'
p168
sg99
I11
sg100
I0
sg107
I24
sg102
I82
sg135
g139
sg108
(dp169
S'A'
p170
I0
sS'ME'
p171
I0
sS'RP2'
p172
I0
sS'E'
p173
I0
sS'P'
p174
I0
sS'RP1'
p175
I0
sS'JP'
p176
I0
sS'RP_tot'
p177
I0
sS'TO'
p178
I0
sS'PA'
p179
I0
sS'M'
p180
I0
sS'R'
p181
I0
sS'TB'
p182
I0
sS'PL'
p183
I0
sS'TA'
p184
I0
ssg144
(dp185
sg128
I0
sg31
g32
sg130
I0
sg131
F11.0
sg132
I0
sg133
F9.529411764705882
sg134
I0
sg142
I0
sg86
(dp186
g161
I0
sg162
I0
sg163
I0
sg164
I0
ssS'jaunes_total'
p187
I0
sg125
(dp188
S'A'
p189
I11
sS'ME'
p190
I10
sS'RP2'
p191
I8
sS'E'
p192
I10
sS'TO'
p193
I12
sS'RP1'
p194
I7
sS'JP'
p195
I4
sS'RP_tot'
p196
I9
sS'P'
p197
I4
sS'PA'
p198
I9
sS'M'
p199
I8
sS'R'
p200
I7
sS'TB'
p201
I5
sS'PL'
p202
I9
sS'TA'
p203
I4
ssS'rouges_saison'
p204
I0
sS'transformation_ratees_total'
p205
I0
sS'drops_saison'
p206
I0
sS'transformation_ratees_saison'
p207
I0
sg77
I0
sS'essais_total'
p208
I0
sg143
I0
sg96
I0
sS'jaunes_saison'
p209
I0
sS'ARM'
p210
S'EST'
p211
sbsS's12'
p212
(ijoueur
joueur
p213
(dp214
g27
F8.117647058823529
sg28
I0
sg30
F0.0
sg31
g32
sg33
I0
sg73
I3
sg35
g32
sg36
I0
sg37
g32
sg39
g40
(g41
g42
Ntp215
Rp216
(dp217
g46
I4
sg47
S'x'
p218
sg49
S'heros'
p219
sbsg53
(dp220
S'SR'
p221
I0
sS'CT'
p222
I0
sS'CR'
p223
I0
sS'ST'
p224
I0
ssg140
(dp225
g221
I0
sg222
I0
sg223
I0
sg224
I0
ssg62
g32
sg64
(dp226
g156
I1
sg157
I1
sg158
g159
ssg70
I0
sg74
I0
sg75
I0
sg76
I0
sg103
S'vide'
p227
sg78
I00
sg79
F7.0
sg80
(dp228
S'SR'
p229
I0
sS'ST'
p230
I7
sS'CR'
p231
I0
sS'CT'
p232
I0
ssg101
I00
sg88
(dp233
g229
I0
sg230
I0
sg231
I0
sg232
I0
ssg90
(dp234
g221
I1
sg222
I0
sg223
I0
sg224
I7
ssg92
I0
sg93
(lp235
g166
aI01
aI01
aI00
asg96
I0
sg97
S'Rodrigues (12)'
p236
sg99
I11
sg100
I0
sg107
I24
sg102
I82
sg77
I0
sg106
g32
sg108
(dp237
S'RP1'
p238
I7
sS'ME'
p239
I9
sS'RP2'
p240
I8
sS'E'
p241
I9
sS'P'
p242
I4
sS'JP'
p243
I4
sS'M'
p244
I8
sS'RP_tot'
p245
I8
sS'TO'
p246
I11
sS'PA'
p247
I9
sS'A'
p248
I11
sS'R'
p249
I7
sS'TB'
p250
I5
sS'PL'
p251
I9
sS'TA'
p252
I4
ssg127
g216
sg128
I3
sg129
I0
sg130
I0
sg131
F7.0
sg132
I0
sg133
F8.970588235294118
sg134
I0
sg135
(S'dummy'
p253
S'DL'
p254
S'N8'
p255
g32
tp256
sg142
I0
sg86
(dp257
g229
I0
sg230
I0
sg231
I0
sg232
I0
ssg144
(dp258
S's11'
p259
(ijoueur
joueur
p260
(dp261
g28
I0
sg33
I0
sg35
g32
sg36
I0
sg37
g32
sg39
g40
(g41
g42
Ntp262
Rp263
(dp264
g46
I4
sg47
S'x'
p265
sg49
S'heros'
p266
sbsg53
(dp267
S'SR'
p268
I0
sS'ST'
p269
I0
sS'CR'
p270
I0
sS'CT'
p271
I0
ssg140
(dp272
g268
I0
sg269
I0
sg270
I0
sg271
I0
ssg62
g32
sg70
I0
sg101
I01
sg74
I0
sg75
I0
sg76
I0
sg103
S'vide'
p273
sg78
I01
sg127
g40
(g41
g42
Ntp274
Rp275
(dp276
g46
I3
sg47
S'^^^'
p277
sg49
S'rare'
p278
sbsg80
(dp279
g268
I1
sg269
I0
sg270
I0
sg271
I0
ssg86
(dp280
g268
I0
sg269
I0
sg270
I0
sg271
I0
ssg88
(dp281
g268
I0
sg269
I0
sg270
I0
sg271
I0
ssg90
(dp282
g268
I1
sg269
I0
sg270
I0
sg271
I0
ssg92
I0
sg96
I0
sg97
S'Rodrigues'
p283
sg99
I11
sg100
I0
sg107
I24
sg102
I17
sg135
(S'dummy'
p284
S'DL'
p285
S'N8'
p286
g32
tp287
sg106
g32
sg108
(dp288
S'RP1'
p289
I6
sS'ME'
p290
I8
sS'RP2'
p291
I6
sS'E'
p292
I9
sS'TO'
p293
I10
sS'M'
p294
I8
sS'JP'
p295
I3
sS'RP_tot'
p296
I6
sS'P'
p297
I3
sS'PA'
p298
I7
sS'A'
p299
I9
sS'R'
p300
I7
sS'TB'
p301
I4
sS'PL'
p302
I8
sS'TA'
p303
I3
ssg128
I0
sg129
I0
sg130
I0
sg132
I0
sg133
F8.117647058823529
sg134
I0
sg143
I0
sg187
I0
sS'caracs_saison_11'
p304
(dp305
S'RP1'
p306
I6
sS'ME'
p307
I8
sS'RP2'
p308
I6
sS'E'
p309
I9
sS'TO'
p310
I10
sS'M'
p311
I8
sS'JP'
p312
I3
sS'RP_tot'
p313
I6
sS'P'
p314
I3
sS'PA'
p315
I7
sS'A'
p316
I9
sS'R'
p317
I7
sS'TB'
p318
I4
sS'PL'
p319
I8
sS'TA'
p320
I3
ssg125
g288
sg204
I0
sg205
I0
sg206
I0
sg207
I0
sg154
I1
sg208
I0
sg209
I0
sg210
S'EST'
p321
sbssg187
I1
sg304
(dp322
g238
I6
sg239
I8
sg240
I6
sg241
I9
sg246
I10
sg244
I8
sg243
I3
sg245
I6
sg242
I3
sg247
I7
sg248
I9
sg249
I7
sg250
I4
sg251
I8
sg252
I3
ssg125
g237
sg204
I0
sg205
I0
sg206
I0
sg207
I0
sg154
I7
sg208
I0
sg143
I0
sg209
I1
sg210
S'EST'
p323
sbsS's11'
p324
(ijoueur
joueur
p325
(dp326
g28
I0
sg30
F0.5
sg33
I0
sg73
I1
sg35
g32
sg36
I0
sg37
g32
sg39
g40
(g41
g42
Ntp327
Rp328
(dp329
g46
I4
sg47
S'x'
p330
sg49
S'heros'
p331
sbsg53
(dp332
S'SR'
p333
I0
sS'ST'
p334
I0
sS'CR'
p335
I0
sS'CT'
p336
I0
ssg140
(dp337
g333
I0
sg334
I0
sg335
I0
sg336
I0
ssg62
g32
sg64
(dp338
g156
I1
sg157
I1
sg158
g159
ssg70
I0
sg101
I01
sg74
I0
sg75
I0
sg76
I0
sg103
S'vide'
p339
sg78
I01
sg79
F0.5
sg80
(dp340
g333
I1
sg334
I0
sg335
I0
sg336
I0
ssg86
(dp341
g333
I0
sg334
I0
sg335
I0
sg336
I0
ssg88
(dp342
g333
I0
sg334
I0
sg335
I0
sg336
I0
ssg90
(dp343
g333
I1
sg334
I0
sg335
I0
sg336
I0
ssg92
I0
sg93
(lp344
g166
aI01
aI01
aI00
asg96
I0
sg97
S'Rodrigues (11)'
p345
sg99
I11
sg100
I0
sg107
I24
sg102
I17
sg77
I0
sg106
g32
sg108
(dp346
S'RP1'
p347
I6
sS'ME'
p348
I8
sS'RP2'
p349
I6
sS'E'
p350
I9
sS'TO'
p351
I10
sS'M'
p352
I8
sS'JP'
p353
I3
sS'RP_tot'
p354
I6
sS'P'
p355
I3
sS'PA'
p356
I7
sS'A'
p357
I9
sS'R'
p358
I7
sS'TB'
p359
I4
sS'PL'
p360
I8
sS'TA'
p361
I3
ssg127
g40
(g41
g42
Ntp362
Rp363
(dp364
g46
I3
sg47
S'^^^'
p365
sg49
S'rare'
p366
sbsg128
I0
sg129
I0
sg130
I0
sg131
F0.5
sg132
I0
sg133
F8.117647058823529
sg134
I0
sg135
(S'dummy'
p367
S'DL'
p368
S'N8'
p369
g32
tp370
sg142
I0
sg143
I0
sg187
I0
sg304
(dp371
S'RP1'
p372
I6
sS'ME'
p373
I8
sS'RP2'
p374
I6
sS'E'
p375
I9
sS'TO'
p376
I10
sS'M'
p377
I8
sS'JP'
p378
I3
sS'RP_tot'
p379
I6
sS'P'
p380
I3
sS'PA'
p381
I7
sS'A'
p382
I9
sS'R'
p383
I7
sS'TB'
p384
I4
sS'PL'
p385
I8
sS'TA'
p386
I3
ssg125
g346
sg204
I0
sg205
I0
sg206
I0
sg207
I0
sg154
I1
sg208
I0
sg209
I0
sg210
S'EST'
p387
sbssg187
I1
sg304
(dp388
g110
I6
sg111
I8
sg112
I6
sg113
I9
sg114
I10
sg115
I8
sg116
I3
sg117
I6
sg118
I3
sg119
I7
sg120
I9
sg121
I7
sg122
I4
sg123
I8
sg124
I3
ssg204
I0
sS'caracs_saison_12'
p389
(dp390
sg205
I0
sg206
I0
sg207
I0
sg154
I7
sg208
I0
sg209
I0
sg210
g211
sbsS'drop3'
p391
(ijoueur
joueur
p392
(dp393
g28
I1
sg30
F1.0
sg129
I3
sg33
I6
sg34
F39.129146325434604
sg35
g32
sg36
I0
sg37
g32
sg38
I0
sg39
g40
(g41
g42
Ntp394
Rp395
(dp396
g46
I4
sg47
S'*'
p397
sg49
S'heros'
p398
sbsg51
(dp399
sg53
(dp400
S'SR'
p401
I0
sS'CT'
p402
I0
sS'CR'
p403
I0
sS'ST'
p404
I0
ssg59
F8.741935483870968
sg140
(dp405
g401
I0
sg402
I0
sg403
I0
sg404
I0
ssg61
I10
sg62
g32
sg64
(dp406
S'couleur'
p407
I2
sS'valeur'
p408
I3
sS'r_n'
p409
S'r'
p410
ssg70
I0
sg71
F39.129146325434604
sg72
I01
sg73
I3
sg74
I2
sg75
I0
sg76
I0
sg103
S'MAG'
p411
sg78
I00
sg79
F11.0
sg80
(dp412
S'SR'
p413
I0
sS'ST'
p414
I0
sS'CR'
p415
I0
sS'CT'
p416
I4
ssg86
(dp417
g413
I0
sg414
I0
sg415
I0
sg416
I0
ssg88
(dp418
g413
I0
sg414
I0
sg415
I0
sg416
I0
ssg90
(dp419
g401
I0
sg402
I15
sg403
I0
sg404
I0
ssg92
I0
sg93
(lp420
S'dummy'
p421
aI01
aI01
aI00
asg96
I0
sg97
S'Nardel'
p422
sg99
I12
sg100
I0
sg101
I00
sg102
I54
sg77
I3
sg105
I00
sg106
g32
sg107
I23
sg108
(dp423
S'RP1'
p424
I9
sS'ME'
p425
I4
sS'RP2'
p426
I9
sS'E'
p427
I8
sS'TO'
p428
I4
sS'M'
p429
I9
sS'JP'
p430
I11
sS'RP_tot'
p431
I11
sS'P'
p432
I9
sS'PA'
p433
I9
sS'A'
p434
I11
sS'R'
p435
I9
sS'TB'
p436
I8
sS'PL'
p437
I9
sS'TA'
p438
I5
ssg127
g395
sg128
cnumpy.core.multiarray
scalar
p439
(cnumpy
dtype
p440
(S'i4'
p441
I0
I1
tp442
Rp443
(I3
S'<'
p444
NNNI-1
I-1
I0
tp445
bS'\x07\x00\x00\x00'
p446
tp447
Rp448
sg31
g32
sg130
I0
sg131
I0
sg132
I0
sg133
F9.709677419354838
sg134
I0
sg135
(S'dummy'
p449
S'AI'
p450
S'CE'
p451
g32
tp452
sg142
I2
sg143
I0
sg144
(dp453
S's13'
p454
(ijoueur
joueur
p455
(dp456
g28
I0
sg30
F4.0
sg129
I0
sg33
I0
sg73
I3
sg36
I0
sg39
g395
sg53
(dp457
S'SR'
p458
I0
sS'ST'
p459
I0
sS'CR'
p460
I0
sS'CT'
p461
I0
ssg140
g405
sg77
I0
sg62
g32
sg64
(dp462
S'couleur'
p463
I1
sS'valeur'
p464
I1
sS'r_n'
p465
S'n'
p466
ssg70
I3
sg74
I0
sg75
I0
sg76
I0
sg135
g452
sg78
I00
sg127
g40
(g41
g42
Ntp467
Rp468
(dp469
g46
I3
sg47
S'^^^'
p470
sg49
S'rare'
p471
sbsg79
F11.0
sg101
I00
sg88
(dp472
g401
I0
sg402
I0
sg403
I0
sg404
I0
ssg90
g419
sg92
I0
sg93
(lp473
S'dummy'
p474
aI01
aI01
aI00
asg80
(dp475
g401
I0
sg402
I11
sg403
I0
sg404
I0
ssg97
g422
sg99
I12
sg100
I0
sg107
I23
sg102
I14
sg103
g411
sg108
(dp476
S'A'
p477
I0
sS'ME'
p478
I0
sS'RP2'
p479
I0
sS'E'
p480
I0
sS'TO'
p481
I0
sS'RP1'
p482
I0
sS'JP'
p483
I0
sS'RP_tot'
p484
I0
sS'P'
p485
I0
sS'PA'
p486
I0
sS'M'
p487
I0
sS'R'
p488
I0
sS'TB'
p489
I0
sS'PL'
p490
I0
sS'TA'
p491
I0
ssg144
(dp492
sg128
I0
sg31
g32
sg130
I0
sg131
F11.0
sg132
I0
sg133
F8.741935483870968
sg134
I0
sg142
I0
sg86
(dp493
g401
I0
sg402
I0
sg403
I0
sg404
I0
ssg187
I0
sg125
(dp494
S'A'
p495
I10
sS'ME'
p496
I3
sS'RP2'
p497
I7
sS'E'
p498
I8
sS'P'
p499
I8
sS'RP1'
p500
I8
sS'JP'
p501
I9
sS'RP_tot'
p502
I9
sS'TO'
p503
I3
sS'PA'
p504
I8
sS'M'
p505
I9
sS'R'
p506
I7
sS'TB'
p507
I7
sS'PL'
p508
I8
sS'TA'
p509
I4
ssg204
I0
sg205
I0
sg206
I4
sg207
I0
sg154
I1
sg208
I0
sg143
I0
sg96
I0
sg209
I0
sg210
S'EST'
p510
sbsS's12'
p511
(ijoueur
joueur
p512
(dp513
g28
I0
sg30
I0
sg129
I0
sg33
I0
sg73
I0
sg36
I0
sg39
g40
(g41
g42
Ntp514
Rp515
(dp516
g47
g32
sbsg53
(dp517
g401
I0
sg402
I0
sg403
I0
sg404
I0
ssg140
(dp518
g401
I0
sg402
I0
sg403
I0
sg404
I0
ssg77
I0
sg62
g32
sg64
(dp519
g463
I1
sg464
I1
sg465
g466
ssg70
I0
sg74
I0
sg75
I0
sg76
I0
sg135
(g449
g450
g32
g32
tp520
sg78
I00
sg127
g40
(g41
g42
Ntp521
Rp522
(dp523
g47
g32
sbsg79
I0
sg101
I00
sg88
(dp524
g401
I0
sg402
I0
sg403
I0
sg404
I0
ssg90
(dp525
g401
I0
sg402
I0
sg403
I0
sg404
I0
ssg92
I0
sg93
(lp526
g474
aI01
aI00
aI00
asg80
(dp527
g401
I0
sg402
I0
sg403
I0
sg404
I0
ssg97
g32
sg99
I0
sg100
I0
sg107
I0
sg102
I0
sg103
g411
sg108
(dp528
g434
I0
sg425
I0
sg426
I0
sg427
I0
sg432
I0
sg424
I0
sg430
I0
sg431
I0
sg428
I0
sg433
I0
sg429
I0
sg435
I0
sg436
I0
sg437
I0
sg438
I0
ssg144
(dp529
sg128
I0
sg31
g32
sg130
I0
sg131
I0
sg132
I0
sg133
F8.741935483870968
sg134
I0
sg142
I0
sg86
(dp530
g401
I0
sg402
I0
sg403
I0
sg404
I0
ssg187
I0
sg125
(dp531
g424
I9
sg425
I4
sg426
I9
sg427
I8
sg432
I9
sg430
I11
sg429
I9
sg431
I11
sg428
I4
sg433
I9
sg434
I11
sg435
I9
sg436
I8
sg437
I9
sg438
I5
ssg204
I0
sg205
I0
sg206
I0
sg207
I0
sg154
I0
sg208
I0
sg143
I0
sg96
I0
sg209
I0
sg210
g32
sbssg187
I2
sg125
g531
sg204
I0
sg205
I0
sg206
I2
sg207
I0
sg154
I5
sg208
I2
sg209
I0
sg210
g510
sbsS'cap'
p532
(ijoueur
joueur
p533
(dp534
g27
F9.148148148148149
sg28
I0
sg29
F9.148148148148149
sg30
F5.5
sg31
g32
sg33
I0
sg34
F48.98214942534719
sg36
I0
sg38
I0
sg39
g40
(g41
g42
Ntp535
Rp536
(dp537
g46
I3
sg47
S'^^^'
p538
sg49
S'rare'
p539
sbsg51
(dp540
sg53
(dp541
S'SR'
p542
I0
sS'ST'
p543
I0
sS'CR'
p544
I6
sS'CT'
p545
I0
ssg59
F8.931034482758621
sg60
I0
sg61
I10
sg62
S'APA 11;TA 14'
p546
sg64
(dp547
g66
I3
sg67
I3
sg68
S'n'
p548
ssg70
I0
sS'transformations'
p549
I0
sS'penalites'
p550
I0
sg72
I00
sg73
I1
sg74
I0
sg75
I0
sg76
I0
sg77
I0
sg78
I00
sg79
F4.5
sg80
(dp551
g82
I0
sg83
I0
sg84
I5
sg85
I0
ssg101
I00
sg88
(dp552
g82
I0
sg83
I0
sg84
I0
sg85
I0
ssg90
(dp553
g542
I0
sg543
I0
sg544
I14
sg545
I1
ssg92
I0
sg93
(lp554
g95
aI01
aI01
aI00
asg96
I0
sg97
S"X'uv"
p555
sg99
I8
sg100
I0
sg86
(dp556
g82
I0
sg83
I0
sg84
I0
sg85
I0
ssg102
I263
sg103
g104
sg105
I00
sg107
I19
sg108
(dp557
S'A'
p558
I6
sS'ME'
p559
I10
sS'RP2'
p560
I7
sS'E'
p561
I13
sS'P'
p562
I2
sS'RP1'
p563
I9
sS'JP'
p564
I2
sS'RP_tot'
p565
I9
sS'TO'
p566
I7
sS'PA'
p567
I6
sS'M'
p568
I9
sS'R'
p569
I9
sS'TB'
p570
I3
sS'PL'
p571
I6
sS'TA'
p572
I9
ssg125
(dp573
g558
I6
sg559
I10
sg560
I7
sg561
I13
sg566
I7
sg563
I9
sg564
I2
sg565
I9
sg562
I2
sg567
I6
sg568
I9
sg569
I9
sg570
I3
sg571
I6
sg572
I9
ssg127
g40
(g41
g42
Ntp574
Rp575
(dp576
g46
I3
sg47
S'^^^'
p577
sg49
g539
sbsg128
I5
sg129
I0
sg130
I0
sg131
I0
sg132
I0
sg133
F9.0
sg134
I0
sg135
(S'dummy'
p578
S'PI'
p579
S'TA'
p580
g32
tp581
sg140
(dp582
g542
I0
sg543
I0
sg544
I0
sg545
I0
ssg71
F48.98214942534719
sg142
I1
sS'drops'
p583
I0
sg143
I0
sg144
(dp584
S's13'
p585
(ijoueur
joueur
p586
(dp587
g28
I0
sg30
F5.5
sg129
I0
sg33
I0
sg73
I1
sg36
I0
sg39
g536
sg53
(dp588
S'SR'
p589
I0
sS'CT'
p590
I0
sS'CR'
p591
I0
sS'ST'
p592
I0
ssg140
g582
sg62
g546
sg154
I2
sg64
(dp593
g156
I1
sg157
I1
sg158
g159
ssg70
I0
sg74
I0
sg75
I0
sg76
I0
sg103
S'TA'
p594
sg78
I00
sg127
g575
sg79
F1.0
sg101
I00
sg88
(dp595
S'SR'
p596
I0
sS'CT'
p597
I0
sS'CR'
p598
I0
sS'ST'
p599
I0
ssg90
g553
sg92
I0
sg93
(lp600
g166
aI01
aI01
aI00
asg80
(dp601
g596
I0
sg597
I1
sg598
I4
sg599
I0
ssg97
S"X'uv (13)"
p602
sg99
I8
sg100
I0
sg107
I19
sg102
I263
sg135
g581
sg108
(dp603
S'A'
p604
I0
sS'ME'
p605
I0
sS'RP2'
p606
I0
sS'E'
p607
I0
sS'P'
p608
I0
sS'RP1'
p609
I0
sS'JP'
p610
I0
sS'RP_tot'
p611
I0
sS'TO'
p612
I0
sS'PA'
p613
I0
sS'M'
p614
I0
sS'R'
p615
I0
sS'TB'
p616
I0
sS'PL'
p617
I0
sS'TA'
p618
I0
ssg144
(dp619
sg128
I0
sg31
g32
sg130
I0
sg131
F4.5
sg132
I0
sg133
F8.931034482758621
sg134
I0
sg142
I0
sg86
(dp620
g596
I0
sg597
I0
sg598
I3
sg599
I0
ssg187
I0
sg125
(dp621
g189
I5
sg190
I10
sg191
I7
sg192
I13
sg193
I7
sg194
I9
sg195
I2
sg196
I9
sg197
I2
sg198
I6
sg199
I9
sg200
I9
sg201
I3
sg202
I6
sg203
I9
ssg204
I0
sg205
I0
sg206
I0
sg207
I0
sg77
I0
sg208
I0
sg143
I0
sg96
I0
sg209
I0
sg210
S'HL'
p622
sbsS's12'
p623
(ijoueur
joueur
p624
(dp625
g27
F9.148148148148149
sg28
I0
sg30
F1.0
sg31
g32
sg33
I0
sg73
I1
sg36
I0
sg39
g40
(g41
g42
Ntp626
Rp627
(dp628
g46
I3
sg47
S'^^^'
p629
sg49
S'rare'
p630
sbsg53
(dp631
S'SR'
p632
I0
sS'ST'
p633
I0
sS'CR'
p634
I3
sS'CT'
p635
I0
ssg140
(dp636
g632
I0
sg633
I0
sg634
I0
sg635
I0
ssg62
S'APA 11'
p637
sg154
I10
sg64
(dp638
g156
I1
sg157
I1
sg158
g159
ssg70
I0
sg549
I0
sg550
I0
sg74
I0
sg75
I0
sg76
I0
sg103
S'TA'
p639
sg78
I00
sg79
F0.0
sg80
(dp640
S'SR'
p641
I0
sS'ST'
p642
I0
sS'CR'
p643
I2
sS'CT'
p644
I0
ssg101
I00
sg88
(dp645
g641
I0
sg642
I0
sg643
I0
sg644
I0
ssg90
(dp646
g632
I0
sg633
I0
sg634
I5
sg635
I0
ssg92
I0
sg93
(lp647
g166
aI01
aI01
aI00
asg96
I0
sg97
S"X'uv (12)"
p648
sg99
I8
sg100
I0
sg107
I19
sg102
I185
sg135
(S'dummy'
p649
S'PI'
p650
S'TA'
p651
g32
tp652
sg108
(dp653
S'A'
p654
I6
sS'ME'
p655
I10
sS'RP2'
p656
I7
sS'E'
p657
I13
sS'TO'
p658
I7
sS'RP1'
p659
I10
sS'JP'
p660
I2
sS'RP_tot'
p661
I10
sS'P'
p662
I2
sS'PA'
p663
I6
sS'M'
p664
I9
sS'R'
p665
I9
sS'TB'
p666
I3
sS'PL'
p667
I6
sS'TA'
p668
I9
ssg127
g40
(g41
g42
Ntp669
Rp670
(dp671
g46
I3
sg47
S'^^^'
p672
sg49
g630
sbsg128
I0
sg129
I0
sg130
I0
sg131
F1.0
sg132
I0
sg133
F9.148148148148149
sg134
I0
sg142
I0
sg583
I0
sg86
(dp673
g641
I0
sg642
I0
sg643
I0
sg644
I0
ssg144
(dp674
S's11'
p675
(ijoueur
joueur
p676
(dp677
g28
I0
sg33
I0
sg36
I0
sg39
g40
(g41
g42
Ntp678
Rp679
(dp680
g46
I3
sg47
S'^^^'
p681
sg49
S'rare'
p682
sbsg53
(dp683
S'SR'
p684
I0
sS'ST'
p685
I0
sS'CR'
p686
I3
sS'CT'
p687
I0
ssg140
(dp688
g684
I0
sg685
I0
sg686
I0
sg687
I0
ssg86
(dp689
g684
I0
sg685
I0
sg686
I3
sg687
I0
ssg62
S'APA 11'
p690
sg70
I0
sg549
I0
sg550
I0
sg74
I0
sg75
I0
sg76
I0
sg135
(S'dummy'
p691
S'PI'
p692
S'TA'
p693
g32
tp694
sg78
I01
sg127
g40
(g41
g42
Ntp695
Rp696
(dp697
g46
I3
sg47
S'^^^'
p698
sg49
g682
sbsg80
(dp699
g684
I0
sg685
I0
sg686
I3
sg687
I0
ssg101
I00
sg88
(dp700
g684
I0
sg685
I0
sg686
I0
sg687
I0
ssg90
(dp701
g684
I0
sg685
I0
sg686
I3
sg687
I0
ssg92
I0
sg96
I0
sg97
S"X'uv"
p702
sg99
I8
sg100
I0
sg107
I19
sg102
I185
sg103
S'TA'
p703
sg108
(dp704
S'A'
p705
I6
sS'ME'
p706
I10
sS'RP2'
p707
I7
sS'E'
p708
I13
sS'TO'
p709
I7
sS'RP1'
p710
I10
sS'JP'
p711
I2
sS'RP_tot'
p712
I10
sS'P'
p713
I2
sS'PA'
p714
I6
sS'M'
p715
I9
sS'R'
p716
I9
sS'TB'
p717
I3
sS'PL'
p718
I6
sS'TA'
p719
I9
ssg128
I0
sg129
I0
sg130
I0
sg132
I0
sg133
F9.148148148148149
sg134
I0
sg583
I0
sg143
I0
sg187
I0
sg304
(dp720
S'A'
p721
I6
sS'ME'
p722
I10
sS'RP2'
p723
I7
sS'E'
p724
I13
sS'TO'
p725
I7
sS'RP1'
p726
I10
sS'JP'
p727
I2
sS'RP_tot'
p728
I10
sS'P'
p729
I2
sS'PA'
p730
I6
sS'M'
p731
I9
sS'R'
p732
I9
sS'TB'
p733
I3
sS'PL'
p734
I6
sS'TA'
p735
I9
ssg125
g704
sg204
I0
sg205
I0
sg206
I0
sg207
I0
sg154
I10
sg208
I0
sg209
I0
sg210
S'HL'
p736
sbssg187
I0
sg304
(dp737
S'A'
p738
I6
sS'ME'
p739
I10
sS'RP2'
p740
I7
sS'E'
p741
I13
sS'TO'
p742
I7
sS'RP1'
p743
I10
sS'JP'
p744
I2
sS'RP_tot'
p745
I10
sS'P'
p746
I2
sS'PA'
p747
I6
sS'M'
p748
I9
sS'R'
p749
I9
sS'TB'
p750
I3
sS'PL'
p751
I6
sS'TA'
p752
I9
ssg125
g653
sg204
I0
sg205
I0
sg206
I0
sg207
I0
sg77
I0
sg208
I0
sg143
I0
sg209
I0
sg210
S'HL'
p753
sbsS's11'
p754
(ijoueur
joueur
p755
(dp756
g28
I0
sg30
F0.0
sg33
I0
sg73
I1
sg36
I0
sg39
g40
(g41
g42
Ntp757
Rp758
(dp759
g46
I3
sg47
S'^^^'
p760
sg49
S'rare'
p761
sbsg53
(dp762
S'SR'
p763
I0
sS'ST'
p764
I0
sS'CR'
p765
I3
sS'CT'
p766
I0
ssg140
(dp767
g763
I0
sg764
I0
sg765
I0
sg766
I0
ssg62
S'APA 11'
p768
sg154
I10
sg64
(dp769
g156
I1
sg157
I1
sg158
g159
ssg70
I0
sg549
I0
sg550
I0
sg74
I0
sg75
I0
sg76
I0
sg103
S'TA'
p770
sg78
I01
sg79
F3.0
sg80
(dp771
g763
I0
sg764
I0
sg765
I3
sg766
I0
ssg101
I00
sg88
(dp772
g763
I0
sg764
I0
sg765
I0
sg766
I0
ssg90
(dp773
g763
I0
sg764
I0
sg765
I3
sg766
I0
ssg92
I0
sg93
(lp774
g166
aI01
aI01
aI00
asg96
I0
sg97
S"X'uv (11)"
p775
sg99
I8
sg100
I0
sg107
I19
sg102
I185
sg135
(S'dummy'
p776
S'PI'
p777
S'TA'
p778
g32
tp779
sg108
(dp780
S'A'
p781
I6
sS'ME'
p782
I10
sS'RP2'
p783
I7
sS'E'
p784
I13
sS'TO'
p785
I7
sS'RP1'
p786
I10
sS'JP'
p787
I2
sS'RP_tot'
p788
I10
sS'P'
p789
I2
sS'PA'
p790
I6
sS'M'
p791
I9
sS'R'
p792
I9
sS'TB'
p793
I3
sS'PL'
p794
I6
sS'TA'
p795
I9
ssg127
g40
(g41
g42
Ntp796
Rp797
(dp798
g46
I3
sg47
S'^^^'
p799
sg49
g761
sbsg128
I0
sg129
I0
sg130
I0
sg131
F3.0
sg132
I0
sg133
F9.148148148148149
sg134
I0
sg142
I0
sg583
I0
sg86
(dp800
g763
I0
sg764
I0
sg765
I3
sg766
I0
ssg187
I0
sg304
(dp801
S'A'
p802
I6
sS'ME'
p803
I10
sS'RP2'
p804
I7
sS'E'
p805
I13
sS'TO'
p806
I7
sS'RP1'
p807
I10
sS'JP'
p808
I2
sS'RP_tot'
p809
I10
sS'P'
p810
I2
sS'PA'
p811
I6
sS'M'
p812
I9
sS'R'
p813
I9
sS'TB'
p814
I3
sS'PL'
p815
I6
sS'TA'
p816
I9
ssg125
g780
sg204
I0
sg205
I0
sg206
I0
sg207
I0
sg77
I0
sg208
I0
sg143
I0
sg209
I0
sg210
S'HL'
p817
sbssg187
I0
sg304
(dp818
S'A'
p819
I6
sS'ME'
p820
I10
sS'RP2'
p821
I7
sS'E'
p822
I13
sS'TO'
p823
I7
sS'RP1'
p824
I10
sS'JP'
p825
I2
sS'RP_tot'
p826
I10
sS'P'
p827
I2
sS'PA'
p828
I6
sS'M'
p829
I9
sS'R'
p830
I9
sS'TB'
p831
I3
sS'PL'
p832
I6
sS'TA'
p833
I9
ssg204
I0
sg389
(dp834
sg205
I0
sg206
I0
sg207
I0
sg154
I2
sg208
I0
sg209
I0
sg210
g622
sbsS'B4'
p835
(ijoueur
joueur
p836
(dp837
g28
I0
sg30
F4.5
sg129
I1
sg33
I5
sg34
F48.98214942534719
sg35
g32
sg36
I0
sg37
g32
sg38
I0
sg39
g40
(g41
g42
Ntp838
Rp839
(dp840
g46
I4
sg47
S'x'
p841
sg49
S'heros'
p842
sbsg51
(dp843
sg53
(dp844
S'SR'
p845
I0
sS'CT'
p846
I0
sS'CR'
p847
I0
sS'ST'
p848
I0
ssg59
F9.742857142857142
sg140
(dp849
g845
I0
sg846
I0
sg847
I0
sg848
I0
ssg61
I10
sg62
g32
sg64
(dp850
S'couleur'
p851
I4
sS'valeur'
p852
I12
sS'r_n'
p853
S'r'
p854
ssg70
I0
sg71
F48.98214942534719
sg72
I00
sg73
I2
sg74
I0
sg75
I0
sg76
I0
sg103
S'MAG'
p855
sg78
I00
sg79
F15.5
sg80
(dp856
S'SR'
p857
I0
sS'ST'
p858
I0
sS'CR'
p859
I5
sS'CT'
p860
I0
ssg86
(dp861
g857
I0
sg858
I0
sg859
I0
sg860
I0
ssg88
(dp862
g857
I0
sg858
I0
sg859
I0
sg860
I0
ssg90
(dp863
g845
I5
sg846
I10
sg847
I7
sg848
I2
ssg92
I37
sg93
(lp864
S'dummy'
p865
aI01
aI00
aI00
asg96
I0
sg97
S'Klendo'
p866
sg99
I8
sg100
I3
sg101
I00
sg102
I135
sg77
I3
sg105
I00
sg106
g32
sg107
I21
sg108
(dp867
S'RP1'
p868
I7
sS'ME'
p869
I4
sS'RP2'
p870
I8
sS'E'
p871
I11
sS'TO'
p872
I7
sS'M'
p873
I8
sS'JP'
p874
I8
sS'RP_tot'
p875
I9
sS'P'
p876
I11
sS'PA'
p877
I11
sS'A'
p878
I11
sS'R'
p879
I7
sS'TB'
p880
I11
sS'PL'
p881
I9
sS'TA'
p882
I4
ssg127
g839
sg128
I3
sg31
g32
sg130
I0
sg131
I0
sg132
I0
sg133
F9.8
sg134
I2
sg135
(S'dummy'
p883
S'DO'
p884
g32
g32
tp885
sg142
I0
sg143
I0
sg144
(dp886
S's13'
p887
(ijoueur
joueur
p888
(dp889
g28
I0
sg30
F4.5
sg129
I0
sg33
I0
sg73
I2
sg36
I0
sg39
g839
sg53
(dp890
S'SR'
p891
I0
sS'ST'
p892
I0
sS'CR'
p893
I0
sS'CT'
p894
I0
ssg140
g849
sg77
I0
sg62
g32
sg64
(dp895
S'couleur'
p896
I1
sS'valeur'
p897
I1
sS'r_n'
p898
S'n'
p899
ssg70
I1
sg74
I2
sg75
I2
sg76
I3
sg135
g885
sg78
I00
sg127
g839
sg79
F15.5
sg101
I00
sg88
(dp900
g845
I0
sg846
I0
sg847
I0
sg848
I0
ssg90
g863
sg92
I0
sg93
(lp901
S'dummy'
p902
aI01
aI00
aI00
asg80
(dp903
g845
I5
sg846
I10
sg847
I2
sg848
I2
ssg97
S'Klendo (13)'
p904
sg99
I8
sg100
I0
sg107
I21
sg102
I135
sg103
g855
sg108
(dp905
S'A'
p906
I0
sS'ME'
p907
I0
sS'RP2'
p908
I0
sS'E'
p909
I0
sS'TO'
p910
I0
sS'RP1'
p911
I0
sS'JP'
p912
I0
sS'RP_tot'
p913
I0
sS'P'
p914
I0
sS'PA'
p915
I0
sS'M'
p916
I0
sS'R'
p917
I0
sS'TB'
p918
I0
sS'PL'
p919
I0
sS'TA'
p920
I0
ssg144
(dp921
sg128
I0
sg31
g32
sg130
I0
sg131
F15.5
sg132
I0
sg133
F9.742857142857142
sg134
I0
sg142
I0
sg86
(dp922
g845
I0
sg846
I0
sg847
I0
sg848
I0
ssg187
I0
sg125
(dp923
S'A'
p924
I11
sS'ME'
p925
I4
sS'RP2'
p926
I8
sS'E'
p927
I11
sS'P'
p928
I11
sS'RP1'
p929
I7
sS'JP'
p930
I8
sS'RP_tot'
p931
I9
sS'TO'
p932
I7
sS'PA'
p933
I11
sS'M'
p934
I8
sS'R'
p935
I7
sS'TB'
p936
I10
sS'PL'
p937
I9
sS'TA'
p938
I4
ssg204
I0
sg205
I0
sg206
I5
sg207
I2
sg154
I13
sg208
I0
sg143
I0
sg96
I37
sg209
I0
sg210
S'EST'
p939
sbsS's12'
p940
(ijoueur
joueur
p941
(dp942
g28
I0
sg30
I0
sg129
I0
sg33
I0
sg73
I0
sg36
I0
sg39
g40
(g41
g42
Ntp943
Rp944
(dp945
g47
g32
sbsg53
(dp946
g845
I0
sg846
I0
sg847
I0
sg848
I0
ssg140
(dp947
g845
I0
sg846
I0
sg847
I0
sg848
I0
ssg77
I0
sg62
g32
sg64
(dp948
g896
I1
sg897
I1
sg898
g899
ssg70
I0
sg74
I0
sg75
I0
sg76
I0
sg135
(g883
g884
g32
g32
tp949
sg78
I00
sg127
g40
(g41
g42
Ntp950
Rp951
(dp952
g47
g32
sbsg79
I0
sg101
I00
sg88
(dp953
g845
I0
sg846
I0
sg847
I0
sg848
I0
ssg90
(dp954
g845
I0
sg846
I0
sg847
I0
sg848
I0
ssg92
I0
sg93
(lp955
g902
aI01
aI00
aI00
asg80
(dp956
g845
I0
sg846
I0
sg847
I0
sg848
I0
ssg97
S'Klendo (12)'
p957
sg99
I0
sg100
I0
sg107
I0
sg102
I0
sg103
g855
sg108
(dp958
g878
I0
sg869
I0
sg870
I0
sg871
I0
sg876
I0
sg868
I0
sg874
I0
sg875
I0
sg872
I0
sg877
I0
sg873
I0
sg879
I0
sg880
I0
sg881
I0
sg882
I0
ssg144
(dp959
sg128
I0
sg31
g32
sg130
I0
sg131
I0
sg132
I0
sg133
F9.742857142857142
sg134
I0
sg142
I0
sg86
(dp960
g845
I0
sg846
I0
sg847
I0
sg848
I0
ssg187
I0
sg125
(dp961
g868
I7
sg869
I4
sg870
I8
sg871
I11
sg876
I11
sg874
I8
sg873
I8
sg875
I9
sg872
I7
sg877
I11
sg878
I11
sg879
I7
sg880
I11
sg881
I9
sg882
I4
ssg204
I0
sg205
I0
sg206
I0
sg207
I0
sg154
I0
sg208
I0
sg143
I0
sg96
I0
sg209
I0
sg210
g32
sbsS's11'
p962
(ijoueur
joueur
p963
(dp964
g28
I0
sg30
I0
sg129
I0
sg33
I0
sg73
I0
sg36
I0
sg39
g40
(g41
g42
Ntp965
Rp966
(dp967
g47
g32
sbsg53
(dp968
g845
I0
sg846
I0
sg847
I0
sg848
I0
ssg140
(dp969
g845
I0
sg846
I0
sg847
I0
sg848
I0
ssg77
I0
sg62
g32
sg64
(dp970
g896
I1
sg897
I1
sg898
g899
ssg70
I0
sg74
I0
sg75
I0
sg76
I0
sg135
g949
sg78
I00
sg127
g40
(g41
g42
Ntp971
Rp972
(dp973
g47
g32
sbsg79
I0
sg101
I00
sg88
(dp974
g845
I0
sg846
I0
sg847
I0
sg848
I0
ssg90
(dp975
g845
I0
sg846
I0
sg847
I0
sg848
I0
ssg92
I0
sg93
(lp976
g902
aI01
aI00
aI00
asg80
(dp977
g845
I0
sg846
I0
sg847
I0
sg848
I0
ssg97
S'Klendo (11)'
p978
sg99
I0
sg100
I0
sg107
I0
sg102
I0
sg103
g855
sg108
(dp979
g878
I0
sg869
I0
sg870
I0
sg871
I0
sg876
I0
sg868
I0
sg874
I0
sg875
I0
sg872
I0
sg877
I0
sg873
I0
sg879
I0
sg880
I0
sg881
I0
sg882
I0
ssg144
(dp980
sg128
I0
sg31
g32
sg130
I0
sg131
I0
sg132
I0
sg133
F9.742857142857142
sg134
I0
sg142
I0
sg86
(dp981
g845
I0
sg846
I0
sg847
I0
sg848
I0
ssg187
I0
sg125
g961
sg204
I0
sg205
I0
sg206
I0
sg207
I0
sg154
I0
sg208
I0
sg143
I0
sg96
I0
sg209
I0
sg210
g32
sbssg187
I2
sg125
g961
sg204
I0
sg205
I2
sg206
I0
sg207
I0
sg154
I13
sg208
I2
sg209
I0
sg210
g939
sbsS'RJC'
p982
g392
sS'B1'
p983
g836
sS'B2'
p984
g836
sS'B3'
p985
g836
sS'SA_pcp2'
p986
(ijoueur
joueur
p987
(dp988
g27
F10.117647058823529
sg28
I0
sg29
F10.352941176470589
sg30
F3.0
sg31
g32
sg33
I0
sg34
F29.627731586538715
sg36
I0
sg38
I0
sg39
g40
(g41
g42
Ntp989
Rp990
(dp991
g46
I4
sg47
S'*'
p992
sg49
S'heros'
p993
sbsg51
(dp994
sg53
(dp995
S'SR'
p996
I0
sS'CT'
p997
I3
sS'CR'
p998
I0
sS'ST'
p999
I7
ssg59
F10.235294117647058
sg60
I0
sg61
I10
sS'drop_rates_total'
p1000
I0
sg64
(dp1001
g66
I3
sg67
I8
sg68
g548
ssg70
I0
sg71
F29.627731586538715
sg72
I00
sg73
I7
sg74
I0
sg75
I0
sg76
I0
sg77
I4
sg78
I00
sg79
F21.0
sg80
(dp1002
g82
I0
sg83
I0
sg84
I0
sg85
I0
ssg86
(dp1003
g82
I0
sg83
I3
sg84
I0
sg85
I0
ssg88
(dp1004
g82
I0
sg83
I0
sg84
I0
sg85
I0
ssg90
(dp1005
g996
I0
sg997
I40
sg998
I0
sg999
I13
ssg92
I0
sg93
(lp1006
g95
aI01
aI01
aI00
asg96
I0
sg97
S'Remod'
p1007
sg99
I8
sg100
I0
sg101
I00
sg102
I148
sg103
g104
sg105
I00
sg107
I20
sg108
(dp1008
S'A'
p1009
I12
sS'ME'
p1010
I12
sS'RP2'
p1011
I9
sS'E'
p1012
I10
sS'TO'
p1013
I12
sS'RP1'
p1014
I10
sS'JP'
p1015
I5
sS'RP_tot'
p1016
I11
sS'P'
p1017
I6
sS'PA'
p1018
I10
sS'M'
p1019
I8
sS'R'
p1020
I11
sS'TB'
p1021
I5
sS'PL'
p1022
I10
sS'TA'
p1023
I7
ssg125
(dp1024
g1009
I12
sg1010
I12
sg1011
I9
sg1012
I10
sg1017
I6
sg1014
I10
sg1015
I5
sg1016
I11
sg1013
I12
sg1018
I10
sg1019
I8
sg1020
I11
sg1021
I5
sg1022
I10
sg1023
I7
ssg127
g40
(g41
g42
Ntp1025
Rp1026
(dp1027
g46
I4
sg47
g992
sg49
g993
sbsg128
I0
sS'carton_jaunes_total'
p1028
I1
sg129
I0
sg130
I2
sg131
I0
sg132
I0
sg133
F11.029411764705882
sg134
I0
sg135
(S'dummy'
p1029
S'DL'
p1030
S'TL'
p1031
g32
tp1032
sg140
(dp1033
g996
I0
sg997
I0
sg998
I0
sg999
I0
ssg142
I6
sg143
I1
sg144
(dp1034
S's13'
p1035
(ijoueur
joueur
p1036
(dp1037
g28
I0
sg30
F3.0
sg129
I0
sg33
I0
sg73
I7
sg36
I0
sg39
g990
sg53
(dp1038
S'SR'
p1039
I0
sS'ST'
p1040
I0
sS'CR'
p1041
I0
sS'CT'
p1042
I0
ssg140
g1033
sg62
S'PRG 10;SN 14'
p1043
sg154
I17
sg64
(dp1044
g156
I1
sg157
I1
sg158
g159
ssg70
I0
sg74
I2
sg75
I0
sg76
I0
sg103
S'SN'
p1045
sg78
I00
sg127
g1026
sg79
F0.0
sg101
I00
sg88
(dp1046
S'SR'
p1047
I0
sS'ST'
p1048
I0
sS'CR'
p1049
I0
sS'CT'
p1050
I0
ssg90
g1005
sg92
I0
sg93
(lp1051
g166
aI01
aI01
aI00
asg80
(dp1052
g1047
I0
sg1048
I7
sg1049
I0
sg1050
I14
ssg97
S'Remod (13)'
p1053
sg99
I8
sg100
I0
sg107
I20
sg102
I148
sg135
g1032
sg108
(dp1054
S'A'
p1055
I0
sS'ME'
p1056
I0
sS'RP2'
p1057
I0
sS'E'
p1058
I0
sS'TO'
p1059
I0
sS'RP1'
p1060
I0
sS'JP'
p1061
I0
sS'RP_tot'
p1062
I0
sS'P'
p1063
I0
sS'PA'
p1064
I0
sS'M'
p1065
I0
sS'R'
p1066
I0
sS'TB'
p1067
I0
sS'PL'
p1068
I0
sS'TA'
p1069
I0
ssg144
(dp1070
sg128
I0
sg31
g32
sg130
I0
sg131
F21.0
sg132
I0
sg133
F10.235294117647058
sg134
I0
sg142
I0
sg86
(dp1071
g1047
I0
sg1048
I0
sg1049
I0
sg1050
I0
ssg187
I0
sg125
(dp1072
g189
I12
sg190
I9
sg191
I9
sg192
I9
sg193
I11
sg194
I10
sg195
I5
sg196
I11
sg197
I6
sg198
I10
sg199
I8
sg200
I11
sg201
I5
sg202
I9
sg203
I7
ssg204
I0
sg205
I0
sg206
I0
sg207
I0
sg77
I0
sg208
I0
sg143
I0
sg96
I0
sg209
I0
sg210
S'EMP'
p1073
sbsS's12'
p1074
(ijoueur
joueur
p1075
(dp1076
g27
F10.117647058823529
sg28
I0
sg30
F8.0
sg31
g32
sg33
I0
sg73
I5
sg36
I0
sg93
(lp1077
g166
aI01
aI01
aI00
asg39
g40
(g41
g42
Ntp1078
Rp1079
(dp1080
g46
I4
sg47
S'*'
p1081
sg49
S'heros'
p1082
sbsg53
(dp1083
S'SR'
p1084
I0
sS'CT'
p1085
I0
sS'CR'
p1086
I0
sS'ST'
p1087
I7
ssg140
(dp1088
g1084
I0
sg1085
I0
sg1086
I0
sg1087
I0
ssg1000
I0
sg154
I7
sg64
(dp1089
g156
I1
sg157
I1
sg158
g159
ssg70
I0
sg74
I2
sg75
I0
sg76
I0
sg103
S'SN'
p1090
sg78
I00
sg127
g40
(g41
g42
Ntp1091
Rp1092
(dp1093
g46
I4
sg47
g1081
sg49
g1082
sbsg79
F0.0
sg101
I01
sg88
(dp1094
S'SR'
p1095
I0
sS'ST'
p1096
I0
sS'CR'
p1097
I0
sS'CT'
p1098
I0
ssg90
(dp1099
g1084
I0
sg1085
I26
sg1086
I0
sg1087
I6
ssg92
I0
sS'carton_jaunes_saison'
p1100
I1
sg80
(dp1101
g1095
I0
sg1096
I0
sg1097
I0
sg1098
I14
ssg97
S'Remod (12)'
p1102
sg99
I8
sg100
I0
sg107
I20
sg102
I99
sg135
(S'dummy'
p1103
S'DL'
p1104
S'TL'
p1105
g32
tp1106
sg1028
I1
sg108
(dp1107
S'A'
p1108
I12
sS'ME'
p1109
I9
sS'RP2'
p1110
I9
sS'E'
p1111
I9
sS'P'
p1112
I6
sS'RP1'
p1113
I10
sS'JP'
p1114
I5
sS'RP_tot'
p1115
I12
sS'TO'
p1116
I11
sS'PA'
p1117
I10
sS'M'
p1118
I8
sS'R'
p1119
I11
sS'TB'
p1120
I5
sS'PL'
p1121
I9
sS'TA'
p1122
I7
ssg144
(dp1123
S's11'
p1124
(ijoueur
joueur
p1125
(dp1126
g28
I0
sg33
I0
sg36
I0
sg39
g40
(g41
g42
Ntp1127
Rp1128
(dp1129
g46
I4
sg47
S'*'
p1130
sg49
S'heros'
p1131
sbsg53
(dp1132
S'SR'
p1133
I0
sS'ST'
p1134
I0
sS'CR'
p1135
I0
sS'CT'
p1136
I0
ssg140
(dp1137
g1133
I0
sg1134
I0
sg1135
I0
sg1136
I0
ssg1000
I0
sg70
I0
sg101
I01
sg74
I0
sg75
I0
sg76
I0
sg135
(S'dummy'
p1138
S'DL'
p1139
S'TL'
p1140
g32
tp1141
sg78
I00
sg127
g40
(g41
g42
Ntp1142
Rp1143
(dp1144
g46
I4
sg47
g1130
sg49
g1131
sbsg80
(dp1145
g1133
I0
sg1134
I6
sg1135
I0
sg1136
I12
ssg86
(dp1146
g1133
I0
sg1134
I0
sg1135
I0
sg1136
I0
ssg88
(dp1147
g1133
I0
sg1134
I0
sg1135
I0
sg1136
I0
ssg90
(dp1148
g1133
I0
sg1134
I6
sg1135
I0
sg1136
I12
ssg92
I0
sg1100
I1
sg96
I0
sg97
S'Remod'
p1149
sg99
I8
sg100
I0
sg107
I20
sg102
I99
sg103
S'SN'
p1150
sg1028
I1
sg108
(dp1151
S'A'
p1152
I12
sS'ME'
p1153
I8
sS'RP2'
p1154
I9
sS'E'
p1155
I9
sS'TO'
p1156
I11
sS'RP1'
p1157
I9
sS'JP'
p1158
I5
sS'RP_tot'
p1159
I11
sS'P'
p1160
I6
sS'PA'
p1161
I10
sS'M'
p1162
I8
sS'R'
p1163
I11
sS'TB'
p1164
I5
sS'PL'
p1165
I9
sS'TA'
p1166
I7
ssg128
I0
sg129
I0
sg130
I1
sg132
I0
sg133
F10.117647058823529
sg134
I0
sg143
I1
sg187
I0
sg304
(dp1167
S'A'
p1168
I12
sS'ME'
p1169
I8
sS'RP2'
p1170
I9
sS'E'
p1171
I9
sS'TO'
p1172
I11
sS'RP1'
p1173
I9
sS'JP'
p1174
I5
sS'RP_tot'
p1175
I11
sS'P'
p1176
I6
sS'PA'
p1177
I10
sS'M'
p1178
I8
sS'R'
p1179
I11
sS'TB'
p1180
I5
sS'PL'
p1181
I9
sS'TA'
p1182
I7
ssg125
g1151
sg204
I0
sg62
S'PRG 10'
p1183
sg205
I0
sg206
I0
sg207
I0
sg154
I7
sg208
I0
sg209
I0
sg210
S'EMP'
p1184
sbssg128
I8
sg129
I0
sg130
I1
sg131
F21.0
sg132
I0
sg133
F10.352941176470589
sg134
I0
sg142
I0
sg86
(dp1185
g1095
I0
sg1096
I7
sg1097
I0
sg1098
I0
ssg187
I1
sg304
(dp1186
S'A'
p1187
I12
sS'ME'
p1188
I8
sS'RP2'
p1189
I9
sS'E'
p1190
I9
sS'TO'
p1191
I11
sS'RP1'
p1192
I9
sS'JP'
p1193
I5
sS'RP_tot'
p1194
I11
sS'P'
p1195
I6
sS'PA'
p1196
I10
sS'M'
p1197
I8
sS'R'
p1198
I11
sS'TB'
p1199
I5
sS'PL'
p1200
I9
sS'TA'
p1201
I7
ssg125
g1107
sg204
I0
sg62
S'PRG 10'
p1202
sg205
I0
sg206
I0
sg207
I0
sg77
I0
sg208
I2
sg143
I0
sg96
I0
sg209
I1
sg210
S'EMP'
p1203
sbsS's11'
p1204
(ijoueur
joueur
p1205
(dp1206
g28
I0
sg30
F5.0
sg33
I0
sg73
I3
sg36
I0
sg93
(lp1207
g166
aI01
aI01
aI00
asg39
g40
(g41
g42
Ntp1208
Rp1209
(dp1210
g46
I4
sg47
S'*'
p1211
sg49
S'heros'
p1212
sbsg53
(dp1213
S'SR'
p1214
I0
sS'ST'
p1215
I0
sS'CR'
p1216
I0
sS'CT'
p1217
I0
ssg140
(dp1218
g1214
I0
sg1215
I0
sg1216
I0
sg1217
I0
ssg1000
I0
sg154
I7
sg64
(dp1219
g156
I1
sg157
I1
sg158
g159
ssg70
I0
sg74
I0
sg75
I0
sg76
I0
sg103
S'SN'
p1220
sg78
I00
sg127
g40
(g41
g42
Ntp1221
Rp1222
(dp1223
g46
I4
sg47
g1211
sg49
g1212
sbsg79
F18.0
sg101
I01
sg88
(dp1224
g1214
I0
sg1215
I0
sg1216
I0
sg1217
I0
ssg90
(dp1225
g1214
I0
sg1215
I6
sg1216
I0
sg1217
I12
ssg92
I0
sg1100
I1
sg96
I0
sg97
S'Remod (11)'
p1226
sg99
I8
sg100
I0
sg107
I20
sg102
I99
sg135
(S'dummy'
p1227
S'DL'
p1228
S'TL'
p1229
g32
tp1230
sg80
(dp1231
g1214
I0
sg1215
I6
sg1216
I0
sg1217
I12
ssg108
(dp1232
S'A'
p1233
I12
sS'ME'
p1234
I8
sS'RP2'
p1235
I9
sS'E'
p1236
I9
sS'TO'
p1237
I11
sS'RP1'
p1238
I9
sS'JP'
p1239
I5
sS'RP_tot'
p1240
I11
sS'P'
p1241
I6
sS'PA'
p1242
I10
sS'M'
p1243
I8
sS'R'
p1244
I11
sS'TB'
p1245
I5
sS'PL'
p1246
I9
sS'TA'
p1247
I7
ssg128
I0
sg1028
I1
sg129
I0
sg130
I1
sg131
F18.0
sg132
I0
sg133
F10.117647058823529
sg134
I0
sg142
I0
sg86
(dp1248
g1214
I0
sg1215
I0
sg1216
I0
sg1217
I0
ssg187
I0
sg304
(dp1249
S'A'
p1250
I12
sS'ME'
p1251
I8
sS'RP2'
p1252
I9
sS'E'
p1253
I9
sS'TO'
p1254
I11
sS'RP1'
p1255
I9
sS'JP'
p1256
I5
sS'RP_tot'
p1257
I11
sS'P'
p1258
I6
sS'PA'
p1259
I10
sS'M'
p1260
I8
sS'R'
p1261
I11
sS'TB'
p1262
I5
sS'PL'
p1263
I9
sS'TA'
p1264
I7
ssg125
g1232
sg204
I0
sg62
S'PRG 10'
p1265
sg205
I0
sg206
I0
sg207
I0
sg77
I0
sg208
I0
sg143
I1
sg209
I0
sg210
S'EMP'
p1266
sbssg187
I2
sg304
(dp1267
S'A'
p1268
I12
sS'ME'
p1269
I8
sS'RP2'
p1270
I9
sS'E'
p1271
I9
sS'TO'
p1272
I11
sS'RP1'
p1273
I9
sS'JP'
p1274
I5
sS'RP_tot'
p1275
I11
sS'P'
p1276
I6
sS'PA'
p1277
I10
sS'M'
p1278
I8
sS'R'
p1279
I11
sS'TB'
p1280
I5
sS'PL'
p1281
I9
sS'TA'
p1282
I7
ssg207
I0
sg204
I0
sg389
(dp1283
sg205
I0
sg62
g1043
sg206
I0
sg1100
I1
sg154
I17
sg208
I4
sg209
I0
sg210
g1073
sbsS'SA_pcp1'
p1284
(ijoueur
joueur
p1285
(dp1286
g27
F8.241379310344827
sg28
I0
sg29
F8.758620689655173
sg30
F0.5
sg31
g32
sg33
I0
sg34
F48.98214942534719
sg35
g32
sg36
I0
sg37
g32
sg38
I0
sg39
g40
(g41
g42
Ntp1287
Rp1288
(dp1289
g46
I4
sg47
S'x'
p1290
sg49
S'heros'
p1291
sbsg51
(dp1292
sg53
(dp1293
S'SR'
p1294
I0
sS'ST'
p1295
I0
sS'CR'
p1296
I0
sS'CT'
p1297
I0
ssg59
F9.448275862068966
sg60
I0
sg61
I10
sg62
S'vide 13'
p1298
sg64
(dp1299
g66
I3
sg67
I9
sg68
g548
ssg70
I0
sg71
F48.98214942534719
sg72
I00
sg73
I2
sg74
I1
sg75
I0
sg76
I0
sg77
I1
sg78
I00
sg79
F9.5
sg80
(dp1300
g82
I0
sg83
I5
sg84
I0
sg85
I0
ssg86
(dp1301
g82
I0
sg83
I0
sg84
I0
sg85
I0
ssg88
(dp1302
g82
I0
sg83
I0
sg84
I0
sg85
I0
ssg90
(dp1303
g1294
I2
sg1295
I0
sg1296
I7
sg1297
I10
ssg92
I0
sg93
(lp1304
g95
aI01
aI00
aI00
asg96
I0
sg97
S'Lucas'
p1305
sg99
I9
sg100
I0
sg101
I00
sg102
I93
sg103
g104
sg105
I00
sg106
g32
sg107
I18
sg108
(dp1306
S'RP1'
p1307
I8
sS'ME'
p1308
I11
sS'RP2'
p1309
I9
sS'E'
p1310
I10
sS'P'
p1311
I6
sS'JP'
p1312
I5
sS'M'
p1313
I9
sS'RP_tot'
p1314
I10
sS'TO'
p1315
I12
sS'PA'
p1316
I10
sS'A'
p1317
I14
sS'R'
p1318
I11
sS'TB'
p1319
I7
sS'PL'
p1320
I12
sS'TA'
p1321
I5
ssg125
(dp1322
g1307
I8
sg1308
I11
sg1309
I9
sg1310
I10
sg1315
I12
sg1313
I9
sg1312
I5
sg1314
I10
sg1311
I6
sg1316
I10
sg1317
I14
sg1318
I11
sg1319
I7
sg1320
I12
sg1321
I5
ssg127
g1288
sg128
g439
(g443
S'\x07\x00\x00\x00'
p1323
tp1324
Rp1325
sg129
I0
sg130
I0
sg131
I0
sg132
I0
sg133
F11.25
sg134
I0
sg135
(S'dummy'
p1326
S'N8'
p1327
g32
g32
tp1328
sg140
(dp1329
g1294
I0
sg1295
I0
sg1296
I0
sg1297
I0
ssg142
I4
sg143
I0
sg144
(dp1330
S's13'
p1331
(ijoueur
joueur
p1332
(dp1333
g28
I0
sg30
F0.5
sg129
I0
sg33
I0
sg73
I2
sg36
I0
sg39
g1288
sg53
(dp1334
g150
I0
sg151
I0
sg152
I0
sg153
I0
ssg140
g1329
sg62
g1298
sg154
I2
sg64
(dp1335
g156
I1
sg157
I1
sg158
g159
ssg70
I0
sg74
I0
sg75
I0
sg76
I0
sg103
g104
sg78
I00
sg127
g40
(g41
g42
Ntp1336
Rp1337
(dp1338
g46
I3
sg47
S'^^^'
p1339
sg49
S'rare'
p1340
sbsg79
F9.5
sg101
I00
sg88
(dp1341
g161
I0
sg162
I0
sg163
I0
sg164
I0
ssg90
g1303
sg92
I0
sg93
(lp1342
g166
aI01
aI00
aI00
asg80
(dp1343
g161
I2
sg162
I0
sg163
I7
sg164
I5
ssg97
S'Lucas (13)'
p1344
sg99
I9
sg100
I0
sg107
I18
sg102
I28
sg135
g1328
sg108
(dp1345
g170
I0
sg171
I0
sg172
I0
sg173
I0
sg174
I0
sg175
I0
sg176
I0
sg177
I0
sg178
I0
sg179
I0
sg180
I0
sg181
I0
sg182
I0
sg183
I0
sg184
I0
ssg144
(dp1346
sg128
I0
sg31
g32
sg130
I0
sg131
F9.5
sg132
I0
sg133
F9.448275862068966
sg134
I0
sg142
I0
sg86
(dp1347
g161
I0
sg162
I0
sg163
I0
sg164
I0
ssg187
I0
sg125
(dp1348
g189
I11
sg190
I10
sg191
I7
sg192
I10
sg193
I9
sg194
I7
sg195
I4
sg196
I8
sg197
I5
sg198
I8
sg199
I8
sg200
I10
sg201
I6
sg202
I9
sg203
I4
ssg204
I0
sg205
I0
sg206
I0
sg207
I0
sg77
I0
sg208
I0
sg143
I0
sg96
I0
sg209
I0
sg210
S'EST'
p1349
sbsg212
(ijoueur
joueur
p1350
(dp1351
g27
F8.241379310344827
sg28
I0
sg30
I0
sg31
g32
sg33
I0
sg73
I0
sg35
g32
sg36
I0
sg37
g32
sg39
g40
(g41
g42
Ntp1352
Rp1353
(dp1354
g46
I4
sg47
S'x'
p1355
sg49
S'heros'
p1356
sbsg53
(dp1357
S'SR'
p1358
I0
sS'CT'
p1359
I0
sS'CR'
p1360
I0
sS'ST'
p1361
I0
ssg140
(dp1362
g1358
I0
sg1359
I0
sg1360
I0
sg1361
I0
ssg62
g32
sg64
(dp1363
g156
I1
sg157
I1
sg158
g159
ssg70
I0
sg74
I0
sg75
I0
sg76
I0
sg103
S'vide'
p1364
sg78
I01
sg79
I0
sg80
(dp1365
S'SR'
p1366
I0
sS'CT'
p1367
I0
sS'CR'
p1368
I0
sS'ST'
p1369
I0
ssg101
I00
sg88
(dp1370
g1366
I0
sg1367
I0
sg1368
I0
sg1369
I0
ssg90
(dp1371
g1358
I0
sg1359
I0
sg1360
I0
sg1361
I0
ssg92
I0
sg93
(lp1372
g166
aI01
aI00
aI00
asg96
I0
sg97
S'Lucas (12)'
p1373
sg99
I9
sg100
I0
sg107
I18
sg102
I28
sg77
I0
sg106
g32
sg108
(dp1374
S'RP1'
p1375
I7
sS'ME'
p1376
I10
sS'RP2'
p1377
I7
sS'E'
p1378
I9
sS'P'
p1379
I5
sS'JP'
p1380
I4
sS'M'
p1381
I8
sS'RP_tot'
p1382
I7
sS'TO'
p1383
I7
sS'PA'
p1384
I7
sS'A'
p1385
I10
sS'R'
p1386
I9
sS'TB'
p1387
I6
sS'PL'
p1388
I9
sS'TA'
p1389
I4
ssg127
g40
(g41
g42
Ntp1390
Rp1391
(dp1392
g46
I2
sg47
S'^^'
p1393
sg49
S'special'
p1394
sbsg128
I0
sg129
I0
sg130
I0
sg131
I0
sg132
I0
sg133
F8.758620689655173
sg134
I0
sg135
(S'dummy'
p1395
S'N8'
p1396
g32
g32
tp1397
sg142
I0
sg86
(dp1398
g1366
I0
sg1367
I0
sg1368
I0
sg1369
I0
ssg144
(dp1399
S's11'
p1400
(ijoueur
joueur
p1401
(dp1402
g28
I0
sg33
I0
sg35
g32
sg36
I0
sg37
g32
sg39
g40
(g41
g42
Ntp1403
Rp1404
(dp1405
g46
I4
sg47
S'x'
p1406
sg49
S'heros'
p1407
sbsg53
(dp1408
S'SR'
p1409
I0
sS'ST'
p1410
I0
sS'CR'
p1411
I0
sS'CT'
p1412
I0
ssg140
(dp1413
g1409
I0
sg1410
I0
sg1411
I0
sg1412
I0
ssg62
g32
sg70
I0
sg101
I01
sg74
I0
sg75
I0
sg76
I0
sg103
S'vide'
p1414
sg78
I00
sg127
g40
(g41
g42
Ntp1415
Rp1416
(dp1417
g46
I1
sg47
S'<'
p1418
sg49
S'base'
p1419
sbsg80
(dp1420
g1409
I0
sg1410
I0
sg1411
I0
sg1412
I0
ssg86
(dp1421
g1409
I0
sg1410
I0
sg1411
I0
sg1412
I0
ssg88
(dp1422
g1409
I0
sg1410
I0
sg1411
I0
sg1412
I0
ssg90
(dp1423
g1409
I0
sg1410
I0
sg1411
I0
sg1412
I0
ssg92
I0
sg96
I0
sg97
S'Lucas'
p1424
sg99
I9
sg100
I0
sg107
I18
sg102
I11
sg135
(S'dummy'
p1425
S'N8'
p1426
g32
g32
tp1427
sg106
g32
sg108
(dp1428
S'RP1'
p1429
I7
sS'ME'
p1430
I10
sS'RP2'
p1431
I7
sS'E'
p1432
I8
sS'TO'
p1433
I7
sS'M'
p1434
I7
sS'JP'
p1435
I3
sS'RP_tot'
p1436
I7
sS'P'
p1437
I4
sS'PA'
p1438
I7
sS'A'
p1439
I9
sS'R'
p1440
I8
sS'TB'
p1441
I5
sS'PL'
p1442
I9
sS'TA'
p1443
I4
ssg128
I0
sg129
I0
sg130
I0
sg132
I0
sg133
F8.241379310344827
sg134
I0
sg143
I0
sg187
I0
sg304
(dp1444
S'RP1'
p1445
I7
sS'ME'
p1446
I10
sS'RP2'
p1447
I7
sS'E'
p1448
I8
sS'TO'
p1449
I7
sS'M'
p1450
I7
sS'JP'
p1451
I3
sS'RP_tot'
p1452
I7
sS'P'
p1453
I4
sS'PA'
p1454
I7
sS'A'
p1455
I9
sS'R'
p1456
I8
sS'TB'
p1457
I5
sS'PL'
p1458
I9
sS'TA'
p1459
I4
ssg125
g1428
sg204
I0
sg205
I0
sg206
I0
sg207
I0
sg154
I1
sg208
I0
sg209
I0
sg210
S'EST'
p1460
sbssg187
I0
sg304
(dp1461
g1375
I7
sg1376
I10
sg1377
I7
sg1378
I8
sg1383
I7
sg1381
I7
sg1380
I3
sg1382
I7
sg1379
I4
sg1384
I7
sg1385
I9
sg1386
I8
sg1387
I5
sg1388
I9
sg1389
I4
ssg125
g1374
sg204
I0
sg205
I0
sg206
I0
sg207
I0
sg154
I2
sg208
I0
sg143
I0
sg209
I0
sg210
S'EST'
p1462
sbsg324
(ijoueur
joueur
p1463
(dp1464
g28
I0
sg30
F0.0
sg33
I0
sg73
I0
sg35
g32
sg36
I0
sg37
g32
sg39
g40
(g41
g42
Ntp1465
Rp1466
(dp1467
g46
I4
sg47
S'x'
p1468
sg49
S'heros'
p1469
sbsg53
(dp1470
S'SR'
p1471
I0
sS'CT'
p1472
I0
sS'CR'
p1473
I0
sS'ST'
p1474
I0
ssg140
(dp1475
g1471
I0
sg1472
I0
sg1473
I0
sg1474
I0
ssg62
g32
sg64
(dp1476
g156
I1
sg157
I1
sg158
g159
ssg70
I0
sg101
I01
sg74
I0
sg75
I0
sg76
I0
sg103
S'vide'
p1477
sg78
I00
sg79
F0.0
sg80
(dp1478
g1471
I0
sg1472
I0
sg1473
I0
sg1474
I0
ssg86
(dp1479
g1471
I0
sg1472
I0
sg1473
I0
sg1474
I0
ssg88
(dp1480
g1471
I0
sg1472
I0
sg1473
I0
sg1474
I0
ssg90
(dp1481
g1471
I0
sg1472
I0
sg1473
I0
sg1474
I0
ssg92
I0
sg93
(lp1482
g166
aI01
aI00
aI00
asg96
I0
sg97
S'Lucas (11)'
p1483
sg99
I9
sg100
I0
sg107
I18
sg102
I11
sg77
I0
sg106
g32
sg108
(dp1484
S'RP1'
p1485
I7
sS'ME'
p1486
I10
sS'RP2'
p1487
I7
sS'E'
p1488
I8
sS'P'
p1489
I4
sS'JP'
p1490
I3
sS'M'
p1491
I7
sS'RP_tot'
p1492
I7
sS'TO'
p1493
I7
sS'PA'
p1494
I7
sS'A'
p1495
I9
sS'R'
p1496
I8
sS'TB'
p1497
I5
sS'PL'
p1498
I9
sS'TA'
p1499
I4
ssg127
g40
(g41
g42
Ntp1500
Rp1501
(dp1502
g46
I1
sg47
S'<'
p1503
sg49
S'base'
p1504
sbsg128
I0
sg129
I0
sg130
I0
sg131
F0.0
sg132
I0
sg133
F8.241379310344827
sg134
I0
sg135
(S'dummy'
p1505
S'N8'
p1506
g32
g32
tp1507
sg142
I0
sg143
I0
sg187
I0
sg304
(dp1508
S'RP1'
p1509
I7
sS'ME'
p1510
I10
sS'RP2'
p1511
I7
sS'E'
p1512
I8
sS'P'
p1513
I4
sS'JP'
p1514
I3
sS'M'
p1515
I7
sS'RP_tot'
p1516
I7
sS'TO'
p1517
I7
sS'PA'
p1518
I7
sS'A'
p1519
I9
sS'R'
p1520
I8
sS'TB'
p1521
I5
sS'PL'
p1522
I9
sS'TA'
p1523
I4
ssg125
g1484
sg204
I0
sg205
I0
sg206
I0
sg207
I0
sg154
I1
sg208
I0
sg209
I0
sg210
S'EST'
p1524
sbssg187
I0
sg304
(dp1525
g1307
I7
sg1308
I10
sg1309
I7
sg1310
I8
sg1311
I4
sg1312
I3
sg1313
I7
sg1314
I7
sg1315
I7
sg1316
I7
sg1317
I9
sg1318
I8
sg1319
I5
sg1320
I9
sg1321
I4
ssg204
I0
sg389
(dp1526
sg205
I0
sg206
I0
sg207
I0
sg154
I8
sg208
I1
sg209
I0
sg210
g1349
sbsS'RJL'
p1527
g836
sS'SA_remp1'
p1528
(ijoueur
joueur
p1529
(dp1530
g28
I0
sg30
F4.0
sg129
I0
sg33
I0
sg34
F39.129146325434604
sg35
g32
sg36
I0
sg37
g32
sg38
I-8
sg39
g40
(g41
g42
Ntp1531
Rp1532
(dp1533
g46
I4
sg47
S'*'
p1534
sg49
S'heros'
p1535
sbsg51
(dp1536
sg53
(dp1537
S'SR'
p1538
I0
sS'ST'
p1539
I0
sS'CR'
p1540
I0
sS'CT'
p1541
I0
ssg59
F10.0
sg140
(dp1542
g1538
I0
sg1539
I0
sg1540
I0
sg1541
I0
ssS'random_retraite'
p1543
I7
sg62
g32
sg64
(dp1544
g66
I2
sg67
I3
sg68
g69
ssg70
I0
sg71
F39.129146325434604
sg72
I00
sg73
I1
sg74
I0
sg75
I0
sg76
I0
sg103
g104
sg78
I00
sg79
F14.0
sg80
(dp1545
g82
I0
sg83
I4
sg84
I0
sg85
I0
ssg101
I00
sg88
(dp1546
g82
I0
sg83
I0
sg84
I0
sg85
I0
ssg90
(dp1547
g1538
I0
sg1539
I0
sg1540
I0
sg1541
I18
ssg92
I0
sg93
(lp1548
g95
aI01
aI00
aI00
asg96
I0
sg97
S'Sthiael'
p1549
sg99
I3
sg100
I0
sg107
I12
sg102
I84
sg77
I2
sg105
I00
sg106
g32
sg108
(dp1550
S'RP1'
p1551
I7
sS'ME'
p1552
I7
sS'RP2'
p1553
I8
sS'E'
p1554
I11
sS'P'
p1555
I8
sS'JP'
p1556
I8
sS'M'
p1557
I8
sS'RP_tot'
p1558
I9
sS'TO'
p1559
I11
sS'PA'
p1560
I10
sS'A'
p1561
I13
sS'R'
p1562
I8
sS'TB'
p1563
I6
sS'PL'
p1564
I13
sS'TA'
p1565
I4
ssg127
g1532
sg128
g439
(g443
S'\x06\x00\x00\x00'
p1566
tp1567
Rp1568
sg31
g32
sg130
I0
sg131
I0
sg132
I0
sg133
F10.157894736842104
sg134
I0
sg135
(S'dummy'
p1569
S'TL'
p1570
g32
g32
tp1571
sg142
I1
sg86
(dp1572
g82
I0
sg83
I0
sg84
I0
sg85
I0
ssg144
(dp1573
S's13'
p1574
(ijoueur
joueur
p1575
(dp1576
g28
I0
sg30
F4.0
sg129
I0
sg33
I0
sg73
I1
sg36
I0
sg39
g1532
sg53
(dp1577
g150
I0
sg151
I0
sg152
I0
sg153
I0
ssg140
g1542
sg62
g32
sg154
I8
sg64
(dp1578
g156
I1
sg157
I1
sg158
g159
ssg70
I0
sg74
I0
sg75
I0
sg76
I0
sg103
g104
sg78
I00
sg127
g1532
sg79
F14.0
sg101
I00
sg88
(dp1579
g1538
I0
sg1539
I0
sg1540
I0
sg1541
I0
ssg90
g1547
sg92
I0
sg93
(lp1580
g166
aI01
aI00
aI00
asg80
(dp1581
g1538
I0
sg1539
I0
sg1540
I0
sg1541
I14
ssg97
S'Sthiael (13)'
p1582
sg99
I3
sg100
I0
sg107
I12
sg102
I84
sg135
g1571
sg108
(dp1583
g170
I0
sg171
I0
sg172
I0
sg173
I0
sg174
I0
sg175
I0
sg176
I0
sg177
I0
sg178
I0
sg179
I0
sg180
I0
sg181
I0
sg182
I0
sg183
I0
sg184
I0
ssg144
(dp1584
sg128
I0
sg31
g32
sg130
I0
sg131
F14.0
sg132
I0
sg133
F10.0
sg134
I0
sg142
I0
sg86
(dp1585
g1538
I0
sg1539
I0
sg1540
I0
sg1541
I0
ssg187
I0
sg125
(dp1586
g189
I13
sg190
I7
sg191
I8
sg192
I11
sg193
I11
sg194
I7
sg195
I7
sg196
I9
sg197
I8
sg198
I10
sg199
I8
sg200
I8
sg201
I6
sg202
I12
sg203
I4
ssg204
I0
sg205
I0
sg206
I0
sg207
I0
sg77
I0
sg208
I0
sg143
I0
sg96
I0
sg209
I0
sg210
S'HE'
p1587
sbsS's12'
p1588
(ijoueur
joueur
p1589
(dp1590
g28
I0
sg30
I0
sg129
I0
sg33
I0
sg73
I0
sg36
I0
sg39
g40
(g41
g42
Ntp1591
Rp1592
(dp1593
g47
g32
sbsg53
(dp1594
g1538
I0
sg1539
I0
sg1540
I0
sg1541
I0
ssg140
(dp1595
g1538
I0
sg1539
I0
sg1540
I0
sg1541
I0
ssg62
g32
sg154
I0
sg64
(dp1596
g156
I1
sg157
I1
sg158
g159
ssg70
I0
sg74
I0
sg75
I0
sg76
I0
sg103
g104
sg78
I00
sg127
g40
(g41
g42
Ntp1597
Rp1598
(dp1599
g47
g32
sbsg79
I0
sg101
I00
sg88
(dp1600
g1538
I0
sg1539
I0
sg1540
I0
sg1541
I0
ssg90
(dp1601
g1538
I0
sg1539
I0
sg1540
I0
sg1541
I0
ssg92
I0
sg93
(lp1602
g166
aI01
aI00
aI00
asg80
(dp1603
g1538
I0
sg1539
I0
sg1540
I0
sg1541
I0
ssg97
S'Sthiael (12)'
p1604
sg99
I0
sg100
I0
sg107
I0
sg102
I0
sg135
(g1569
g1570
g32
g32
tp1605
sg108
(dp1606
g1561
I0
sg1552
I0
sg1553
I0
sg1554
I0
sg1559
I0
sg1551
I0
sg1556
I0
sg1558
I0
sg1555
I0
sg1560
I0
sg1557
I0
sg1562
I0
sg1563
I0
sg1564
I0
sg1565
I0
ssg144
(dp1607
sg128
I0
sg31
g32
sg130
I0
sg131
I0
sg132
I0
sg133
F10.0
sg134
I0
sg142
I0
sg86
(dp1608
g1538
I0
sg1539
I0
sg1540
I0
sg1541
I0
ssg187
I0
sg125
(dp1609
g1551
I7
sg1552
I7
sg1553
I8
sg1554
I11
sg1559
I11
sg1557
I8
sg1556
I8
sg1558
I9
sg1555
I8
sg1560
I10
sg1561
I13
sg1562
I8
sg1563
I6
sg1564
I13
sg1565
I4
ssg204
I0
sg205
I0
sg206
I0
sg207
I0
sg77
I0
sg208
I0
sg143
I0
sg96
I0
sg209
I0
sg210
g32
sbsS's11'
p1610
(ijoueur
joueur
p1611
(dp1612
g28
I0
sg30
I0
sg129
I0
sg33
I0
sg73
I0
sg36
I0
sg39
g40
(g41
g42
Ntp1613
Rp1614
(dp1615
g47
g32
sbsg53
(dp1616
g1538
I0
sg1539
I0
sg1540
I0
sg1541
I0
ssg140
(dp1617
g1538
I0
sg1539
I0
sg1540
I0
sg1541
I0
ssg62
g32
sg154
I0
sg64
(dp1618
g156
I1
sg157
I1
sg158
g159
ssg70
I0
sg74
I0
sg75
I0
sg76
I0
sg103
g104
sg78
I00
sg127
g40
(g41
g42
Ntp1619
Rp1620
(dp1621
g47
g32
sbsg79
I0
sg101
I00
sg88
(dp1622
g1538
I0
sg1539
I0
sg1540
I0
sg1541
I0
ssg90
(dp1623
g1538
I0
sg1539
I0
sg1540
I0
sg1541
I0
ssg92
I0
sg93
(lp1624
g166
aI01
aI00
aI00
asg80
(dp1625
g1538
I0
sg1539
I0
sg1540
I0
sg1541
I0
ssg97
S'Sthiael (11)'
p1626
sg99
I0
sg100
I0
sg107
I0
sg102
I0
sg135
g1605
sg108
(dp1627
g1561
I0
sg1552
I0
sg1553
I0
sg1554
I0
sg1559
I0
sg1551
I0
sg1556
I0
sg1558
I0
sg1555
I0
sg1560
I0
sg1557
I0
sg1562
I0
sg1563
I0
sg1564
I0
sg1565
I0
ssg144
(dp1628
sg128
I0
sg31
g32
sg130
I0
sg131
I0
sg132
I0
sg133
F10.0
sg134
I0
sg142
I0
sg86
(dp1629
g1538
I0
sg1539
I0
sg1540
I0
sg1541
I0
ssg187
I0
sg125
g1609
sg204
I0
sg205
I0
sg206
I0
sg207
I0
sg77
I0
sg208
I0
sg143
I0
sg96
I0
sg209
I0
sg210
g32
sbssg187
I1
sg125
g1609
sg204
I0
sg205
I0
sg206
I0
sg207
I0
sg154
I8
sg208
I0
sg143
I0
sg209
I0
sg210
g1587
sbsS'drop1'
p1630
g392
sS'drop2'
p1631
g392
sS'SA_remp2'
p1632
(ijoueur
joueur
p1633
(dp1634
g28
I0
sg30
F0.5
sg129
I0
sg33
I0
sg34
F19.72818024929431
sg35
g32
sg36
I0
sg37
g32
sg38
I0
sg39
g40
(g41
g42
Ntp1635
Rp1636
(dp1637
g46
I2
sg47
S'^^'
p1638
sg49
S'special'
p1639
sbsg51
(dp1640
sg53
(dp1641
g1538
I0
sg1539
I0
sg1540
I0
sg1541
I0
ssg59
F8.63888888888889
sg140
(dp1642
g1538
I0
sg1539
I0
sg1540
I0
sg1541
I0
ssg61
I10
sg62
g32
sg64
(dp1643
g66
I3
sg67
I2
sg68
g548
ssg70
I0
sg71
F19.72818024929431
sg72
I01
sg73
I2
sg74
I0
sg75
I0
sg76
I0
sg103
g104
sg78
I00
sg79
F3.5
sg80
(dp1644
g82
I0
sg83
I0
sg84
I2
sg85
I0
ssg86
(dp1645
g82
I0
sg83
I0
sg84
I0
sg85
I0
ssg88
(dp1646
g82
I0
sg83
I0
sg84
I0
sg85
I0
ssg90
(dp1647
g1538
I0
sg1539
I0
sg1540
I7
sg1541
I1
ssg92
I0
sg93
(lp1648
g95
aI01
aI00
aI00
asg96
I0
sg97
S'Riendo'
p1649
sg99
I13
sg100
I0
sg101
I00
sg102
I31
sg77
I2
sg105
I00
sg106
g32
sg107
I23
sg108
(dp1650
g1551
I9
sg1552
I8
sg1553
I8
sg1554
I9
sg1555
I6
sg1556
I2
sg1557
I9
sg1558
I10
sg1559
I9
sg1560
I6
sg1561
I10
sg1562
I8
sg1563
I5
sg1564
I11
sg1565
I3
ssg127
g1636
sg128
I0
sg31
g32
sg130
I0
sg131
I0
sg132
I0
sg133
F9.172413793103448
sg134
I0
sg135
(g1569
S'N8'
p1651
g32
g32
tp1652
sg142
I3
sg143
I0
sg144
(dp1653
S's13'
p1654
(ijoueur
joueur
p1655
(dp1656
g28
I0
sg30
F2.5
sg129
I0
sg33
I0
sg73
I2
sg36
I0
sg39
g1636
sg53
(dp1657
g150
I0
sg151
I0
sg152
I0
sg153
I0
ssg140
g1642
sg62
g32
sg154
I1
sg64
(dp1658
g156
I1
sg157
I1
sg158
g159
ssg70
I0
sg74
I0
sg75
I0
sg76
I0
sg103
g104
sg78
I00
sg127
g40
(g41
g42
Ntp1659
Rp1660
(dp1661
g46
I1
sg47
S'<'
p1662
sg49
S'base'
p1663
sbsg79
F3.5
sg101
I00
sg88
(dp1664
g1538
I0
sg1539
I0
sg1540
I0
sg1541
I0
ssg90
g1647
sg92
I0
sg93
(lp1665
g166
aI01
aI00
aI00
asg80
(dp1666
g1538
I0
sg1539
I0
sg1540
I5
sg1541
I1
ssg97
S'Riendo (13)'
p1667
sg99
I13
sg100
I0
sg107
I23
sg102
I14
sg135
g1652
sg108
(dp1668
g170
I0
sg171
I0
sg172
I0
sg173
I0
sg174
I0
sg175
I0
sg176
I0
sg177
I0
sg178
I0
sg179
I0
sg180
I0
sg181
I0
sg182
I0
sg183
I0
sg184
I0
ssg144
(dp1669
sg128
I0
sg31
g32
sg130
I0
sg131
F3.5
sg132
I0
sg133
F8.63888888888889
sg134
I0
sg142
I0
sg86
(dp1670
g1538
I0
sg1539
I0
sg1540
I0
sg1541
I0
ssg187
I0
sg125
(dp1671
g189
I9
sg190
I8
sg191
I8
sg192
I8
sg193
I9
sg194
I9
sg195
I1
sg196
I10
sg197
I5
sg198
I6
sg199
I8
sg200
I8
sg201
I4
sg202
I9
sg203
I3
ssg204
I0
sg205
I0
sg206
I0
sg207
I0
sg77
I0
sg208
I0
sg143
I0
sg96
I0
sg209
I0
sg210
S'EST'
p1672
sbssg187
I0
sg125
(dp1673
g1551
I9
sg1552
I8
sg1553
I8
sg1554
I9
sg1559
I9
sg1557
I9
sg1556
I2
sg1558
I10
sg1555
I6
sg1560
I6
sg1561
I10
sg1562
I8
sg1563
I5
sg1564
I11
sg1565
I3
ssg204
I0
sg205
I0
sg206
I0
sg207
I0
sg154
I2
sg208
I0
sg209
I0
sg210
g1672
sbssg97
csip
_unpickle_type
p1674
(S'PyQt4.QtCore'
p1675
S'QString'
p1676
(VMAG_TO_c
p1677
tp1678
tp1679
Rp1680
sS'totaux'
p1681
(dp1682
g19
I0
sg20
I0
sg21
I0
ssS'_compo_defaut_fatigue'
p1683
Nsg108
(dp1684
g4
I0
sg5
I0
sg6
I0
sg7
I0
sg8
I0
sg9
I0
sg10
I0
sg11
I0
sg12
I0
sg13
I0
sg14
I0
sg15
I0
sg16
I0
ssS'joueurs'
p1685
(dp1686
S'n12'
p1687
(ijoueur
joueur
p1688
(dp1689
g28
I0
sg30
F2.0
sg129
I0
sg33
I0
sg34
F48.98214942534719
sg35
g32
sg36
I0
sg37
g32
sg38
I0
sg39
g40
(g41
g42
Ntp1690
Rp1691
(dp1692
g46
I4
sg47
S'*'
p1693
sg49
S'heros'
p1694
sbsg51
(dp1695
sg53
(dp1696
S'SR'
p1697
I0
sS'CT'
p1698
I0
sS'CR'
p1699
I6
sS'ST'
p1700
I0
ssg59
F8.233333333333333
sg140
(dp1701
g1697
I0
sg1698
I0
sg1699
I0
sg1700
I0
ssg61
I10
sg62
g32
sg64
(dp1702
S'couleur'
p1703
I2
sS'valeur'
p1704
I11
sS'r_n'
p1705
S'r'
p1706
ssg70
I0
sg71
F48.98214942534719
sg72
I01
sg73
I3
sg74
I0
sg75
I0
sg76
I0
sg103
S'MAG'
p1707
sg78
I00
sg79
F9.0
sg80
(dp1708
S'SR'
p1709
I0
sS'ST'
p1710
I0
sS'CR'
p1711
I2
sS'CT'
p1712
I0
ssg86
(dp1713
g1709
I0
sg1710
I0
sg1711
I3
sg1712
I0
ssg88
(dp1714
g1709
I0
sg1710
I0
sg1711
I0
sg1712
I0
ssg90
(dp1715
g1697
I0
sg1698
I5
sg1699
I7
sg1700
I0
ssg92
I0
sg93
(lp1716
S'dummy'
p1717
aI01
aI01
aI01
asg96
I0
sg97
S'Sual'
p1718
sg99
I13
sg100
I0
sg101
I00
sg102
I57
sg77
I3
sg105
I00
sg106
g32
sg107
I21
sg108
(dp1719
S'RP1'
p1720
I7
sS'ME'
p1721
I5
sS'RP2'
p1722
I10
sS'E'
p1723
I9
sS'TO'
p1724
I6
sS'M'
p1725
I8
sS'JP'
p1726
I9
sS'RP_tot'
p1727
I10
sS'P'
p1728
I11
sS'PA'
p1729
I9
sS'A'
p1730
I11
sS'R'
p1731
I9
sS'TB'
p1732
I9
sS'PL'
p1733
I8
sS'TA'
p1734
I7
ssg127
g1691
sg128
I3
sg31
g32
sg130
I0
sg131
I0
sg132
I0
sg133
F9.266666666666667
sg134
I0
sg135
(S'dummy'
p1735
S'C1'
p1736
S'DO'
p1737
S'AI'
p1738
tp1739
sg142
I0
sg143
I0
sg144
(dp1740
S's13'
p1741
(ijoueur
joueur
p1742
(dp1743
g28
I0
sg30
F5.0
sg129
I0
sg33
I0
sg73
I3
sg36
I0
sg39
g1691
sg53
(dp1744
S'SR'
p1745
I0
sS'ST'
p1746
I0
sS'CR'
p1747
I0
sS'CT'
p1748
I0
ssg140
g1701
sg62
g32
sg64
(dp1749
S'couleur'
p1750
I1
sS'valeur'
p1751
I1
sS'r_n'
p1752
S'n'
p1753
ssg70
I0
sg74
I1
sg75
I0
sg76
I0
sg135
g1739
sg78
I00
sg127
g40
(g41
g42
Ntp1754
Rp1755
(dp1756
g46
I3
sg47
S'<<<'
p1757
sg49
S'rare'
p1758
sbsg79
F9.0
sg101
I00
sg88
(dp1759
g1697
I0
sg1698
I0
sg1699
I0
sg1700
I0
ssg90
g1715
sg92
I0
sg93
(lp1760
S'dummy'
p1761
aI01
aI01
aI01
asg80
(dp1762
g1697
I0
sg1698
I5
sg1699
I5
sg1700
I0
ssg103
g1707
sg97
S'Sual (13)'
p1763
sg99
I13
sg100
I0
sg107
I21
sg102
I21
sg77
I0
sg108
(dp1764
S'A'
p1765
I0
sS'ME'
p1766
I0
sS'RP2'
p1767
I0
sS'E'
p1768
I0
sS'TO'
p1769
I0
sS'RP1'
p1770
I0
sS'JP'
p1771
I0
sS'RP_tot'
p1772
I0
sS'P'
p1773
I0
sS'PA'
p1774
I0
sS'M'
p1775
I0
sS'R'
p1776
I0
sS'TB'
p1777
I0
sS'PL'
p1778
I0
sS'TA'
p1779
I0
ssg144
(dp1780
sg128
I0
sg31
g32
sg130
I0
sg131
F9.0
sg132
I0
sg133
F8.233333333333333
sg134
I0
sg142
I0
sg86
(dp1781
g1697
I0
sg1698
I0
sg1699
I3
sg1700
I0
ssg187
I0
sg125
(dp1782
S'A'
p1783
I10
sS'ME'
p1784
I5
sS'RP2'
p1785
I8
sS'E'
p1786
I9
sS'P'
p1787
I9
sS'RP1'
p1788
I6
sS'JP'
p1789
I7
sS'RP_tot'
p1790
I8
sS'TO'
p1791
I5
sS'PA'
p1792
I8
sS'M'
p1793
I8
sS'R'
p1794
I8
sS'TB'
p1795
I6
sS'PL'
p1796
I7
sS'TA'
p1797
I7
ssg204
I0
sg205
I0
sg206
I0
sg207
I0
sg154
I2
sg208
I0
sg143
I0
sg96
I0
sg209
I0
sg210
S'EST'
p1798
sbssg187
I0
sg125
(dp1799
g1720
I7
sg1721
I5
sg1722
I10
sg1723
I9
sg1728
I11
sg1726
I9
sg1725
I8
sg1727
I10
sg1724
I6
sg1729
I9
sg1730
I11
sg1731
I9
sg1732
I9
sg1733
I8
sg1734
I7
ssg204
I0
sg205
I0
sg206
I0
sg207
I0
sg154
I5
sg208
I1
sg209
I0
sg210
g1798
sbsS'n13'
p1800
(ijoueur
joueur
p1801
(dp1802
g28
I0
sg30
F6.0
sg129
I0
sg33
I0
sg34
I0
sg35
g32
sg36
I0
sg37
g32
sg38
I0
sg39
g40
(g41
g42
Ntp1803
Rp1804
(dp1805
g46
I4
sg47
S'*'
p1806
sg49
S'heros'
p1807
sbsg51
(dp1808
sg53
(dp1809
S'SR'
p1810
I0
sS'CT'
p1811
I2
sS'CR'
p1812
I0
sS'ST'
p1813
I0
ssg59
F9.166666666666666
sg140
(dp1814
g1810
I0
sg1811
I0
sg1812
I0
sg1813
I0
ssg61
I10
sg62
S'BIL 14'
p1815
sg64
(dp1816
g1703
I4
sg1704
I6
sg1705
g1706
ssg70
I0
sg71
I0
sg72
I00
sg73
I1
sg74
I0
sg75
I0
sg76
I0
sg103
g1707
sg78
I00
sg79
F12.0
sg80
(dp1817
g1709
I0
sg1710
I0
sg1711
I0
sg1712
I0
ssg101
I00
sg88
(dp1818
g1709
I0
sg1710
I0
sg1711
I0
sg1712
I0
ssg90
(dp1819
g1810
I0
sg1811
I10
sg1812
I0
sg1813
I0
ssg92
I0
sg93
(lp1820
g1717
aI01
aI01
aI00
asg96
I0
sg97
S'Terel'
p1821
sg99
I7
sg100
I0
sg86
(dp1822
g1709
I0
sg1710
I0
sg1711
I0
sg1712
I0
ssg102
I101
sg77
I2
sg105
I00
sg106
g32
sg107
I18
sg108
(dp1823
S'RP1'
p1824
I8
sS'ME'
p1825
I6
sS'RP2'
p1826
I9
sS'E'
p1827
I9
sS'TO'
p1828
I5
sS'M'
p1829
I8
sS'JP'
p1830
I8
sS'RP_tot'
p1831
I10
sS'P'
p1832
I10
sS'PA'
p1833
I9
sS'A'
p1834
I10
sS'R'
p1835
I9
sS'TB'
p1836
I9
sS'PL'
p1837
I9
sS'TA'
p1838
I7
ssg127
g1804
sg128
I0
sg31
g32
sg130
I0
sg131
I0
sg132
I0
sg133
F9.166666666666666
sg134
I0
sg135
(S'dummy'
p1839
S'C1'
p1840
S'DO'
p1841
g32
tp1842
sg142
I0
sg143
I0
sg144
(dp1843
S's13'
p1844
(ijoueur
joueur
p1845
(dp1846
g28
I0
sg30
F6.0
sg129
I0
sg33
I0
sg73
I1
sg36
I0
sg39
g1804
sg53
(dp1847
S'SR'
p1848
I0
sS'ST'
p1849
I0
sS'CR'
p1850
I0
sS'CT'
p1851
I0
ssg140
g1814
sg62
g1815
sg64
(dp1852
g1750
I1
sg1751
I1
sg1752
g1753
ssg70
I0
sg74
I0
sg75
I0
sg76
I0
sg135
g1842
sg78
I00
sg127
g1804
sg79
F12.0
sg101
I00
sg88
(dp1853
g1810
I0
sg1811
I0
sg1812
I0
sg1813
I0
ssg90
g1819
sg92
I0
sg93
(lp1854
g1761
aI01
aI01
aI00
asg80
(dp1855
g1810
I0
sg1811
I10
sg1812
I0
sg1813
I0
ssg103
S'BIL'
p1856
sg97
S'Terel (13)'
p1857
sg99
I7
sg100
I0
sg107
I18
sg102
I101
sg77
I0
sg108
(dp1858
S'A'
p1859
I0
sS'ME'
p1860
I0
sS'RP2'
p1861
I0
sS'E'
p1862
I0
sS'TO'
p1863
I0
sS'RP1'
p1864
I0
sS'JP'
p1865
I0
sS'RP_tot'
p1866
I0
sS'P'
p1867
I0
sS'PA'
p1868
I0
sS'M'
p1869
I0
sS'R'
p1870
I0
sS'TB'
p1871
I0
sS'PL'
p1872
I0
sS'TA'
p1873
I0
ssg144
(dp1874
sg128
I0
sg31
g32
sg130
I0
sg131
F12.0
sg132
I0
sg133
F9.166666666666666
sg134
I0
sg142
I0
sg86
(dp1875
g1810
I0
sg1811
I2
sg1812
I0
sg1813
I0
ssg187
I0
sg125
(dp1876
g1783
I10
sg1784
I6
sg1785
I9
sg1786
I9
sg1787
I10
sg1788
I8
sg1789
I8
sg1790
I10
sg1791
I5
sg1792
I9
sg1793
I8
sg1794
I9
sg1795
I8
sg1796
I9
sg1797
I7
ssg204
I0
sg205
I0
sg206
I0
sg207
I0
sg154
I9
sg208
I0
sg143
I0
sg96
I0
sg209
I0
sg210
S'EST'
p1877
sbsS's12'
p1878
(ijoueur
joueur
p1879
(dp1880
g28
I0
sg30
I0
sg129
I0
sg33
I0
sg73
I0
sg36
I0
sg39
g40
(g41
g42
Ntp1881
Rp1882
(dp1883
g47
g32
sbsg53
(dp1884
g1810
I0
sg1811
I0
sg1812
I0
sg1813
I0
ssg140
(dp1885
g1810
I0
sg1811
I0
sg1812
I0
sg1813
I0
ssg62
g32
sg64
(dp1886
g1750
I1
sg1751
I1
sg1752
g1753
ssg70
I0
sg74
I0
sg75
I0
sg76
I0
sg135
(g1839
S'CE'
p1887
g32
g32
tp1888
sg78
I00
sg127
g40
(g41
g42
Ntp1889
Rp1890
(dp1891
g47
g32
sbsg79
I0
sg101
I00
sg88
(dp1892
g1810
I0
sg1811
I0
sg1812
I0
sg1813
I0
ssg90
(dp1893
g1810
I0
sg1811
I0
sg1812
I0
sg1813
I0
ssg92
I0
sg93
(lp1894
g1761
aI01
aI00
aI00
asg80
(dp1895
g1810
I0
sg1811
I0
sg1812
I0
sg1813
I0
ssg103
S'BIL'
p1896
sg97
S'Terel (12)'
p1897
sg99
I0
sg100
I0
sg107
I0
sg102
I0
sg77
I0
sg108
(dp1898
g1834
I0
sg1825
I0
sg1826
I0
sg1827
I0
sg1832
I0
sg1824
I0
sg1830
I0
sg1831
I0
sg1828
I0
sg1833
I0
sg1829
I0
sg1835
I0
sg1836
I0
sg1837
I0
sg1838
I0
ssg144
(dp1899
sg128
I0
sg31
g32
sg130
I0
sg131
I0
sg132
I0
sg133
F9.166666666666666
sg134
I0
sg142
I0
sg86
(dp1900
g1810
I0
sg1811
I0
sg1812
I0
sg1813
I0
ssg187
I0
sg125
(dp1901
g1824
I8
sg1825
I6
sg1826
I9
sg1827
I9
sg1832
I10
sg1830
I8
sg1829
I8
sg1831
I10
sg1828
I5
sg1833
I9
sg1834
I10
sg1835
I9
sg1836
I9
sg1837
I9
sg1838
I7
ssg204
I0
sg205
I0
sg206
I0
sg207
I0
sg154
I0
sg208
I0
sg143
I0
sg96
I0
sg209
I0
sg210
g32
sbsS's11'
p1902
(ijoueur
joueur
p1903
(dp1904
g28
I0
sg30
I0
sg129
I0
sg33
I0
sg73
I0
sg36
I0
sg39
g40
(g41
g42
Ntp1905
Rp1906
(dp1907
g47
g32
sbsg53
(dp1908
g1810
I0
sg1811
I0
sg1812
I0
sg1813
I0
ssg140
(dp1909
g1810
I0
sg1811
I0
sg1812
I0
sg1813
I0
ssg62
g32
sg64
(dp1910
g1750
I1
sg1751
I1
sg1752
g1753
ssg70
I0
sg74
I0
sg75
I0
sg76
I0
sg135
g1888
sg78
I00
sg127
g40
(g41
g42
Ntp1911
Rp1912
(dp1913
g47
g32
sbsg79
I0
sg101
I00
sg88
(dp1914
g1810
I0
sg1811
I0
sg1812
I0
sg1813
I0
ssg90
(dp1915
g1810
I0
sg1811
I0
sg1812
I0
sg1813
I0
ssg92
I0
sg93
(lp1916
g1761
aI01
aI00
aI00
asg80
(dp1917
g1810
I0
sg1811
I0
sg1812
I0
sg1813
I0
ssg103
g1896
sg97
S'Terel (11)'
p1918
sg99
I0
sg100
I0
sg107
I0
sg102
I0
sg77
I0
sg108
(dp1919
g1834
I0
sg1825
I0
sg1826
I0
sg1827
I0
sg1832
I0
sg1824
I0
sg1830
I0
sg1831
I0
sg1828
I0
sg1833
I0
sg1829
I0
sg1835
I0
sg1836
I0
sg1837
I0
sg1838
I0
ssg144
(dp1920
sg128
I0
sg31
g32
sg130
I0
sg131
I0
sg132
I0
sg133
F9.166666666666666
sg134
I0
sg142
I0
sg86
(dp1921
g1810
I0
sg1811
I0
sg1812
I0
sg1813
I0
ssg187
I0
sg125
g1901
sg204
I0
sg205
I0
sg206
I0
sg207
I0
sg154
I0
sg208
I0
sg143
I0
sg96
I0
sg209
I0
sg210
g32
sbssg187
I0
sg125
g1901
sg204
I0
sg205
I0
sg206
I0
sg207
I0
sg154
I9
sg208
I0
sg209
I0
sg210
g1877
sbsS'n10'
p1922
(ijoueur
joueur
p1923
(dp1924
g28
I0
sg30
F4.5
sg129
I1
sg33
I5
sg34
F48.98214942534719
sg35
g32
sg36
I0
sg37
g32
sg38
I0
sg39
g40
(g41
g42
Ntp1925
Rp1926
(dp1927
g46
I4
sg47
S'x'
p1928
sg49
S'heros'
p1929
sbsg51
(dp1930
sg53
(dp1931
S'SR'
p1932
I0
sS'ST'
p1933
I0
sS'CR'
p1934
I0
sS'CT'
p1935
I0
ssg59
F9.742857142857142
sg140
(dp1936
g1932
I0
sg1933
I0
sg1934
I0
sg1935
I0
ssg61
I10
sg62
g32
sg64
(dp1937
S'couleur'
p1938
I4
sS'valeur'
p1939
I12
sS'r_n'
p1940
S'r'
p1941
ssg70
I0
sg71
F48.98214942534719
sg72
I00
sg73
I2
sg74
I0
sg75
I0
sg76
I0
sg103
S'MAG'
p1942
sg78
I00
sg79
F15.5
sg80
(dp1943
S'SR'
p1944
I0
sS'CT'
p1945
I0
sS'CR'
p1946
I5
sS'ST'
p1947
I0
ssg86
(dp1948
g1944
I0
sg1945
I0
sg1946
I0
sg1947
I0
ssg88
(dp1949
g1944
I0
sg1945
I0
sg1946
I0
sg1947
I0
ssg90
(dp1950
g1932
I5
sg1933
I2
sg1934
I7
sg1935
I10
ssg92
I37
sg93
(lp1951
S'dummy'
p1952
aI01
aI00
aI00
asg96
I0
sg97
S'Klendo'
p1953
sg99
I8
sg100
I3
sg101
I00
sg102
I135
sg77
I3
sg105
I00
sg106
g32
sg107
I21
sg108
(dp1954
S'RP1'
p1955
I7
sS'ME'
p1956
I4
sS'RP2'
p1957
I8
sS'E'
p1958
I11
sS'P'
p1959
I11
sS'JP'
p1960
I8
sS'M'
p1961
I8
sS'RP_tot'
p1962
I9
sS'TO'
p1963
I7
sS'PA'
p1964
I11
sS'A'
p1965
I11
sS'R'
p1966
I7
sS'TB'
p1967
I11
sS'PL'
p1968
I9
sS'TA'
p1969
I4
ssg127
g1926
sg128
I3
sg31
g32
sg130
I0
sg131
I0
sg132
I0
sg133
F9.8
sg134
I2
sg135
(S'dummy'
p1970
S'DO'
p1971
g32
g32
tp1972
sg142
I0
sg143
I0
sg144
(dp1973
S's13'
p1974
(ijoueur
joueur
p1975
(dp1976
g28
I0
sg30
F4.5
sg129
I0
sg33
I0
sg73
I2
sg36
I0
sg39
g1926
sg53
(dp1977
S'SR'
p1978
I0
sS'CT'
p1979
I0
sS'CR'
p1980
I0
sS'ST'
p1981
I0
ssg140
g1936
sg77
I0
sg62
g32
sg64
(dp1982
S'couleur'
p1983
I1
sS'valeur'
p1984
I1
sS'r_n'
p1985
S'n'
p1986
ssg70
I1
sg74
I2
sg75
I2
sg76
I3
sg135
g1972
sg78
I00
sg127
g1926
sg79
F15.5
sg101
I00
sg88
(dp1987
g1932
I0
sg1933
I0
sg1934
I0
sg1935
I0
ssg90
g1950
sg92
I0
sg93
(lp1988
S'dummy'
p1989
aI01
aI00
aI00
asg80
(dp1990
g1932
I5
sg1933
I2
sg1934
I2
sg1935
I10
ssg97
g1953
sg99
I8
sg100
I0
sg107
I21
sg102
I135
sg103
g1942
sg108
(dp1991
S'A'
p1992
I0
sS'ME'
p1993
I0
sS'RP2'
p1994
I0
sS'E'
p1995
I0
sS'P'
p1996
I0
sS'RP1'
p1997
I0
sS'JP'
p1998
I0
sS'RP_tot'
p1999
I0
sS'TO'
p2000
I0
sS'PA'
p2001
I0
sS'M'
p2002
I0
sS'R'
p2003
I0
sS'TB'
p2004
I0
sS'PL'
p2005
I0
sS'TA'
p2006
I0
ssg144
(dp2007
sg128
I0
sg31
g32
sg130
I0
sg131
F15.5
sg132
I0
sg133
F9.742857142857142
sg134
I0
sg142
I0
sg86
(dp2008
g1932
I0
sg1933
I0
sg1934
I0
sg1935
I0
ssg187
I0
sg125
(dp2009
S'A'
p2010
I11
sS'ME'
p2011
I4
sS'RP2'
p2012
I8
sS'E'
p2013
I11
sS'TO'
p2014
I7
sS'RP1'
p2015
I7
sS'JP'
p2016
I8
sS'RP_tot'
p2017
I9
sS'P'
p2018
I11
sS'PA'
p2019
I11
sS'M'
p2020
I8
sS'R'
p2021
I7
sS'TB'
p2022
I10
sS'PL'
p2023
I9
sS'TA'
p2024
I4
ssg204
I0
sg205
I0
sg206
I5
sg207
I2
sg154
I13
sg208
I0
sg143
I0
sg96
I37
sg209
I0
sg210
S'EST'
p2025
sbsS's12'
p2026
(ijoueur
joueur
p2027
(dp2028
g28
I0
sg30
I0
sg129
I0
sg33
I0
sg73
I0
sg36
I0
sg39
g40
(g41
g42
Ntp2029
Rp2030
(dp2031
g47
g32
sbsg53
(dp2032
g1932
I0
sg1933
I0
sg1934
I0
sg1935
I0
ssg140
(dp2033
g1932
I0
sg1933
I0
sg1934
I0
sg1935
I0
ssg77
I0
sg62
g32
sg64
(dp2034
g1983
I1
sg1984
I1
sg1985
g1986
ssg70
I0
sg74
I0
sg75
I0
sg76
I0
sg135
(g1970
g1971
g32
g32
tp2035
sg78
I00
sg127
g40
(g41
g42
Ntp2036
Rp2037
(dp2038
g47
g32
sbsg79
I0
sg101
I00
sg88
(dp2039
g1932
I0
sg1933
I0
sg1934
I0
sg1935
I0
ssg90
(dp2040
g1932
I0
sg1933
I0
sg1934
I0
sg1935
I0
ssg92
I0
sg93
(lp2041
g1989
aI01
aI00
aI00
asg80
(dp2042
g1932
I0
sg1933
I0
sg1934
I0
sg1935
I0
ssg97
g32
sg99
I0
sg100
I0
sg107
I0
sg102
I0
sg103
g1942
sg108
(dp2043
g1965
I0
sg1956
I0
sg1957
I0
sg1958
I0
sg1963
I0
sg1955
I0
sg1960
I0
sg1962
I0
sg1959
I0
sg1964
I0
sg1961
I0
sg1966
I0
sg1967
I0
sg1968
I0
sg1969
I0
ssg144
(dp2044
sg128
I0
sg31
g32
sg130
I0
sg131
I0
sg132
I0
sg133
F9.742857142857142
sg134
I0
sg142
I0
sg86
(dp2045
g1932
I0
sg1933
I0
sg1934
I0
sg1935
I0
ssg187
I0
sg125
(dp2046
g1955
I7
sg1956
I4
sg1957
I8
sg1958
I11
sg1963
I7
sg1961
I8
sg1960
I8
sg1962
I9
sg1959
I11
sg1964
I11
sg1965
I11
sg1966
I7
sg1967
I11
sg1968
I9
sg1969
I4
ssg204
I0
sg205
I0
sg206
I0
sg207
I0
sg154
I0
sg208
I0
sg143
I0
sg96
I0
sg209
I0
sg210
g32
sbsS's11'
p2047
(ijoueur
joueur
p2048
(dp2049
g28
I0
sg30
I0
sg129
I0
sg33
I0
sg73
I0
sg36
I0
sg39
g40
(g41
g42
Ntp2050
Rp2051
(dp2052
g47
g32
sbsg53
(dp2053
g1932
I0
sg1933
I0
sg1934
I0
sg1935
I0
ssg140
(dp2054
g1932
I0
sg1933
I0
sg1934
I0
sg1935
I0
ssg77
I0
sg62
g32
sg64
(dp2055
g1983
I1
sg1984
I1
sg1985
g1986
ssg70
I0
sg74
I0
sg75
I0
sg76
I0
sg135
g2035
sg78
I00
sg127
g40
(g41
g42
Ntp2056
Rp2057
(dp2058
g47
g32
sbsg79
I0
sg101
I00
sg88
(dp2059
g1932
I0
sg1933
I0
sg1934
I0
sg1935
I0
ssg90
(dp2060
g1932
I0
sg1933
I0
sg1934
I0
sg1935
I0
ssg92
I0
sg93
(lp2061
g1989
aI01
aI00
aI00
asg80
(dp2062
g1932
I0
sg1933
I0
sg1934
I0
sg1935
I0
ssg97
g32
sg99
I0
sg100
I0
sg107
I0
sg102
I0
sg103
g1942
sg108
(dp2063
g1965
I0
sg1956
I0
sg1957
I0
sg1958
I0
sg1963
I0
sg1955
I0
sg1960
I0
sg1962
I0
sg1959
I0
sg1964
I0
sg1961
I0
sg1966
I0
sg1967
I0
sg1968
I0
sg1969
I0
ssg144
(dp2064
sg128
I0
sg31
g32
sg130
I0
sg131
I0
sg132
I0
sg133
F9.742857142857142
sg134
I0
sg142
I0
sg86
(dp2065
g1932
I0
sg1933
I0
sg1934
I0
sg1935
I0
ssg187
I0
sg125
g2046
sg204
I0
sg205
I0
sg206
I0
sg207
I0
sg154
I0
sg208
I0
sg143
I0
sg96
I0
sg209
I0
sg210
g32
sbssg187
I2
sg125
g2046
sg204
I0
sg205
I2
sg206
I0
sg207
I0
sg154
I13
sg208
I2
sg209
I0
sg210
g2025
sbsS'n11'
p2066
g392
sS'n16'
p2067
(ijoueur
joueur
p2068
(dp2069
g28
I0
sg30
F4.0
sg129
I0
sg33
I0
sg34
I0
sg35
g32
sg36
I0
sg37
g32
sg38
I0
sg39
g40
(g41
g42
Ntp2070
Rp2071
(dp2072
g46
I1
sg47
S'<'
p2073
sg49
S'base'
p2074
sbsg51
(dp2075
sg53
(dp2076
S'SR'
p2077
I0
sS'CT'
p2078
I0
sS'CR'
p2079
I5
sS'ST'
p2080
I0
ssg59
F8.241379310344827
sg140
(dp2081
g2077
I0
sg2078
I0
sg2079
I0
sg2080
I0
ssg61
I10
sg62
S'EKR 14'
p2082
sg64
(dp2083
S'couleur'
p2084
I3
sS'valeur'
p2085
I12
sS'r_n'
p2086
S'n'
p2087
ssg70
I0
sg71
I0
sg72
I00
sg73
I0
sg74
I0
sg75
I0
sg76
I0
sg103
S'MAG'
p2088
sg78
I00
sg79
F4.0
sg80
(dp2089
S'SR'
p2090
I0
sS'ST'
p2091
I0
sS'CR'
p2092
I0
sS'CT'
p2093
I0
ssg101
I00
sg88
(dp2094
g2090
I0
sg2091
I0
sg2092
I0
sg2093
I0
ssg90
(dp2095
g2077
I0
sg2078
I1
sg2079
I1
sg2080
I0
ssg92
I0
sg93
(lp2096
S'dummy'
p2097
aI01
aI01
aI00
asg96
I0
sg97
S'Louper'
p2098
sg99
I6
sg100
I0
sg86
(dp2099
g2090
I0
sg2091
I0
sg2092
I0
sg2093
I0
ssg102
I20
sg77
I0
sg105
I00
sg106
g32
sg107
I18
sg108
(dp2100
S'RP1'
p2101
I9
sS'ME'
p2102
I8
sS'RP2'
p2103
I7
sS'E'
p2104
I8
sS'TO'
p2105
I5
sS'M'
p2106
I9
sS'JP'
p2107
I2
sS'RP_tot'
p2108
I9
sS'P'
p2109
I6
sS'PA'
p2110
I6
sS'A'
p2111
I7
sS'R'
p2112
I9
sS'TB'
p2113
I3
sS'PL'
p2114
I7
sS'TA'
p2115
I11
ssg127
g2071
sg128
I0
sg31
g32
sg130
I1
sg131
I0
sg132
I0
sg133
F8.517241379310345
sg134
I0
sg135
(S'dummy'
p2116
g2115
S'PI'
p2117
g32
tp2118
sg142
I3
sg143
I0
sg144
(dp2119
S's13'
p2120
(ijoueur
joueur
p2121
(dp2122
g28
I0
sg30
F4.0
sg129
I0
sg33
I0
sg73
I0
sg36
I0
sg39
g2071
sg53
(dp2123
S'SR'
p2124
I0
sS'ST'
p2125
I0
sS'CR'
p2126
I0
sS'CT'
p2127
I0
ssg140
g2081
sg62
g2082
sg154
I2
sg64
(dp2128
S'couleur'
p2129
I1
sS'valeur'
p2130
I1
sS'r_n'
p2131
S'n'
p2132
ssg70
I0
sg74
I0
sg75
I0
sg76
I0
sg103
S'EKR'
p2133
sg78
I00
sg127
g2071
sg79
F4.0
sg101
I00
sg88
(dp2134
g2077
I0
sg2078
I0
sg2079
I0
sg2080
I0
ssg90
g2095
sg92
I0
sg93
(lp2135
S'dummy'
p2136
aI01
aI01
aI00
asg80
(dp2137
g2077
I0
sg2078
I1
sg2079
I1
sg2080
I0
ssg97
S'Louper (13)'
p2138
sg99
I6
sg100
I0
sg107
I18
sg102
I20
sg135
g2118
sg108
(dp2139
S'A'
p2140
I0
sS'ME'
p2141
I0
sS'RP2'
p2142
I0
sS'E'
p2143
I0
sS'TO'
p2144
I0
sS'RP1'
p2145
I0
sS'JP'
p2146
I0
sS'RP_tot'
p2147
I0
sS'P'
p2148
I0
sS'PA'
p2149
I0
sS'M'
p2150
I0
sS'R'
p2151
I0
sS'TB'
p2152
I0
sS'PL'
p2153
I0
sS'TA'
p2154
I0
ssg144
(dp2155
sg128
I0
sg31
g32
sg130
I0
sg131
F4.0
sg132
I0
sg133
F8.241379310344827
sg134
I0
sg142
I0
sg86
(dp2156
g2077
I0
sg2078
I0
sg2079
I5
sg2080
I0
ssg187
I0
sg125
(dp2157
S'A'
p2158
I7
sS'ME'
p2159
I8
sS'RP2'
p2160
I7
sS'E'
p2161
I8
sS'P'
p2162
I6
sS'RP1'
p2163
I8
sS'JP'
p2164
I2
sS'RP_tot'
p2165
I9
sS'TO'
p2166
I5
sS'PA'
p2167
I6
sS'M'
p2168
I9
sS'R'
p2169
I9
sS'TB'
p2170
I3
sS'PL'
p2171
I7
sS'TA'
p2172
I9
ssg204
I0
sg205
I0
sg206
I0
sg207
I0
sg77
I0
sg208
I0
sg143
I0
sg96
I0
sg209
I0
sg210
S'O'
p2173
sbsS's12'
p2174
(ijoueur
joueur
p2175
(dp2176
g28
I0
sg30
I0
sg129
I0
sg33
I0
sg73
I0
sg36
I0
sg39
g40
(g41
g42
Ntp2177
Rp2178
(dp2179
g47
g32
sbsg53
(dp2180
g2077
I0
sg2078
I0
sg2079
I0
sg2080
I0
ssg140
(dp2181
g2077
I0
sg2078
I0
sg2079
I0
sg2080
I0
ssg62
g32
sg154
I0
sg64
(dp2182
g2129
I1
sg2130
I1
sg2131
g2132
ssg70
I0
sg74
I0
sg75
I0
sg76
I0
sg103
S'EKR'
p2183
sg78
I00
sg127
g40
(g41
g42
Ntp2184
Rp2185
(dp2186
g47
g32
sbsg79
I0
sg101
I00
sg88
(dp2187
g2077
I0
sg2078
I0
sg2079
I0
sg2080
I0
ssg90
(dp2188
g2077
I0
sg2078
I0
sg2079
I0
sg2080
I0
ssg92
I0
sg93
(lp2189
g2136
aI01
aI00
aI00
asg80
(dp2190
g2077
I0
sg2078
I0
sg2079
I0
sg2080
I0
ssg97
S'Louper (12)'
p2191
sg99
I0
sg100
I0
sg107
I0
sg102
I0
sg135
(g2116
g2115
g32
g32
tp2192
sg108
(dp2193
g2111
I0
sg2102
I0
sg2103
I0
sg2104
I0
sg2109
I0
sg2101
I0
sg2107
I0
sg2108
I0
sg2105
I0
sg2110
I0
sg2106
I0
sg2112
I0
sg2113
I0
sg2114
I0
sg2115
I0
ssg144
(dp2194
sg128
I0
sg31
g32
sg130
I0
sg131
I0
sg132
I0
sg133
F8.241379310344827
sg134
I0
sg142
I0
sg86
(dp2195
g2077
I0
sg2078
I0
sg2079
I0
sg2080
I0
ssg187
I0
sg125
(dp2196
g2101
I9
sg2102
I8
sg2103
I7
sg2104
I8
sg2109
I6
sg2107
I2
sg2106
I9
sg2108
I9
sg2105
I5
sg2110
I6
sg2111
I7
sg2112
I9
sg2113
I3
sg2114
I7
sg2115
I11
ssg204
I0
sg205
I0
sg206
I0
sg207
I0
sg77
I0
sg208
I0
sg143
I0
sg96
I0
sg209
I0
sg210
g32
sbsS's11'
p2197
(ijoueur
joueur
p2198
(dp2199
g28
I0
sg30
I0
sg129
I0
sg33
I0
sg73
I0
sg36
I0
sg39
g40
(g41
g42
Ntp2200
Rp2201
(dp2202
g47
g32
sbsg53
(dp2203
g2077
I0
sg2078
I0
sg2079
I0
sg2080
I0
ssg140
(dp2204
g2077
I0
sg2078
I0
sg2079
I0
sg2080
I0
ssg62
g32
sg154
I0
sg64
(dp2205
g2129
I1
sg2130
I1
sg2131
g2132
ssg70
I0
sg74
I0
sg75
I0
sg76
I0
sg103
g2183
sg78
I00
sg127
g40
(g41
g42
Ntp2206
Rp2207
(dp2208
g47
g32
sbsg79
I0
sg101
I00
sg88
(dp2209
g2077
I0
sg2078
I0
sg2079
I0
sg2080
I0
ssg90
(dp2210
g2077
I0
sg2078
I0
sg2079
I0
sg2080
I0
ssg92
I0
sg93
(lp2211
g2136
aI01
aI00
aI00
asg80
(dp2212
g2077
I0
sg2078
I0
sg2079
I0
sg2080
I0
ssg97
S'Louper (11)'
p2213
sg99
I0
sg100
I0
sg107
I0
sg102
I0
sg135
g2192
sg108
(dp2214
g2111
I0
sg2102
I0
sg2103
I0
sg2104
I0
sg2109
I0
sg2101
I0
sg2107
I0
sg2108
I0
sg2105
I0
sg2110
I0
sg2106
I0
sg2112
I0
sg2113
I0
sg2114
I0
sg2115
I0
ssg144
(dp2215
sg128
I0
sg31
g32
sg130
I0
sg131
I0
sg132
I0
sg133
F8.241379310344827
sg134
I0
sg142
I0
sg86
(dp2216
g2077
I0
sg2078
I0
sg2079
I0
sg2080
I0
ssg187
I0
sg125
g2196
sg204
I0
sg205
I0
sg206
I0
sg207
I0
sg77
I0
sg208
I0
sg143
I0
sg96
I0
sg209
I0
sg210
g32
sbssg187
I0
sg125
g2196
sg204
I0
sg205
I0
sg206
I0
sg207
I0
sg154
I2
sg208
I0
sg209
I0
sg210
g2173
sbsS'n17'
p2217
(ijoueur
joueur
p2218
(dp2219
g28
I0
sg30
F0.0
sg129
I0
sg33
I0
sg34
I0
sg35
g32
sg36
I0
sg37
g32
sg38
I0
sg39
g40
(g41
g42
Ntp2220
Rp2221
(dp2222
g46
I4
sg47
S'x'
p2223
sg49
S'heros'
p2224
sbsg51
(dp2225
sg53
(dp2226
S'SR'
p2227
I0
sS'CT'
p2228
I0
sS'CR'
p2229
I0
sS'ST'
p2230
I0
ssg59
F8.481481481481481
sg60
I0
sg61
I10
sg62
S'vide 14'
p2231
sg64
(dp2232
S'couleur'
p2233
I2
sS'valeur'
p2234
I11
sS'r_n'
p2235
S'r'
p2236
ssg70
I0
sg71
I0
sg72
I01
sg73
I0
sg74
I0
sg75
I0
sg76
I0
sg77
I0
sg78
I00
sg79
F0.0
sg80
(dp2237
S'SR'
p2238
I0
sS'CT'
p2239
I0
sS'CR'
p2240
I0
sS'ST'
p2241
I0
ssg86
(dp2242
g2238
I0
sg2239
I0
sg2240
I0
sg2241
I0
ssg88
(dp2243
g2238
I0
sg2239
I0
sg2240
I0
sg2241
I0
ssg90
(dp2244
g2227
I0
sg2228
I0
sg2229
I0
sg2230
I0
ssg92
I0
sg93
(lp2245
S'dummy'
p2246
aI01
aI01
aI00
asg96
I0
sg97
S'Plendao'
p2247
sg99
I13
sg100
I0
sg101
I00
sg102
I41
sg103
S'MAG'
p2248
sg105
I00
sg106
g32
sg107
I22
sg108
(dp2249
S'RP1'
p2250
I7
sS'ME'
p2251
I11
sS'RP2'
p2252
I5
sS'E'
p2253
I10
sS'TO'
p2254
I8
sS'M'
p2255
I7
sS'JP'
p2256
I4
sS'RP_tot'
p2257
I7
sS'P'
p2258
I5
sS'PA'
p2259
I7
sS'A'
p2260
I8
sS'R'
p2261
I8
sS'TB'
p2262
I5
sS'PL'
p2263
I7
sS'TA'
p2264
I5
ssg127
g40
(g41
g42
Ntp2265
Rp2266
(dp2267
g46
I2
sg47
S'^^'
p2268
sg49
S'special'
p2269
sbsg128
I0
sg31
g32
sg130
I0
sg131
I0
sg132
I0
sg133
F8.481481481481481
sg134
I0
sg135
(S'dummy'
p2270
S'PI'
p2271
S'DL'
p2272
g32
tp2273
sg140
(dp2274
g2227
I0
sg2228
I0
sg2229
I0
sg2230
I0
ssg142
I-3
sg143
I0
sg144
(dp2275
S's13'
p2276
(ijoueur
joueur
p2277
(dp2278
g28
I0
sg30
F0.0
sg129
I0
sg33
I0
sg73
I1
sg36
I0
sg39
g2221
sg53
(dp2279
S'SR'
p2280
I0
sS'ST'
p2281
I0
sS'CR'
p2282
I0
sS'CT'
p2283
I0
ssg140
g2274
sg62
g2231
sg64
(dp2284
S'couleur'
p2285
I1
sS'valeur'
p2286
I1
sS'r_n'
p2287
S'n'
p2288
ssg70
I0
sg74
I0
sg75
I0
sg76
I0
sg135
g2273
sg78
I00
sg127
g40
(g41
g42
Ntp2289
Rp2290
(dp2291
g46
I1
sg47
S'<'
p2292
sg49
S'base'
p2293
sbsg79
F0.0
sg101
I00
sg88
(dp2294
g2227
I0
sg2228
I0
sg2229
I0
sg2230
I0
ssg90
g2244
sg92
I0
sg93
(lp2295
S'dummy'
p2296
aI01
aI01
aI00
asg80
(dp2297
g2227
I0
sg2228
I0
sg2229
I0
sg2230
I0
ssg103
S'vide'
p2298
sg97
S'Plendao (13)'
p2299
sg99
I13
sg100
I0
sg107
I22
sg102
I24
sg77
I0
sg108
(dp2300
S'A'
p2301
I0
sS'ME'
p2302
I0
sS'RP2'
p2303
I0
sS'E'
p2304
I0
sS'TO'
p2305
I0
sS'RP1'
p2306
I0
sS'JP'
p2307
I0
sS'RP_tot'
p2308
I0
sS'P'
p2309
I0
sS'PA'
p2310
I0
sS'M'
p2311
I0
sS'R'
p2312
I0
sS'TB'
p2313
I0
sS'PL'
p2314
I0
sS'TA'
p2315
I0
ssg144
(dp2316
sg128
I0
sg31
g32
sg130
I0
sg131
F0.0
sg132
I0
sg133
F8.481481481481481
sg134
I0
sg142
I0
sg86
(dp2317
g2227
I0
sg2228
I0
sg2229
I0
sg2230
I0
ssg187
I0
sg125
(dp2318
S'A'
p2319
I8
sS'ME'
p2320
I11
sS'RP2'
p2321
I5
sS'E'
p2322
I9
sS'TO'
p2323
I8
sS'RP1'
p2324
I7
sS'JP'
p2325
I3
sS'RP_tot'
p2326
I7
sS'P'
p2327
I4
sS'PA'
p2328
I7
sS'M'
p2329
I7
sS'R'
p2330
I8
sS'TB'
p2331
I4
sS'PL'
p2332
I8
sS'TA'
p2333
I6
ssg204
I0
sg205
I0
sg206
I0
sg207
I0
sg154
I3
sg208
I0
sg143
I0
sg96
I0
sg209
I0
sg210
S'EST'
p2334
sbssg187
I0
sg125
(dp2335
g2250
I7
sg2251
I11
sg2252
I5
sg2253
I10
sg2258
I5
sg2256
I4
sg2255
I7
sg2257
I7
sg2254
I8
sg2259
I7
sg2260
I8
sg2261
I8
sg2262
I5
sg2263
I7
sg2264
I5
ssg204
I0
sg205
I0
sg206
I0
sg207
I0
sg154
I4
sg208
I0
sg209
I0
sg210
g2334
sbsS'n14'
p2336
(ijoueur
joueur
p2337
(dp2338
g28
I0
sg30
F2.5
sg129
I0
sg33
I0
sg34
F48.98214942534719
sg35
g32
sg36
I0
sg37
g32
sg38
I0
sg39
g40
(g41
g42
Ntp2339
Rp2340
(dp2341
g46
I2
sg47
S'^^'
p2342
sg49
S'special'
p2343
sbsg51
(dp2344
sg53
(dp2345
g1697
I0
sg1698
I0
sg1699
I0
sg1700
I0
ssg59
F8.548387096774194
sg140
(dp2346
g1697
I0
sg1698
I0
sg1699
I0
sg1700
I0
ssg61
I10
sg62
g32
sg64
(dp2347
g1703
I3
sg1704
I7
sg1705
S'n'
p2348
ssg70
I0
sg71
F48.98214942534719
sg72
I01
sg73
I3
sg74
I0
sg75
I0
sg76
I0
sg103
g1707
sg78
I00
sg79
F9.5
sg80
(dp2349
g1709
I0
sg1710
I0
sg1711
I2
sg1712
I3
ssg86
(dp2350
g1709
I0
sg1710
I0
sg1711
I0
sg1712
I0
ssg88
(dp2351
g1709
I0
sg1710
I0
sg1711
I0
sg1712
I0
ssg90
(dp2352
g1697
I0
sg1698
I9
sg1699
I9
sg1700
I0
ssg92
I0
sg93
(lp2353
g1717
aI01
aI01
aI00
asg96
I0
sg97
S'Qiamuel'
p2354
sg99
I13
sg100
I0
sg101
I00
sg102
I30
sg77
I3
sg105
I00
sg106
g32
sg107
I20
sg108
(dp2355
g1720
I9
sg1721
I4
sg1722
I9
sg1723
I9
sg1724
I6
sg1725
I11
sg1726
I7
sg1727
I11
sg1728
I9
sg1729
I6
sg1730
I9
sg1731
I8
sg1732
I9
sg1733
I11
sg1734
I6
ssg127
g2340
sg128
g439
(g443
S'\x06\x00\x00\x00'
p2356
tp2357
Rp2358
sg31
g32
sg130
I0
sg131
I0
sg132
I0
sg133
F9.580645161290322
sg134
I0
sg135
(g1735
S'AI'
p2359
S'CE'
p2360
g32
tp2361
sg142
I5
sg143
I0
sg144
(dp2362
S's13'
p2363
(ijoueur
joueur
p2364
(dp2365
g28
I0
sg30
F5.5
sg129
I0
sg33
I0
sg73
I3
sg36
I0
sg39
g2340
sg53
(dp2366
g1745
I0
sg1746
I0
sg1747
I0
sg1748
I0
ssg140
g2346
sg62
g32
sg64
(dp2367
g1750
I1
sg1751
I1
sg1752
g1753
ssg70
I0
sg74
I0
sg75
I0
sg76
I0
sg135
g2361
sg78
I00
sg127
g40
(g41
g42
Ntp2368
Rp2369
(dp2370
g46
I1
sg47
S'^'
p2371
sg49
S'base'
p2372
sbsg79
F9.5
sg101
I00
sg88
(dp2373
g1697
I0
sg1698
I0
sg1699
I0
sg1700
I0
ssg90
g2352
sg92
I0
sg93
(lp2374
g1761
aI01
aI01
aI00
asg80
(dp2375
g1697
I0
sg1698
I6
sg1699
I7
sg1700
I0
ssg103
g1707
sg97
g2354
sg99
I13
sg100
I0
sg107
I20
sg102
I12
sg77
I0
sg108
(dp2376
g1765
I0
sg1766
I0
sg1767
I0
sg1768
I0
sg1769
I0
sg1770
I0
sg1771
I0
sg1772
I0
sg1773
I0
sg1774
I0
sg1775
I0
sg1776
I0
sg1777
I0
sg1778
I0
sg1779
I0
ssg144
(dp2377
sg128
I0
sg31
g32
sg130
I0
sg131
F9.5
sg132
I0
sg133
F8.548387096774194
sg134
I0
sg142
I0
sg86
(dp2378
g1697
I0
sg1698
I0
sg1699
I0
sg1700
I0
ssg187
I0
sg125
(dp2379
g1783
I9
sg1784
I4
sg1785
I9
sg1786
I8
sg1787
I8
sg1788
I9
sg1789
I6
sg1790
I11
sg1791
I6
sg1792
I6
sg1793
I10
sg1794
I7
sg1795
I7
sg1796
I6
sg1797
I6
ssg204
I0
sg205
I0
sg206
I0
sg207
I0
sg154
I1
sg208
I0
sg143
I0
sg96
I0
sg209
I0
sg210
g1798
sbssg187
I1
sg125
(dp2380
g1720
I9
sg1721
I4
sg1722
I9
sg1723
I9
sg1728
I9
sg1726
I7
sg1725
I11
sg1727
I11
sg1724
I6
sg1729
I6
sg1730
I9
sg1731
I8
sg1732
I9
sg1733
I11
sg1734
I6
ssg204
I0
sg205
I0
sg206
I0
sg207
I0
sg154
I2
sg208
I0
sg209
I1
sg210
g1798
sbsS'n15'
p2381
(ijoueur
joueur
p2382
(dp2383
g28
I0
sg30
F5.0
sg129
I0
sg33
I0
sg34
F29.207420938721068
sg35
g32
sg36
I0
sg37
g32
sg38
I0
sg39
g40
(g41
g42
Ntp2384
Rp2385
(dp2386
g46
I3
sg47
g1757
sg49
g1758
sbsg51
(dp2387
sg53
(dp2388
g1697
I0
sg1698
I0
sg1699
I2
sg1700
I0
ssg59
F8.689655172413794
sg140
(dp2389
g1697
I0
sg1698
I12
sg1699
I1
sg1700
I0
ssg61
I10
sg62
g32
sg64
(dp2390
g1703
I3
sg1704
I4
sg1705
g2348
ssg70
I0
sg71
F29.207420938721068
sg72
I00
sg73
I2
sg74
I0
sg75
I0
sg76
I0
sg103
g1707
sg78
I00
sg79
F12.0
sg80
(dp2391
g1709
I0
sg1710
I0
sg1711
I0
sg1712
I0
ssg86
(dp2392
g1709
I0
sg1710
I0
sg1711
I2
sg1712
I0
ssg88
(dp2393
g1709
I0
sg1710
I0
sg1711
I1
sg1712
I0
ssg90
(dp2394
g1697
I0
sg1698
I0
sg1699
I0
sg1700
I0
ssg92
I0
sg93
(lp2395
g1717
aI01
aI01
aI01
asg96
I0
sg97
S'Joalhen'
p2396
sg99
I10
sg100
I0
sg101
I00
sg102
I26
sg77
I3
sg105
I00
sg106
g32
sg107
I23
sg108
(dp2397
g1720
I9
sg1721
I4
sg1722
I6
sg1723
I9
sg1724
I4
sg1725
I9
sg1726
I7
sg1727
I9
sg1728
I10
sg1729
I8
sg1730
I9
sg1731
I8
sg1732
I7
sg1733
I11
sg1734
I4
ssg127
g2385
sg128
I3
sg31
g32
sg130
I0
sg131
I0
sg132
I0
sg133
F9.10344827586207
sg134
I0
sg135
(g1735
S'C2'
p2398
S'AR'
p2399
S'AI'
p2400
tp2401
sg142
I4
sg143
I0
sg144
(dp2402
S's13'
p2403
(ijoueur
joueur
p2404
(dp2405
g28
I0
sg30
F5.0
sg129
I0
sg33
I0
sg73
I2
sg36
I0
sg39
g2385
sg53
(dp2406
g1745
I0
sg1746
I0
sg1747
I0
sg1748
I0
ssg140
g2389
sg62
g32
sg64
(dp2407
g1750
I1
sg1751
I1
sg1752
g1753
ssg70
I0
sg74
I0
sg75
I0
sg76
I0
sg135
g2401
sg78
I00
sg127
g2385
sg79
F12.0
sg101
I00
sg88
(dp2408
g1697
I0
sg1698
I12
sg1699
I0
sg1700
I0
ssg90
g2394
sg92
I0
sg93
(lp2409
g1761
aI01
aI01
aI01
asg80
(dp2410
g1697
I0
sg1698
I0
sg1699
I0
sg1700
I0
ssg103
g1707
sg97
g2396
sg99
I10
sg100
I0
sg107
I23
sg102
I26
sg77
I0
sg108
(dp2411
g1765
I0
sg1766
I0
sg1767
I0
sg1768
I0
sg1769
I0
sg1770
I0
sg1771
I0
sg1772
I0
sg1773
I0
sg1774
I0
sg1775
I0
sg1776
I0
sg1777
I0
sg1778
I0
sg1779
I0
ssg144
(dp2412
sg128
I0
sg31
g32
sg130
I0
sg131
F12.0
sg132
I0
sg133
F8.689655172413794
sg134
I0
sg142
I0
sg86
(dp2413
g1697
I0
sg1698
I0
sg1699
I0
sg1700
I0
ssg187
I0
sg125
(dp2414
g1783
I9
sg1784
I4
sg1785
I6
sg1786
I9
sg1787
I8
sg1788
I8
sg1789
I7
sg1790
I8
sg1791
I4
sg1792
I8
sg1793
I9
sg1794
I8
sg1795
I7
sg1796
I10
sg1797
I4
ssg204
I0
sg205
I0
sg206
I0
sg207
I0
sg154
I2
sg208
I0
sg143
I0
sg96
I0
sg209
I0
sg210
g1798
sbsS's12'
p2415
(ijoueur
joueur
p2416
(dp2417
g28
I0
sg30
I0
sg129
I0
sg33
I0
sg73
I0
sg36
I0
sg39
g40
(g41
g42
Ntp2418
Rp2419
(dp2420
g47
g32
sbsg53
(dp2421
g1697
I0
sg1698
I0
sg1699
I0
sg1700
I0
ssg140
(dp2422
g1697
I0
sg1698
I0
sg1699
I0
sg1700
I0
ssg62
g32
sg64
(dp2423
g1750
I1
sg1751
I1
sg1752
g1753
ssg70
I0
sg74
I0
sg75
I0
sg76
I0
sg135
(g1735
S'CE'
p2424
g32
g32
tp2425
sg78
I00
sg127
g40
(g41
g42
Ntp2426
Rp2427
(dp2428
g47
g32
sbsg79
I0
sg101
I00
sg88
(dp2429
g1697
I0
sg1698
I0
sg1699
I0
sg1700
I0
ssg90
(dp2430
g1697
I0
sg1698
I0
sg1699
I0
sg1700
I0
ssg92
I0
sg93
(lp2431
g1761
aI01
aI00
aI00
asg80
(dp2432
g1697
I0
sg1698
I0
sg1699
I0
sg1700
I0
ssg103
g1707
sg97
g32
sg99
I0
sg100
I0
sg107
I0
sg102
I0
sg77
I0
sg108
(dp2433
g1730
I0
sg1721
I0
sg1722
I0
sg1723
I0
sg1728
I0
sg1720
I0
sg1726
I0
sg1727
I0
sg1724
I0
sg1729
I0
sg1725
I0
sg1731
I0
sg1732
I0
sg1733
I0
sg1734
I0
ssg144
(dp2434
sg128
I0
sg31
g32
sg130
I0
sg131
I0
sg132
I0
sg133
F8.689655172413794
sg134
I0
sg142
I0
sg86
(dp2435
g1697
I0
sg1698
I0
sg1699
I0
sg1700
I0
ssg187
I0
sg125
(dp2436
g1720
I9
sg1721
I4
sg1722
I6
sg1723
I9
sg1728
I10
sg1726
I7
sg1725
I9
sg1727
I9
sg1724
I4
sg1729
I8
sg1730
I9
sg1731
I8
sg1732
I7
sg1733
I11
sg1734
I4
ssg204
I0
sg205
I0
sg206
I0
sg207
I0
sg154
I0
sg208
I0
sg143
I0
sg96
I0
sg209
I0
sg210
g32
sbsS's11'
p2437
(ijoueur
joueur
p2438
(dp2439
g28
I0
sg30
I0
sg129
I0
sg33
I0
sg73
I0
sg36
I0
sg39
g40
(g41
g42
Ntp2440
Rp2441
(dp2442
g47
g32
sbsg53
(dp2443
g1697
I0
sg1698
I0
sg1699
I0
sg1700
I0
ssg140
(dp2444
g1697
I0
sg1698
I0
sg1699
I0
sg1700
I0
ssg62
g32
sg64
(dp2445
g1750
I1
sg1751
I1
sg1752
g1753
ssg70
I0
sg74
I0
sg75
I0
sg76
I0
sg135
g2425
sg78
I00
sg127
g40
(g41
g42
Ntp2446
Rp2447
(dp2448
g47
g32
sbsg79
I0
sg101
I00
sg88
(dp2449
g1697
I0
sg1698
I0
sg1699
I0
sg1700
I0
ssg90
(dp2450
g1697
I0
sg1698
I0
sg1699
I0
sg1700
I0
ssg92
I0
sg93
(lp2451
g1761
aI01
aI00
aI00
asg80
(dp2452
g1697
I0
sg1698
I0
sg1699
I0
sg1700
I0
ssg103
g1707
sg97
g32
sg99
I0
sg100
I0
sg107
I0
sg102
I0
sg77
I0
sg108
(dp2453
g1730
I0
sg1721
I0
sg1722
I0
sg1723
I0
sg1728
I0
sg1720
I0
sg1726
I0
sg1727
I0
sg1724
I0
sg1729
I0
sg1725
I0
sg1731
I0
sg1732
I0
sg1733
I0
sg1734
I0
ssg144
(dp2454
sg128
I0
sg31
g32
sg130
I0
sg131
I0
sg132
I0
sg133
F8.689655172413794
sg134
I0
sg142
I0
sg86
(dp2455
g1697
I0
sg1698
I0
sg1699
I0
sg1700
I0
ssg187
I0
sg125
g2436
sg204
I0
sg205
I0
sg206
I0
sg207
I0
sg154
I0
sg208
I0
sg143
I0
sg96
I0
sg209
I0
sg210
g32
sbssg187
I0
sg125
g2436
sg204
I0
sg205
I0
sg206
I0
sg207
I0
sg154
I2
sg208
I0
sg209
I0
sg210
g1798
sbsS'n18'
p2456
(ijoueur
joueur
p2457
(dp2458
g28
I0
sg30
F2.0
sg129
I0
sg33
I0
sg34
I0
sg35
g32
sg36
I0
sg37
g32
sg38
I0
sg39
g40
(g41
g42
Ntp2459
Rp2460
(dp2461
g46
I1
sg47
S'>'
p2462
sg49
S'base'
p2463
sbsg51
(dp2464
sg53
(dp2465
g1932
I0
sg1933
I0
sg1934
I0
sg1935
I1
ssg59
F8.444444444444445
sg140
(dp2466
g1932
I0
sg1933
I0
sg1934
I0
sg1935
I0
ssg61
I10
sg62
g32
sg64
(dp2467
g1938
I2
sg1939
I1
sg1940
g1941
ssg70
I0
sg71
I0
sg72
I01
sg73
I2
sg74
I0
sg75
I0
sg76
I0
sg103
g1942
sg78
I00
sg79
F5.0
sg80
(dp2468
g1944
I0
sg1945
I0
sg1946
I0
sg1947
I0
ssg86
(dp2469
g1944
I0
sg1945
I0
sg1946
I0
sg1947
I0
ssg88
(dp2470
g1944
I0
sg1945
I0
sg1946
I0
sg1947
I0
ssg90
(dp2471
g1932
I0
sg1933
I0
sg1934
I6
sg1935
I1
ssg92
I0
sg93
(lp2472
g1952
aI01
aI01
aI00
asg96
I0
sg97
S'Enrik'
p2473
sg99
I13
sg100
I0
sg101
I00
sg102
I9
sg77
I2
sg105
I00
sg106
g32
sg107
I24
sg108
(dp2474
g1955
I8
sg1956
I7
sg1957
I6
sg1958
I13
sg1959
I5
sg1960
I2
sg1961
I6
sg1962
I8
sg1963
I9
sg1964
I6
sg1965
I9
sg1966
I7
sg1967
I3
sg1968
I11
sg1969
I3
ssg127
g2460
sg128
I0
sg31
g32
sg130
I0
sg131
I0
sg132
I0
sg133
F8.764705882352942
sg134
I0
sg135
(g1970
S'DL'
p2475
S'TL'
p2476
g32
tp2477
sg142
I2
sg143
I0
sg144
(dp2478
S's13'
p2479
(ijoueur
joueur
p2480
(dp2481
g28
I0
sg30
F1.0
sg129
I0
sg33
I0
sg73
I3
sg36
I0
sg39
g2460
sg53
(dp2482
g1978
I0
sg1979
I0
sg1980
I0
sg1981
I0
ssg140
g2466
sg77
I0
sg62
g32
sg64
(dp2483
g1983
I1
sg1984
I1
sg1985
g1986
ssg70
I0
sg74
I0
sg75
I0
sg76
I0
sg135
g2477
sg78
I00
sg127
g2460
sg79
F5.0
sg101
I00
sg88
(dp2484
g1932
I0
sg1933
I0
sg1934
I0
sg1935
I0
ssg90
g2471
sg92
I0
sg93
(lp2485
g1989
aI01
aI01
aI00
asg80
(dp2486
g1932
I0
sg1933
I0
sg1934
I6
sg1935
I1
ssg97
S'Enrik (13)'
p2487
sg99
I13
sg100
I0
sg107
I24
sg102
I9
sg103
g1942
sg108
(dp2488
g1992
I0
sg1993
I0
sg1994
I0
sg1995
I0
sg1996
I0
sg1997
I0
sg1998
I0
sg1999
I0
sg2000
I0
sg2001
I0
sg2002
I0
sg2003
I0
sg2004
I0
sg2005
I0
sg2006
I0
ssg144
(dp2489
sg128
I0
sg31
g32
sg130
I0
sg131
F5.0
sg132
I0
sg133
F8.444444444444445
sg134
I0
sg142
I0
sg86
(dp2490
g1932
I0
sg1933
I0
sg1934
I0
sg1935
I1
ssg187
I0
sg125
(dp2491
g2010
I9
sg2011
I7
sg2012
I6
sg2013
I13
sg2014
I8
sg2015
I8
sg2016
I2
sg2017
I8
sg2018
I5
sg2019
I6
sg2020
I6
sg2021
I6
sg2022
I3
sg2023
I11
sg2024
I3
ssg204
I0
sg205
I0
sg206
I0
sg207
I0
sg154
I0
sg208
I0
sg143
I0
sg96
I0
sg209
I0
sg210
S'N'
p2492
sbssg187
I0
sg125
(dp2493
g1955
I8
sg1956
I7
sg1957
I6
sg1958
I13
sg1963
I9
sg1961
I6
sg1960
I2
sg1962
I8
sg1959
I5
sg1964
I6
sg1965
I9
sg1966
I7
sg1967
I3
sg1968
I11
sg1969
I3
ssg204
I0
sg205
I0
sg206
I0
sg207
I0
sg154
I0
sg208
I0
sg209
I0
sg210
g2492
sbsS'n19'
p2494
(ijoueur
joueur
p2495
(dp2496
g28
I0
sg30
F0.5
sg129
I0
sg33
I0
sg34
F19.72818024929431
sg35
g32
sg36
I0
sg37
g32
sg38
I0
sg39
g40
(g41
g42
Ntp2497
Rp2498
(dp2499
g46
I2
sg47
S'^^'
p2500
sg49
S'special'
p2501
sbsg51
(dp2502
sg53
(dp2503
g1932
I0
sg1933
I0
sg1934
I0
sg1935
I0
ssg59
F8.63888888888889
sg140
(dp2504
g1932
I0
sg1933
I0
sg1934
I0
sg1935
I0
ssg61
I10
sg62
g32
sg64
(dp2505
g1938
I3
sg1939
I2
sg1940
S'n'
p2506
ssg70
I0
sg71
F19.72818024929431
sg72
I01
sg73
I2
sg74
I0
sg75
I0
sg76
I0
sg103
g1942
sg78
I00
sg79
F3.5
sg80
(dp2507
g1944
I0
sg1945
I0
sg1946
I2
sg1947
I0
ssg86
(dp2508
g1944
I0
sg1945
I0
sg1946
I0
sg1947
I0
ssg88
(dp2509
g1944
I0
sg1945
I0
sg1946
I0
sg1947
I0
ssg90
(dp2510
g1932
I0
sg1933
I0
sg1934
I7
sg1935
I1
ssg92
I0
sg93
(lp2511
g1952
aI01
aI00
aI00
asg96
I0
sg97
S'Riendo'
p2512
sg99
I13
sg100
I0
sg101
I00
sg102
I31
sg77
I2
sg105
I00
sg106
g32
sg107
I23
sg108
(dp2513
g1955
I9
sg1956
I8
sg1957
I8
sg1958
I9
sg1959
I6
sg1960
I2
sg1961
I9
sg1962
I10
sg1963
I9
sg1964
I6
sg1965
I10
sg1966
I8
sg1967
I5
sg1968
I11
sg1969
I3
ssg127
g2498
sg128
I0
sg31
g32
sg130
I0
sg131
I0
sg132
I0
sg133
F9.172413793103448
sg134
I0
sg135
(g1970
S'N8'
p2514
g32
g32
tp2515
sg142
I3
sg143
I0
sg144
(dp2516
S's13'
p2517
(ijoueur
joueur
p2518
(dp2519
g28
I0
sg30
F2.5
sg129
I0
sg33
I0
sg73
I2
sg36
I0
sg39
g2498
sg53
(dp2520
g1978
I0
sg1979
I0
sg1980
I0
sg1981
I0
ssg140
g2504
sg77
I0
sg62
g32
sg64
(dp2521
g1983
I1
sg1984
I1
sg1985
g1986
ssg70
I0
sg74
I0
sg75
I0
sg76
I0
sg135
g2515
sg78
I00
sg127
g40
(g41
g42
Ntp2522
Rp2523
(dp2524
g46
I1
sg47
S'<'
p2525
sg49
g2463
sbsg79
F3.5
sg101
I00
sg88
(dp2526
g1932
I0
sg1933
I0
sg1934
I0
sg1935
I0
ssg90
g2510
sg92
I0
sg93
(lp2527
g1989
aI01
aI00
aI00
asg80
(dp2528
g1932
I0
sg1933
I0
sg1934
I5
sg1935
I1
ssg97
g2512
sg99
I13
sg100
I0
sg107
I23
sg102
I14
sg103
g1942
sg108
(dp2529
g1992
I0
sg1993
I0
sg1994
I0
sg1995
I0
sg1996
I0
sg1997
I0
sg1998
I0
sg1999
I0
sg2000
I0
sg2001
I0
sg2002
I0
sg2003
I0
sg2004
I0
sg2005
I0
sg2006
I0
ssg144
(dp2530
sg128
I0
sg31
g32
sg130
I0
sg131
F3.5
sg132
I0
sg133
F8.63888888888889
sg134
I0
sg142
I0
sg86
(dp2531
g1932
I0
sg1933
I0
sg1934
I0
sg1935
I0
ssg187
I0
sg125
(dp2532
g2010
I9
sg2011
I8
sg2012
I8
sg2013
I8
sg2014
I9
sg2015
I9
sg2016
I1
sg2017
I10
sg2018
I5
sg2019
I6
sg2020
I8
sg2021
I8
sg2022
I4
sg2023
I9
sg2024
I3
ssg204
I0
sg205
I0
sg206
I0
sg207
I0
sg154
I1
sg208
I0
sg143
I0
sg96
I0
sg209
I0
sg210
g2025
sbssg187
I0
sg125
(dp2533
g1955
I9
sg1956
I8
sg1957
I8
sg1958
I9
sg1963
I9
sg1961
I9
sg1960
I2
sg1962
I10
sg1959
I6
sg1964
I6
sg1965
I10
sg1966
I8
sg1967
I5
sg1968
I11
sg1969
I3
ssg204
I0
sg205
I0
sg206
I0
sg207
I0
sg154
I2
sg208
I0
sg209
I0
sg210
g2025
sbsS'n22'
p2534
(ijoueur
joueur
p2535
(dp2536
g28
I1
sg30
F2.0
sg129
I0
sg33
I0
sg34
I0
sg35
g32
sg36
I0
sg37
g32
sg38
I0
sg39
g40
(g41
g42
Ntp2537
Rp2538
(dp2539
g46
I4
sg47
S'x'
p2540
sg49
g1694
sbsg51
(dp2541
sg53
(dp2542
g1697
I0
sg1698
I0
sg1699
I0
sg1700
I0
ssg59
F8.454545454545455
sg140
(dp2543
g1697
I0
sg1698
I0
sg1699
I0
sg1700
I0
ssg61
I10
sg62
g32
sg64
(dp2544
g1703
I2
sg1704
I2
sg1705
g1706
ssg70
I0
sg71
I0
sg72
I01
sg73
I2
sg74
I0
sg75
I0
sg76
I0
sg103
g1707
sg78
I00
sg79
F5.0
sg80
(dp2545
g1709
I0
sg1710
I0
sg1711
I0
sg1712
I0
ssg86
(dp2546
g1709
I0
sg1710
I0
sg1711
I0
sg1712
I0
ssg88
(dp2547
g1709
I0
sg1710
I0
sg1711
I0
sg1712
I0
ssg90
(dp2548
g1697
I0
sg1698
I4
sg1699
I2
sg1700
I0
ssg92
I0
sg93
(lp2549
g1717
aI01
aI00
aI00
asg96
I0
sg97
S'Ztael'
p2550
sg99
I13
sg100
I0
sg101
I00
sg102
I36
sg77
I2
sg105
I00
sg106
g32
sg107
I23
sg108
(dp2551
g1720
I5
sg1721
I5
sg1722
I8
sg1723
I10
sg1724
I5
sg1725
I10
sg1726
I7
sg1727
I8
sg1728
I10
sg1729
I7
sg1730
I9
sg1731
I7
sg1732
I7
sg1733
I9
sg1734
I3
ssg127
g40
(g41
g42
Ntp2552
Rp2553
(dp2554
g46
I3
sg47
S'^^^'
p2555
sg49
S'rare'
p2556
sbsg128
I0
sg31
g32
sg130
I0
sg131
I0
sg132
I0
sg133
F8.787878787878787
sg134
I0
sg135
(g1735
S'AR'
p2557
g32
g32
tp2558
sg142
I1
sg143
I0
sg144
(dp2559
S's13'
p2560
(ijoueur
joueur
p2561
(dp2562
g28
I0
sg30
F1.0
sg129
I0
sg33
I0
sg73
I3
sg36
I0
sg39
g2538
sg53
(dp2563
g1745
I0
sg1746
I0
sg1747
I0
sg1748
I0
ssg140
g2543
sg62
g32
sg64
(dp2564
g1750
I1
sg1751
I1
sg1752
g1753
ssg70
I0
sg74
I0
sg75
I0
sg76
I0
sg135
g2558
sg78
I00
sg127
g40
(g41
g42
Ntp2565
Rp2566
(dp2567
g46
I2
sg47
g2342
sg49
g2343
sbsg79
F5.0
sg101
I00
sg88
(dp2568
g1697
I0
sg1698
I0
sg1699
I0
sg1700
I0
ssg90
g2548
sg92
I0
sg93
(lp2569
g1761
aI01
aI00
aI00
asg80
(dp2570
g1697
I0
sg1698
I4
sg1699
I2
sg1700
I0
ssg103
g1707
sg97
g2550
sg99
I13
sg100
I0
sg107
I23
sg102
I36
sg77
I0
sg108
(dp2571
g1765
I0
sg1766
I0
sg1767
I0
sg1768
I0
sg1769
I0
sg1770
I0
sg1771
I0
sg1772
I0
sg1773
I0
sg1774
I0
sg1775
I0
sg1776
I0
sg1777
I0
sg1778
I0
sg1779
I0
ssg144
(dp2572
sg128
I0
sg31
g32
sg130
I0
sg131
F5.0
sg132
I0
sg133
F8.454545454545455
sg134
I0
sg142
I0
sg86
(dp2573
g1697
I0
sg1698
I0
sg1699
I0
sg1700
I0
ssg187
I0
sg125
(dp2574
g1783
I8
sg1784
I5
sg1785
I8
sg1786
I10
sg1787
I9
sg1788
I5
sg1789
I7
sg1790
I8
sg1791
I4
sg1792
I6
sg1793
I10
sg1794
I7
sg1795
I7
sg1796
I9
sg1797
I3
ssg204
I0
sg205
I0
sg206
I0
sg207
I0
sg154
I3
sg208
I0
sg143
I0
sg96
I0
sg209
I0
sg210
g1798
sbssg187
I0
sg125
(dp2575
g1720
I5
sg1721
I5
sg1722
I8
sg1723
I10
sg1728
I10
sg1726
I7
sg1725
I10
sg1727
I8
sg1724
I5
sg1729
I7
sg1730
I9
sg1731
I7
sg1732
I7
sg1733
I9
sg1734
I3
ssg204
I0
sg205
I0
sg206
I0
sg207
I0
sg154
I3
sg208
I0
sg209
I0
sg210
g1798
sbsS'n21'
p2576
(ijoueur
joueur
p2577
(dp2578
g27
F8.827586206896552
sg28
I0
sg29
F8.89655172413793
sg30
F0.5
sg31
g32
sg33
I0
sg34
I0
sg36
I0
sg38
I0
sg39
g40
(g41
g42
Ntp2579
Rp2580
(dp2581
g46
I1
sg47
S'>'
p2582
sg49
S'base'
p2583
sbsg51
(dp2584
sg53
(dp2585
S'SR'
p2586
I0
sS'CT'
p2587
I0
sS'CR'
p2588
I0
sS'ST'
p2589
I0
ssg59
F8.89655172413793
sg60
I0
sg61
I10
sg1000
I0
sg64
(dp2590
g1703
I2
sg1704
I4
sg1705
g1706
ssg70
I0
sg71
I0
sg72
I00
sg73
I0
sg74
I0
sg75
I0
sg76
I0
sg77
I0
sg78
I00
sg79
F0.0
sg80
(dp2591
g1709
I0
sg1710
I0
sg1711
I0
sg1712
I0
ssg86
(dp2592
g1709
I0
sg1710
I0
sg1711
I0
sg1712
I0
ssg88
(dp2593
g1709
I0
sg1710
I0
sg1711
I0
sg1712
I0
ssg90
(dp2594
g2586
I0
sg2587
I0
sg2588
I1
sg2589
I0
ssg92
I0
sg93
(lp2595
g1717
aI01
aI01
aI00
asg96
I0
sg97
S'Vimeen'
p2596
sg99
I9
sg100
I0
sg101
I00
sg102
I31
sg103
g1707
sg105
I00
sg107
I20
sg108
(dp2597
S'A'
p2598
I10
sS'ME'
p2599
I4
sS'RP2'
p2600
I7
sS'E'
p2601
I10
sS'TO'
p2602
I7
sS'RP1'
p2603
I7
sS'JP'
p2604
I9
sS'RP_tot'
p2605
I8
sS'P'
p2606
I10
sS'PA'
p2607
I10
sS'M'
p2608
I8
sS'R'
p2609
I4
sS'TB'
p2610
I6
sS'PL'
p2611
I9
sS'TA'
p2612
I5
ssg125
(dp2613
g2598
I10
sg2599
I4
sg2600
I7
sg2601
I10
sg2606
I10
sg2603
I7
sg2604
I9
sg2605
I8
sg2602
I7
sg2607
I10
sg2608
I8
sg2609
I4
sg2610
I6
sg2611
I9
sg2612
I5
ssg127
g40
(g41
g42
Ntp2614
Rp2615
(dp2616
g46
I1
sg47
g2582
sg49
g2583
sbsg128
I0
sg129
I0
sg130
I0
sg131
I0
sg132
I0
sg133
F8.827586206896552
sg134
I0
sg135
(S'dummy'
p2617
S'C2'
p2618
S'AI'
p2619
g32
tp2620
sg140
(dp2621
g2586
I0
sg2587
I0
sg2588
I0
sg2589
I0
ssg142
I-1
sg143
I0
sg144
(dp2622
S's13'
p2623
(ijoueur
joueur
p2624
(dp2625
g28
I0
sg30
F0.5
sg129
I0
sg33
I0
sg73
I0
sg36
I0
sg39
g2580
sg53
(dp2626
S'SR'
p2627
I0
sS'CT'
p2628
I0
sS'CR'
p2629
I0
sS'ST'
p2630
I0
ssg140
g2621
sg62
S'HTH 13;vide 13;vide 14'
p2631
sg64
(dp2632
g1750
I1
sg1751
I1
sg1752
g1753
ssg70
I0
sg74
I0
sg75
I0
sg76
I0
sg135
g2620
sg78
I00
sg127
g2615
sg79
F0.0
sg101
I00
sg88
(dp2633
S'SR'
p2634
I0
sS'CT'
p2635
I0
sS'CR'
p2636
I0
sS'ST'
p2637
I0
ssg90
g2594
sg92
I0
sg93
(lp2638
g1761
aI01
aI01
aI00
asg80
(dp2639
g2634
I0
sg2635
I0
sg2636
I0
sg2637
I0
ssg103
S'vide'
p2640
sg97
g2596
sg99
I9
sg100
I0
sg107
I20
sg102
I31
sg77
I0
sg108
(dp2641
S'A'
p2642
I0
sS'ME'
p2643
I0
sS'RP2'
p2644
I0
sS'E'
p2645
I0
sS'P'
p2646
I0
sS'RP1'
p2647
I0
sS'JP'
p2648
I0
sS'RP_tot'
p2649
I0
sS'TO'
p2650
I0
sS'PA'
p2651
I0
sS'M'
p2652
I0
sS'R'
p2653
I0
sS'TB'
p2654
I0
sS'PL'
p2655
I0
sS'TA'
p2656
I0
ssg144
(dp2657
sg128
I0
sg31
g32
sg130
I0
sg131
F0.0
sg132
I0
sg133
F8.89655172413793
sg134
I0
sg142
I0
sg86
(dp2658
g2634
I0
sg2635
I0
sg2636
I0
sg2637
I0
ssg187
I0
sg125
(dp2659
g1783
I10
sg1784
I4
sg1785
I7
sg1786
I10
sg1787
I10
sg1788
I7
sg1789
I9
sg1790
I8
sg1791
I7
sg1792
I10
sg1793
I8
sg1794
I5
sg1795
I6
sg1796
I9
sg1797
I5
ssg204
I0
sg205
I0
sg206
I0
sg207
I0
sg154
I2
sg208
I0
sg143
I0
sg96
I0
sg209
I0
sg210
S'HE'
p2660
sbsS's12'
p2661
(ijoueur
joueur
p2662
(dp2663
g27
F8.827586206896552
sg28
I0
sg30
F0.5
sg31
g32
sg33
I0
sg73
I0
sg36
I0
sg39
g40
(g41
g42
Ntp2664
Rp2665
(dp2666
g46
I1
sg47
S'>'
p2667
sg49
S'base'
p2668
sbsg53
(dp2669
S'SR'
p2670
I0
sS'CT'
p2671
I0
sS'CR'
p2672
I0
sS'ST'
p2673
I0
ssg140
(dp2674
g2670
I0
sg2671
I0
sg2672
I0
sg2673
I0
ssg1000
I0
sg64
(dp2675
g1750
I1
sg1751
I1
sg1752
g1753
ssg70
I0
sg74
I0
sg75
I0
sg76
I0
sg135
(S'dummy'
p2676
S'C2'
p2677
S'AI'
p2678
g32
tp2679
sg78
I01
sg127
g40
(g41
g42
Ntp2680
Rp2681
(dp2682
g46
I1
sg47
g2667
sg49
g2668
sbsg79
F2.5
sg101
I01
sg88
(dp2683
S'SR'
p2684
I0
sS'CT'
p2685
I0
sS'CR'
p2686
I0
sS'ST'
p2687
I0
ssg90
(dp2688
g2670
I0
sg2671
I0
sg2672
I1
sg2673
I0
ssg92
I0
sg93
(lp2689
g1761
aI01
aI01
aI00
asg80
(dp2690
g2684
I0
sg2685
I0
sg2686
I1
sg2687
I0
ssg103
S'HTH'
p2691
sg97
S'Vimeen'
p2692
sg99
I9
sg100
I0
sg107
I20
sg102
I23
sg77
I0
sg108
(dp2693
S'A'
p2694
I10
sS'ME'
p2695
I4
sS'RP2'
p2696
I8
sS'E'
p2697
I10
sS'P'
p2698
I10
sS'RP1'
p2699
I7
sS'JP'
p2700
I9
sS'RP_tot'
p2701
I8
sS'TO'
p2702
I7
sS'PA'
p2703
I10
sS'M'
p2704
I8
sS'R'
p2705
I5
sS'TB'
p2706
I6
sS'PL'
p2707
I9
sS'TA'
p2708
I5
ssg144
(dp2709
S's11'
p2710
(ijoueur
joueur
p2711
(dp2712
g28
I0
sg33
I0
sg36
I0
sg39
g40
(g41
g42
Ntp2713
Rp2714
(dp2715
g46
I1
sg47
S'>'
p2716
sg49
S'base'
p2717
sbsg53
(dp2718
S'SR'
p2719
I0
sS'CT'
p2720
I0
sS'CR'
p2721
I0
sS'ST'
p2722
I0
ssg140
(dp2723
g2719
I0
sg2720
I0
sg2721
I0
sg2722
I0
ssg1000
I0
sg70
I0
sg101
I01
sg74
I0
sg75
I0
sg76
I0
sg135
(S'dummy'
p2724
S'C2'
p2725
S'AI'
p2726
g32
tp2727
sg78
I00
sg127
g40
(g41
g42
Ntp2728
Rp2729
(dp2730
g46
I1
sg47
g2716
sg49
g2717
sbsg80
(dp2731
g2719
I0
sg2720
I0
sg2721
I0
sg2722
I0
ssg86
(dp2732
g2719
I0
sg2720
I0
sg2721
I0
sg2722
I0
ssg88
(dp2733
g2719
I0
sg2720
I0
sg2721
I0
sg2722
I0
ssg90
(dp2734
g2719
I0
sg2720
I0
sg2721
I0
sg2722
I0
ssg92
I0
sg96
I0
sg97
S'Vimeen'
p2735
sg99
I9
sg100
I0
sg107
I20
sg102
I23
sg103
S'HTH'
p2736
sg108
(dp2737
S'A'
p2738
I11
sS'ME'
p2739
I4
sS'RP2'
p2740
I8
sS'E'
p2741
I10
sS'P'
p2742
I10
sS'RP1'
p2743
I7
sS'JP'
p2744
I8
sS'RP_tot'
p2745
I8
sS'TO'
p2746
I7
sS'PA'
p2747
I10
sS'M'
p2748
I8
sS'R'
p2749
I5
sS'TB'
p2750
I6
sS'PL'
p2751
I8
sS'TA'
p2752
I5
ssg128
I0
sg129
I0
sg130
I0
sg132
I0
sg133
F8.827586206896552
sg134
I0
sg143
I0
sg187
I0
sg304
(dp2753
S'A'
p2754
I11
sS'ME'
p2755
I4
sS'RP2'
p2756
I8
sS'E'
p2757
I10
sS'P'
p2758
I10
sS'RP1'
p2759
I7
sS'JP'
p2760
I8
sS'RP_tot'
p2761
I8
sS'TO'
p2762
I7
sS'PA'
p2763
I10
sS'M'
p2764
I8
sS'R'
p2765
I5
sS'TB'
p2766
I6
sS'PL'
p2767
I8
sS'TA'
p2768
I5
ssg125
g2737
sg204
I0
sg62
g32
sg205
I0
sg206
I0
sg207
I0
sg154
I1
sg208
I0
sg209
I0
sg210
S'HE'
p2769
sbssg128
I0
sg129
I0
sg130
I0
sg131
F0.5
sg132
I0
sg133
F8.89655172413793
sg134
I0
sg142
I0
sg86
(dp2770
g2684
I0
sg2685
I0
sg2686
I0
sg2687
I0
ssg187
I0
sg304
(dp2771
S'A'
p2772
I11
sS'ME'
p2773
I4
sS'RP2'
p2774
I8
sS'E'
p2775
I10
sS'TO'
p2776
I7
sS'RP1'
p2777
I7
sS'JP'
p2778
I8
sS'RP_tot'
p2779
I8
sS'P'
p2780
I10
sS'PA'
p2781
I10
sS'M'
p2782
I8
sS'R'
p2783
I5
sS'TB'
p2784
I6
sS'PL'
p2785
I8
sS'TA'
p2786
I5
ssg125
g2693
sg204
I0
sg62
g32
sg205
I0
sg206
I0
sg207
I0
sg154
I1
sg208
I0
sg143
I0
sg96
I0
sg209
I0
sg210
S'HE'
p2787
sbsS's11'
p2788
(ijoueur
joueur
p2789
(dp2790
g28
I0
sg30
F0.0
sg33
I0
sg73
I0
sg36
I0
sg39
g40
(g41
g42
Ntp2791
Rp2792
(dp2793
g46
I1
sg47
S'>'
p2794
sg49
S'base'
p2795
sbsg53
(dp2796
S'SR'
p2797
I0
sS'CT'
p2798
I0
sS'CR'
p2799
I0
sS'ST'
p2800
I0
ssg140
(dp2801
g2797
I0
sg2798
I0
sg2799
I0
sg2800
I0
ssg1000
I0
sg64
(dp2802
g1750
I1
sg1751
I1
sg1752
g1753
ssg70
I0
sg74
I0
sg75
I0
sg76
I0
sg135
(S'dummy'
p2803
S'C2'
p2804
S'AI'
p2805
g32
tp2806
sg78
I00
sg127
g40
(g41
g42
Ntp2807
Rp2808
(dp2809
g46
I1
sg47
g2794
sg49
g2795
sbsg79
F0.0
sg101
I01
sg88
(dp2810
g2797
I0
sg2798
I0
sg2799
I0
sg2800
I0
ssg90
(dp2811
g2797
I0
sg2798
I0
sg2799
I0
sg2800
I0
ssg92
I0
sg93
(lp2812
g1761
aI01
aI01
aI00
asg96
I0
sg103
S'HTH'
p2813
sg97
S'Vimeen'
p2814
sg99
I9
sg100
I0
sg107
I20
sg102
I23
sg77
I0
sg80
(dp2815
g2797
I0
sg2798
I0
sg2799
I0
sg2800
I0
ssg108
(dp2816
S'A'
p2817
I11
sS'ME'
p2818
I4
sS'RP2'
p2819
I8
sS'E'
p2820
I10
sS'P'
p2821
I10
sS'RP1'
p2822
I7
sS'JP'
p2823
I8
sS'RP_tot'
p2824
I8
sS'TO'
p2825
I7
sS'PA'
p2826
I10
sS'M'
p2827
I8
sS'R'
p2828
I5
sS'TB'
p2829
I6
sS'PL'
p2830
I8
sS'TA'
p2831
I5
ssg128
I0
sg129
I0
sg130
I0
sg131
F0.0
sg132
I0
sg133
F8.827586206896552
sg134
I0
sg142
I0
sg86
(dp2832
g2797
I0
sg2798
I0
sg2799
I0
sg2800
I0
ssg187
I0
sg304
(dp2833
S'A'
p2834
I11
sS'ME'
p2835
I4
sS'RP2'
p2836
I8
sS'E'
p2837
I10
sS'P'
p2838
I10
sS'RP1'
p2839
I7
sS'JP'
p2840
I8
sS'RP_tot'
p2841
I8
sS'TO'
p2842
I7
sS'PA'
p2843
I10
sS'M'
p2844
I8
sS'R'
p2845
I5
sS'TB'
p2846
I6
sS'PL'
p2847
I8
sS'TA'
p2848
I5
ssg125
g2816
sg204
I0
sg62
g32
sg205
I0
sg206
I0
sg207
I0
sg154
I1
sg208
I0
sg143
I0
sg209
I0
sg210
S'HE'
p2849
sbssg187
I0
sg304
(dp2850
S'A'
p2851
I11
sS'ME'
p2852
I4
sS'RP2'
p2853
I8
sS'E'
p2854
I10
sS'TO'
p2855
I7
sS'RP1'
p2856
I7
sS'JP'
p2857
I8
sS'RP_tot'
p2858
I8
sS'P'
p2859
I10
sS'PA'
p2860
I10
sS'M'
p2861
I8
sS'R'
p2862
I5
sS'TB'
p2863
I6
sS'PL'
p2864
I8
sS'TA'
p2865
I5
ssg204
I0
sg389
(dp2866
sg205
I0
sg62
S'HTH 13;vide 14'
p2867
sg206
I0
sg207
I0
sg154
I2
sg208
I0
sg209
I0
sg210
g2660
sbsS'n20'
p2868
(ijoueur
joueur
p2869
(dp2870
g27
F8.793103448275861
sg28
I0
sg29
F8.689655172413794
sg30
F3.0
sg31
g32
sg33
I1
sg34
I0
sg36
I0
sg38
I4
sg39
g40
(g41
g42
Ntp2871
Rp2872
(dp2873
g46
I1
sg47
S'^'
p2874
sg49
S'base'
p2875
sbsg51
(dp2876
sg53
(dp2877
S'SR'
p2878
I0
sS'CT'
p2879
I0
sS'CR'
p2880
I3
sS'ST'
p2881
I0
ssg59
F8.451612903225806
sg60
I0
sg1543
I8
sg1000
I0
sg64
(dp2882
g1703
I4
sg1704
I5
sg1705
g1706
ssg70
I0
sg549
I0
sg550
I0
sg72
I00
sg73
I0
sg74
I0
sg75
I0
sg76
I0
sg77
I0
sg78
I00
sg79
F0.0
sg80
(dp2883
g1709
I0
sg1710
I0
sg1711
I0
sg1712
I0
ssg101
I00
sg88
(dp2884
g1709
I0
sg1710
I0
sg1711
I0
sg1712
I0
ssg90
(dp2885
g2878
I0
sg2879
I0
sg2880
I2
sg2881
I0
ssg92
I0
sg93
(lp2886
g1717
aI01
aI01
aI01
asg96
I0
sg97
S'Olthyr'
p2887
sg99
I3
sg100
I0
sg107
I10
sg102
I27
sg103
g1707
sg105
I00
sg108
(dp2888
S'A'
p2889
I10
sS'ME'
p2890
I4
sS'RP2'
p2891
I7
sS'E'
p2892
I9
sS'TO'
p2893
I6
sS'RP1'
p2894
I5
sS'JP'
p2895
I9
sS'RP_tot'
p2896
I7
sS'P'
p2897
I7
sS'PA'
p2898
I10
sS'M'
p2899
I7
sS'R'
p2900
I7
sS'TB'
p2901
I10
sS'PL'
p2902
I6
sS'TA'
p2903
I1
ssg125
(dp2904
g2889
I10
sg2890
I4
sg2891
I7
sg2892
I9
sg2897
I7
sg2894
I5
sg2895
I9
sg2896
I7
sg2893
I6
sg2898
I10
sg2899
I7
sg2900
I7
sg2901
I10
sg2902
I6
sg2903
I1
ssg127
g40
(g41
g42
Ntp2905
Rp2906
(dp2907
g46
I1
sg47
g2874
sg49
g2875
sbsg128
I0
sg129
I0
sg130
I0
sg131
I0
sg132
I0
sg133
F8.419354838709678
sg134
I0
sg135
(S'dummy'
p2908
S'DM'
p2909
S'DO'
p2910
S'CE'
p2911
tp2912
sg140
(dp2913
g2878
I0
sg2879
I0
sg2880
I1
sg2881
I0
ssg71
I0
sg142
I-2
sg583
I1
sg86
(dp2914
g1709
I0
sg1710
I0
sg1711
I0
sg1712
I0
ssg144
(dp2915
S's13'
p2916
(ijoueur
joueur
p2917
(dp2918
g28
I0
sg30
F3.0
sg129
I0
sg33
I0
sg73
I0
sg36
I0
sg39
g2872
sg53
(dp2919
g2627
I0
sg2628
I0
sg2629
I0
sg2630
I0
ssg140
g2913
sg62
S'SN 9;PRG 12;vide 14'
p2920
sg64
(dp2921
g1750
I1
sg1751
I1
sg1752
g1753
ssg70
I0
sg74
I0
sg75
I0
sg76
I0
sg135
g2912
sg78
I00
sg127
g2906
sg79
F0.0
sg101
I00
sg88
(dp2922
g2634
I0
sg2635
I0
sg2636
I0
sg2637
I0
ssg90
g2885
sg92
I0
sg93
(lp2923
g1761
aI01
aI01
aI01
asg80
(dp2924
g2634
I0
sg2635
I0
sg2636
I0
sg2637
I0
ssg103
S'vide'
p2925
sg97
g2887
sg99
I3
sg100
I0
sg107
I10
sg102
I27
sg77
I0
sg108
(dp2926
g2642
I0
sg2643
I0
sg2644
I0
sg2645
I0
sg2646
I0
sg2647
I0
sg2648
I0
sg2649
I0
sg2650
I0
sg2651
I0
sg2652
I0
sg2653
I0
sg2654
I0
sg2655
I0
sg2656
I0
ssg144
(dp2927
sg128
I0
sg31
g32
sg130
I0
sg131
F0.0
sg132
I0
sg133
F8.451612903225806
sg134
I0
sg142
I0
sg86
(dp2928
g2634
I0
sg2635
I0
sg2636
I0
sg2637
I0
ssg187
I0
sg125
(dp2929
g1783
I10
sg1784
I4
sg1785
I8
sg1786
I9
sg1787
I7
sg1788
I6
sg1789
I9
sg1790
I8
sg1791
I6
sg1792
I10
sg1793
I7
sg1794
I7
sg1795
I9
sg1796
I6
sg1797
I1
ssg204
I0
sg205
I0
sg206
I0
sg207
I0
sg154
I2
sg208
I0
sg143
I0
sg96
I0
sg209
I0
sg210
S'EN'
p2930
sbsg2661
(ijoueur
joueur
p2931
(dp2932
g27
F8.793103448275861
sg28
I0
sg30
F3.0
sg31
g32
sg33
I1
sg73
I0
sg36
I0
sg39
g40
(g41
g42
Ntp2933
Rp2934
(dp2935
g46
I1
sg47
S'^'
p2936
sg49
S'base'
p2937
sbsg53
(dp2938
S'SR'
p2939
I0
sS'CT'
p2940
I0
sS'CR'
p2941
I3
sS'ST'
p2942
I0
ssg140
(dp2943
g2939
I0
sg2940
I0
sg2941
I1
sg2942
I0
ssg1000
I0
sg64
(dp2944
g1750
I1
sg1751
I1
sg1752
g1753
ssg70
I0
sg549
I0
sg550
I0
sg74
I0
sg75
I0
sg76
I0
sg135
(S'dummy'
p2945
S'DM'
p2946
S'DO'
p2947
S'CE'
p2948
tp2949
sg78
I00
sg79
F1.0
sg80
(dp2950
S'SR'
p2951
I0
sS'CT'
p2952
I0
sS'CR'
p2953
I0
sS'ST'
p2954
I0
ssg101
I00
sg88
(dp2955
g2951
I0
sg2952
I0
sg2953
I0
sg2954
I0
ssg90
(dp2956
g2939
I0
sg2940
I0
sg2941
I2
sg2942
I0
ssg92
I0
sg93
(lp2957
g1761
aI01
aI01
aI01
asg96
I0
sg103
S'vide'
p2958
sg97
S'Olthyr'
p2959
sg99
I3
sg100
I0
sg107
I10
sg102
I20
sg77
I0
sg108
(dp2960
S'A'
p2961
I10
sS'ME'
p2962
I4
sS'RP2'
p2963
I8
sS'E'
p2964
I10
sS'P'
p2965
I7
sS'RP1'
p2966
I6
sS'JP'
p2967
I9
sS'RP_tot'
p2968
I8
sS'TO'
p2969
I6
sS'PA'
p2970
I10
sS'M'
p2971
I8
sS'R'
p2972
I8
sS'TB'
p2973
I8
sS'PL'
p2974
I6
sS'TA'
p2975
I1
ssg127
g40
(g41
g42
Ntp2976
Rp2977
(dp2978
g46
I1
sg47
g2936
sg49
g2937
sbsg128
I0
sg129
I0
sg130
I0
sg131
F0.0
sg132
I0
sg133
F8.689655172413794
sg134
I0
sg142
I0
sg583
I1
sg86
(dp2979
g2951
I0
sg2952
I0
sg2953
I0
sg2954
I0
ssg144
(dp2980
S's11'
p2981
(ijoueur
joueur
p2982
(dp2983
g28
I0
sg33
I1
sg36
I0
sg39
g40
(g41
g42
Ntp2984
Rp2985
(dp2986
g46
I1
sg47
S'^'
p2987
sg49
S'base'
p2988
sbsg53
(dp2989
S'SR'
p2990
I0
sS'ST'
p2991
I0
sS'CR'
p2992
I3
sS'CT'
p2993
I0
ssg140
(dp2994
g2990
I0
sg2991
I0
sg2992
I1
sg2993
I0
ssg1000
I0
sg133
F8.793103448275861
sg70
I0
sg549
I0
sg550
I0
sg74
I0
sg75
I0
sg76
I0
sg135
(S'dummy'
p2995
S'DM'
p2996
S'DO'
p2997
S'CE'
p2998
tp2999
sg78
I01
sg127
g40
(g41
g42
Ntp3000
Rp3001
(dp3002
g46
I1
sg47
g2987
sg49
g2988
sbsg80
(dp3003
g2990
I0
sg2991
I0
sg2992
I2
sg2993
I0
ssg101
I00
sg88
(dp3004
g2990
I0
sg2991
I0
sg2992
I1
sg2993
I0
ssg90
(dp3005
g2990
I0
sg2991
I0
sg2992
I2
sg2993
I0
ssg92
I0
sg96
I0
sg97
S'Olthyr'
p3006
sg99
I3
sg100
I0
sg107
I10
sg102
I20
sg103
S'PRG'
p3007
sg108
(dp3008
S'A'
p3009
I10
sS'ME'
p3010
I4
sS'RP2'
p3011
I8
sS'E'
p3012
I10
sS'TO'
p3013
I6
sS'RP1'
p3014
I6
sS'JP'
p3015
I9
sS'RP_tot'
p3016
I8
sS'P'
p3017
I7
sS'PA'
p3018
I10
sS'M'
p3019
I9
sS'R'
p3020
I8
sS'TB'
p3021
I8
sS'PL'
p3022
I6
sS'TA'
p3023
I1
ssg128
I0
sg129
I0
sg130
I0
sg132
I0
sg86
(dp3024
g2990
I0
sg2991
I0
sg2992
I3
sg2993
I0
ssg134
I0
sg583
I1
sg143
I0
sg187
I0
sg304
(dp3025
S'A'
p3026
I10
sS'ME'
p3027
I4
sS'RP2'
p3028
I8
sS'E'
p3029
I10
sS'TO'
p3030
I6
sS'RP1'
p3031
I6
sS'JP'
p3032
I9
sS'RP_tot'
p3033
I8
sS'P'
p3034
I7
sS'PA'
p3035
I10
sS'M'
p3036
I9
sS'R'
p3037
I8
sS'TB'
p3038
I8
sS'PL'
p3039
I6
sS'TA'
p3040
I1
ssg125
g3008
sg204
I0
sg62
S'SN 9'
p3041
sg205
I0
sg206
I0
sg207
I0
sg154
I5
sg208
I2
sg209
I0
sg210
S'EN'
p3042
sbssg187
I0
sg304
(dp3043
g2961
I10
sg2962
I4
sg2963
I8
sg2964
I10
sg2969
I6
sg2966
I6
sg2967
I9
sg2968
I8
sg2965
I7
sg2970
I10
sg2971
I9
sg2972
I8
sg2973
I8
sg2974
I6
sg2975
I1
ssg125
g2960
sg204
I0
sg62
S'SN 9;PRG 12'
p3044
sg205
I0
sg206
I0
sg207
I0
sg154
I5
sg208
I2
sg143
I0
sg209
I0
sg210
S'EN'
p3045
sbsS's11'
p3046
(ijoueur
joueur
p3047
(dp3048
g28
I0
sg30
F3.0
sg33
I1
sg73
I0
sg36
I0
sg39
g40
(g41
g42
Ntp3049
Rp3050
(dp3051
g46
I1
sg47
S'^'
p3052
sg49
S'base'
p3053
sbsg53
(dp3054
S'SR'
p3055
I0
sS'ST'
p3056
I0
sS'CR'
p3057
I3
sS'CT'
p3058
I0
ssg140
(dp3059
g3055
I0
sg3056
I0
sg3057
I1
sg3058
I0
ssg1000
I0
sg64
(dp3060
g1750
I1
sg1751
I1
sg1752
g1753
ssg70
I0
sg549
I0
sg550
I0
sg74
I0
sg75
I0
sg76
I0
sg135
(S'dummy'
p3061
S'DM'
p3062
S'DO'
p3063
S'CE'
p3064
tp3065
sg78
I01
sg79
F3.0
sg80
(dp3066
g3055
I0
sg3056
I0
sg3057
I2
sg3058
I0
ssg101
I00
sg88
(dp3067
g3055
I0
sg3056
I0
sg3057
I1
sg3058
I0
ssg90
(dp3068
g3055
I0
sg3056
I0
sg3057
I2
sg3058
I0
ssg92
I0
sg93
(lp3069
g1761
aI01
aI01
aI01
asg96
I0
sg103
S'PRG'
p3070
sg97
S'Olthyr'
p3071
sg99
I3
sg100
I0
sg107
I10
sg102
I20
sg77
I0
sg108
(dp3072
S'A'
p3073
I10
sS'ME'
p3074
I4
sS'RP2'
p3075
I8
sS'E'
p3076
I10
sS'TO'
p3077
I6
sS'RP1'
p3078
I6
sS'JP'
p3079
I9
sS'RP_tot'
p3080
I8
sS'P'
p3081
I7
sS'PA'
p3082
I10
sS'M'
p3083
I9
sS'R'
p3084
I8
sS'TB'
p3085
I8
sS'PL'
p3086
I6
sS'TA'
p3087
I1
ssg127
g40
(g41
g42
Ntp3088
Rp3089
(dp3090
g46
I1
sg47
g3052
sg49
g3053
sbsg128
I0
sg129
I0
sg130
I0
sg131
F3.0
sg132
I0
sg133
F8.793103448275861
sg134
I0
sg142
I0
sg583
I1
sg86
(dp3091
g3055
I0
sg3056
I0
sg3057
I3
sg3058
I0
ssg187
I0
sg304
(dp3092
S'A'
p3093
I10
sS'ME'
p3094
I4
sS'RP2'
p3095
I8
sS'E'
p3096
I10
sS'TO'
p3097
I6
sS'RP1'
p3098
I6
sS'JP'
p3099
I9
sS'RP_tot'
p3100
I8
sS'P'
p3101
I7
sS'PA'
p3102
I10
sS'M'
p3103
I9
sS'R'
p3104
I8
sS'TB'
p3105
I8
sS'PL'
p3106
I6
sS'TA'
p3107
I1
ssg125
g3072
sg204
I0
sg62
S'SN 9'
p3108
sg205
I0
sg206
I0
sg207
I0
sg154
I5
sg208
I2
sg143
I0
sg209
I0
sg210
S'EN'
p3109
sbssg187
I0
sg304
(dp3110
g2889
I10
sg2890
I4
sg2891
I8
sg2892
I10
sg2893
I6
sg2894
I6
sg2895
I9
sg2896
I8
sg2897
I7
sg2898
I10
sg2899
I9
sg2900
I8
sg2901
I8
sg2902
I6
sg2903
I1
ssg204
I0
sg389
(dp3111
sg205
I0
sg62
g2920
sg206
I0
sg207
I0
sg154
I2
sg208
I2
sg143
I0
sg209
I0
sg210
g2930
sbsS'n8'
p3112
(ijoueur
joueur
p3113
(dp3114
g27
F8.241379310344827
sg28
I0
sg29
F8.758620689655173
sg30
F0.5
sg31
g32
sg33
I0
sg34
F48.98214942534719
sg35
g32
sg36
I0
sg37
g32
sg38
I0
sg39
g40
(g41
g42
Ntp3115
Rp3116
(dp3117
g46
I4
sg47
S'x'
p3118
sg49
S'heros'
p3119
sbsg51
(dp3120
sg53
(dp3121
S'SR'
p3122
I0
sS'CT'
p3123
I0
sS'CR'
p3124
I0
sS'ST'
p3125
I0
ssg59
F9.448275862068966
sg60
I0
sg61
I10
sg62
S'vide 13'
p3126
sg64
(dp3127
g407
I3
sg408
I9
sg409
S'n'
p3128
ssg70
I0
sg71
F48.98214942534719
sg72
I00
sg73
I2
sg74
I1
sg75
I0
sg76
I0
sg77
I1
sg78
I00
sg79
F9.5
sg80
(dp3129
g413
I0
sg414
I0
sg415
I0
sg416
I5
ssg86
(dp3130
g413
I0
sg414
I0
sg415
I0
sg416
I0
ssg88
(dp3131
g413
I0
sg414
I0
sg415
I0
sg416
I0
ssg90
(dp3132
g3122
I2
sg3123
I10
sg3124
I7
sg3125
I0
ssg92
I0
sg93
(lp3133
g421
aI01
aI00
aI00
asg96
I0
sg97
S'Lucas'
p3134
sg99
I9
sg100
I0
sg101
I00
sg102
I93
sg103
g411
sg105
I00
sg106
g32
sg107
I18
sg108
(dp3135
S'RP1'
p3136
I8
sS'ME'
p3137
I11
sS'RP2'
p3138
I9
sS'E'
p3139
I10
sS'TO'
p3140
I12
sS'M'
p3141
I9
sS'JP'
p3142
I5
sS'RP_tot'
p3143
I10
sS'P'
p3144
I6
sS'PA'
p3145
I10
sS'A'
p3146
I14
sS'R'
p3147
I11
sS'TB'
p3148
I7
sS'PL'
p3149
I12
sS'TA'
p3150
I5
ssg125
(dp3151
g3136
I8
sg3137
I11
sg3138
I9
sg3139
I10
sg3144
I6
sg3142
I5
sg3141
I9
sg3143
I10
sg3140
I12
sg3145
I10
sg3146
I14
sg3147
I11
sg3148
I7
sg3149
I12
sg3150
I5
ssg127
g3116
sg128
g439
(g443
S'\x07\x00\x00\x00'
p3152
tp3153
Rp3154
sg129
I0
sg130
I0
sg131
I0
sg132
I0
sg133
F11.25
sg134
I0
sg135
(S'dummy'
p3155
S'N8'
p3156
g32
g32
tp3157
sg140
(dp3158
g3122
I0
sg3123
I0
sg3124
I0
sg3125
I0
ssg142
I4
sg143
I0
sg144
(dp3159
S's13'
p3160
(ijoueur
joueur
p3161
(dp3162
g28
I0
sg30
F0.5
sg129
I0
sg33
I0
sg73
I2
sg36
I0
sg39
g3116
sg53
(dp3163
g458
I0
sg459
I0
sg460
I0
sg461
I0
ssg140
g3158
sg77
I0
sg62
g3126
sg64
(dp3164
g463
I1
sg464
I1
sg465
g466
ssg70
I0
sg74
I0
sg75
I0
sg76
I0
sg135
g3157
sg78
I00
sg127
g40
(g41
g42
Ntp3165
Rp3166
(dp3167
g46
I3
sg47
S'^^^'
p3168
sg49
S'rare'
p3169
sbsg79
F9.5
sg101
I00
sg88
(dp3170
S'SR'
p3171
I0
sS'CT'
p3172
I0
sS'CR'
p3173
I0
sS'ST'
p3174
I0
ssg90
g3132
sg92
I0
sg93
(lp3175
g474
aI01
aI00
aI00
asg80
(dp3176
g3171
I2
sg3172
I5
sg3173
I7
sg3174
I0
ssg97
g3134
sg99
I9
sg100
I0
sg107
I18
sg102
I28
sg103
g411
sg108
(dp3177
g477
I0
sg478
I0
sg479
I0
sg480
I0
sg481
I0
sg482
I0
sg483
I0
sg484
I0
sg485
I0
sg486
I0
sg487
I0
sg488
I0
sg489
I0
sg490
I0
sg491
I0
ssg144
(dp3178
sg128
I0
sg31
g32
sg130
I0
sg131
F9.5
sg132
I0
sg133
F9.448275862068966
sg134
I0
sg142
I0
sg86
(dp3179
g3171
I0
sg3172
I0
sg3173
I0
sg3174
I0
ssg187
I0
sg125
(dp3180
g495
I11
sg496
I10
sg497
I7
sg498
I10
sg499
I5
sg500
I7
sg501
I4
sg502
I8
sg503
I9
sg504
I8
sg505
I8
sg506
I10
sg507
I6
sg508
I9
sg509
I4
ssg204
I0
sg205
I0
sg206
I0
sg207
I0
sg154
I2
sg208
I0
sg143
I0
sg96
I0
sg209
I0
sg210
S'EST'
p3181
sbsS's12'
p3182
(ijoueur
joueur
p3183
(dp3184
g27
F8.241379310344827
sg28
I0
sg30
I0
sg31
g32
sg33
I0
sg73
I0
sg35
g32
sg36
I0
sg37
g32
sg39
g40
(g41
g42
Ntp3185
Rp3186
(dp3187
g46
I4
sg47
S'x'
p3188
sg49
S'heros'
p3189
sbsg53
(dp3190
S'SR'
p3191
I0
sS'ST'
p3192
I0
sS'CR'
p3193
I0
sS'CT'
p3194
I0
ssg140
(dp3195
g3191
I0
sg3192
I0
sg3193
I0
sg3194
I0
ssg62
g32
sg64
(dp3196
g463
I1
sg464
I1
sg465
g466
ssg70
I0
sg74
I0
sg75
I0
sg76
I0
sg103
S'vide'
p3197
sg78
I01
sg79
I0
sg80
(dp3198
S'SR'
p3199
I0
sS'ST'
p3200
I0
sS'CR'
p3201
I0
sS'CT'
p3202
I0
ssg101
I00
sg88
(dp3203
g3199
I0
sg3200
I0
sg3201
I0
sg3202
I0
ssg90
(dp3204
g3191
I0
sg3192
I0
sg3193
I0
sg3194
I0
ssg92
I0
sg93
(lp3205
g474
aI01
aI00
aI00
asg96
I0
sg97
S'Lucas'
p3206
sg99
I9
sg100
I0
sg107
I18
sg102
I28
sg77
I0
sg106
g32
sg108
(dp3207
S'RP1'
p3208
I7
sS'ME'
p3209
I10
sS'RP2'
p3210
I7
sS'E'
p3211
I9
sS'TO'
p3212
I7
sS'M'
p3213
I8
sS'JP'
p3214
I4
sS'RP_tot'
p3215
I7
sS'P'
p3216
I5
sS'PA'
p3217
I7
sS'A'
p3218
I10
sS'R'
p3219
I9
sS'TB'
p3220
I6
sS'PL'
p3221
I9
sS'TA'
p3222
I4
ssg127
g40
(g41
g42
Ntp3223
Rp3224
(dp3225
g46
I2
sg47
S'^^'
p3226
sg49
S'special'
p3227
sbsg128
I0
sg129
I0
sg130
I0
sg131
I0
sg132
I0
sg133
F8.758620689655173
sg134
I0
sg135
(S'dummy'
p3228
S'N8'
p3229
g32
g32
tp3230
sg142
I0
sg86
(dp3231
g3199
I0
sg3200
I0
sg3201
I0
sg3202
I0
ssg144
(dp3232
S's11'
p3233
(ijoueur
joueur
p3234
(dp3235
g28
I0
sg33
I0
sg35
g32
sg36
I0
sg37
g32
sg39
g40
(g41
g42
Ntp3236
Rp3237
(dp3238
g46
I4
sg47
S'x'
p3239
sg49
S'heros'
p3240
sbsg53
(dp3241
S'SR'
p3242
I0
sS'CT'
p3243
I0
sS'CR'
p3244
I0
sS'ST'
p3245
I0
ssg140
(dp3246
g3242
I0
sg3243
I0
sg3244
I0
sg3245
I0
ssg62
g32
sg70
I0
sg101
I01
sg74
I0
sg75
I0
sg76
I0
sg103
S'vide'
p3247
sg78
I00
sg127
g40
(g41
g42
Ntp3248
Rp3249
(dp3250
g46
I1
sg47
S'<'
p3251
sg49
S'base'
p3252
sbsg80
(dp3253
g3242
I0
sg3243
I0
sg3244
I0
sg3245
I0
ssg86
(dp3254
g3242
I0
sg3243
I0
sg3244
I0
sg3245
I0
ssg88
(dp3255
g3242
I0
sg3243
I0
sg3244
I0
sg3245
I0
ssg90
(dp3256
g3242
I0
sg3243
I0
sg3244
I0
sg3245
I0
ssg92
I0
sg96
I0
sg97
S'Lucas'
p3257
sg99
I9
sg100
I0
sg107
I18
sg102
I11
sg135
(S'dummy'
p3258
S'N8'
p3259
g32
g32
tp3260
sg106
g32
sg108
(dp3261
S'RP1'
p3262
I7
sS'ME'
p3263
I10
sS'RP2'
p3264
I7
sS'E'
p3265
I8
sS'P'
p3266
I4
sS'JP'
p3267
I3
sS'M'
p3268
I7
sS'RP_tot'
p3269
I7
sS'TO'
p3270
I7
sS'PA'
p3271
I7
sS'A'
p3272
I9
sS'R'
p3273
I8
sS'TB'
p3274
I5
sS'PL'
p3275
I9
sS'TA'
p3276
I4
ssg128
I0
sg129
I0
sg130
I0
sg132
I0
sg133
F8.241379310344827
sg134
I0
sg143
I0
sg187
I0
sg304
(dp3277
S'RP1'
p3278
I7
sS'ME'
p3279
I10
sS'RP2'
p3280
I7
sS'E'
p3281
I8
sS'P'
p3282
I4
sS'JP'
p3283
I3
sS'M'
p3284
I7
sS'RP_tot'
p3285
I7
sS'TO'
p3286
I7
sS'PA'
p3287
I7
sS'A'
p3288
I9
sS'R'
p3289
I8
sS'TB'
p3290
I5
sS'PL'
p3291
I9
sS'TA'
p3292
I4
ssg125
g3261
sg204
I0
sg205
I0
sg206
I0
sg207
I0
sg154
I1
sg208
I0
sg209
I0
sg210
S'EST'
p3293
sbssg187
I0
sg304
(dp3294
g3208
I7
sg3209
I10
sg3210
I7
sg3211
I8
sg3216
I4
sg3214
I3
sg3213
I7
sg3215
I7
sg3212
I7
sg3217
I7
sg3218
I9
sg3219
I8
sg3220
I5
sg3221
I9
sg3222
I4
ssg125
g3207
sg204
I0
sg205
I0
sg206
I0
sg207
I0
sg154
I2
sg208
I0
sg143
I0
sg209
I0
sg210
S'EST'
p3295
sbsS's11'
p3296
(ijoueur
joueur
p3297
(dp3298
g28
I0
sg30
F0.0
sg33
I0
sg73
I0
sg35
g32
sg36
I0
sg37
g32
sg39
g40
(g41
g42
Ntp3299
Rp3300
(dp3301
g46
I4
sg47
S'x'
p3302
sg49
S'heros'
p3303
sbsg53
(dp3304
S'SR'
p3305
I0
sS'ST'
p3306
I0
sS'CR'
p3307
I0
sS'CT'
p3308
I0
ssg140
(dp3309
g3305
I0
sg3306
I0
sg3307
I0
sg3308
I0
ssg62
g32
sg64
(dp3310
g463
I1
sg464
I1
sg465
g466
ssg70
I0
sg101
I01
sg74
I0
sg75
I0
sg76
I0
sg103
S'vide'
p3311
sg78
I00
sg79
F0.0
sg80
(dp3312
g3305
I0
sg3306
I0
sg3307
I0
sg3308
I0
ssg86
(dp3313
g3305
I0
sg3306
I0
sg3307
I0
sg3308
I0
ssg88
(dp3314
g3305
I0
sg3306
I0
sg3307
I0
sg3308
I0
ssg90
(dp3315
g3305
I0
sg3306
I0
sg3307
I0
sg3308
I0
ssg92
I0
sg93
(lp3316
g474
aI01
aI00
aI00
asg96
I0
sg97
S'Lucas'
p3317
sg99
I9
sg100
I0
sg107
I18
sg102
I11
sg77
I0
sg106
g32
sg108
(dp3318
S'RP1'
p3319
I7
sS'ME'
p3320
I10
sS'RP2'
p3321
I7
sS'E'
p3322
I8
sS'TO'
p3323
I7
sS'M'
p3324
I7
sS'JP'
p3325
I3
sS'RP_tot'
p3326
I7
sS'P'
p3327
I4
sS'PA'
p3328
I7
sS'A'
p3329
I9
sS'R'
p3330
I8
sS'TB'
p3331
I5
sS'PL'
p3332
I9
sS'TA'
p3333
I4
ssg127
g40
(g41
g42
Ntp3334
Rp3335
(dp3336
g46
I1
sg47
S'<'
p3337
sg49
S'base'
p3338
sbsg128
I0
sg129
I0
sg130
I0
sg131
F0.0
sg132
I0
sg133
F8.241379310344827
sg134
I0
sg135
(S'dummy'
p3339
S'N8'
p3340
g32
g32
tp3341
sg142
I0
sg143
I0
sg187
I0
sg304
(dp3342
S'RP1'
p3343
I7
sS'ME'
p3344
I10
sS'RP2'
p3345
I7
sS'E'
p3346
I8
sS'TO'
p3347
I7
sS'M'
p3348
I7
sS'JP'
p3349
I3
sS'RP_tot'
p3350
I7
sS'P'
p3351
I4
sS'PA'
p3352
I7
sS'A'
p3353
I9
sS'R'
p3354
I8
sS'TB'
p3355
I5
sS'PL'
p3356
I9
sS'TA'
p3357
I4
ssg125
g3318
sg204
I0
sg205
I0
sg206
I0
sg207
I0
sg154
I1
sg208
I0
sg209
I0
sg210
S'EST'
p3358
sbssg187
I0
sg304
(dp3359
g3136
I7
sg3137
I10
sg3138
I7
sg3139
I8
sg3140
I7
sg3141
I7
sg3142
I3
sg3143
I7
sg3144
I4
sg3145
I7
sg3146
I9
sg3147
I8
sg3148
I5
sg3149
I9
sg3150
I4
ssg204
I0
sg389
(dp3360
sg205
I0
sg206
I0
sg207
I0
sg154
I8
sg208
I1
sg209
I0
sg210
g3181
sbsS'n9'
p3361
(ijoueur
joueur
p3362
(dp3363
g28
I0
sg30
F1.0
sg129
I0
sg33
I0
sg34
I0
sg35
g32
sg36
I0
sg37
g32
sg38
I0
sg39
g40
(g41
g42
Ntp3364
Rp3365
(dp3366
g46
I2
sg47
g2500
sg49
g2501
sbsg51
(dp3367
sg53
(dp3368
g1932
I0
sg1933
I0
sg1934
I0
sg1935
I0
ssg59
F8.482758620689655
sg140
(dp3369
g1932
I0
sg1933
I0
sg1934
I0
sg1935
I0
ssg61
I10
sg62
g32
sg64
(dp3370
g1938
I2
sg1939
I2
sg1940
g1941
ssg70
I0
sg71
I0
sg72
I01
sg73
I0
sg74
I0
sg75
I0
sg76
I0
sg103
g1942
sg78
I00
sg79
F1.0
sg80
(dp3371
g1944
I0
sg1945
I0
sg1946
I0
sg1947
I0
ssg86
(dp3372
g1944
I0
sg1945
I0
sg1946
I0
sg1947
I0
ssg88
(dp3373
g1944
I0
sg1945
I0
sg1946
I0
sg1947
I0
ssg90
(dp3374
g1932
I0
sg1933
I0
sg1934
I2
sg1935
I0
ssg92
I0
sg93
(lp3375
g1952
aI01
aI00
aI00
asg96
I0
sg97
S'Eshiol'
p3376
sg99
I12
sg100
I0
sg101
I00
sg102
I31
sg77
I0
sg105
I00
sg106
g32
sg107
I23
sg108
(dp3377
g1955
I6
sg1956
I5
sg1957
I9
sg1958
I9
sg1959
I8
sg1960
I7
sg1961
I8
sg1962
I9
sg1963
I3
sg1964
I10
sg1965
I9
sg1966
I7
sg1967
I9
sg1968
I10
sg1969
I5
ssg127
g3365
sg128
I0
sg31
g32
sg130
I0
sg131
I0
sg132
I0
sg133
F8.838709677419354
sg134
I0
sg135
(g1970
S'DM'
p3378
g32
g32
tp3379
sg142
I-1
sg143
I0
sg144
(dp3380
S's13'
p3381
(ijoueur
joueur
p3382
(dp3383
g28
I0
sg30
F0.0
sg129
I0
sg33
I0
sg73
I1
sg36
I0
sg39
g3365
sg53
(dp3384
g1978
I0
sg1979
I0
sg1980
I0
sg1981
I0
ssg140
g3369
sg77
I0
sg62
g32
sg64
(dp3385
g1983
I1
sg1984
I1
sg1985
g1986
ssg70
I0
sg74
I0
sg75
I0
sg76
I0
sg135
g3379
sg78
I00
sg127
g40
(g41
g42
Ntp3386
Rp3387
(dp3388
g46
I1
sg47
g2525
sg49
g2463
sbsg79
F1.0
sg101
I00
sg88
(dp3389
g1932
I0
sg1933
I0
sg1934
I0
sg1935
I0
ssg90
g3374
sg92
I0
sg93
(lp3390
g1989
aI01
aI00
aI00
asg80
(dp3391
g1932
I0
sg1933
I0
sg1934
I2
sg1935
I0
ssg97
g3376
sg99
I12
sg100
I0
sg107
I23
sg102
I14
sg103
g1942
sg108
(dp3392
g1992
I0
sg1993
I0
sg1994
I0
sg1995
I0
sg1996
I0
sg1997
I0
sg1998
I0
sg1999
I0
sg2000
I0
sg2001
I0
sg2002
I0
sg2003
I0
sg2004
I0
sg2005
I0
sg2006
I0
ssg144
(dp3393
sg128
I0
sg31
g32
sg130
I0
sg131
F1.0
sg132
I0
sg133
F8.482758620689655
sg134
I0
sg142
I0
sg86
(dp3394
g1932
I0
sg1933
I0
sg1934
I0
sg1935
I0
ssg187
I0
sg125
(dp3395
g2010
I9
sg2011
I5
sg2012
I9
sg2013
I8
sg2014
I3
sg2015
I6
sg2016
I7
sg2017
I9
sg2018
I7
sg2019
I10
sg2020
I7
sg2021
I7
sg2022
I7
sg2023
I10
sg2024
I5
ssg204
I0
sg205
I0
sg206
I0
sg207
I0
sg154
I1
sg208
I0
sg143
I0
sg96
I0
sg209
I0
sg210
g2025
sbsS's12'
p3396
(ijoueur
joueur
p3397
(dp3398
g28
I0
sg30
I0
sg129
I0
sg33
I0
sg73
I0
sg36
I0
sg39
g40
(g41
g42
Ntp3399
Rp3400
(dp3401
g47
g32
sbsg53
(dp3402
g1932
I0
sg1933
I0
sg1934
I0
sg1935
I0
ssg140
(dp3403
g1932
I0
sg1933
I0
sg1934
I0
sg1935
I0
ssg77
I0
sg62
g32
sg64
(dp3404
g1983
I1
sg1984
I1
sg1985
g1986
ssg70
I0
sg74
I0
sg75
I0
sg76
I0
sg135
(g1970
g3378
g32
g32
tp3405
sg78
I00
sg127
g40
(g41
g42
Ntp3406
Rp3407
(dp3408
g47
g32
sbsg79
I0
sg101
I00
sg88
(dp3409
g1932
I0
sg1933
I0
sg1934
I0
sg1935
I0
ssg90
(dp3410
g1932
I0
sg1933
I0
sg1934
I0
sg1935
I0
ssg92
I0
sg93
(lp3411
g1989
aI01
aI00
aI00
asg80
(dp3412
g1932
I0
sg1933
I0
sg1934
I0
sg1935
I0
ssg97
g32
sg99
I0
sg100
I0
sg107
I0
sg102
I0
sg103
g1942
sg108
(dp3413
g1965
I0
sg1956
I0
sg1957
I0
sg1958
I0
sg1963
I0
sg1955
I0
sg1960
I0
sg1962
I0
sg1959
I0
sg1964
I0
sg1961
I0
sg1966
I0
sg1967
I0
sg1968
I0
sg1969
I0
ssg144
(dp3414
sg128
I0
sg31
g32
sg130
I0
sg131
I0
sg132
I0
sg133
F8.482758620689655
sg134
I0
sg142
I0
sg86
(dp3415
g1932
I0
sg1933
I0
sg1934
I0
sg1935
I0
ssg187
I0
sg125
(dp3416
g1955
I6
sg1956
I5
sg1957
I9
sg1958
I9
sg1963
I3
sg1961
I8
sg1960
I7
sg1962
I9
sg1959
I8
sg1964
I10
sg1965
I9
sg1966
I7
sg1967
I9
sg1968
I10
sg1969
I5
ssg204
I0
sg205
I0
sg206
I0
sg207
I0
sg154
I0
sg208
I0
sg143
I0
sg96
I0
sg209
I0
sg210
g32
sbssg187
I0
sg125
g3416
sg204
I0
sg205
I0
sg206
I0
sg207
I0
sg154
I2
sg208
I0
sg209
I0
sg210
g2025
sbsS'n1'
p3417
(ijoueur
joueur
p3418
(dp3419
g27
F7.703703703703703
sg28
I0
sg29
F8.310344827586206
sg30
F1.0
sg31
g32
sg33
I0
sg34
F48.98214942534719
sg36
I0
sg38
I0
sg39
g40
(g41
g42
Ntp3420
Rp3421
(dp3422
g46
I4
sg47
S'*'
p3423
sg49
S'heros'
p3424
sbsg51
(dp3425
sg53
(dp3426
S'SR'
p3427
I0
sS'ST'
p3428
I0
sS'CR'
p3429
I5
sS'CT'
p3430
I0
ssg59
F8.793103448275861
sg60
I0
sg61
I10
sg1000
I0
sg64
(dp3431
g2233
I1
sg2234
I11
sg2235
S'n'
p3432
ssg70
I0
sg71
F48.98214942534719
sg72
I01
sg73
I1
sg74
I0
sg75
I0
sg76
I0
sg77
I0
sg78
I00
sg79
F0.0
sg80
(dp3433
g2238
I0
sg2239
I0
sg2240
I0
sg2241
I0
ssg101
I00
sg88
(dp3434
g2238
I0
sg2239
I0
sg2240
I0
sg2241
I0
ssg90
(dp3435
g3427
I0
sg3428
I0
sg3429
I0
sg3430
I1
ssg92
I0
sg93
(lp3436
g2246
aI01
aI01
aI00
asg96
I0
sg97
S'Clebe'
p3437
sg99
I11
sg100
I0
sg86
(dp3438
g2238
I0
sg2239
I0
sg2240
I5
sg2241
I0
ssg102
I107
sg103
g2248
sg105
I00
sg107
I25
sg108
(dp3439
S'A'
p3440
I8
sS'ME'
p3441
I11
sS'RP2'
p3442
I9
sS'E'
p3443
I12
sS'P'
p3444
I5
sS'RP1'
p3445
I10
sS'JP'
p3446
I5
sS'RP_tot'
p3447
I11
sS'TO'
p3448
I8
sS'PA'
p3449
I8
sS'M'
p3450
I9
sS'R'
p3451
I6
sS'TB'
p3452
I6
sS'PL'
p3453
I7
sS'TA'
p3454
I10
ssg125
(dp3455
g3440
I8
sg3441
I11
sg3442
I9
sg3443
I12
sg3448
I8
sg3445
I10
sg3446
I5
sg3447
I11
sg3444
I5
sg3449
I8
sg3450
I9
sg3451
I6
sg3452
I6
sg3453
I7
sg3454
I10
ssg127
g3421
sg128
I5
sg129
I0
sg130
I0
sg131
I0
sg132
I0
sg133
F9.10344827586207
sg134
I0
sg135
(S'dummy'
p3456
S'PI'
p3457
S'TA'
p3458
g32
tp3459
sg140
(dp3460
g3427
I0
sg3428
I0
sg3429
I0
sg3430
I0
ssg142
I3
sg143
I0
sg144
(dp3461
S's13'
p3462
(ijoueur
joueur
p3463
(dp3464
g28
I0
sg30
F1.0
sg129
I0
sg33
I0
sg73
I1
sg36
I0
sg39
g3421
sg53
(dp3465
S'SR'
p3466
I0
sS'ST'
p3467
I0
sS'CR'
p3468
I0
sS'CT'
p3469
I0
ssg140
g3460
sg62
S'TO 14'
p3470
sg64
(dp3471
g2285
I1
sg2286
I1
sg2287
g2288
ssg70
I0
sg74
I0
sg75
I0
sg76
I0
sg135
g3459
sg78
I00
sg127
g3421
sg79
F0.5
sg101
I00
sg88
(dp3472
S'SR'
p3473
I0
sS'ST'
p3474
I0
sS'CR'
p3475
I0
sS'CT'
p3476
I0
ssg90
g3435
sg92
I0
sg93
(lp3477
g2296
aI01
aI01
aI00
asg80
(dp3478
g3473
I0
sg3474
I0
sg3475
I0
sg3476
I0
ssg103
S'TO'
p3479
sg97
S'Clebe (13)'
p3480
sg99
I11
sg100
I0
sg107
I25
sg102
I107
sg77
I0
sg108
(dp3481
S'A'
p3482
I0
sS'ME'
p3483
I0
sS'RP2'
p3484
I0
sS'E'
p3485
I0
sS'TO'
p3486
I0
sS'RP1'
p3487
I0
sS'JP'
p3488
I0
sS'RP_tot'
p3489
I0
sS'P'
p3490
I0
sS'PA'
p3491
I0
sS'M'
p3492
I0
sS'R'
p3493
I0
sS'TB'
p3494
I0
sS'PL'
p3495
I0
sS'TA'
p3496
I0
ssg144
(dp3497
sg128
I0
sg31
g32
sg130
I0
sg131
F0.0
sg132
I0
sg133
F8.793103448275861
sg134
I0
sg142
I0
sg86
(dp3498
g3473
I0
sg3474
I0
sg3475
I0
sg3476
I0
ssg187
I0
sg125
(dp3499
g2319
I8
sg2320
I10
sg2321
I8
sg2322
I12
sg2323
I8
sg2324
I9
sg2325
I5
sg2326
I10
sg2327
I5
sg2328
I8
sg2329
I9
sg2330
I6
sg2331
I6
sg2332
I7
sg2333
I10
ssg204
I0
sg205
I0
sg206
I0
sg207
I0
sg154
I2
sg208
I0
sg143
I0
sg96
I0
sg209
I0
sg210
S'HL'
p3500
sbsS's12'
p3501
(ijoueur
joueur
p3502
(dp3503
g27
F7.703703703703703
sg28
I0
sg30
F1.0
sg31
g32
sg33
I0
sg73
I1
sg36
I0
sg39
g40
(g41
g42
Ntp3504
Rp3505
(dp3506
g46
I4
sg47
S'*'
p3507
sg49
S'heros'
p3508
sbsg53
(dp3509
S'SR'
p3510
I0
sS'ST'
p3511
I0
sS'CR'
p3512
I0
sS'CT'
p3513
I0
ssg140
(dp3514
g3510
I0
sg3511
I0
sg3512
I0
sg3513
I0
ssg1000
I0
sg64
(dp3515
g2285
I1
sg2286
I1
sg2287
g2288
ssg70
I0
sg74
I0
sg75
I0
sg76
I0
sg135
(S'dummy'
p3516
S'PI'
p3517
S'TA'
p3518
g32
tp3519
sg78
I00
sg127
g40
(g41
g42
Ntp3520
Rp3521
(dp3522
g46
I3
sg47
S'^^^'
p3523
sg49
S'rare'
p3524
sbsg79
F2.5
sg101
I00
sg88
(dp3525
S'SR'
p3526
I0
sS'ST'
p3527
I0
sS'CR'
p3528
I0
sS'CT'
p3529
I0
ssg90
(dp3530
g3510
I0
sg3511
I0
sg3512
I0
sg3513
I1
ssg92
I0
sg93
(lp3531
g2296
aI01
aI01
aI00
asg80
(dp3532
g3526
I0
sg3527
I0
sg3528
I0
sg3529
I1
ssg103
S'TO'
p3533
sg97
S'Clebe (12)'
p3534
sg99
I11
sg100
I0
sg107
I25
sg102
I68
sg77
I0
sg108
(dp3535
S'A'
p3536
I6
sS'ME'
p3537
I10
sS'RP2'
p3538
I7
sS'E'
p3539
I12
sS'TO'
p3540
I6
sS'RP1'
p3541
I9
sS'JP'
p3542
I0
sS'RP_tot'
p3543
I9
sS'P'
p3544
I0
sS'PA'
p3545
I6
sS'M'
p3546
I9
sS'R'
p3547
I6
sS'TB'
p3548
I1
sS'PL'
p3549
I6
sS'TA'
p3550
I10
ssg144
(dp3551
S's11'
p3552
(ijoueur
joueur
p3553
(dp3554
g28
I0
sg33
I0
sg36
I0
sg39
g40
(g41
g42
Ntp3555
Rp3556
(dp3557
g46
I4
sg47
S'*'
p3558
sg49
S'heros'
p3559
sbsg53
(dp3560
S'SR'
p3561
I0
sS'ST'
p3562
I0
sS'CR'
p3563
I0
sS'CT'
p3564
I0
ssg140
(dp3565
g3561
I0
sg3562
I0
sg3563
I0
sg3564
I0
ssg1000
I0
sg70
I0
sg101
I00
sg74
I0
sg75
I0
sg76
I0
sg135
(S'dummy'
p3566
S'PI'
p3567
S'TA'
p3568
g32
tp3569
sg78
I00
sg127
g40
(g41
g42
Ntp3570
Rp3571
(dp3572
g46
I1
sg47
S'<'
p3573
sg49
S'base'
p3574
sbsg80
(dp3575
g3561
I0
sg3562
I0
sg3563
I0
sg3564
I0
ssg86
(dp3576
g3561
I0
sg3562
I0
sg3563
I0
sg3564
I0
ssg88
(dp3577
g3561
I0
sg3562
I0
sg3563
I0
sg3564
I0
ssg90
(dp3578
g3561
I0
sg3562
I0
sg3563
I0
sg3564
I0
ssg92
I0
sg96
I0
sg97
S'Clebe'
p3579
sg99
I11
sg100
I0
sg107
I25
sg102
I18
sg103
S'TO'
p3580
sg108
(dp3581
S'A'
p3582
I5
sS'ME'
p3583
I9
sS'RP2'
p3584
I6
sS'E'
p3585
I11
sS'TO'
p3586
I4
sS'RP1'
p3587
I8
sS'JP'
p3588
I0
sS'RP_tot'
p3589
I8
sS'P'
p3590
I0
sS'PA'
p3591
I4
sS'M'
p3592
I7
sS'R'
p3593
I7
sS'TB'
p3594
I1
sS'PL'
p3595
I6
sS'TA'
p3596
I9
ssg128
I0
sg129
I0
sg130
I0
sg132
I0
sg133
F7.793103448275862
sg134
I0
sg143
I0
sg187
I0
sg304
(dp3597
S'A'
p3598
I5
sS'ME'
p3599
I9
sS'RP2'
p3600
I6
sS'E'
p3601
I11
sS'TO'
p3602
I4
sS'RP1'
p3603
I8
sS'JP'
p3604
I0
sS'RP_tot'
p3605
I8
sS'P'
p3606
I0
sS'PA'
p3607
I4
sS'M'
p3608
I7
sS'R'
p3609
I7
sS'TB'
p3610
I1
sS'PL'
p3611
I6
sS'TA'
p3612
I9
ssg125
g3581
sg204
I0
sg62
g32
sg205
I0
sg206
I0
sg207
I0
sg154
I3
sg208
I0
sg209
I0
sg210
S'HL'
p3613
sbssg128
I0
sg129
I0
sg130
I0
sg131
F1.0
sg132
I0
sg133
F8.310344827586206
sg134
I0
sg142
I0
sg86
(dp3614
g3526
I0
sg3527
I0
sg3528
I0
sg3529
I0
ssg187
I0
sg304
(dp3615
S'A'
p3616
I5
sS'ME'
p3617
I9
sS'RP2'
p3618
I6
sS'E'
p3619
I11
sS'P'
p3620
I0
sS'RP1'
p3621
I8
sS'JP'
p3622
I0
sS'RP_tot'
p3623
I8
sS'TO'
p3624
I4
sS'PA'
p3625
I4
sS'M'
p3626
I7
sS'R'
p3627
I7
sS'TB'
p3628
I1
sS'PL'
p3629
I6
sS'TA'
p3630
I9
ssg125
g3535
sg204
I0
sg62
g32
sg205
I0
sg206
I0
sg207
I0
sg154
I8
sg208
I0
sg143
I0
sg96
I0
sg209
I0
sg210
S'HL'
p3631
sbsS's11'
p3632
(ijoueur
joueur
p3633
(dp3634
g28
I0
sg30
F0.0
sg33
I0
sg73
I1
sg36
I0
sg39
g40
(g41
g42
Ntp3635
Rp3636
(dp3637
g46
I4
sg47
S'*'
p3638
sg49
S'heros'
p3639
sbsg53
(dp3640
S'SR'
p3641
I0
sS'ST'
p3642
I0
sS'CR'
p3643
I0
sS'CT'
p3644
I0
ssg140
(dp3645
g3641
I0
sg3642
I0
sg3643
I0
sg3644
I0
ssg1000
I0
sg64
(dp3646
g2285
I1
sg2286
I1
sg2287
g2288
ssg70
I0
sg74
I0
sg75
I0
sg76
I0
sg135
(S'dummy'
p3647
S'PI'
p3648
S'TA'
p3649
g32
tp3650
sg78
I00
sg127
g40
(g41
g42
Ntp3651
Rp3652
(dp3653
g46
I1
sg47
S'<'
p3654
sg49
S'base'
p3655
sbsg79
F0.0
sg101
I00
sg88
(dp3656
g3641
I0
sg3642
I0
sg3643
I0
sg3644
I0
ssg90
(dp3657
g3641
I0
sg3642
I0
sg3643
I0
sg3644
I0
ssg92
I0
sg93
(lp3658
g2296
aI01
aI01
aI00
asg96
I0
sg103
S'TO'
p3659
sg97
S'Clebe (11)'
p3660
sg99
I11
sg100
I0
sg107
I25
sg102
I18
sg77
I0
sg80
(dp3661
g3641
I0
sg3642
I0
sg3643
I0
sg3644
I0
ssg108
(dp3662
S'A'
p3663
I5
sS'ME'
p3664
I9
sS'RP2'
p3665
I6
sS'E'
p3666
I11
sS'TO'
p3667
I4
sS'RP1'
p3668
I8
sS'JP'
p3669
I0
sS'RP_tot'
p3670
I8
sS'P'
p3671
I0
sS'PA'
p3672
I4
sS'M'
p3673
I7
sS'R'
p3674
I7
sS'TB'
p3675
I1
sS'PL'
p3676
I6
sS'TA'
p3677
I9
ssg128
I0
sg129
I0
sg130
I0
sg131
F0.0
sg132
I0
sg133
F7.793103448275862
sg134
I0
sg142
I0
sg86
(dp3678
g3641
I0
sg3642
I0
sg3643
I0
sg3644
I0
ssg187
I0
sg304
(dp3679
S'A'
p3680
I5
sS'ME'
p3681
I9
sS'RP2'
p3682
I6
sS'E'
p3683
I11
sS'TO'
p3684
I4
sS'RP1'
p3685
I8
sS'JP'
p3686
I0
sS'RP_tot'
p3687
I8
sS'P'
p3688
I0
sS'PA'
p3689
I4
sS'M'
p3690
I7
sS'R'
p3691
I7
sS'TB'
p3692
I1
sS'PL'
p3693
I6
sS'TA'
p3694
I9
ssg125
g3662
sg204
I0
sg62
g32
sg205
I0
sg206
I0
sg207
I0
sg154
I3
sg208
I0
sg143
I0
sg209
I0
sg210
S'HL'
p3695
sbssg187
I0
sg304
(dp3696
S'A'
p3697
I5
sS'ME'
p3698
I9
sS'RP2'
p3699
I6
sS'E'
p3700
I11
sS'P'
p3701
I0
sS'RP1'
p3702
I8
sS'JP'
p3703
I0
sS'RP_tot'
p3704
I8
sS'TO'
p3705
I4
sS'PA'
p3706
I4
sS'M'
p3707
I7
sS'R'
p3708
I7
sS'TB'
p3709
I1
sS'PL'
p3710
I6
sS'TA'
p3711
I9
ssg204
I0
sg389
(dp3712
sg205
I0
sg62
g3470
sg206
I0
sg207
I0
sg154
I2
sg208
I0
sg209
I0
sg210
g3500
sbsS'n2'
p3713
(ijoueur
joueur
p3714
(dp3715
g28
I0
sg30
F0.0
sg31
g32
sg33
I0
sg34
I0
sg35
g32
sg36
I0
sg37
g32
sg38
I0
sg39
g40
(g41
g42
Ntp3716
Rp3717
(dp3718
g46
I2
sg47
S'^^'
p3719
sg49
S'special'
p3720
sbsg51
(dp3721
sg53
(dp3722
S'SR'
p3723
I0
sS'ST'
p3724
I0
sS'CR'
p3725
I0
sS'CT'
p3726
I0
ssg59
F8.206896551724139
sg60
I0
sg61
I10
sg62
S'vide 14'
p3727
sg64
(dp3728
g2084
I1
sg2085
I4
sg2086
g2087
ssg70
I0
sg71
I0
sg72
I01
sg73
I0
sg74
I0
sg75
I0
sg76
I0
sg77
I0
sg78
I00
sg79
F0.0
sg80
(dp3729
g2090
I0
sg2091
I0
sg2092
I0
sg2093
I0
ssg101
I00
sg88
(dp3730
g2090
I0
sg2091
I0
sg2092
I0
sg2093
I0
ssg90
(dp3731
g3723
I0
sg3724
I0
sg3725
I0
sg3726
I0
ssg92
I0
sg93
(lp3732
g2097
aI01
aI00
aI00
asg96
I0
sg97
S'Ustensol'
p3733
sg99
I13
sg100
I0
sg86
(dp3734
g2090
I0
sg2091
I0
sg2092
I0
sg2093
I0
ssg102
I37
sg103
g2088
sg105
I00
sg106
g32
sg107
I20
sg108
(dp3735
S'RP1'
p3736
I8
sS'ME'
p3737
I8
sS'RP2'
p3738
I6
sS'E'
p3739
I11
sS'P'
p3740
I4
sS'JP'
p3741
I6
sS'M'
p3742
I8
sS'RP_tot'
p3743
I8
sS'TO'
p3744
I7
sS'PA'
p3745
I7
sS'A'
p3746
I8
sS'R'
p3747
I8
sS'TB'
p3748
I4
sS'PL'
p3749
I9
sS'TA'
p3750
I8
ssg127
g3717
sg128
I0
sg129
I0
sg130
I0
sg131
I0
sg132
I0
sg133
F8.517241379310345
sg134
I0
sg135
(S'dummy'
p3751
g3750
g32
g32
tp3752
sg140
(dp3753
g3723
I0
sg3724
I0
sg3725
I0
sg3726
I0
ssg142
I1
sg143
I0
sg144
(dp3754
S's13'
p3755
(ijoueur
joueur
p3756
(dp3757
g28
I0
sg30
F0.0
sg129
I0
sg33
I0
sg73
I1
sg36
I0
sg39
g3717
sg53
(dp3758
S'SR'
p3759
I0
sS'CT'
p3760
I0
sS'CR'
p3761
I0
sS'ST'
p3762
I0
ssg140
g3753
sg62
g3727
sg154
I2
sg64
(dp3763
g2129
I1
sg2130
I1
sg2131
g2132
ssg70
I0
sg74
I0
sg75
I0
sg76
I0
sg103
S'vide'
p3764
sg78
I00
sg127
g40
(g41
g42
Ntp3765
Rp3766
(dp3767
g46
I1
sg47
S'<'
p3768
sg49
S'base'
p3769
sbsg79
F0.0
sg101
I00
sg88
(dp3770
g3723
I0
sg3724
I0
sg3725
I0
sg3726
I0
ssg90
g3731
sg92
I0
sg93
(lp3771
g2136
aI01
aI00
aI00
asg80
(dp3772
g3723
I0
sg3724
I0
sg3725
I0
sg3726
I0
ssg97
g3733
sg99
I13
sg100
I0
sg107
I20
sg102
I20
sg135
g3752
sg108
(dp3773
S'A'
p3774
I0
sS'ME'
p3775
I0
sS'RP2'
p3776
I0
sS'E'
p3777
I0
sS'P'
p3778
I0
sS'RP1'
p3779
I0
sS'JP'
p3780
I0
sS'RP_tot'
p3781
I0
sS'TO'
p3782
I0
sS'PA'
p3783
I0
sS'M'
p3784
I0
sS'R'
p3785
I0
sS'TB'
p3786
I0
sS'PL'
p3787
I0
sS'TA'
p3788
I0
ssg144
(dp3789
sg128
I0
sg31
g32
sg130
I0
sg131
F0.0
sg132
I0
sg133
F8.206896551724139
sg134
I0
sg142
I0
sg86
(dp3790
g3723
I0
sg3724
I0
sg3725
I0
sg3726
I0
ssg187
I0
sg125
(dp3791
g2158
I8
sg2159
I8
sg2160
I6
sg2161
I10
sg2162
I3
sg2163
I7
sg2164
I5
sg2165
I7
sg2166
I7
sg2167
I7
sg2168
I7
sg2169
I8
sg2170
I3
sg2171
I9
sg2172
I8
ssg204
I0
sg205
I0
sg206
I0
sg207
I0
sg77
I0
sg208
I0
sg143
I0
sg96
I0
sg209
I0
sg210
S'EST'
p3792
sbssg187
I0
sg125
(dp3793
g3736
I8
sg3737
I8
sg3738
I6
sg3739
I11
sg3744
I7
sg3742
I8
sg3741
I6
sg3743
I8
sg3740
I4
sg3745
I7
sg3746
I8
sg3747
I8
sg3748
I4
sg3749
I9
sg3750
I8
ssg204
I0
sg205
I0
sg206
I0
sg207
I0
sg154
I3
sg208
I0
sg209
I0
sg210
g3792
sbsS'n3'
p3794
(ijoueur
joueur
p3795
(dp3796
g27
F9.148148148148149
sg28
I0
sg29
F9.148148148148149
sg30
F5.5
sg31
g32
sg33
I0
sg34
F48.98214942534719
sg36
I0
sg38
I0
sg39
g40
(g41
g42
Ntp3797
Rp3798
(dp3799
g46
I3
sg47
S'^^^'
p3800
sg49
S'rare'
p3801
sbsg51
(dp3802
sg53
(dp3803
S'SR'
p3804
I0
sS'ST'
p3805
I0
sS'CR'
p3806
I6
sS'CT'
p3807
I0
ssg59
F8.931034482758621
sg60
I0
sg61
I10
sg62
S'APA 11;TA 14'
p3808
sg64
(dp3809
g2233
I3
sg2234
I3
sg2235
g3432
ssg70
I0
sg549
I0
sg550
I0
sg72
I00
sg73
I1
sg74
I0
sg75
I0
sg76
I0
sg77
I0
sg78
I00
sg79
F4.5
sg80
(dp3810
g2238
I0
sg2239
I0
sg2240
I5
sg2241
I0
ssg101
I00
sg88
(dp3811
g2238
I0
sg2239
I0
sg2240
I0
sg2241
I0
ssg90
(dp3812
g3804
I0
sg3805
I0
sg3806
I14
sg3807
I1
ssg92
I0
sg93
(lp3813
g2246
aI01
aI01
aI00
asg96
I0
sg97
S"X'uv"
p3814
sg99
I8
sg100
I0
sg86
(dp3815
g2238
I0
sg2239
I0
sg2240
I0
sg2241
I0
ssg102
I263
sg103
g2248
sg105
I00
sg107
I19
sg108
(dp3816
S'A'
p3817
I6
sS'ME'
p3818
I10
sS'RP2'
p3819
I7
sS'E'
p3820
I13
sS'P'
p3821
I2
sS'RP1'
p3822
I9
sS'JP'
p3823
I2
sS'RP_tot'
p3824
I9
sS'TO'
p3825
I7
sS'PA'
p3826
I6
sS'M'
p3827
I9
sS'R'
p3828
I9
sS'TB'
p3829
I3
sS'PL'
p3830
I6
sS'TA'
p3831
I9
ssg125
(dp3832
g3817
I6
sg3818
I10
sg3819
I7
sg3820
I13
sg3825
I7
sg3822
I9
sg3823
I2
sg3824
I9
sg3821
I2
sg3826
I6
sg3827
I9
sg3828
I9
sg3829
I3
sg3830
I6
sg3831
I9
ssg127
g40
(g41
g42
Ntp3833
Rp3834
(dp3835
g46
I3
sg47
S'^^^'
p3836
sg49
g3801
sbsg128
I5
sg129
I0
sg130
I0
sg131
I0
sg132
I0
sg133
F9.0
sg134
I0
sg135
(S'dummy'
p3837
S'PI'
p3838
S'TA'
p3839
g32
tp3840
sg140
(dp3841
g3804
I0
sg3805
I0
sg3806
I0
sg3807
I0
ssg71
F48.98214942534719
sg142
I1
sg583
I0
sg143
I0
sg144
(dp3842
S's13'
p3843
(ijoueur
joueur
p3844
(dp3845
g28
I0
sg30
F5.5
sg129
I0
sg33
I0
sg73
I1
sg36
I0
sg39
g3798
sg53
(dp3846
S'SR'
p3847
I0
sS'CT'
p3848
I0
sS'CR'
p3849
I0
sS'ST'
p3850
I0
ssg140
g3841
sg62
g3808
sg64
(dp3851
g2285
I1
sg2286
I1
sg2287
g2288
ssg70
I0
sg74
I0
sg75
I0
sg76
I0
sg135
g3840
sg78
I00
sg127
g3834
sg79
F1.0
sg101
I00
sg88
(dp3852
S'SR'
p3853
I0
sS'CT'
p3854
I0
sS'CR'
p3855
I0
sS'ST'
p3856
I0
ssg90
g3812
sg92
I0
sg93
(lp3857
g2296
aI01
aI01
aI00
asg80
(dp3858
g3853
I0
sg3854
I1
sg3855
I4
sg3856
I0
ssg103
S'TA'
p3859
sg97
S"X'uv (13)"
p3860
sg99
I8
sg100
I0
sg107
I19
sg102
I263
sg77
I0
sg108
(dp3861
S'A'
p3862
I0
sS'ME'
p3863
I0
sS'RP2'
p3864
I0
sS'E'
p3865
I0
sS'P'
p3866
I0
sS'RP1'
p3867
I0
sS'JP'
p3868
I0
sS'RP_tot'
p3869
I0
sS'TO'
p3870
I0
sS'PA'
p3871
I0
sS'M'
p3872
I0
sS'R'
p3873
I0
sS'TB'
p3874
I0
sS'PL'
p3875
I0
sS'TA'
p3876
I0
ssg144
(dp3877
sg128
I0
sg31
g32
sg130
I0
sg131
F4.5
sg132
I0
sg133
F8.931034482758621
sg134
I0
sg142
I0
sg86
(dp3878
g3853
I0
sg3854
I0
sg3855
I3
sg3856
I0
ssg187
I0
sg125
(dp3879
g2319
I5
sg2320
I10
sg2321
I7
sg2322
I13
sg2323
I7
sg2324
I9
sg2325
I2
sg2326
I9
sg2327
I2
sg2328
I6
sg2329
I9
sg2330
I9
sg2331
I3
sg2332
I6
sg2333
I9
ssg204
I0
sg205
I0
sg206
I0
sg207
I0
sg154
I2
sg208
I0
sg143
I0
sg96
I0
sg209
I0
sg210
S'HL'
p3880
sbsS's12'
p3881
(ijoueur
joueur
p3882
(dp3883
g27
F9.148148148148149
sg28
I0
sg30
F1.0
sg31
g32
sg33
I0
sg73
I1
sg36
I0
sg39
g40
(g41
g42
Ntp3884
Rp3885
(dp3886
g46
I3
sg47
S'^^^'
p3887
sg49
S'rare'
p3888
sbsg53
(dp3889
S'SR'
p3890
I0
sS'ST'
p3891
I0
sS'CR'
p3892
I3
sS'CT'
p3893
I0
ssg140
(dp3894
g3890
I0
sg3891
I0
sg3892
I0
sg3893
I0
ssg62
S'APA 11'
p3895
sg64
(dp3896
g2285
I1
sg2286
I1
sg2287
g2288
ssg70
I0
sg549
I0
sg550
I0
sg74
I0
sg75
I0
sg76
I0
sg135
(S'dummy'
p3897
S'PI'
p3898
S'TA'
p3899
g32
tp3900
sg78
I00
sg79
F0.0
sg80
(dp3901
S'SR'
p3902
I0
sS'ST'
p3903
I0
sS'CR'
p3904
I2
sS'CT'
p3905
I0
ssg101
I00
sg88
(dp3906
g3902
I0
sg3903
I0
sg3904
I0
sg3905
I0
ssg90
(dp3907
g3890
I0
sg3891
I0
sg3892
I5
sg3893
I0
ssg92
I0
sg93
(lp3908
g2296
aI01
aI01
aI00
asg96
I0
sg103
S'TA'
p3909
sg97
S"X'uv (12)"
p3910
sg99
I8
sg100
I0
sg107
I19
sg102
I185
sg77
I0
sg108
(dp3911
S'A'
p3912
I6
sS'ME'
p3913
I10
sS'RP2'
p3914
I7
sS'E'
p3915
I13
sS'TO'
p3916
I7
sS'RP1'
p3917
I10
sS'JP'
p3918
I2
sS'RP_tot'
p3919
I10
sS'P'
p3920
I2
sS'PA'
p3921
I6
sS'M'
p3922
I9
sS'R'
p3923
I9
sS'TB'
p3924
I3
sS'PL'
p3925
I6
sS'TA'
p3926
I9
ssg127
g40
(g41
g42
Ntp3927
Rp3928
(dp3929
g46
I3
sg47
S'^^^'
p3930
sg49
g3888
sbsg128
I0
sg129
I0
sg130
I0
sg131
F1.0
sg132
I0
sg133
F9.148148148148149
sg134
I0
sg142
I0
sg583
I0
sg86
(dp3931
g3902
I0
sg3903
I0
sg3904
I0
sg3905
I0
ssg144
(dp3932
S's11'
p3933
(ijoueur
joueur
p3934
(dp3935
g28
I0
sg33
I0
sg36
I0
sg39
g40
(g41
g42
Ntp3936
Rp3937
(dp3938
g46
I3
sg47
S'^^^'
p3939
sg49
S'rare'
p3940
sbsg53
(dp3941
S'SR'
p3942
I0
sS'ST'
p3943
I0
sS'CR'
p3944
I3
sS'CT'
p3945
I0
ssg140
(dp3946
g3942
I0
sg3943
I0
sg3944
I0
sg3945
I0
ssg86
(dp3947
g3942
I0
sg3943
I0
sg3944
I3
sg3945
I0
ssg62
S'APA 11'
p3948
sg70
I0
sg549
I0
sg550
I0
sg74
I0
sg75
I0
sg76
I0
sg135
(S'dummy'
p3949
S'PI'
p3950
S'TA'
p3951
g32
tp3952
sg78
I01
sg127
g40
(g41
g42
Ntp3953
Rp3954
(dp3955
g46
I3
sg47
S'^^^'
p3956
sg49
g3940
sbsg80
(dp3957
g3942
I0
sg3943
I0
sg3944
I3
sg3945
I0
ssg101
I00
sg88
(dp3958
g3942
I0
sg3943
I0
sg3944
I0
sg3945
I0
ssg90
(dp3959
g3942
I0
sg3943
I0
sg3944
I3
sg3945
I0
ssg92
I0
sg96
I0
sg97
S"X'uv"
p3960
sg99
I8
sg100
I0
sg107
I19
sg102
I185
sg103
S'TA'
p3961
sg108
(dp3962
S'A'
p3963
I6
sS'ME'
p3964
I10
sS'RP2'
p3965
I7
sS'E'
p3966
I13
sS'TO'
p3967
I7
sS'RP1'
p3968
I10
sS'JP'
p3969
I2
sS'RP_tot'
p3970
I10
sS'P'
p3971
I2
sS'PA'
p3972
I6
sS'M'
p3973
I9
sS'R'
p3974
I9
sS'TB'
p3975
I3
sS'PL'
p3976
I6
sS'TA'
p3977
I9
ssg128
I0
sg129
I0
sg130
I0
sg132
I0
sg133
F9.148148148148149
sg134
I0
sg583
I0
sg143
I0
sg187
I0
sg304
(dp3978
S'A'
p3979
I6
sS'ME'
p3980
I10
sS'RP2'
p3981
I7
sS'E'
p3982
I13
sS'TO'
p3983
I7
sS'RP1'
p3984
I10
sS'JP'
p3985
I2
sS'RP_tot'
p3986
I10
sS'P'
p3987
I2
sS'PA'
p3988
I6
sS'M'
p3989
I9
sS'R'
p3990
I9
sS'TB'
p3991
I3
sS'PL'
p3992
I6
sS'TA'
p3993
I9
ssg125
g3962
sg204
I0
sg205
I0
sg206
I0
sg207
I0
sg154
I10
sg208
I0
sg209
I0
sg210
S'HL'
p3994
sbssg187
I0
sg304
(dp3995
S'A'
p3996
I6
sS'ME'
p3997
I10
sS'RP2'
p3998
I7
sS'E'
p3999
I13
sS'TO'
p4000
I7
sS'RP1'
p4001
I10
sS'JP'
p4002
I2
sS'RP_tot'
p4003
I10
sS'P'
p4004
I2
sS'PA'
p4005
I6
sS'M'
p4006
I9
sS'R'
p4007
I9
sS'TB'
p4008
I3
sS'PL'
p4009
I6
sS'TA'
p4010
I9
ssg125
g3911
sg204
I0
sg205
I0
sg206
I0
sg207
I0
sg154
I10
sg208
I0
sg143
I0
sg209
I0
sg210
S'HL'
p4011
sbsS's11'
p4012
(ijoueur
joueur
p4013
(dp4014
g28
I0
sg30
F0.0
sg33
I0
sg73
I1
sg36
I0
sg39
g40
(g41
g42
Ntp4015
Rp4016
(dp4017
g46
I3
sg47
S'^^^'
p4018
sg49
S'rare'
p4019
sbsg53
(dp4020
S'SR'
p4021
I0
sS'ST'
p4022
I0
sS'CR'
p4023
I3
sS'CT'
p4024
I0
ssg140
(dp4025
g4021
I0
sg4022
I0
sg4023
I0
sg4024
I0
ssg62
S'APA 11'
p4026
sg64
(dp4027
g2285
I1
sg2286
I1
sg2287
g2288
ssg70
I0
sg549
I0
sg550
I0
sg74
I0
sg75
I0
sg76
I0
sg135
(S'dummy'
p4028
S'PI'
p4029
S'TA'
p4030
g32
tp4031
sg78
I01
sg79
F3.0
sg80
(dp4032
g4021
I0
sg4022
I0
sg4023
I3
sg4024
I0
ssg101
I00
sg88
(dp4033
g4021
I0
sg4022
I0
sg4023
I0
sg4024
I0
ssg90
(dp4034
g4021
I0
sg4022
I0
sg4023
I3
sg4024
I0
ssg92
I0
sg93
(lp4035
g2296
aI01
aI01
aI00
asg96
I0
sg103
S'TA'
p4036
sg97
S"X'uv (11)"
p4037
sg99
I8
sg100
I0
sg107
I19
sg102
I185
sg77
I0
sg108
(dp4038
S'A'
p4039
I6
sS'ME'
p4040
I10
sS'RP2'
p4041
I7
sS'E'
p4042
I13
sS'TO'
p4043
I7
sS'RP1'
p4044
I10
sS'JP'
p4045
I2
sS'RP_tot'
p4046
I10
sS'P'
p4047
I2
sS'PA'
p4048
I6
sS'M'
p4049
I9
sS'R'
p4050
I9
sS'TB'
p4051
I3
sS'PL'
p4052
I6
sS'TA'
p4053
I9
ssg127
g40
(g41
g42
Ntp4054
Rp4055
(dp4056
g46
I3
sg47
S'^^^'
p4057
sg49
g4019
sbsg128
I0
sg129
I0
sg130
I0
sg131
F3.0
sg132
I0
sg133
F9.148148148148149
sg134
I0
sg142
I0
sg583
I0
sg86
(dp4058
g4021
I0
sg4022
I0
sg4023
I3
sg4024
I0
ssg187
I0
sg304
(dp4059
S'A'
p4060
I6
sS'ME'
p4061
I10
sS'RP2'
p4062
I7
sS'E'
p4063
I13
sS'TO'
p4064
I7
sS'RP1'
p4065
I10
sS'JP'
p4066
I2
sS'RP_tot'
p4067
I10
sS'P'
p4068
I2
sS'PA'
p4069
I6
sS'M'
p4070
I9
sS'R'
p4071
I9
sS'TB'
p4072
I3
sS'PL'
p4073
I6
sS'TA'
p4074
I9
ssg125
g4038
sg204
I0
sg205
I0
sg206
I0
sg207
I0
sg154
I10
sg208
I0
sg143
I0
sg209
I0
sg210
S'HL'
p4075
sbssg187
I0
sg304
(dp4076
S'A'
p4077
I6
sS'ME'
p4078
I10
sS'RP2'
p4079
I7
sS'E'
p4080
I13
sS'TO'
p4081
I7
sS'RP1'
p4082
I10
sS'JP'
p4083
I2
sS'RP_tot'
p4084
I10
sS'P'
p4085
I2
sS'PA'
p4086
I6
sS'M'
p4087
I9
sS'R'
p4088
I9
sS'TB'
p4089
I3
sS'PL'
p4090
I6
sS'TA'
p4091
I9
ssg204
I0
sg389
(dp4092
sg205
I0
sg206
I0
sg207
I0
sg154
I2
sg208
I0
sg209
I0
sg210
g3880
sbsS'n4'
p4093
(ijoueur
joueur
p4094
(dp4095
g27
F10.117647058823529
sg28
I0
sg29
F10.352941176470589
sg30
F3.0
sg31
g32
sg33
I0
sg34
F29.627731586538715
sg36
I0
sg38
I0
sg39
g40
(g41
g42
Ntp4096
Rp4097
(dp4098
g46
I4
sg47
S'*'
p4099
sg49
S'heros'
p4100
sbsg51
(dp4101
sg53
(dp4102
S'SR'
p4103
I0
sS'CT'
p4104
I3
sS'CR'
p4105
I0
sS'ST'
p4106
I7
ssg59
F10.235294117647058
sg60
I0
sg61
I10
sg1000
I0
sg64
(dp4107
g1938
I3
sg1939
I8
sg1940
g2506
ssg70
I0
sg71
F29.627731586538715
sg72
I00
sg73
I7
sg74
I0
sg75
I0
sg76
I0
sg77
I4
sg78
I00
sg79
F21.0
sg80
(dp4108
g1944
I0
sg1945
I0
sg1946
I0
sg1947
I0
ssg86
(dp4109
g1944
I0
sg1945
I3
sg1946
I0
sg1947
I0
ssg88
(dp4110
g1944
I0
sg1945
I0
sg1946
I0
sg1947
I0
ssg90
(dp4111
g4103
I0
sg4104
I40
sg4105
I0
sg4106
I13
ssg92
I0
sg93
(lp4112
g1952
aI01
aI01
aI00
asg96
I0
sg97
S'Remod'
p4113
sg99
I8
sg100
I0
sg101
I00
sg102
I148
sg103
g1942
sg105
I00
sg107
I20
sg108
(dp4114
S'A'
p4115
I12
sS'ME'
p4116
I12
sS'RP2'
p4117
I9
sS'E'
p4118
I10
sS'TO'
p4119
I12
sS'RP1'
p4120
I10
sS'JP'
p4121
I5
sS'RP_tot'
p4122
I11
sS'P'
p4123
I6
sS'PA'
p4124
I10
sS'M'
p4125
I8
sS'R'
p4126
I11
sS'TB'
p4127
I5
sS'PL'
p4128
I10
sS'TA'
p4129
I7
ssg127
g40
(g41
g42
Ntp4130
Rp4131
(dp4132
g46
I4
sg47
g4099
sg49
g4100
sbsg128
I0
sg1028
I1
sg129
I0
sg1100
I1
sg130
I2
sg131
I0
sg132
I0
sg133
F11.029411764705882
sg134
I0
sg135
(S'dummy'
p4133
S'DL'
p4134
S'TL'
p4135
g32
tp4136
sg140
(dp4137
g4103
I0
sg4104
I0
sg4105
I0
sg4106
I0
ssg142
I6
sg143
I1
sg144
(dp4138
S's13'
p4139
(ijoueur
joueur
p4140
(dp4141
g28
I0
sg30
F3.0
sg129
I0
sg33
I0
sg73
I7
sg36
I0
sg39
g4097
sg53
(dp4142
S'SR'
p4143
I0
sS'ST'
p4144
I0
sS'CR'
p4145
I0
sS'CT'
p4146
I0
ssg140
g4137
sg77
I0
sg62
S'PRG 10;SN 14'
p4147
sg64
(dp4148
g1983
I1
sg1984
I1
sg1985
g1986
ssg70
I0
sg74
I2
sg75
I0
sg76
I0
sg135
g4136
sg78
I00
sg127
g4131
sg79
F0.0
sg101
I00
sg88
(dp4149
S'SR'
p4150
I0
sS'ST'
p4151
I0
sS'CR'
p4152
I0
sS'CT'
p4153
I0
ssg90
g4111
sg92
I0
sg93
(lp4154
g1989
aI01
aI01
aI00
asg80
(dp4155
g4150
I0
sg4151
I7
sg4152
I0
sg4153
I14
ssg97
S'Remod (13)'
p4156
sg99
I8
sg100
I0
sg107
I20
sg102
I148
sg103
S'SN'
p4157
sg108
(dp4158
S'A'
p4159
I0
sS'ME'
p4160
I0
sS'RP2'
p4161
I0
sS'E'
p4162
I0
sS'TO'
p4163
I0
sS'RP1'
p4164
I0
sS'JP'
p4165
I0
sS'RP_tot'
p4166
I0
sS'P'
p4167
I0
sS'PA'
p4168
I0
sS'M'
p4169
I0
sS'R'
p4170
I0
sS'TB'
p4171
I0
sS'PL'
p4172
I0
sS'TA'
p4173
I0
ssg144
(dp4174
sg128
I0
sg31
g32
sg130
I0
sg131
F21.0
sg132
I0
sg133
F10.235294117647058
sg134
I0
sg142
I0
sg86
(dp4175
g4150
I0
sg4151
I0
sg4152
I0
sg4153
I0
ssg187
I0
sg125
(dp4176
g2010
I12
sg2011
I9
sg2012
I9
sg2013
I9
sg2014
I11
sg2015
I10
sg2016
I5
sg2017
I11
sg2018
I6
sg2019
I10
sg2020
I8
sg2021
I11
sg2022
I5
sg2023
I9
sg2024
I7
ssg204
I0
sg205
I0
sg206
I0
sg207
I0
sg154
I17
sg208
I0
sg143
I0
sg96
I0
sg209
I0
sg210
S'EMP'
p4177
sbsS's12'
p4178
(ijoueur
joueur
p4179
(dp4180
g27
F10.117647058823529
sg28
I0
sg30
F8.0
sg31
g32
sg33
I0
sg73
I5
sg36
I0
sg39
g40
(g41
g42
Ntp4181
Rp4182
(dp4183
g46
I4
sg47
S'*'
p4184
sg49
S'heros'
p4185
sbsg207
I0
sg53
(dp4186
S'SR'
p4187
I0
sS'CT'
p4188
I0
sS'CR'
p4189
I0
sS'ST'
p4190
I7
ssg140
(dp4191
g4187
I0
sg4188
I0
sg4189
I0
sg4190
I0
ssg77
I0
sg1000
I0
sg64
(dp4192
g1983
I1
sg1984
I1
sg1985
g1986
ssg70
I0
sg74
I2
sg75
I0
sg76
I0
sg135
(S'dummy'
p4193
S'DL'
p4194
S'TL'
p4195
g32
tp4196
sg78
I00
sg127
g40
(g41
g42
Ntp4197
Rp4198
(dp4199
g46
I4
sg47
g4184
sg49
g4185
sbsg79
F0.0
sg101
I01
sg88
(dp4200
S'SR'
p4201
I0
sS'ST'
p4202
I0
sS'CR'
p4203
I0
sS'CT'
p4204
I0
ssg90
(dp4205
g4187
I0
sg4188
I26
sg4189
I0
sg4190
I6
ssg92
I0
sg1100
I1
sg80
(dp4206
g4201
I0
sg4202
I0
sg4203
I0
sg4204
I14
ssg97
S'Remod (12)'
p4207
sg99
I8
sg100
I0
sg107
I20
sg102
I99
sg103
S'SN'
p4208
sg1028
I1
sg108
(dp4209
S'A'
p4210
I12
sS'ME'
p4211
I9
sS'RP2'
p4212
I9
sS'E'
p4213
I9
sS'P'
p4214
I6
sS'RP1'
p4215
I10
sS'JP'
p4216
I5
sS'RP_tot'
p4217
I12
sS'TO'
p4218
I11
sS'PA'
p4219
I10
sS'M'
p4220
I8
sS'R'
p4221
I11
sS'TB'
p4222
I5
sS'PL'
p4223
I9
sS'TA'
p4224
I7
ssg125
g4209
sg144
(dp4225
S's11'
p4226
(ijoueur
joueur
p4227
(dp4228
g28
I0
sg33
I0
sg36
I0
sg39
g40
(g41
g42
Ntp4229
Rp4230
(dp4231
g46
I4
sg47
S'*'
p4232
sg49
S'heros'
p4233
sbsg53
(dp4234
S'SR'
p4235
I0
sS'ST'
p4236
I0
sS'CR'
p4237
I0
sS'CT'
p4238
I0
ssg140
(dp4239
g4235
I0
sg4236
I0
sg4237
I0
sg4238
I0
ssg1000
I0
sg70
I0
sg101
I01
sg74
I0
sg75
I0
sg76
I0
sg135
(S'dummy'
p4240
S'DL'
p4241
S'TL'
p4242
g32
tp4243
sg78
I00
sg127
g40
(g41
g42
Ntp4244
Rp4245
(dp4246
g46
I4
sg47
g4232
sg49
g4233
sbsg80
(dp4247
g4235
I0
sg4236
I6
sg4237
I0
sg4238
I12
ssg86
(dp4248
g4235
I0
sg4236
I0
sg4237
I0
sg4238
I0
ssg88
(dp4249
g4235
I0
sg4236
I0
sg4237
I0
sg4238
I0
ssg90
(dp4250
g4235
I0
sg4236
I6
sg4237
I0
sg4238
I12
ssg92
I0
sg1100
I1
sg96
I0
sg97
S'Remod'
p4251
sg99
I8
sg100
I0
sg107
I20
sg102
I99
sg103
S'SN'
p4252
sg1028
I1
sg108
(dp4253
S'A'
p4254
I12
sS'ME'
p4255
I8
sS'RP2'
p4256
I9
sS'E'
p4257
I9
sS'TO'
p4258
I11
sS'RP1'
p4259
I9
sS'JP'
p4260
I5
sS'RP_tot'
p4261
I11
sS'P'
p4262
I6
sS'PA'
p4263
I10
sS'M'
p4264
I8
sS'R'
p4265
I11
sS'TB'
p4266
I5
sS'PL'
p4267
I9
sS'TA'
p4268
I7
ssg128
I0
sg129
I0
sg130
I1
sg132
I0
sg133
F10.117647058823529
sg134
I0
sg143
I1
sg187
I0
sg304
(dp4269
S'A'
p4270
I12
sS'ME'
p4271
I8
sS'RP2'
p4272
I9
sS'E'
p4273
I9
sS'TO'
p4274
I11
sS'RP1'
p4275
I9
sS'JP'
p4276
I5
sS'RP_tot'
p4277
I11
sS'P'
p4278
I6
sS'PA'
p4279
I10
sS'M'
p4280
I8
sS'R'
p4281
I11
sS'TB'
p4282
I5
sS'PL'
p4283
I9
sS'TA'
p4284
I7
ssg125
g4253
sg204
I0
sg62
S'PRG 10'
p4285
sg205
I0
sg206
I0
sg207
I0
sg154
I7
sg208
I0
sg209
I0
sg210
S'EMP'
p4286
sbssg128
I8
sg129
I0
sg130
I1
sg131
F21.0
sg132
I0
sg133
F10.352941176470589
sg134
I0
sg142
I0
sg86
(dp4287
g4201
I0
sg4202
I7
sg4203
I0
sg4204
I0
ssg187
I1
sg304
(dp4288
S'A'
p4289
I12
sS'ME'
p4290
I8
sS'RP2'
p4291
I9
sS'E'
p4292
I9
sS'TO'
p4293
I11
sS'RP1'
p4294
I9
sS'JP'
p4295
I5
sS'RP_tot'
p4296
I11
sS'P'
p4297
I6
sS'PA'
p4298
I10
sS'M'
p4299
I8
sS'R'
p4300
I11
sS'TB'
p4301
I5
sS'PL'
p4302
I9
sS'TA'
p4303
I7
ssg204
I0
sg62
S'PRG 10'
p4304
sg205
I0
sg206
I0
sg93
(lp4305
g1989
aI01
aI01
aI00
asg154
I7
sg208
I2
sg143
I0
sg96
I0
sg209
I1
sg210
S'EMP'
p4306
sbsS's11'
p4307
(ijoueur
joueur
p4308
(dp4309
g28
I0
sg30
F5.0
sg33
I0
sg73
I3
sg36
I0
sg39
g40
(g41
g42
Ntp4310
Rp4311
(dp4312
g46
I4
sg47
S'*'
p4313
sg49
S'heros'
p4314
sbsg207
I0
sg53
(dp4315
S'SR'
p4316
I0
sS'ST'
p4317
I0
sS'CR'
p4318
I0
sS'CT'
p4319
I0
ssg140
(dp4320
g4316
I0
sg4317
I0
sg4318
I0
sg4319
I0
ssg77
I0
sg1000
I0
sg64
(dp4321
g1983
I1
sg1984
I1
sg1985
g1986
ssg70
I0
sg74
I0
sg75
I0
sg76
I0
sg135
(S'dummy'
p4322
S'DL'
p4323
S'TL'
p4324
g32
tp4325
sg78
I00
sg127
g40
(g41
g42
Ntp4326
Rp4327
(dp4328
g46
I4
sg47
g4313
sg49
g4314
sbsg79
F18.0
sg101
I01
sg88
(dp4329
g4316
I0
sg4317
I0
sg4318
I0
sg4319
I0
ssg90
(dp4330
g4316
I0
sg4317
I6
sg4318
I0
sg4319
I12
ssg92
I0
sg1100
I1
sg96
I0
sg97
S'Remod (11)'
p4331
sg99
I8
sg100
I0
sg107
I20
sg102
I99
sg103
S'SN'
p4332
sg80
(dp4333
g4316
I0
sg4317
I6
sg4318
I0
sg4319
I12
ssg108
(dp4334
S'A'
p4335
I12
sS'ME'
p4336
I8
sS'RP2'
p4337
I9
sS'E'
p4338
I9
sS'TO'
p4339
I11
sS'RP1'
p4340
I9
sS'JP'
p4341
I5
sS'RP_tot'
p4342
I11
sS'P'
p4343
I6
sS'PA'
p4344
I10
sS'M'
p4345
I8
sS'R'
p4346
I11
sS'TB'
p4347
I5
sS'PL'
p4348
I9
sS'TA'
p4349
I7
ssg125
g4334
sg128
I0
sg1028
I1
sg129
I0
sg130
I1
sg131
F18.0
sg132
I0
sg133
F10.117647058823529
sg134
I0
sg142
I0
sg86
(dp4350
g4316
I0
sg4317
I0
sg4318
I0
sg4319
I0
ssg187
I0
sg304
(dp4351
S'A'
p4352
I12
sS'ME'
p4353
I8
sS'RP2'
p4354
I9
sS'E'
p4355
I9
sS'TO'
p4356
I11
sS'RP1'
p4357
I9
sS'JP'
p4358
I5
sS'RP_tot'
p4359
I11
sS'P'
p4360
I6
sS'PA'
p4361
I10
sS'M'
p4362
I8
sS'R'
p4363
I11
sS'TB'
p4364
I5
sS'PL'
p4365
I9
sS'TA'
p4366
I7
ssg204
I0
sg62
S'PRG 10'
p4367
sg205
I0
sg206
I0
sg93
(lp4368
g1989
aI01
aI01
aI00
asg154
I7
sg208
I0
sg143
I1
sg209
I0
sg210
S'EMP'
p4369
sbssg187
I2
sg304
(dp4370
S'A'
p4371
I12
sS'ME'
p4372
I8
sS'RP2'
p4373
I9
sS'E'
p4374
I9
sS'TO'
p4375
I11
sS'RP1'
p4376
I9
sS'JP'
p4377
I5
sS'RP_tot'
p4378
I11
sS'P'
p4379
I6
sS'PA'
p4380
I10
sS'M'
p4381
I8
sS'R'
p4382
I11
sS'TB'
p4383
I5
sS'PL'
p4384
I9
sS'TA'
p4385
I7
ssg125
(dp4386
g4115
I12
sg4116
I12
sg4117
I9
sg4118
I10
sg4123
I6
sg4120
I10
sg4121
I5
sg4122
I11
sg4119
I12
sg4124
I10
sg4125
I8
sg4126
I11
sg4127
I5
sg4128
I10
sg4129
I7
ssg204
I0
sg389
(dp4387
sg205
I0
sg62
g4147
sg206
I0
sg207
I0
sg154
I17
sg208
I4
sg209
I0
sg210
g4177
sbsS'n5'
p4388
(ijoueur
joueur
p4389
(dp4390
g27
F8.117647058823529
sg28
I0
sg29
F8.970588235294118
sg30
F5.0
sg31
g32
sg33
I0
sg34
F48.98214942534719
sg35
g32
sg36
I0
sg37
g32
sg38
I0
sg39
g40
(g41
g42
Ntp4391
Rp4392
(dp4393
g46
I4
sg47
S'x'
p4394
sg49
S'heros'
p4395
sbsg51
(dp4396
sg53
(dp4397
S'SR'
p4398
I0
sS'CT'
p4399
I0
sS'CR'
p4400
I0
sS'ST'
p4401
I0
ssg59
F9.529411764705882
sg60
I0
sg61
I10
sg62
S'vide 13'
p4402
sg64
(dp4403
g1938
I2
sg1939
I3
sg1940
g1941
ssg70
I0
sg71
F48.98214942534719
sg72
I01
sg73
I4
sg74
I0
sg75
I0
sg76
I0
sg77
I1
sg78
I00
sg79
F11.0
sg80
(dp4404
g1944
I0
sg1945
I0
sg1946
I5
sg1947
I0
ssg86
(dp4405
g1944
I0
sg1945
I0
sg1946
I0
sg1947
I0
ssg88
(dp4406
g1944
I0
sg1945
I0
sg1946
I0
sg1947
I0
ssg90
(dp4407
g4398
I2
sg4399
I9
sg4400
I8
sg4401
I7
ssg92
I0
sg93
(lp4408
g1952
aI01
aI01
aI00
asg96
I0
sg97
S'Rodrigues'
p4409
sg99
I11
sg100
I0
sg101
I00
sg102
I82
sg103
g1942
sg105
I00
sg106
g32
sg107
I24
sg108
(dp4410
S'RP1'
p4411
I7
sS'ME'
p4412
I10
sS'RP2'
p4413
I8
sS'E'
p4414
I10
sS'TO'
p4415
I12
sS'M'
p4416
I8
sS'JP'
p4417
I4
sS'RP_tot'
p4418
I9
sS'P'
p4419
I4
sS'PA'
p4420
I9
sS'A'
p4421
I11
sS'R'
p4422
I7
sS'TB'
p4423
I5
sS'PL'
p4424
I9
sS'TA'
p4425
I4
ssg125
(dp4426
g4411
I7
sg4412
I10
sg4413
I8
sg4414
I10
sg4419
I4
sg4417
I4
sg4416
I8
sg4418
I9
sg4415
I12
sg4420
I9
sg4421
I11
sg4422
I7
sg4423
I5
sg4424
I9
sg4425
I4
ssg127
g4392
sg128
I6
sg129
I0
sg130
I0
sg131
I0
sg132
I0
sg133
F9.529411764705882
sg134
I0
sg135
(S'dummy'
p4427
S'DL'
p4428
S'N8'
p4429
g32
tp4430
sg140
(dp4431
g4398
I0
sg4399
I0
sg4400
I0
sg4401
I0
ssg142
I0
sg143
I0
sg144
(dp4432
S's13'
p4433
(ijoueur
joueur
p4434
(dp4435
g28
I0
sg30
F1.0
sg129
I0
sg33
I0
sg73
I3
sg36
I0
sg39
g4392
sg53
(dp4436
g1978
I0
sg1979
I0
sg1980
I0
sg1981
I0
ssg140
g4431
sg77
I0
sg62
g4402
sg64
(dp4437
g1983
I1
sg1984
I1
sg1985
g1986
ssg70
I0
sg74
I0
sg75
I0
sg76
I0
sg135
g4430
sg78
I00
sg127
g4392
sg79
F11.0
sg101
I00
sg88
(dp4438
S'SR'
p4439
I0
sS'ST'
p4440
I0
sS'CR'
p4441
I0
sS'CT'
p4442
I0
ssg90
g4407
sg92
I0
sg93
(lp4443
g1989
aI01
aI01
aI00
asg80
(dp4444
g4439
I1
sg4440
I0
sg4441
I3
sg4442
I9
ssg97
g4409
sg99
I11
sg100
I0
sg107
I24
sg102
I82
sg103
g1942
sg108
(dp4445
g1992
I0
sg1993
I0
sg1994
I0
sg1995
I0
sg1996
I0
sg1997
I0
sg1998
I0
sg1999
I0
sg2000
I0
sg2001
I0
sg2002
I0
sg2003
I0
sg2004
I0
sg2005
I0
sg2006
I0
ssg144
(dp4446
sg128
I0
sg31
g32
sg130
I0
sg131
F11.0
sg132
I0
sg133
F9.529411764705882
sg134
I0
sg142
I0
sg86
(dp4447
g4439
I0
sg4440
I0
sg4441
I0
sg4442
I0
ssg187
I0
sg125
(dp4448
g2010
I11
sg2011
I10
sg2012
I8
sg2013
I10
sg2014
I12
sg2015
I7
sg2016
I4
sg2017
I9
sg2018
I4
sg2019
I9
sg2020
I8
sg2021
I7
sg2022
I5
sg2023
I9
sg2024
I4
ssg204
I0
sg205
I0
sg206
I0
sg207
I0
sg154
I7
sg208
I0
sg143
I0
sg96
I0
sg209
I0
sg210
S'EST'
p4449
sbsS's12'
p4450
(ijoueur
joueur
p4451
(dp4452
g27
F8.117647058823529
sg28
I0
sg30
F0.0
sg31
g32
sg33
I0
sg73
I3
sg35
g32
sg36
I0
sg37
g32
sg39
g40
(g41
g42
Ntp4453
Rp4454
(dp4455
g46
I4
sg47
S'x'
p4456
sg49
S'heros'
p4457
sbsg53
(dp4458
S'SR'
p4459
I0
sS'CT'
p4460
I0
sS'CR'
p4461
I0
sS'ST'
p4462
I0
ssg140
(dp4463
g4459
I0
sg4460
I0
sg4461
I0
sg4462
I0
ssg62
g32
sg64
(dp4464
g1983
I1
sg1984
I1
sg1985
g1986
ssg70
I0
sg74
I0
sg75
I0
sg76
I0
sg103
S'vide'
p4465
sg78
I00
sg79
F7.0
sg80
(dp4466
S'SR'
p4467
I0
sS'ST'
p4468
I7
sS'CR'
p4469
I0
sS'CT'
p4470
I0
ssg101
I00
sg88
(dp4471
g4467
I0
sg4468
I0
sg4469
I0
sg4470
I0
ssg90
(dp4472
g4459
I1
sg4460
I0
sg4461
I0
sg4462
I7
ssg92
I0
sg93
(lp4473
g1989
aI01
aI01
aI00
asg96
I0
sg97
S'Rodrigues'
p4474
sg99
I11
sg100
I0
sg107
I24
sg102
I82
sg77
I0
sg106
g32
sg108
(dp4475
S'RP1'
p4476
I7
sS'ME'
p4477
I9
sS'RP2'
p4478
I8
sS'E'
p4479
I9
sS'P'
p4480
I4
sS'JP'
p4481
I4
sS'M'
p4482
I8
sS'RP_tot'
p4483
I8
sS'TO'
p4484
I11
sS'PA'
p4485
I9
sS'A'
p4486
I11
sS'R'
p4487
I7
sS'TB'
p4488
I5
sS'PL'
p4489
I9
sS'TA'
p4490
I4
ssg127
g4454
sg128
I3
sg129
I0
sg130
I0
sg131
F7.0
sg132
I0
sg133
F8.970588235294118
sg134
I0
sg135
(S'dummy'
p4491
S'DL'
p4492
S'N8'
p4493
g32
tp4494
sg142
I0
sg86
(dp4495
g4467
I0
sg4468
I0
sg4469
I0
sg4470
I0
ssg144
(dp4496
S's11'
p4497
(ijoueur
joueur
p4498
(dp4499
g28
I0
sg33
I0
sg35
g32
sg36
I0
sg37
g32
sg39
g40
(g41
g42
Ntp4500
Rp4501
(dp4502
g46
I4
sg47
S'x'
p4503
sg49
S'heros'
p4504
sbsg53
(dp4505
S'SR'
p4506
I0
sS'ST'
p4507
I0
sS'CR'
p4508
I0
sS'CT'
p4509
I0
ssg140
(dp4510
g4506
I0
sg4507
I0
sg4508
I0
sg4509
I0
ssg62
g32
sg70
I0
sg101
I01
sg74
I0
sg75
I0
sg76
I0
sg103
S'vide'
p4511
sg78
I01
sg127
g40
(g41
g42
Ntp4512
Rp4513
(dp4514
g46
I3
sg47
S'^^^'
p4515
sg49
S'rare'
p4516
sbsg80
(dp4517
g4506
I1
sg4507
I0
sg4508
I0
sg4509
I0
ssg86
(dp4518
g4506
I0
sg4507
I0
sg4508
I0
sg4509
I0
ssg88
(dp4519
g4506
I0
sg4507
I0
sg4508
I0
sg4509
I0
ssg90
(dp4520
g4506
I1
sg4507
I0
sg4508
I0
sg4509
I0
ssg92
I0
sg96
I0
sg97
S'Rodrigues'
p4521
sg99
I11
sg100
I0
sg107
I24
sg102
I17
sg135
(S'dummy'
p4522
S'DL'
p4523
S'N8'
p4524
g32
tp4525
sg106
g32
sg108
(dp4526
S'RP1'
p4527
I6
sS'ME'
p4528
I8
sS'RP2'
p4529
I6
sS'E'
p4530
I9
sS'TO'
p4531
I10
sS'M'
p4532
I8
sS'JP'
p4533
I3
sS'RP_tot'
p4534
I6
sS'P'
p4535
I3
sS'PA'
p4536
I7
sS'A'
p4537
I9
sS'R'
p4538
I7
sS'TB'
p4539
I4
sS'PL'
p4540
I8
sS'TA'
p4541
I3
ssg128
I0
sg129
I0
sg130
I0
sg132
I0
sg133
F8.117647058823529
sg134
I0
sg143
I0
sg187
I0
sg304
(dp4542
S'RP1'
p4543
I6
sS'ME'
p4544
I8
sS'RP2'
p4545
I6
sS'E'
p4546
I9
sS'TO'
p4547
I10
sS'M'
p4548
I8
sS'JP'
p4549
I3
sS'RP_tot'
p4550
I6
sS'P'
p4551
I3
sS'PA'
p4552
I7
sS'A'
p4553
I9
sS'R'
p4554
I7
sS'TB'
p4555
I4
sS'PL'
p4556
I8
sS'TA'
p4557
I3
ssg125
g4526
sg204
I0
sg205
I0
sg206
I0
sg207
I0
sg154
I1
sg208
I0
sg209
I0
sg210
S'EST'
p4558
sbssg187
I1
sg304
(dp4559
g4476
I6
sg4477
I8
sg4478
I6
sg4479
I9
sg4484
I10
sg4482
I8
sg4481
I3
sg4483
I6
sg4480
I3
sg4485
I7
sg4486
I9
sg4487
I7
sg4488
I4
sg4489
I8
sg4490
I3
ssg125
g4475
sg204
I0
sg205
I0
sg206
I0
sg207
I0
sg154
I7
sg208
I0
sg143
I0
sg209
I1
sg210
S'EST'
p4560
sbsS's11'
p4561
(ijoueur
joueur
p4562
(dp4563
g28
I0
sg30
F0.5
sg33
I0
sg73
I1
sg35
g32
sg36
I0
sg37
g32
sg39
g40
(g41
g42
Ntp4564
Rp4565
(dp4566
g46
I4
sg47
S'x'
p4567
sg49
S'heros'
p4568
sbsg53
(dp4569
S'SR'
p4570
I0
sS'ST'
p4571
I0
sS'CR'
p4572
I0
sS'CT'
p4573
I0
ssg140
(dp4574
g4570
I0
sg4571
I0
sg4572
I0
sg4573
I0
ssg62
g32
sg64
(dp4575
g1983
I1
sg1984
I1
sg1985
g1986
ssg70
I0
sg101
I01
sg74
I0
sg75
I0
sg76
I0
sg103
S'vide'
p4576
sg78
I01
sg79
F0.5
sg80
(dp4577
g4570
I1
sg4571
I0
sg4572
I0
sg4573
I0
ssg86
(dp4578
g4570
I0
sg4571
I0
sg4572
I0
sg4573
I0
ssg88
(dp4579
g4570
I0
sg4571
I0
sg4572
I0
sg4573
I0
ssg90
(dp4580
g4570
I1
sg4571
I0
sg4572
I0
sg4573
I0
ssg92
I0
sg93
(lp4581
g1989
aI01
aI01
aI00
asg96
I0
sg97
S'Rodrigues'
p4582
sg99
I11
sg100
I0
sg107
I24
sg102
I17
sg77
I0
sg106
g32
sg108
(dp4583
S'RP1'
p4584
I6
sS'ME'
p4585
I8
sS'RP2'
p4586
I6
sS'E'
p4587
I9
sS'TO'
p4588
I10
sS'M'
p4589
I8
sS'JP'
p4590
I3
sS'RP_tot'
p4591
I6
sS'P'
p4592
I3
sS'PA'
p4593
I7
sS'A'
p4594
I9
sS'R'
p4595
I7
sS'TB'
p4596
I4
sS'PL'
p4597
I8
sS'TA'
p4598
I3
ssg127
g40
(g41
g42
Ntp4599
Rp4600
(dp4601
g46
I3
sg47
S'^^^'
p4602
sg49
S'rare'
p4603
sbsg128
I0
sg129
I0
sg130
I0
sg131
F0.5
sg132
I0
sg133
F8.117647058823529
sg134
I0
sg135
(S'dummy'
p4604
S'DL'
p4605
S'N8'
p4606
g32
tp4607
sg142
I0
sg143
I0
sg187
I0
sg304
(dp4608
S'RP1'
p4609
I6
sS'ME'
p4610
I8
sS'RP2'
p4611
I6
sS'E'
p4612
I9
sS'TO'
p4613
I10
sS'M'
p4614
I8
sS'JP'
p4615
I3
sS'RP_tot'
p4616
I6
sS'P'
p4617
I3
sS'PA'
p4618
I7
sS'A'
p4619
I9
sS'R'
p4620
I7
sS'TB'
p4621
I4
sS'PL'
p4622
I8
sS'TA'
p4623
I3
ssg125
g4583
sg204
I0
sg205
I0
sg206
I0
sg207
I0
sg154
I1
sg208
I0
sg209
I0
sg210
S'EST'
p4624
sbssg187
I1
sg304
(dp4625
g4411
I6
sg4412
I8
sg4413
I6
sg4414
I9
sg4415
I10
sg4416
I8
sg4417
I3
sg4418
I6
sg4419
I3
sg4420
I7
sg4421
I9
sg4422
I7
sg4423
I4
sg4424
I8
sg4425
I3
ssg204
I0
sg389
(dp4626
sg205
I0
sg206
I0
sg207
I0
sg154
I7
sg208
I0
sg209
I0
sg210
g4449
sbsS'n6'
p4627
(ijoueur
joueur
p4628
(dp4629
g28
I0
sg30
F2.5
sg129
I0
sg33
I0
sg34
F9.479240689426756
sg35
g32
sg36
I0
sg37
g32
sg38
I0
sg39
g40
(g41
g42
Ntp4630
Rp4631
(dp4632
g46
I3
sg47
S'<<<'
p4633
sg49
S'rare'
p4634
sbsg51
(dp4635
sg53
(dp4636
g1932
I0
sg1933
I0
sg1934
I5
sg1935
I4
ssg59
F9.096774193548388
sg140
(dp4637
g1932
I0
sg1933
I0
sg1934
I0
sg1935
I0
ssg61
I10
sg62
g32
sg64
(dp4638
g1938
I2
sg1939
I12
sg1940
g1941
ssg70
I0
sg71
F9.479240689426756
sg72
I00
sg73
I1
sg74
I0
sg75
I0
sg76
I0
sg103
g1942
sg78
I00
sg79
F9.5
sg80
(dp4639
g1944
I0
sg1945
I0
sg1946
I1
sg1947
I0
ssg86
(dp4640
g1944
I0
sg1945
I0
sg1946
I0
sg1947
I0
ssg88
(dp4641
g1944
I0
sg1945
I0
sg1946
I0
sg1947
I0
ssg90
(dp4642
g1932
I0
sg1933
I0
sg1934
I3
sg1935
I2
ssg92
I0
sg93
(lp4643
g1952
aI01
aI01
aI00
asg96
I0
sg97
S'Qelopie'
p4644
sg99
I6
sg100
I0
sg101
I00
sg102
I25
sg77
I1
sg105
I00
sg106
g32
sg107
I19
sg108
(dp4645
g1955
I6
sg1956
I9
sg1957
I4
sg1958
I9
sg1959
I4
sg1960
I4
sg1961
I8
sg1962
I6
sg1963
I8
sg1964
I7
sg1965
I8
sg1966
I11
sg1967
I4
sg1968
I9
sg1969
I6
ssg127
g4631
sg128
I4
sg31
g32
sg130
I0
sg131
I0
sg132
I0
sg133
F8.96774193548387
sg134
I0
sg135
(g1970
S'TL'
p4646
S'DL'
p4647
g32
tp4648
sg142
I-2
sg143
I0
sg144
(dp4649
S's13'
p4650
(ijoueur
joueur
p4651
(dp4652
g28
I0
sg30
F2.5
sg129
I0
sg33
I0
sg73
I1
sg36
I0
sg39
g4631
sg53
(dp4653
g1978
I0
sg1979
I0
sg1980
I0
sg1981
I0
ssg140
g4637
sg77
I0
sg62
g32
sg64
(dp4654
g1983
I1
sg1984
I1
sg1985
g1986
ssg70
I0
sg74
I0
sg75
I0
sg76
I0
sg135
g4648
sg78
I00
sg127
g4631
sg79
F9.5
sg101
I00
sg88
(dp4655
g1932
I0
sg1933
I0
sg1934
I0
sg1935
I0
ssg90
g4642
sg92
I0
sg93
(lp4656
g1989
aI01
aI01
aI00
asg80
(dp4657
g1932
I0
sg1933
I0
sg1934
I2
sg1935
I2
ssg97
g4644
sg99
I6
sg100
I0
sg107
I19
sg102
I25
sg103
g1942
sg108
(dp4658
g1992
I0
sg1993
I0
sg1994
I0
sg1995
I0
sg1996
I0
sg1997
I0
sg1998
I0
sg1999
I0
sg2000
I0
sg2001
I0
sg2002
I0
sg2003
I0
sg2004
I0
sg2005
I0
sg2006
I0
ssg144
(dp4659
sg128
I0
sg31
g32
sg130
I0
sg131
F9.5
sg132
I0
sg133
F9.096774193548388
sg134
I0
sg142
I0
sg86
(dp4660
g1932
I0
sg1933
I0
sg1934
I5
sg1935
I4
ssg187
I0
sg125
(dp4661
g2010
I8
sg2011
I9
sg2012
I6
sg2013
I9
sg2014
I8
sg2015
I6
sg2016
I4
sg2017
I7
sg2018
I4
sg2019
I7
sg2020
I8
sg2021
I11
sg2022
I4
sg2023
I9
sg2024
I6
ssg204
I0
sg205
I0
sg206
I0
sg207
I0
sg154
I2
sg208
I0
sg143
I0
sg96
I0
sg209
I0
sg210
g2025
sbsS's12'
p4662
(ijoueur
joueur
p4663
(dp4664
g28
I0
sg30
I0
sg129
I0
sg33
I0
sg73
I0
sg36
I0
sg39
g40
(g41
g42
Ntp4665
Rp4666
(dp4667
g47
g32
sbsg53
(dp4668
g1932
I0
sg1933
I0
sg1934
I0
sg1935
I0
ssg140
(dp4669
g1932
I0
sg1933
I0
sg1934
I0
sg1935
I0
ssg77
I0
sg62
g32
sg64
(dp4670
g1983
I1
sg1984
I1
sg1985
g1986
ssg70
I0
sg74
I0
sg75
I0
sg76
I0
sg135
(g1970
g4646
g32
g32
tp4671
sg78
I00
sg127
g40
(g41
g42
Ntp4672
Rp4673
(dp4674
g47
g32
sbsg79
I0
sg101
I00
sg88
(dp4675
g1932
I0
sg1933
I0
sg1934
I0
sg1935
I0
ssg90
(dp4676
g1932
I0
sg1933
I0
sg1934
I0
sg1935
I0
ssg92
I0
sg93
(lp4677
g1989
aI01
aI00
aI00
asg80
(dp4678
g1932
I0
sg1933
I0
sg1934
I0
sg1935
I0
ssg97
g32
sg99
I0
sg100
I0
sg107
I0
sg102
I0
sg103
g1942
sg108
(dp4679
g1965
I0
sg1956
I0
sg1957
I0
sg1958
I0
sg1963
I0
sg1955
I0
sg1960
I0
sg1962
I0
sg1959
I0
sg1964
I0
sg1961
I0
sg1966
I0
sg1967
I0
sg1968
I0
sg1969
I0
ssg144
(dp4680
sg128
I0
sg31
g32
sg130
I0
sg131
I0
sg132
I0
sg133
F9.096774193548388
sg134
I0
sg142
I0
sg86
(dp4681
g1932
I0
sg1933
I0
sg1934
I0
sg1935
I0
ssg187
I0
sg125
(dp4682
g1955
I6
sg1956
I9
sg1957
I4
sg1958
I9
sg1963
I8
sg1961
I8
sg1960
I4
sg1962
I6
sg1959
I4
sg1964
I7
sg1965
I8
sg1966
I11
sg1967
I4
sg1968
I9
sg1969
I6
ssg204
I0
sg205
I0
sg206
I0
sg207
I0
sg154
I0
sg208
I0
sg143
I0
sg96
I0
sg209
I0
sg210
g32
sbsS's11'
p4683
(ijoueur
joueur
p4684
(dp4685
g28
I0
sg30
I0
sg129
I0
sg33
I0
sg73
I0
sg36
I0
sg39
g40
(g41
g42
Ntp4686
Rp4687
(dp4688
g47
g32
sbsg53
(dp4689
g1932
I0
sg1933
I0
sg1934
I0
sg1935
I0
ssg140
(dp4690
g1932
I0
sg1933
I0
sg1934
I0
sg1935
I0
ssg77
I0
sg62
g32
sg64
(dp4691
g1983
I1
sg1984
I1
sg1985
g1986
ssg70
I0
sg74
I0
sg75
I0
sg76
I0
sg135
g4671
sg78
I00
sg127
g40
(g41
g42
Ntp4692
Rp4693
(dp4694
g47
g32
sbsg79
I0
sg101
I00
sg88
(dp4695
g1932
I0
sg1933
I0
sg1934
I0
sg1935
I0
ssg90
(dp4696
g1932
I0
sg1933
I0
sg1934
I0
sg1935
I0
ssg92
I0
sg93
(lp4697
g1989
aI01
aI00
aI00
asg80
(dp4698
g1932
I0
sg1933
I0
sg1934
I0
sg1935
I0
ssg97
g32
sg99
I0
sg100
I0
sg107
I0
sg102
I0
sg103
g1942
sg108
(dp4699
g1965
I0
sg1956
I0
sg1957
I0
sg1958
I0
sg1963
I0
sg1955
I0
sg1960
I0
sg1962
I0
sg1959
I0
sg1964
I0
sg1961
I0
sg1966
I0
sg1967
I0
sg1968
I0
sg1969
I0
ssg144
(dp4700
sg128
I0
sg31
g32
sg130
I0
sg131
I0
sg132
I0
sg133
F9.096774193548388
sg134
I0
sg142
I0
sg86
(dp4701
g1932
I0
sg1933
I0
sg1934
I0
sg1935
I0
ssg187
I0
sg125
g4682
sg204
I0
sg205
I0
sg206
I0
sg207
I0
sg154
I0
sg208
I0
sg143
I0
sg96
I0
sg209
I0
sg210
g32
sbssg187
I0
sg125
g4682
sg204
I0
sg205
I0
sg206
I0
sg207
I0
sg154
I2
sg208
I0
sg209
I0
sg210
g2025
sbsS'n7'
p4702
(ijoueur
joueur
p4703
(dp4704
g28
I0
sg30
F4.0
sg129
I0
sg33
I0
sg34
F39.129146325434604
sg35
g32
sg36
I0
sg37
g32
sg38
I-8
sg39
g40
(g41
g42
Ntp4705
Rp4706
(dp4707
g46
I4
sg47
g397
sg49
g398
sbsg51
(dp4708
sg53
(dp4709
g401
I0
sg402
I0
sg403
I0
sg404
I0
ssg59
F10.0
sg140
(dp4710
g401
I0
sg402
I0
sg403
I0
sg404
I0
ssg1543
I7
sg62
g32
sg64
(dp4711
g407
I2
sg408
I3
sg409
g410
ssg70
I0
sg71
F39.129146325434604
sg72
I00
sg73
I1
sg74
I0
sg75
I0
sg76
I0
sg103
g411
sg78
I00
sg79
F14.0
sg80
(dp4712
g413
I0
sg414
I0
sg415
I0
sg416
I4
ssg101
I00
sg88
(dp4713
g413
I0
sg414
I0
sg415
I0
sg416
I0
ssg90
(dp4714
g401
I0
sg402
I18
sg403
I0
sg404
I0
ssg92
I0
sg93
(lp4715
g421
aI01
aI00
aI00
asg96
I0
sg97
S'Sthiael'
p4716
sg99
I3
sg100
I0
sg107
I12
sg102
I84
sg77
I2
sg105
I00
sg106
g32
sg108
(dp4717
g424
I7
sg425
I7
sg426
I8
sg427
I11
sg428
I11
sg429
I8
sg430
I8
sg431
I9
sg432
I8
sg433
I10
sg434
I13
sg435
I8
sg436
I6
sg437
I13
sg438
I4
ssg127
g4706
sg128
g439
(g443
S'\x06\x00\x00\x00'
p4718
tp4719
Rp4720
sg31
g32
sg130
I0
sg131
I0
sg132
I0
sg133
F10.157894736842104
sg134
I0
sg135
(g449
S'TL'
p4721
g32
g32
tp4722
sg142
I1
sg86
(dp4723
g413
I0
sg414
I0
sg415
I0
sg416
I0
ssg144
(dp4724
S's13'
p4725
(ijoueur
joueur
p4726
(dp4727
g28
I0
sg30
F4.0
sg129
I0
sg33
I0
sg73
I1
sg36
I0
sg39
g4706
sg53
(dp4728
g458
I0
sg459
I0
sg460
I0
sg461
I0
ssg140
g4710
sg77
I0
sg62
g32
sg64
(dp4729
g463
I1
sg464
I1
sg465
g466
ssg70
I0
sg74
I0
sg75
I0
sg76
I0
sg135
g4722
sg78
I00
sg127
g4706
sg79
F14.0
sg101
I00
sg88
(dp4730
g401
I0
sg402
I0
sg403
I0
sg404
I0
ssg90
g4714
sg92
I0
sg93
(lp4731
g474
aI01
aI00
aI00
asg80
(dp4732
g401
I0
sg402
I14
sg403
I0
sg404
I0
ssg97
g4716
sg99
I3
sg100
I0
sg107
I12
sg102
I84
sg103
g411
sg108
(dp4733
g477
I0
sg478
I0
sg479
I0
sg480
I0
sg481
I0
sg482
I0
sg483
I0
sg484
I0
sg485
I0
sg486
I0
sg487
I0
sg488
I0
sg489
I0
sg490
I0
sg491
I0
ssg144
(dp4734
sg128
I0
sg31
g32
sg130
I0
sg131
F14.0
sg132
I0
sg133
F10.0
sg134
I0
sg142
I0
sg86
(dp4735
g401
I0
sg402
I0
sg403
I0
sg404
I0
ssg187
I0
sg125
(dp4736
g495
I13
sg496
I7
sg497
I8
sg498
I11
sg499
I8
sg500
I7
sg501
I7
sg502
I9
sg503
I11
sg504
I10
sg505
I8
sg506
I8
sg507
I6
sg508
I12
sg509
I4
ssg204
I0
sg205
I0
sg206
I0
sg207
I0
sg154
I8
sg208
I0
sg143
I0
sg96
I0
sg209
I0
sg210
S'HE'
p4737
sbsS's12'
p4738
(ijoueur
joueur
p4739
(dp4740
g28
I0
sg30
I0
sg129
I0
sg33
I0
sg73
I0
sg36
I0
sg39
g40
(g41
g42
Ntp4741
Rp4742
(dp4743
g47
g32
sbsg53
(dp4744
g401
I0
sg402
I0
sg403
I0
sg404
I0
ssg140
(dp4745
g401
I0
sg402
I0
sg403
I0
sg404
I0
ssg77
I0
sg62
g32
sg64
(dp4746
g463
I1
sg464
I1
sg465
g466
ssg70
I0
sg74
I0
sg75
I0
sg76
I0
sg135
(g449
g4721
g32
g32
tp4747
sg78
I00
sg127
g40
(g41
g42
Ntp4748
Rp4749
(dp4750
g47
g32
sbsg79
I0
sg101
I00
sg88
(dp4751
g401
I0
sg402
I0
sg403
I0
sg404
I0
ssg90
(dp4752
g401
I0
sg402
I0
sg403
I0
sg404
I0
ssg92
I0
sg93
(lp4753
g474
aI01
aI00
aI00
asg80
(dp4754
g401
I0
sg402
I0
sg403
I0
sg404
I0
ssg97
g32
sg99
I0
sg100
I0
sg107
I0
sg102
I0
sg103
g411
sg108
(dp4755
g434
I0
sg425
I0
sg426
I0
sg427
I0
sg432
I0
sg424
I0
sg430
I0
sg431
I0
sg428
I0
sg433
I0
sg429
I0
sg435
I0
sg436
I0
sg437
I0
sg438
I0
ssg144
(dp4756
sg128
I0
sg31
g32
sg130
I0
sg131
I0
sg132
I0
sg133
F10.0
sg134
I0
sg142
I0
sg86
(dp4757
g401
I0
sg402
I0
sg403
I0
sg404
I0
ssg187
I0
sg125
(dp4758
g424
I7
sg425
I7
sg426
I8
sg427
I11
sg432
I8
sg430
I8
sg429
I8
sg431
I9
sg428
I11
sg433
I10
sg434
I13
sg435
I8
sg436
I6
sg437
I13
sg438
I4
ssg204
I0
sg205
I0
sg206
I0
sg207
I0
sg154
I0
sg208
I0
sg143
I0
sg96
I0
sg209
I0
sg210
g32
sbsS's11'
p4759
(ijoueur
joueur
p4760
(dp4761
g28
I0
sg30
I0
sg129
I0
sg33
I0
sg73
I0
sg36
I0
sg39
g40
(g41
g42
Ntp4762
Rp4763
(dp4764
g47
g32
sbsg53
(dp4765
g401
I0
sg402
I0
sg403
I0
sg404
I0
ssg140
(dp4766
g401
I0
sg402
I0
sg403
I0
sg404
I0
ssg77
I0
sg62
g32
sg64
(dp4767
g463
I1
sg464
I1
sg465
g466
ssg70
I0
sg74
I0
sg75
I0
sg76
I0
sg135
g4747
sg78
I00
sg127
g40
(g41
g42
Ntp4768
Rp4769
(dp4770
g47
g32
sbsg79
I0
sg101
I00
sg88
(dp4771
g401
I0
sg402
I0
sg403
I0
sg404
I0
ssg90
(dp4772
g401
I0
sg402
I0
sg403
I0
sg404
I0
ssg92
I0
sg93
(lp4773
g474
aI01
aI00
aI00
asg80
(dp4774
g401
I0
sg402
I0
sg403
I0
sg404
I0
ssg97
g32
sg99
I0
sg100
I0
sg107
I0
sg102
I0
sg103
g411
sg108
(dp4775
g434
I0
sg425
I0
sg426
I0
sg427
I0
sg432
I0
sg424
I0
sg430
I0
sg431
I0
sg428
I0
sg433
I0
sg429
I0
sg435
I0
sg436
I0
sg437
I0
sg438
I0
ssg144
(dp4776
sg128
I0
sg31
g32
sg130
I0
sg131
I0
sg132
I0
sg133
F10.0
sg134
I0
sg142
I0
sg86
(dp4777
g401
I0
sg402
I0
sg403
I0
sg404
I0
ssg187
I0
sg125
g4758
sg204
I0
sg205
I0
sg206
I0
sg207
I0
sg154
I0
sg208
I0
sg143
I0
sg96
I0
sg209
I0
sg210
g32
sbssg187
I1
sg125
g4758
sg204
I0
sg205
I0
sg206
I0
sg207
I0
sg154
I8
sg208
I0
sg143
I0
sg209
I0
sg210
g4737
sbssS'remplacements'
p4778
(dp4779
g2067
S'n0'
p4780
sg2217
g4780
sg2456
g4780
sg2494
g4780
sg2534
g4780
sg2576
g4780
sg2868
g4780
ssb.