(iclub
compo
p0
(dp1
S'caracs_old'
p2
(dp3
S'A'
p4
F173.0
sS'ME'
p5
F106.5
sS'E'
p6
I216
sS'OplusAV'
p7
F90.5
sS'TO_off'
p8
F123.5
sS'OplusAR'
p9
F112.0
sS'M'
p10
F41.0
sS'JP'
p11
F94.0
sS'OmoinsAR'
p12
F68.0
sS'PA'
p13
F106.5
sS'TO_def'
p14
F112.5
sS'OmoinsAV'
p15
F66.0
sS'R'
p16
F186.0
ssS'totaux_old'
p17
(dp18
S'T2'
p19
F186.75
sS'T3'
p20
F108.0
sS'T1'
p21
F205.25
ssS'roles'
p22
(dp23
S'drop1'
p24
(ijoueur
joueur
p25
(dp26
S'rouges_total'
p27
I0
sS'drops_total'
p28
I0
sS'blessure'
p29
I0
sS'RG_max'
p30
(ijoueur
rang
p31
(dp32
S'type_nb'
p33
I4
sS'rang'
p34
S'*'
p35
sS'type'
p36
S'heros'
p37
sbsS'MJ2_total'
p38
(dp39
S'SR'
p40
I0
sS'CT'
p41
I0
sS'CR'
p42
I0
sS'ST'
p43
I0
ssS'MJ3_total'
p44
(dp45
g40
I0
sg41
I0
sg42
I0
sg43
I0
ssS'drop_rates_total'
p46
I0
sS'drop_rates_saison'
p47
I0
sS'transformations'
p48
I0
sS'penalites'
p49
I0
sS'essais_saison'
p50
I0
sS'penalite_ratees_saison'
p51
I0
sS'transformations_saison'
p52
I0
sS'postes'
p53
(S'dummy'
p54
S'AI'
p55
S'CE'
p56
S''
p57
tp58
sS'RG'
p59
(ijoueur
rang
p60
(dp61
g33
I4
sg34
g35
sg36
g37
sbsS'MJ1'
p62
(dp63
g40
I0
sg41
I0
sg42
I0
sg43
I0
ssS'MJ2'
p64
(dp65
g40
I0
sg41
I0
sg42
I0
sg43
I0
ssS'MJ3'
p66
(dp67
g40
I0
sg41
I0
sg42
I0
sg43
I0
ssS'MJ1_total'
p68
(dp69
g40
I0
sg41
I0
sg42
I0
sg43
I0
ssS'penalites_total'
p70
I0
sS'penalites_saison'
p71
I0
sS'nom'
p72
S'Yvarov'
p73
sS'C'
p74
I9
sS'transformations_total'
p75
I0
sS'D'
p76
I22
sS'VAL'
p77
I98
sS'club'
p78
S'MSL'
p79
sS'caracs'
p80
(dp81
S'A'
p82
I9
sS'ME'
p83
I6
sS'RP2'
p84
I8
sS'E'
p85
I9
sS'P'
p86
I9
sS'RP1'
p87
I13
sS'JP'
p88
I9
sS'RP_tot'
p89
I14
sS'TO'
p90
I3
sS'PA'
p91
I10
sS'M'
p92
I9
sS'R'
p93
I8
sS'TB'
p94
I7
sS'PL'
p95
I9
sS'TA'
p96
I5
ssS'fatigue'
p97
I0
sS'drop_ratees_total'
p98
I0
sS'blessures_total'
p99
I0
sS'XP'
p100
I0
sS'EV'
p101
F10.03225806451613
sS'penalite_ratees_total'
p102
I0
sS'drops'
p103
I0
sS'blessures_saison'
p104
I0
sS'jaunes_total'
p105
I0
sS'caracs_sans_fatigue'
p106
g81
sS'rouges_saison'
p107
I0
sS'anciens_clubs'
p108
g57
sS'transformation_ratees_total'
p109
I0
sS'drops_saison'
p110
I0
sS'transformation_ratees_saison'
p111
I0
sS'MS'
p112
I9
sS'essais_total'
p113
I1
sS'jaunes_saison'
p114
I0
sS'ARM'
p115
S'CV'
p116
sbsS'SA_scd'
p117
(ijoueur
joueur
p118
(dp119
g27
I0
sg28
I0
sg29
I0
sg30
(ijoueur
rang
p120
(dp121
g33
I5
sg34
S'**'
p122
sg36
S'seigneur'
p123
sbsg38
(dp124
g40
I0
sg41
I0
sg42
I0
sg43
I0
ssg44
(dp125
g40
I0
sg41
I0
sg42
I0
sg43
I0
ssg46
I0
sg47
I0
sg48
I0
sg49
I0
sg50
I1
sg51
I0
sg52
I0
sg53
(g54
S'TL'
p126
g57
g57
tp127
sg59
(ijoueur
rang
p128
(dp129
g33
I5
sg34
S'**'
p130
sg36
g123
sbsg62
(dp131
g40
I0
sg41
I0
sg42
I0
sg43
I0
ssg64
(dp132
g40
I0
sg41
I0
sg42
I0
sg43
I0
ssg66
(dp133
g40
I0
sg41
I0
sg42
I0
sg43
I0
ssg68
(dp134
g40
I0
sg41
I0
sg42
I0
sg43
I0
ssg70
I0
sg71
I0
sg72
S'Frilotov'
p135
sg74
I2
sg75
I0
sg76
I13
sg77
I180
sg78
g79
sg80
(dp136
g82
I10
sg83
I9
sg84
I9
sg85
I12
sg86
I8
sg87
I8
sg88
I5
sg89
I10
sg90
I12
sg91
I10
sg92
I10
sg93
I11
sg94
I4
sg95
I13
sg96
I5
ssg97
I0
sg98
I0
sg99
I0
sg100
I0
sg101
F11.236842105263158
sg102
I0
sg103
I0
sg104
I0
sg105
I0
sg106
g136
sg107
I0
sg108
g57
sg109
I0
sg110
I0
sg111
I0
sg112
I18
sg113
I5
sg114
I0
sg115
S'CV'
p137
sbsS'RJL'
p138
(ijoueur
joueur
p139
(dp140
g27
I0
sg28
I3
sg29
I0
sg30
(ijoueur
rang
p141
(dp142
g33
I6
sg34
S'***'
p143
sg36
S'personnage'
p144
sbsg38
(dp145
g40
I0
sg41
I0
sg42
I0
sg43
I0
ssg44
(dp146
g40
I0
sg41
I0
sg42
I0
sg43
I0
ssg46
I1
sg47
I1
sg48
I38
sg49
I67
sg50
I0
sg51
I0
sg52
I1
sg53
(g54
S'DO'
p147
S'CE'
p148
S'AR'
p149
tp150
sg59
(ijoueur
rang
p151
(dp152
g33
I6
sg34
S'***'
p153
sg36
g144
sbsg62
(dp154
g40
I0
sg41
I0
sg42
I0
sg43
I0
ssg64
(dp155
g40
I0
sg41
I0
sg42
I0
sg43
I0
ssg66
(dp156
g40
I0
sg41
I0
sg42
I0
sg43
I0
ssg68
(dp157
g40
I0
sg41
I0
sg42
I0
sg43
I0
ssg70
I67
sg71
I4
sg72
S'Thorgrim'
p158
sg74
I9
sg75
I38
sg76
I21
sg77
I962
sg78
g79
sg80
(dp159
g82
I8
sg83
I6
sg84
I12
sg85
I12
sg86
I13
sg87
I12
sg88
I11
sg89
I17
sg90
I2
sg91
I11
sg92
I8
sg93
I8
sg94
I12
sg95
I12
sg96
I4
ssg97
I0
sg98
I0
sg99
I0
sg100
I0
sg101
F11.485714285714286
sg102
I0
sg103
I3
sg104
I0
sg105
I0
sg106
g159
sg107
I0
sg108
g57
sg109
I0
sg110
I1
sg111
I0
sg112
I114
sg113
I5
sg114
I0
sg115
S'N'
p160
sbsS'cap'
p161
(ijoueur
joueur
p162
(dp163
g27
I0
sg28
I0
sg29
I0
sg30
(ijoueur
rang
p164
(dp165
g33
I5
sg34
S'**'
p166
sg36
g123
sbsg38
(dp167
g40
I0
sg41
I0
sg42
I0
sg43
I0
ssg44
(dp168
g40
I0
sg41
I0
sg42
I0
sg43
I0
ssg46
I0
sg47
I0
sg48
I0
sg49
I0
sg50
I0
sg51
I0
sg52
I0
sg53
(g54
S'DL'
p169
S'N8'
p170
g57
tp171
sg59
(ijoueur
rang
p172
(dp173
g33
I3
sg34
S'^^^'
p174
sg36
S'rare'
p175
sbsg62
(dp176
g40
I0
sg41
I0
sg42
I0
sg43
I0
ssg64
(dp177
g40
I0
sg41
I0
sg42
I0
sg43
I0
ssg66
(dp178
g40
I0
sg41
I0
sg42
I0
sg43
I0
ssg68
(dp179
g40
I0
sg41
I0
sg42
I0
sg43
I0
ssg70
I0
sg71
I0
sg72
S'Ulmeux'
p180
sg74
I7
sg75
I0
sg76
I19
sg77
I110
sg78
g79
sg80
(dp181
g82
I11
sg83
I10
sg84
I9
sg85
I14
sg86
I5
sg87
I12
sg88
I4
sg89
I14
sg90
I8
sg91
I8
sg92
I8
sg93
I12
sg94
I5
sg95
I10
sg96
I4
ssg97
I0
sg98
I0
sg99
I0
sg100
I0
sg101
F11.62962962962963
sg102
I0
sg103
I0
sg104
I0
sg105
I0
sg106
g181
sg107
I0
sg108
g57
sg109
I0
sg110
I0
sg111
I0
sg112
I11
sg113
I6
sg114
I0
sg115
S'B'
p182
sbsS'B4'
p183
g139
sS'RJC'
p184
g139
sS'B1'
p185
g139
sS'B2'
p186
g139
sS'B3'
p187
g139
sS'SA_pcp2'
p188
(ijoueur
joueur
p189
(dp190
g27
I0
sg28
I0
sg29
I0
sg30
(ijoueur
rang
p191
(dp192
g33
I5
sg34
S'xx'
p193
sg36
g123
sbsg38
(dp194
g40
I0
sg41
I0
sg42
I0
sg43
I0
ssg44
(dp195
g40
I0
sg41
I0
sg42
I0
sg43
I0
ssg46
I0
sg47
I0
sg48
I0
sg49
I0
sg50
I0
sg51
I0
sg52
I0
sg53
(g54
S'PI'
p196
S'TA'
p197
S'DL'
p198
tp199
sg59
(ijoueur
rang
p200
(dp201
g33
I5
sg34
S'xx'
p202
sg36
g123
sbsg62
(dp203
g40
I0
sg41
I0
sg42
I0
sg43
I0
ssg64
(dp204
g40
I0
sg41
I0
sg42
I0
sg43
I0
ssg66
(dp205
g40
I0
sg41
I0
sg42
I0
sg43
I0
ssg68
(dp206
g40
I0
sg41
I0
sg42
I0
sg43
I0
ssg70
I0
sg71
I0
sg72
S'Vrokhaen'
p207
sg74
I5
sg75
I0
sg76
I13
sg77
I1093
sg78
g79
sg80
(dp208
g82
I12
sg83
I10
sg84
I9
sg85
I11
sg86
I1
sg87
I9
sg88
I0
sg89
I11
sg90
I13
sg91
I15
sg92
I11
sg93
I11
sg94
I0
sg95
I11
sg96
I10
ssg97
I0
sg98
I0
sg99
I0
sg100
I0
sg101
F11.441176470588236
sg102
I0
sg103
I0
sg104
I0
sg105
I0
sg106
g208
sg107
I0
sg108
S'SN10'
p209
sg109
I0
sg110
I0
sg111
I0
sg112
I112
sg113
I22
sg114
I0
sg115
S'S'
p210
sbsS'SA_pcp1'
p211
(ijoueur
joueur
p212
(dp213
g27
I0
sg28
I0
sg29
I0
sg30
(ijoueur
rang
p214
(dp215
g33
I5
sg34
S'**'
p216
sg36
g123
sbsg38
(dp217
g40
I0
sg41
I0
sg42
I0
sg43
I0
ssg44
(dp218
g40
I0
sg41
I0
sg42
I0
sg43
I0
ssg46
I0
sg47
I0
sg48
I0
sg49
I0
sg50
I0
sg51
I0
sg52
I0
sg53
(g54
S'DL'
p219
g57
g57
tp220
sg59
(ijoueur
rang
p221
(dp222
g33
I4
sg34
g35
sg36
g37
sbsg62
(dp223
g40
I0
sg41
I0
sg42
I0
sg43
I0
ssg64
(dp224
g40
I0
sg41
I0
sg42
I0
sg43
I0
ssg66
(dp225
g40
I0
sg41
I0
sg42
I0
sg43
I0
ssg68
(dp226
g40
I0
sg41
I0
sg42
I0
sg43
I0
ssg70
I0
sg71
I0
sg72
S'Fetol'
p227
sg74
I9
sg75
I0
sg76
I23
sg77
I99
sg78
g79
sg80
(dp228
g82
I10
sg83
I10
sg84
I9
sg85
I10
sg86
I4
sg87
I12
sg88
I6
sg89
I14
sg90
I14
sg91
I8
sg92
I8
sg93
I8
sg94
I4
sg95
I8
sg96
I5
ssg97
I0
sg98
I0
sg99
I0
sg100
I0
sg101
F10.529411764705882
sg102
I0
sg103
I0
sg104
I0
sg105
I0
sg106
g228
sg107
I0
sg108
g57
sg109
I0
sg110
I0
sg111
I0
sg112
I7
sg113
I3
sg114
I0
sg115
g182
sbsS'drop3'
p229
g139
sS'SA_remp1'
p230
(ijoueur
joueur
p231
(dp232
g27
I0
sg28
I0
sg29
I0
sg30
(ijoueur
rang
p233
(dp234
g33
I2
sg34
S'<<'
p235
sg36
S'special'
p236
sbsg38
(dp237
g40
I0
sg41
I0
sg42
I0
sg43
I0
ssg44
(dp238
g40
I0
sg41
I0
sg42
I0
sg43
I0
ssg46
I0
sg47
I0
sg48
I0
sg49
I0
sg50
I0
sg51
I0
sg52
I0
sg53
(g54
S'TL'
p239
S'DL'
p240
g57
tp241
sg59
(ijoueur
rang
p242
(dp243
g33
I3
sg34
S'^^^'
p244
sg36
g175
sbsg62
(dp245
g40
I0
sg41
I0
sg42
I0
sg43
I0
ssg64
(dp246
g40
I0
sg41
I0
sg42
I0
sg43
I0
ssg66
(dp247
g40
I0
sg41
I0
sg42
I0
sg43
I0
ssg68
(dp248
g40
I0
sg41
I0
sg42
I0
sg43
I0
ssg70
I0
sg71
I0
sg72
S'Lebel'
p249
sg74
I3
sg75
I0
sg76
I12
sg77
I80
sg78
g79
sg80
(dp250
g82
I10
sg83
I9
sg84
I7
sg85
I10
sg86
I4
sg87
I11
sg88
I4
sg89
I11
sg90
I11
sg91
I8
sg92
I9
sg93
I10
sg94
I5
sg95
I12
sg96
I4
ssg97
I0
sg98
I0
sg99
I0
sg100
I0
sg101
F10.447368421052632
sg102
I0
sg103
I0
sg104
I0
sg105
I0
sg106
g250
sg107
I0
sg108
S'DKW10'
p251
sg109
I0
sg110
I0
sg111
I0
sg112
I8
sg113
I3
sg114
I0
sg115
g182
sbsS'drop2'
p252
g139
sS'SA_remp2'
p253
(ijoueur
joueur
p254
(dp255
g27
I0
sg28
I0
sg29
I0
sg30
(ijoueur
rang
p256
(dp257
g33
I4
sg34
g35
sg36
g37
sbsg38
(dp258
g40
I0
sg41
I0
sg42
I0
sg43
I0
ssg44
(dp259
g40
I0
sg41
I0
sg42
I0
sg43
I0
ssg46
I0
sg47
I0
sg48
I0
sg49
I0
sg50
I0
sg51
I0
sg52
I0
sg53
(g54
S'DL'
p260
g57
g57
tp261
sg59
(ijoueur
rang
p262
(dp263
g33
I4
sg34
g35
sg36
g37
sbsg62
(dp264
g40
I0
sg41
I0
sg42
I0
sg43
I0
ssg64
(dp265
g40
I0
sg41
I0
sg42
I0
sg43
I0
ssg66
(dp266
g40
I0
sg41
I0
sg42
I0
sg43
I0
ssg68
(dp267
g40
I0
sg41
I0
sg42
I0
sg43
I0
ssg70
I0
sg71
I0
sg72
S'Kelter'
p268
sg74
I3
sg75
I0
sg76
I17
sg77
I60
sg78
g79
sg80
(dp269
g82
I11
sg83
I10
sg84
I9
sg85
I9
sg86
I4
sg87
I9
sg88
I4
sg89
I11
sg90
I9
sg91
I7
sg92
I8
sg93
I8
sg94
I5
sg95
I9
sg96
I7
ssg97
I0
sg98
I0
sg99
I0
sg100
I0
sg101
F9.222222222222221
sg102
I0
sg103
I0
sg104
I0
sg105
I0
sg106
g269
sg107
I0
sg108
g57
sg109
I0
sg110
I0
sg111
I0
sg112
I6
sg113
I2
sg114
I0
sg115
g182
sbssS'totaux'
p270
(dp271
g19
I0
sg20
I0
sg21
I0
ssS'_compo_defaut_fatigue'
p272
Nsg80
(dp273
g4
I0
sg5
I0
sg6
I0
sg7
I0
sg8
I0
sg9
I0
sg10
I0
sg11
I0
sg12
I0
sg13
I0
sg14
I0
sg15
I0
sg16
I0
ssS'joueurs'
p274
(dp275
S'n12'
p276
(ijoueur
joueur
p277
(dp278
g27
I0
sg28
I5
sg29
I0
sg30
(ijoueur
rang
p279
(dp280
g33
I5
sg34
S'**'
p281
sg36
S'seigneur'
p282
sbsg38
(dp283
S'SR'
p284
I0
sS'CT'
p285
I0
sS'CR'
p286
I0
sS'ST'
p287
I0
ssg44
(dp288
g284
I0
sg285
I0
sg286
I0
sg287
I0
ssg108
g57
sg47
I0
sg48
I34
sg49
I23
sg50
I0
sg51
I0
sg52
I0
sg53
(S'dummy'
p289
S'DO'
p290
S'CE'
p291
S'AR'
p292
tp293
sg59
(ijoueur
rang
p294
(dp295
g33
I5
sg34
S'**'
p296
sg36
g282
sbsg62
(dp297
g284
I0
sg285
I0
sg286
I0
sg287
I0
ssg64
(dp298
g284
I0
sg285
I0
sg286
I0
sg287
I0
ssg66
(dp299
g284
I0
sg285
I0
sg286
I0
sg287
I0
ssg68
(dp300
g284
I0
sg285
I0
sg286
I0
sg287
I0
ssg70
I23
sg71
I0
sg72
S'Vereneux'
p301
sg74
I4
sg75
I34
sg76
I18
sg77
I110
sg78
g79
sg80
(dp302
S'A'
p303
I13
sS'ME'
p304
I7
sS'RP2'
p305
I10
sS'E'
p306
I10
sS'P'
p307
I7
sS'RP1'
p308
I9
sS'JP'
p309
I8
sS'RP_tot'
p310
I12
sS'TO'
p311
I6
sS'PA'
p312
I10
sS'M'
p313
I8
sS'R'
p314
I6
sS'TB'
p315
I11
sS'PL'
p316
I10
sS'TA'
p317
I6
ssg97
I0
sg98
I0
sg99
I0
sg100
I0
sg101
F9.485714285714286
sg102
I0
sg103
I5
sg104
I0
sg105
I0
sg106
g302
sg107
I0
sg109
I0
sg110
I0
sg111
I0
sg112
I11
sg113
I4
sg114
I0
sg115
S'B'
p318
sbsS'n13'
p319
(ijoueur
joueur
p320
(dp321
g27
I0
sg28
I0
sg29
I0
sg30
(ijoueur
rang
p322
(dp323
g33
I5
sg34
S'**'
p324
sg36
g123
sbsg38
(dp325
g40
I0
sg41
I0
sg42
I0
sg43
I0
ssg44
(dp326
g40
I0
sg41
I0
sg42
I0
sg43
I0
ssg46
I0
sg47
I0
sg48
I0
sg49
I0
sg50
I0
sg51
I0
sg52
I0
sg53
(g54
S'C2'
p327
S'AR'
p328
g57
tp329
sg59
(ijoueur
rang
p330
(dp331
g33
I5
sg34
S'**'
p332
sg36
g123
sbsg62
(dp333
g40
I0
sg41
I0
sg42
I0
sg43
I0
ssg64
(dp334
g40
I0
sg41
I0
sg42
I0
sg43
I0
ssg66
(dp335
g40
I0
sg41
I0
sg42
I0
sg43
I0
ssg68
(dp336
g40
I0
sg41
I0
sg42
I0
sg43
I0
ssg70
I0
sg71
I0
sg72
S'Du Poloin'
p337
sg74
I8
sg75
I0
sg76
I20
sg77
I110
sg78
g79
sg80
(dp338
g82
I11
sg83
I5
sg84
I13
sg85
I10
sg86
I8
sg87
I9
sg88
I8
sg89
I15
sg90
I7
sg91
I9
sg92
I9
sg93
I5
sg94
I8
sg95
I9
sg96
I6
ssg97
I0
sg98
I0
sg99
I0
sg100
I0
sg101
F10.10344827586207
sg102
I0
sg103
I0
sg104
I0
sg105
I0
sg106
g338
sg107
I0
sg108
g57
sg109
I0
sg110
I0
sg111
I0
sg112
I11
sg113
I3
sg114
I0
sg115
g182
sbsS'n10'
p339
g139
sS'n11'
p340
(ijoueur
joueur
p341
(dp342
g27
I0
sg28
I0
sg29
I0
sg30
(ijoueur
rang
p343
(dp344
g33
I5
sg34
S'**'
p345
sg36
g123
sbsg38
(dp346
g40
I0
sg41
I0
sg42
I0
sg43
I0
ssg44
(dp347
g40
I0
sg41
I0
sg42
I0
sg43
I0
ssg46
I0
sg47
I0
sg48
I0
sg49
I0
sg50
I0
sg51
I0
sg52
I0
sg53
(g54
S'AI'
p348
g57
g57
tp349
sg59
(ijoueur
rang
p350
(dp351
g33
I5
sg34
S'**'
p352
sg36
g123
sbsg62
(dp353
g40
I0
sg41
I0
sg42
I0
sg43
I0
ssg64
(dp354
g40
I0
sg41
I0
sg42
I0
sg43
I0
ssg66
(dp355
g40
I0
sg41
I0
sg42
I0
sg43
I0
ssg68
(dp356
g40
I0
sg41
I0
sg42
I0
sg43
I0
ssg70
I0
sg71
I0
sg72
S'Strepen'
p357
sg74
I8
sg75
I0
sg76
I20
sg77
I180
sg78
g79
sg80
(dp358
g82
I15
sg83
I4
sg84
I10
sg85
I10
sg86
I11
sg87
I8
sg88
I7
sg89
I11
sg90
I10
sg91
I11
sg92
I9
sg93
I6
sg94
I9
sg95
I9
sg96
I3
ssg97
I0
sg98
I0
sg99
I0
sg100
I0
sg101
F10.774193548387096
sg102
I0
sg103
I0
sg104
I0
sg105
I0
sg106
g358
sg107
I0
sg108
g57
sg109
I0
sg110
I0
sg111
I0
sg112
I18
sg113
I4
sg114
I0
sg115
S'CV'
p359
sbsS'n16'
p360
(ijoueur
joueur
p361
(dp362
g27
I0
sg28
I0
sg29
I0
sg30
(ijoueur
rang
p363
(dp364
g33
I4
sg34
g35
sg36
g37
sbsg38
(dp365
g40
I0
sg41
I0
sg42
I0
sg43
I0
ssg44
(dp366
g40
I0
sg41
I0
sg42
I0
sg43
I0
ssg46
I0
sg47
I0
sg48
I0
sg49
I0
sg50
I0
sg51
I0
sg52
I0
sg53
(g54
S'TA'
p367
S'PI'
p368
g57
tp369
sg59
(ijoueur
rang
p370
(dp371
g33
I4
sg34
g35
sg36
g37
sbsg62
(dp372
g40
I0
sg41
I0
sg42
I0
sg43
I0
ssg64
(dp373
g40
I0
sg41
I0
sg42
I0
sg43
I0
ssg66
(dp374
g40
I0
sg41
I0
sg42
I0
sg43
I0
ssg68
(dp375
g40
I0
sg41
I0
sg42
I0
sg43
I0
ssg70
I0
sg71
I0
sg72
S"D'Uvars"
p376
sg74
I8
sg75
I0
sg76
I19
sg77
I60
sg78
g79
sg80
(dp377
g82
I8
sg83
I12
sg84
I7
sg85
I10
sg86
I5
sg87
I12
sg88
I3
sg89
I12
sg90
I5
sg91
I8
sg92
I7
sg93
I7
sg94
I3
sg95
I12
sg96
I13
ssg97
I0
sg98
I0
sg99
I0
sg100
I0
sg101
F10.241379310344827
sg102
I0
sg103
I0
sg104
I0
sg105
I0
sg106
g377
sg107
I0
sg108
g57
sg109
I0
sg110
I0
sg111
I0
sg112
I6
sg113
I5
sg114
I0
sg115
g182
sbsS'n17'
p378
(ijoueur
joueur
p379
(dp380
g27
I0
sg28
I0
sg29
I0
sg30
(ijoueur
rang
p381
(dp382
g33
I4
sg34
g35
sg36
g37
sbsg38
(dp383
g40
I0
sg41
I0
sg42
I0
sg43
I0
ssg44
(dp384
g40
I0
sg41
I0
sg42
I0
sg43
I0
ssg46
I0
sg47
I0
sg48
I0
sg49
I0
sg50
I0
sg51
I0
sg52
I0
sg53
(g54
S'PI'
p385
S'TL'
p386
S'TA'
p387
tp388
sg59
(ijoueur
rang
p389
(dp390
g33
I4
sg34
g35
sg36
g37
sbsg62
(dp391
g40
I0
sg41
I0
sg42
I0
sg43
I0
ssg64
(dp392
g40
I0
sg41
I0
sg42
I0
sg43
I0
ssg66
(dp393
g40
I0
sg41
I0
sg42
I0
sg43
I0
ssg68
(dp394
g40
I0
sg41
I0
sg42
I0
sg43
I0
ssg70
I0
sg71
I0
sg72
S'Petilier'
p395
sg74
I8
sg75
I0
sg76
I17
sg77
I60
sg78
g79
sg80
(dp396
g82
I9
sg83
I7
sg84
I7
sg85
I13
sg86
I3
sg87
I9
sg88
I5
sg89
I9
sg90
I7
sg91
I8
sg92
I10
sg93
I9
sg94
I3
sg95
I9
sg96
I9
ssg97
I0
sg98
I0
sg99
I0
sg100
I0
sg101
F9.222222222222221
sg102
I0
sg103
I0
sg104
I0
sg105
I0
sg106
g396
sg107
I0
sg108
g57
sg109
I0
sg110
I0
sg111
I0
sg112
I6
sg113
I1
sg114
I0
sg115
g182
sbsS'n14'
p397
g25
sS'n15'
p398
(ijoueur
joueur
p399
(dp400
g27
I0
sg28
I0
sg29
I0
sg30
(ijoueur
rang
p401
(dp402
g33
I5
sg34
S'**'
p403
sg36
g123
sbsg38
(dp404
g40
I0
sg41
I0
sg42
I0
sg43
I0
ssg44
(dp405
g40
I0
sg41
I0
sg42
I0
sg43
I0
ssg46
I0
sg47
I0
sg48
I0
sg49
I0
sg50
I0
sg51
I0
sg52
I0
sg53
(g54
S'C1'
p406
S'AR'
p407
S'AI'
p408
tp409
sg59
(ijoueur
rang
p410
(dp411
g33
I5
sg34
S'**'
p412
sg36
g123
sbsg62
(dp413
g40
I0
sg41
I0
sg42
I0
sg43
I0
ssg64
(dp414
g40
I0
sg41
I0
sg42
I0
sg43
I0
ssg66
(dp415
g40
I0
sg41
I0
sg42
I0
sg43
I0
ssg68
(dp416
g40
I0
sg41
I0
sg42
I0
sg43
I0
ssg70
I0
sg71
I0
sg72
S'Matafierd'
p417
sg74
I8
sg75
I0
sg76
I20
sg77
I110
sg78
g79
sg80
(dp418
g82
I13
sg83
I7
sg84
I11
sg85
I11
sg86
I9
sg87
I9
sg88
I7
sg89
I13
sg90
I6
sg91
I9
sg92
I10
sg93
I8
sg94
I9
sg95
I14
sg96
I4
ssg97
I0
sg98
I0
sg99
I0
sg100
I0
sg101
F11.066666666666666
sg102
I0
sg103
I0
sg104
I0
sg105
I0
sg106
g418
sg107
I0
sg108
g57
sg109
I0
sg110
I0
sg111
I0
sg112
I11
sg113
I9
sg114
I0
sg115
g182
sbsS'n18'
p419
g254
sS'n19'
p420
(ijoueur
joueur
p421
(dp422
g27
I0
sg28
I0
sg29
I0
sg30
(ijoueur
rang
p423
(dp424
g33
I1
sg34
S'>'
p425
sg36
S'base'
p426
sbsg38
(dp427
g40
I0
sg41
I0
sg42
I0
sg43
I0
ssg44
(dp428
g40
I0
sg41
I0
sg42
I0
sg43
I0
ssg46
I0
sg47
I0
sg48
I0
sg49
I0
sg50
I0
sg51
I0
sg52
I0
sg53
(g54
S'N8'
p429
S'DL'
p430
g57
tp431
sg59
(ijoueur
rang
p432
(dp433
g33
I1
sg34
g425
sg36
g426
sbsg62
(dp434
g40
I0
sg41
I0
sg42
I0
sg43
I0
ssg64
(dp435
g40
I0
sg41
I0
sg42
I0
sg43
I0
ssg66
(dp436
g40
I0
sg41
I0
sg42
I0
sg43
I0
ssg68
(dp437
g40
I0
sg41
I0
sg42
I0
sg43
I0
ssg70
I0
sg71
I0
sg72
S'Walud'
p438
sg74
I2
sg75
I0
sg76
I12
sg77
I4
sg78
g79
sg80
(dp439
g82
I8
sg83
I11
sg84
I6
sg85
I10
sg86
I5
sg87
I6
sg88
I3
sg89
I6
sg90
I10
sg91
I6
sg92
I9
sg93
I8
sg94
I3
sg95
I6
sg96
I3
ssg97
I0
sg98
I0
sg99
I0
sg100
I0
sg101
F8.277777777777779
sg102
I0
sg103
I0
sg104
I0
sg105
I0
sg106
g439
sg107
I0
sg108
g57
sg109
I0
sg110
I0
sg111
I0
sg112
I1
sg113
I0
sg114
I0
sg115
S'HL'
p440
sbsS'n22'
p441
(ijoueur
joueur
p442
(dp443
g27
I0
sg28
I0
sg29
I0
sg30
(ijoueur
rang
p444
(dp445
g33
I2
sg34
S'^^'
p446
sg36
g236
sbsg38
(dp447
g40
I0
sg41
I0
sg42
I0
sg43
I0
ssg44
(dp448
g40
I0
sg41
I0
sg42
I0
sg43
I0
ssg46
I0
sg47
I0
sg48
I0
sg49
I0
sg50
I0
sg51
I0
sg52
I0
sg53
(g54
S'AI'
p449
S'CE'
p450
g57
tp451
sg59
(ijoueur
rang
p452
(dp453
g33
I2
sg34
S'^^'
p454
sg36
g236
sbsg62
(dp455
g40
I0
sg41
I0
sg42
I0
sg43
I0
ssg64
(dp456
g40
I0
sg41
I0
sg42
I0
sg43
I0
ssg66
(dp457
g40
I0
sg41
I0
sg42
I0
sg43
I0
ssg68
(dp458
g40
I0
sg41
I0
sg42
I0
sg43
I0
ssg70
I0
sg71
I0
sg72
S'Laroed'
p459
sg74
I8
sg75
I0
sg76
I15
sg77
I100
sg78
g79
sg80
(dp460
g82
I10
sg83
I5
sg84
I10
sg85
I8
sg86
I10
sg87
I6
sg88
I5
sg89
I10
sg90
I7
sg91
I11
sg92
I11
sg93
I10
sg94
I5
sg95
I10
sg96
I5
ssg97
I0
sg98
I0
sg99
I0
sg100
I0
sg101
F9.838709677419354
sg102
I0
sg103
I0
sg104
I0
sg105
I0
sg106
g460
sg107
I0
sg108
S'PRG10'
p461
sg109
I0
sg110
I0
sg111
I0
sg112
I10
sg113
I0
sg114
I0
sg115
S'CHS'
p462
sbsS'n21'
p463
(ijoueur
joueur
p464
(dp465
g27
I0
sg28
I0
sg29
I0
sg30
(ijoueur
rang
p466
(dp467
g33
I4
sg34
g35
sg36
g37
sbsg38
(dp468
g40
I0
sg41
I0
sg42
I0
sg43
I0
ssg44
(dp469
g40
I0
sg41
I0
sg42
I0
sg43
I0
ssg46
I0
sg47
I0
sg48
I0
sg49
I0
sg50
I0
sg51
I0
sg52
I0
sg53
(g54
S'C2'
p470
S'AI'
p471
g57
tp472
sg59
(ijoueur
rang
p473
(dp474
g33
I4
sg34
g35
sg36
g37
sbsg62
(dp475
g40
I0
sg41
I0
sg42
I0
sg43
I0
ssg64
(dp476
g40
I0
sg41
I0
sg42
I0
sg43
I0
ssg66
(dp477
g40
I0
sg41
I0
sg42
I0
sg43
I0
ssg68
(dp478
g40
I0
sg41
I0
sg42
I0
sg43
I0
ssg70
I0
sg71
I0
sg72
S'Guetelloy'
p479
sg74
I8
sg75
I0
sg76
I18
sg77
I60
sg78
g79
sg80
(dp480
g82
I9
sg83
I5
sg84
I9
sg85
I10
sg86
I9
sg87
I10
sg88
I7
sg89
I12
sg90
I5
sg91
I10
sg92
I10
sg93
I8
sg94
I6
sg95
I10
sg96
I6
ssg97
I0
sg98
I0
sg99
I0
sg100
I0
sg101
F9.931034482758621
sg102
I0
sg103
I0
sg104
I0
sg105
I0
sg106
g480
sg107
I0
sg108
g57
sg109
I0
sg110
I0
sg111
I0
sg112
I6
sg113
I2
sg114
I0
sg115
g182
sbsS'n20'
p481
(ijoueur
joueur
p482
(dp483
g27
I0
sg28
I0
sg29
I0
sg30
(ijoueur
rang
p484
(dp485
g33
I2
sg34
S'<<'
p486
sg36
g236
sbsg38
(dp487
g40
I0
sg41
I0
sg42
I0
sg43
I0
ssg44
(dp488
g40
I0
sg41
I0
sg42
I0
sg43
I0
ssg46
I0
sg47
I0
sg48
I0
sg49
I0
sg50
I0
sg51
I0
sg52
I0
sg53
(g54
S'DM'
p489
S'DO'
p490
g57
tp491
sg59
(ijoueur
rang
p492
(dp493
g33
I2
sg34
S'<<'
p494
sg36
g236
sbsg62
(dp495
g40
I0
sg41
I0
sg42
I0
sg43
I0
ssg64
(dp496
g40
I0
sg41
I0
sg42
I0
sg43
I0
ssg66
(dp497
g40
I0
sg41
I0
sg42
I0
sg43
I0
ssg68
(dp498
g40
I0
sg41
I0
sg42
I0
sg43
I0
ssg70
I0
sg71
I0
sg72
S'Laeth'
p499
sg74
I2
sg75
I0
sg76
I13
sg77
I208
sg78
g79
sg80
(dp500
g82
I12
sg83
I3
sg84
I7
sg85
I10
sg86
I10
sg87
I6
sg88
I8
sg89
I7
sg90
I8
sg91
I11
sg92
I8
sg93
I7
sg94
I8
sg95
I8
sg96
I4
ssg97
I0
sg98
I0
sg99
I0
sg100
I0
sg101
F9.379310344827585
sg102
I0
sg103
I0
sg104
I0
sg105
I0
sg106
g500
sg107
I0
sg108
S'MRB8;KAK11'
p501
sg109
I0
sg110
I0
sg111
I0
sg112
I13
sg113
I9
sg114
I0
sg115
S'EN'
p502
sbsS'n8'
p503
(ijoueur
joueur
p504
(dp505
g27
I0
sg28
I0
sg29
I0
sg30
(ijoueur
rang
p506
(dp507
g33
I3
sg34
S'<<<'
p508
sg36
g175
sbsg38
(dp509
g40
I0
sg41
I0
sg42
I0
sg43
I0
ssg44
(dp510
g40
I0
sg41
I0
sg42
I0
sg43
I0
ssg46
I0
sg47
I0
sg48
I0
sg49
I0
sg50
I0
sg51
I0
sg52
I0
sg53
(g54
S'N8'
p511
S'PI'
p512
g57
tp513
sg59
(ijoueur
rang
p514
(dp515
g33
I3
sg34
S'<<<'
p516
sg36
g175
sbsg62
(dp517
g40
I0
sg41
I0
sg42
I0
sg43
I0
ssg64
(dp518
g40
I0
sg41
I0
sg42
I0
sg43
I0
ssg66
(dp519
g40
I0
sg41
I0
sg42
I0
sg43
I0
ssg68
(dp520
g40
I0
sg41
I0
sg42
I0
sg43
I0
ssg70
I0
sg71
I0
sg72
S'Querelead'
p521
sg74
I8
sg75
I0
sg76
I19
sg77
I75
sg78
g79
sg80
(dp522
g82
I5
sg83
I9
sg84
I7
sg85
I9
sg86
I0
sg87
I13
sg88
I1
sg89
I13
sg90
I8
sg91
I5
sg92
I10
sg93
I11
sg94
I2
sg95
I11
sg96
I7
ssg97
I0
sg98
I0
sg99
I0
sg100
I0
sg101
F10.0
sg102
I0
sg103
I0
sg104
I0
sg105
I0
sg106
g522
sg107
I0
sg108
g57
sg109
I0
sg110
I0
sg111
I0
sg112
I8
sg113
I2
sg114
I0
sg115
S'OG'
p523
sbsS'n9'
p524
(ijoueur
joueur
p525
(dp526
g27
I0
sg28
I2
sg29
I0
sg30
(ijoueur
rang
p527
(dp528
g33
I5
sg34
S'xx'
p529
sg36
g123
sbsg38
(dp530
g40
I0
sg41
I0
sg42
I0
sg43
I0
ssg44
(dp531
g40
I0
sg41
I0
sg42
I0
sg43
I0
ssg46
I0
sg47
I0
sg48
I0
sg49
I13
sg50
I0
sg51
I0
sg52
I0
sg53
(g54
S'DM'
p532
g57
g57
tp533
sg59
(ijoueur
rang
p534
(dp535
g33
I5
sg34
S'xx'
p536
sg36
g123
sbsg62
(dp537
g40
I0
sg41
I0
sg42
I0
sg43
I0
ssg64
(dp538
g40
I0
sg41
I0
sg42
I0
sg43
I0
ssg66
(dp539
g40
I0
sg41
I0
sg42
I0
sg43
I0
ssg68
(dp540
g40
I0
sg41
I0
sg42
I0
sg43
I0
ssg70
I13
sg71
I0
sg72
S'Suplatird'
p541
sg74
I2
sg75
I0
sg76
I14
sg77
I250
sg78
g79
sg80
(dp542
g82
I11
sg83
I5
sg84
I11
sg85
I11
sg86
I10
sg87
I7
sg88
I8
sg89
I11
sg90
I8
sg91
I13
sg92
I9
sg93
I9
sg94
I7
sg95
I10
sg96
I4
ssg97
I0
sg98
I0
sg99
I0
sg100
I0
sg101
F10.620689655172415
sg102
I0
sg103
I2
sg104
I0
sg105
I0
sg106
g542
sg107
I0
sg108
g57
sg109
I0
sg110
I0
sg111
I0
sg112
I25
sg113
I4
sg114
I0
sg115
S'CV'
p543
sbsS'n1'
p544
(ijoueur
joueur
p545
(dp546
g27
I0
sg28
I0
sg29
I0
sg30
(ijoueur
rang
p547
(dp548
g33
I1
sg34
S'<'
p549
sg36
g426
sbsg38
(dp550
g40
I0
sg41
I0
sg42
I0
sg43
I0
ssg44
(dp551
g40
I0
sg41
I0
sg42
I0
sg43
I0
ssg46
I0
sg47
I0
sg48
I0
sg49
I0
sg50
I0
sg51
I0
sg52
I0
sg53
(g54
S'PI'
p552
S'TL'
p553
S'TA'
p554
tp555
sg59
(ijoueur
rang
p556
(dp557
g33
I1
sg34
g549
sg36
g426
sbsg62
(dp558
g40
I0
sg41
I0
sg42
I0
sg43
I0
ssg64
(dp559
g40
I0
sg41
I0
sg42
I0
sg43
I0
ssg66
(dp560
g40
I0
sg41
I0
sg42
I0
sg43
I0
ssg68
(dp561
g40
I0
sg41
I0
sg42
I0
sg43
I0
ssg70
I0
sg71
I0
sg72
S'Ledol'
p562
sg74
I3
sg75
I0
sg76
I13
sg77
I50
sg78
g79
sg80
(dp563
g82
I9
sg83
I15
sg84
I6
sg85
I10
sg86
I2
sg87
I12
sg88
I1
sg89
I12
sg90
I4
sg91
I4
sg92
I7
sg93
I11
sg94
I2
sg95
I9
sg96
I8
ssg97
I0
sg98
I0
sg99
I0
sg100
I0
sg101
F10.88888888888889
sg102
I0
sg103
I0
sg104
I0
sg105
I0
sg106
g563
sg107
I0
sg108
S'TO9'
p564
sg109
I0
sg110
I0
sg111
I0
sg112
I5
sg113
I3
sg114
I0
sg115
S'HL'
p565
sbsS'n2'
p566
(ijoueur
joueur
p567
(dp568
g27
I0
sg28
I0
sg29
I0
sg30
(ijoueur
rang
p569
(dp570
g33
I5
sg34
S'**'
p571
sg36
g123
sbsg38
(dp572
g40
I0
sg41
I0
sg42
I0
sg43
I0
ssg44
(dp573
g40
I0
sg41
I0
sg42
I0
sg43
I0
ssg46
I0
sg47
I0
sg48
I0
sg49
I0
sg50
I0
sg51
I0
sg52
I0
sg53
(g54
S'TA'
p574
S'TL'
p575
g57
tp576
sg59
(ijoueur
rang
p577
(dp578
g33
I4
sg34
g35
sg36
g37
sbsg62
(dp579
g40
I0
sg41
I0
sg42
I0
sg43
I0
ssg64
(dp580
g40
I0
sg41
I0
sg42
I0
sg43
I0
ssg66
(dp581
g40
I0
sg41
I0
sg42
I0
sg43
I0
ssg68
(dp582
g40
I0
sg41
I0
sg42
I0
sg43
I0
ssg70
I0
sg71
I0
sg72
S'Jaraol'
p583
sg74
I8
sg75
I0
sg76
I25
sg77
I60
sg78
g79
sg80
(dp584
g82
I13
sg83
I9
sg84
I10
sg85
I12
sg86
I6
sg87
I8
sg88
I7
sg89
I11
sg90
I9
sg91
I12
sg92
I8
sg93
I10
sg94
I8
sg95
I10
sg96
I12
ssg97
I0
sg98
I0
sg99
I0
sg100
I0
sg101
F10.793103448275861
sg102
I0
sg103
I0
sg104
I0
sg105
I0
sg106
g584
sg107
I0
sg108
g57
sg109
I0
sg110
I0
sg111
I0
sg112
I6
sg113
I2
sg114
I0
sg115
S'EN'
p585
sbsS'n3'
p586
g189
sS'n4'
p587
g162
sS'n5'
p588
g212
sS'n6'
p589
g231
sS'n7'
p590
g118
ssS'remplacements'
p591
(dp592
g360
S'n0'
p593
sg378
g593
sg419
g593
sg420
g593
sg441
g593
sg463
g593
sg481
g593
ssb.