(iclub
compo
p0
(dp1
S'caracs_old'
p2
(dp3
S'A'
p4
F157.0
sS'ME'
p5
F111.5
sS'E'
p6
I211
sS'OplusAV'
p7
F80.5
sS'TO_off'
p8
F117.0
sS'OplusAR'
p9
F80.5
sS'M'
p10
F61.0
sS'JP'
p11
F71.0
sS'OmoinsAR'
p12
F67.5
sS'PA'
p13
F103.5
sS'TO_def'
p14
F107.5
sS'OmoinsAV'
p15
F63.5
sS'R'
p16
F201.5
ssS'totaux_old'
p17
(dp18
S'T2'
p19
F165.75
sS'T3'
p20
F105.5
sS'T1'
p21
F212.625
ssS'roles'
p22
(dp23
S'drop1'
p24
(ijoueur
joueur
p25
(dp26
S'rouges_total'
p27
I0
sS'drops_total'
p28
I3
sS'blessure'
p29
I0
sS'RG_max'
p30
(ijoueur
rang
p31
(dp32
S'type_nb'
p33
I6
sS'rang'
p34
S'***'
p35
sS'type'
p36
S'personnage'
p37
sbsS'MJ2_total'
p38
(dp39
S'SR'
p40
I0
sS'ST'
p41
I0
sS'CR'
p42
I0
sS'CT'
p43
I0
ssS'MJ3_total'
p44
(dp45
g40
I0
sg41
I0
sg42
I0
sg43
I0
ssS'drop_rates_total'
p46
I0
sS'drop_rates_saison'
p47
I0
sS'essais_saison'
p48
I0
sS'penalite_ratees_saison'
p49
I0
sS'transformations_saison'
p50
I0
sS'postes'
p51
(S'dummy'
p52
S'AR'
p53
S'CE'
p54
S'AI'
p55
tp56
sS'RG'
p57
(ijoueur
rang
p58
(dp59
g33
I6
sg34
S'***'
p60
sg36
g37
sbsS'MJ1'
p61
(dp62
g40
I0
sg41
I0
sg42
I0
sg43
I6
ssS'MJ2'
p63
(dp64
g40
I0
sg41
I0
sg42
I0
sg43
I0
ssS'MJ3'
p65
(dp66
g40
I0
sg41
I0
sg42
I0
sg43
I0
ssS'MJ1_total'
p67
(dp68
g40
I0
sg41
I0
sg42
I0
sg43
I6
ssS'penalites_total'
p69
I1
sS'penalites_saison'
p70
I0
sS'nom'
p71
S'Leitdorf'
p72
sS'C'
p73
I9
sS'transformations_total'
p74
I1
sS'D'
p75
I18
sS'VAL'
p76
I567
sS'club'
p77
S'ED'
p78
sS'caracs'
p79
(dp80
S'A'
p81
I11
sS'ME'
p82
I7
sS'RP2'
p83
I10
sS'E'
p84
I12
sS'TO'
p85
I4
sS'RP1'
p86
I7
sS'JP'
p87
I8
sS'RP_tot'
p88
I10
sS'P'
p89
I9
sS'PA'
p90
I8
sS'M'
p91
I10
sS'R'
p92
I8
sS'TB'
p93
I9
sS'PL'
p94
I13
sS'TA'
p95
I6
ssS'fatigue'
p96
I12
sS'drop_ratees_total'
p97
I0
sS'blessures_total'
p98
I0
sS'XP'
p99
I0
sS'EV'
p100
F10.545454545454545
sS'penalite_ratees_total'
p101
I0
sS'blessures_saison'
p102
I0
sS'jaunes_total'
p103
I0
sS'caracs_sans_fatigue'
p104
g80
sS'rouges_saison'
p105
I0
sS'anciens_clubs'
p106
S''
p107
sS'transformation_ratees_total'
p108
I0
sS'drops_saison'
p109
I1
sS'transformation_ratees_saison'
p110
I0
sS'MS'
p111
I63
sS'essais_total'
p112
I1
sS'jaunes_saison'
p113
I0
sS'ARM'
p114
S'EMP'
p115
sbsS'SA_scd'
p116
(ijoueur
joueur
p117
(dp118
g27
I0
sg28
I0
sg29
I0
sg30
(ijoueur
rang
p119
(dp120
g33
I4
sg34
S'*'
p121
sg36
S'heros'
p122
sbsg38
(dp123
S'SR'
p124
I0
sS'CT'
p125
I0
sS'CR'
p126
I0
sS'ST'
p127
I0
ssg44
(dp128
g124
I0
sg125
I0
sg126
I0
sg127
I0
ssg46
I0
sg47
I0
sg48
I0
sg49
I0
sg50
I0
sg51
(g52
S'N8'
p129
S'TL'
p130
g107
tp131
sg57
(ijoueur
rang
p132
(dp133
g33
I3
sg34
S'^^^'
p134
sg36
S'rare'
p135
sbsg61
(dp136
g124
I0
sg125
I5
sg126
I0
sg127
I0
ssg63
(dp137
g124
I0
sg125
I0
sg126
I0
sg127
I0
ssg65
(dp138
g124
I0
sg125
I0
sg126
I0
sg127
I0
ssg67
(dp139
g124
I0
sg125
I5
sg126
I0
sg127
I0
ssg69
I0
sg70
I0
sg71
S'Uhentyl'
p140
sg73
I9
sg74
I0
sg75
I21
sg76
I64
sg77
g78
sg79
(dp141
S'A'
p142
I11
sS'ME'
p143
I10
sS'RP2'
p144
I6
sS'E'
p145
I11
sS'P'
p146
I6
sS'RP1'
p147
I10
sS'JP'
p148
I4
sS'RP_tot'
p149
I10
sS'TO'
p150
I10
sS'PA'
p151
I9
sS'M'
p152
I9
sS'R'
p153
I9
sS'TB'
p154
I6
sS'PL'
p155
I11
sS'TA'
p156
I5
ssg96
I4
sg97
I0
sg98
I0
sg99
I0
sg100
F10.10344827586207
sg101
I0
sg102
I0
sg103
I0
sg104
g141
sg105
I0
sg106
S'SN11'
p157
sg108
I0
sg109
I0
sg110
I0
sg111
I7
sg112
I1
sg113
I0
sg114
S'EN'
p158
sbsS'RJL'
p159
(ijoueur
joueur
p160
(dp161
g27
I0
sg28
I0
sg29
I0
sg30
(ijoueur
rang
p162
(dp163
g33
I5
sg34
S'xx'
p164
sg36
S'seigneur'
p165
sbsg38
(dp166
g40
I0
sg41
I0
sg42
I0
sg43
I0
ssg44
(dp167
g40
I0
sg41
I0
sg42
I0
sg43
I0
ssg46
I0
sg47
I0
sg48
I0
sg49
I0
sg50
I0
sg51
(g52
S'AI'
p168
g107
g107
tp169
sg57
(ijoueur
rang
p170
(dp171
g33
I4
sg34
S'*'
p172
sg36
S'heros'
p173
sbsg61
(dp174
g40
I0
sg41
I0
sg42
I0
sg43
I5
ssg63
(dp175
g40
I0
sg41
I0
sg42
I0
sg43
I0
ssg65
(dp176
g40
I0
sg41
I0
sg42
I0
sg43
I0
ssg67
(dp177
g40
I0
sg41
I0
sg42
I0
sg43
I5
ssg69
I0
sg70
I0
sg71
S'Lukarik'
p178
sg73
I8
sg74
I0
sg75
I21
sg76
I60
sg77
g78
sg79
(dp179
g81
I10
sg82
I5
sg83
I9
sg84
I10
sg85
I3
sg86
I9
sg87
I6
sg88
I11
sg89
I10
sg90
I7
sg91
I9
sg92
I6
sg93
I6
sg94
I10
sg95
I4
ssg96
I6
sg97
I0
sg98
I0
sg99
I0
sg100
F9.483870967741936
sg101
I0
sg102
I0
sg103
I0
sg104
g179
sg105
I0
sg106
g107
sg108
I0
sg109
I0
sg110
I0
sg111
I6
sg112
I0
sg113
I0
sg114
S'N'
p180
sbsS'cap'
p181
(ijoueur
joueur
p182
(dp183
g27
I0
sg28
I0
sg29
I0
sg30
(ijoueur
rang
p184
(dp185
g33
I5
sg34
S'**'
p186
sg36
S'seigneur'
p187
sbsg38
(dp188
g124
I0
sg125
I0
sg126
I0
sg127
I0
ssg44
(dp189
g124
I0
sg125
I0
sg126
I0
sg127
I0
ssg46
I0
sg47
I0
sg48
I0
sg49
I0
sg50
I0
sg51
(g52
S'PI'
p190
S'TA'
p191
g107
tp192
sg57
(ijoueur
rang
p193
(dp194
g33
I5
sg34
S'**'
p195
sg36
g187
sbsg61
(dp196
g124
I0
sg125
I6
sg126
I0
sg127
I0
ssg63
(dp197
g124
I0
sg125
I0
sg126
I0
sg127
I0
ssg65
(dp198
g124
I0
sg125
I0
sg126
I0
sg127
I0
ssg67
(dp199
g124
I0
sg125
I6
sg126
I0
sg127
I0
ssg69
I0
sg70
I0
sg71
S'Wisspe'
p200
sg73
I8
sg74
I0
sg75
I23
sg76
I90
sg77
g78
sg79
(dp201
g142
I14
sg143
I10
sg144
I8
sg145
I13
sg146
I8
sg147
I10
sg148
I8
sg149
I11
sg150
I8
sg151
I12
sg152
I11
sg153
I11
sg154
I6
sg155
I11
sg156
I8
ssg96
I13
sg97
I0
sg98
I0
sg99
I0
sg100
F11.37037037037037
sg101
I0
sg102
I0
sg103
I0
sg104
g201
sg105
I0
sg106
g107
sg108
I0
sg109
I0
sg110
I0
sg111
I9
sg112
I2
sg113
I0
sg114
S'S'
p202
sbsS'B4'
p203
(ijoueur
joueur
p204
(dp205
g27
I0
sg28
I12
sg29
I0
sg30
(ijoueur
rang
p206
(dp207
g33
I5
sg34
S'xx'
p208
sg36
g187
sbsg38
(dp209
g124
I0
sg125
I0
sg126
I0
sg127
I0
ssg44
(dp210
g124
I0
sg125
I6
sg126
I0
sg127
I0
ssg46
I0
sg47
I0
sg48
I0
sg49
I3
sg50
I3
sg51
(g52
S'C1'
p211
S'AR'
p212
S'DO'
p213
tp214
sg57
(ijoueur
rang
p215
(dp216
g33
I5
sg34
S'xx'
p217
sg36
g187
sbsg61
(dp218
g124
I0
sg125
I0
sg126
I0
sg127
I0
ssg63
(dp219
g124
I0
sg125
I0
sg126
I0
sg127
I0
ssg65
(dp220
g124
I0
sg125
I6
sg126
I0
sg127
I0
ssg67
(dp221
g124
I0
sg125
I0
sg126
I0
sg127
I0
ssg69
I23
sg70
I20
sg71
S'Jtess'
p222
sg73
I7
sg74
I4
sg75
I19
sg76
I475
sg77
g78
sg79
(dp223
g142
I16
sg143
I6
sg144
I14
sg145
I11
sg146
I9
sg147
I8
sg148
I12
sg149
I15
sg150
I11
sg151
I16
sg152
I12
sg153
I12
sg154
I9
sg155
I13
sg156
I8
ssg96
I10
sg97
I0
sg98
I0
sg99
I0
sg100
F13.3
sg101
I3
sg102
I0
sg103
I0
sg104
g223
sg105
I0
sg106
g107
sg108
I1
sg109
I1
sg110
I1
sg111
I48
sg112
I5
sg113
I0
sg114
g202
sbsS'RJC'
p224
g204
sS'B1'
p225
g204
sS'B2'
p226
g204
sS'B3'
p227
g204
sS'SA_pcp2'
p228
(ijoueur
joueur
p229
(dp230
g27
I0
sg28
I0
sg29
I0
sg30
(ijoueur
rang
p231
(dp232
g33
I2
sg34
S'<<'
p233
sg36
S'special'
p234
sbsg38
(dp235
g124
I0
sg125
I0
sg126
I0
sg127
I0
ssg44
(dp236
g124
I0
sg125
I0
sg126
I0
sg127
I0
ssg46
I0
sg47
I0
sg48
I0
sg49
I0
sg50
I0
sg51
(g52
S'TL'
p237
S'DL'
p238
g107
tp239
sg57
(ijoueur
rang
p240
(dp241
g33
I2
sg34
S'<<'
p242
sg36
g234
sbsg61
(dp243
g124
I0
sg125
I5
sg126
I0
sg127
I0
ssg63
(dp244
g124
I0
sg125
I0
sg126
I0
sg127
I0
ssg65
(dp245
g124
I0
sg125
I0
sg126
I0
sg127
I0
ssg67
(dp246
g124
I0
sg125
I5
sg126
I0
sg127
I0
ssg69
I0
sg70
I0
sg71
S'Ftoden'
p247
sg73
I3
sg74
I0
sg75
I11
sg76
I95
sg77
g78
sg79
(dp248
g142
I10
sg143
I10
sg144
I7
sg145
I10
sg146
I5
sg147
I10
sg148
I5
sg149
I10
sg150
I11
sg151
I9
sg152
I9
sg153
I10
sg154
I4
sg155
I11
sg156
I4
ssg96
I4
sg97
I0
sg98
I0
sg99
I0
sg100
F10.263157894736842
sg101
I0
sg102
I0
sg103
I0
sg104
g248
sg105
I0
sg106
S'TA9'
p249
sg108
I0
sg109
I0
sg110
I0
sg111
I10
sg112
I2
sg113
I0
sg114
g202
sbsS'SA_pcp1'
p250
(ijoueur
joueur
p251
(dp252
g27
I1
sg28
I0
sg29
I0
sg30
(ijoueur
rang
p253
(dp254
g33
I5
sg34
S'xx'
p255
sg36
g187
sbsg38
(dp256
g124
I0
sg125
I0
sg126
I0
sg127
I0
ssg44
(dp257
g124
I0
sg125
I0
sg126
I0
sg127
I0
ssg46
I0
sg47
I0
sg48
I1
sg49
I0
sg50
I0
sg51
(g52
S'DL'
p258
g107
g107
tp259
sg57
(ijoueur
rang
p260
(dp261
g33
I5
sg34
S'xx'
p262
sg36
g187
sbsg61
(dp263
g124
I0
sg125
I5
sg126
I0
sg127
I0
ssg63
(dp264
g124
I0
sg125
I0
sg126
I0
sg127
I0
ssg65
(dp265
g124
I0
sg125
I0
sg126
I0
sg127
I0
ssg67
(dp266
g124
I0
sg125
I5
sg126
I0
sg127
I0
ssg69
I0
sg70
I0
sg71
S'Xyxess'
p267
sg73
I8
sg74
I0
sg75
I20
sg76
I475
sg77
g78
sg79
(dp268
g142
I14
sg143
I10
sg144
I11
sg145
I12
sg146
I5
sg147
I9
sg148
I4
sg149
I13
sg150
I17
sg151
I14
sg152
I12
sg153
I9
sg154
I5
sg155
I11
sg156
I7
ssg96
I10
sg97
I0
sg98
I0
sg99
I0
sg100
F12.352941176470589
sg101
I0
sg102
I0
sg103
I0
sg104
g268
sg105
I1
sg106
g107
sg108
I0
sg109
I0
sg110
I0
sg111
I48
sg112
I4
sg113
I0
sg114
g202
sbsS'drop3'
p269
g204
sS'SA_remp1'
p270
(ijoueur
joueur
p271
(dp272
g27
I0
sg28
I0
sg29
I0
sg30
(ijoueur
rang
p273
(dp274
g33
I5
sg34
S'xx'
p275
sg36
g187
sbsg38
(dp276
g124
I0
sg125
I0
sg126
I0
sg127
I0
ssg44
(dp277
g124
I0
sg125
I0
sg126
I0
sg127
I0
ssg46
I0
sg47
I0
sg48
I0
sg49
I0
sg50
I0
sg51
(g52
S'TL'
p278
S'DL'
p279
S'N8'
p280
tp281
sg57
(ijoueur
rang
p282
(dp283
g33
I5
sg34
S'xx'
p284
sg36
g187
sbsg61
(dp285
g124
I0
sg125
I6
sg126
I0
sg127
I0
ssg63
(dp286
g124
I0
sg125
I0
sg126
I0
sg127
I0
ssg65
(dp287
g124
I0
sg125
I0
sg126
I0
sg127
I0
ssg67
(dp288
g124
I0
sg125
I6
sg126
I0
sg127
I0
ssg69
I0
sg70
I0
sg71
S'Zyrvgh'
p289
sg73
I7
sg74
I0
sg75
I19
sg76
I517
sg77
g78
sg79
(dp290
g142
I9
sg143
I11
sg144
I7
sg145
I11
sg146
I5
sg147
I12
sg148
I3
sg149
I12
sg150
I10
sg151
I9
sg152
I9
sg153
I13
sg154
I3
sg155
I10
sg156
I5
ssg96
I13
sg97
I0
sg98
I0
sg99
I0
sg100
F11.129032258064516
sg101
I0
sg102
I0
sg103
I0
sg104
g290
sg105
I0
sg106
S'DKF11'
p291
sg108
I0
sg109
I0
sg110
I0
sg111
I44
sg112
I2
sg113
I0
sg114
S'HB'
p292
sbsS'drop2'
p293
g182
sS'SA_remp2'
p294
(ijoueur
joueur
p295
(dp296
g27
I0
sg28
I0
sg29
I0
sg30
(ijoueur
rang
p297
(dp298
g33
I5
sg34
S'**'
p299
sg36
g187
sbsg38
(dp300
g124
I0
sg125
I0
sg126
I0
sg127
I0
ssg44
(dp301
g124
I0
sg125
I0
sg126
I0
sg127
I0
ssg46
I0
sg47
I0
sg48
I0
sg49
I0
sg50
I0
sg51
(g52
S'PI'
p302
g107
g107
tp303
sg57
(ijoueur
rang
p304
(dp305
g33
I4
sg34
g121
sg36
g122
sbsg61
(dp306
g124
I0
sg125
I5
sg126
I0
sg127
I0
ssg63
(dp307
g124
I0
sg125
I0
sg126
I0
sg127
I0
ssg65
(dp308
g124
I0
sg125
I0
sg126
I0
sg127
I0
ssg67
(dp309
g124
I0
sg125
I5
sg126
I0
sg127
I0
ssg69
I0
sg70
I0
sg71
S'Chotc'
p310
sg73
I9
sg74
I0
sg75
I24
sg76
I88
sg77
g78
sg79
(dp311
g142
I10
sg143
I13
sg144
I8
sg145
I11
sg146
I6
sg147
I10
sg148
I7
sg149
I11
sg150
I9
sg151
I10
sg152
I11
sg153
I10
sg154
I5
sg155
I11
sg156
I7
ssg96
I5
sg97
I0
sg98
I0
sg99
I0
sg100
F11.037037037037036
sg101
I0
sg102
I0
sg103
I0
sg104
g311
sg105
I0
sg106
g107
sg108
I0
sg109
I0
sg110
I0
sg111
I7
sg112
I0
sg113
I0
sg114
g202
sbssS'totaux'
p312
(dp313
g19
I0
sg20
I0
sg21
I0
ssS'_compo_defaut_fatigue'
p314
Nsg79
(dp315
g4
I0
sg5
I0
sg6
I0
sg7
I0
sg8
I0
sg9
I0
sg10
I0
sg11
I0
sg12
I0
sg13
I0
sg14
I0
sg15
I0
sg16
I0
ssS'joueurs'
p316
(dp317
S'n12'
p318
(ijoueur
joueur
p319
(dp320
g27
I0
sg28
I0
sg29
I0
sg30
(ijoueur
rang
p321
(dp322
g33
I3
sg34
S'^^^'
p323
sg36
g135
sbsg38
(dp324
g124
I0
sg125
I0
sg126
I0
sg127
I0
ssg44
(dp325
g124
I0
sg125
I0
sg126
I0
sg127
I0
ssg46
I0
sg47
I0
sg48
I0
sg49
I0
sg50
I0
sg51
(g52
S'C2'
p326
S'AR'
p327
S'AI'
p328
tp329
sg57
(ijoueur
rang
p330
(dp331
g33
I4
sg34
g121
sg36
g122
sbsg61
(dp332
g124
I0
sg125
I6
sg126
I0
sg127
I0
ssg63
(dp333
g124
I0
sg125
I0
sg126
I0
sg127
I0
ssg65
(dp334
g124
I0
sg125
I0
sg126
I0
sg127
I0
ssg67
(dp335
g124
I0
sg125
I6
sg126
I0
sg127
I0
ssg69
I0
sg70
I0
sg71
S'Vratakt'
p336
sg73
I8
sg74
I0
sg75
I17
sg76
I130
sg77
g78
sg79
(dp337
g142
I10
sg143
I8
sg144
I7
sg145
I9
sg146
I8
sg147
I11
sg148
I8
sg149
I11
sg150
I5
sg151
I7
sg152
I10
sg153
I6
sg154
I7
sg155
I11
sg156
I5
ssg96
I6
sg97
I0
sg98
I0
sg99
I0
sg100
F9.379310344827585
sg101
I0
sg102
I0
sg103
I0
sg104
g337
sg105
I0
sg106
g107
sg108
I0
sg109
I0
sg110
I0
sg111
I13
sg112
I2
sg113
I0
sg114
S'OG'
p338
sbsS'n13'
p339
(ijoueur
joueur
p340
(dp341
g27
I0
sg28
I0
sg29
I0
sg30
(ijoueur
rang
p342
(dp343
g33
I4
sg34
g172
sg36
g173
sbsg38
(dp344
g40
I0
sg41
I0
sg42
I0
sg43
I5
ssg44
(dp345
g40
I0
sg41
I0
sg42
I0
sg43
I0
ssg46
I0
sg47
I0
sg48
I0
sg49
I0
sg50
I0
sg51
(g52
S'AI'
p346
S'CE'
p347
g107
tp348
sg57
(ijoueur
rang
p349
(dp350
g33
I4
sg34
g172
sg36
g173
sbsg61
(dp351
g40
I0
sg41
I0
sg42
I0
sg43
I0
ssg63
(dp352
g40
I0
sg41
I0
sg42
I0
sg43
I5
ssg65
(dp353
g40
I0
sg41
I0
sg42
I0
sg43
I0
ssg67
(dp354
g40
I0
sg41
I0
sg42
I0
sg43
I0
ssg69
I0
sg70
I0
sg71
S'Nisst'
p355
sg73
I8
sg74
I0
sg75
I19
sg76
I76
sg77
g78
sg79
(dp356
g81
I11
sg82
I2
sg83
I9
sg84
I9
sg85
I7
sg86
I9
sg87
I5
sg88
I11
sg89
I8
sg90
I10
sg91
I10
sg92
I6
sg93
I9
sg94
I11
sg95
I2
ssg96
I4
sg97
I0
sg98
I0
sg99
I0
sg100
F10.03225806451613
sg101
I0
sg102
I0
sg103
I1
sg104
g356
sg105
I0
sg106
g107
sg108
I0
sg109
I0
sg110
I0
sg111
I7
sg112
I1
sg113
I1
sg114
S'S'
p357
sbsS'n10'
p358
g204
sS'n11'
p359
g160
sS'n16'
p360
(ijoueur
joueur
p361
(dp362
g27
I0
sg28
I0
sg29
I0
sg30
(ijoueur
rang
p363
(dp364
g33
I1
sg34
S'^'
p365
sg36
S'base'
p366
sbsg38
(dp367
g124
I0
sg125
I0
sg126
I0
sg127
I0
ssg44
(dp368
g124
I0
sg125
I0
sg126
I0
sg127
I0
ssg46
I0
sg47
I0
sg48
I0
sg49
I0
sg50
I0
sg51
(g52
S'TA'
p369
S'PI'
p370
g107
tp371
sg57
(ijoueur
rang
p372
(dp373
g33
I1
sg34
g365
sg36
g366
sbsg61
(dp374
g124
I0
sg125
I1
sg126
I5
sg127
I0
ssg63
(dp375
g124
I0
sg125
I0
sg126
I0
sg127
I0
ssg65
(dp376
g124
I0
sg125
I0
sg126
I0
sg127
I0
ssg67
(dp377
g124
I0
sg125
I1
sg126
I5
sg127
I0
ssg69
I0
sg70
I0
sg71
S'Dobard'
p378
sg73
I3
sg74
I0
sg75
I15
sg76
I6
sg77
g78
sg79
(dp379
g142
I9
sg143
I8
sg144
I6
sg145
I9
sg146
I4
sg147
I9
sg148
I2
sg149
I9
sg150
I7
sg151
I7
sg152
I8
sg153
I12
sg154
I2
sg155
I7
sg156
I8
ssg96
I5
sg97
I0
sg98
I0
sg99
I0
sg100
F9.0
sg101
I0
sg102
I0
sg103
I0
sg104
g379
sg105
I0
sg106
S'PRG10'
p380
sg108
I0
sg109
I0
sg110
I0
sg111
I1
sg112
I0
sg113
I0
sg114
S'EMP'
p381
sbsS'n17'
p382
(ijoueur
joueur
p383
(dp384
g27
I0
sg28
I0
sg29
I0
sg30
(ijoueur
rang
p385
(dp386
g33
I4
sg34
g121
sg36
g122
sbsg38
(dp387
g124
I0
sg125
I0
sg126
I0
sg127
I0
ssg44
(dp388
g124
I0
sg125
I0
sg126
I0
sg127
I0
ssg46
I0
sg47
I0
sg48
I0
sg49
I0
sg50
I0
sg51
(g52
S'PI'
p389
S'TA'
p390
g107
tp391
sg57
(ijoueur
rang
p392
(dp393
g33
I4
sg34
g121
sg36
g122
sbsg61
(dp394
g124
I0
sg125
I1
sg126
I5
sg127
I0
ssg63
(dp395
g124
I0
sg125
I0
sg126
I0
sg127
I0
ssg65
(dp396
g124
I0
sg125
I0
sg126
I0
sg127
I0
ssg67
(dp397
g124
I0
sg125
I1
sg126
I5
sg127
I0
ssg69
I0
sg70
I0
sg71
S'Retohop'
p398
sg73
I8
sg74
I0
sg75
I18
sg76
I70
sg77
g78
sg79
(dp399
g142
I12
sg143
I11
sg144
I8
sg145
I9
sg146
I5
sg147
I11
sg148
I5
sg149
I12
sg150
I5
sg151
I9
sg152
I7
sg153
I9
sg154
I3
sg155
I8
sg156
I9
ssg96
I7
sg97
I0
sg98
I0
sg99
I0
sg100
F9.814814814814815
sg101
I0
sg102
I0
sg103
I0
sg104
g399
sg105
I0
sg106
g107
sg108
I0
sg109
I0
sg110
I0
sg111
I7
sg112
I0
sg113
I0
sg114
g202
sbsS'n14'
p400
(ijoueur
joueur
p401
(dp402
g27
I0
sg28
I0
sg29
I0
sg30
(ijoueur
rang
p403
(dp404
g33
I5
sg34
S'**'
p405
sg36
g165
sbsg38
(dp406
g40
I0
sg41
I0
sg42
I0
sg43
I0
ssg44
(dp407
g40
I0
sg41
I0
sg42
I0
sg43
I0
ssg46
I0
sg47
I0
sg48
I1
sg49
I0
sg50
I0
sg51
(g52
S'AI'
p408
S'AR'
p409
g107
tp410
sg57
(ijoueur
rang
p411
(dp412
g33
I5
sg34
S'**'
p413
sg36
g165
sbsg61
(dp414
g40
I0
sg41
I0
sg42
I0
sg43
I5
ssg63
(dp415
g40
I0
sg41
I0
sg42
I0
sg43
I0
ssg65
(dp416
g40
I0
sg41
I0
sg42
I0
sg43
I0
ssg67
(dp417
g40
I0
sg41
I0
sg42
I0
sg43
I5
ssg69
I0
sS'carton_jaunes_saison'
p418
I1
sg70
I0
sg71
S'Patlop'
p419
sg73
I8
sg74
I0
sg75
I21
sg76
I200
sg77
g78
sS'carton_jaunes_total'
p420
I1
sg79
(dp421
g81
I9
sg82
I4
sg83
I7
sg84
I12
sg85
I4
sg86
I12
sg87
I7
sg88
I12
sg89
I7
sg90
I6
sg91
I11
sg92
I6
sg93
I9
sg94
I10
sg95
I7
ssg96
I5
sg97
I0
sg98
I0
sg99
I0
sg100
F9.903225806451612
sg101
I0
sg102
I0
sg103
I0
sg104
g421
sg105
I0
sg106
g107
sg108
I0
sg109
I0
sg110
I0
sg111
I20
sg112
I2
sg113
I0
sg114
S'OG'
p422
sbsS'n15'
p423
g25
sS'n18'
p424
(ijoueur
joueur
p425
(dp426
g27
I0
sg28
I0
sg29
I0
sg30
(ijoueur
rang
p427
(dp428
g33
I3
sg34
S'<<<'
p429
sg36
g135
sbsg38
(dp430
g124
I0
sg125
I1
sg126
I3
sg127
I0
ssg44
(dp431
g124
I0
sg125
I0
sg126
I0
sg127
I0
ssg46
I0
sg47
I0
sg48
I1
sg49
I0
sg50
I0
sg51
(g52
S'N8'
p432
S'DL'
p433
g107
tp434
sg57
(ijoueur
rang
p435
(dp436
g33
I3
sg34
S'<<<'
p437
sg36
g135
sbsg61
(dp438
g124
I0
sg125
I1
sg126
I0
sg127
I0
ssg63
(dp439
g124
I0
sg125
I1
sg126
I3
sg127
I0
ssg65
(dp440
g124
I0
sg125
I0
sg126
I0
sg127
I0
ssg67
(dp441
g124
I0
sg125
I1
sg126
I0
sg127
I0
ssg69
I0
sg70
I0
sg71
S'Imetot'
p442
sg73
I11
sg74
I0
sg75
I22
sg76
I173
sg77
g78
sg79
(dp443
g142
I6
sg143
I10
sg144
I6
sg145
I10
sg146
I1
sg147
I11
sg148
I1
sg149
I11
sg150
I5
sg151
I5
sg152
I10
sg153
I11
sg154
I0
sg155
I9
sg156
I6
ssg96
I7
sg97
I0
sg98
I0
sg99
I0
sg100
F9.655172413793103
sg101
I0
sg102
I0
sg103
I0
sg104
g443
sg105
I0
sg106
g107
sg108
I0
sg109
I0
sg110
I0
sg111
I14
sg112
I1
sg113
I0
sg114
S'OG'
p444
sbsS'n19'
p445
(ijoueur
joueur
p446
(dp447
g27
I0
sg28
I0
sg29
I0
sg30
(ijoueur
rang
p448
(dp449
g33
I4
sg34
S'x'
p450
sg36
g122
sbsg38
(dp451
g124
I0
sg125
I0
sg126
I0
sg127
I0
ssg44
(dp452
g124
I0
sg125
I0
sg126
I0
sg127
I0
ssg46
I0
sg47
I0
sg48
I0
sg49
I0
sg50
I0
sg51
(g52
S'TL'
p453
g107
g107
tp454
sg57
(ijoueur
rang
p455
(dp456
g33
I3
sg34
S'^^^'
p457
sg36
g135
sbsg61
(dp458
g124
I0
sg125
I1
sg126
I5
sg127
I0
ssg63
(dp459
g124
I0
sg125
I0
sg126
I0
sg127
I0
ssg65
(dp460
g124
I0
sg125
I0
sg126
I0
sg127
I0
ssg67
(dp461
g124
I0
sg125
I1
sg126
I5
sg127
I0
ssg69
I0
sg70
I0
sg71
S'Hepelet'
p462
sg73
I10
sg74
I0
sg75
I22
sg76
I87
sg77
g78
sg79
(dp463
g142
I8
sg143
I9
sg144
I9
sg145
I9
sg146
I7
sg147
I9
sg148
I4
sg149
I11
sg150
I8
sg151
I7
sg152
I11
sg153
I10
sg154
I4
sg155
I10
sg156
I5
ssg96
I4
sg97
I0
sg98
I0
sg99
I0
sg100
F9.709677419354838
sg101
I0
sg102
I0
sg103
I0
sg104
g463
sg105
I0
sg106
g107
sg108
I0
sg109
I0
sg110
I0
sg111
I12
sg112
I1
sg113
I0
sg114
S'OG'
p464
sbsS'n22'
p465
(ijoueur
joueur
p466
(dp467
g27
I0
sg28
I0
sg29
I0
sg30
(ijoueur
rang
p468
(dp469
g33
I2
sg34
S'^^'
p470
sg36
g234
sbsg38
(dp471
g124
I0
sg125
I2
sg126
I4
sg127
I0
ssg44
(dp472
g124
I0
sg125
I0
sg126
I0
sg127
I0
ssg46
I0
sg47
I0
sg48
I0
sg49
I0
sg50
I0
sg51
(g52
S'DO'
p473
S'AI'
p474
g107
tp475
sg57
(ijoueur
rang
p476
(dp477
g33
I2
sg34
S'^^'
p478
sg36
g234
sbsg61
(dp479
g124
I0
sg125
I0
sg126
I0
sg127
I0
ssg63
(dp480
g124
I0
sg125
I2
sg126
I4
sg127
I0
ssg65
(dp481
g124
I0
sg125
I0
sg126
I0
sg127
I0
ssg67
(dp482
g124
I0
sg125
I0
sg126
I0
sg127
I0
ssg69
I0
sg70
I0
sg71
S'Empot'
p483
sg73
I10
sg74
I0
sg75
I23
sg76
I58
sg77
g78
sg79
(dp484
g142
I8
sg143
I7
sg144
I10
sg145
I9
sg146
I5
sg147
I8
sg148
I8
sg149
I11
sg150
I4
sg151
I9
sg152
I12
sg153
I6
sg154
I7
sg155
I8
sg156
I5
ssg96
I5
sg97
I0
sg98
I0
sg99
I0
sg100
F8.393939393939394
sg101
I0
sg102
I0
sg103
I0
sg104
g484
sg105
I0
sg106
g107
sg108
I0
sg109
I0
sg110
I0
sg111
I11
sg112
I0
sg113
I0
sg114
S'OG'
p485
sbsS'n21'
p486
(ijoueur
joueur
p487
(dp488
g27
I0
sg28
I0
sg29
I0
sg30
(ijoueur
rang
p489
(dp490
g33
I3
sg34
S'<<<'
p491
sg36
g135
sbsg38
(dp492
g124
I0
sg125
I0
sg126
I0
sg127
I0
ssg44
(dp493
g124
I0
sg125
I0
sg126
I0
sg127
I0
ssg46
I0
sg47
I0
sg48
I0
sg49
I0
sg50
I0
sg51
(g52
S'C2'
p494
S'AI'
p495
g107
tp496
sg57
(ijoueur
rang
p497
(dp498
g33
I3
sg34
S'<<<'
p499
sg36
g135
sbsg61
(dp500
g124
I0
sg125
I1
sg126
I5
sg127
I0
ssg63
(dp501
g124
I0
sg125
I0
sg126
I0
sg127
I0
ssg65
(dp502
g124
I0
sg125
I0
sg126
I0
sg127
I0
ssg67
(dp503
g124
I0
sg125
I1
sg126
I5
sg127
I0
ssg69
I0
sg70
I0
sg71
S'Katakat'
p504
sg73
I3
sg74
I0
sg75
I16
sg76
I75
sg77
g78
sg79
(dp505
g142
I6
sg143
I6
sg144
I7
sg145
I12
sg146
I7
sg147
I12
sg148
I2
sg149
I12
sg150
I1
sg151
I7
sg152
I11
sg153
I8
sg154
I5
sg155
I8
sg156
I5
ssg96
I6
sg97
I0
sg98
I0
sg99
I0
sg100
F8.89655172413793
sg101
I0
sg102
I0
sg103
I0
sg104
g505
sg105
I0
sg106
g107
sg108
I0
sg109
I0
sg110
I0
sg111
I8
sg112
I2
sg113
I0
sg114
S'OG'
p506
sbsS'n20'
p507
(ijoueur
joueur
p508
(dp509
g27
I0
sg28
I0
sg29
I0
sg30
(ijoueur
rang
p510
(dp511
g33
I4
sg34
g121
sg36
g122
sbsg38
(dp512
g124
I0
sg125
I0
sg126
I0
sg127
I0
ssg44
(dp513
g124
I0
sg125
I0
sg126
I0
sg127
I0
ssg46
I0
sg47
I0
sg48
I1
sg49
I0
sg50
I0
sg51
(g52
S'DM'
p514
g107
g107
tp515
sg57
(ijoueur
rang
p516
(dp517
g33
I1
sg34
g365
sg36
g366
sbsg61
(dp518
g124
I0
sg125
I1
sg126
I5
sg127
I0
ssg63
(dp519
g124
I0
sg125
I0
sg126
I0
sg127
I0
ssg65
(dp520
g124
I0
sg125
I0
sg126
I0
sg127
I0
ssg67
(dp521
g124
I0
sg125
I1
sg126
I5
sg127
I0
ssg69
I0
sg70
I0
sg71
S'Wiz'
p522
sg73
I11
sg74
I0
sg75
I26
sg76
I12
sg77
g78
sg79
(dp523
g142
I8
sg143
I5
sg144
I9
sg145
I8
sg146
I8
sg147
I6
sg148
I7
sg149
I9
sg150
I3
sg151
I10
sg152
I11
sg153
I6
sg154
I6
sg155
I6
sg156
I4
ssg96
I4
sg97
I0
sg98
I0
sg99
I0
sg100
F8.448275862068966
sg101
I0
sg102
I0
sg103
I0
sg104
g523
sg105
I0
sg106
g107
sg108
I0
sg109
I0
sg110
I0
sg111
I1
sg112
I1
sg113
I0
sg114
g202
sbsS'n8'
p524
g117
sS'n9'
p525
(ijoueur
joueur
p526
(dp527
g27
I0
sg28
I0
sg29
I0
sg30
(ijoueur
rang
p528
(dp529
g33
I2
sg34
S'<<'
p530
sg36
g234
sbsg38
(dp531
g124
I0
sg125
I0
sg126
I1
sg127
I0
ssg44
(dp532
g124
I0
sg125
I0
sg126
I0
sg127
I0
ssg46
I0
sg47
I0
sg48
I0
sg49
I0
sg50
I0
sg51
(g52
S'DM'
p533
S'DO'
p534
g107
tp535
sg57
(ijoueur
rang
p536
(dp537
g33
I2
sg34
S'<<'
p538
sg36
g234
sbsg61
(dp539
g124
I0
sg125
I5
sg126
I0
sg127
I0
ssg63
(dp540
g124
I0
sg125
I0
sg126
I1
sg127
I0
ssg65
(dp541
g124
I0
sg125
I0
sg126
I0
sg127
I0
ssg67
(dp542
g124
I0
sg125
I5
sg126
I0
sg127
I0
ssg69
I0
sg70
I0
sg71
S'Wazaoth'
p543
sg73
I8
sg74
I0
sg75
I16
sg76
I11
sg77
g78
sg79
(dp544
g142
I11
sg143
I5
sg144
I6
sg145
I10
sg146
I7
sg147
I6
sg148
I7
sg149
I6
sg150
I8
sg151
I14
sg152
I8
sg153
I8
sg154
I8
sg155
I7
sg156
I3
ssg96
I9
sg97
I0
sg98
I0
sg99
I0
sg100
F9.310344827586206
sg101
I0
sg102
I0
sg103
I0
sg104
g544
sg105
I0
sg106
g107
sg108
I0
sg109
I0
sg110
I0
sg111
I1
sg112
I0
sg113
I0
sg114
S'EN'
p545
sbsS'n1'
p546
g295
sS'n2'
p547
(ijoueur
joueur
p548
(dp549
g27
I0
sg28
I0
sg29
I0
sg30
(ijoueur
rang
p550
(dp551
g33
I3
sg34
S'^^^'
p552
sg36
g135
sbsg38
(dp553
g124
I0
sg125
I4
sg126
I1
sg127
I0
ssg44
(dp554
g124
I0
sg125
I0
sg126
I0
sg127
I0
ssg46
I0
sg47
I0
sg48
I0
sg49
I0
sg50
I0
sg51
(g52
S'PI'
p555
S'TA'
p556
g107
tp557
sg57
(ijoueur
rang
p558
(dp559
g33
I3
sg34
S'^^^'
p560
sg36
g135
sbsg61
(dp561
g124
I0
sg125
I0
sg126
I0
sg127
I0
ssg63
(dp562
g124
I0
sg125
I4
sg126
I1
sg127
I0
ssg65
(dp563
g124
I0
sg125
I0
sg126
I0
sg127
I0
ssg67
(dp564
g124
I0
sg125
I0
sg126
I0
sg127
I0
ssg69
I0
sg70
I0
sg71
S'Vuzgr'
p565
sg73
I6
sg74
I0
sg75
I15
sg76
I92
sg77
g78
sg79
(dp566
g142
I7
sg143
I13
sg144
I8
sg145
I10
sg146
I3
sg147
I10
sg148
I0
sg149
I11
sg150
I4
sg151
I7
sg152
I10
sg153
I9
sg154
I1
sg155
I9
sg156
I13
ssg96
I8
sg97
I0
sg98
I0
sg99
I0
sg100
F10.206896551724139
sg101
I0
sg102
I0
sg103
I0
sg104
g566
sg105
I0
sg106
S'MDL10'
p567
sg108
I0
sg109
I0
sg110
I0
sg111
I20
sg112
I9
sg113
I0
sg114
S'OG'
p568
sbsS'n3'
p569
g182
sS'n4'
p570
(ijoueur
joueur
p571
(dp572
g27
I0
sg28
I0
sg29
I0
sg30
(ijoueur
rang
p573
(dp574
g33
I4
sg34
g450
sg36
g122
sbsg38
(dp575
g124
I0
sg125
I0
sg126
I0
sg127
I0
ssg44
(dp576
g124
I0
sg125
I0
sg126
I0
sg127
I0
ssg46
I0
sg47
I0
sg48
I0
sg49
I0
sg50
I0
sg51
(g52
S'DL'
p577
S'PI'
p578
g107
tp579
sg57
(ijoueur
rang
p580
(dp581
g33
I5
sg34
S'**'
p582
sg36
g187
sbsg61
(dp583
g124
I0
sg125
I1
sg126
I0
sg127
I0
ssg63
(dp584
g124
I0
sg125
I0
sg126
I0
sg127
I0
ssg65
(dp585
g124
I0
sg125
I0
sg126
I0
sg127
I0
ssg67
(dp586
g124
I0
sg125
I1
sg126
I0
sg127
I0
ssg69
I0
sg70
I0
sg71
S'Ploetl'
p587
sg73
I5
sg74
I0
sg75
I15
sg76
I470
sg77
g78
sg79
(dp588
g142
I9
sg143
I10
sg144
I6
sg145
I10
sg146
I5
sg147
I13
sg148
I4
sg149
I13
sg150
I8
sg151
I6
sg152
I7
sg153
I13
sg154
I5
sg155
I9
sg156
I6
ssg96
I0
sg97
I0
sg98
I1
sg99
I0
sg100
F10.74074074074074
sg101
I0
sg102
I1
sg103
I0
sg104
g588
sg105
I0
sg106
S'APA11'
p589
sg108
I0
sg109
I0
sg110
I0
sg111
I43
sg112
I3
sg113
I0
sg114
S'HL'
p590
sbsS'n5'
p591
g251
sS'n6'
p592
g229
sS'n7'
p593
g271
ssS'remplacements'
p594
(dp595
g360
S'n0'
p596
sg382
g596
sg424
g596
sg445
g596
sg465
g596
sg486
g596
sg507
g596
ssb.