(iclub
compo
p0
(dp1
S'caracs_old'
p2
(dp3
S'A'
p4
F152.0
sS'ME'
p5
F98.0
sS'E'
p6
F198.0
sS'OplusAV'
p7
F112.5
sS'OplusAR'
p8
F124.5
sS'JP'
p9
F94.0
sS'PA'
p10
F95.25
sS'M'
p11
F99.25
sS'OmoinsAR'
p12
F97.25
sS'TO_off'
p13
F104.5
sS'TO_def'
p14
F97.0
sS'OmoinsAV'
p15
F95.5
sS'R'
p16
F206.75
ssS'totaux_old'
p17
(dp18
S'T2'
p19
F170.75
sS'T3'
p20
F99.0
sS'T1'
p21
F202.75
ssS'roles'
p22
(dp23
S'SA_scd'
p24
(ijoueur
joueur
p25
(dp26
S'EV_saison_11'
p27
F8.758620689655173
sS'rouges_total'
p28
I0
sS'EV_saison_12'
p29
F9.805555555555555
sS'changements_postes'
p30
S''
p31
sS'drops_total'
p32
I0
sS'xp_total'
p33
I0
sS'blessure'
p34
I0
sS'RG_max'
p35
ccopy_reg
_reconstructor
p36
(cjoueur
rang_new
p37
c__builtin__
object
p38
Ntp39
Rp40
(dp41
S'type_nb'
p42
I5
sS'rang'
p43
S'xx'
p44
sS'type'
p45
S'seigneur'
p46
sbsS'MJ2_total'
p47
(dp48
S'SR'
p49
I0
sS'ST'
p50
I0
sS'CR'
p51
I1
sS'CT'
p52
I17
ssS'MJ3_total'
p53
(dp54
g49
I0
sg50
I0
sg51
I0
sg52
I0
ssS'xp'
p55
I0
sS'drop_rates_total'
p56
I0
sS'EV'
p57
F10.194444444444445
sS'drop_rates_saison'
p58
I0
sS'xp_saison'
p59
I0
sS'essais_saison'
p60
I0
sS'penalite_ratees_saison'
p61
I0
sS'transformations_saison'
p62
I0
sS'postes'
p63
(S'dummy'
p64
S'N8'
p65
S'TL'
p66
g31
tp67
sS'veut_partir'
p68
I00
sS'RG'
p69
g40
sS'MJ1'
p70
(dp71
S'SR'
p72
I0
sS'CT'
p73
I0
sS'CR'
p74
I0
sS'ST'
p75
I0
ssS'MS_probleme'
p76
I00
sS'MJ3'
p77
(dp78
g72
I0
sg73
I0
sg74
I0
sg75
I0
ssS'MJ1_total'
p79
(dp80
g49
I0
sg50
I0
sg51
I2
sg52
I4
ssS'penalites_total'
p81
I0
sS'penalites_saison'
p82
I0
sS'nom'
p83
S'Umgrin'
p84
sS'C'
p85
I11
sS'transformations_total'
p86
I0
sS'D'
p87
I23
sS'VAL'
p88
I141
sS'club'
p89
S'GP'
p90
sS'caracs'
p91
(dp92
S'A'
p93
I9
sS'ME'
p94
I7
sS'RP2'
p95
I6
sS'E'
p96
I10
sS'P'
p97
I5
sS'RP1'
p98
I11
sS'JP'
p99
I4
sS'RP_tot'
p100
I11
sS'TO'
p101
I11
sS'PA'
p102
I9
sS'M'
p103
I7
sS'R'
p104
I8
sS'TB'
p105
I6
sS'PL'
p106
I15
sS'TA'
p107
I3
ssS'jj_passe'
p108
(dp109
S's12'
p110
(ijoueur
joueur
p111
(dp112
g27
F8.758620689655173
sg28
I0
sg30
g31
sg32
I0
sg34
I0
sg35
g36
(g37
g38
Ntp113
Rp114
(dp115
g42
I5
sg43
S'xx'
p116
sg45
S'seigneur'
p117
sbsg47
(dp118
S'SR'
p119
I0
sS'ST'
p120
I0
sS'CR'
p121
I1
sS'CT'
p122
I17
ssg53
(dp123
g119
I0
sg120
I0
sg121
I0
sg122
I0
ssg56
I0
sg58
I0
sg76
I00
sg60
I2
sg61
I0
sg62
I0
sg63
(S'dummy'
p124
S'N8'
p125
S'TL'
p126
g31
tp127
sg68
I00
sg69
g36
(g37
g38
Ntp128
Rp129
(dp130
g42
I4
sg43
S'x'
p131
sg45
S'heros'
p132
sbsg70
(dp133
S'SR'
p134
I0
sS'ST'
p135
I0
sS'CR'
p136
I0
sS'CT'
p137
I1
ssS'MJ2'
p138
(dp139
g134
I0
sg135
I0
sg136
I0
sg137
I12
ssg77
(dp140
g134
I0
sg135
I0
sg136
I0
sg137
I0
ssg79
(dp141
g119
I0
sg120
I0
sg121
I2
sg122
I4
ssg81
I0
sg82
I0
sg83
S'Umgrin'
p142
sg85
I11
sg86
I0
sg87
I23
sg88
I91
sg89
S'GP'
p143
sg91
(dp144
S'A'
p145
I9
sS'ME'
p146
I7
sS'RP2'
p147
I7
sS'E'
p148
I11
sS'TO'
p149
I10
sS'RP1'
p150
I10
sS'JP'
p151
I4
sS'RP_tot'
p152
I10
sS'P'
p153
I5
sS'PA'
p154
I8
sS'M'
p155
I7
sS'R'
p156
I8
sS'TB'
p157
I6
sS'PL'
p158
I14
sS'TA'
p159
I3
ssg108
(dp160
S's11'
p161
(ijoueur
joueur
p162
(dp163
g28
I0
sg32
I0
sg34
I0
sg35
g36
(g37
g38
Ntp164
Rp165
(dp166
g42
I5
sg43
S'xx'
p167
sg45
S'seigneur'
p168
sbsg47
(dp169
S'SR'
p170
I0
sS'CT'
p171
I5
sS'CR'
p172
I1
sS'ST'
p173
I0
ssg53
(dp174
g170
I0
sg171
I0
sg172
I0
sg173
I0
ssg56
I0
sg58
I0
sg76
I00
sg60
I0
sg61
I0
sg62
I0
sg63
(S'dummy'
p175
S'N8'
p176
S'TL'
p177
g31
tp178
sg68
I00
sg69
g36
(g37
g38
Ntp179
Rp180
(dp181
g42
I1
sg43
S'^'
p182
sg45
S'base'
p183
sbsg70
(dp184
g170
I0
sg171
I3
sg172
I2
sg173
I0
ssg138
(dp185
g170
I0
sg171
I5
sg172
I1
sg173
I0
ssg77
(dp186
g170
I0
sg171
I0
sg172
I0
sg173
I0
ssg79
(dp187
g170
I0
sg171
I3
sg172
I2
sg173
I0
ssg81
I0
sg82
I0
sg83
S'Umgrin'
p188
sg85
I11
sg86
I0
sg87
I23
sg88
I12
sg89
S'GP'
p189
sg91
(dp190
S'A'
p191
I8
sS'ME'
p192
I7
sS'RP2'
p193
I6
sS'E'
p194
I10
sS'P'
p195
I4
sS'RP1'
p196
I8
sS'JP'
p197
I3
sS'RP_tot'
p198
I8
sS'TO'
p199
I8
sS'PA'
p200
I7
sS'M'
p201
I6
sS'R'
p202
I8
sS'TB'
p203
I5
sS'PL'
p204
I12
sS'TA'
p205
I3
ssS'fatigue'
p206
I0
sS'drop_ratees_total'
p207
I0
sS'blessures_total'
p208
I0
sS'XP'
p209
I0
sg57
F8.758620689655173
sS'penalite_ratees_total'
p210
I0
sS'blessures_saison'
p211
I0
sS'jaunes_total'
p212
I0
sS'caracs_saison_11'
p213
(dp214
S'A'
p215
I8
sS'ME'
p216
I7
sS'RP2'
p217
I6
sS'E'
p218
I10
sS'P'
p219
I4
sS'RP1'
p220
I8
sS'JP'
p221
I3
sS'RP_tot'
p222
I8
sS'TO'
p223
I8
sS'PA'
p224
I7
sS'M'
p225
I6
sS'R'
p226
I8
sS'TB'
p227
I5
sS'PL'
p228
I12
sS'TA'
p229
I3
ssS'caracs_sans_fatigue'
p230
g190
sS'rouges_saison'
p231
I0
sS'anciens_clubs'
p232
g31
sS'transformation_ratees_total'
p233
I0
sS'drops_saison'
p234
I0
sS'transformation_ratees_saison'
p235
I0
sS'MS'
p236
I2
sS'essais_total'
p237
I0
sS'jaunes_saison'
p238
I0
sS'ARM'
p239
S'N'
p240
sbssg206
I0
sg207
I0
sg208
I0
sg209
I0
sg57
F9.805555555555555
sg210
I0
sg211
I0
sg212
I1
sg213
(dp241
S'A'
p242
I8
sS'ME'
p243
I7
sS'RP2'
p244
I6
sS'E'
p245
I10
sS'TO'
p246
I8
sS'RP1'
p247
I8
sS'JP'
p248
I3
sS'RP_tot'
p249
I8
sS'P'
p250
I4
sS'PA'
p251
I7
sS'M'
p252
I6
sS'R'
p253
I8
sS'TB'
p254
I5
sS'PL'
p255
I12
sS'TA'
p256
I3
ssg230
g144
sg231
I0
sg232
g31
sg233
I0
sg234
I0
sg235
I0
sg236
I9
sg237
I2
sg238
I1
sg239
S'N'
p257
sbsS's11'
p258
(ijoueur
joueur
p259
(dp260
g28
I0
sg32
I0
sg34
I0
sg35
g36
(g37
g38
Ntp261
Rp262
(dp263
g42
I5
sg43
S'xx'
p264
sg45
S'seigneur'
p265
sbsg47
(dp266
S'SR'
p267
I0
sS'CT'
p268
I5
sS'CR'
p269
I1
sS'ST'
p270
I0
ssg53
(dp271
g267
I0
sg268
I0
sg269
I0
sg270
I0
ssg56
I0
sg58
I0
sg76
I00
sg60
I0
sg61
I0
sg62
I0
sg63
(S'dummy'
p272
S'N8'
p273
S'TL'
p274
g31
tp275
sg68
I00
sg69
g36
(g37
g38
Ntp276
Rp277
(dp278
g42
I1
sg43
S'^'
p279
sg45
S'base'
p280
sbsg70
(dp281
g267
I0
sg268
I3
sg269
I2
sg270
I0
ssg138
(dp282
g267
I0
sg268
I5
sg269
I1
sg270
I0
ssg77
(dp283
g267
I0
sg268
I0
sg269
I0
sg270
I0
ssg79
(dp284
g267
I0
sg268
I3
sg269
I2
sg270
I0
ssg81
I0
sg82
I0
sg83
S'Umgrin'
p285
sg85
I11
sg86
I0
sg87
I23
sg88
I12
sg89
S'GP'
p286
sg91
(dp287
S'A'
p288
I8
sS'ME'
p289
I7
sS'RP2'
p290
I6
sS'E'
p291
I10
sS'P'
p292
I4
sS'RP1'
p293
I8
sS'JP'
p294
I3
sS'RP_tot'
p295
I8
sS'TO'
p296
I8
sS'PA'
p297
I7
sS'M'
p298
I6
sS'R'
p299
I8
sS'TB'
p300
I5
sS'PL'
p301
I12
sS'TA'
p302
I3
ssg206
I0
sg207
I0
sg208
I0
sg209
I0
sg57
F8.758620689655173
sg210
I0
sg211
I0
sg212
I0
sg213
(dp303
S'A'
p304
I8
sS'ME'
p305
I7
sS'RP2'
p306
I6
sS'E'
p307
I10
sS'P'
p308
I4
sS'RP1'
p309
I8
sS'JP'
p310
I3
sS'RP_tot'
p311
I8
sS'TO'
p312
I8
sS'PA'
p313
I7
sS'M'
p314
I6
sS'R'
p315
I8
sS'TB'
p316
I5
sS'PL'
p317
I12
sS'TA'
p318
I3
ssg230
g287
sg231
I0
sg232
g31
sg233
I0
sg234
I0
sg235
I0
sg236
I2
sg237
I0
sg238
I0
sg239
S'N'
p319
sbssg206
I0
sg207
I0
sg208
I0
sg209
I0
sg138
(dp320
g72
I0
sg73
I0
sg74
I0
sg75
I0
ssg210
I0
sg211
I0
sg212
I1
sg213
(dp321
S'A'
p322
I8
sS'ME'
p323
I7
sS'RP2'
p324
I6
sS'E'
p325
I10
sS'TO'
p326
I8
sS'RP1'
p327
I8
sS'JP'
p328
I3
sS'RP_tot'
p329
I8
sS'P'
p330
I4
sS'PA'
p331
I7
sS'M'
p332
I6
sS'R'
p333
I8
sS'TB'
p334
I5
sS'PL'
p335
I12
sS'TA'
p336
I3
ssg230
(dp337
g93
I9
sg94
I7
sg95
I6
sg96
I10
sg101
I11
sg98
I11
sg99
I4
sg100
I11
sg97
I5
sg102
I9
sg103
I7
sg104
I8
sg105
I6
sg106
I15
sg107
I3
ssg231
I0
sS'caracs_saison_12'
p338
(dp339
sg233
I0
sg232
g31
sg234
I0
sg235
I0
sg236
I14
sg237
I2
sg238
I0
sg239
S'N'
p340
sbsS'drop3'
p341
(ijoueur
joueur
p342
(dp343
g27
F9.787878787878787
sg28
I0
sg29
F9.787878787878787
sg30
g31
sg32
I0
sg33
I0
sg34
I0
sg35
g36
(g37
g38
Ntp344
Rp345
(dp346
g42
I5
sg43
S'xx'
p347
sg45
g46
sbsg47
(dp348
g49
I0
sg50
I0
sg51
I0
sg52
I13
ssg53
(dp349
g49
I0
sg50
I0
sg51
I0
sg52
I0
ssg55
I0
sg56
I2
sg57
F9.878787878787879
sg58
I0
sg59
I0
sg60
I0
sg61
I0
sg62
I0
sg63
(g64
S'DO'
p350
S'CE'
p351
S'AR'
p352
tp353
sg68
I00
sg69
g36
(g37
g38
Ntp354
Rp355
(dp356
g42
I5
sg43
S'xx'
p357
sg45
g46
sbsg70
(dp358
g72
I0
sg73
I0
sg74
I0
sg75
I0
ssg76
I00
sg77
(dp359
g72
I0
sg73
I0
sg74
I0
sg75
I0
ssg79
(dp360
g49
I12
sg50
I0
sg51
I1
sg52
I12
ssg81
I10
sg82
I0
sg83
S"D'yb"
p361
sg85
I9
sg86
I0
sg87
I19
sg88
I350
sg89
g90
sg91
(dp362
g93
I10
sg94
I6
sg95
I8
sg96
I14
sg97
I10
sg98
I12
sg99
I9
sg100
I13
sg101
I6
sg102
I7
sg103
I10
sg104
I9
sg105
I7
sg106
I8
sg107
I7
ssg108
(dp363
g110
(ijoueur
joueur
p364
(dp365
g27
F9.787878787878787
sg28
I0
sg30
g31
sg32
I0
sg34
I0
sg35
g36
(g37
g38
Ntp366
Rp367
(dp368
g42
I5
sg43
S'xx'
p369
sg45
g117
sbsg47
(dp370
g119
I0
sg120
I0
sg121
I0
sg122
I13
ssg53
(dp371
g119
I0
sg120
I0
sg121
I0
sg122
I0
ssg56
I2
sg58
I0
sg76
I00
sg60
I1
sg61
I0
sg62
I0
sg63
(g124
S'DO'
p372
S'CE'
p373
S'AR'
p374
tp375
sg68
I00
sg69
g36
(g37
g38
Ntp376
Rp377
(dp378
g42
I5
sg43
S'xx'
p379
sg45
g117
sbsg70
(dp380
g134
I6
sg135
I0
sg136
I0
sg137
I0
ssg138
(dp381
g134
I0
sg135
I0
sg136
I0
sg137
I13
ssg77
(dp382
g134
I0
sg135
I0
sg136
I0
sg137
I0
ssg79
(dp383
g119
I12
sg120
I0
sg121
I1
sg122
I12
ssg81
I10
sg82
I4
sg83
S"D'yb"
p384
sg85
I9
sg86
I0
sg87
I19
sg88
I350
sg89
g143
sg91
(dp385
g145
I10
sg146
I6
sg147
I8
sg148
I14
sg149
I6
sg150
I12
sg151
I9
sg152
I13
sg153
I10
sg154
I7
sg155
I9
sg156
I9
sg157
I8
sg158
I8
sg159
I7
ssg108
(dp386
g161
(ijoueur
joueur
p387
(dp388
g28
I0
sg32
I0
sg34
I0
sg35
g36
(g37
g38
Ntp389
Rp390
(dp391
g42
I5
sg43
S'xx'
p392
sg45
S'seigneur'
p393
sbsg47
(dp394
S'SR'
p395
I0
sS'CT'
p396
I0
sS'CR'
p397
I0
sS'ST'
p398
I0
ssg53
(dp399
g395
I0
sg396
I0
sg397
I0
sg398
I0
ssg56
I2
sg58
I2
sg76
I00
sg60
I1
sg61
I2
sg62
I0
sg63
(S'dummy'
p400
S'DO'
p401
S'CE'
p402
S'AR'
p403
tp404
sg68
I00
sg69
g36
(g37
g38
Ntp405
Rp406
(dp407
g42
I5
sg43
S'xx'
p408
sg45
g393
sbsg70
(dp409
g395
I6
sg396
I12
sg397
I1
sg398
I0
ssg138
(dp410
g395
I0
sg396
I0
sg397
I0
sg398
I0
ssg77
(dp411
g395
I0
sg396
I0
sg397
I0
sg398
I0
ssg79
(dp412
g395
I6
sg396
I12
sg397
I1
sg398
I0
ssg81
I6
sg82
I6
sg83
S"D'yb"
p413
sg85
I9
sg86
I0
sg87
I19
sg88
I350
sg89
S'GP'
p414
sg91
(dp415
S'A'
p416
I10
sS'ME'
p417
I6
sS'RP2'
p418
I8
sS'E'
p419
I13
sS'P'
p420
I10
sS'RP1'
p421
I13
sS'JP'
p422
I8
sS'RP_tot'
p423
I14
sS'TO'
p424
I6
sS'PA'
p425
I8
sS'M'
p426
I8
sS'R'
p427
I9
sS'TB'
p428
I8
sS'PL'
p429
I9
sS'TA'
p430
I7
ssg206
I0
sg207
I0
sg208
I0
sg209
I0
sg57
F9.787878787878787
sg210
I2
sg211
I0
sg212
I1
sg213
(dp431
S'A'
p432
I10
sS'ME'
p433
I6
sS'RP2'
p434
I8
sS'E'
p435
I13
sS'P'
p436
I10
sS'RP1'
p437
I13
sS'JP'
p438
I8
sS'RP_tot'
p439
I14
sS'TO'
p440
I6
sS'PA'
p441
I8
sS'M'
p442
I8
sS'R'
p443
I9
sS'TB'
p444
I8
sS'PL'
p445
I9
sS'TA'
p446
I7
ssg230
g415
sg231
I0
sg232
g31
sg233
I0
sg234
I0
sg235
I0
sg236
I35
sg237
I1
sg238
I1
sg239
S'HL'
p447
sbssg206
I3
sg207
I0
sg208
I0
sg209
I0
sg57
F9.787878787878787
sg210
I2
sg211
I0
sg212
I1
sg213
(dp448
g242
I10
sg243
I6
sg244
I8
sg245
I13
sg246
I6
sg247
I13
sg248
I8
sg249
I14
sg250
I10
sg251
I8
sg252
I8
sg253
I9
sg254
I8
sg255
I9
sg256
I7
ssg230
g385
sg231
I0
sg232
g31
sg233
I0
sg234
I0
sg235
I0
sg236
I35
sg237
I2
sg238
I0
sg239
S'HL'
p449
sbsg258
(ijoueur
joueur
p450
(dp451
g28
I0
sg32
I0
sg34
I0
sg35
g36
(g37
g38
Ntp452
Rp453
(dp454
g42
I5
sg43
S'xx'
p455
sg45
S'seigneur'
p456
sbsg47
(dp457
S'SR'
p458
I0
sS'CT'
p459
I0
sS'CR'
p460
I0
sS'ST'
p461
I0
ssg53
(dp462
g458
I0
sg459
I0
sg460
I0
sg461
I0
ssg56
I2
sg58
I2
sg76
I00
sg60
I1
sg61
I2
sg62
I0
sg63
(S'dummy'
p463
S'DO'
p464
S'CE'
p465
S'AR'
p466
tp467
sg68
I00
sg69
g36
(g37
g38
Ntp468
Rp469
(dp470
g42
I5
sg43
S'xx'
p471
sg45
g456
sbsg70
(dp472
g458
I6
sg459
I12
sg460
I1
sg461
I0
ssg138
(dp473
g458
I0
sg459
I0
sg460
I0
sg461
I0
ssg77
(dp474
g458
I0
sg459
I0
sg460
I0
sg461
I0
ssg79
(dp475
g458
I6
sg459
I12
sg460
I1
sg461
I0
ssg81
I6
sg82
I6
sg83
S"D'yb"
p476
sg85
I9
sg86
I0
sg87
I19
sg88
I350
sg89
S'GP'
p477
sg91
(dp478
S'A'
p479
I10
sS'ME'
p480
I6
sS'RP2'
p481
I8
sS'E'
p482
I13
sS'P'
p483
I10
sS'RP1'
p484
I13
sS'JP'
p485
I8
sS'RP_tot'
p486
I14
sS'TO'
p487
I6
sS'PA'
p488
I8
sS'M'
p489
I8
sS'R'
p490
I9
sS'TB'
p491
I8
sS'PL'
p492
I9
sS'TA'
p493
I7
ssg206
I0
sg207
I0
sg208
I0
sg209
I0
sg57
F9.787878787878787
sg210
I2
sg211
I0
sg212
I1
sg213
(dp494
S'A'
p495
I10
sS'ME'
p496
I6
sS'RP2'
p497
I8
sS'E'
p498
I13
sS'P'
p499
I10
sS'RP1'
p500
I13
sS'JP'
p501
I8
sS'RP_tot'
p502
I14
sS'TO'
p503
I6
sS'PA'
p504
I8
sS'M'
p505
I8
sS'R'
p506
I9
sS'TB'
p507
I8
sS'PL'
p508
I9
sS'TA'
p509
I7
ssg230
g478
sg231
I0
sg232
g31
sg233
I0
sg234
I0
sg235
I0
sg236
I35
sg237
I1
sg238
I1
sg239
S'HL'
p510
sbssg206
I0
sg207
I0
sg208
I0
sg209
I0
sg138
(dp511
g72
I0
sg73
I0
sg74
I0
sg75
I0
ssg210
I2
sg211
I0
sg212
I1
sg213
(dp512
g322
I10
sg323
I6
sg324
I8
sg325
I13
sg326
I6
sg327
I13
sg328
I8
sg329
I14
sg330
I10
sg331
I8
sg332
I8
sg333
I9
sg334
I8
sg335
I9
sg336
I7
ssg230
(dp513
g93
I10
sg94
I6
sg95
I8
sg96
I14
sg101
I6
sg98
I12
sg99
I9
sg100
I13
sg97
I10
sg102
I7
sg103
I10
sg104
I9
sg105
I7
sg106
I8
sg107
I7
ssg231
I0
sg338
(dp514
sg233
I0
sg232
g31
sg234
I0
sg235
I0
sg236
I35
sg237
I2
sg238
I0
sg239
S'HL'
p515
sbsS'cap'
p516
(ijoueur
joueur
p517
(dp518
g27
F10.62962962962963
sg28
I0
sg29
F11.0
sg30
g31
sg32
I0
sg33
I0
sg34
I0
sg35
g36
(g37
g38
Ntp519
Rp520
(dp521
g42
I4
sg43
S'*'
p522
sg45
S'heros'
p523
sbsg47
(dp524
S'SR'
p525
I1
sS'ST'
p526
I4
sS'CR'
p527
I0
sS'CT'
p528
I27
ssg53
(dp529
g525
I0
sg526
I0
sg527
I0
sg528
I1
ssg55
I0
sg138
(dp530
g72
I0
sg73
I0
sg74
I0
sg75
I0
ssg56
I0
sg58
I0
sS'transformations'
p531
I0
sS'penalites'
p532
I0
sg60
I0
sg61
I0
sg62
I0
sg63
(S'dummy'
p533
S'PI'
p534
S'DL'
p535
S'TL'
p536
tp537
sg68
I00
sg69
g36
(g37
g38
Ntp538
Rp539
(dp540
g42
I5
sg43
S'xx'
p541
sg45
S'seigneur'
p542
sbsg70
(dp543
g72
I0
sg73
I0
sg74
I0
sg75
I0
ssg76
I00
sg77
(dp544
g72
I0
sg73
I0
sg74
I0
sg75
I0
ssg79
(dp545
g525
I5
sg526
I0
sg527
I0
sg528
I0
ssg81
I0
sg82
I0
sg83
S'Slend'
p546
sg85
I3
sg86
I0
sg87
I15
sg88
I517
sg89
g90
sg91
(dp547
S'A'
p548
I9
sS'ME'
p549
I12
sS'RP2'
p550
I7
sS'E'
p551
I13
sS'P'
p552
I5
sS'RP1'
p553
I15
sS'JP'
p554
I4
sS'RP_tot'
p555
I15
sS'TO'
p556
I9
sS'PA'
p557
I9
sS'M'
p558
I10
sS'R'
p559
I12
sS'TB'
p560
I3
sS'PL'
p561
I8
sS'TA'
p562
I8
ssg108
(dp563
S's12'
p564
(ijoueur
joueur
p565
(dp566
g27
F10.62962962962963
sg28
I0
sg30
g31
sg32
I0
sg34
I0
sg35
g36
(g37
g38
Ntp567
Rp568
(dp569
g42
I4
sg43
S'*'
p570
sg45
S'heros'
p571
sbsg47
(dp572
S'SR'
p573
I1
sS'ST'
p574
I4
sS'CR'
p575
I0
sS'CT'
p576
I27
ssg53
(dp577
g573
I0
sg574
I0
sg575
I0
sg576
I1
ssg56
I0
sg57
F11.0
sg58
I0
sg531
I0
sg532
I0
sg60
I3
sg61
I0
sg62
I0
sg63
(S'dummy'
p578
S'PI'
p579
S'DL'
p580
S'TL'
p581
tp582
sg68
I01
sg69
g36
(g37
g38
Ntp583
Rp584
(dp585
g42
I5
sg43
S'xx'
p586
sg45
S'seigneur'
p587
sbsg70
(dp588
S'SR'
p589
I0
sS'CT'
p590
I0
sS'CR'
p591
I0
sS'ST'
p592
I0
ssg76
I00
sg77
(dp593
g589
I0
sg590
I1
sg591
I0
sg592
I0
ssg79
(dp594
g573
I5
sg574
I0
sg575
I0
sg576
I0
ssg81
I0
sg82
I0
sg83
S'Slend'
p595
sg85
I3
sg86
I0
sg87
I15
sg88
I363
sg89
S'MRB'
p596
sg91
(dp597
S'A'
p598
I9
sS'ME'
p599
I10
sS'RP2'
p600
I7
sS'E'
p601
I13
sS'TO'
p602
I9
sS'RP1'
p603
I15
sS'JP'
p604
I4
sS'RP_tot'
p605
I15
sS'P'
p606
I5
sS'PA'
p607
I9
sS'M'
p608
I10
sS'R'
p609
I11
sS'TB'
p610
I3
sS'PL'
p611
I8
sS'TA'
p612
I8
ssg108
(dp613
S's11'
p614
(ijoueur
joueur
p615
(dp616
g28
I0
sg32
I0
sg34
I0
sg35
g36
(g37
g38
Ntp617
Rp618
(dp619
g42
I4
sg43
S'*'
p620
sg45
S'heros'
p621
sbsg47
(dp622
S'SR'
p623
I1
sS'CT'
p624
I13
sS'CR'
p625
I0
sS'ST'
p626
I0
ssg53
(dp627
g623
I0
sg624
I0
sg625
I0
sg626
I0
ssg138
(dp628
g623
I1
sg624
I13
sg625
I0
sg626
I0
ssg56
I0
sg58
I0
sg531
I0
sg532
I0
sg60
I4
sg61
I0
sg62
I0
sg63
(S'dummy'
p629
S'PI'
p630
S'DL'
p631
S'TL'
p632
tp633
sg68
I00
sg69
g36
(g37
g38
Ntp634
Rp635
(dp636
g42
I5
sg43
S'xx'
p637
sg45
S'seigneur'
p638
sbsg70
(dp639
g623
I5
sg624
I0
sg625
I0
sg626
I0
ssg76
I00
sg77
(dp640
g623
I0
sg624
I0
sg625
I0
sg626
I0
ssg79
(dp641
g623
I5
sg624
I0
sg625
I0
sg626
I0
ssg81
I0
sg82
I0
sg83
S'Slend'
p642
sg85
I3
sg86
I0
sg87
I15
sg88
I363
sg89
S'MRB'
p643
sg91
(dp644
S'A'
p645
I9
sS'ME'
p646
I9
sS'RP2'
p647
I7
sS'E'
p648
I12
sS'P'
p649
I5
sS'RP1'
p650
I15
sS'JP'
p651
I4
sS'RP_tot'
p652
I15
sS'TO'
p653
I8
sS'PA'
p654
I9
sS'M'
p655
I9
sS'R'
p656
I11
sS'TB'
p657
I3
sS'PL'
p658
I8
sS'TA'
p659
I8
ssg206
I0
sg207
I0
sg208
I0
sg209
I0
sg57
F10.62962962962963
sg210
I0
sS'drops'
p660
I0
sg211
I0
sg212
I0
sg213
(dp661
S'A'
p662
I9
sS'ME'
p663
I9
sS'RP2'
p664
I7
sS'E'
p665
I12
sS'P'
p666
I5
sS'RP1'
p667
I15
sS'JP'
p668
I4
sS'RP_tot'
p669
I15
sS'TO'
p670
I8
sS'PA'
p671
I9
sS'M'
p672
I9
sS'R'
p673
I11
sS'TB'
p674
I3
sS'PL'
p675
I8
sS'TA'
p676
I8
ssg230
g644
sg231
I0
sg232
S'TO 10'
p677
sg233
I0
sg234
I0
sg235
I0
sg236
I41
sg237
I8
sg238
I0
sg239
S'HL'
p678
sbssg206
I1
sg207
I0
sg208
I1
sg209
I0
sg138
(dp679
g589
I0
sg590
I14
sg591
I0
sg592
I4
ssg210
I0
sg660
I0
sg211
I1
sg212
I1
sg213
(dp680
S'A'
p681
I9
sS'ME'
p682
I9
sS'RP2'
p683
I7
sS'E'
p684
I12
sS'TO'
p685
I8
sS'RP1'
p686
I15
sS'JP'
p687
I4
sS'RP_tot'
p688
I15
sS'P'
p689
I5
sS'PA'
p690
I9
sS'M'
p691
I9
sS'R'
p692
I11
sS'TB'
p693
I3
sS'PL'
p694
I8
sS'TA'
p695
I8
ssg230
g597
sg231
I0
sg232
S'TO 10'
p696
sg233
I0
sg234
I0
sg235
I0
sg236
I41
sg237
I11
sg238
I1
sg239
S'HL'
p697
sbsS's11'
p698
(ijoueur
joueur
p699
(dp700
g28
I0
sg32
I0
sg34
I0
sg35
g36
(g37
g38
Ntp701
Rp702
(dp703
g42
I4
sg43
S'*'
p704
sg45
S'heros'
p705
sbsg47
(dp706
S'SR'
p707
I1
sS'CT'
p708
I13
sS'CR'
p709
I0
sS'ST'
p710
I0
ssg53
(dp711
g707
I0
sg708
I0
sg709
I0
sg710
I0
ssg138
(dp712
g707
I1
sg708
I13
sg709
I0
sg710
I0
ssg56
I0
sg58
I0
sg531
I0
sg532
I0
sg60
I4
sg61
I0
sg62
I0
sg63
(S'dummy'
p713
S'PI'
p714
S'DL'
p715
S'TL'
p716
tp717
sg68
I00
sg69
g36
(g37
g38
Ntp718
Rp719
(dp720
g42
I5
sg43
S'xx'
p721
sg45
S'seigneur'
p722
sbsg70
(dp723
g707
I5
sg708
I0
sg709
I0
sg710
I0
ssg76
I00
sg77
(dp724
g707
I0
sg708
I0
sg709
I0
sg710
I0
ssg79
(dp725
g707
I5
sg708
I0
sg709
I0
sg710
I0
ssg81
I0
sg82
I0
sg83
S'Slend'
p726
sg85
I3
sg86
I0
sg87
I15
sg88
I363
sg89
S'MRB'
p727
sg91
(dp728
S'A'
p729
I9
sS'ME'
p730
I9
sS'RP2'
p731
I7
sS'E'
p732
I12
sS'P'
p733
I5
sS'RP1'
p734
I15
sS'JP'
p735
I4
sS'RP_tot'
p736
I15
sS'TO'
p737
I8
sS'PA'
p738
I9
sS'M'
p739
I9
sS'R'
p740
I11
sS'TB'
p741
I3
sS'PL'
p742
I8
sS'TA'
p743
I8
ssg206
I0
sg207
I0
sg208
I0
sg209
I0
sg57
F10.62962962962963
sg210
I0
sg660
I0
sg211
I0
sg212
I0
sg213
(dp744
S'A'
p745
I9
sS'ME'
p746
I9
sS'RP2'
p747
I7
sS'E'
p748
I12
sS'P'
p749
I5
sS'RP1'
p750
I15
sS'JP'
p751
I4
sS'RP_tot'
p752
I15
sS'TO'
p753
I8
sS'PA'
p754
I9
sS'M'
p755
I9
sS'R'
p756
I11
sS'TB'
p757
I3
sS'PL'
p758
I8
sS'TA'
p759
I8
ssg230
g728
sg231
I0
sg232
S'TO 10'
p760
sg233
I0
sg234
I0
sg235
I0
sg236
I41
sg237
I8
sg238
I0
sg239
S'HL'
p761
sbssg206
I0
sg207
I0
sg208
I1
sg209
I0
sg57
F11.592592592592593
sg210
I0
sg59
I0
sg660
I0
sg211
I0
sg212
I1
sg213
(dp762
S'A'
p763
I9
sS'ME'
p764
I9
sS'RP2'
p765
I7
sS'E'
p766
I12
sS'TO'
p767
I8
sS'RP1'
p768
I15
sS'JP'
p769
I4
sS'RP_tot'
p770
I15
sS'P'
p771
I5
sS'PA'
p772
I9
sS'M'
p773
I9
sS'R'
p774
I11
sS'TB'
p775
I3
sS'PL'
p776
I8
sS'TA'
p777
I8
ssg230
(dp778
g548
I9
sg549
I12
sg550
I7
sg551
I13
sg556
I9
sg553
I15
sg554
I4
sg555
I15
sg552
I5
sg557
I9
sg558
I10
sg559
I12
sg560
I3
sg561
I8
sg562
I8
ssg231
I0
sg338
(dp779
sg233
I0
sg232
S'TO 10;MRB 13'
p780
sg234
I0
sg235
I0
sg236
I20
sg237
I11
sg238
I0
sg239
S'HL'
p781
sbsS'SA_pcp1'
p782
(ijoueur
joueur
p783
(dp784
g27
F10.894736842105264
sg28
I0
sg29
F11.105263157894736
sg30
g31
sg32
I0
sg33
I0
sg34
I0
sg35
g36
(g37
g38
Ntp785
Rp786
(dp787
g42
I4
sg43
S'x'
p788
sg45
S'heros'
p789
sbsg47
(dp790
g49
I0
sg50
I0
sg51
I0
sg52
I0
ssg53
(dp791
g49
I0
sg50
I0
sg51
I0
sg52
I0
ssg55
I0
sg56
I0
sg57
F10.763157894736842
sg58
I0
sg59
I0
sg60
I0
sg61
I0
sg62
I0
sg63
(g64
S'TL'
p792
g31
g31
tp793
sg68
I00
sg69
g36
(g37
g38
Ntp794
Rp795
(dp796
g42
I4
sg43
g788
sg45
g789
sbsg70
(dp797
g72
I0
sg73
I0
sg74
I0
sg75
I0
ssg76
I00
sg77
(dp798
g72
I0
sg73
I0
sg74
I0
sg75
I0
ssg79
(dp799
g49
I4
sg50
I0
sg51
I0
sg52
I25
ssg81
I0
sg82
I0
sg83
S'Lyemerich'
p800
sg85
I10
sg86
I0
sg87
I22
sg88
I100
sg89
g90
sg91
(dp801
g93
I11
sg94
I7
sg95
I7
sg96
I10
sg97
I5
sg98
I10
sg99
I5
sg100
I10
sg101
I13
sg102
I10
sg103
I8
sg104
I13
sg105
I5
sg106
I8
sg107
I6
ssg108
(dp802
g110
(ijoueur
joueur
p803
(dp804
g27
F10.894736842105264
sg28
I0
sg30
g31
sg32
I0
sg34
I0
sg35
g36
(g37
g38
Ntp805
Rp806
(dp807
g42
I4
sg43
S'x'
p808
sg45
S'heros'
p809
sbsg47
(dp810
g119
I0
sg120
I0
sg121
I0
sg122
I0
ssg53
(dp811
g119
I0
sg120
I0
sg121
I0
sg122
I0
ssg56
I0
sg58
I0
sg76
I01
sg60
I0
sg61
I0
sg62
I0
sg63
(g124
S'TL'
p812
g31
g31
tp813
sg68
I00
sg69
g36
(g37
g38
Ntp814
Rp815
(dp816
g42
I4
sg43
g808
sg45
g809
sbsg70
(dp817
g134
I4
sg135
I0
sg136
I0
sg137
I14
ssg138
(dp818
g134
I0
sg135
I0
sg136
I0
sg137
I0
ssg77
(dp819
g134
I0
sg135
I0
sg136
I0
sg137
I0
ssg79
(dp820
g119
I4
sg120
I0
sg121
I0
sg122
I25
ssg81
I0
sg82
I0
sg83
S'Lyemerich'
p821
sg85
I10
sg86
I0
sg87
I22
sg88
I100
sg89
g143
sg91
(dp822
g145
I11
sg146
I9
sg147
I7
sg148
I10
sg149
I13
sg150
I10
sg151
I5
sg152
I10
sg153
I5
sg154
I10
sg155
I8
sg156
I14
sg157
I5
sg158
I8
sg159
I6
ssg108
(dp823
g161
(ijoueur
joueur
p824
(dp825
g28
I0
sg32
I0
sg34
I0
sg35
g36
(g37
g38
Ntp826
Rp827
(dp828
g42
I4
sg43
S'x'
p829
sg45
S'heros'
p830
sbsg47
(dp831
S'SR'
p832
I0
sS'CT'
p833
I0
sS'CR'
p834
I0
sS'ST'
p835
I0
ssg53
(dp836
g832
I0
sg833
I0
sg834
I0
sg835
I0
ssg56
I0
sg58
I0
sg76
I00
sg60
I0
sg61
I0
sg62
I0
sg63
(S'dummy'
p837
S'TL'
p838
g31
g31
tp839
sg68
I00
sg69
g36
(g37
g38
Ntp840
Rp841
(dp842
g42
I4
sg43
g829
sg45
g830
sbsg70
(dp843
g832
I0
sg833
I11
sg834
I0
sg835
I0
ssg138
(dp844
g832
I0
sg833
I0
sg834
I0
sg835
I0
ssg77
(dp845
g832
I0
sg833
I0
sg834
I0
sg835
I0
ssg79
(dp846
g832
I0
sg833
I11
sg834
I0
sg835
I0
ssg81
I0
sg82
I0
sg83
S'Lyemerich'
p847
sg85
I10
sg86
I0
sg87
I22
sg88
I100
sg89
S'GP'
p848
sg91
(dp849
S'A'
p850
I11
sS'ME'
p851
I9
sS'RP2'
p852
I7
sS'E'
p853
I10
sS'P'
p854
I5
sS'RP1'
p855
I10
sS'JP'
p856
I5
sS'RP_tot'
p857
I10
sS'TO'
p858
I13
sS'PA'
p859
I10
sS'M'
p860
I7
sS'R'
p861
I12
sS'TB'
p862
I5
sS'PL'
p863
I10
sS'TA'
p864
I6
ssg206
I0
sg207
I0
sg208
I1
sg209
I0
sg57
F10.894736842105264
sg210
I0
sg211
I1
sg212
I0
sg213
(dp865
S'A'
p866
I11
sS'ME'
p867
I9
sS'RP2'
p868
I7
sS'E'
p869
I10
sS'P'
p870
I5
sS'RP1'
p871
I10
sS'JP'
p872
I5
sS'RP_tot'
p873
I10
sS'TO'
p874
I13
sS'PA'
p875
I10
sS'M'
p876
I7
sS'R'
p877
I12
sS'TB'
p878
I5
sS'PL'
p879
I10
sS'TA'
p880
I6
ssg230
g849
sg231
I0
sg232
g31
sg233
I0
sg234
I0
sg235
I0
sg236
I10
sg237
I0
sg238
I0
sg239
S'CHS'
p881
sbssg206
I0
sg207
I0
sg208
I1
sg209
I0
sg57
F11.105263157894736
sg210
I0
sg211
I0
sg212
I1
sg213
(dp882
g242
I11
sg243
I9
sg244
I7
sg245
I10
sg246
I13
sg247
I10
sg248
I5
sg249
I10
sg250
I5
sg251
I10
sg252
I7
sg253
I12
sg254
I5
sg255
I10
sg256
I6
ssg230
g822
sg231
I0
sg232
g31
sg233
I0
sg234
I0
sg235
I0
sg236
I10
sg237
I0
sg238
I1
sg239
S'CHS'
p883
sbsg258
(ijoueur
joueur
p884
(dp885
g28
I0
sg32
I0
sg34
I0
sg35
g36
(g37
g38
Ntp886
Rp887
(dp888
g42
I4
sg43
S'x'
p889
sg45
S'heros'
p890
sbsg47
(dp891
S'SR'
p892
I0
sS'CT'
p893
I0
sS'CR'
p894
I0
sS'ST'
p895
I0
ssg53
(dp896
g892
I0
sg893
I0
sg894
I0
sg895
I0
ssg56
I0
sg58
I0
sg76
I00
sg60
I0
sg61
I0
sg62
I0
sg63
(S'dummy'
p897
S'TL'
p898
g31
g31
tp899
sg68
I00
sg69
g36
(g37
g38
Ntp900
Rp901
(dp902
g42
I4
sg43
g889
sg45
g890
sbsg70
(dp903
g892
I0
sg893
I11
sg894
I0
sg895
I0
ssg138
(dp904
g892
I0
sg893
I0
sg894
I0
sg895
I0
ssg77
(dp905
g892
I0
sg893
I0
sg894
I0
sg895
I0
ssg79
(dp906
g892
I0
sg893
I11
sg894
I0
sg895
I0
ssg81
I0
sg82
I0
sg83
S'Lyemerich'
p907
sg85
I10
sg86
I0
sg87
I22
sg88
I100
sg89
S'GP'
p908
sg91
(dp909
S'A'
p910
I11
sS'ME'
p911
I9
sS'RP2'
p912
I7
sS'E'
p913
I10
sS'P'
p914
I5
sS'RP1'
p915
I10
sS'JP'
p916
I5
sS'RP_tot'
p917
I10
sS'TO'
p918
I13
sS'PA'
p919
I10
sS'M'
p920
I7
sS'R'
p921
I12
sS'TB'
p922
I5
sS'PL'
p923
I10
sS'TA'
p924
I6
ssg206
I0
sg207
I0
sg208
I1
sg209
I0
sg57
F10.894736842105264
sg210
I0
sg211
I1
sg212
I0
sg213
(dp925
S'A'
p926
I11
sS'ME'
p927
I9
sS'RP2'
p928
I7
sS'E'
p929
I10
sS'P'
p930
I5
sS'RP1'
p931
I10
sS'JP'
p932
I5
sS'RP_tot'
p933
I10
sS'TO'
p934
I13
sS'PA'
p935
I10
sS'M'
p936
I7
sS'R'
p937
I12
sS'TB'
p938
I5
sS'PL'
p939
I10
sS'TA'
p940
I6
ssg230
g909
sg231
I0
sg232
g31
sg233
I0
sg234
I0
sg235
I0
sg236
I10
sg237
I0
sg238
I0
sg239
S'CHS'
p941
sbssg206
I0
sg207
I0
sg208
I1
sg209
I0
sg138
(dp942
g72
I0
sg73
I0
sg74
I0
sg75
I0
ssg210
I0
sg211
I0
sg212
I1
sg213
(dp943
g322
I11
sg323
I9
sg324
I7
sg325
I10
sg326
I13
sg327
I10
sg328
I5
sg329
I10
sg330
I5
sg331
I10
sg332
I7
sg333
I12
sg334
I5
sg335
I10
sg336
I6
ssg230
(dp944
g93
I11
sg94
I7
sg95
I7
sg96
I10
sg101
I13
sg98
I10
sg99
I5
sg100
I10
sg97
I5
sg102
I10
sg103
I8
sg104
I13
sg105
I5
sg106
I8
sg107
I6
ssg231
I0
sg338
(dp945
sg233
I0
sg232
g31
sg234
I0
sg235
I0
sg236
I10
sg237
I0
sg238
I0
sg239
S'CHS'
p946
sbsS'B4'
p947
(ijoueur
joueur
p948
(dp949
g27
F10.303030303030303
sg28
I0
sg29
F10.428571428571429
sg30
g31
sg32
I7
sg33
I0
sS'poste3'
p950
g31
sg34
I0
sS'poste1'
p951
g31
sg35
g36
(g37
g38
Ntp952
Rp953
(dp954
g42
I5
sg43
S'**'
p955
sg45
S'seigneur'
p956
sbsg47
(dp957
S'SR'
p958
I0
sS'CT'
p959
I0
sS'CR'
p960
I0
sS'ST'
p961
I0
ssg53
(dp962
g958
I0
sg959
I0
sg960
I0
sg961
I0
ssg55
I0
sg232
S'vide 12'
p963
sg57
F10.6
sg58
I0
sg59
I0
sg60
I0
sg61
I0
sg62
I0
sg89
g90
sg68
I00
sg69
g953
sg70
(dp964
g72
I0
sg73
I0
sg74
I0
sg75
I0
ssg76
I00
sg77
(dp965
g72
I0
sg73
I0
sg74
I0
sg75
I0
ssg79
(dp966
g958
I1
sg959
I13
sg960
I0
sg961
I8
ssg81
I26
sg82
I0
sg83
S'Troeditt'
p967
sg85
I6
sg86
I20
sg87
I14
sg88
I250
sg63
(S'dummy'
p968
S'DO'
p969
g31
g31
tp970
sS'poste2'
p971
g31
sg91
(dp972
S'RP1'
p973
I9
sS'ME'
p974
I6
sS'RP2'
p975
I10
sS'E'
p976
I11
sS'TO'
p977
I8
sS'M'
p978
I13
sS'JP'
p979
I10
sS'RP_tot'
p980
I11
sS'P'
p981
I9
sS'PA'
p982
I11
sS'A'
p983
I12
sS'R'
p984
I7
sS'TB'
p985
I11
sS'PL'
p986
I10
sS'TA'
p987
I5
ssg108
(dp988
g110
(ijoueur
joueur
p989
(dp990
g27
F10.303030303030303
sg28
I0
sg30
g31
sg32
I7
sg950
g31
sg34
I0
sg951
g31
sg35
g36
(g37
g38
Ntp991
Rp992
(dp993
g42
I5
sg43
S'**'
p994
sg45
S'seigneur'
p995
sbsg47
(dp996
S'SR'
p997
I0
sS'CT'
p998
I0
sS'CR'
p999
I0
sS'ST'
p1000
I0
ssg53
(dp1001
g997
I0
sg998
I0
sg999
I0
sg1000
I0
ssg232
S'vide 12'
p1002
sg58
I0
sg76
I00
sg60
I0
sg61
I2
sg62
I20
sg89
g143
sg68
I00
sg69
g992
sg70
(dp1003
g134
I1
sg135
I5
sg136
I0
sg137
I13
ssg138
(dp1004
g134
I0
sg135
I0
sg136
I0
sg137
I0
ssg77
(dp1005
g134
I0
sg135
I0
sg136
I0
sg137
I0
ssg79
(dp1006
g997
I1
sg998
I13
sg999
I0
sg1000
I8
ssg81
I26
sg82
I20
sg83
S'Troeditt'
p1007
sg85
I6
sg86
I20
sg87
I14
sg88
I250
sg63
(S'dummy'
p1008
S'DO'
p1009
g31
g31
tp1010
sg971
g31
sg91
(dp1011
S'RP1'
p1012
I9
sS'ME'
p1013
I6
sS'RP2'
p1014
I9
sS'E'
p1015
I11
sS'P'
p1016
I9
sS'JP'
p1017
I10
sS'M'
p1018
I12
sS'RP_tot'
p1019
I11
sS'TO'
p1020
I8
sS'PA'
p1021
I11
sS'A'
p1022
I11
sS'R'
p1023
I7
sS'TB'
p1024
I11
sS'PL'
p1025
I10
sS'TA'
p1026
I5
ssg108
(dp1027
g161
(ijoueur
joueur
p1028
(dp1029
g28
I0
sg32
I0
sg950
g31
sg34
I0
sg951
g31
sg35
g36
(g37
g38
Ntp1030
Rp1031
(dp1032
g42
I5
sg43
S'**'
p1033
sg45
S'seigneur'
p1034
sbsg47
(dp1035
S'SR'
p1036
I0
sS'ST'
p1037
I0
sS'CR'
p1038
I0
sS'CT'
p1039
I0
ssg53
(dp1040
g1036
I0
sg1037
I0
sg1038
I0
sg1039
I0
ssg232
g31
sg58
I1
sg76
I00
sg60
I0
sg61
I0
sg62
I0
sg89
S'vide'
p1041
sg68
I01
sg69
g1031
sg70
(dp1042
g1036
I0
sg1037
I3
sg1038
I0
sg1039
I0
ssg138
(dp1043
g1036
I0
sg1037
I0
sg1038
I0
sg1039
I0
ssg77
(dp1044
g1036
I0
sg1037
I0
sg1038
I0
sg1039
I0
ssg79
(dp1045
g1036
I0
sg1037
I3
sg1038
I0
sg1039
I0
ssg81
I6
sg82
I6
sg83
S'Troeditt'
p1046
sg85
I6
sg86
I0
sg87
I14
sg88
I262
sg63
(S'dummy'
p1047
S'DO'
p1048
g31
g31
tp1049
sg971
g31
sg91
(dp1050
S'RP1'
p1051
I9
sS'ME'
p1052
I6
sS'RP2'
p1053
I9
sS'E'
p1054
I11
sS'TO'
p1055
I8
sS'M'
p1056
I11
sS'JP'
p1057
I9
sS'RP_tot'
p1058
I11
sS'P'
p1059
I10
sS'PA'
p1060
I11
sS'A'
p1061
I11
sS'R'
p1062
I7
sS'TB'
p1063
I10
sS'PL'
p1064
I10
sS'TA'
p1065
I5
ssg206
I0
sg207
I1
sg208
I0
sg209
I0
sg57
F10.303030303030303
sg210
I0
sg211
I0
sg212
I0
sg213
(dp1066
S'RP1'
p1067
I9
sS'ME'
p1068
I6
sS'RP2'
p1069
I9
sS'E'
p1070
I11
sS'TO'
p1071
I8
sS'M'
p1072
I11
sS'JP'
p1073
I9
sS'RP_tot'
p1074
I11
sS'P'
p1075
I10
sS'PA'
p1076
I11
sS'A'
p1077
I11
sS'R'
p1078
I7
sS'TB'
p1079
I10
sS'PL'
p1080
I10
sS'TA'
p1081
I5
ssg230
g1050
sg231
I0
sg233
I1
sg234
I0
sg235
I1
sg236
I25
sg237
I0
sg238
I0
sg239
S'K'
p1082
sbssg206
I6
sg207
I1
sg208
I1
sg209
I0
sg57
F10.428571428571429
sg210
I2
sg211
I1
sg212
I1
sg213
(dp1083
S'RP1'
p1084
I9
sS'ME'
p1085
I6
sS'RP2'
p1086
I9
sS'E'
p1087
I11
sS'TO'
p1088
I8
sS'M'
p1089
I11
sS'JP'
p1090
I9
sS'RP_tot'
p1091
I11
sS'P'
p1092
I10
sS'PA'
p1093
I11
sS'A'
p1094
I11
sS'R'
p1095
I7
sS'TB'
p1096
I10
sS'PL'
p1097
I10
sS'TA'
p1098
I5
ssg230
g1011
sg231
I0
sg233
I1
sg234
I7
sg235
I0
sg236
I11
sg237
I0
sg238
I1
sg239
S'K'
p1099
sbsg258
(ijoueur
joueur
p1100
(dp1101
g28
I0
sg32
I0
sg950
g31
sg34
I0
sg951
g31
sg35
g36
(g37
g38
Ntp1102
Rp1103
(dp1104
g42
I5
sg43
S'**'
p1105
sg45
S'seigneur'
p1106
sbsg47
(dp1107
S'SR'
p1108
I0
sS'ST'
p1109
I0
sS'CR'
p1110
I0
sS'CT'
p1111
I0
ssg53
(dp1112
g1108
I0
sg1109
I0
sg1110
I0
sg1111
I0
ssg232
g31
sg58
I1
sg76
I00
sg60
I0
sg61
I0
sg62
I0
sg89
S'vide'
p1113
sg68
I01
sg69
g1103
sg70
(dp1114
g1108
I0
sg1109
I3
sg1110
I0
sg1111
I0
ssg138
(dp1115
g1108
I0
sg1109
I0
sg1110
I0
sg1111
I0
ssg77
(dp1116
g1108
I0
sg1109
I0
sg1110
I0
sg1111
I0
ssg79
(dp1117
g1108
I0
sg1109
I3
sg1110
I0
sg1111
I0
ssg81
I6
sg82
I6
sg83
S'Troeditt'
p1118
sg85
I6
sg86
I0
sg87
I14
sg88
I262
sg63
(S'dummy'
p1119
S'DO'
p1120
g31
g31
tp1121
sg971
g31
sg91
(dp1122
S'RP1'
p1123
I9
sS'ME'
p1124
I6
sS'RP2'
p1125
I9
sS'E'
p1126
I11
sS'TO'
p1127
I8
sS'M'
p1128
I11
sS'JP'
p1129
I9
sS'RP_tot'
p1130
I11
sS'P'
p1131
I10
sS'PA'
p1132
I11
sS'A'
p1133
I11
sS'R'
p1134
I7
sS'TB'
p1135
I10
sS'PL'
p1136
I10
sS'TA'
p1137
I5
ssg206
I0
sg207
I1
sg208
I0
sg209
I0
sg57
F10.303030303030303
sg210
I0
sg211
I0
sg212
I0
sg213
(dp1138
S'RP1'
p1139
I9
sS'ME'
p1140
I6
sS'RP2'
p1141
I9
sS'E'
p1142
I11
sS'TO'
p1143
I8
sS'M'
p1144
I11
sS'JP'
p1145
I9
sS'RP_tot'
p1146
I11
sS'P'
p1147
I10
sS'PA'
p1148
I11
sS'A'
p1149
I11
sS'R'
p1150
I7
sS'TB'
p1151
I10
sS'PL'
p1152
I10
sS'TA'
p1153
I5
ssg230
g1122
sg231
I0
sg233
I1
sg234
I0
sg235
I1
sg236
I25
sg237
I0
sg238
I0
sg239
S'K'
p1154
sbssg206
I0
sg207
I1
sg208
I1
sg209
I0
sg138
(dp1155
g72
I0
sg73
I0
sg74
I0
sg75
I0
ssg210
I2
sg211
I0
sg212
I1
sg213
(dp1156
S'RP1'
p1157
I9
sS'ME'
p1158
I6
sS'RP2'
p1159
I9
sS'E'
p1160
I11
sS'TO'
p1161
I8
sS'M'
p1162
I11
sS'JP'
p1163
I9
sS'RP_tot'
p1164
I11
sS'P'
p1165
I10
sS'PA'
p1166
I11
sS'A'
p1167
I11
sS'R'
p1168
I7
sS'TB'
p1169
I10
sS'PL'
p1170
I10
sS'TA'
p1171
I5
ssg230
(dp1172
g973
I9
sg974
I6
sg975
I10
sg976
I11
sg981
I9
sg979
I10
sg978
I13
sg980
I11
sg977
I8
sg982
I11
sg983
I12
sg984
I7
sg985
I11
sg986
I10
sg987
I5
ssg231
I0
sg338
(dp1173
sg233
I1
sg234
I0
sg235
I0
sg236
I11
sg237
I0
sg238
I0
sg239
S'K'
p1174
sbsS'RJC'
p1175
g948
sS'B1'
p1176
g948
sS'B2'
p1177
g948
sS'B3'
p1178
g948
sS'SA_pcp2'
p1179
(ijoueur
joueur
p1180
(dp1181
g27
F10.529411764705882
sg28
I0
sg29
F10.294117647058824
sg30
g31
sg32
I0
sg33
I0
sg34
I0
sg35
g36
(g37
g38
Ntp1182
Rp1183
(dp1184
g42
I5
sg43
S'**'
p1185
sg45
g46
sbsg47
(dp1186
g49
I0
sg50
I0
sg51
I0
sg52
I25
ssg53
(dp1187
g49
I0
sg50
I0
sg51
I0
sg52
I0
ssg55
I0
sg56
I0
sg57
F10.852941176470589
sg58
I0
sg59
I0
sg60
I0
sg61
I0
sg62
I0
sg63
(g64
S'DL'
p1188
S'N8'
p1189
g31
tp1190
sg68
I00
sg69
g36
(g37
g38
Ntp1191
Rp1192
(dp1193
g42
I5
sg43
S'**'
p1194
sg45
g46
sbsg70
(dp1195
g72
I0
sg73
I0
sg74
I0
sg75
I0
ssg76
I00
sg77
(dp1196
g72
I0
sg73
I0
sg74
I0
sg75
I0
ssg79
(dp1197
g49
I2
sg50
I9
sg51
I0
sg52
I0
ssg81
I0
sg82
I0
sg83
S'Amrik'
p1198
sg85
I3
sg86
I0
sg87
I15
sg88
I150
sg89
g90
sg91
(dp1199
g93
I9
sg94
I10
sg95
I7
sg96
I10
sg97
I5
sg98
I12
sg99
I5
sg100
I12
sg101
I12
sg102
I7
sg103
I7
sg104
I11
sg105
I6
sg106
I12
sg107
I5
ssg108
(dp1200
g110
(ijoueur
joueur
p1201
(dp1202
g27
F10.529411764705882
sg28
I0
sg30
g31
sg32
I0
sg34
I0
sg35
g36
(g37
g38
Ntp1203
Rp1204
(dp1205
g42
I5
sg43
S'**'
p1206
sg45
g117
sbsg47
(dp1207
g119
I0
sg120
I0
sg121
I0
sg122
I25
ssg53
(dp1208
g119
I0
sg120
I0
sg121
I0
sg122
I0
ssg56
I0
sg58
I0
sg76
I00
sg60
I0
sg61
I0
sg62
I0
sg63
(g124
S'DL'
p1209
S'N8'
p1210
g31
tp1211
sg68
I00
sg69
g36
(g37
g38
Ntp1212
Rp1213
(dp1214
g42
I5
sg43
S'**'
p1215
sg45
g117
sbsg70
(dp1216
g134
I2
sg135
I4
sg136
I0
sg137
I0
ssg138
(dp1217
g134
I0
sg135
I0
sg136
I0
sg137
I13
ssg77
(dp1218
g134
I0
sg135
I0
sg136
I0
sg137
I0
ssg79
(dp1219
g119
I2
sg120
I9
sg121
I0
sg122
I0
ssg81
I0
sg82
I0
sg83
S'Amrik'
p1220
sg85
I3
sg86
I0
sg87
I15
sg88
I150
sg89
g143
sg91
(dp1221
g145
I9
sg146
I9
sg147
I7
sg148
I10
sg149
I11
sg150
I11
sg151
I5
sg152
I11
sg153
I5
sg154
I7
sg155
I7
sg156
I11
sg157
I6
sg158
I11
sg159
I5
ssg108
(dp1222
g161
(ijoueur
joueur
p1223
(dp1224
g28
I0
sg32
I0
sg34
I0
sg35
g36
(g37
g38
Ntp1225
Rp1226
(dp1227
g42
I5
sg43
S'**'
p1228
sg45
S'seigneur'
p1229
sbsg47
(dp1230
S'SR'
p1231
I0
sS'CT'
p1232
I12
sS'CR'
p1233
I0
sS'ST'
p1234
I0
ssg53
(dp1235
g1231
I0
sg1232
I0
sg1233
I0
sg1234
I0
ssg56
I0
sg58
I0
sg76
I00
sg60
I0
sg61
I0
sg62
I0
sg63
(S'dummy'
p1236
S'DL'
p1237
S'N8'
p1238
g31
tp1239
sg68
I00
sg69
g36
(g37
g38
Ntp1240
Rp1241
(dp1242
g42
I5
sg43
S'**'
p1243
sg45
g1229
sbsg70
(dp1244
g1231
I0
sg1232
I0
sg1233
I0
sg1234
I5
ssg138
(dp1245
g1231
I0
sg1232
I12
sg1233
I0
sg1234
I0
ssg77
(dp1246
g1231
I0
sg1232
I0
sg1233
I0
sg1234
I0
ssg79
(dp1247
g1231
I0
sg1232
I0
sg1233
I0
sg1234
I5
ssg81
I0
sg82
I0
sg83
S'Amrik'
p1248
sg85
I3
sg86
I0
sg87
I15
sg88
I150
sg89
S'GP'
p1249
sg91
(dp1250
S'A'
p1251
I9
sS'ME'
p1252
I10
sS'RP2'
p1253
I7
sS'E'
p1254
I10
sS'P'
p1255
I5
sS'RP1'
p1256
I11
sS'JP'
p1257
I5
sS'RP_tot'
p1258
I11
sS'TO'
p1259
I12
sS'PA'
p1260
I7
sS'M'
p1261
I8
sS'R'
p1262
I11
sS'TB'
p1263
I6
sS'PL'
p1264
I10
sS'TA'
p1265
I5
ssg206
I0
sg207
I0
sg208
I1
sg209
I0
sg57
F10.529411764705882
sg210
I0
sg211
I1
sg212
I0
sg213
(dp1266
S'A'
p1267
I9
sS'ME'
p1268
I10
sS'RP2'
p1269
I7
sS'E'
p1270
I10
sS'P'
p1271
I5
sS'RP1'
p1272
I11
sS'JP'
p1273
I5
sS'RP_tot'
p1274
I11
sS'TO'
p1275
I12
sS'PA'
p1276
I7
sS'M'
p1277
I8
sS'R'
p1278
I11
sS'TB'
p1279
I6
sS'PL'
p1280
I10
sS'TA'
p1281
I5
ssg230
g1250
sg231
I0
sg232
g31
sg233
I0
sg234
I0
sg235
I0
sg236
I15
sg237
I0
sg238
I0
sg239
S'N'
p1282
sbssg206
I8
sg207
I0
sg208
I1
sg209
I0
sg57
F10.294117647058824
sg210
I0
sg211
I0
sg212
I0
sg213
(dp1283
g242
I9
sg243
I10
sg244
I7
sg245
I10
sg246
I12
sg247
I11
sg248
I5
sg249
I11
sg250
I5
sg251
I7
sg252
I8
sg253
I11
sg254
I6
sg255
I10
sg256
I5
ssg230
g1221
sg231
I0
sg232
g31
sg233
I0
sg234
I0
sg235
I0
sg236
I15
sg237
I0
sg238
I0
sg239
g257
sbsg258
(ijoueur
joueur
p1284
(dp1285
g28
I0
sg32
I0
sg34
I0
sg35
g36
(g37
g38
Ntp1286
Rp1287
(dp1288
g42
I5
sg43
S'**'
p1289
sg45
S'seigneur'
p1290
sbsg47
(dp1291
S'SR'
p1292
I0
sS'CT'
p1293
I12
sS'CR'
p1294
I0
sS'ST'
p1295
I0
ssg53
(dp1296
g1292
I0
sg1293
I0
sg1294
I0
sg1295
I0
ssg56
I0
sg58
I0
sg76
I00
sg60
I0
sg61
I0
sg62
I0
sg63
(S'dummy'
p1297
S'DL'
p1298
S'N8'
p1299
g31
tp1300
sg68
I00
sg69
g36
(g37
g38
Ntp1301
Rp1302
(dp1303
g42
I5
sg43
S'**'
p1304
sg45
g1290
sbsg70
(dp1305
g1292
I0
sg1293
I0
sg1294
I0
sg1295
I5
ssg138
(dp1306
g1292
I0
sg1293
I12
sg1294
I0
sg1295
I0
ssg77
(dp1307
g1292
I0
sg1293
I0
sg1294
I0
sg1295
I0
ssg79
(dp1308
g1292
I0
sg1293
I0
sg1294
I0
sg1295
I5
ssg81
I0
sg82
I0
sg83
S'Amrik'
p1309
sg85
I3
sg86
I0
sg87
I15
sg88
I150
sg89
S'GP'
p1310
sg91
(dp1311
S'A'
p1312
I9
sS'ME'
p1313
I10
sS'RP2'
p1314
I7
sS'E'
p1315
I10
sS'P'
p1316
I5
sS'RP1'
p1317
I11
sS'JP'
p1318
I5
sS'RP_tot'
p1319
I11
sS'TO'
p1320
I12
sS'PA'
p1321
I7
sS'M'
p1322
I8
sS'R'
p1323
I11
sS'TB'
p1324
I6
sS'PL'
p1325
I10
sS'TA'
p1326
I5
ssg206
I0
sg207
I0
sg208
I1
sg209
I0
sg57
F10.529411764705882
sg210
I0
sg211
I1
sg212
I0
sg213
(dp1327
S'A'
p1328
I9
sS'ME'
p1329
I10
sS'RP2'
p1330
I7
sS'E'
p1331
I10
sS'P'
p1332
I5
sS'RP1'
p1333
I11
sS'JP'
p1334
I5
sS'RP_tot'
p1335
I11
sS'TO'
p1336
I12
sS'PA'
p1337
I7
sS'M'
p1338
I8
sS'R'
p1339
I11
sS'TB'
p1340
I6
sS'PL'
p1341
I10
sS'TA'
p1342
I5
ssg230
g1311
sg231
I0
sg232
g31
sg233
I0
sg234
I0
sg235
I0
sg236
I15
sg237
I0
sg238
I0
sg239
S'N'
p1343
sbssg206
I0
sg207
I0
sg208
I1
sg209
I0
sg138
(dp1344
g72
I0
sg73
I0
sg74
I0
sg75
I0
ssg210
I0
sg211
I0
sg212
I0
sg213
(dp1345
g322
I9
sg323
I10
sg324
I7
sg325
I10
sg326
I12
sg327
I11
sg328
I5
sg329
I11
sg330
I5
sg331
I7
sg332
I8
sg333
I11
sg334
I6
sg335
I10
sg336
I5
ssg230
(dp1346
g93
I9
sg94
I10
sg95
I7
sg96
I10
sg101
I12
sg98
I12
sg99
I5
sg100
I12
sg97
I5
sg102
I7
sg103
I7
sg104
I11
sg105
I6
sg106
I12
sg107
I5
ssg231
I0
sg338
(dp1347
sg233
I0
sg232
g31
sg234
I0
sg235
I0
sg236
I15
sg237
I0
sg238
I0
sg239
g340
sbsS'drop2'
p1348
g948
sS'RJL'
p1349
(ijoueur
joueur
p1350
(dp1351
g27
F10.0
sg28
I1
sg29
F10.03225806451613
sg30
g31
sg32
I0
sg33
I0
sg34
I0
sg35
g36
(g37
g38
Ntp1352
Rp1353
(dp1354
g42
I5
sg43
S'**'
p1355
sg45
g46
sbsg47
(dp1356
g49
I3
sg50
I0
sg51
I0
sg52
I25
ssg53
(dp1357
g49
I0
sg50
I0
sg51
I0
sg52
I0
ssg55
I0
sg56
I0
sg57
F10.290322580645162
sg58
I0
sg59
I0
sg60
I0
sg61
I0
sg62
I0
sg63
(g64
S'AI'
p1358
S'AR'
p1359
g31
tp1360
sg68
I00
sg69
g36
(g37
g38
Ntp1361
Rp1362
(dp1363
g42
I5
sg43
S'**'
p1364
sg45
g46
sbsg70
(dp1365
g72
I0
sg73
I0
sg74
I0
sg75
I0
ssg76
I00
sg77
(dp1366
g72
I0
sg73
I0
sg74
I0
sg75
I0
ssg79
(dp1367
g49
I2
sg50
I0
sg51
I0
sg52
I1
ssg81
I24
sg82
I0
sg83
S'Armacdir'
p1368
sg85
I9
sg86
I1
sg87
I23
sg88
I150
sg89
g90
sg91
(dp1369
g93
I10
sg94
I6
sg95
I8
sg96
I11
sg97
I11
sg98
I12
sg99
I9
sg100
I13
sg101
I5
sg102
I8
sg103
I9
sg104
I8
sg105
I9
sg106
I10
sg107
I5
ssg108
(dp1370
g110
(ijoueur
joueur
p1371
(dp1372
g27
F10.0
sg28
I1
sg30
g31
sg32
I0
sg34
I0
sg35
g36
(g37
g38
Ntp1373
Rp1374
(dp1375
g42
I5
sg43
S'**'
p1376
sg45
g117
sbsg47
(dp1377
g119
I3
sg120
I0
sg121
I0
sg122
I25
ssg53
(dp1378
g119
I0
sg120
I0
sg121
I0
sg122
I0
ssg56
I0
sg58
I0
sg76
I00
sg60
I1
sg61
I0
sg62
I0
sg63
(g124
S'AI'
p1379
S'AR'
p1380
g31
tp1381
sg68
I00
sg69
g36
(g37
g38
Ntp1382
Rp1383
(dp1384
g42
I5
sg43
S'**'
p1385
sg45
g117
sbsg70
(dp1386
g134
I0
sg135
I0
sg136
I0
sg137
I0
ssg138
(dp1387
g134
I0
sg135
I0
sg136
I0
sg137
I13
ssg77
(dp1388
g134
I0
sg135
I0
sg136
I0
sg137
I0
ssg79
(dp1389
g119
I2
sg120
I0
sg121
I0
sg122
I1
ssg81
I24
sg82
I0
sg83
S'Armacdir'
p1390
sg85
I9
sg86
I1
sg87
I23
sg88
I150
sg89
g143
sg91
(dp1391
g145
I10
sg146
I6
sg147
I8
sg148
I11
sg149
I5
sg150
I12
sg151
I9
sg152
I13
sg153
I11
sg154
I7
sg155
I8
sg156
I8
sg157
I9
sg158
I10
sg159
I5
ssg108
(dp1392
g161
(ijoueur
joueur
p1393
(dp1394
g28
I1
sg32
I0
sg34
I0
sg35
g36
(g37
g38
Ntp1395
Rp1396
(dp1397
g42
I5
sg43
S'**'
p1398
sg45
S'seigneur'
p1399
sbsg47
(dp1400
S'SR'
p1401
I3
sS'CT'
p1402
I12
sS'CR'
p1403
I0
sS'ST'
p1404
I0
ssg53
(dp1405
g1401
I0
sg1402
I0
sg1403
I0
sg1404
I0
ssg56
I0
sg58
I1
sg76
I00
sg60
I0
sg61
I7
sg62
I1
sg63
(S'dummy'
p1406
S'AI'
p1407
S'AR'
p1408
g31
tp1409
sg68
I00
sg69
g36
(g37
g38
Ntp1410
Rp1411
(dp1412
g42
I5
sg43
S'**'
p1413
sg45
g1399
sbsg70
(dp1414
g1401
I2
sg1402
I1
sg1403
I0
sg1404
I0
ssg138
(dp1415
g1401
I3
sg1402
I12
sg1403
I0
sg1404
I0
ssg77
(dp1416
g1401
I0
sg1402
I0
sg1403
I0
sg1404
I0
ssg79
(dp1417
g1401
I2
sg1402
I1
sg1403
I0
sg1404
I0
ssg81
I24
sg82
I24
sg83
S'Armacdir'
p1418
sg85
I9
sg86
I1
sg87
I23
sg88
I150
sg89
S'GP'
p1419
sg91
(dp1420
S'A'
p1421
I10
sS'ME'
p1422
I6
sS'RP2'
p1423
I8
sS'E'
p1424
I11
sS'P'
p1425
I11
sS'RP1'
p1426
I12
sS'JP'
p1427
I8
sS'RP_tot'
p1428
I13
sS'TO'
p1429
I5
sS'PA'
p1430
I7
sS'M'
p1431
I8
sS'R'
p1432
I8
sS'TB'
p1433
I8
sS'PL'
p1434
I10
sS'TA'
p1435
I5
ssg206
I0
sg207
I1
sg208
I0
sg209
I0
sg57
F10.0
sg210
I7
sg211
I0
sg212
I0
sg213
(dp1436
S'A'
p1437
I10
sS'ME'
p1438
I6
sS'RP2'
p1439
I8
sS'E'
p1440
I11
sS'P'
p1441
I11
sS'RP1'
p1442
I12
sS'JP'
p1443
I8
sS'RP_tot'
p1444
I13
sS'TO'
p1445
I5
sS'PA'
p1446
I7
sS'M'
p1447
I8
sS'R'
p1448
I8
sS'TB'
p1449
I8
sS'PL'
p1450
I10
sS'TA'
p1451
I5
ssg230
g1420
sg231
I1
sg232
g31
sg233
I5
sg234
I0
sg235
I5
sg236
I15
sg237
I0
sg238
I0
sg239
S'N'
p1452
sbssg206
I0
sg207
I1
sg208
I0
sg209
I0
sg57
F10.03225806451613
sg210
I7
sg211
I0
sg212
I0
sg213
(dp1453
g242
I10
sg243
I6
sg244
I8
sg245
I11
sg246
I5
sg247
I12
sg248
I8
sg249
I13
sg250
I11
sg251
I7
sg252
I8
sg253
I8
sg254
I8
sg255
I10
sg256
I5
ssg230
g1391
sg231
I0
sg232
g31
sg233
I5
sg234
I0
sg235
I0
sg236
I15
sg237
I1
sg238
I0
sg239
g257
sbsg258
(ijoueur
joueur
p1454
(dp1455
g28
I1
sg32
I0
sg34
I0
sg35
g36
(g37
g38
Ntp1456
Rp1457
(dp1458
g42
I5
sg43
S'**'
p1459
sg45
S'seigneur'
p1460
sbsg47
(dp1461
S'SR'
p1462
I3
sS'CT'
p1463
I12
sS'CR'
p1464
I0
sS'ST'
p1465
I0
ssg53
(dp1466
g1462
I0
sg1463
I0
sg1464
I0
sg1465
I0
ssg56
I0
sg58
I1
sg76
I00
sg60
I0
sg61
I7
sg62
I1
sg63
(S'dummy'
p1467
S'AI'
p1468
S'AR'
p1469
g31
tp1470
sg68
I00
sg69
g36
(g37
g38
Ntp1471
Rp1472
(dp1473
g42
I5
sg43
S'**'
p1474
sg45
g1460
sbsg70
(dp1475
g1462
I2
sg1463
I1
sg1464
I0
sg1465
I0
ssg138
(dp1476
g1462
I3
sg1463
I12
sg1464
I0
sg1465
I0
ssg77
(dp1477
g1462
I0
sg1463
I0
sg1464
I0
sg1465
I0
ssg79
(dp1478
g1462
I2
sg1463
I1
sg1464
I0
sg1465
I0
ssg81
I24
sg82
I24
sg83
S'Armacdir'
p1479
sg85
I9
sg86
I1
sg87
I23
sg88
I150
sg89
S'GP'
p1480
sg91
(dp1481
S'A'
p1482
I10
sS'ME'
p1483
I6
sS'RP2'
p1484
I8
sS'E'
p1485
I11
sS'P'
p1486
I11
sS'RP1'
p1487
I12
sS'JP'
p1488
I8
sS'RP_tot'
p1489
I13
sS'TO'
p1490
I5
sS'PA'
p1491
I7
sS'M'
p1492
I8
sS'R'
p1493
I8
sS'TB'
p1494
I8
sS'PL'
p1495
I10
sS'TA'
p1496
I5
ssg206
I0
sg207
I1
sg208
I0
sg209
I0
sg57
F10.0
sg210
I7
sg211
I0
sg212
I0
sg213
(dp1497
S'A'
p1498
I10
sS'ME'
p1499
I6
sS'RP2'
p1500
I8
sS'E'
p1501
I11
sS'P'
p1502
I11
sS'RP1'
p1503
I12
sS'JP'
p1504
I8
sS'RP_tot'
p1505
I13
sS'TO'
p1506
I5
sS'PA'
p1507
I7
sS'M'
p1508
I8
sS'R'
p1509
I8
sS'TB'
p1510
I8
sS'PL'
p1511
I10
sS'TA'
p1512
I5
ssg230
g1481
sg231
I1
sg232
g31
sg233
I5
sg234
I0
sg235
I5
sg236
I15
sg237
I0
sg238
I0
sg239
S'N'
p1513
sbssg206
I0
sg207
I1
sg208
I0
sg209
I0
sg138
(dp1514
g72
I0
sg73
I0
sg74
I0
sg75
I0
ssg210
I7
sg211
I0
sg212
I0
sg213
(dp1515
g322
I10
sg323
I6
sg324
I8
sg325
I11
sg326
I5
sg327
I12
sg328
I8
sg329
I13
sg330
I11
sg331
I7
sg332
I8
sg333
I8
sg334
I8
sg335
I10
sg336
I5
ssg230
(dp1516
g93
I10
sg94
I6
sg95
I8
sg96
I11
sg101
I5
sg98
I12
sg99
I9
sg100
I13
sg97
I11
sg102
I8
sg103
I9
sg104
I8
sg105
I9
sg106
I10
sg107
I5
ssg231
I0
sg338
(dp1517
sg233
I5
sg232
g31
sg234
I0
sg235
I0
sg236
I15
sg237
I1
sg238
I0
sg239
g340
sbsS'SA_remp1'
p1518
(ijoueur
joueur
p1519
(dp1520
g27
F9.222222222222221
sg28
I0
sg29
F9.74074074074074
sg30
g31
sg32
I0
sg33
I0
sg34
I0
sg35
g36
(g37
g38
Ntp1521
Rp1522
(dp1523
g42
I4
sg43
S'*'
p1524
sg45
S'heros'
p1525
sbsg47
(dp1526
S'SR'
p1527
I0
sS'CT'
p1528
I0
sS'CR'
p1529
I0
sS'ST'
p1530
I0
ssg53
(dp1531
g1527
I0
sg1528
I0
sg1529
I0
sg1530
I0
ssg55
I0
sg56
I0
sg57
F9.25925925925926
sg58
I0
sg531
I0
sg532
I0
sg60
I0
sg61
I0
sg62
I0
sg63
(S'dummy'
p1532
S'DL'
p1533
g31
g31
tp1534
sg68
I00
sg69
g36
(g37
g38
Ntp1535
Rp1536
(dp1537
g42
I4
sg43
g1524
sg45
g1525
sbsg70
(dp1538
g72
I0
sg73
I0
sg74
I0
sg75
I0
ssg76
I00
sg77
(dp1539
g72
I0
sg73
I0
sg74
I0
sg75
I0
ssg79
(dp1540
g1527
I0
sg1528
I16
sg1529
I12
sg1530
I0
ssg81
I0
sg82
I0
sg83
S'Kelter'
p1541
sg85
I3
sg86
I0
sg87
I17
sg88
I81
sg89
g90
sg91
(dp1542
S'A'
p1543
I12
sS'ME'
p1544
I11
sS'RP2'
p1545
I9
sS'E'
p1546
I10
sS'TO'
p1547
I9
sS'RP1'
p1548
I10
sS'JP'
p1549
I4
sS'RP_tot'
p1550
I11
sS'P'
p1551
I4
sS'PA'
p1552
I7
sS'M'
p1553
I7
sS'R'
p1554
I8
sS'TB'
p1555
I5
sS'PL'
p1556
I7
sS'TA'
p1557
I7
ssg108
(dp1558
g110
(ijoueur
joueur
p1559
(dp1560
g27
F9.222222222222221
sg28
I0
sg30
g31
sg32
I0
sg34
I0
sg35
g36
(g37
g38
Ntp1561
Rp1562
(dp1563
g42
I4
sg43
S'*'
p1564
sg45
S'heros'
p1565
sbsg47
(dp1566
S'SR'
p1567
I0
sS'CT'
p1568
I0
sS'CR'
p1569
I0
sS'ST'
p1570
I0
ssg53
(dp1571
g1567
I0
sg1568
I0
sg1569
I0
sg1570
I0
ssg56
I0
sg58
I0
sg531
I0
sg532
I0
sg76
I00
sg60
I0
sg61
I0
sg62
I0
sg63
(S'dummy'
p1572
S'DL'
p1573
g31
g31
tp1574
sg68
I00
sg69
g36
(g37
g38
Ntp1575
Rp1576
(dp1577
g42
I4
sg43
g1564
sg45
g1565
sbsg70
(dp1578
g134
I0
sg135
I0
sg136
I0
sg137
I11
ssg138
(dp1579
g134
I0
sg135
I0
sg136
I0
sg137
I0
ssg77
(dp1580
g134
I0
sg135
I0
sg136
I0
sg137
I0
ssg79
(dp1581
g1567
I0
sg1568
I16
sg1569
I12
sg1570
I0
ssg81
I0
sg82
I0
sg83
S'Kelter'
p1582
sg85
I3
sg86
I0
sg87
I17
sg88
I81
sg89
g143
sg91
(dp1583
S'A'
p1584
I12
sS'ME'
p1585
I11
sS'RP2'
p1586
I9
sS'E'
p1587
I10
sS'P'
p1588
I4
sS'RP1'
p1589
I10
sS'JP'
p1590
I4
sS'RP_tot'
p1591
I12
sS'TO'
p1592
I9
sS'PA'
p1593
I7
sS'M'
p1594
I8
sS'R'
p1595
I8
sS'TB'
p1596
I5
sS'PL'
p1597
I9
sS'TA'
p1598
I7
ssg108
(dp1599
g161
(ijoueur
joueur
p1600
(dp1601
g28
I0
sg32
I0
sg34
I0
sg35
g36
(g37
g38
Ntp1602
Rp1603
(dp1604
g42
I4
sg43
S'*'
p1605
sg45
S'heros'
p1606
sbsg47
(dp1607
S'SR'
p1608
I0
sS'ST'
p1609
I0
sS'CR'
p1610
I0
sS'CT'
p1611
I0
ssg53
(dp1612
g1608
I0
sg1609
I0
sg1610
I0
sg1611
I0
ssg138
(dp1613
g1608
I0
sg1609
I0
sg1610
I0
sg1611
I0
ssg56
I0
sg58
I0
sg531
I0
sg532
I0
sg60
I0
sg61
I0
sg62
I0
sg63
(S'dummy'
p1614
S'DL'
p1615
g31
g31
tp1616
sg68
I01
sg69
g36
(g37
g38
Ntp1617
Rp1618
(dp1619
g42
I4
sg43
g1605
sg45
g1606
sbsg70
(dp1620
g1608
I0
sg1609
I0
sg1610
I12
sg1611
I5
ssg76
I00
sg77
(dp1621
g1608
I0
sg1609
I0
sg1610
I0
sg1611
I0
ssg79
(dp1622
g1608
I0
sg1609
I0
sg1610
I12
sg1611
I5
ssg81
I0
sg82
I0
sg83
S'Kelter'
p1623
sg85
I3
sg86
I0
sg87
I17
sg88
I60
sg89
S'MSL'
p1624
sg91
(dp1625
S'A'
p1626
I11
sS'ME'
p1627
I10
sS'RP2'
p1628
I9
sS'E'
p1629
I9
sS'TO'
p1630
I9
sS'RP1'
p1631
I9
sS'JP'
p1632
I4
sS'RP_tot'
p1633
I11
sS'P'
p1634
I4
sS'PA'
p1635
I7
sS'M'
p1636
I8
sS'R'
p1637
I8
sS'TB'
p1638
I5
sS'PL'
p1639
I9
sS'TA'
p1640
I7
ssg206
I0
sg207
I0
sg208
I1
sg209
I0
sg57
F9.222222222222221
sg210
I0
sg660
I0
sg211
I1
sg212
I0
sg213
(dp1641
S'A'
p1642
I11
sS'ME'
p1643
I10
sS'RP2'
p1644
I9
sS'E'
p1645
I9
sS'TO'
p1646
I9
sS'RP1'
p1647
I9
sS'JP'
p1648
I4
sS'RP_tot'
p1649
I11
sS'P'
p1650
I4
sS'PA'
p1651
I7
sS'M'
p1652
I8
sS'R'
p1653
I8
sS'TB'
p1654
I5
sS'PL'
p1655
I9
sS'TA'
p1656
I7
ssg230
g1625
sg231
I0
sg232
g31
sg233
I0
sg234
I0
sg235
I0
sg236
I6
sg237
I2
sg238
I0
sg239
S'B'
p1657
sbssg206
I0
sg207
I0
sg208
I3
sg209
I0
sg57
F9.74074074074074
sg210
I0
sg660
I0
sg211
I2
sg212
I0
sg213
(dp1658
S'A'
p1659
I11
sS'ME'
p1660
I10
sS'RP2'
p1661
I9
sS'E'
p1662
I9
sS'P'
p1663
I4
sS'RP1'
p1664
I9
sS'JP'
p1665
I4
sS'RP_tot'
p1666
I11
sS'TO'
p1667
I9
sS'PA'
p1668
I7
sS'M'
p1669
I8
sS'R'
p1670
I8
sS'TB'
p1671
I5
sS'PL'
p1672
I9
sS'TA'
p1673
I7
ssg230
g1583
sg231
I0
sg232
S'MSL 12'
p1674
sg233
I0
sg234
I0
sg235
I0
sg236
I5
sg237
I2
sg238
I0
sg239
S'B'
p1675
sbsg258
(ijoueur
joueur
p1676
(dp1677
g28
I0
sg32
I0
sg34
I0
sg35
g36
(g37
g38
Ntp1678
Rp1679
(dp1680
g42
I4
sg43
S'*'
p1681
sg45
S'heros'
p1682
sbsg47
(dp1683
S'SR'
p1684
I0
sS'ST'
p1685
I0
sS'CR'
p1686
I0
sS'CT'
p1687
I0
ssg53
(dp1688
g1684
I0
sg1685
I0
sg1686
I0
sg1687
I0
ssg138
(dp1689
g1684
I0
sg1685
I0
sg1686
I0
sg1687
I0
ssg56
I0
sg58
I0
sg531
I0
sg532
I0
sg60
I0
sg61
I0
sg62
I0
sg63
(S'dummy'
p1690
S'DL'
p1691
g31
g31
tp1692
sg68
I01
sg69
g36
(g37
g38
Ntp1693
Rp1694
(dp1695
g42
I4
sg43
g1681
sg45
g1682
sbsg70
(dp1696
g1684
I0
sg1685
I0
sg1686
I12
sg1687
I5
ssg76
I00
sg77
(dp1697
g1684
I0
sg1685
I0
sg1686
I0
sg1687
I0
ssg79
(dp1698
g1684
I0
sg1685
I0
sg1686
I12
sg1687
I5
ssg81
I0
sg82
I0
sg83
S'Kelter'
p1699
sg85
I3
sg86
I0
sg87
I17
sg88
I60
sg89
S'MSL'
p1700
sg91
(dp1701
S'A'
p1702
I11
sS'ME'
p1703
I10
sS'RP2'
p1704
I9
sS'E'
p1705
I9
sS'TO'
p1706
I9
sS'RP1'
p1707
I9
sS'JP'
p1708
I4
sS'RP_tot'
p1709
I11
sS'P'
p1710
I4
sS'PA'
p1711
I7
sS'M'
p1712
I8
sS'R'
p1713
I8
sS'TB'
p1714
I5
sS'PL'
p1715
I9
sS'TA'
p1716
I7
ssg206
I0
sg207
I0
sg208
I1
sg209
I0
sg57
F9.222222222222221
sg210
I0
sg660
I0
sg211
I1
sg212
I0
sg213
(dp1717
S'A'
p1718
I11
sS'ME'
p1719
I10
sS'RP2'
p1720
I9
sS'E'
p1721
I9
sS'TO'
p1722
I9
sS'RP1'
p1723
I9
sS'JP'
p1724
I4
sS'RP_tot'
p1725
I11
sS'P'
p1726
I4
sS'PA'
p1727
I7
sS'M'
p1728
I8
sS'R'
p1729
I8
sS'TB'
p1730
I5
sS'PL'
p1731
I9
sS'TA'
p1732
I7
ssg230
g1701
sg231
I0
sg232
g31
sg233
I0
sg234
I0
sg235
I0
sg236
I6
sg237
I2
sg238
I0
sg239
S'B'
p1733
sbssg206
I0
sg207
I0
sg208
I3
sg209
I0
sg138
(dp1734
g72
I0
sg73
I0
sg74
I0
sg75
I0
ssg210
I0
sg59
I0
sg660
I0
sg211
I0
sg212
I0
sg213
(dp1735
S'A'
p1736
I11
sS'ME'
p1737
I10
sS'RP2'
p1738
I9
sS'E'
p1739
I9
sS'P'
p1740
I4
sS'RP1'
p1741
I9
sS'JP'
p1742
I4
sS'RP_tot'
p1743
I11
sS'TO'
p1744
I9
sS'PA'
p1745
I7
sS'M'
p1746
I8
sS'R'
p1747
I8
sS'TB'
p1748
I5
sS'PL'
p1749
I9
sS'TA'
p1750
I7
ssg230
(dp1751
g1543
I12
sg1544
I11
sg1545
I9
sg1546
I10
sg1551
I4
sg1548
I10
sg1549
I4
sg1550
I11
sg1547
I9
sg1552
I7
sg1553
I7
sg1554
I8
sg1555
I5
sg1556
I7
sg1557
I7
ssg231
I0
sg338
(dp1752
sg233
I0
sg232
S'MSL 12'
p1753
sg234
I0
sg235
I0
sg236
I5
sg237
I2
sg238
I0
sg239
S'B'
p1754
sbsS'drop1'
p1755
(ijoueur
joueur
p1756
(dp1757
g27
F9.266666666666667
sg28
I0
sg29
F11.2
sg30
g31
sg32
I0
sg33
I0
sg34
I0
sg35
g36
(g37
g38
Ntp1758
Rp1759
(dp1760
g42
I4
sg43
S'*'
p1761
sg45
g789
sbsg47
(dp1762
g49
I0
sg50
I0
sg51
I0
sg52
I0
ssg53
(dp1763
g49
I0
sg50
I0
sg51
I0
sg52
I0
ssg55
I0
sg56
I0
sg57
F11.3
sg58
I0
sg59
I0
sg60
I0
sg61
I0
sg62
I0
sg63
(g64
S'C1'
p1764
g31
g31
tp1765
sg68
I00
sg69
g1759
sg70
(dp1766
g72
I0
sg73
I0
sg74
I0
sg75
I0
ssg76
I00
sg77
(dp1767
g72
I0
sg73
I0
sg74
I0
sg75
I0
ssg79
(dp1768
g49
I2
sg50
I0
sg51
I1
sg52
I25
ssg81
I0
sg82
I0
sg83
S'Coess'
p1769
sg85
I9
sg86
I0
sg87
I18
sg88
I70
sg89
g90
sg91
(dp1770
g93
I12
sg94
I4
sg95
I11
sg96
I10
sg97
I10
sg98
I10
sg99
I9
sg100
I13
sg101
I7
sg102
I12
sg103
I12
sg104
I6
sg105
I9
sg106
I13
sg107
I7
ssg108
(dp1771
g110
(ijoueur
joueur
p1772
(dp1773
g27
F9.266666666666667
sg28
I0
sg30
g31
sg32
I0
sg34
I0
sg35
g36
(g37
g38
Ntp1774
Rp1775
(dp1776
g42
I4
sg43
S'*'
p1777
sg45
g809
sbsg47
(dp1778
g119
I0
sg120
I0
sg121
I0
sg122
I0
ssg53
(dp1779
g119
I0
sg120
I0
sg121
I0
sg122
I0
ssg56
I0
sg58
I0
sg76
I01
sg60
I0
sg61
I0
sg62
I0
sg63
(g124
S'C1'
p1780
g31
g31
tp1781
sg68
I00
sg69
g1775
sg70
(dp1782
g134
I2
sg135
I0
sg136
I0
sg137
I13
ssg138
(dp1783
g134
I0
sg135
I0
sg136
I0
sg137
I0
ssg77
(dp1784
g134
I0
sg135
I0
sg136
I0
sg137
I0
ssg79
(dp1785
g119
I2
sg120
I0
sg121
I1
sg122
I25
ssg81
I0
sg82
I0
sg83
S'Coess'
p1786
sg85
I9
sg86
I0
sg87
I18
sg88
I70
sg89
g143
sg91
(dp1787
g145
I12
sg146
I4
sg147
I11
sg148
I10
sg149
I7
sg150
I10
sg151
I9
sg152
I14
sg153
I10
sg154
I11
sg155
I11
sg156
I6
sg157
I8
sg158
I13
sg159
I7
ssg108
(dp1788
g161
(ijoueur
joueur
p1789
(dp1790
g28
I0
sg32
I0
sg34
I0
sg35
g36
(g37
g38
Ntp1791
Rp1792
(dp1793
g42
I4
sg43
S'*'
p1794
sg45
S'heros'
p1795
sbsg47
(dp1796
S'SR'
p1797
I0
sS'CT'
p1798
I0
sS'CR'
p1799
I0
sS'ST'
p1800
I0
ssg53
(dp1801
g1797
I0
sg1798
I0
sg1799
I0
sg1800
I0
ssg56
I0
sg58
I0
sg76
I01
sg60
I0
sg61
I0
sg62
I0
sg63
(S'dummy'
p1802
S'C1'
p1803
g31
g31
tp1804
sg68
I00
sg69
g36
(g37
g38
Ntp1805
Rp1806
(dp1807
g42
I3
sg43
S'^^^'
p1808
sg45
S'rare'
p1809
sbsg70
(dp1810
g1797
I0
sg1798
I12
sg1799
I1
sg1800
I0
ssg138
(dp1811
g1797
I0
sg1798
I0
sg1799
I0
sg1800
I0
ssg77
(dp1812
g1797
I0
sg1798
I0
sg1799
I0
sg1800
I0
ssg79
(dp1813
g1797
I0
sg1798
I12
sg1799
I1
sg1800
I0
ssg81
I0
sg82
I0
sg83
S'Coess'
p1814
sg85
I9
sg86
I0
sg87
I18
sg88
I18
sg89
S'GP'
p1815
sg91
(dp1816
S'A'
p1817
I10
sS'ME'
p1818
I4
sS'RP2'
p1819
I8
sS'E'
p1820
I9
sS'P'
p1821
I8
sS'RP1'
p1822
I8
sS'JP'
p1823
I7
sS'RP_tot'
p1824
I9
sS'TO'
p1825
I5
sS'PA'
p1826
I9
sS'M'
p1827
I11
sS'R'
p1828
I6
sS'TB'
p1829
I6
sS'PL'
p1830
I11
sS'TA'
p1831
I7
ssg206
I0
sg207
I0
sg208
I0
sg209
I0
sg57
F9.266666666666667
sg210
I0
sg211
I0
sg212
I0
sg213
(dp1832
S'A'
p1833
I10
sS'ME'
p1834
I4
sS'RP2'
p1835
I8
sS'E'
p1836
I9
sS'P'
p1837
I8
sS'RP1'
p1838
I8
sS'JP'
p1839
I7
sS'RP_tot'
p1840
I9
sS'TO'
p1841
I5
sS'PA'
p1842
I9
sS'M'
p1843
I11
sS'R'
p1844
I6
sS'TB'
p1845
I6
sS'PL'
p1846
I11
sS'TA'
p1847
I7
ssg230
g1816
sg231
I0
sg232
g31
sg233
I0
sg234
I0
sg235
I0
sg236
I2
sg237
I0
sg238
I0
sg239
S'S'
p1848
sbssg206
I0
sg207
I0
sg208
I0
sg209
I0
sg57
F11.2
sg210
I0
sg211
I0
sg212
I1
sg213
(dp1849
g242
I10
sg243
I4
sg244
I8
sg245
I9
sg246
I5
sg247
I8
sg248
I7
sg249
I9
sg250
I8
sg251
I9
sg252
I11
sg253
I6
sg254
I6
sg255
I11
sg256
I7
ssg230
g1787
sg231
I0
sg232
g31
sg233
I0
sg234
I0
sg235
I0
sg236
I7
sg237
I0
sg238
I1
sg239
S'S'
p1850
sbsg258
(ijoueur
joueur
p1851
(dp1852
g28
I0
sg32
I0
sg34
I0
sg35
g36
(g37
g38
Ntp1853
Rp1854
(dp1855
g42
I4
sg43
S'*'
p1856
sg45
S'heros'
p1857
sbsg47
(dp1858
S'SR'
p1859
I0
sS'CT'
p1860
I0
sS'CR'
p1861
I0
sS'ST'
p1862
I0
ssg53
(dp1863
g1859
I0
sg1860
I0
sg1861
I0
sg1862
I0
ssg56
I0
sg58
I0
sg76
I01
sg60
I0
sg61
I0
sg62
I0
sg63
(S'dummy'
p1864
S'C1'
p1865
g31
g31
tp1866
sg68
I00
sg69
g36
(g37
g38
Ntp1867
Rp1868
(dp1869
g42
I3
sg43
S'^^^'
p1870
sg45
S'rare'
p1871
sbsg70
(dp1872
g1859
I0
sg1860
I12
sg1861
I1
sg1862
I0
ssg138
(dp1873
g1859
I0
sg1860
I0
sg1861
I0
sg1862
I0
ssg77
(dp1874
g1859
I0
sg1860
I0
sg1861
I0
sg1862
I0
ssg79
(dp1875
g1859
I0
sg1860
I12
sg1861
I1
sg1862
I0
ssg81
I0
sg82
I0
sg83
S'Coess'
p1876
sg85
I9
sg86
I0
sg87
I18
sg88
I18
sg89
S'GP'
p1877
sg91
(dp1878
S'A'
p1879
I10
sS'ME'
p1880
I4
sS'RP2'
p1881
I8
sS'E'
p1882
I9
sS'P'
p1883
I8
sS'RP1'
p1884
I8
sS'JP'
p1885
I7
sS'RP_tot'
p1886
I9
sS'TO'
p1887
I5
sS'PA'
p1888
I9
sS'M'
p1889
I11
sS'R'
p1890
I6
sS'TB'
p1891
I6
sS'PL'
p1892
I11
sS'TA'
p1893
I7
ssg206
I0
sg207
I0
sg208
I0
sg209
I0
sg57
F9.266666666666667
sg210
I0
sg211
I0
sg212
I0
sg213
(dp1894
S'A'
p1895
I10
sS'ME'
p1896
I4
sS'RP2'
p1897
I8
sS'E'
p1898
I9
sS'P'
p1899
I8
sS'RP1'
p1900
I8
sS'JP'
p1901
I7
sS'RP_tot'
p1902
I9
sS'TO'
p1903
I5
sS'PA'
p1904
I9
sS'M'
p1905
I11
sS'R'
p1906
I6
sS'TB'
p1907
I6
sS'PL'
p1908
I11
sS'TA'
p1909
I7
ssg230
g1878
sg231
I0
sg232
g31
sg233
I0
sg234
I0
sg235
I0
sg236
I2
sg237
I0
sg238
I0
sg239
S'S'
p1910
sbssg206
I0
sg207
I0
sg208
I0
sg209
I0
sg138
(dp1911
g72
I0
sg73
I0
sg74
I0
sg75
I0
ssg210
I0
sg211
I0
sg212
I1
sg213
(dp1912
g322
I10
sg323
I4
sg324
I8
sg325
I9
sg326
I5
sg327
I8
sg328
I7
sg329
I9
sg330
I8
sg331
I9
sg332
I11
sg333
I6
sg334
I6
sg335
I11
sg336
I7
ssg230
(dp1913
g93
I12
sg94
I4
sg95
I11
sg96
I10
sg101
I7
sg98
I10
sg99
I9
sg100
I13
sg97
I10
sg102
I12
sg103
I12
sg104
I6
sg105
I9
sg106
I13
sg107
I7
ssg231
I0
sg338
(dp1914
sg233
I0
sg232
g31
sg234
I0
sg235
I0
sg236
I7
sg237
I0
sg238
I0
sg239
S'S'
p1915
sbsS'SA_remp2'
p1916
(ijoueur
joueur
p1917
(dp1918
g27
F9.323529411764707
sg28
I0
sg29
F8.852941176470589
sg30
g31
sg32
I0
sg33
I0
sg34
I0
sg35
g36
(g37
g38
Ntp1919
Rp1920
(dp1921
g42
I4
sg43
g788
sg45
g789
sbsg47
(dp1922
g49
I0
sg50
I0
sg51
I0
sg52
I0
ssg53
(dp1923
g49
I0
sg50
I0
sg51
I0
sg52
I0
ssg55
I0
sg56
I0
sg57
F9.481481481481481
sg58
I0
sg59
I0
sg60
I0
sg61
I0
sg62
I0
sg63
(g64
S'DL'
p1924
g31
g31
tp1925
sg68
I00
sg69
g36
(g37
g38
Ntp1926
Rp1927
(dp1928
g42
I4
sg43
g788
sg45
g789
sbsg70
(dp1929
g72
I0
sg73
I0
sg74
I0
sg75
I0
ssg76
I00
sg77
(dp1930
g72
I0
sg73
I0
sg74
I0
sg75
I0
ssg79
(dp1931
g49
I0
sg50
I0
sg51
I3
sg52
I11
ssg81
I0
sg82
I0
sg83
S'Wikaod'
p1932
sg85
I2
sg86
I0
sg87
I17
sg88
I100
sg89
g90
sg91
(dp1933
g93
I7
sg94
I8
sg95
I8
sg96
I10
sg97
I2
sg98
I10
sg99
I2
sg100
I11
sg101
I9
sg102
I8
sg103
I6
sg104
I12
sg105
I0
sg106
I7
sg107
I6
ssg108
(dp1934
g110
(ijoueur
joueur
p1935
(dp1936
g27
F9.323529411764707
sg28
I0
sg30
g31
sg32
I0
sg34
I0
sg35
g36
(g37
g38
Ntp1937
Rp1938
(dp1939
g42
I4
sg43
g808
sg45
g809
sbsg47
(dp1940
g119
I0
sg120
I0
sg121
I0
sg122
I0
ssg53
(dp1941
g119
I0
sg120
I0
sg121
I0
sg122
I0
ssg56
I0
sg58
I0
sg76
I00
sg60
I0
sg61
I0
sg62
I0
sg63
(g124
S'DL'
p1942
g31
g31
tp1943
sg68
I00
sg69
g36
(g37
g38
Ntp1944
Rp1945
(dp1946
g42
I4
sg43
g808
sg45
g809
sbsg70
(dp1947
g134
I0
sg135
I0
sg136
I2
sg137
I0
ssg138
(dp1948
g134
I0
sg135
I0
sg136
I0
sg137
I0
ssg77
(dp1949
g134
I0
sg135
I0
sg136
I0
sg137
I0
ssg79
(dp1950
g119
I0
sg120
I0
sg121
I3
sg122
I11
ssg81
I0
sg82
I0
sg83
S'Wikaod'
p1951
sg85
I2
sg86
I0
sg87
I17
sg88
I100
sg89
g143
sg91
(dp1952
g145
I7
sg146
I8
sg147
I7
sg148
I10
sg149
I9
sg150
I10
sg151
I2
sg152
I10
sg153
I2
sg154
I8
sg155
I6
sg156
I10
sg157
I0
sg158
I7
sg159
I6
ssg108
(dp1953
g161
(ijoueur
joueur
p1954
(dp1955
g28
I0
sg32
I0
sg34
I0
sg35
g36
(g37
g38
Ntp1956
Rp1957
(dp1958
g42
I4
sg43
S'x'
p1959
sg45
S'heros'
p1960
sbsg47
(dp1961
S'SR'
p1962
I0
sS'CT'
p1963
I0
sS'CR'
p1964
I0
sS'ST'
p1965
I0
ssg53
(dp1966
g1962
I0
sg1963
I0
sg1964
I0
sg1965
I0
ssg56
I0
sg58
I0
sg76
I00
sg60
I0
sg61
I0
sg62
I0
sg63
(S'dummy'
p1967
S'DL'
p1968
g31
g31
tp1969
sg68
I00
sg69
g36
(g37
g38
Ntp1970
Rp1971
(dp1972
g42
I4
sg43
g1959
sg45
g1960
sbsg70
(dp1973
g1962
I0
sg1963
I11
sg1964
I1
sg1965
I0
ssg138
(dp1974
g1962
I0
sg1963
I0
sg1964
I0
sg1965
I0
ssg77
(dp1975
g1962
I0
sg1963
I0
sg1964
I0
sg1965
I0
ssg79
(dp1976
g1962
I0
sg1963
I11
sg1964
I1
sg1965
I0
ssg81
I0
sg82
I0
sg83
S'Wikaod'
p1977
sg85
I2
sg86
I0
sg87
I17
sg88
I100
sg89
S'GP'
p1978
sg91
(dp1979
S'A'
p1980
I7
sS'ME'
p1981
I9
sS'RP2'
p1982
I7
sS'E'
p1983
I10
sS'P'
p1984
I2
sS'RP1'
p1985
I10
sS'JP'
p1986
I2
sS'RP_tot'
p1987
I10
sS'TO'
p1988
I10
sS'PA'
p1989
I8
sS'M'
p1990
I7
sS'R'
p1991
I10
sS'TB'
p1992
I0
sS'PL'
p1993
I8
sS'TA'
p1994
I6
ssg206
I0
sg207
I0
sg208
I0
sg209
I0
sg57
F9.323529411764707
sg210
I0
sg211
I0
sg212
I0
sg213
(dp1995
S'A'
p1996
I7
sS'ME'
p1997
I9
sS'RP2'
p1998
I7
sS'E'
p1999
I10
sS'P'
p2000
I2
sS'RP1'
p2001
I10
sS'JP'
p2002
I2
sS'RP_tot'
p2003
I10
sS'TO'
p2004
I10
sS'PA'
p2005
I8
sS'M'
p2006
I7
sS'R'
p2007
I10
sS'TB'
p2008
I0
sS'PL'
p2009
I8
sS'TA'
p2010
I6
ssg230
g1979
sg231
I0
sg232
g31
sg233
I0
sg234
I0
sg235
I0
sg236
I10
sg237
I0
sg238
I0
sg239
S'HL'
p2011
sbssg206
I0
sg207
I0
sg208
I0
sg209
I0
sg57
F8.852941176470589
sg210
I0
sg211
I0
sg212
I0
sg213
(dp2012
g242
I7
sg243
I9
sg244
I7
sg245
I10
sg246
I10
sg247
I10
sg248
I2
sg249
I10
sg250
I2
sg251
I8
sg252
I7
sg253
I10
sg254
I0
sg255
I8
sg256
I6
ssg230
g1952
sg231
I0
sg232
g31
sg233
I0
sg234
I0
sg235
I0
sg236
I10
sg237
I0
sg238
I0
sg239
S'HL'
p2013
sbsg258
(ijoueur
joueur
p2014
(dp2015
g28
I0
sg32
I0
sg34
I0
sg35
g36
(g37
g38
Ntp2016
Rp2017
(dp2018
g42
I4
sg43
S'x'
p2019
sg45
S'heros'
p2020
sbsg47
(dp2021
S'SR'
p2022
I0
sS'CT'
p2023
I0
sS'CR'
p2024
I0
sS'ST'
p2025
I0
ssg53
(dp2026
g2022
I0
sg2023
I0
sg2024
I0
sg2025
I0
ssg56
I0
sg58
I0
sg76
I00
sg60
I0
sg61
I0
sg62
I0
sg63
(S'dummy'
p2027
S'DL'
p2028
g31
g31
tp2029
sg68
I00
sg69
g36
(g37
g38
Ntp2030
Rp2031
(dp2032
g42
I4
sg43
g2019
sg45
g2020
sbsg70
(dp2033
g2022
I0
sg2023
I11
sg2024
I1
sg2025
I0
ssg138
(dp2034
g2022
I0
sg2023
I0
sg2024
I0
sg2025
I0
ssg77
(dp2035
g2022
I0
sg2023
I0
sg2024
I0
sg2025
I0
ssg79
(dp2036
g2022
I0
sg2023
I11
sg2024
I1
sg2025
I0
ssg81
I0
sg82
I0
sg83
S'Wikaod'
p2037
sg85
I2
sg86
I0
sg87
I17
sg88
I100
sg89
S'GP'
p2038
sg91
(dp2039
S'A'
p2040
I7
sS'ME'
p2041
I9
sS'RP2'
p2042
I7
sS'E'
p2043
I10
sS'P'
p2044
I2
sS'RP1'
p2045
I10
sS'JP'
p2046
I2
sS'RP_tot'
p2047
I10
sS'TO'
p2048
I10
sS'PA'
p2049
I8
sS'M'
p2050
I7
sS'R'
p2051
I10
sS'TB'
p2052
I0
sS'PL'
p2053
I8
sS'TA'
p2054
I6
ssg206
I0
sg207
I0
sg208
I0
sg209
I0
sg57
F9.323529411764707
sg210
I0
sg211
I0
sg212
I0
sg213
(dp2055
S'A'
p2056
I7
sS'ME'
p2057
I9
sS'RP2'
p2058
I7
sS'E'
p2059
I10
sS'P'
p2060
I2
sS'RP1'
p2061
I10
sS'JP'
p2062
I2
sS'RP_tot'
p2063
I10
sS'TO'
p2064
I10
sS'PA'
p2065
I8
sS'M'
p2066
I7
sS'R'
p2067
I10
sS'TB'
p2068
I0
sS'PL'
p2069
I8
sS'TA'
p2070
I6
ssg230
g2039
sg231
I0
sg232
g31
sg233
I0
sg234
I0
sg235
I0
sg236
I10
sg237
I0
sg238
I0
sg239
S'HL'
p2071
sbssg206
I0
sg207
I0
sg208
I0
sg209
I0
sg138
(dp2072
g72
I0
sg73
I0
sg74
I0
sg75
I0
ssg210
I0
sg211
I0
sg212
I0
sg213
(dp2073
g322
I7
sg323
I9
sg324
I7
sg325
I10
sg326
I10
sg327
I10
sg328
I2
sg329
I10
sg330
I2
sg331
I8
sg332
I7
sg333
I10
sg334
I0
sg335
I8
sg336
I6
ssg230
(dp2074
g93
I7
sg94
I8
sg95
I8
sg96
I10
sg101
I9
sg98
I10
sg99
I2
sg100
I11
sg97
I2
sg102
I8
sg103
I6
sg104
I12
sg105
I0
sg106
I7
sg107
I6
ssg231
I0
sg338
(dp2075
sg233
I0
sg232
g31
sg234
I0
sg235
I0
sg236
I10
sg237
I0
sg238
I0
sg239
S'HL'
p2076
sbssS'totaux'
p2077
(dp2078
g19
I0
sg20
I0
sg21
I0
ssS'_compo_defaut_fatigue'
p2079
Nsg91
(dp2080
g4
I0
sg5
I0
sg6
I0
sg7
I0
sg8
I0
sg9
I0
sg10
I0
sg11
I0
sg12
I0
sg13
I0
sg14
I0
sg15
I0
sg16
I0
ssS'joueurs'
p2081
(dp2082
S'n12'
p2083
g1756
sS'n13'
p2084
(ijoueur
joueur
p2085
(dp2086
g27
F10.724137931034482
sg28
I0
sg29
F10.620689655172415
sg30
g31
sg32
I0
sg33
I0
sg34
I0
sg35
g36
(g37
g38
Ntp2087
Rp2088
(dp2089
g42
I5
sg43
S'xx'
p2090
sg45
g46
sbsg47
(dp2091
g49
I0
sg50
I0
sg51
I0
sg52
I12
ssg53
(dp2092
g49
I0
sg50
I0
sg51
I0
sg52
I0
ssg55
I0
sg56
I0
sg57
F10.793103448275861
sg58
I0
sg59
I0
sg60
I0
sg61
I0
sg62
I0
sg63
(g64
S'C2'
p2093
S'AI'
p2094
S'AR'
p2095
tp2096
sg68
I00
sg69
g36
(g37
g38
Ntp2097
Rp2098
(dp2099
g42
I5
sg43
S'xx'
p2100
sg45
g46
sbsg70
(dp2101
g72
I0
sg73
I0
sg74
I0
sg75
I0
ssg76
I00
sg77
(dp2102
g72
I0
sg73
I0
sg74
I0
sg75
I0
ssg79
(dp2103
g49
I0
sg50
I11
sg51
I1
sg52
I13
ssg81
I0
sg82
I0
sg83
S"N'Waoy"
p2104
sg85
I10
sg86
I0
sg87
I23
sg88
I350
sg89
g90
sg91
(dp2105
g93
I8
sg94
I5
sg95
I10
sg96
I12
sg97
I9
sg98
I14
sg99
I7
sg100
I15
sg101
I6
sg102
I9
sg103
I9
sg104
I12
sg105
I9
sg106
I11
sg107
I6
ssg108
(dp2106
g110
(ijoueur
joueur
p2107
(dp2108
g27
F10.724137931034482
sg28
I0
sg30
g31
sg32
I0
sg34
I0
sg35
g36
(g37
g38
Ntp2109
Rp2110
(dp2111
g42
I5
sg43
S'xx'
p2112
sg45
g117
sbsg47
(dp2113
g119
I0
sg120
I0
sg121
I0
sg122
I12
ssg53
(dp2114
g119
I0
sg120
I0
sg121
I0
sg122
I0
ssg56
I0
sg58
I0
sg76
I00
sg60
I6
sg61
I0
sg62
I0
sg63
(g124
S'C2'
p2115
S'AI'
p2116
S'AR'
p2117
tp2118
sg68
I00
sg69
g36
(g37
g38
Ntp2119
Rp2120
(dp2121
g42
I5
sg43
S'xx'
p2122
sg45
g117
sbsg70
(dp2123
g134
I0
sg135
I5
sg136
I1
sg137
I0
ssg138
(dp2124
g134
I0
sg135
I0
sg136
I0
sg137
I12
ssg77
(dp2125
g134
I0
sg135
I0
sg136
I0
sg137
I0
ssg79
(dp2126
g119
I0
sg120
I11
sg121
I1
sg122
I13
ssg81
I0
sg82
I0
sg83
S"N'Waoy"
p2127
sg85
I10
sg86
I0
sg87
I23
sg88
I350
sg89
g143
sg91
(dp2128
g145
I8
sg146
I5
sg147
I10
sg148
I12
sg149
I6
sg150
I14
sg151
I7
sg152
I17
sg153
I9
sg154
I9
sg155
I9
sg156
I12
sg157
I8
sg158
I8
sg159
I6
ssg108
(dp2129
g161
(ijoueur
joueur
p2130
(dp2131
g28
I0
sg32
I0
sg34
I0
sg35
g36
(g37
g38
Ntp2132
Rp2133
(dp2134
g42
I5
sg43
S'xx'
p2135
sg45
S'seigneur'
p2136
sbsg47
(dp2137
S'SR'
p2138
I0
sS'CT'
p2139
I0
sS'CR'
p2140
I0
sS'ST'
p2141
I0
ssg53
(dp2142
g2138
I0
sg2139
I0
sg2140
I0
sg2141
I0
ssg56
I0
sg58
I0
sg76
I00
sg60
I1
sg61
I0
sg62
I0
sg63
(S'dummy'
p2143
S'C2'
p2144
S'AI'
p2145
S'AR'
p2146
tp2147
sg68
I00
sg69
g36
(g37
g38
Ntp2148
Rp2149
(dp2150
g42
I5
sg43
S'xx'
p2151
sg45
g2136
sbsg70
(dp2152
g2138
I0
sg2139
I13
sg2140
I0
sg2141
I6
ssg138
(dp2153
g2138
I0
sg2139
I0
sg2140
I0
sg2141
I0
ssg77
(dp2154
g2138
I0
sg2139
I0
sg2140
I0
sg2141
I0
ssg79
(dp2155
g2138
I0
sg2139
I13
sg2140
I0
sg2141
I6
ssg81
I0
sg82
I0
sg83
S"N'Waoy"
p2156
sg85
I10
sg86
I0
sg87
I23
sg88
I350
sg89
S'GP'
p2157
sg91
(dp2158
S'A'
p2159
I8
sS'ME'
p2160
I5
sS'RP2'
p2161
I10
sS'E'
p2162
I12
sS'P'
p2163
I9
sS'RP1'
p2164
I14
sS'JP'
p2165
I7
sS'RP_tot'
p2166
I17
sS'TO'
p2167
I6
sS'PA'
p2168
I9
sS'M'
p2169
I9
sS'R'
p2170
I11
sS'TB'
p2171
I7
sS'PL'
p2172
I9
sS'TA'
p2173
I6
ssg206
I0
sg207
I0
sg208
I0
sg209
I0
sg57
F10.724137931034482
sg210
I0
sg211
I0
sg212
I0
sg213
(dp2174
S'A'
p2175
I8
sS'ME'
p2176
I5
sS'RP2'
p2177
I10
sS'E'
p2178
I12
sS'P'
p2179
I9
sS'RP1'
p2180
I14
sS'JP'
p2181
I7
sS'RP_tot'
p2182
I17
sS'TO'
p2183
I6
sS'PA'
p2184
I9
sS'M'
p2185
I9
sS'R'
p2186
I11
sS'TB'
p2187
I7
sS'PL'
p2188
I9
sS'TA'
p2189
I6
ssg230
g2158
sg231
I0
sg232
g31
sg233
I0
sg234
I0
sg235
I0
sg236
I35
sg237
I1
sg238
I0
sg239
S'HL'
p2190
sbssg206
I4
sg207
I0
sg208
I0
sg209
I0
sg57
F10.620689655172415
sg210
I0
sg211
I0
sg212
I0
sg213
(dp2191
g242
I8
sg243
I5
sg244
I10
sg245
I12
sg246
I6
sg247
I14
sg248
I7
sg249
I17
sg250
I9
sg251
I9
sg252
I9
sg253
I11
sg254
I7
sg255
I9
sg256
I6
ssg230
g2128
sg231
I0
sg232
g31
sg233
I0
sg234
I0
sg235
I0
sg236
I35
sg237
I7
sg238
I0
sg239
S'HL'
p2192
sbsg258
(ijoueur
joueur
p2193
(dp2194
g28
I0
sg32
I0
sg34
I0
sg35
g36
(g37
g38
Ntp2195
Rp2196
(dp2197
g42
I5
sg43
S'xx'
p2198
sg45
S'seigneur'
p2199
sbsg47
(dp2200
S'SR'
p2201
I0
sS'CT'
p2202
I0
sS'CR'
p2203
I0
sS'ST'
p2204
I0
ssg53
(dp2205
g2201
I0
sg2202
I0
sg2203
I0
sg2204
I0
ssg56
I0
sg58
I0
sg76
I00
sg60
I1
sg61
I0
sg62
I0
sg63
(S'dummy'
p2206
S'C2'
p2207
S'AI'
p2208
S'AR'
p2209
tp2210
sg68
I00
sg69
g36
(g37
g38
Ntp2211
Rp2212
(dp2213
g42
I5
sg43
S'xx'
p2214
sg45
g2199
sbsg70
(dp2215
g2201
I0
sg2202
I13
sg2203
I0
sg2204
I6
ssg138
(dp2216
g2201
I0
sg2202
I0
sg2203
I0
sg2204
I0
ssg77
(dp2217
g2201
I0
sg2202
I0
sg2203
I0
sg2204
I0
ssg79
(dp2218
g2201
I0
sg2202
I13
sg2203
I0
sg2204
I6
ssg81
I0
sg82
I0
sg83
S"N'Waoy"
p2219
sg85
I10
sg86
I0
sg87
I23
sg88
I350
sg89
S'GP'
p2220
sg91
(dp2221
S'A'
p2222
I8
sS'ME'
p2223
I5
sS'RP2'
p2224
I10
sS'E'
p2225
I12
sS'P'
p2226
I9
sS'RP1'
p2227
I14
sS'JP'
p2228
I7
sS'RP_tot'
p2229
I17
sS'TO'
p2230
I6
sS'PA'
p2231
I9
sS'M'
p2232
I9
sS'R'
p2233
I11
sS'TB'
p2234
I7
sS'PL'
p2235
I9
sS'TA'
p2236
I6
ssg206
I0
sg207
I0
sg208
I0
sg209
I0
sg57
F10.724137931034482
sg210
I0
sg211
I0
sg212
I0
sg213
(dp2237
S'A'
p2238
I8
sS'ME'
p2239
I5
sS'RP2'
p2240
I10
sS'E'
p2241
I12
sS'P'
p2242
I9
sS'RP1'
p2243
I14
sS'JP'
p2244
I7
sS'RP_tot'
p2245
I17
sS'TO'
p2246
I6
sS'PA'
p2247
I9
sS'M'
p2248
I9
sS'R'
p2249
I11
sS'TB'
p2250
I7
sS'PL'
p2251
I9
sS'TA'
p2252
I6
ssg230
g2221
sg231
I0
sg232
g31
sg233
I0
sg234
I0
sg235
I0
sg236
I35
sg237
I1
sg238
I0
sg239
S'HL'
p2253
sbssg206
I0
sg207
I0
sg208
I0
sg209
I0
sg138
(dp2254
g72
I0
sg73
I0
sg74
I0
sg75
I0
ssg210
I0
sg211
I0
sg212
I0
sg213
(dp2255
g322
I8
sg323
I5
sg324
I10
sg325
I12
sg326
I6
sg327
I14
sg328
I7
sg329
I17
sg330
I9
sg331
I9
sg332
I9
sg333
I11
sg334
I7
sg335
I9
sg336
I6
ssg230
(dp2256
g93
I8
sg94
I5
sg95
I10
sg96
I12
sg101
I6
sg98
I14
sg99
I7
sg100
I15
sg97
I9
sg102
I9
sg103
I9
sg104
I12
sg105
I9
sg106
I11
sg107
I6
ssg231
I0
sg338
(dp2257
sg233
I0
sg232
g31
sg234
I0
sg235
I0
sg236
I35
sg237
I7
sg238
I0
sg239
S'HL'
p2258
sbsS'n10'
p2259
g948
sS'n11'
p2260
(ijoueur
joueur
p2261
(dp2262
g27
F9.838709677419354
sg28
I0
sg29
F9.870967741935484
sg30
g31
sg32
I0
sg33
I0
sg34
I0
sg35
g36
(g37
g38
Ntp2263
Rp2264
(dp2265
g42
I2
sg43
S'^^'
p2266
sg45
S'special'
p2267
sbsg47
(dp2268
S'SR'
p2269
I0
sS'CT'
p2270
I3
sS'CR'
p2271
I5
sS'ST'
p2272
I0
ssg53
(dp2273
g2269
I0
sg2270
I0
sg2271
I0
sg2272
I0
ssg55
I0
sg56
I0
sg58
I0
sg531
I0
sg532
I0
sg76
I00
sg60
I0
sg61
I0
sg62
I0
sg63
(S'dummy'
p2274
S'AI'
p2275
S'CE'
p2276
g31
tp2277
sg68
I00
sg69
g36
(g37
g38
Ntp2278
Rp2279
(dp2280
g42
I4
sg43
S'x'
p2281
sg45
S'heros'
p2282
sbsg70
(dp2283
g72
I0
sg73
I0
sg74
I0
sg75
I0
ssg138
(dp2284
g72
I0
sg73
I0
sg74
I0
sg75
I0
ssg77
(dp2285
g72
I0
sg73
I0
sg74
I0
sg75
I0
ssg79
(dp2286
g2269
I4
sg2270
I12
sg2271
I10
sg2272
I5
ssg81
I0
sg82
I0
sg83
S'Laroed'
p2287
sg85
I8
sg86
I0
sg87
I15
sg88
I179
sg89
g90
sg91
(dp2288
S'A'
p2289
I13
sS'ME'
p2290
I5
sS'RP2'
p2291
I11
sS'E'
p2292
I8
sS'TO'
p2293
I9
sS'RP1'
p2294
I9
sS'JP'
p2295
I6
sS'RP_tot'
p2296
I12
sS'P'
p2297
I10
sS'PA'
p2298
I13
sS'M'
p2299
I11
sS'R'
p2300
I10
sS'TB'
p2301
I6
sS'PL'
p2302
I11
sS'TA'
p2303
I5
ssg108
(dp2304
S's12'
p2305
(ijoueur
joueur
p2306
(dp2307
g27
F9.838709677419354
sg28
I0
sg30
g31
sg32
I0
sg34
I0
sg35
g36
(g37
g38
Ntp2308
Rp2309
(dp2310
g42
I2
sg43
S'^^'
p2311
sg45
S'special'
p2312
sbsg47
(dp2313
S'SR'
p2314
I0
sS'CT'
p2315
I3
sS'CR'
p2316
I5
sS'ST'
p2317
I0
ssg53
(dp2318
g2314
I0
sg2315
I0
sg2316
I0
sg2317
I0
ssg138
(dp2319
S'SR'
p2320
I0
sS'ST'
p2321
I0
sS'CR'
p2322
I0
sS'CT'
p2323
I2
ssg56
I0
sg58
I0
sg531
I0
sg532
I0
sg60
I4
sg61
I0
sg62
I0
sg63
(S'dummy'
p2324
S'AI'
p2325
S'CE'
p2326
g31
tp2327
sg68
I01
sg69
g36
(g37
g38
Ntp2328
Rp2329
(dp2330
g42
I2
sg43
S'^^'
p2331
sg45
g2312
sbsg70
(dp2332
g2320
I0
sg2321
I4
sg2322
I9
sg2323
I5
ssg76
I00
sg77
(dp2333
g2320
I0
sg2321
I0
sg2322
I0
sg2323
I0
ssg79
(dp2334
g2314
I4
sg2315
I12
sg2316
I10
sg2317
I5
ssg81
I0
sg82
I0
sg83
S'Laroed'
p2335
sg85
I8
sg86
I0
sg87
I15
sg88
I100
sg89
S'MSL'
p2336
sg91
(dp2337
S'A'
p2338
I11
sS'ME'
p2339
I5
sS'RP2'
p2340
I10
sS'E'
p2341
I8
sS'P'
p2342
I9
sS'RP1'
p2343
I6
sS'JP'
p2344
I5
sS'RP_tot'
p2345
I10
sS'TO'
p2346
I7
sS'PA'
p2347
I11
sS'M'
p2348
I11
sS'R'
p2349
I10
sS'TB'
p2350
I5
sS'PL'
p2351
I9
sS'TA'
p2352
I5
ssg108
(dp2353
S's11'
p2354
(ijoueur
joueur
p2355
(dp2356
g28
I0
sg32
I0
sg34
I0
sg35
g36
(g37
g38
Ntp2357
Rp2358
(dp2359
g42
I2
sg43
S'^^'
p2360
sg45
S'special'
p2361
sbsg47
(dp2362
S'SR'
p2363
I0
sS'CT'
p2364
I1
sS'CR'
p2365
I5
sS'ST'
p2366
I0
ssg53
(dp2367
g2363
I0
sg2364
I0
sg2365
I0
sg2366
I0
ssg56
I0
sg57
F9.838709677419354
sg58
I0
sg531
I0
sg532
I0
sg60
I0
sg61
I0
sg62
I0
sg63
(S'dummy'
p2368
S'AI'
p2369
S'CE'
p2370
g31
tp2371
sg68
I00
sg69
g36
(g37
g38
Ntp2372
Rp2373
(dp2374
g42
I2
sg43
S'^^'
p2375
sg45
g2361
sbsg70
(dp2376
g2363
I4
sg2364
I7
sg2365
I1
sg2366
I1
ssg76
I00
sg77
(dp2377
g2363
I0
sg2364
I0
sg2365
I0
sg2366
I0
ssg79
(dp2378
g2363
I4
sg2364
I7
sg2365
I1
sg2366
I1
ssg81
I0
sg82
I0
sg83
S'Laroed'
p2379
sg85
I8
sg86
I0
sg87
I15
sg88
I100
sg89
S'MSL'
p2380
sg91
(dp2381
S'A'
p2382
I10
sS'ME'
p2383
I5
sS'RP2'
p2384
I10
sS'E'
p2385
I8
sS'P'
p2386
I10
sS'RP1'
p2387
I6
sS'JP'
p2388
I5
sS'RP_tot'
p2389
I10
sS'TO'
p2390
I7
sS'PA'
p2391
I11
sS'M'
p2392
I11
sS'R'
p2393
I10
sS'TB'
p2394
I5
sS'PL'
p2395
I10
sS'TA'
p2396
I5
ssg206
I0
sg207
I0
sg208
I0
sg209
I0
sg138
(dp2397
g2363
I0
sg2364
I1
sg2365
I5
sg2366
I0
ssg210
I0
sg660
I0
sg211
I0
sg212
I0
sg213
(dp2398
S'A'
p2399
I10
sS'ME'
p2400
I5
sS'RP2'
p2401
I10
sS'E'
p2402
I8
sS'P'
p2403
I10
sS'RP1'
p2404
I6
sS'JP'
p2405
I5
sS'RP_tot'
p2406
I10
sS'TO'
p2407
I7
sS'PA'
p2408
I11
sS'M'
p2409
I11
sS'R'
p2410
I10
sS'TB'
p2411
I5
sS'PL'
p2412
I10
sS'TA'
p2413
I5
ssg230
g2381
sg231
I0
sg232
S'PRG 10'
p2414
sg233
I0
sg234
I0
sg235
I0
sg236
I10
sg237
I0
sg238
I0
sg239
S'CHS'
p2415
sbssg206
I0
sg207
I0
sg208
I0
sg209
I0
sg57
F9.870967741935484
sg210
I0
sg660
I0
sg211
I0
sg212
I0
sg213
(dp2416
S'A'
p2417
I10
sS'ME'
p2418
I5
sS'RP2'
p2419
I10
sS'E'
p2420
I8
sS'TO'
p2421
I7
sS'RP1'
p2422
I6
sS'JP'
p2423
I5
sS'RP_tot'
p2424
I10
sS'P'
p2425
I10
sS'PA'
p2426
I11
sS'M'
p2427
I11
sS'R'
p2428
I10
sS'TB'
p2429
I5
sS'PL'
p2430
I10
sS'TA'
p2431
I5
ssg230
g2337
sg231
I0
sg232
S'PRG 10'
p2432
sg233
I0
sg234
I0
sg235
I0
sg236
I10
sg237
I4
sg238
I0
sg239
S'CHS'
p2433
sbsS's11'
p2434
(ijoueur
joueur
p2435
(dp2436
g28
I0
sg32
I0
sg34
I0
sg35
g36
(g37
g38
Ntp2437
Rp2438
(dp2439
g42
I2
sg43
S'^^'
p2440
sg45
S'special'
p2441
sbsg47
(dp2442
S'SR'
p2443
I0
sS'CT'
p2444
I1
sS'CR'
p2445
I5
sS'ST'
p2446
I0
ssg53
(dp2447
g2443
I0
sg2444
I0
sg2445
I0
sg2446
I0
ssg56
I0
sg57
F9.838709677419354
sg58
I0
sg531
I0
sg532
I0
sg60
I0
sg61
I0
sg62
I0
sg63
(S'dummy'
p2448
S'AI'
p2449
S'CE'
p2450
g31
tp2451
sg68
I00
sg69
g36
(g37
g38
Ntp2452
Rp2453
(dp2454
g42
I2
sg43
S'^^'
p2455
sg45
g2441
sbsg70
(dp2456
g2443
I4
sg2444
I7
sg2445
I1
sg2446
I1
ssg76
I00
sg77
(dp2457
g2443
I0
sg2444
I0
sg2445
I0
sg2446
I0
ssg79
(dp2458
g2443
I4
sg2444
I7
sg2445
I1
sg2446
I1
ssg81
I0
sg82
I0
sg83
S'Laroed'
p2459
sg85
I8
sg86
I0
sg87
I15
sg88
I100
sg89
S'MSL'
p2460
sg91
(dp2461
S'A'
p2462
I10
sS'ME'
p2463
I5
sS'RP2'
p2464
I10
sS'E'
p2465
I8
sS'P'
p2466
I10
sS'RP1'
p2467
I6
sS'JP'
p2468
I5
sS'RP_tot'
p2469
I10
sS'TO'
p2470
I7
sS'PA'
p2471
I11
sS'M'
p2472
I11
sS'R'
p2473
I10
sS'TB'
p2474
I5
sS'PL'
p2475
I10
sS'TA'
p2476
I5
ssg206
I0
sg207
I0
sg208
I0
sg209
I0
sg138
(dp2477
g2443
I0
sg2444
I1
sg2445
I5
sg2446
I0
ssg210
I0
sg660
I0
sg211
I0
sg212
I0
sg213
(dp2478
S'A'
p2479
I10
sS'ME'
p2480
I5
sS'RP2'
p2481
I10
sS'E'
p2482
I8
sS'P'
p2483
I10
sS'RP1'
p2484
I6
sS'JP'
p2485
I5
sS'RP_tot'
p2486
I10
sS'TO'
p2487
I7
sS'PA'
p2488
I11
sS'M'
p2489
I11
sS'R'
p2490
I10
sS'TB'
p2491
I5
sS'PL'
p2492
I10
sS'TA'
p2493
I5
ssg230
g2461
sg231
I0
sg232
S'PRG 10'
p2494
sg233
I0
sg234
I0
sg235
I0
sg236
I10
sg237
I0
sg238
I0
sg239
S'CHS'
p2495
sbssg206
I0
sg207
I0
sg208
I0
sg209
I0
sg57
F11.161290322580646
sg210
I0
sg59
I0
sg660
I0
sg211
I0
sg212
I0
sg213
(dp2496
S'A'
p2497
I10
sS'ME'
p2498
I5
sS'RP2'
p2499
I10
sS'E'
p2500
I8
sS'TO'
p2501
I7
sS'RP1'
p2502
I6
sS'JP'
p2503
I5
sS'RP_tot'
p2504
I10
sS'P'
p2505
I10
sS'PA'
p2506
I11
sS'M'
p2507
I11
sS'R'
p2508
I10
sS'TB'
p2509
I5
sS'PL'
p2510
I10
sS'TA'
p2511
I5
ssg230
(dp2512
g2289
I13
sg2290
I5
sg2291
I11
sg2292
I8
sg2297
I10
sg2294
I9
sg2295
I6
sg2296
I12
sg2293
I9
sg2298
I13
sg2299
I11
sg2300
I10
sg2301
I6
sg2302
I11
sg2303
I5
ssg231
I0
sg338
(dp2513
sg233
I0
sg232
S'PRG 10;MSL 13'
p2514
sg234
I0
sg235
I0
sg236
I15
sg237
I4
sg238
I0
sg239
S'CHS'
p2515
sbsS'n16'
p2516
(ijoueur
joueur
p2517
(dp2518
g27
F9.96551724137931
sg28
I0
sg29
F9.482758620689655
sg30
g31
sg32
I0
sg33
I0
sg34
I0
sg35
g36
(g37
g38
Ntp2519
Rp2520
(dp2521
g42
I5
sg43
S'**'
p2522
sg45
g46
sbsg47
(dp2523
g49
I0
sg50
I0
sg51
I0
sg52
I0
ssg53
(dp2524
g49
I0
sg50
I0
sg51
I0
sg52
I0
ssg55
I0
sg56
I0
sg57
F9.10344827586207
sg58
I0
sg59
I0
sg60
I0
sg61
I0
sg62
I0
sg63
(g64
S'TA'
p2525
g31
g31
tp2526
sg68
I00
sg69
g36
(g37
g38
Ntp2527
Rp2528
(dp2529
g42
I5
sg43
S'**'
p2530
sg45
g46
sbsg70
(dp2531
g72
I0
sg73
I0
sg74
I0
sg75
I0
ssg76
I00
sg77
(dp2532
g72
I0
sg73
I0
sg74
I0
sg75
I0
ssg79
(dp2533
g49
I3
sg50
I7
sg51
I0
sg52
I23
ssg81
I0
sg82
I0
sg83
S'Gruggnik'
p2534
sg85
I4
sg86
I0
sg87
I16
sg88
I150
sg89
g90
sg91
(dp2535
g93
I9
sg94
I9
sg95
I7
sg96
I11
sg97
I8
sg98
I10
sg99
I5
sg100
I10
sg101
I6
sg102
I7
sg103
I6
sg104
I9
sg105
I3
sg106
I9
sg107
I8
ssg108
(dp2536
g110
(ijoueur
joueur
p2537
(dp2538
g27
F9.96551724137931
sg28
I0
sg30
g31
sg32
I0
sg34
I0
sg35
g36
(g37
g38
Ntp2539
Rp2540
(dp2541
g42
I5
sg43
S'**'
p2542
sg45
g117
sbsg47
(dp2543
g119
I0
sg120
I0
sg121
I0
sg122
I0
ssg53
(dp2544
g119
I0
sg120
I0
sg121
I0
sg122
I0
ssg56
I0
sg58
I0
sg76
I00
sg60
I4
sg61
I0
sg62
I0
sg63
(g124
S'TA'
p2545
g31
g31
tp2546
sg68
I00
sg69
g36
(g37
g38
Ntp2547
Rp2548
(dp2549
g42
I5
sg43
S'**'
p2550
sg45
g117
sbsg70
(dp2551
g134
I3
sg135
I2
sg136
I0
sg137
I13
ssg138
(dp2552
g134
I0
sg135
I0
sg136
I0
sg137
I0
ssg77
(dp2553
g134
I0
sg135
I0
sg136
I0
sg137
I0
ssg79
(dp2554
g119
I3
sg120
I7
sg121
I0
sg122
I23
ssg81
I0
sg82
I0
sg83
S'Gruggnik'
p2555
sg85
I4
sg86
I0
sg87
I16
sg88
I150
sg89
g143
sg91
(dp2556
g145
I10
sg146
I9
sg147
I7
sg148
I11
sg149
I6
sg150
I11
sg151
I5
sg152
I11
sg153
I7
sg154
I7
sg155
I7
sg156
I9
sg157
I3
sg158
I9
sg159
I9
ssg108
(dp2557
g161
(ijoueur
joueur
p2558
(dp2559
g28
I0
sg32
I0
sg34
I0
sg35
g36
(g37
g38
Ntp2560
Rp2561
(dp2562
g42
I5
sg43
S'**'
p2563
sg45
S'seigneur'
p2564
sbsg47
(dp2565
S'SR'
p2566
I0
sS'CT'
p2567
I0
sS'CR'
p2568
I0
sS'ST'
p2569
I0
ssg53
(dp2570
g2566
I0
sg2567
I0
sg2568
I0
sg2569
I0
ssg56
I0
sg58
I0
sg76
I00
sg60
I0
sg61
I0
sg62
I0
sg63
(S'dummy'
p2571
S'TA'
p2572
g31
g31
tp2573
sg68
I00
sg69
g36
(g37
g38
Ntp2574
Rp2575
(dp2576
g42
I5
sg43
S'**'
p2577
sg45
g2564
sbsg70
(dp2578
g2566
I0
sg2567
I10
sg2568
I0
sg2569
I5
ssg138
(dp2579
g2566
I0
sg2567
I0
sg2568
I0
sg2569
I0
ssg77
(dp2580
g2566
I0
sg2567
I0
sg2568
I0
sg2569
I0
ssg79
(dp2581
g2566
I0
sg2567
I10
sg2568
I0
sg2569
I5
ssg81
I0
sg82
I0
sg83
S'Gruggnik'
p2582
sg85
I4
sg86
I0
sg87
I16
sg88
I150
sg89
S'GP'
p2583
sg91
(dp2584
S'A'
p2585
I11
sS'ME'
p2586
I9
sS'RP2'
p2587
I7
sS'E'
p2588
I12
sS'P'
p2589
I7
sS'RP1'
p2590
I11
sS'JP'
p2591
I5
sS'RP_tot'
p2592
I11
sS'TO'
p2593
I6
sS'PA'
p2594
I7
sS'M'
p2595
I7
sS'R'
p2596
I9
sS'TB'
p2597
I3
sS'PL'
p2598
I10
sS'TA'
p2599
I10
ssg206
I0
sg207
I0
sg208
I1
sg209
I0
sg57
F9.96551724137931
sg210
I0
sg211
I1
sg212
I0
sg213
(dp2600
S'A'
p2601
I11
sS'ME'
p2602
I9
sS'RP2'
p2603
I7
sS'E'
p2604
I12
sS'P'
p2605
I7
sS'RP1'
p2606
I11
sS'JP'
p2607
I5
sS'RP_tot'
p2608
I11
sS'TO'
p2609
I6
sS'PA'
p2610
I7
sS'M'
p2611
I7
sS'R'
p2612
I9
sS'TB'
p2613
I3
sS'PL'
p2614
I10
sS'TA'
p2615
I10
ssg230
g2584
sg231
I0
sg232
g31
sg233
I0
sg234
I0
sg235
I0
sg236
I15
sg237
I0
sg238
I0
sg239
S'N'
p2616
sbssg206
I0
sg207
I0
sg208
I1
sg209
I0
sg57
F9.482758620689655
sg210
I0
sg211
I0
sg212
I1
sg213
(dp2617
g242
I11
sg243
I9
sg244
I7
sg245
I12
sg246
I6
sg247
I11
sg248
I5
sg249
I11
sg250
I7
sg251
I7
sg252
I7
sg253
I9
sg254
I3
sg255
I10
sg256
I10
ssg230
g2556
sg231
I0
sg232
g31
sg233
I0
sg234
I0
sg235
I0
sg236
I15
sg237
I4
sg238
I1
sg239
g257
sbsg258
(ijoueur
joueur
p2618
(dp2619
g28
I0
sg32
I0
sg34
I0
sg35
g36
(g37
g38
Ntp2620
Rp2621
(dp2622
g42
I5
sg43
S'**'
p2623
sg45
S'seigneur'
p2624
sbsg47
(dp2625
S'SR'
p2626
I0
sS'CT'
p2627
I0
sS'CR'
p2628
I0
sS'ST'
p2629
I0
ssg53
(dp2630
g2626
I0
sg2627
I0
sg2628
I0
sg2629
I0
ssg56
I0
sg58
I0
sg76
I00
sg60
I0
sg61
I0
sg62
I0
sg63
(S'dummy'
p2631
S'TA'
p2632
g31
g31
tp2633
sg68
I00
sg69
g36
(g37
g38
Ntp2634
Rp2635
(dp2636
g42
I5
sg43
S'**'
p2637
sg45
g2624
sbsg70
(dp2638
g2626
I0
sg2627
I10
sg2628
I0
sg2629
I5
ssg138
(dp2639
g2626
I0
sg2627
I0
sg2628
I0
sg2629
I0
ssg77
(dp2640
g2626
I0
sg2627
I0
sg2628
I0
sg2629
I0
ssg79
(dp2641
g2626
I0
sg2627
I10
sg2628
I0
sg2629
I5
ssg81
I0
sg82
I0
sg83
S'Gruggnik'
p2642
sg85
I4
sg86
I0
sg87
I16
sg88
I150
sg89
S'GP'
p2643
sg91
(dp2644
S'A'
p2645
I11
sS'ME'
p2646
I9
sS'RP2'
p2647
I7
sS'E'
p2648
I12
sS'P'
p2649
I7
sS'RP1'
p2650
I11
sS'JP'
p2651
I5
sS'RP_tot'
p2652
I11
sS'TO'
p2653
I6
sS'PA'
p2654
I7
sS'M'
p2655
I7
sS'R'
p2656
I9
sS'TB'
p2657
I3
sS'PL'
p2658
I10
sS'TA'
p2659
I10
ssg206
I0
sg207
I0
sg208
I1
sg209
I0
sg57
F9.96551724137931
sg210
I0
sg211
I1
sg212
I0
sg213
(dp2660
S'A'
p2661
I11
sS'ME'
p2662
I9
sS'RP2'
p2663
I7
sS'E'
p2664
I12
sS'P'
p2665
I7
sS'RP1'
p2666
I11
sS'JP'
p2667
I5
sS'RP_tot'
p2668
I11
sS'TO'
p2669
I6
sS'PA'
p2670
I7
sS'M'
p2671
I7
sS'R'
p2672
I9
sS'TB'
p2673
I3
sS'PL'
p2674
I10
sS'TA'
p2675
I10
ssg230
g2644
sg231
I0
sg232
g31
sg233
I0
sg234
I0
sg235
I0
sg236
I15
sg237
I0
sg238
I0
sg239
S'N'
p2676
sbssg206
I0
sg207
I0
sg208
I1
sg209
I0
sg138
(dp2677
g72
I0
sg73
I0
sg74
I0
sg75
I0
ssg210
I0
sg211
I0
sg212
I1
sg213
(dp2678
g322
I11
sg323
I9
sg324
I7
sg325
I12
sg326
I6
sg327
I11
sg328
I5
sg329
I11
sg330
I7
sg331
I7
sg332
I7
sg333
I9
sg334
I3
sg335
I10
sg336
I10
ssg230
(dp2679
g93
I9
sg94
I9
sg95
I7
sg96
I11
sg101
I6
sg98
I10
sg99
I5
sg100
I10
sg97
I8
sg102
I7
sg103
I6
sg104
I9
sg105
I3
sg106
I9
sg107
I8
ssg231
I0
sg338
(dp2680
sg233
I0
sg232
g31
sg234
I0
sg235
I0
sg236
I15
sg237
I4
sg238
I0
sg239
g340
sbsS'n17'
p2681
(ijoueur
joueur
p2682
(dp2683
g27
F9.555555555555555
sg28
I0
sg29
F9.703703703703704
sg30
g31
sg32
I0
sg33
I0
sg950
g31
sg34
I0
sg951
g31
sg35
g36
(g37
g38
Ntp2684
Rp2685
(dp2686
g42
I3
sg43
S'^^^'
p2687
sg45
S'rare'
p2688
sbsg47
(dp2689
S'SR'
p2690
I0
sS'CT'
p2691
I0
sS'CR'
p2692
I0
sS'ST'
p2693
I0
ssg53
(dp2694
g2690
I0
sg2691
I0
sg2692
I0
sg2693
I0
ssg55
I0
sg232
S'vide 12'
p2695
sg57
F10.25925925925926
sg58
I0
sg59
I0
sg60
I0
sg61
I0
sg62
I0
sg89
g90
sg68
I00
sg69
g2685
sg70
(dp2696
g72
I0
sg73
I0
sg74
I0
sg75
I0
ssg76
I00
sg77
(dp2697
g72
I0
sg73
I0
sg74
I0
sg75
I0
ssg79
(dp2698
g2690
I0
sg2691
I11
sg2692
I3
sg2693
I10
ssg81
I0
sg82
I0
sg83
S'Chebanar'
p2699
sg85
I5
sg86
I0
sg87
I18
sg88
I74
sg63
(S'dummy'
p2700
S'PI'
p2701
g31
g31
tp2702
sg971
g31
sg91
(dp2703
S'RP1'
p2704
I12
sS'ME'
p2705
I11
sS'RP2'
p2706
I8
sS'E'
p2707
I8
sS'TO'
p2708
I8
sS'M'
p2709
I8
sS'JP'
p2710
I5
sS'RP_tot'
p2711
I13
sS'P'
p2712
I5
sS'PA'
p2713
I8
sS'A'
p2714
I8
sS'R'
p2715
I11
sS'TB'
p2716
I5
sS'PL'
p2717
I10
sS'TA'
p2718
I7
ssg108
(dp2719
g110
(ijoueur
joueur
p2720
(dp2721
g27
F9.555555555555555
sg28
I0
sg30
g31
sg32
I0
sg950
g31
sg34
I0
sg951
g31
sg35
g36
(g37
g38
Ntp2722
Rp2723
(dp2724
g42
I3
sg43
S'^^^'
p2725
sg45
S'rare'
p2726
sbsg47
(dp2727
S'SR'
p2728
I0
sS'CT'
p2729
I0
sS'CR'
p2730
I0
sS'ST'
p2731
I0
ssg53
(dp2732
g2728
I0
sg2729
I0
sg2730
I0
sg2731
I0
ssg232
S'vide 12'
p2733
sg58
I0
sg76
I00
sg60
I1
sg61
I0
sg62
I0
sg89
g143
sg68
I00
sg69
g2723
sg70
(dp2734
g134
I0
sg135
I7
sg136
I3
sg137
I11
ssg138
(dp2735
g134
I0
sg135
I0
sg136
I0
sg137
I0
ssg77
(dp2736
g134
I0
sg135
I0
sg136
I0
sg137
I0
ssg79
(dp2737
g2728
I0
sg2729
I11
sg2730
I3
sg2731
I10
ssg81
I0
sg82
I0
sg83
S'Chebanar'
p2738
sg85
I5
sg86
I0
sg87
I18
sg88
I74
sg63
(S'dummy'
p2739
S'PI'
p2740
g31
g31
tp2741
sg971
g31
sg91
(dp2742
S'RP1'
p2743
I11
sS'ME'
p2744
I10
sS'RP2'
p2745
I8
sS'E'
p2746
I8
sS'P'
p2747
I5
sS'JP'
p2748
I5
sS'M'
p2749
I8
sS'RP_tot'
p2750
I12
sS'TO'
p2751
I8
sS'PA'
p2752
I8
sS'A'
p2753
I8
sS'R'
p2754
I10
sS'TB'
p2755
I5
sS'PL'
p2756
I10
sS'TA'
p2757
I7
ssg108
(dp2758
g161
(ijoueur
joueur
p2759
(dp2760
g28
I0
sg32
I0
sg950
g31
sg34
I0
sg951
g31
sg35
g36
(g37
g38
Ntp2761
Rp2762
(dp2763
g42
I3
sg43
S'^^^'
p2764
sg45
S'rare'
p2765
sbsg47
(dp2766
S'SR'
p2767
I0
sS'ST'
p2768
I0
sS'CR'
p2769
I0
sS'CT'
p2770
I0
ssg53
(dp2771
g2767
I0
sg2768
I0
sg2769
I0
sg2770
I0
ssg232
g31
sg58
I0
sg76
I00
sg60
I0
sg61
I0
sg62
I0
sg89
S'vide'
p2772
sg68
I01
sg69
g2762
sg70
(dp2773
g2767
I0
sg2768
I3
sg2769
I0
sg2770
I0
ssg138
(dp2774
g2767
I0
sg2768
I0
sg2769
I0
sg2770
I0
ssg77
(dp2775
g2767
I0
sg2768
I0
sg2769
I0
sg2770
I0
ssg79
(dp2776
g2767
I0
sg2768
I3
sg2769
I0
sg2770
I0
ssg81
I0
sg82
I0
sg83
S'Chebanar'
p2777
sg85
I5
sg86
I0
sg87
I18
sg88
I72
sg63
(S'dummy'
p2778
S'PI'
p2779
g31
g31
tp2780
sg971
g31
sg91
(dp2781
S'RP1'
p2782
I11
sS'ME'
p2783
I10
sS'RP2'
p2784
I7
sS'E'
p2785
I8
sS'TO'
p2786
I8
sS'M'
p2787
I8
sS'JP'
p2788
I5
sS'RP_tot'
p2789
I11
sS'P'
p2790
I5
sS'PA'
p2791
I8
sS'A'
p2792
I8
sS'R'
p2793
I10
sS'TB'
p2794
I5
sS'PL'
p2795
I10
sS'TA'
p2796
I7
ssg206
I0
sg207
I0
sg208
I0
sg209
I0
sg57
F9.555555555555555
sg210
I0
sg211
I0
sg212
I0
sg213
(dp2797
S'RP1'
p2798
I11
sS'ME'
p2799
I10
sS'RP2'
p2800
I7
sS'E'
p2801
I8
sS'TO'
p2802
I8
sS'M'
p2803
I8
sS'JP'
p2804
I5
sS'RP_tot'
p2805
I11
sS'P'
p2806
I5
sS'PA'
p2807
I8
sS'A'
p2808
I8
sS'R'
p2809
I10
sS'TB'
p2810
I5
sS'PL'
p2811
I10
sS'TA'
p2812
I7
ssg230
g2781
sg231
I0
sg233
I0
sg234
I0
sg235
I0
sg236
I6
sg237
I0
sg238
I0
sg239
S'ARA'
p2813
sbssg206
I7
sg207
I0
sg208
I0
sg209
I0
sg57
F9.703703703703704
sg210
I0
sg211
I0
sg212
I1
sg213
(dp2814
S'RP1'
p2815
I11
sS'ME'
p2816
I10
sS'RP2'
p2817
I7
sS'E'
p2818
I8
sS'TO'
p2819
I8
sS'M'
p2820
I8
sS'JP'
p2821
I5
sS'RP_tot'
p2822
I11
sS'P'
p2823
I5
sS'PA'
p2824
I8
sS'A'
p2825
I8
sS'R'
p2826
I10
sS'TB'
p2827
I5
sS'PL'
p2828
I10
sS'TA'
p2829
I7
ssg230
g2742
sg231
I0
sg233
I0
sg234
I0
sg235
I0
sg236
I8
sg237
I1
sg238
I1
sg239
S'ARA'
p2830
sbsg258
(ijoueur
joueur
p2831
(dp2832
g28
I0
sg32
I0
sg950
g31
sg34
I0
sg951
g31
sg35
g36
(g37
g38
Ntp2833
Rp2834
(dp2835
g42
I3
sg43
S'^^^'
p2836
sg45
S'rare'
p2837
sbsg47
(dp2838
S'SR'
p2839
I0
sS'ST'
p2840
I0
sS'CR'
p2841
I0
sS'CT'
p2842
I0
ssg53
(dp2843
g2839
I0
sg2840
I0
sg2841
I0
sg2842
I0
ssg232
g31
sg58
I0
sg76
I00
sg60
I0
sg61
I0
sg62
I0
sg89
S'vide'
p2844
sg68
I01
sg69
g2834
sg70
(dp2845
g2839
I0
sg2840
I3
sg2841
I0
sg2842
I0
ssg138
(dp2846
g2839
I0
sg2840
I0
sg2841
I0
sg2842
I0
ssg77
(dp2847
g2839
I0
sg2840
I0
sg2841
I0
sg2842
I0
ssg79
(dp2848
g2839
I0
sg2840
I3
sg2841
I0
sg2842
I0
ssg81
I0
sg82
I0
sg83
S'Chebanar'
p2849
sg85
I5
sg86
I0
sg87
I18
sg88
I72
sg63
(S'dummy'
p2850
S'PI'
p2851
g31
g31
tp2852
sg971
g31
sg91
(dp2853
S'RP1'
p2854
I11
sS'ME'
p2855
I10
sS'RP2'
p2856
I7
sS'E'
p2857
I8
sS'TO'
p2858
I8
sS'M'
p2859
I8
sS'JP'
p2860
I5
sS'RP_tot'
p2861
I11
sS'P'
p2862
I5
sS'PA'
p2863
I8
sS'A'
p2864
I8
sS'R'
p2865
I10
sS'TB'
p2866
I5
sS'PL'
p2867
I10
sS'TA'
p2868
I7
ssg206
I0
sg207
I0
sg208
I0
sg209
I0
sg57
F9.555555555555555
sg210
I0
sg211
I0
sg212
I0
sg213
(dp2869
S'RP1'
p2870
I11
sS'ME'
p2871
I10
sS'RP2'
p2872
I7
sS'E'
p2873
I8
sS'TO'
p2874
I8
sS'M'
p2875
I8
sS'JP'
p2876
I5
sS'RP_tot'
p2877
I11
sS'P'
p2878
I5
sS'PA'
p2879
I8
sS'A'
p2880
I8
sS'R'
p2881
I10
sS'TB'
p2882
I5
sS'PL'
p2883
I10
sS'TA'
p2884
I7
ssg230
g2853
sg231
I0
sg233
I0
sg234
I0
sg235
I0
sg236
I6
sg237
I0
sg238
I0
sg239
S'ARA'
p2885
sbssg206
I0
sg207
I0
sg208
I0
sg209
I0
sg138
(dp2886
g72
I0
sg73
I0
sg74
I0
sg75
I0
ssg210
I0
sg211
I0
sg212
I1
sg213
(dp2887
S'RP1'
p2888
I11
sS'ME'
p2889
I10
sS'RP2'
p2890
I7
sS'E'
p2891
I8
sS'TO'
p2892
I8
sS'M'
p2893
I8
sS'JP'
p2894
I5
sS'RP_tot'
p2895
I11
sS'P'
p2896
I5
sS'PA'
p2897
I8
sS'A'
p2898
I8
sS'R'
p2899
I10
sS'TB'
p2900
I5
sS'PL'
p2901
I10
sS'TA'
p2902
I7
ssg230
(dp2903
g2704
I12
sg2705
I11
sg2706
I8
sg2707
I8
sg2712
I5
sg2710
I5
sg2709
I8
sg2711
I13
sg2708
I8
sg2713
I8
sg2714
I8
sg2715
I11
sg2716
I5
sg2717
I10
sg2718
I7
ssg231
I0
sg338
(dp2904
sg233
I0
sg234
I0
sg235
I0
sg236
I8
sg237
I1
sg238
I0
sg239
S'ARA'
p2905
sbsS'n14'
p2906
(ijoueur
joueur
p2907
(dp2908
g27
F9.030303030303031
sg28
I0
sg29
F10.181818181818182
sg30
g31
sg32
I0
sg33
I0
sg34
I0
sg35
g36
(g37
g38
Ntp2909
Rp2910
(dp2911
g42
I4
sg43
g1761
sg45
g789
sbsg47
(dp2912
g49
I0
sg50
I7
sg51
I1
sg52
I25
ssg53
(dp2913
g49
I0
sg50
I0
sg51
I0
sg52
I0
ssg55
I0
sg56
I0
sg57
F9.93939393939394
sg58
I0
sg59
I0
sg60
I0
sg61
I0
sg62
I0
sg63
(g64
S'AR'
p2914
S'AI'
p2915
g31
tp2916
sg68
I00
sg69
g2910
sg70
(dp2917
g72
I0
sg73
I0
sg74
I0
sg75
I0
ssg76
I00
sg77
(dp2918
g72
I0
sg73
I0
sg74
I0
sg75
I0
ssg79
(dp2919
g49
I0
sg50
I0
sg51
I1
sg52
I0
ssg81
I0
sg82
I0
sg83
S'Engret'
p2920
sg85
I9
sg86
I0
sg87
I23
sg88
I130
sg89
g90
sg91
(dp2921
g93
I12
sg94
I5
sg95
I9
sg96
I9
sg97
I8
sg98
I9
sg99
I8
sg100
I11
sg101
I5
sg102
I8
sg103
I12
sg104
I7
sg105
I8
sg106
I9
sg107
I7
ssg108
(dp2922
g110
(ijoueur
joueur
p2923
(dp2924
g27
F9.030303030303031
sg28
I0
sg30
g31
sg32
I0
sg34
I0
sg35
g36
(g37
g38
Ntp2925
Rp2926
(dp2927
g42
I4
sg43
g1777
sg45
g809
sbsg47
(dp2928
g119
I0
sg120
I7
sg121
I1
sg122
I25
ssg53
(dp2929
g119
I0
sg120
I0
sg121
I0
sg122
I0
ssg56
I0
sg58
I0
sg76
I00
sg60
I2
sg61
I0
sg62
I0
sg63
(g124
S'AR'
p2930
S'AI'
p2931
g31
tp2932
sg68
I00
sg69
g2926
sg70
(dp2933
g134
I0
sg135
I0
sg136
I0
sg137
I0
ssg138
(dp2934
g134
I0
sg135
I6
sg136
I1
sg137
I13
ssg77
(dp2935
g134
I0
sg135
I0
sg136
I0
sg137
I0
ssg79
(dp2936
g119
I0
sg120
I0
sg121
I1
sg122
I0
ssg81
I0
sg82
I0
sg83
S'Engret'
p2937
sg85
I9
sg86
I0
sg87
I23
sg88
I130
sg89
g143
sg91
(dp2938
g145
I13
sg146
I5
sg147
I9
sg148
I9
sg149
I5
sg150
I9
sg151
I8
sg152
I11
sg153
I9
sg154
I8
sg155
I12
sg156
I7
sg157
I9
sg158
I9
sg159
I7
ssg108
(dp2939
g161
(ijoueur
joueur
p2940
(dp2941
g28
I0
sg32
I0
sg34
I0
sg35
g36
(g37
g38
Ntp2942
Rp2943
(dp2944
g42
I4
sg43
S'*'
p2945
sg45
S'heros'
p2946
sbsg47
(dp2947
S'SR'
p2948
I0
sS'CT'
p2949
I12
sS'CR'
p2950
I0
sS'ST'
p2951
I0
ssg53
(dp2952
g2948
I0
sg2949
I0
sg2950
I0
sg2951
I0
ssg56
I0
sg58
I0
sg76
I00
sg60
I0
sg61
I0
sg62
I0
sg63
(S'dummy'
p2953
S'AR'
p2954
S'AI'
p2955
g31
tp2956
sg68
I00
sg69
g36
(g37
g38
Ntp2957
Rp2958
(dp2959
g42
I3
sg43
S'<<<'
p2960
sg45
S'rare'
p2961
sbsg70
(dp2962
g2948
I0
sg2949
I0
sg2950
I1
sg2951
I0
ssg138
(dp2963
g2948
I0
sg2949
I12
sg2950
I0
sg2951
I0
ssg77
(dp2964
g2948
I0
sg2949
I0
sg2950
I0
sg2951
I0
ssg79
(dp2965
g2948
I0
sg2949
I0
sg2950
I1
sg2951
I0
ssg81
I0
sg82
I0
sg83
S'Engret'
p2966
sg85
I9
sg86
I0
sg87
I23
sg88
I75
sg89
S'GP'
p2967
sg91
(dp2968
S'A'
p2969
I10
sS'ME'
p2970
I5
sS'RP2'
p2971
I9
sS'E'
p2972
I9
sS'P'
p2973
I5
sS'RP1'
p2974
I9
sS'JP'
p2975
I3
sS'RP_tot'
p2976
I11
sS'TO'
p2977
I4
sS'PA'
p2978
I8
sS'M'
p2979
I13
sS'R'
p2980
I7
sS'TB'
p2981
I4
sS'PL'
p2982
I8
sS'TA'
p2983
I7
ssg206
I0
sg207
I0
sg208
I0
sg209
I0
sg57
F9.030303030303031
sg210
I0
sg211
I0
sg212
I1
sg213
(dp2984
S'A'
p2985
I10
sS'ME'
p2986
I5
sS'RP2'
p2987
I9
sS'E'
p2988
I9
sS'P'
p2989
I5
sS'RP1'
p2990
I9
sS'JP'
p2991
I3
sS'RP_tot'
p2992
I11
sS'TO'
p2993
I4
sS'PA'
p2994
I8
sS'M'
p2995
I13
sS'R'
p2996
I7
sS'TB'
p2997
I4
sS'PL'
p2998
I8
sS'TA'
p2999
I7
ssg230
g2968
sg231
I0
sg232
g31
sg233
I0
sg234
I0
sg235
I0
sg236
I8
sg237
I0
sg238
I1
sg239
S'OG'
p3000
sbssg206
I12
sg207
I0
sg208
I0
sg209
I0
sg57
F10.181818181818182
sg210
I0
sg211
I0
sg212
I1
sg213
(dp3001
g242
I10
sg243
I5
sg244
I9
sg245
I9
sg246
I4
sg247
I9
sg248
I3
sg249
I11
sg250
I5
sg251
I8
sg252
I13
sg253
I7
sg254
I4
sg255
I8
sg256
I7
ssg230
g2938
sg231
I0
sg232
g31
sg233
I0
sg234
I0
sg235
I0
sg236
I13
sg237
I2
sg238
I0
sg239
S'OG'
p3002
sbsg258
(ijoueur
joueur
p3003
(dp3004
g28
I0
sg32
I0
sg34
I0
sg35
g36
(g37
g38
Ntp3005
Rp3006
(dp3007
g42
I4
sg43
S'*'
p3008
sg45
S'heros'
p3009
sbsg47
(dp3010
S'SR'
p3011
I0
sS'CT'
p3012
I12
sS'CR'
p3013
I0
sS'ST'
p3014
I0
ssg53
(dp3015
g3011
I0
sg3012
I0
sg3013
I0
sg3014
I0
ssg56
I0
sg58
I0
sg76
I00
sg60
I0
sg61
I0
sg62
I0
sg63
(S'dummy'
p3016
S'AR'
p3017
S'AI'
p3018
g31
tp3019
sg68
I00
sg69
g36
(g37
g38
Ntp3020
Rp3021
(dp3022
g42
I3
sg43
S'<<<'
p3023
sg45
S'rare'
p3024
sbsg70
(dp3025
g3011
I0
sg3012
I0
sg3013
I1
sg3014
I0
ssg138
(dp3026
g3011
I0
sg3012
I12
sg3013
I0
sg3014
I0
ssg77
(dp3027
g3011
I0
sg3012
I0
sg3013
I0
sg3014
I0
ssg79
(dp3028
g3011
I0
sg3012
I0
sg3013
I1
sg3014
I0
ssg81
I0
sg82
I0
sg83
S'Engret'
p3029
sg85
I9
sg86
I0
sg87
I23
sg88
I75
sg89
S'GP'
p3030
sg91
(dp3031
S'A'
p3032
I10
sS'ME'
p3033
I5
sS'RP2'
p3034
I9
sS'E'
p3035
I9
sS'P'
p3036
I5
sS'RP1'
p3037
I9
sS'JP'
p3038
I3
sS'RP_tot'
p3039
I11
sS'TO'
p3040
I4
sS'PA'
p3041
I8
sS'M'
p3042
I13
sS'R'
p3043
I7
sS'TB'
p3044
I4
sS'PL'
p3045
I8
sS'TA'
p3046
I7
ssg206
I0
sg207
I0
sg208
I0
sg209
I0
sg57
F9.030303030303031
sg210
I0
sg211
I0
sg212
I1
sg213
(dp3047
S'A'
p3048
I10
sS'ME'
p3049
I5
sS'RP2'
p3050
I9
sS'E'
p3051
I9
sS'P'
p3052
I5
sS'RP1'
p3053
I9
sS'JP'
p3054
I3
sS'RP_tot'
p3055
I11
sS'TO'
p3056
I4
sS'PA'
p3057
I8
sS'M'
p3058
I13
sS'R'
p3059
I7
sS'TB'
p3060
I4
sS'PL'
p3061
I8
sS'TA'
p3062
I7
ssg230
g3031
sg231
I0
sg232
g31
sg233
I0
sg234
I0
sg235
I0
sg236
I8
sg237
I0
sg238
I1
sg239
S'OG'
p3063
sbssg206
I0
sg207
I0
sg208
I0
sg209
I0
sg138
(dp3064
g72
I0
sg73
I0
sg74
I0
sg75
I0
ssg210
I0
sg211
I0
sg212
I1
sg213
(dp3065
g322
I10
sg323
I5
sg324
I9
sg325
I9
sg326
I4
sg327
I9
sg328
I3
sg329
I11
sg330
I5
sg331
I8
sg332
I13
sg333
I7
sg334
I4
sg335
I8
sg336
I7
ssg230
(dp3066
g93
I12
sg94
I5
sg95
I9
sg96
I9
sg101
I5
sg98
I9
sg99
I8
sg100
I11
sg97
I8
sg102
I8
sg103
I12
sg104
I7
sg105
I8
sg106
I9
sg107
I7
ssg231
I0
sg338
(dp3067
sg233
I0
sg232
g31
sg234
I0
sg235
I0
sg236
I13
sg237
I2
sg238
I0
sg239
S'OG'
p3068
sbsS'n15'
p3069
g1350
sS'n18'
p3070
(ijoueur
joueur
p3071
(dp3072
g27
F9.451612903225806
sg28
I1
sg29
F9.32258064516129
sg30
g31
sg32
I0
sg33
I0
sg34
I0
sg35
g36
(g37
g38
Ntp3073
Rp3074
(dp3075
g42
I4
sg43
g1761
sg45
g789
sbsg47
(dp3076
g49
I0
sg50
I0
sg51
I2
sg52
I13
ssg53
(dp3077
g49
I0
sg50
I0
sg51
I0
sg52
I0
ssg55
I0
sg56
I0
sg57
F9.32258064516129
sg58
I0
sg59
I0
sg60
I0
sg61
I0
sg62
I0
sg63
(g64
S'TL'
p3078
S'DL'
p3079
g31
tp3080
sg68
I00
sg69
g36
(g37
g38
Ntp3081
Rp3082
(dp3083
g42
I4
sg43
g1761
sg45
g789
sbsg70
(dp3084
g72
I0
sg73
I0
sg74
I0
sg75
I0
ssg76
I00
sg77
(dp3085
g72
I0
sg73
I0
sg74
I0
sg75
I0
ssg79
(dp3086
g49
I0
sg50
I0
sg51
I0
sg52
I8
ssg81
I0
sg82
I0
sg83
S'Gruknam'
p3087
sg85
I2
sg86
I0
sg87
I14
sg88
I60
sg89
g90
sg91
(dp3088
g93
I7
sg94
I9
sg95
I7
sg96
I12
sg97
I5
sg98
I9
sg99
I4
sg100
I9
sg101
I8
sg102
I6
sg103
I8
sg104
I8
sg105
I5
sg106
I12
sg107
I4
ssg108
(dp3089
g110
(ijoueur
joueur
p3090
(dp3091
g27
F9.451612903225806
sg28
I1
sg30
g31
sg32
I0
sg34
I0
sg35
g36
(g37
g38
Ntp3092
Rp3093
(dp3094
g42
I4
sg43
g1777
sg45
g809
sbsg47
(dp3095
g119
I0
sg120
I0
sg121
I2
sg122
I13
ssg53
(dp3096
g119
I0
sg120
I0
sg121
I0
sg122
I0
ssg56
I0
sg58
I0
sg76
I00
sg60
I0
sg61
I0
sg62
I0
sg63
(g124
S'TL'
p3097
S'DL'
p3098
g31
tp3099
sg68
I00
sg69
g36
(g37
g38
Ntp3100
Rp3101
(dp3102
g42
I4
sg43
g1777
sg45
g809
sbsg70
(dp3103
g134
I0
sg135
I0
sg136
I0
sg137
I0
ssg138
(dp3104
g134
I0
sg135
I0
sg136
I0
sg137
I13
ssg77
(dp3105
g134
I0
sg135
I0
sg136
I0
sg137
I0
ssg79
(dp3106
g119
I0
sg120
I0
sg121
I0
sg122
I8
ssg81
I0
sg82
I0
sg83
S'Gruknam'
p3107
sg85
I2
sg86
I0
sg87
I14
sg88
I60
sg89
g143
sg91
(dp3108
g145
I7
sg146
I9
sg147
I7
sg148
I12
sg149
I8
sg150
I9
sg151
I4
sg152
I9
sg153
I5
sg154
I6
sg155
I8
sg156
I8
sg157
I5
sg158
I12
sg159
I4
ssg108
(dp3109
g161
(ijoueur
joueur
p3110
(dp3111
g28
I1
sg32
I0
sg34
I0
sg35
g36
(g37
g38
Ntp3112
Rp3113
(dp3114
g42
I4
sg43
S'*'
p3115
sg45
S'heros'
p3116
sbsg47
(dp3117
S'SR'
p3118
I0
sS'CT'
p3119
I0
sS'CR'
p3120
I2
sS'ST'
p3121
I0
ssg53
(dp3122
g3118
I0
sg3119
I0
sg3120
I0
sg3121
I0
ssg56
I0
sg58
I0
sg76
I00
sg60
I0
sg61
I0
sg62
I0
sg63
(S'dummy'
p3123
S'TL'
p3124
S'DL'
p3125
g31
tp3126
sg68
I00
sg69
g36
(g37
g38
Ntp3127
Rp3128
(dp3129
g42
I4
sg43
g3115
sg45
g3116
sbsg70
(dp3130
g3118
I0
sg3119
I8
sg3120
I0
sg3121
I0
ssg138
(dp3131
g3118
I0
sg3119
I0
sg3120
I2
sg3121
I0
ssg77
(dp3132
g3118
I0
sg3119
I0
sg3120
I0
sg3121
I0
ssg79
(dp3133
g3118
I0
sg3119
I8
sg3120
I0
sg3121
I0
ssg81
I0
sg82
I0
sg83
S'Gruknam'
p3134
sg85
I2
sg86
I0
sg87
I14
sg88
I60
sg89
S'GP'
p3135
sg91
(dp3136
S'A'
p3137
I7
sS'ME'
p3138
I9
sS'RP2'
p3139
I7
sS'E'
p3140
I13
sS'P'
p3141
I5
sS'RP1'
p3142
I9
sS'JP'
p3143
I4
sS'RP_tot'
p3144
I9
sS'TO'
p3145
I8
sS'PA'
p3146
I6
sS'M'
p3147
I8
sS'R'
p3148
I8
sS'TB'
p3149
I5
sS'PL'
p3150
I12
sS'TA'
p3151
I4
ssg206
I0
sg207
I0
sg208
I1
sg209
I0
sg57
F9.451612903225806
sg210
I0
sg211
I1
sg212
I0
sg213
(dp3152
S'A'
p3153
I7
sS'ME'
p3154
I9
sS'RP2'
p3155
I7
sS'E'
p3156
I13
sS'P'
p3157
I5
sS'RP1'
p3158
I9
sS'JP'
p3159
I4
sS'RP_tot'
p3160
I9
sS'TO'
p3161
I8
sS'PA'
p3162
I6
sS'M'
p3163
I8
sS'R'
p3164
I8
sS'TB'
p3165
I5
sS'PL'
p3166
I12
sS'TA'
p3167
I4
ssg230
g3136
sg231
I1
sg232
g31
sg233
I0
sg234
I0
sg235
I0
sg236
I6
sg237
I0
sg238
I0
sg239
S'N'
p3168
sbssg206
I0
sg207
I0
sg208
I1
sg209
I0
sg57
F9.32258064516129
sg210
I0
sg211
I0
sg212
I0
sg213
(dp3169
g242
I7
sg243
I9
sg244
I7
sg245
I13
sg246
I8
sg247
I9
sg248
I4
sg249
I9
sg250
I5
sg251
I6
sg252
I8
sg253
I8
sg254
I5
sg255
I12
sg256
I4
ssg230
g3108
sg231
I0
sg232
g31
sg233
I0
sg234
I0
sg235
I0
sg236
I6
sg237
I0
sg238
I0
sg239
g257
sbsg258
(ijoueur
joueur
p3170
(dp3171
g28
I1
sg32
I0
sg34
I0
sg35
g36
(g37
g38
Ntp3172
Rp3173
(dp3174
g42
I4
sg43
S'*'
p3175
sg45
S'heros'
p3176
sbsg47
(dp3177
S'SR'
p3178
I0
sS'CT'
p3179
I0
sS'CR'
p3180
I2
sS'ST'
p3181
I0
ssg53
(dp3182
g3178
I0
sg3179
I0
sg3180
I0
sg3181
I0
ssg56
I0
sg58
I0
sg76
I00
sg60
I0
sg61
I0
sg62
I0
sg63
(S'dummy'
p3183
S'TL'
p3184
S'DL'
p3185
g31
tp3186
sg68
I00
sg69
g36
(g37
g38
Ntp3187
Rp3188
(dp3189
g42
I4
sg43
g3175
sg45
g3176
sbsg70
(dp3190
g3178
I0
sg3179
I8
sg3180
I0
sg3181
I0
ssg138
(dp3191
g3178
I0
sg3179
I0
sg3180
I2
sg3181
I0
ssg77
(dp3192
g3178
I0
sg3179
I0
sg3180
I0
sg3181
I0
ssg79
(dp3193
g3178
I0
sg3179
I8
sg3180
I0
sg3181
I0
ssg81
I0
sg82
I0
sg83
S'Gruknam'
p3194
sg85
I2
sg86
I0
sg87
I14
sg88
I60
sg89
S'GP'
p3195
sg91
(dp3196
S'A'
p3197
I7
sS'ME'
p3198
I9
sS'RP2'
p3199
I7
sS'E'
p3200
I13
sS'P'
p3201
I5
sS'RP1'
p3202
I9
sS'JP'
p3203
I4
sS'RP_tot'
p3204
I9
sS'TO'
p3205
I8
sS'PA'
p3206
I6
sS'M'
p3207
I8
sS'R'
p3208
I8
sS'TB'
p3209
I5
sS'PL'
p3210
I12
sS'TA'
p3211
I4
ssg206
I0
sg207
I0
sg208
I1
sg209
I0
sg57
F9.451612903225806
sg210
I0
sg211
I1
sg212
I0
sg213
(dp3212
S'A'
p3213
I7
sS'ME'
p3214
I9
sS'RP2'
p3215
I7
sS'E'
p3216
I13
sS'P'
p3217
I5
sS'RP1'
p3218
I9
sS'JP'
p3219
I4
sS'RP_tot'
p3220
I9
sS'TO'
p3221
I8
sS'PA'
p3222
I6
sS'M'
p3223
I8
sS'R'
p3224
I8
sS'TB'
p3225
I5
sS'PL'
p3226
I12
sS'TA'
p3227
I4
ssg230
g3196
sg231
I1
sg232
g31
sg233
I0
sg234
I0
sg235
I0
sg236
I6
sg237
I0
sg238
I0
sg239
S'N'
p3228
sbssg206
I0
sg207
I0
sg208
I1
sg209
I0
sg138
(dp3229
g72
I0
sg73
I0
sg74
I0
sg75
I0
ssg210
I0
sg211
I0
sg212
I0
sg213
(dp3230
g322
I7
sg323
I9
sg324
I7
sg325
I13
sg326
I8
sg327
I9
sg328
I4
sg329
I9
sg330
I5
sg331
I6
sg332
I8
sg333
I8
sg334
I5
sg335
I12
sg336
I4
ssg230
(dp3231
g93
I7
sg94
I9
sg95
I7
sg96
I12
sg101
I8
sg98
I9
sg99
I4
sg100
I9
sg97
I5
sg102
I6
sg103
I8
sg104
I8
sg105
I5
sg106
I12
sg107
I4
ssg231
I0
sg338
(dp3232
sg233
I0
sg232
g31
sg234
I0
sg235
I0
sg236
I6
sg237
I0
sg238
I0
sg239
g340
sbsS'n19'
p3233
(ijoueur
joueur
p3234
(dp3235
g27
F8.689655172413794
sg28
I0
sg29
F8.862068965517242
sg30
g31
sg32
I0
sg33
I0
sg34
I0
sg35
g36
(g37
g38
Ntp3236
Rp3237
(dp3238
g42
I3
sg43
S'^^^'
p3239
sg45
S'rare'
p3240
sbsg47
(dp3241
g49
I0
sg50
I0
sg51
I0
sg52
I0
ssg53
(dp3242
g49
I0
sg50
I0
sg51
I11
sg52
I4
ssg55
I0
sg56
I0
sg57
F8.862068965517242
sg58
I0
sg59
I0
sg60
I0
sg61
I0
sg62
I0
sg63
(g64
S'N8'
p3243
S'DL'
p3244
S'TL'
p3245
tp3246
sg68
I00
sg69
g36
(g37
g38
Ntp3247
Rp3248
(dp3249
g42
I3
sg43
S'^^^'
p3250
sg45
g3240
sbsg70
(dp3251
g72
I0
sg73
I0
sg74
I0
sg75
I0
ssg76
I00
sg77
(dp3252
g72
I0
sg73
I0
sg74
I0
sg75
I0
ssg79
(dp3253
g49
I0
sg50
I0
sg51
I8
sg52
I1
ssg81
I0
sg82
I0
sg83
S'Frugnir'
p3254
sg85
I3
sg86
I0
sg87
I17
sg88
I11
sg89
g90
sg91
(dp3255
g93
I6
sg94
I8
sg95
I6
sg96
I11
sg97
I4
sg98
I7
sg99
I4
sg100
I7
sg101
I6
sg102
I6
sg103
I7
sg104
I9
sg105
I5
sg106
I12
sg107
I4
ssg108
(dp3256
g110
(ijoueur
joueur
p3257
(dp3258
g27
F8.689655172413794
sg28
I0
sg30
g31
sg32
I0
sg34
I0
sg35
g36
(g37
g38
Ntp3259
Rp3260
(dp3261
g42
I3
sg43
S'^^^'
p3262
sg45
S'rare'
p3263
sbsg47
(dp3264
g119
I0
sg120
I0
sg121
I0
sg122
I0
ssg53
(dp3265
g119
I0
sg120
I0
sg121
I11
sg122
I4
ssg56
I0
sg58
I0
sg76
I01
sg60
I0
sg61
I0
sg62
I0
sg63
(g124
S'N8'
p3266
S'DL'
p3267
S'TL'
p3268
tp3269
sg68
I00
sg69
g36
(g37
g38
Ntp3270
Rp3271
(dp3272
g42
I3
sg43
S'^^^'
p3273
sg45
g3263
sbsg70
(dp3274
g134
I0
sg135
I0
sg136
I3
sg137
I1
ssg138
(dp3275
g134
I0
sg135
I0
sg136
I0
sg137
I0
ssg77
(dp3276
g134
I0
sg135
I0
sg136
I5
sg137
I2
ssg79
(dp3277
g119
I0
sg120
I0
sg121
I8
sg122
I1
ssg81
I0
sg82
I0
sg83
S'Frugnir'
p3278
sg85
I3
sg86
I0
sg87
I17
sg88
I11
sg89
g143
sg91
(dp3279
g145
I6
sg146
I8
sg147
I6
sg148
I11
sg149
I6
sg150
I7
sg151
I4
sg152
I7
sg153
I4
sg154
I6
sg155
I7
sg156
I9
sg157
I5
sg158
I12
sg159
I4
ssg108
(dp3280
g161
(ijoueur
joueur
p3281
(dp3282
g28
I0
sg32
I0
sg34
I0
sg35
g36
(g37
g38
Ntp3283
Rp3284
(dp3285
g42
I3
sg43
S'^^^'
p3286
sg45
S'rare'
p3287
sbsg47
(dp3288
S'SR'
p3289
I0
sS'CT'
p3290
I0
sS'CR'
p3291
I0
sS'ST'
p3292
I0
ssg53
(dp3293
g3289
I0
sg3290
I2
sg3291
I6
sg3292
I0
ssg56
I0
sg58
I0
sg76
I01
sg60
I0
sg61
I0
sg62
I0
sg63
(S'dummy'
p3294
S'N8'
p3295
S'DL'
p3296
S'TL'
p3297
tp3298
sg68
I00
sg69
g36
(g37
g38
Ntp3299
Rp3300
(dp3301
g42
I3
sg43
S'^^^'
p3302
sg45
g3287
sbsg70
(dp3303
g3289
I0
sg3290
I0
sg3291
I5
sg3292
I0
ssg138
(dp3304
g3289
I0
sg3290
I0
sg3291
I0
sg3292
I0
ssg77
(dp3305
g3289
I0
sg3290
I2
sg3291
I6
sg3292
I0
ssg79
(dp3306
g3289
I0
sg3290
I0
sg3291
I5
sg3292
I0
ssg81
I0
sg82
I0
sg83
S'Frugnir'
p3307
sg85
I3
sg86
I0
sg87
I17
sg88
I11
sg89
S'GP'
p3308
sg91
(dp3309
S'A'
p3310
I6
sS'ME'
p3311
I9
sS'RP2'
p3312
I6
sS'E'
p3313
I11
sS'P'
p3314
I4
sS'RP1'
p3315
I7
sS'JP'
p3316
I4
sS'RP_tot'
p3317
I7
sS'TO'
p3318
I8
sS'PA'
p3319
I6
sS'M'
p3320
I6
sS'R'
p3321
I8
sS'TB'
p3322
I5
sS'PL'
p3323
I12
sS'TA'
p3324
I4
ssg206
I0
sg207
I0
sg208
I0
sg209
I0
sg57
F8.689655172413794
sg210
I0
sg211
I0
sg212
I0
sg213
(dp3325
S'A'
p3326
I6
sS'ME'
p3327
I9
sS'RP2'
p3328
I6
sS'E'
p3329
I11
sS'P'
p3330
I4
sS'RP1'
p3331
I7
sS'JP'
p3332
I4
sS'RP_tot'
p3333
I7
sS'TO'
p3334
I8
sS'PA'
p3335
I6
sS'M'
p3336
I6
sS'R'
p3337
I8
sS'TB'
p3338
I5
sS'PL'
p3339
I12
sS'TA'
p3340
I4
ssg230
g3309
sg231
I0
sg232
g31
sg233
I0
sg234
I0
sg235
I0
sg236
I1
sg237
I0
sg238
I0
sg239
S'N'
p3341
sbssg206
I0
sg207
I0
sg208
I1
sg209
I0
sg57
F8.862068965517242
sg210
I0
sg211
I1
sg212
I0
sg213
(dp3342
g242
I6
sg243
I9
sg244
I6
sg245
I11
sg246
I8
sg247
I7
sg248
I4
sg249
I7
sg250
I4
sg251
I6
sg252
I6
sg253
I8
sg254
I5
sg255
I12
sg256
I4
ssg230
g3279
sg231
I0
sg232
g31
sg233
I0
sg234
I0
sg235
I0
sg236
I1
sg237
I0
sg238
I0
sg239
g257
sbsg258
(ijoueur
joueur
p3343
(dp3344
g28
I0
sg32
I0
sg34
I0
sg35
g36
(g37
g38
Ntp3345
Rp3346
(dp3347
g42
I3
sg43
S'^^^'
p3348
sg45
S'rare'
p3349
sbsg47
(dp3350
S'SR'
p3351
I0
sS'CT'
p3352
I0
sS'CR'
p3353
I0
sS'ST'
p3354
I0
ssg53
(dp3355
g3351
I0
sg3352
I2
sg3353
I6
sg3354
I0
ssg56
I0
sg58
I0
sg76
I01
sg60
I0
sg61
I0
sg62
I0
sg63
(S'dummy'
p3356
S'N8'
p3357
S'DL'
p3358
S'TL'
p3359
tp3360
sg68
I00
sg69
g36
(g37
g38
Ntp3361
Rp3362
(dp3363
g42
I3
sg43
S'^^^'
p3364
sg45
g3349
sbsg70
(dp3365
g3351
I0
sg3352
I0
sg3353
I5
sg3354
I0
ssg138
(dp3366
g3351
I0
sg3352
I0
sg3353
I0
sg3354
I0
ssg77
(dp3367
g3351
I0
sg3352
I2
sg3353
I6
sg3354
I0
ssg79
(dp3368
g3351
I0
sg3352
I0
sg3353
I5
sg3354
I0
ssg81
I0
sg82
I0
sg83
S'Frugnir'
p3369
sg85
I3
sg86
I0
sg87
I17
sg88
I11
sg89
S'GP'
p3370
sg91
(dp3371
S'A'
p3372
I6
sS'ME'
p3373
I9
sS'RP2'
p3374
I6
sS'E'
p3375
I11
sS'P'
p3376
I4
sS'RP1'
p3377
I7
sS'JP'
p3378
I4
sS'RP_tot'
p3379
I7
sS'TO'
p3380
I8
sS'PA'
p3381
I6
sS'M'
p3382
I6
sS'R'
p3383
I8
sS'TB'
p3384
I5
sS'PL'
p3385
I12
sS'TA'
p3386
I4
ssg206
I0
sg207
I0
sg208
I0
sg209
I0
sg57
F8.689655172413794
sg210
I0
sg211
I0
sg212
I0
sg213
(dp3387
S'A'
p3388
I6
sS'ME'
p3389
I9
sS'RP2'
p3390
I6
sS'E'
p3391
I11
sS'P'
p3392
I4
sS'RP1'
p3393
I7
sS'JP'
p3394
I4
sS'RP_tot'
p3395
I7
sS'TO'
p3396
I8
sS'PA'
p3397
I6
sS'M'
p3398
I6
sS'R'
p3399
I8
sS'TB'
p3400
I5
sS'PL'
p3401
I12
sS'TA'
p3402
I4
ssg230
g3371
sg231
I0
sg232
g31
sg233
I0
sg234
I0
sg235
I0
sg236
I1
sg237
I0
sg238
I0
sg239
S'N'
p3403
sbssg206
I0
sg207
I0
sg208
I1
sg209
I0
sg138
(dp3404
g72
I0
sg73
I0
sg74
I0
sg75
I0
ssg210
I0
sg211
I0
sg212
I0
sg213
(dp3405
g322
I6
sg323
I9
sg324
I6
sg325
I11
sg326
I8
sg327
I7
sg328
I4
sg329
I7
sg330
I4
sg331
I6
sg332
I6
sg333
I8
sg334
I5
sg335
I12
sg336
I4
ssg230
(dp3406
g93
I6
sg94
I8
sg95
I6
sg96
I11
sg101
I6
sg98
I7
sg99
I4
sg100
I7
sg97
I4
sg102
I6
sg103
I7
sg104
I9
sg105
I5
sg106
I12
sg107
I4
ssg231
I0
sg338
(dp3407
sg233
I0
sg232
g31
sg234
I0
sg235
I0
sg236
I1
sg237
I0
sg238
I0
sg239
g340
sbsS'n22'
p3408
(ijoueur
joueur
p3409
(dp3410
g28
I0
sg29
F8.258064516129032
sg30
g31
sg32
I0
sg33
I0
sg950
g31
sg34
I0
sg951
g31
sg35
g36
(g37
g38
Ntp3411
Rp3412
(dp3413
g42
I3
sg43
S'^^^'
p3414
sg45
S'rare'
p3415
sbsg47
(dp3416
S'SR'
p3417
I0
sS'CT'
p3418
I0
sS'CR'
p3419
I0
sS'ST'
p3420
I0
ssg53
(dp3421
g3417
I0
sg3418
I0
sg3419
I0
sg3420
I0
ssg55
I0
sg232
g31
sg57
F9.483870967741936
sg58
I0
sg59
I0
sg60
I0
sg61
I0
sg62
I0
sg89
g90
sg68
I00
sg69
g3412
sg70
(dp3422
g72
I0
sg73
I0
sg74
I0
sg75
I0
ssg76
I00
sg77
(dp3423
g72
I0
sg73
I0
sg74
I0
sg75
I0
ssg79
(dp3424
g3417
I0
sg3418
I2
sg3419
I1
sg3420
I0
ssg81
I0
sg82
I0
sg83
S"Cal'Coel"
p3425
sg85
I12
sg86
I0
sg87
I21
sg88
I83
sg63
(S'dummy'
p3426
S'AI'
p3427
S'CE'
p3428
g31
tp3429
sg971
g31
sg91
(dp3430
S'RP1'
p3431
I12
sS'ME'
p3432
I6
sS'RP2'
p3433
I10
sS'E'
p3434
I10
sS'TO'
p3435
I3
sS'M'
p3436
I12
sS'JP'
p3437
I3
sS'RP_tot'
p3438
I13
sS'P'
p3439
I3
sS'PA'
p3440
I7
sS'A'
p3441
I9
sS'R'
p3442
I7
sS'TB'
p3443
I2
sS'PL'
p3444
I7
sS'TA'
p3445
I7
ssg108
(dp3446
g110
(ijoueur
joueur
p3447
(dp3448
g28
I0
sg30
g31
sg32
I0
sg950
g31
sg34
I0
sg951
g31
sg35
g36
(g37
g38
Ntp3449
Rp3450
(dp3451
g42
I3
sg43
S'^^^'
p3452
sg45
S'rare'
p3453
sbsg47
(dp3454
S'SR'
p3455
I0
sS'CT'
p3456
I0
sS'CR'
p3457
I0
sS'ST'
p3458
I0
ssg53
(dp3459
g3455
I0
sg3456
I0
sg3457
I0
sg3458
I0
ssg232
g31
sg58
I0
sg76
I00
sg60
I0
sg61
I0
sg62
I0
sg89
g143
sg68
I00
sg69
g36
(g37
g38
Ntp3460
Rp3461
(dp3462
g42
I1
sg43
S'<'
p3463
sg45
S'base'
p3464
sbsg70
(dp3465
g3455
I0
sg3456
I2
sg3457
I1
sg3458
I0
ssg138
(dp3466
g3455
I0
sg3456
I0
sg3457
I0
sg3458
I0
ssg77
(dp3467
g3455
I0
sg3456
I0
sg3457
I0
sg3458
I0
ssg79
(dp3468
g3455
I0
sg3456
I2
sg3457
I1
sg3458
I0
ssg81
I0
sg82
I0
sg83
S"Cal'Coel"
p3469
sg85
I12
sg86
I0
sg87
I21
sg88
I33
sg63
(S'dummy'
p3470
S'AI'
p3471
S'CE'
p3472
g31
tp3473
sg971
g31
sg91
(dp3474
S'RP1'
p3475
I10
sS'ME'
p3476
I5
sS'RP2'
p3477
I9
sS'E'
p3478
I9
sS'P'
p3479
I3
sS'JP'
p3480
I3
sS'M'
p3481
I10
sS'RP_tot'
p3482
I12
sS'TO'
p3483
I1
sS'PA'
p3484
I5
sS'A'
p3485
I7
sS'R'
p3486
I7
sS'TB'
p3487
I2
sS'PL'
p3488
I7
sS'TA'
p3489
I6
ssg108
(dp3490
sg206
I0
sg207
I0
sg208
I0
sg209
I0
sg57
F8.258064516129032
sg210
I0
sg211
I0
sg212
I0
sg230
g3474
sg231
I0
sg233
I0
sg234
I0
sg235
I0
sg236
I3
sg237
I0
sg238
I0
sg239
S'HL'
p3491
sbssg206
I0
sg207
I0
sg208
I0
sg209
I0
sg138
(dp3492
g72
I0
sg73
I0
sg74
I0
sg75
I0
ssg210
I0
sg211
I0
sg212
I0
sg230
(dp3493
g3431
I12
sg3432
I6
sg3433
I10
sg3434
I10
sg3439
I3
sg3437
I3
sg3436
I12
sg3438
I13
sg3435
I3
sg3440
I7
sg3441
I9
sg3442
I7
sg3443
I2
sg3444
I7
sg3445
I7
ssg231
I0
sg338
(dp3494
sg233
I0
sg234
I0
sg235
I0
sg236
I8
sg237
I0
sg238
I0
sg239
S'HL'
p3495
sbsS'n21'
p3496
g342
sS'n20'
p3497
(ijoueur
joueur
p3498
(dp3499
g27
F9.724137931034482
sg28
I0
sg29
F9.448275862068966
sg30
g31
sg32
I0
sg33
I0
sg34
I0
sg35
g36
(g37
g38
Ntp3500
Rp3501
(dp3502
g42
I2
sg43
S'<<'
p3503
sg45
S'special'
p3504
sbsg47
(dp3505
S'SR'
p3506
I0
sS'ST'
p3507
I0
sS'CR'
p3508
I0
sS'CT'
p3509
I0
ssg53
(dp3510
g3506
I0
sg3507
I0
sg3508
I0
sg3509
I0
ssg55
I0
sg56
I0
sg57
F9.448275862068966
sg58
I0
sg531
I0
sg532
I0
sg60
I0
sg61
I0
sg62
I0
sg63
(S'dummy'
p3511
S'DM'
p3512
g31
g31
tp3513
sg68
I00
sg69
g36
(g37
g38
Ntp3514
Rp3515
(dp3516
g42
I2
sg43
S'<<'
p3517
sg45
g3504
sbsg70
(dp3518
g72
I0
sg73
I0
sg74
I0
sg75
I0
ssg76
I00
sg77
(dp3519
g72
I0
sg73
I0
sg74
I0
sg75
I0
ssg79
(dp3520
g3506
I0
sg3507
I0
sg3508
I4
sg3509
I3
ssg81
I0
sg82
I0
sg83
S'Meliss'
p3521
sg85
I10
sg86
I0
sg87
I20
sg88
I50
sg89
g90
sg91
(dp3522
S'A'
p3523
I10
sS'ME'
p3524
I4
sS'RP2'
p3525
I7
sS'E'
p3526
I9
sS'P'
p3527
I12
sS'RP1'
p3528
I6
sS'JP'
p3529
I8
sS'RP_tot'
p3530
I7
sS'TO'
p3531
I5
sS'PA'
p3532
I12
sS'M'
p3533
I10
sS'R'
p3534
I7
sS'TB'
p3535
I6
sS'PL'
p3536
I6
sS'TA'
p3537
I3
ssg108
(dp3538
S's12'
p3539
(ijoueur
joueur
p3540
(dp3541
g27
F9.724137931034482
sg28
I0
sg30
g31
sg32
I0
sg34
I0
sg35
g36
(g37
g38
Ntp3542
Rp3543
(dp3544
g42
I2
sg43
S'<<'
p3545
sg45
S'special'
p3546
sbsg47
(dp3547
S'SR'
p3548
I0
sS'ST'
p3549
I0
sS'CR'
p3550
I0
sS'CT'
p3551
I0
ssg53
(dp3552
g3548
I0
sg3549
I0
sg3550
I0
sg3551
I0
ssg56
I0
sg58
I0
sg531
I0
sg532
I0
sg76
I01
sg60
I0
sg61
I0
sg62
I0
sg63
(S'dummy'
p3553
S'DM'
p3554
g31
g31
tp3555
sg68
I01
sg69
g36
(g37
g38
Ntp3556
Rp3557
(dp3558
g42
I2
sg43
S'<<'
p3559
sg45
g3546
sbsg70
(dp3560
S'SR'
p3561
I0
sS'ST'
p3562
I0
sS'CR'
p3563
I3
sS'CT'
p3564
I0
ssg138
(dp3565
g3561
I0
sg3562
I0
sg3563
I0
sg3564
I0
ssg77
(dp3566
g3561
I0
sg3562
I0
sg3563
I0
sg3564
I0
ssg79
(dp3567
g3548
I0
sg3549
I0
sg3550
I4
sg3551
I3
ssg81
I0
sg82
I0
sg83
S'Meliss'
p3568
sg85
I10
sg86
I0
sg87
I20
sg88
I27
sg89
S'TA'
p3569
sg91
(dp3570
S'A'
p3571
I10
sS'ME'
p3572
I4
sS'RP2'
p3573
I7
sS'E'
p3574
I9
sS'TO'
p3575
I5
sS'RP1'
p3576
I6
sS'JP'
p3577
I8
sS'RP_tot'
p3578
I7
sS'P'
p3579
I12
sS'PA'
p3580
I12
sS'M'
p3581
I10
sS'R'
p3582
I7
sS'TB'
p3583
I6
sS'PL'
p3584
I6
sS'TA'
p3585
I3
ssg108
(dp3586
S's11'
p3587
(ijoueur
joueur
p3588
(dp3589
g28
I0
sg32
I0
sg34
I0
sg35
g36
(g37
g38
Ntp3590
Rp3591
(dp3592
g42
I2
sg43
S'<<'
p3593
sg45
S'special'
p3594
sbsg47
(dp3595
S'SR'
p3596
I0
sS'ST'
p3597
I0
sS'CR'
p3598
I0
sS'CT'
p3599
I0
ssg53
(dp3600
g3596
I0
sg3597
I0
sg3598
I0
sg3599
I0
ssg138
(dp3601
g3596
I0
sg3597
I0
sg3598
I0
sg3599
I0
ssg56
I0
sg58
I0
sg531
I0
sg532
I0
sg60
I0
sg61
I0
sg62
I0
sg63
(S'dummy'
p3602
S'DM'
p3603
g31
g31
tp3604
sg68
I00
sg69
g36
(g37
g38
Ntp3605
Rp3606
(dp3607
g42
I2
sg43
S'<<'
p3608
sg45
g3594
sbsg70
(dp3609
g3596
I0
sg3597
I0
sg3598
I1
sg3599
I3
ssg76
I01
sg77
(dp3610
g3596
I0
sg3597
I0
sg3598
I0
sg3599
I0
ssg79
(dp3611
g3596
I0
sg3597
I0
sg3598
I1
sg3599
I3
ssg81
I0
sg82
I0
sg83
S'Meliss'
p3612
sg85
I10
sg86
I0
sg87
I20
sg88
I27
sg89
S'TA'
p3613
sg91
(dp3614
S'A'
p3615
I10
sS'ME'
p3616
I4
sS'RP2'
p3617
I7
sS'E'
p3618
I10
sS'TO'
p3619
I5
sS'RP1'
p3620
I6
sS'JP'
p3621
I8
sS'RP_tot'
p3622
I7
sS'P'
p3623
I12
sS'PA'
p3624
I12
sS'M'
p3625
I10
sS'R'
p3626
I8
sS'TB'
p3627
I6
sS'PL'
p3628
I7
sS'TA'
p3629
I3
ssg206
I0
sg207
I0
sg208
I0
sg209
I0
sg57
F9.724137931034482
sg210
I0
sg660
I0
sg211
I0
sg212
I0
sg213
(dp3630
S'A'
p3631
I10
sS'ME'
p3632
I4
sS'RP2'
p3633
I7
sS'E'
p3634
I10
sS'TO'
p3635
I5
sS'RP1'
p3636
I6
sS'JP'
p3637
I8
sS'RP_tot'
p3638
I7
sS'P'
p3639
I12
sS'PA'
p3640
I12
sS'M'
p3641
I10
sS'R'
p3642
I8
sS'TB'
p3643
I6
sS'PL'
p3644
I7
sS'TA'
p3645
I3
ssg230
g3614
sg231
I0
sg232
g31
sg233
I0
sg234
I0
sg235
I0
sg236
I3
sg237
I0
sg238
I0
sg239
S'S'
p3646
sbssg206
I0
sg207
I0
sg208
I0
sg209
I0
sg57
F9.448275862068966
sg210
I0
sg660
I0
sg211
I0
sg212
I0
sg213
(dp3647
S'A'
p3648
I10
sS'ME'
p3649
I4
sS'RP2'
p3650
I7
sS'E'
p3651
I10
sS'TO'
p3652
I5
sS'RP1'
p3653
I6
sS'JP'
p3654
I8
sS'RP_tot'
p3655
I7
sS'P'
p3656
I12
sS'PA'
p3657
I12
sS'M'
p3658
I10
sS'R'
p3659
I8
sS'TB'
p3660
I6
sS'PL'
p3661
I7
sS'TA'
p3662
I3
ssg230
g3570
sg231
I0
sg232
g31
sg233
I0
sg234
I0
sg235
I0
sg236
I3
sg237
I0
sg238
I0
sg239
S'S'
p3663
sbsS's11'
p3664
(ijoueur
joueur
p3665
(dp3666
g28
I0
sg32
I0
sg34
I0
sg35
g36
(g37
g38
Ntp3667
Rp3668
(dp3669
g42
I2
sg43
S'<<'
p3670
sg45
S'special'
p3671
sbsg47
(dp3672
S'SR'
p3673
I0
sS'ST'
p3674
I0
sS'CR'
p3675
I0
sS'CT'
p3676
I0
ssg53
(dp3677
g3673
I0
sg3674
I0
sg3675
I0
sg3676
I0
ssg138
(dp3678
g3673
I0
sg3674
I0
sg3675
I0
sg3676
I0
ssg56
I0
sg58
I0
sg531
I0
sg532
I0
sg60
I0
sg61
I0
sg62
I0
sg63
(S'dummy'
p3679
S'DM'
p3680
g31
g31
tp3681
sg68
I00
sg69
g36
(g37
g38
Ntp3682
Rp3683
(dp3684
g42
I2
sg43
S'<<'
p3685
sg45
g3671
sbsg70
(dp3686
g3673
I0
sg3674
I0
sg3675
I1
sg3676
I3
ssg76
I01
sg77
(dp3687
g3673
I0
sg3674
I0
sg3675
I0
sg3676
I0
ssg79
(dp3688
g3673
I0
sg3674
I0
sg3675
I1
sg3676
I3
ssg81
I0
sg82
I0
sg83
S'Meliss'
p3689
sg85
I10
sg86
I0
sg87
I20
sg88
I27
sg89
S'TA'
p3690
sg91
(dp3691
S'A'
p3692
I10
sS'ME'
p3693
I4
sS'RP2'
p3694
I7
sS'E'
p3695
I10
sS'TO'
p3696
I5
sS'RP1'
p3697
I6
sS'JP'
p3698
I8
sS'RP_tot'
p3699
I7
sS'P'
p3700
I12
sS'PA'
p3701
I12
sS'M'
p3702
I10
sS'R'
p3703
I8
sS'TB'
p3704
I6
sS'PL'
p3705
I7
sS'TA'
p3706
I3
ssg206
I0
sg207
I0
sg208
I0
sg209
I0
sg57
F9.724137931034482
sg210
I0
sg660
I0
sg211
I0
sg212
I0
sg213
(dp3707
S'A'
p3708
I10
sS'ME'
p3709
I4
sS'RP2'
p3710
I7
sS'E'
p3711
I10
sS'TO'
p3712
I5
sS'RP1'
p3713
I6
sS'JP'
p3714
I8
sS'RP_tot'
p3715
I7
sS'P'
p3716
I12
sS'PA'
p3717
I12
sS'M'
p3718
I10
sS'R'
p3719
I8
sS'TB'
p3720
I6
sS'PL'
p3721
I7
sS'TA'
p3722
I3
ssg230
g3691
sg231
I0
sg232
g31
sg233
I0
sg234
I0
sg235
I0
sg236
I3
sg237
I0
sg238
I0
sg239
S'S'
p3723
sbssg206
I0
sg207
I0
sg208
I0
sg209
I0
sg138
(dp3724
g72
I0
sg73
I0
sg74
I0
sg75
I0
ssg210
I0
sg59
I0
sg660
I0
sg211
I0
sg212
I0
sg213
(dp3725
S'A'
p3726
I10
sS'ME'
p3727
I4
sS'RP2'
p3728
I7
sS'E'
p3729
I10
sS'TO'
p3730
I5
sS'RP1'
p3731
I6
sS'JP'
p3732
I8
sS'RP_tot'
p3733
I7
sS'P'
p3734
I12
sS'PA'
p3735
I12
sS'M'
p3736
I10
sS'R'
p3737
I8
sS'TB'
p3738
I6
sS'PL'
p3739
I7
sS'TA'
p3740
I3
ssg230
(dp3741
g3523
I10
sg3524
I4
sg3525
I7
sg3526
I9
sg3531
I5
sg3528
I6
sg3529
I8
sg3530
I7
sg3527
I12
sg3532
I12
sg3533
I10
sg3534
I7
sg3535
I6
sg3536
I6
sg3537
I3
ssg231
I0
sg338
(dp3742
sg233
I0
sg232
S'TA 13'
p3743
sg234
I0
sg235
I0
sg236
I6
sg237
I0
sg238
I0
sg239
S'S'
p3744
sbsS'n8'
p3745
g1180
sS'n9'
p3746
(ijoueur
joueur
p3747
(dp3748
g27
F8.413793103448276
sg28
I0
sg29
F8.206896551724139
sg30
g31
sg32
I0
sg33
I0
sg34
I0
sg35
g36
(g37
g38
Ntp3749
Rp3750
(dp3751
g42
I4
sg43
g788
sg45
g789
sbsg47
(dp3752
g49
I0
sg50
I0
sg51
I0
sg52
I0
ssg53
(dp3753
g49
I0
sg50
I0
sg51
I0
sg52
I0
ssg55
I0
sg56
I0
sg57
F9.724137931034482
sg58
I0
sg59
I0
sg60
I0
sg61
I0
sg62
I0
sg63
(g64
S'DM'
p3754
g31
g31
tp3755
sg68
I00
sg69
g36
(g37
g38
Ntp3756
Rp3757
(dp3758
g42
I5
sg43
S'**'
p3759
sg45
S'seigneur'
p3760
sbsg70
(dp3761
g72
I0
sg73
I0
sg74
I0
sg75
I0
ssg76
I00
sg77
(dp3762
g72
I0
sg73
I0
sg74
I0
sg75
I0
ssg79
(dp3763
g49
I0
sg50
I0
sg51
I2
sg52
I24
ssg81
I0
sg82
I0
sg83
S'Tradw'
p3764
sg85
I5
sg86
I0
sg87
I15
sg88
I200
sg89
g90
sg91
(dp3765
g93
I9
sg94
I5
sg95
I8
sg96
I10
sg97
I10
sg98
I13
sg99
I8
sg100
I14
sg101
I5
sg102
I9
sg103
I7
sg104
I14
sg105
I9
sg106
I10
sg107
I7
ssg108
(dp3766
g110
(ijoueur
joueur
p3767
(dp3768
g27
F8.413793103448276
sg28
I0
sg30
g31
sg32
I0
sg34
I0
sg35
g36
(g37
g38
Ntp3769
Rp3770
(dp3771
g42
I4
sg43
g808
sg45
g809
sbsg47
(dp3772
g119
I0
sg120
I0
sg121
I0
sg122
I0
ssg53
(dp3773
g119
I0
sg120
I0
sg121
I0
sg122
I0
ssg56
I0
sg58
I0
sg76
I00
sg60
I0
sg61
I0
sg62
I0
sg63
(g124
S'DM'
p3774
g31
g31
tp3775
sg68
I00
sg69
g36
(g37
g38
Ntp3776
Rp3777
(dp3778
g42
I4
sg43
g808
sg45
g809
sbsg70
(dp3779
g134
I0
sg135
I0
sg136
I1
sg137
I12
ssg138
(dp3780
g134
I0
sg135
I0
sg136
I0
sg137
I0
ssg77
(dp3781
g134
I0
sg135
I0
sg136
I0
sg137
I0
ssg79
(dp3782
g119
I0
sg120
I0
sg121
I2
sg122
I24
ssg81
I0
sg82
I0
sg83
S'Tradw'
p3783
sg85
I5
sg86
I0
sg87
I15
sg88
I100
sg89
g143
sg91
(dp3784
g145
I8
sg146
I5
sg147
I8
sg148
I9
sg149
I4
sg150
I9
sg151
I5
sg152
I10
sg153
I7
sg154
I8
sg155
I7
sg156
I13
sg157
I5
sg158
I10
sg159
I7
ssg108
(dp3785
g161
(ijoueur
joueur
p3786
(dp3787
g28
I0
sg32
I0
sg34
I0
sg35
g36
(g37
g38
Ntp3788
Rp3789
(dp3790
g42
I4
sg43
S'x'
p3791
sg45
S'heros'
p3792
sbsg47
(dp3793
S'SR'
p3794
I0
sS'CT'
p3795
I0
sS'CR'
p3796
I0
sS'ST'
p3797
I0
ssg53
(dp3798
g3794
I0
sg3795
I0
sg3796
I0
sg3797
I0
ssg56
I0
sg58
I0
sg76
I00
sg60
I1
sg61
I0
sg62
I0
sg63
(S'dummy'
p3799
S'DM'
p3800
g31
g31
tp3801
sg68
I00
sg69
g36
(g37
g38
Ntp3802
Rp3803
(dp3804
g42
I4
sg43
g3791
sg45
g3792
sbsg70
(dp3805
g3794
I0
sg3795
I12
sg3796
I1
sg3797
I0
ssg138
(dp3806
g3794
I0
sg3795
I0
sg3796
I0
sg3797
I0
ssg77
(dp3807
g3794
I0
sg3795
I0
sg3796
I0
sg3797
I0
ssg79
(dp3808
g3794
I0
sg3795
I12
sg3796
I1
sg3797
I0
ssg81
I0
sg82
I0
sg83
S'Tradw'
p3809
sg85
I5
sg86
I0
sg87
I15
sg88
I100
sg89
S'GP'
p3810
sg91
(dp3811
S'A'
p3812
I8
sS'ME'
p3813
I5
sS'RP2'
p3814
I8
sS'E'
p3815
I10
sS'P'
p3816
I6
sS'RP1'
p3817
I9
sS'JP'
p3818
I5
sS'RP_tot'
p3819
I10
sS'TO'
p3820
I4
sS'PA'
p3821
I9
sS'M'
p3822
I7
sS'R'
p3823
I12
sS'TB'
p3824
I5
sS'PL'
p3825
I10
sS'TA'
p3826
I7
ssg206
I0
sg207
I0
sg208
I0
sg209
I0
sg57
F8.413793103448276
sg210
I0
sg211
I0
sg212
I0
sg213
(dp3827
S'A'
p3828
I8
sS'ME'
p3829
I5
sS'RP2'
p3830
I8
sS'E'
p3831
I10
sS'P'
p3832
I6
sS'RP1'
p3833
I9
sS'JP'
p3834
I5
sS'RP_tot'
p3835
I10
sS'TO'
p3836
I4
sS'PA'
p3837
I9
sS'M'
p3838
I7
sS'R'
p3839
I12
sS'TB'
p3840
I5
sS'PL'
p3841
I10
sS'TA'
p3842
I7
ssg230
g3811
sg231
I0
sg232
g31
sg233
I0
sg234
I0
sg235
I0
sg236
I10
sg237
I1
sg238
I0
sg239
S'HL'
p3843
sbssg206
I0
sg207
I0
sg208
I0
sg209
I0
sg57
F8.206896551724139
sg210
I0
sg211
I0
sg212
I0
sg213
(dp3844
g242
I8
sg243
I5
sg244
I8
sg245
I10
sg246
I4
sg247
I9
sg248
I5
sg249
I10
sg250
I6
sg251
I9
sg252
I7
sg253
I12
sg254
I5
sg255
I10
sg256
I7
ssg230
g3784
sg231
I0
sg232
g31
sg233
I0
sg234
I0
sg235
I0
sg236
I10
sg237
I1
sg238
I0
sg239
S'HL'
p3845
sbsg258
(ijoueur
joueur
p3846
(dp3847
g28
I0
sg32
I0
sg34
I0
sg35
g36
(g37
g38
Ntp3848
Rp3849
(dp3850
g42
I4
sg43
S'x'
p3851
sg45
S'heros'
p3852
sbsg47
(dp3853
S'SR'
p3854
I0
sS'CT'
p3855
I0
sS'CR'
p3856
I0
sS'ST'
p3857
I0
ssg53
(dp3858
g3854
I0
sg3855
I0
sg3856
I0
sg3857
I0
ssg56
I0
sg58
I0
sg76
I00
sg60
I1
sg61
I0
sg62
I0
sg63
(S'dummy'
p3859
S'DM'
p3860
g31
g31
tp3861
sg68
I00
sg69
g36
(g37
g38
Ntp3862
Rp3863
(dp3864
g42
I4
sg43
g3851
sg45
g3852
sbsg70
(dp3865
g3854
I0
sg3855
I12
sg3856
I1
sg3857
I0
ssg138
(dp3866
g3854
I0
sg3855
I0
sg3856
I0
sg3857
I0
ssg77
(dp3867
g3854
I0
sg3855
I0
sg3856
I0
sg3857
I0
ssg79
(dp3868
g3854
I0
sg3855
I12
sg3856
I1
sg3857
I0
ssg81
I0
sg82
I0
sg83
S'Tradw'
p3869
sg85
I5
sg86
I0
sg87
I15
sg88
I100
sg89
S'GP'
p3870
sg91
(dp3871
S'A'
p3872
I8
sS'ME'
p3873
I5
sS'RP2'
p3874
I8
sS'E'
p3875
I10
sS'P'
p3876
I6
sS'RP1'
p3877
I9
sS'JP'
p3878
I5
sS'RP_tot'
p3879
I10
sS'TO'
p3880
I4
sS'PA'
p3881
I9
sS'M'
p3882
I7
sS'R'
p3883
I12
sS'TB'
p3884
I5
sS'PL'
p3885
I10
sS'TA'
p3886
I7
ssg206
I0
sg207
I0
sg208
I0
sg209
I0
sg57
F8.413793103448276
sg210
I0
sg211
I0
sg212
I0
sg213
(dp3887
S'A'
p3888
I8
sS'ME'
p3889
I5
sS'RP2'
p3890
I8
sS'E'
p3891
I10
sS'P'
p3892
I6
sS'RP1'
p3893
I9
sS'JP'
p3894
I5
sS'RP_tot'
p3895
I10
sS'TO'
p3896
I4
sS'PA'
p3897
I9
sS'M'
p3898
I7
sS'R'
p3899
I12
sS'TB'
p3900
I5
sS'PL'
p3901
I10
sS'TA'
p3902
I7
ssg230
g3871
sg231
I0
sg232
g31
sg233
I0
sg234
I0
sg235
I0
sg236
I10
sg237
I1
sg238
I0
sg239
S'HL'
p3903
sbssg206
I0
sg207
I0
sg208
I0
sg209
I0
sg138
(dp3904
g72
I0
sg73
I0
sg74
I0
sg75
I0
ssg210
I0
sg211
I0
sg212
I0
sg213
(dp3905
g322
I8
sg323
I5
sg324
I8
sg325
I10
sg326
I4
sg327
I9
sg328
I5
sg329
I10
sg330
I6
sg331
I9
sg332
I7
sg333
I12
sg334
I5
sg335
I10
sg336
I7
ssg230
(dp3906
g93
I9
sg94
I5
sg95
I8
sg96
I10
sg101
I5
sg98
I13
sg99
I8
sg100
I14
sg97
I10
sg102
I9
sg103
I7
sg104
I14
sg105
I9
sg106
I10
sg107
I7
ssg231
I0
sg338
(dp3907
sg233
I0
sg232
g31
sg234
I0
sg235
I0
sg236
I20
sg237
I1
sg238
I0
sg239
S'HL'
p3908
sbsS'n1'
p3909
(ijoueur
joueur
p3910
(dp3911
g27
F9.0
sg28
I0
sg29
F9.703703703703704
sg30
g31
sg32
I0
sg33
I0
sg34
I0
sg35
g36
(g37
g38
Ntp3912
Rp3913
(dp3914
g42
I4
sg43
g1761
sg45
g789
sbsg47
(dp3915
g49
I0
sg50
I0
sg51
I0
sg52
I0
ssg53
(dp3916
g49
I0
sg50
I0
sg51
I0
sg52
I0
ssg55
I0
sg56
I0
sg57
F10.185185185185185
sg58
I0
sg59
I0
sg60
I0
sg61
I0
sg62
I0
sg63
(g64
S'PI'
p3917
g31
g31
tp3918
sg68
I00
sg69
g36
(g37
g38
Ntp3919
Rp3920
(dp3921
g42
I4
sg43
g1761
sg45
g789
sbsg70
(dp3922
g72
I0
sg73
I0
sg74
I0
sg75
I0
ssg76
I00
sg77
(dp3923
g72
I0
sg73
I0
sg74
I0
sg75
I0
ssg79
(dp3924
g49
I0
sg50
I0
sg51
I12
sg52
I16
ssg81
I0
sg82
I0
sg83
S'Zwiek'
p3925
sg85
I8
sg86
I0
sg87
I18
sg88
I65
sg89
g90
sg91
(dp3926
g93
I9
sg94
I11
sg95
I12
sg96
I10
sg97
I4
sg98
I9
sg99
I3
sg100
I13
sg101
I3
sg102
I7
sg103
I11
sg104
I10
sg105
I3
sg106
I8
sg107
I7
ssg108
(dp3927
g110
(ijoueur
joueur
p3928
(dp3929
g27
F9.0
sg28
I0
sg30
g31
sg32
I0
sg34
I0
sg35
g36
(g37
g38
Ntp3930
Rp3931
(dp3932
g42
I4
sg43
g1777
sg45
g809
sbsg47
(dp3933
g119
I0
sg120
I0
sg121
I0
sg122
I0
ssg53
(dp3934
g119
I0
sg120
I0
sg121
I0
sg122
I0
ssg56
I0
sg58
I0
sg76
I00
sg60
I1
sg61
I0
sg62
I0
sg63
(g124
S'PI'
p3935
g31
g31
tp3936
sg68
I00
sg69
g36
(g37
g38
Ntp3937
Rp3938
(dp3939
g42
I4
sg43
g1777
sg45
g809
sbsg70
(dp3940
g134
I0
sg135
I0
sg136
I10
sg137
I5
ssg138
(dp3941
g134
I0
sg135
I0
sg136
I0
sg137
I0
ssg77
(dp3942
g134
I0
sg135
I0
sg136
I0
sg137
I0
ssg79
(dp3943
g119
I0
sg120
I0
sg121
I12
sg122
I16
ssg81
I0
sg82
I0
sg83
S'Zwiek'
p3944
sg85
I8
sg86
I0
sg87
I18
sg88
I65
sg89
g143
sg91
(dp3945
g145
I9
sg146
I10
sg147
I10
sg148
I10
sg149
I3
sg150
I9
sg151
I3
sg152
I12
sg153
I4
sg154
I7
sg155
I11
sg156
I10
sg157
I3
sg158
I7
sg159
I6
ssg108
(dp3946
g161
(ijoueur
joueur
p3947
(dp3948
g28
I0
sg32
I0
sg34
I0
sg35
g36
(g37
g38
Ntp3949
Rp3950
(dp3951
g42
I4
sg43
S'*'
p3952
sg45
S'heros'
p3953
sbsg47
(dp3954
S'SR'
p3955
I0
sS'CT'
p3956
I0
sS'CR'
p3957
I0
sS'ST'
p3958
I0
ssg53
(dp3959
g3955
I0
sg3956
I0
sg3957
I0
sg3958
I0
ssg56
I0
sg58
I0
sg76
I00
sg60
I0
sg61
I0
sg62
I0
sg63
(S'dummy'
p3960
S'PI'
p3961
g31
g31
tp3962
sg68
I00
sg69
g36
(g37
g38
Ntp3963
Rp3964
(dp3965
g42
I4
sg43
g3952
sg45
g3953
sbsg70
(dp3966
g3955
I0
sg3956
I11
sg3957
I2
sg3958
I0
ssg138
(dp3967
g3955
I0
sg3956
I0
sg3957
I0
sg3958
I0
ssg77
(dp3968
g3955
I0
sg3956
I0
sg3957
I0
sg3958
I0
ssg79
(dp3969
g3955
I0
sg3956
I11
sg3957
I2
sg3958
I0
ssg81
I0
sg82
I0
sg83
S'Zwiek'
p3970
sg85
I8
sg86
I0
sg87
I18
sg88
I65
sg89
S'GP'
p3971
sg91
(dp3972
S'A'
p3973
I8
sS'ME'
p3974
I9
sS'RP2'
p3975
I10
sS'E'
p3976
I10
sS'P'
p3977
I4
sS'RP1'
p3978
I9
sS'JP'
p3979
I3
sS'RP_tot'
p3980
I12
sS'TO'
p3981
I3
sS'PA'
p3982
I7
sS'M'
p3983
I11
sS'R'
p3984
I8
sS'TB'
p3985
I3
sS'PL'
p3986
I7
sS'TA'
p3987
I7
ssg206
I0
sg207
I0
sg208
I0
sg209
I0
sg57
F9.0
sg210
I0
sg211
I0
sg212
I0
sg213
(dp3988
S'A'
p3989
I8
sS'ME'
p3990
I9
sS'RP2'
p3991
I10
sS'E'
p3992
I10
sS'P'
p3993
I4
sS'RP1'
p3994
I9
sS'JP'
p3995
I3
sS'RP_tot'
p3996
I12
sS'TO'
p3997
I3
sS'PA'
p3998
I7
sS'M'
p3999
I11
sS'R'
p4000
I8
sS'TB'
p4001
I3
sS'PL'
p4002
I7
sS'TA'
p4003
I7
ssg230
g3972
sg231
I0
sg232
g31
sg233
I0
sg234
I0
sg235
I0
sg236
I7
sg237
I0
sg238
I0
sg239
S'HL'
p4004
sbssg206
I0
sg207
I0
sg208
I0
sg209
I0
sg57
F9.703703703703704
sg210
I0
sg211
I0
sg212
I0
sg213
(dp4005
g242
I8
sg243
I9
sg244
I10
sg245
I10
sg246
I3
sg247
I9
sg248
I3
sg249
I12
sg250
I4
sg251
I7
sg252
I11
sg253
I8
sg254
I3
sg255
I7
sg256
I7
ssg230
g3945
sg231
I0
sg232
g31
sg233
I0
sg234
I0
sg235
I0
sg236
I7
sg237
I1
sg238
I0
sg239
S'HL'
p4006
sbsg258
(ijoueur
joueur
p4007
(dp4008
g28
I0
sg32
I0
sg34
I0
sg35
g36
(g37
g38
Ntp4009
Rp4010
(dp4011
g42
I4
sg43
S'*'
p4012
sg45
S'heros'
p4013
sbsg47
(dp4014
S'SR'
p4015
I0
sS'CT'
p4016
I0
sS'CR'
p4017
I0
sS'ST'
p4018
I0
ssg53
(dp4019
g4015
I0
sg4016
I0
sg4017
I0
sg4018
I0
ssg56
I0
sg58
I0
sg76
I00
sg60
I0
sg61
I0
sg62
I0
sg63
(S'dummy'
p4020
S'PI'
p4021
g31
g31
tp4022
sg68
I00
sg69
g36
(g37
g38
Ntp4023
Rp4024
(dp4025
g42
I4
sg43
g4012
sg45
g4013
sbsg70
(dp4026
g4015
I0
sg4016
I11
sg4017
I2
sg4018
I0
ssg138
(dp4027
g4015
I0
sg4016
I0
sg4017
I0
sg4018
I0
ssg77
(dp4028
g4015
I0
sg4016
I0
sg4017
I0
sg4018
I0
ssg79
(dp4029
g4015
I0
sg4016
I11
sg4017
I2
sg4018
I0
ssg81
I0
sg82
I0
sg83
S'Zwiek'
p4030
sg85
I8
sg86
I0
sg87
I18
sg88
I65
sg89
S'GP'
p4031
sg91
(dp4032
S'A'
p4033
I8
sS'ME'
p4034
I9
sS'RP2'
p4035
I10
sS'E'
p4036
I10
sS'P'
p4037
I4
sS'RP1'
p4038
I9
sS'JP'
p4039
I3
sS'RP_tot'
p4040
I12
sS'TO'
p4041
I3
sS'PA'
p4042
I7
sS'M'
p4043
I11
sS'R'
p4044
I8
sS'TB'
p4045
I3
sS'PL'
p4046
I7
sS'TA'
p4047
I7
ssg206
I0
sg207
I0
sg208
I0
sg209
I0
sg57
F9.0
sg210
I0
sg211
I0
sg212
I0
sg213
(dp4048
S'A'
p4049
I8
sS'ME'
p4050
I9
sS'RP2'
p4051
I10
sS'E'
p4052
I10
sS'P'
p4053
I4
sS'RP1'
p4054
I9
sS'JP'
p4055
I3
sS'RP_tot'
p4056
I12
sS'TO'
p4057
I3
sS'PA'
p4058
I7
sS'M'
p4059
I11
sS'R'
p4060
I8
sS'TB'
p4061
I3
sS'PL'
p4062
I7
sS'TA'
p4063
I7
ssg230
g4032
sg231
I0
sg232
g31
sg233
I0
sg234
I0
sg235
I0
sg236
I7
sg237
I0
sg238
I0
sg239
S'HL'
p4064
sbssg206
I0
sg207
I0
sg208
I0
sg209
I0
sg138
(dp4065
g72
I0
sg73
I0
sg74
I0
sg75
I0
ssg210
I0
sg211
I0
sg212
I0
sg213
(dp4066
g322
I8
sg323
I9
sg324
I10
sg325
I10
sg326
I3
sg327
I9
sg328
I3
sg329
I12
sg330
I4
sg331
I7
sg332
I11
sg333
I8
sg334
I3
sg335
I7
sg336
I7
ssg230
(dp4067
g93
I9
sg94
I11
sg95
I12
sg96
I10
sg101
I3
sg98
I9
sg99
I3
sg100
I13
sg97
I4
sg102
I7
sg103
I11
sg104
I10
sg105
I3
sg106
I8
sg107
I7
ssg231
I0
sg338
(dp4068
sg233
I0
sg232
g31
sg234
I0
sg235
I0
sg236
I7
sg237
I1
sg238
I0
sg239
S'HL'
p4069
sbsS'n2'
p4070
(ijoueur
joueur
p4071
(dp4072
g27
F10.555555555555555
sg28
I0
sg29
F11.185185185185185
sg30
g31
sg32
I0
sg33
I0
sg34
I0
sg35
g36
(g37
g38
Ntp4073
Rp4074
(dp4075
g42
I5
sg43
S'xx'
p4076
sg45
g46
sbsg47
(dp4077
g49
I0
sg50
I0
sg51
I0
sg52
I0
ssg53
(dp4078
g49
I0
sg50
I0
sg51
I0
sg52
I0
ssg55
I0
sg56
I0
sg57
F11.185185185185185
sg58
I0
sg59
I0
sg60
I0
sg61
I0
sg62
I0
sg63
(g64
S'PI'
p4079
S'TA'
p4080
S'N8'
p4081
tp4082
sg68
I00
sg69
g36
(g37
g38
Ntp4083
Rp4084
(dp4085
g42
I5
sg43
S'xx'
p4086
sg45
g46
sbsg70
(dp4087
g72
I0
sg73
I0
sg74
I0
sg75
I0
ssg76
I00
sg77
(dp4088
g72
I0
sg73
I0
sg74
I0
sg75
I0
ssg79
(dp4089
g49
I1
sg50
I5
sg51
I1
sg52
I25
ssg81
I0
sg82
I0
sg83
S"Nav'Pil"
p4090
sg85
I6
sg86
I0
sg87
I18
sg88
I350
sg89
g90
sg91
(dp4091
g93
I8
sg94
I12
sg95
I7
sg96
I10
sg97
I5
sg98
I14
sg99
I3
sg100
I14
sg101
I4
sg102
I6
sg103
I8
sg104
I14
sg105
I5
sg106
I8
sg107
I11
ssg108
(dp4092
g110
(ijoueur
joueur
p4093
(dp4094
g27
F10.555555555555555
sg28
I0
sg30
g31
sg32
I0
sg34
I0
sg35
g36
(g37
g38
Ntp4095
Rp4096
(dp4097
g42
I5
sg43
S'xx'
p4098
sg45
g117
sbsg47
(dp4099
g119
I0
sg120
I0
sg121
I0
sg122
I0
ssg53
(dp4100
g119
I0
sg120
I0
sg121
I0
sg122
I0
ssg56
I0
sg58
I0
sg76
I00
sg60
I0
sg61
I0
sg62
I0
sg63
(g124
S'PI'
p4101
S'TA'
p4102
S'N8'
p4103
tp4104
sg68
I00
sg69
g36
(g37
g38
Ntp4105
Rp4106
(dp4107
g42
I5
sg43
S'xx'
p4108
sg45
g117
sbsg70
(dp4109
g134
I0
sg135
I5
sg136
I0
sg137
I13
ssg138
(dp4110
g134
I0
sg135
I0
sg136
I0
sg137
I0
ssg77
(dp4111
g134
I0
sg135
I0
sg136
I0
sg137
I0
ssg79
(dp4112
g119
I1
sg120
I5
sg121
I1
sg122
I25
ssg81
I0
sg82
I0
sg83
S"Nav'Pil"
p4113
sg85
I6
sg86
I0
sg87
I18
sg88
I350
sg89
g143
sg91
(dp4114
g145
I8
sg146
I12
sg147
I7
sg148
I10
sg149
I4
sg150
I14
sg151
I3
sg152
I14
sg153
I5
sg154
I6
sg155
I8
sg156
I14
sg157
I5
sg158
I8
sg159
I11
ssg108
(dp4115
g161
(ijoueur
joueur
p4116
(dp4117
g28
I0
sg32
I0
sg34
I0
sg35
g36
(g37
g38
Ntp4118
Rp4119
(dp4120
g42
I5
sg43
S'xx'
p4121
sg45
S'seigneur'
p4122
sbsg47
(dp4123
S'SR'
p4124
I0
sS'CT'
p4125
I0
sS'CR'
p4126
I0
sS'ST'
p4127
I0
ssg53
(dp4128
g4124
I0
sg4125
I0
sg4126
I0
sg4127
I0
ssg56
I0
sg58
I0
sg76
I00
sg60
I0
sg61
I0
sg62
I0
sg63
(S'dummy'
p4129
S'PI'
p4130
S'TA'
p4131
S'N8'
p4132
tp4133
sg68
I00
sg69
g36
(g37
g38
Ntp4134
Rp4135
(dp4136
g42
I5
sg43
S'xx'
p4137
sg45
g4122
sbsg70
(dp4138
g4124
I1
sg4125
I12
sg4126
I1
sg4127
I0
ssg138
(dp4139
g4124
I0
sg4125
I0
sg4126
I0
sg4127
I0
ssg77
(dp4140
g4124
I0
sg4125
I0
sg4126
I0
sg4127
I0
ssg79
(dp4141
g4124
I1
sg4125
I12
sg4126
I1
sg4127
I0
ssg81
I0
sg82
I0
sg83
S"Nav'Pil"
p4142
sg85
I6
sg86
I0
sg87
I18
sg88
I350
sg89
S'GP'
p4143
sg91
(dp4144
S'A'
p4145
I8
sS'ME'
p4146
I10
sS'RP2'
p4147
I7
sS'E'
p4148
I10
sS'P'
p4149
I5
sS'RP1'
p4150
I14
sS'JP'
p4151
I3
sS'RP_tot'
p4152
I14
sS'TO'
p4153
I4
sS'PA'
p4154
I6
sS'M'
p4155
I7
sS'R'
p4156
I13
sS'TB'
p4157
I5
sS'PL'
p4158
I8
sS'TA'
p4159
I11
ssg206
I0
sg207
I0
sg208
I1
sg209
I0
sg57
F10.586206896551724
sg210
I0
sg211
I1
sg212
I0
sg213
(dp4160
S'A'
p4161
I8
sS'ME'
p4162
I10
sS'RP2'
p4163
I7
sS'E'
p4164
I10
sS'P'
p4165
I5
sS'RP1'
p4166
I14
sS'JP'
p4167
I3
sS'RP_tot'
p4168
I14
sS'TO'
p4169
I4
sS'PA'
p4170
I6
sS'M'
p4171
I7
sS'R'
p4172
I13
sS'TB'
p4173
I5
sS'PL'
p4174
I8
sS'TA'
p4175
I11
ssg230
g4144
sg231
I0
sg232
g31
sg233
I0
sg234
I0
sg235
I0
sg236
I35
sg237
I0
sg238
I0
sg239
S'HL'
p4176
sbssg206
I1
sg207
I0
sg208
I1
sg209
I0
sg57
F11.185185185185185
sg210
I0
sg211
I0
sg212
I0
sg213
(dp4177
g242
I8
sg243
I10
sg244
I7
sg245
I10
sg246
I4
sg247
I14
sg248
I3
sg249
I14
sg250
I5
sg251
I6
sg252
I7
sg253
I13
sg254
I5
sg255
I8
sg256
I11
ssg230
g4114
sg231
I0
sg232
g31
sg233
I0
sg234
I0
sg235
I0
sg236
I35
sg237
I0
sg238
I0
sg239
S'HL'
p4178
sbsg258
(ijoueur
joueur
p4179
(dp4180
g28
I0
sg32
I0
sg34
I0
sg35
g36
(g37
g38
Ntp4181
Rp4182
(dp4183
g42
I5
sg43
S'xx'
p4184
sg45
S'seigneur'
p4185
sbsg47
(dp4186
S'SR'
p4187
I0
sS'CT'
p4188
I0
sS'CR'
p4189
I0
sS'ST'
p4190
I0
ssg53
(dp4191
g4187
I0
sg4188
I0
sg4189
I0
sg4190
I0
ssg56
I0
sg58
I0
sg76
I00
sg60
I0
sg61
I0
sg62
I0
sg63
(S'dummy'
p4192
S'PI'
p4193
S'TA'
p4194
S'N8'
p4195
tp4196
sg68
I00
sg69
g36
(g37
g38
Ntp4197
Rp4198
(dp4199
g42
I5
sg43
S'xx'
p4200
sg45
g4185
sbsg70
(dp4201
g4187
I1
sg4188
I12
sg4189
I1
sg4190
I0
ssg138
(dp4202
g4187
I0
sg4188
I0
sg4189
I0
sg4190
I0
ssg77
(dp4203
g4187
I0
sg4188
I0
sg4189
I0
sg4190
I0
ssg79
(dp4204
g4187
I1
sg4188
I12
sg4189
I1
sg4190
I0
ssg81
I0
sg82
I0
sg83
S"Nav'Pil"
p4205
sg85
I6
sg86
I0
sg87
I18
sg88
I350
sg89
S'GP'
p4206
sg91
(dp4207
S'A'
p4208
I8
sS'ME'
p4209
I10
sS'RP2'
p4210
I7
sS'E'
p4211
I10
sS'P'
p4212
I5
sS'RP1'
p4213
I14
sS'JP'
p4214
I3
sS'RP_tot'
p4215
I14
sS'TO'
p4216
I4
sS'PA'
p4217
I6
sS'M'
p4218
I7
sS'R'
p4219
I13
sS'TB'
p4220
I5
sS'PL'
p4221
I8
sS'TA'
p4222
I11
ssg206
I0
sg207
I0
sg208
I1
sg209
I0
sg57
F10.586206896551724
sg210
I0
sg211
I1
sg212
I0
sg213
(dp4223
S'A'
p4224
I8
sS'ME'
p4225
I10
sS'RP2'
p4226
I7
sS'E'
p4227
I10
sS'P'
p4228
I5
sS'RP1'
p4229
I14
sS'JP'
p4230
I3
sS'RP_tot'
p4231
I14
sS'TO'
p4232
I4
sS'PA'
p4233
I6
sS'M'
p4234
I7
sS'R'
p4235
I13
sS'TB'
p4236
I5
sS'PL'
p4237
I8
sS'TA'
p4238
I11
ssg230
g4207
sg231
I0
sg232
g31
sg233
I0
sg234
I0
sg235
I0
sg236
I35
sg237
I0
sg238
I0
sg239
S'HL'
p4239
sbssg206
I0
sg207
I0
sg208
I1
sg209
I0
sg138
(dp4240
g72
I0
sg73
I0
sg74
I0
sg75
I0
ssg210
I0
sg211
I0
sg212
I0
sg213
(dp4241
g322
I8
sg323
I10
sg324
I7
sg325
I10
sg326
I4
sg327
I14
sg328
I3
sg329
I14
sg330
I5
sg331
I6
sg332
I7
sg333
I13
sg334
I5
sg335
I8
sg336
I11
ssg230
(dp4242
g93
I8
sg94
I12
sg95
I7
sg96
I10
sg101
I4
sg98
I14
sg99
I3
sg100
I14
sg97
I5
sg102
I6
sg103
I8
sg104
I14
sg105
I5
sg106
I8
sg107
I11
ssg231
I0
sg338
(dp4243
sg233
I0
sg232
g31
sg234
I0
sg235
I0
sg236
I35
sg237
I0
sg238
I0
sg239
S'HL'
p4244
sbsS'n3'
p4245
g517
sS'n4'
p4246
g1519
sS'n5'
p4247
g1917
sS'n6'
p4248
g25
sS'n7'
p4249
g783
ssS'remplacements'
p4250
(dp4251
g3497
S'n0'
p4252
sg2516
g4252
sg2681
g4252
sg3408
g4252
sg3070
g4252
sg3233
g4252
sg3496
g4252
ssb.