(iclub
compo
p0
(dp1
S'caracs_old'
p2
(dp3
S'A'
p4
I0
sS'ME'
p5
I0
sS'E'
p6
I0
sS'OplusAV'
p7
I0
sS'OplusAR'
p8
I0
sS'JP'
p9
I0
sS'PA'
p10
I0
sS'M'
p11
I0
sS'OmoinsAR'
p12
I0
sS'TO_off'
p13
I0
sS'TO_def'
p14
I0
sS'OmoinsAV'
p15
I0
sS'R'
p16
I0
ssS'totaux_old'
p17
(dp18
S'T2'
p19
I0
sS'T3'
p20
I0
sS'T1'
p21
I0
ssS'roles'
p22
(dp23
S'SA_scd'
p24
(ijoueur
joueur
p25
(dp26
S'rouges_total'
p27
I0
sS'drops_total'
p28
I0
sS'poste3'
p29
S''
p30
sS'blessure'
p31
I0
sS'poste1'
p32
g30
sS'RG_max'
p33
ccopy_reg
_reconstructor
p34
(cjoueur
rang_new
p35
c__builtin__
object
p36
Ntp37
Rp38
(dp39
S'rang'
p40
g30
sbsS'MJ2_total'
p41
(dp42
S'SR'
p43
I0
sS'ST'
p44
I0
sS'CR'
p45
I0
sS'CT'
p46
I0
ssS'MJ3_total'
p47
(dp48
g43
I0
sg44
I0
sg45
I0
sg46
I0
ssS'anciens_clubs'
p49
g30
sS'transformations_saison'
p50
I0
sS'drop_rates_saison'
p51
I0
sS'essais_saison'
p52
I0
sS'penalite_ratees_saison'
p53
I0
sS'postes'
p54
(S'dummy'
p55
g30
g30
g30
tp56
sS'club'
p57
g30
sS'RG'
p58
g34
(g35
g36
Ntp59
Rp60
(dp61
g40
g30
sbsS'MJ1'
p62
(dp63
g43
I0
sg44
I0
sg45
I0
sg46
I0
ssS'MJ2'
p64
(dp65
g43
I0
sg44
I0
sg45
I0
sg46
I0
ssS'MJ3'
p66
(dp67
g43
I0
sg44
I0
sg45
I0
sg46
I0
ssS'MJ1_total'
p68
(dp69
g43
I0
sg44
I0
sg45
I0
sg46
I0
ssS'penalites_total'
p70
I0
sS'penalites_saison'
p71
I0
sS'nom'
p72
g30
sS'C'
p73
I0
sS'transformations_total'
p74
I0
sS'D'
p75
I0
sS'VAL'
p76
I0
sS'caracs_sans_fatigue'
p77
(dp78
g4
I0
sg5
I0
sS'RP2'
p79
I0
sg6
I0
sS'TO'
p80
I0
sS'RP1'
p81
I0
sg9
I0
sS'RP_tot'
p82
I0
sS'P'
p83
I0
sg10
I0
sg11
I0
sg16
I0
sS'TB'
p84
I0
sS'PL'
p85
I0
sS'TA'
p86
I0
ssS'poste2'
p87
g30
sS'caracs'
p88
g78
sS'fatigue'
p89
I0
sS'drop_ratees_total'
p90
I0
sS'blessures_total'
p91
I0
sS'XP'
p92
I0
sS'EV'
p93
I0
sS'penalite_ratees_total'
p94
I0
sS'blessures_saison'
p95
I0
sS'jaunes_total'
p96
I0
sS'transformation_ratees_saison'
p97
I0
sS'rouges_saison'
p98
I0
sS'transformation_ratees_total'
p99
I0
sS'drops_saison'
p100
I0
sS'MS'
p101
I0
sS'essais_total'
p102
I0
sS'jaunes_saison'
p103
I0
sS'ARM'
p104
g30
sbsS'drop3'
p105
g25
sS'cap'
p106
g25
sS'SA_pcp1'
p107
g25
sS'B4'
p108
g25
sS'RJC'
p109
g25
sS'B1'
p110
g25
sS'B2'
p111
g25
sS'B3'
p112
g25
sS'SA_pcp2'
p113
g25
sS'drop2'
p114
g25
sS'RJL'
p115
g25
sS'SA_remp1'
p116
g25
sS'drop1'
p117
g25
sS'SA_remp2'
p118
g25
ssS'totaux'
p119
(dp120
g19
I0
sg20
I0
sg21
I0
ssS'_compo_defaut_fatigue'
p121
Nsg88
(dp122
g4
I0
sg5
I0
sg6
I0
sg7
I0
sg8
I0
sg9
I0
sg10
I0
sg11
I0
sg12
I0
sg13
I0
sg14
I0
sg15
I0
sg16
I0
ssS'joueurs'
p123
(dp124
S'n12'
p125
g25
sS'n13'
p126
g25
sS'n10'
p127
g25
sS'n11'
p128
g25
sS'n16'
p129
g25
sS'n17'
p130
g25
sS'n14'
p131
g25
sS'n15'
p132
g25
sS'n18'
p133
g25
sS'n19'
p134
g25
sS'n22'
p135
g25
sS'n21'
p136
g25
sS'n20'
p137
g25
sS'n8'
p138
g25
sS'n9'
p139
g25
sS'n1'
p140
g25
sS'n2'
p141
g25
sS'n3'
p142
g25
sS'n4'
p143
g25
sS'n5'
p144
g25
sS'n6'
p145
g25
sS'n7'
p146
g25
ssS'remplacements'
p147
(dp148
g137
S'n0'
p149
sg129
g149
sg130
g149
sg135
g149
sg133
g149
sg134
g149
sg136
g149
ssb.