(iclub
compo
p0
(dp1
S'caracs_old'
p2
(dp3
S'A'
p4
F207.5
sS'ME'
p5
F109.5
sS'E'
p6
I232
sS'OplusAV'
p7
F74.5
sS'TO_off'
p8
F114.5
sS'OplusAR'
p9
F74.5
sS'M'
p10
F56.5
sS'JP'
p11
F102.0
sS'OmoinsAR'
p12
F100.5
sS'PA'
p13
F126.0
sS'TO_def'
p14
F105.0
sS'OmoinsAV'
p15
F77.5
sS'R'
p16
F190.0
ssS'totaux_old'
p17
(dp18
S'T2'
p19
F217.75
sS'T3'
p20
F116.0
sS'T1'
p21
F204.625
ssS'roles'
p22
(dp23
S'drop1'
p24
(ijoueur
joueur
p25
(dp26
S'rouges_total'
p27
I0
sS'drops_total'
p28
I58
sS'blessure'
p29
I0
sS'RG_max'
p30
(ijoueur
rang
p31
(dp32
S'type_nb'
p33
I6
sS'rang'
p34
S'***'
p35
sS'type'
p36
S'personnage'
p37
sbsS'MJ2_total'
p38
(dp39
S'SR'
p40
I0
sS'CT'
p41
I0
sS'CR'
p42
I0
sS'ST'
p43
I0
ssS'MJ3_total'
p44
(dp45
g40
I0
sg41
I0
sg42
I0
sg43
I0
ssS'drop_rates_total'
p46
I0
sS'drop_rates_saison'
p47
I0
sS'transformations'
p48
I359
sS'penalites'
p49
I448
sS'essais_saison'
p50
I1
sS'penalite_ratees_saison'
p51
I1
sS'transformations_saison'
p52
I7
sS'postes'
p53
(S'dummy'
p54
S'AR'
p55
S'AI'
p56
S'CE'
p57
tp58
sS'RG'
p59
(ijoueur
rang
p60
(dp61
g33
I6
sg34
S'***'
p62
sg36
g37
sbsS'MJ1'
p63
(dp64
g40
I0
sg41
I2
sg42
I0
sg43
I0
ssS'MJ2'
p65
(dp66
g40
I0
sg41
I0
sg42
I0
sg43
I0
ssS'MJ3'
p67
(dp68
g40
I0
sg41
I0
sg42
I0
sg43
I0
ssS'MJ1_total'
p69
(dp70
g40
I0
sg41
I2
sg42
I0
sg43
I0
ssS'penalites_total'
p71
I448
sS'penalites_saison'
p72
I0
sS'nom'
p73
S'Lamenoire'
p74
sS'C'
p75
I0
sS'transformations_total'
p76
I360
sS'D'
p77
I11
sS'VAL'
p78
I510
sS'club'
p79
S'DKF'
p80
sS'caracs'
p81
(dp82
S'A'
p83
I16
sS'ME'
p84
I5
sS'RP2'
p85
I12
sS'E'
p86
I12
sS'TO'
p87
I6
sS'RP1'
p88
I7
sS'JP'
p89
I12
sS'RP_tot'
p90
I12
sS'P'
p91
I14
sS'PA'
p92
I15
sS'M'
p93
I12
sS'R'
p94
I6
sS'TB'
p95
I13
sS'PL'
p96
I16
sS'TA'
p97
I7
ssS'fatigue'
p98
I4
sS'drop_ratees_total'
p99
I0
sS'blessures_total'
p100
I0
sS'XP'
p101
I0
sS'EV'
p102
F13.666666666666666
sS'penalite_ratees_total'
p103
I0
sS'drops'
p104
I58
sS'blessures_saison'
p105
I0
sS'jaunes_total'
p106
I0
sS'caracs_sans_fatigue'
p107
(dp108
g83
I16
sg84
I5
sg85
I12
sg86
I12
sg91
I14
sg88
I7
sg89
I12
sg90
I12
sg87
I6
sg92
I15
sg93
I12
sg94
I6
sg95
I13
sg96
I16
sg97
I7
ssS'rouges_saison'
p109
I0
sS'anciens_clubs'
p110
S''
p111
sS'transformation_ratees_total'
p112
I0
sS'drops_saison'
p113
I0
sS'transformation_ratees_saison'
p114
I0
sS'MS'
p115
I55
sS'essais_total'
p116
I30
sS'jaunes_saison'
p117
I0
sS'ARM'
p118
S'EN'
p119
sbsS'SA_scd'
p120
(ijoueur
joueur
p121
(dp122
g27
I0
sg28
I0
sg29
I0
sg30
(ijoueur
rang
p123
(dp124
g33
I5
sg34
S'xx'
p125
sg36
S'seigneur'
p126
sbsg38
(dp127
g40
I0
sg41
I1
sg42
I0
sg43
I0
ssg44
(dp128
g40
I0
sg41
I0
sg42
I0
sg43
I0
ssg46
I0
sg47
I0
sg48
I0
sg49
I0
sg50
I0
sg51
I0
sg52
I0
sg53
(g54
S'TL'
p129
S'DL'
p130
g111
tp131
sg59
(ijoueur
rang
p132
(dp133
g33
I5
sg34
S'xx'
p134
sg36
g126
sbsg63
(dp135
g40
I0
sg41
I0
sg42
I0
sg43
I0
ssg65
(dp136
g40
I0
sg41
I1
sg42
I0
sg43
I0
ssg67
(dp137
g40
I0
sg41
I0
sg42
I0
sg43
I0
ssg69
(dp138
g40
I0
sg41
I0
sg42
I0
sg43
I0
ssg71
I0
sg72
I0
sg73
S'Huken'
p139
sg75
I2
sg76
I0
sg77
I15
sg78
I168
sg79
S'KAK'
p140
sg81
(dp141
g83
I9
sg84
I10
sg85
I7
sg86
I14
sg87
I11
sg88
I12
sg89
I4
sg90
I12
sg91
I5
sg92
I8
sg93
I10
sg94
I8
sg95
I5
sg96
I12
sg97
I7
ssg98
I4
sg99
I0
sg100
I0
sg101
I0
sg102
F10.526315789473685
sg103
I0
sg104
I0
sg105
I0
sg106
I0
sg107
(dp142
g83
I9
sg84
I10
sg85
I7
sg86
I14
sg91
I5
sg88
I12
sg89
I4
sg90
I12
sg87
I11
sg92
I8
sg93
I10
sg94
I8
sg95
I5
sg96
I12
sg97
I7
ssg109
I0
sg110
S'KH9'
p143
sg112
I0
sg113
I0
sg114
I0
sg115
I18
sg116
I1
sg117
I0
sg118
S'N'
p144
sbsS'RJL'
p145
g25
sS'cap'
p146
g121
sS'B4'
p147
g25
sS'RJC'
p148
(ijoueur
joueur
p149
(dp150
g27
I0
sg28
I24
sg29
I0
sg30
(ijoueur
rang
p151
(dp152
g33
I4
sg34
S'x'
p153
sg36
S'heros'
p154
sbsg38
(dp155
g40
I0
sg41
I0
sg42
I0
sg43
I0
ssg44
(dp156
g40
I0
sg41
I1
sg42
I0
sg43
I0
ssg46
I0
sg47
I0
sg48
I51
sg49
I125
sg50
I0
sg51
I0
sg52
I0
sg53
(g54
S'AR'
p157
S'CE'
p158
S'DO'
p159
tp160
sg59
(ijoueur
rang
p161
(dp162
g33
I4
sg34
g153
sg36
g154
sbsg63
(dp163
g40
I0
sg41
I0
sg42
I0
sg43
I0
ssg65
(dp164
g40
I0
sg41
I0
sg42
I0
sg43
I0
ssg67
(dp165
g40
I0
sg41
I1
sg42
I0
sg43
I0
ssg69
(dp166
g40
I0
sg41
I0
sg42
I0
sg43
I0
ssg71
I125
sg72
I0
sg73
S'Laosal'
p167
sg75
I7
sg76
I51
sg77
I15
sg78
I439
sg79
g140
sg81
(dp168
g83
I14
sg84
I5
sg85
I7
sg86
I13
sg87
I8
sg88
I6
sg89
I12
sg90
I7
sg91
I13
sg92
I13
sg93
I12
sg94
I9
sg95
I12
sg96
I16
sg97
I6
ssg98
I3
sg99
I0
sg100
I0
sg101
I0
sg102
F12.515151515151516
sg103
I0
sg104
I24
sg105
I0
sg106
I0
sg107
(dp169
g83
I14
sg84
I5
sg85
I7
sg86
I13
sg91
I13
sg88
I6
sg89
I12
sg90
I7
sg87
I8
sg92
I13
sg93
I12
sg94
I9
sg95
I12
sg96
I16
sg97
I6
ssg109
I0
sg110
S'DKW9'
p170
sg112
I0
sg113
I0
sg114
I0
sg115
I42
sg116
I2
sg117
I0
sg118
S'EN'
p171
sbsS'B1'
p172
g25
sS'B2'
p173
g25
sS'B3'
p174
g25
sS'SA_pcp2'
p175
(ijoueur
joueur
p176
(dp177
g27
I0
sg28
I0
sg29
I0
sg30
(ijoueur
rang
p178
(dp179
g33
I4
sg34
S'*'
p180
sg36
g154
sbsg38
(dp181
g40
I0
sg41
I0
sg42
I0
sg43
I0
ssg44
(dp182
g40
I0
sg41
I0
sg42
I0
sg43
I0
ssg46
I0
sg47
I0
sg48
I0
sg49
I0
sg50
I0
sg51
I0
sg52
I0
sg53
(g54
S'DL'
p183
S'TL'
p184
g111
tp185
sg59
(ijoueur
rang
p186
(dp187
g33
I4
sg34
g180
sg36
g154
sbsg63
(dp188
g40
I0
sg41
I1
sg42
I0
sg43
I0
ssg65
(dp189
g40
I0
sg41
I0
sg42
I0
sg43
I0
ssg67
(dp190
g40
I0
sg41
I0
sg42
I0
sg43
I0
ssg69
(dp191
g40
I0
sg41
I1
sg42
I0
sg43
I0
ssg71
I0
sg72
I0
sg73
S'Impenor'
p192
sg75
I2
sg76
I0
sg77
I10
sg78
I76
sg79
g140
sg81
(dp193
g83
I13
sg84
I9
sg85
I7
sg86
I11
sg87
I12
sg88
I8
sg89
I5
sg90
I8
sg91
I7
sg92
I9
sg93
I8
sg94
I7
sg95
I9
sg96
I9
sg97
I6
ssg98
I0
sg99
I0
sg100
I0
sg101
I0
sg102
F9.5
sg103
I0
sg104
I0
sg105
I0
sg106
I0
sg107
(dp194
g83
I13
sg84
I9
sg85
I7
sg86
I11
sg91
I7
sg88
I8
sg89
I5
sg90
I8
sg87
I12
sg92
I9
sg93
I8
sg94
I7
sg95
I9
sg96
I9
sg97
I6
ssg109
I0
sg110
g111
sg112
I0
sg113
I0
sg114
I0
sg115
I9
sg116
I14
sg117
I0
sg118
S'RS'
p195
sbsS'SA_pcp1'
p196
(ijoueur
joueur
p197
(dp198
g27
I0
sg28
I0
sg29
I0
sg30
(ijoueur
rang
p199
(dp200
g33
I6
sg34
S'***'
p201
sg36
g37
sbsg38
(dp202
g40
I0
sg41
I0
sg42
I0
sg43
I0
ssg44
(dp203
g40
I0
sg41
I0
sg42
I0
sg43
I0
ssg46
I0
sg47
I0
sg48
I0
sg49
I0
sg50
I0
sg51
I0
sg52
I0
sg53
(g54
S'TL'
p204
S'N8'
p205
S'DL'
p206
tp207
sg59
(ijoueur
rang
p208
(dp209
g33
I6
sg34
S'***'
p210
sg36
g37
sbsg63
(dp211
g40
I0
sg41
I1
sg42
I0
sg43
I0
ssg65
(dp212
g40
I0
sg41
I0
sg42
I0
sg43
I0
ssg67
(dp213
g40
I0
sg41
I0
sg42
I0
sg43
I0
ssg69
(dp214
g40
I0
sg41
I1
sg42
I0
sg43
I0
ssg71
I0
sg72
I0
sg73
S"U'zhul"
p215
sg75
I8
sg76
I0
sg77
I18
sg78
I651
sg79
g140
sg81
(dp216
g83
I14
sg84
I10
sg85
I7
sg86
I12
sg87
I14
sg88
I10
sg89
I0
sg90
I10
sg91
I0
sg92
I11
sg93
I9
sg94
I9
sg95
I0
sg96
I12
sg97
I6
ssg98
I4
sg99
I0
sg100
I0
sg101
I0
sg102
F11.31578947368421
sg103
I0
sg104
I0
sg105
I0
sg106
I0
sg107
(dp217
g83
I14
sg84
I10
sg85
I7
sg86
I12
sg91
I0
sg88
I10
sg89
I0
sg90
I10
sg87
I14
sg92
I11
sg93
I9
sg94
I9
sg95
I0
sg96
I12
sg97
I6
ssg109
I0
sg110
g111
sg112
I0
sg113
I0
sg114
I0
sg115
I56
sg116
I11
sg117
I0
sg118
S'CHS'
p218
sbsS'drop3'
p219
(ijoueur
joueur
p220
(dp221
g27
I0
sg28
I3
sg29
I0
sg30
(ijoueur
rang
p222
(dp223
g33
I5
sg34
S'**'
p224
sg36
g126
sbsg38
(dp225
g40
I0
sg41
I2
sg42
I0
sg43
I0
ssg44
(dp226
g40
I0
sg41
I0
sg42
I0
sg43
I0
ssg46
I0
sg47
I0
sg48
I39
sg49
I46
sg50
I0
sg51
I0
sg52
I0
sg53
(g54
S'AR'
p227
S'CE'
p228
S'DO'
p229
tp230
sg59
(ijoueur
rang
p231
(dp232
g33
I5
sg34
S'**'
p233
sg36
g126
sbsg63
(dp234
g40
I0
sg41
I0
sg42
I0
sg43
I0
ssg65
(dp235
g40
I0
sg41
I2
sg42
I0
sg43
I0
ssg67
(dp236
g40
I0
sg41
I0
sg42
I0
sg43
I0
ssg69
(dp237
g40
I0
sg41
I0
sg42
I0
sg43
I0
ssg71
I46
sg72
I0
sg73
S'Ukatas'
p238
sg75
I6
sg76
I39
sg77
I15
sg78
I150
sg79
g140
sg81
(dp239
g83
I14
sg84
I4
sg85
I13
sg86
I10
sg87
I8
sg88
I7
sg89
I10
sg90
I13
sg91
I10
sg92
I12
sg93
I10
sg94
I9
sg95
I10
sg96
I14
sg97
I4
ssg98
I4
sg99
I0
sg100
I0
sg101
I0
sg102
F12.06060606060606
sg103
I0
sg104
I3
sg105
I0
sg106
I0
sg107
(dp240
g83
I14
sg84
I4
sg85
I13
sg86
I10
sg91
I10
sg88
I7
sg89
I10
sg90
I13
sg87
I8
sg92
I12
sg93
I10
sg94
I9
sg95
I10
sg96
I14
sg97
I4
ssg109
I0
sg110
S'ED9'
p241
sg112
I0
sg113
I1
sg114
I0
sg115
I15
sg116
I11
sg117
I0
sg118
S'S'
p242
sbsS'SA_remp1'
p243
(ijoueur
joueur
p244
(dp245
g27
I0
sg28
I0
sg29
I0
sg30
(ijoueur
rang
p246
(dp247
g33
I4
sg34
g180
sg36
g154
sbsg38
(dp248
g40
I0
sg41
I0
sg42
I0
sg43
I0
ssg44
(dp249
g40
I0
sg41
I0
sg42
I0
sg43
I0
ssg46
I0
sg47
I0
sg48
I0
sg49
I0
sg50
I0
sg51
I0
sg52
I0
sg53
(g54
S'PI'
p250
S'DL'
p251
g111
tp252
sg59
(ijoueur
rang
p253
(dp254
g33
I4
sg34
g180
sg36
g154
sbsg63
(dp255
g40
I0
sg41
I0
sg42
I1
sg43
I0
ssg65
(dp256
g40
I0
sg41
I0
sg42
I0
sg43
I0
ssg67
(dp257
g40
I0
sg41
I0
sg42
I0
sg43
I0
ssg69
(dp258
g40
I0
sg41
I0
sg42
I1
sg43
I0
ssg71
I0
sg72
I0
sg73
S'Brednh'
p259
sg75
I7
sg76
I0
sg77
I18
sg78
I176
sg79
g140
sg81
(dp260
g83
I11
sg84
I13
sg85
I7
sg86
I9
sg87
I11
sg88
I10
sg89
I3
sg90
I10
sg91
I6
sg92
I7
sg93
I7
sg94
I11
sg95
I2
sg96
I10
sg97
I8
ssg98
I3
sg99
I0
sg100
I0
sg101
I0
sg102
F10.588235294117647
sg103
I0
sg104
I0
sg105
I0
sg106
I0
sg107
(dp261
g83
I11
sg84
I13
sg85
I7
sg86
I9
sg91
I6
sg88
I10
sg89
I3
sg90
I10
sg87
I11
sg92
I7
sg93
I7
sg94
I11
sg95
I2
sg96
I10
sg97
I8
ssg109
I0
sg110
g111
sg112
I0
sg113
I0
sg114
I0
sg115
I10
sg116
I12
sg117
I0
sg118
S'HB'
p262
sbsS'drop2'
p263
g25
sS'SA_remp2'
p264
(ijoueur
joueur
p265
(dp266
g27
I0
sg28
I0
sg29
I0
sg30
(ijoueur
rang
p267
(dp268
g33
I4
sg34
g153
sg36
g154
sbsg38
(dp269
g40
I0
sg41
I0
sg42
I0
sg43
I0
ssg44
(dp270
g40
I0
sg41
I0
sg42
I0
sg43
I0
ssg46
I0
sg47
I0
sg48
I0
sg49
I0
sg50
I0
sg51
I0
sg52
I0
sg53
(g54
S'TL'
p271
S'N8'
p272
g111
tp273
sg59
(ijoueur
rang
p274
(dp275
g33
I4
sg34
g153
sg36
g154
sbsg63
(dp276
g40
I0
sg41
I1
sg42
I1
sg43
I0
ssg65
(dp277
g40
I0
sg41
I0
sg42
I0
sg43
I0
ssg67
(dp278
g40
I0
sg41
I0
sg42
I0
sg43
I0
ssg69
(dp279
g40
I0
sg41
I1
sg42
I1
sg43
I0
ssg71
I0
sg72
I0
sg73
S"Naas'Tal"
p280
sg75
I7
sg76
I0
sg77
I16
sg78
I157
sg79
g140
sg81
(dp281
g83
I8
sg84
I9
sg85
I8
sg86
I10
sg87
I9
sg88
I10
sg89
I1
sg90
I11
sg91
I2
sg92
I6
sg93
I12
sg94
I12
sg95
I2
sg96
I10
sg97
I8
ssg98
I5
sg99
I0
sg100
I0
sg101
I0
sg102
F10.451612903225806
sg103
I0
sg104
I0
sg105
I0
sg106
I0
sg107
(dp282
g83
I8
sg84
I9
sg85
I8
sg86
I10
sg91
I2
sg88
I10
sg89
I1
sg90
I11
sg87
I9
sg92
I6
sg93
I12
sg94
I12
sg95
I2
sg96
I10
sg97
I8
ssg109
I0
sg110
S'AL10'
p283
sg112
I0
sg113
I0
sg114
I0
sg115
I17
sg116
I2
sg117
I0
sg118
S'HL'
p284
sbssS'totaux'
p285
(dp286
g19
I0
sg20
I0
sg21
I0
ssS'_compo_defaut_fatigue'
p287
Nsg81
(dp288
g4
I0
sg5
I0
sg6
I0
sg7
I0
sg8
I0
sg9
I0
sg10
I0
sg11
I0
sg12
I0
sg13
I0
sg14
I0
sg15
I0
sg16
I0
ssS'joueurs'
p289
(dp290
S'n12'
p291
g220
sS'n13'
p292
(ijoueur
joueur
p293
(dp294
g27
I0
sg28
I0
sg29
I0
sg30
(ijoueur
rang
p295
(dp296
g33
I5
sg34
S'**'
p297
sg36
g126
sbsg38
(dp298
g40
I0
sg41
I0
sg42
I0
sg43
I0
ssg44
(dp299
g40
I0
sg41
I0
sg42
I0
sg43
I0
ssg46
I0
sg47
I0
sg48
I0
sg49
I0
sg50
I0
sg51
I0
sg52
I0
sg53
(g54
S'C1'
p300
S'DO'
p301
S'AR'
p302
tp303
sg59
(ijoueur
rang
p304
(dp305
g33
I5
sg34
S'**'
p306
sg36
g126
sbsg63
(dp307
g40
I0
sg41
I2
sg42
I0
sg43
I0
ssg65
(dp308
g40
I0
sg41
I0
sg42
I0
sg43
I0
ssg67
(dp309
g40
I0
sg41
I0
sg42
I0
sg43
I0
ssg69
(dp310
g40
I0
sg41
I2
sg42
I0
sg43
I0
ssg71
I0
sg72
I0
sg73
S'Silodem'
p311
sg75
I3
sg76
I0
sg77
I13
sg78
I188
sg79
g140
sg81
(dp312
g83
I12
sg84
I6
sg85
I9
sg86
I12
sg87
I8
sg88
I9
sg89
I10
sg90
I11
sg91
I10
sg92
I11
sg93
I10
sg94
I7
sg95
I9
sg96
I10
sg97
I5
ssg98
I5
sg99
I0
sg100
I0
sg101
I0
sg102
F10.6
sg103
I0
sg104
I0
sg105
I0
sg106
I0
sg107
(dp313
g83
I12
sg84
I6
sg85
I9
sg86
I12
sg91
I10
sg88
I9
sg89
I10
sg90
I11
sg87
I8
sg92
I11
sg93
I10
sg94
I7
sg95
I9
sg96
I10
sg97
I5
ssg109
I0
sg110
g111
sg112
I0
sg113
I0
sg114
I0
sg115
I16
sg116
I10
sg117
I0
sg118
g242
sbsS'n10'
p314
g149
sS'n11'
p315
(ijoueur
joueur
p316
(dp317
g27
I0
sg28
I0
sg29
I0
sg30
(ijoueur
rang
p318
(dp319
g34
S'w'
p320
sbsg38
(dp321
g40
I0
sg41
I0
sg42
I0
sg43
I0
ssg44
(dp322
g40
I0
sg41
I0
sg42
I0
sg43
I0
ssg46
I0
sg47
I0
sg48
I0
sg49
I0
sg50
I1
sg51
I0
sg52
I0
sg53
(g54
S'AI'
p323
g111
g111
tp324
sg59
(ijoueur
rang
p325
(dp326
g33
I4
sg34
g153
sg36
g154
sbsg63
(dp327
g40
I0
sg41
I2
sg42
I0
sg43
I0
ssg65
(dp328
g40
I0
sg41
I0
sg42
I0
sg43
I0
ssg67
(dp329
g40
I0
sg41
I0
sg42
I0
sg43
I0
ssg69
(dp330
g40
I0
sg41
I2
sg42
I0
sg43
I0
ssg71
I0
sg72
I0
sg73
S'Ptork'
p331
sg75
I7
sg76
I0
sg77
I16
sg78
I176
sg79
g140
sg81
(dp332
g83
I13
sg84
I6
sg85
I9
sg86
I8
sg87
I4
sg88
I9
sg89
I5
sg90
I11
sg91
I8
sg92
I11
sg93
I11
sg94
I10
sg95
I5
sg96
I10
sg97
I7
ssg98
I5
sg99
I0
sg100
I0
sg101
I0
sg102
F10.548387096774194
sg103
I0
sg104
I0
sg105
I0
sg106
I0
sg107
(dp333
g83
I13
sg84
I6
sg85
I9
sg86
I8
sg91
I8
sg88
I9
sg89
I5
sg90
I11
sg87
I4
sg92
I11
sg93
I11
sg94
I10
sg95
I5
sg96
I10
sg97
I7
ssg109
I0
sg110
g111
sg112
I0
sg113
I0
sg114
I0
sg115
I17
sg116
I11
sg117
I0
sg118
S'O'
p334
sbsS'n16'
p335
(ijoueur
joueur
p336
(dp337
g27
I0
sg28
I0
sg29
I0
sg30
(ijoueur
rang
p338
(dp339
g33
I3
sg34
S'^^^'
p340
sg36
S'rare'
p341
sbsg38
(dp342
g40
I0
sg41
I0
sg42
I0
sg43
I0
ssg44
(dp343
g40
I0
sg41
I0
sg42
I0
sg43
I0
ssg46
I0
sg47
I0
sg48
I0
sg49
I0
sg50
I0
sg51
I0
sg52
I0
sg53
(g54
S'TA'
p344
S'PI'
p345
g111
tp346
sg59
(ijoueur
rang
p347
(dp348
g33
I3
sg34
S'^^^'
p349
sg36
g341
sbsg63
(dp350
g40
I0
sg41
I0
sg42
I1
sg43
I0
ssg65
(dp351
g40
I0
sg41
I0
sg42
I0
sg43
I0
ssg67
(dp352
g40
I0
sg41
I0
sg42
I0
sg43
I0
ssg69
(dp353
g40
I0
sg41
I0
sg42
I1
sg43
I0
ssg71
I0
sg72
I0
sg73
S'Ssladom'
p354
sg75
I3
sg76
I0
sg77
I12
sg78
I117
sg79
g140
sg81
(dp355
g83
I9
sg84
I10
sg85
I7
sg86
I11
sg87
I6
sg88
I10
sg89
I0
sg90
I10
sg91
I3
sg92
I6
sg93
I9
sg94
I8
sg95
I0
sg96
I10
sg97
I10
ssg98
I1
sg99
I0
sg100
I0
sg101
I0
sg102
F9.482758620689655
sg103
I0
sg104
I0
sg105
I0
sg106
I0
sg107
(dp356
g83
I9
sg84
I10
sg85
I7
sg86
I11
sg91
I3
sg88
I10
sg89
I0
sg90
I10
sg87
I6
sg92
I6
sg93
I9
sg94
I8
sg95
I0
sg96
I10
sg97
I10
ssg109
I0
sg110
g111
sg112
I0
sg113
I0
sg114
I0
sg115
I10
sg116
I10
sg117
I0
sg118
S'HL'
p357
sbsS'n17'
p358
(ijoueur
joueur
p359
(dp360
g27
I0
sg28
I0
sg29
I0
sg30
(ijoueur
rang
p361
(dp362
g33
I5
sg34
S'xx'
p363
sg36
g126
sbsg38
(dp364
g40
I0
sg41
I0
sg42
I0
sg43
I0
ssg44
(dp365
g40
I0
sg41
I0
sg42
I0
sg43
I0
ssg46
I0
sg47
I0
sg48
I0
sg49
I0
sg50
I0
sg51
I0
sg52
I0
sg53
(g54
S'PI'
p366
S'N8'
p367
S'TA'
p368
tp369
sg59
(ijoueur
rang
p370
(dp371
g33
I5
sg34
S'xx'
p372
sg36
g126
sbsg63
(dp373
g40
I0
sg41
I0
sg42
I0
sg43
I0
ssg65
(dp374
g40
I0
sg41
I0
sg42
I0
sg43
I0
ssg67
(dp375
g40
I0
sg41
I0
sg42
I0
sg43
I0
ssg69
(dp376
g40
I0
sg41
I0
sg42
I0
sg43
I0
ssg71
I0
sg72
I0
sg73
S'Niendi'
p377
sg75
I1
sg76
I0
sg77
I9
sg78
I80
sg79
g140
sg81
(dp378
g83
I12
sg84
I9
sg85
I4
sg86
I10
sg87
I4
sg88
I9
sg89
I2
sg90
I9
sg91
I5
sg92
I11
sg93
I7
sg94
I10
sg95
I1
sg96
I10
sg97
I7
ssg98
I0
sg99
I0
sg100
I0
sg101
I0
sg102
F9.74074074074074
sg103
I0
sg104
I0
sg105
I0
sg106
I0
sg107
(dp379
g83
I12
sg84
I9
sg85
I4
sg86
I10
sg91
I5
sg88
I9
sg89
I2
sg90
I9
sg87
I4
sg92
I11
sg93
I7
sg94
I10
sg95
I1
sg96
I10
sg97
I7
ssg109
I0
sg110
g111
sg112
I0
sg113
I0
sg114
I0
sg115
I14
sg116
I15
sg117
I0
sg118
g144
sbsS'n14'
p380
(ijoueur
joueur
p381
(dp382
g27
I0
sg28
I0
sg29
I0
sg30
(ijoueur
rang
p383
(dp384
g33
I5
sg34
S'**'
p385
sg36
g126
sbsg38
(dp386
g40
I0
sg41
I0
sg42
I1
sg43
I0
ssg44
(dp387
g40
I0
sg41
I0
sg42
I0
sg43
I0
ssg46
I0
sg47
I0
sg48
I0
sg49
I0
sg50
I1
sg51
I0
sg52
I0
sg53
(g54
S'C2'
p388
S'AI'
p389
g111
tp390
sg59
(ijoueur
rang
p391
(dp392
g33
I5
sg34
S'**'
p393
sg36
g126
sbsg63
(dp394
g40
I0
sg41
I0
sg42
I0
sg43
I0
ssg65
(dp395
g40
I0
sg41
I0
sg42
I1
sg43
I0
ssg67
(dp396
g40
I0
sg41
I0
sg42
I0
sg43
I0
ssg69
(dp397
g40
I0
sg41
I0
sg42
I0
sg43
I0
ssg71
I0
sg72
I0
sg73
S'Fretard'
p398
sg75
I2
sg76
I0
sg77
I11
sg78
I140
sg79
g140
sg81
(dp399
g83
I10
sg84
I5
sg85
I10
sg86
I11
sg87
I8
sg88
I11
sg89
I6
sg90
I14
sg91
I8
sg92
I11
sg93
I10
sg94
I6
sg95
I6
sg96
I9
sg97
I5
ssg98
I1
sg99
I0
sg100
I0
sg101
I0
sg102
F10.310344827586206
sg103
I0
sg104
I0
sg105
I0
sg106
I0
sg107
(dp400
g83
I10
sg84
I5
sg85
I10
sg86
I11
sg91
I8
sg88
I11
sg89
I6
sg90
I14
sg87
I8
sg92
I11
sg93
I10
sg94
I6
sg95
I6
sg96
I9
sg97
I5
ssg109
I0
sg110
S'MSL10'
p401
sg112
I0
sg113
I0
sg114
I0
sg115
I15
sg116
I10
sg117
I0
sg118
S'B'
p402
sbsS'n15'
p403
g25
sS'n18'
p404
(ijoueur
joueur
p405
(dp406
g27
I0
sg28
I0
sg29
I0
sg30
(ijoueur
rang
p407
(dp408
g33
I4
sg34
g180
sg36
g154
sbsg38
(dp409
g40
I0
sg41
I0
sg42
I0
sg43
I0
ssg44
(dp410
g40
I0
sg41
I0
sg42
I0
sg43
I0
ssg46
I0
sg47
I0
sg48
I0
sg49
I0
sg50
I0
sg51
I0
sg52
I0
sg53
(g54
S'DL'
p411
S'PI'
p412
g111
tp413
sg59
(ijoueur
rang
p414
(dp415
g33
I4
sg34
g180
sg36
g154
sbsg63
(dp416
g40
I0
sg41
I0
sg42
I0
sg43
I0
ssg65
(dp417
g40
I0
sg41
I0
sg42
I0
sg43
I0
ssg67
(dp418
g40
I0
sg41
I0
sg42
I0
sg43
I0
ssg69
(dp419
g40
I0
sg41
I0
sg42
I0
sg43
I0
ssg71
I0
sg72
I0
sg73
S'Vornemdt'
p420
sg75
I3
sg76
I0
sg77
I14
sg78
I20
sg79
g140
sg81
(dp421
g83
I8
sg84
I9
sg85
I6
sg86
I11
sg87
I8
sg88
I7
sg89
I4
sg90
I7
sg91
I3
sg92
I8
sg93
I7
sg94
I10
sg95
I4
sg96
I6
sg97
I2
ssg98
I0
sg99
I0
sg100
I0
sg101
I0
sg102
F8.62962962962963
sg103
I0
sg104
I0
sg105
I0
sg106
I0
sg107
(dp422
g83
I8
sg84
I9
sg85
I6
sg86
I11
sg91
I3
sg88
I7
sg89
I4
sg90
I7
sg87
I8
sg92
I8
sg93
I7
sg94
I10
sg95
I4
sg96
I6
sg97
I2
ssg109
I0
sg110
S'DKF10'
p423
sg112
I0
sg113
I0
sg114
I0
sg115
I2
sg116
I0
sg117
I0
sg118
S'CV'
p424
sbsS'n19'
p425
g265
sS'n22'
p426
(ijoueur
joueur
p427
(dp428
g27
I0
sg28
I0
sg29
I0
sg30
(ijoueur
rang
p429
(dp430
g33
I2
sg34
S'<<'
p431
sg36
S'special'
p432
sbsg38
(dp433
g40
I0
sg41
I0
sg42
I1
sg43
I0
ssg44
(dp434
g40
I0
sg41
I0
sg42
I0
sg43
I0
ssg46
I0
sg47
I0
sg48
I26
sg49
I69
sg50
I0
sg51
I0
sg52
I0
sg53
(g54
S'DO'
p435
S'CE'
p436
S'AI'
p437
tp438
sg59
(ijoueur
rang
p439
(dp440
g33
I2
sg34
S'<<'
p441
sg36
g432
sbsg63
(dp442
g40
I0
sg41
I1
sg42
I0
sg43
I0
ssg65
(dp443
g40
I0
sg41
I0
sg42
I1
sg43
I0
ssg67
(dp444
g40
I0
sg41
I0
sg42
I0
sg43
I0
ssg69
(dp445
g40
I0
sg41
I1
sg42
I0
sg43
I0
ssg71
I69
sg72
I0
sg73
S'Fetaor'
p446
sg75
I8
sg76
I26
sg77
I15
sg78
I50
sg79
g140
sg81
(dp447
g83
I14
sg84
I3
sg85
I8
sg86
I10
sg87
I7
sg88
I6
sg89
I6
sg90
I8
sg91
I10
sg92
I11
sg93
I8
sg94
I7
sg95
I11
sg96
I14
sg97
I5
ssg98
I4
sg99
I0
sg100
I0
sg101
I0
sg102
F10.0
sg103
I0
sg104
I0
sg105
I0
sg106
I0
sg107
(dp448
g83
I14
sg84
I3
sg85
I8
sg86
I10
sg91
I10
sg88
I6
sg89
I6
sg90
I8
sg87
I7
sg92
I11
sg93
I8
sg94
I7
sg95
I11
sg96
I14
sg97
I5
ssg109
I0
sg110
S'PRG11'
p449
sg112
I0
sg113
I0
sg114
I0
sg115
I5
sg116
I0
sg117
I0
sg118
S'EN'
p450
sbsS'n21'
p451
(ijoueur
joueur
p452
(dp453
g27
I0
sg28
I0
sg29
I0
sg30
(ijoueur
rang
p454
(dp455
g33
I1
sg34
S'>'
p456
sg36
S'base'
p457
sbsg38
(dp458
g40
I0
sg41
I0
sg42
I0
sg43
I0
ssg44
(dp459
g40
I0
sg41
I0
sg42
I0
sg43
I0
ssg46
I0
sg47
I0
sg48
I0
sg49
I0
sg50
I1
sg51
I0
sg52
I0
sg53
(g54
S'C2'
p460
S'AR'
p461
g111
tp462
sg59
(ijoueur
rang
p463
(dp464
g33
I1
sg34
g456
sg36
g457
sbsg63
(dp465
g40
I0
sg41
I0
sg42
I1
sg43
I0
ssg65
(dp466
g40
I0
sg41
I0
sg42
I0
sg43
I0
ssg67
(dp467
g40
I0
sg41
I0
sg42
I0
sg43
I0
ssg69
(dp468
g40
I0
sg41
I0
sg42
I1
sg43
I0
ssg71
I0
sg72
I0
sg73
S'Grendi'
p469
sg75
I1
sg76
I0
sg77
I14
sg78
I7
sg79
g140
sg81
(dp470
g83
I10
sg84
I4
sg85
I6
sg86
I11
sg87
I1
sg88
I10
sg89
I8
sg90
I10
sg91
I8
sg92
I9
sg93
I10
sg94
I6
sg95
I8
sg96
I9
sg97
I2
ssg98
I0
sg99
I0
sg100
I0
sg101
I0
sg102
F9.413793103448276
sg103
I0
sg104
I0
sg105
I0
sg106
I0
sg107
(dp471
g83
I10
sg84
I4
sg85
I6
sg86
I11
sg91
I8
sg88
I10
sg89
I8
sg90
I10
sg87
I1
sg92
I9
sg93
I10
sg94
I6
sg95
I8
sg96
I9
sg97
I2
ssg109
I0
sg110
g111
sg112
I0
sg113
I0
sg114
I0
sg115
I1
sg116
I5
sg117
I0
sg118
g144
sbsS'n20'
p472
(ijoueur
joueur
p473
(dp474
g27
I0
sg28
I0
sg29
I0
sg30
(ijoueur
rang
p475
(dp476
g33
I5
sg34
S'**'
p477
sg36
g126
sbsg38
(dp478
g40
I0
sg41
I0
sg42
I0
sg43
I0
ssg44
(dp479
g40
I0
sg41
I0
sg42
I0
sg43
I0
ssg46
I0
sg47
I0
sg48
I0
sg49
I0
sg50
I0
sg51
I0
sg52
I0
sg53
(g54
S'DM'
p480
g111
g111
tp481
sg59
(ijoueur
rang
p482
(dp483
g33
I1
sg34
g456
sg36
g457
sbsg63
(dp484
g40
I0
sg41
I0
sg42
I0
sg43
I0
ssg65
(dp485
g40
I0
sg41
I0
sg42
I0
sg43
I0
ssg67
(dp486
g40
I0
sg41
I0
sg42
I0
sg43
I0
ssg69
(dp487
g40
I0
sg41
I0
sg42
I0
sg43
I0
ssg71
I0
sg72
I0
sg73
S'Ractoin'
p488
sg75
I11
sg76
I0
sg77
I26
sg78
I17
sg79
g140
sg81
(dp489
g83
I9
sg84
I3
sg85
I6
sg86
I11
sg87
I3
sg88
I5
sg89
I7
sg90
I6
sg91
I8
sg92
I8
sg93
I6
sg94
I5
sg95
I7
sg96
I7
sg97
I4
ssg98
I0
sg99
I0
sg100
I0
sg101
I0
sg102
F7.793103448275862
sg103
I0
sg104
I0
sg105
I0
sg106
I0
sg107
(dp490
g83
I9
sg84
I3
sg85
I6
sg86
I11
sg91
I8
sg88
I5
sg89
I7
sg90
I6
sg87
I3
sg92
I8
sg93
I6
sg94
I5
sg95
I7
sg96
I7
sg97
I4
ssg109
I0
sg110
g111
sg112
I0
sg113
I0
sg114
I0
sg115
I1
sg116
I0
sg117
I0
sg118
g144
sbsS'n8'
p491
(ijoueur
joueur
p492
(dp493
g27
I0
sg28
I0
sg29
I0
sg30
(ijoueur
rang
p494
(dp495
g33
I5
sg34
S'xx'
p496
sg36
g126
sbsg38
(dp497
g40
I0
sg41
I2
sg42
I0
sg43
I0
ssg44
(dp498
g40
I0
sg41
I0
sg42
I0
sg43
I0
ssg46
I0
sg47
I0
sg48
I0
sg49
I0
sg50
I0
sg51
I0
sg52
I0
sg53
(g54
S'TL'
p499
S'N8'
p500
g111
tp501
sg59
(ijoueur
rang
p502
(dp503
g33
I5
sg34
S'xx'
p504
sg36
g126
sbsg63
(dp505
g40
I0
sg41
I0
sg42
I0
sg43
I0
ssg65
(dp506
g40
I0
sg41
I2
sg42
I0
sg43
I0
ssg67
(dp507
g40
I0
sg41
I0
sg42
I0
sg43
I0
ssg69
(dp508
g40
I0
sg41
I0
sg42
I0
sg43
I0
ssg71
I0
sg72
I0
sg73
S'Kulaaq'
p509
sg75
I4
sg76
I0
sg77
I11
sg78
I365
sg79
g140
sg81
(dp510
g83
I7
sg84
I9
sg85
I6
sg86
I11
sg87
I10
sg88
I15
sg89
I4
sg90
I15
sg91
I3
sg92
I7
sg93
I9
sg94
I12
sg95
I2
sg96
I13
sg97
I7
ssg98
I6
sg99
I0
sg100
I0
sg101
I0
sg102
F11.419354838709678
sg103
I0
sg104
I0
sg105
I0
sg106
I0
sg107
(dp511
g83
I7
sg84
I9
sg85
I6
sg86
I11
sg91
I3
sg88
I15
sg89
I4
sg90
I15
sg87
I10
sg92
I7
sg93
I9
sg94
I12
sg95
I2
sg96
I13
sg97
I7
ssg109
I0
sg110
g111
sg112
I0
sg113
I0
sg114
I0
sg115
I39
sg116
I29
sg117
I0
sg118
S'HL'
p512
sbsS'n9'
p513
(ijoueur
joueur
p514
(dp515
g27
I0
sg28
I0
sg29
I0
sg30
(ijoueur
rang
p516
(dp517
g33
I4
sg34
g153
sg36
g154
sbsg38
(dp518
g40
I0
sg41
I0
sg42
I0
sg43
I0
ssg44
(dp519
g40
I0
sg41
I0
sg42
I0
sg43
I0
ssg46
I0
sg47
I0
sg48
I0
sg49
I0
sg50
I0
sg51
I0
sg52
I0
sg53
(g54
S'DM'
p520
g111
g111
tp521
sg59
(ijoueur
rang
p522
(dp523
g33
I4
sg34
g153
sg36
g154
sbsg63
(dp524
g40
I0
sg41
I0
sg42
I2
sg43
I0
ssg65
(dp525
g40
I0
sg41
I0
sg42
I0
sg43
I0
ssg67
(dp526
g40
I0
sg41
I0
sg42
I0
sg43
I0
ssg69
(dp527
g40
I0
sg41
I0
sg42
I2
sg43
I0
ssg71
I0
sg72
I0
sg73
S'Haodel'
p528
sg75
I5
sg76
I0
sg77
I14
sg78
I238
sg79
g140
sg81
(dp529
g83
I13
sg84
I4
sg85
I7
sg86
I11
sg87
I8
sg88
I6
sg89
I6
sg90
I7
sg91
I8
sg92
I13
sg93
I8
sg94
I6
sg95
I7
sg96
I12
sg97
I5
ssg98
I4
sg99
I0
sg100
I0
sg101
I0
sg102
F10.0
sg103
I0
sg104
I0
sg105
I0
sg106
I0
sg107
(dp530
g83
I13
sg84
I4
sg85
I7
sg86
I11
sg91
I8
sg88
I6
sg89
I6
sg90
I7
sg87
I8
sg92
I13
sg93
I8
sg94
I6
sg95
I7
sg96
I12
sg97
I5
ssg109
I0
sg110
S'TA9'
p531
sg112
I0
sg113
I0
sg114
I0
sg115
I21
sg116
I4
sg117
I0
sg118
S'ES'
p532
sbsS'n1'
p533
(ijoueur
joueur
p534
(dp535
g27
I0
sg28
I0
sg29
I0
sg30
(ijoueur
rang
p536
(dp537
g33
I4
sg34
g153
sg36
g154
sbsg38
(dp538
g40
I0
sg41
I0
sg42
I0
sg43
I0
ssg44
(dp539
g40
I0
sg41
I0
sg42
I0
sg43
I0
ssg46
I0
sg47
I0
sg48
I0
sg49
I0
sg50
I0
sg51
I0
sg52
I0
sg53
(g54
S'PI'
p540
S'DL'
p541
g111
tp542
sg59
(ijoueur
rang
p543
(dp544
g33
I4
sg34
g153
sg36
g154
sbsg63
(dp545
g40
I0
sg41
I2
sg42
I0
sg43
I0
ssg65
(dp546
g40
I0
sg41
I0
sg42
I0
sg43
I0
ssg67
(dp547
g40
I0
sg41
I0
sg42
I0
sg43
I0
ssg69
(dp548
g40
I0
sg41
I2
sg42
I0
sg43
I0
ssg71
I0
sg72
I0
sg73
S'Ovlehr'
p549
sg75
I9
sg76
I0
sg77
I19
sg78
I187
sg79
g140
sg81
(dp550
g83
I10
sg84
I13
sg85
I9
sg86
I9
sg87
I9
sg88
I10
sg89
I6
sg90
I12
sg91
I5
sg92
I9
sg93
I10
sg94
I13
sg95
I6
sg96
I11
sg97
I7
ssg98
I6
sg99
I0
sg100
I0
sg101
I0
sg102
F11.481481481481481
sg103
I0
sg104
I0
sg105
I0
sg106
I0
sg107
(dp551
g83
I10
sg84
I13
sg85
I9
sg86
I9
sg91
I5
sg88
I10
sg89
I6
sg90
I12
sg87
I9
sg92
I9
sg93
I10
sg94
I13
sg95
I6
sg96
I11
sg97
I7
ssg109
I0
sg110
S'DKF11'
p552
sg112
I0
sg113
I0
sg114
I0
sg115
I17
sg116
I0
sg117
I0
sg118
S'CV'
p553
sbsS'n2'
p554
(ijoueur
joueur
p555
(dp556
g27
I0
sg28
I0
sg29
I0
sg30
(ijoueur
rang
p557
(dp558
g33
I4
sg34
g180
sg36
g154
sbsg38
(dp559
g40
I0
sg41
I0
sg42
I0
sg43
I0
ssg44
(dp560
g40
I0
sg41
I0
sg42
I0
sg43
I0
ssg46
I0
sg47
I0
sg48
I0
sg49
I0
sg50
I0
sg51
I0
sg52
I0
sg53
(g54
S'TA'
p561
S'TL'
p562
S'N8'
p563
tp564
sg59
(ijoueur
rang
p565
(dp566
g33
I5
sg34
S'xx'
p567
sg36
g126
sbsg63
(dp568
g40
I0
sg41
I1
sg42
I1
sg43
I0
ssg65
(dp569
g40
I0
sg41
I0
sg42
I0
sg43
I0
ssg67
(dp570
g40
I0
sg41
I0
sg42
I0
sg43
I0
ssg69
(dp571
g40
I0
sg41
I1
sg42
I1
sg43
I0
ssg71
I0
sg72
I0
sg73
S'Ghenf'
p572
sg75
I7
sg76
I0
sg77
I16
sg78
I180
sg79
g140
sg81
(dp573
g83
I10
sg84
I11
sg85
I7
sg86
I13
sg87
I8
sg88
I13
sg89
I7
sg90
I13
sg91
I7
sg92
I9
sg93
I9
sg94
I11
sg95
I6
sg96
I12
sg97
I12
ssg98
I5
sg99
I0
sg100
I0
sg101
I0
sg102
F11.620689655172415
sg103
I0
sg104
I0
sg105
I0
sg106
I0
sg107
(dp574
g83
I10
sg84
I11
sg85
I7
sg86
I13
sg91
I7
sg88
I13
sg89
I7
sg90
I13
sg87
I8
sg92
I9
sg93
I9
sg94
I11
sg95
I6
sg96
I12
sg97
I12
ssg109
I0
sg110
g111
sg112
I0
sg113
I0
sg114
I0
sg115
I21
sg116
I3
sg117
I0
sg118
S'HB'
p575
sbsS'n3'
p576
g244
sS'n4'
p577
g121
sS'n5'
p578
g176
sS'n6'
p579
(ijoueur
joueur
p580
(dp581
g27
I0
sg28
I0
sg29
I0
sg30
(ijoueur
rang
p582
(dp583
g33
I5
sg34
S'**'
p584
sg36
g126
sbsg38
(dp585
g40
I0
sg41
I0
sg42
I1
sg43
I0
ssg44
(dp586
g40
I0
sg41
I0
sg42
I0
sg43
I0
ssg46
I0
sg47
I0
sg48
I0
sg49
I0
sg50
I0
sg51
I0
sg52
I0
sg53
(g54
S'TL'
p587
S'N8'
p588
S'TA'
p589
tp590
sg59
(ijoueur
rang
p591
(dp592
g33
I5
sg34
S'**'
p593
sg36
g126
sbsg63
(dp594
g40
I0
sg41
I0
sg42
I0
sg43
I0
ssg65
(dp595
g40
I0
sg41
I0
sg42
I1
sg43
I0
ssg67
(dp596
g40
I0
sg41
I0
sg42
I0
sg43
I0
ssg69
(dp597
g40
I0
sg41
I0
sg42
I0
sg43
I0
ssg71
I0
sg72
I0
sg73
S'Daenyl'
p598
sg75
I2
sg76
I0
sg77
I13
sg78
I234
sg79
g140
sg81
(dp599
g83
I11
sg84
I10
sg85
I9
sg86
I11
sg87
I9
sg88
I7
sg89
I7
sg90
I9
sg91
I11
sg92
I10
sg93
I8
sg94
I11
sg95
I7
sg96
I10
sg97
I7
ssg98
I0
sg99
I0
sg100
I0
sg101
I0
sg102
F10.258064516129032
sg103
I0
sg104
I0
sg105
I0
sg106
I0
sg107
(dp600
g83
I11
sg84
I10
sg85
I9
sg86
I11
sg91
I11
sg88
I7
sg89
I7
sg90
I9
sg87
I9
sg92
I10
sg93
I8
sg94
I11
sg95
I7
sg96
I10
sg97
I7
ssg109
I0
sg110
S'SN9'
p601
sg112
I0
sg113
I0
sg114
I0
sg115
I15
sg116
I23
sg117
I0
sg118
S'EN'
p602
sbsS'n7'
p603
g197
ssS'remplacements'
p604
(dp605
g335
S'n0'
p606
sg358
g606
sg404
g606
sg425
g606
sg426
g606
sg451
g606
sg472
g606
ssb.