(iclub
compo
p0
(dp1
S'caracs_old'
p2
(dp3
S'A'
p4
F119.0
sS'ME'
p5
F84.0
sS'E'
p6
I219
sS'OplusAV'
p7
F71.5
sS'TO_off'
p8
F96.5
sS'OplusAR'
p9
F103.0
sS'M'
p10
F52.0
sS'JP'
p11
F58.0
sS'OmoinsAR'
p12
F47.0
sS'PA'
p13
F62.0
sS'TO_def'
p14
F89.5
sS'OmoinsAV'
p15
F48.0
sS'R'
p16
F179.5
ssS'totaux_old'
p17
(dp18
S'T2'
p19
F119.5
sS'T3'
p20
F109.5
sS'T1'
p21
F178.25
ssS'roles'
p22
(dp23
S'drop1'
p24
(ijoueur
joueur
p25
(dp26
S'rouges_total'
p27
I0
sS'drops_total'
p28
I0
sS'blessure'
p29
I0
sS'RG_max'
p30
(ijoueur
rang
p31
(dp32
S'type_nb'
p33
I5
sS'rang'
p34
S'**'
p35
sS'type'
p36
S'seigneur'
p37
sbsS'MJ2_total'
p38
(dp39
S'SR'
p40
I0
sS'ST'
p41
I0
sS'CR'
p42
I0
sS'CT'
p43
I1
ssS'MJ3_total'
p44
(dp45
g40
I0
sg41
I0
sg42
I0
sg43
I0
ssS'drop_rates_total'
p46
I0
sS'drop_rates_saison'
p47
I0
sS'essais_saison'
p48
I0
sS'penalite_ratees_saison'
p49
I0
sS'transformations_saison'
p50
I0
sS'postes'
p51
(S'dummy'
p52
S'AI'
p53
S'AR'
p54
S''
p55
tp56
sS'RG'
p57
(ijoueur
rang
p58
(dp59
g33
I5
sg34
S'**'
p60
sg36
g37
sbsS'MJ1'
p61
(dp62
g40
I0
sg41
I0
sg42
I0
sg43
I0
ssS'MJ2'
p63
(dp64
g40
I0
sg41
I0
sg42
I0
sg43
I1
ssS'MJ3'
p65
(dp66
g40
I0
sg41
I0
sg42
I0
sg43
I0
ssS'MJ1_total'
p67
(dp68
g40
I0
sg41
I0
sg42
I0
sg43
I0
ssS'penalites_total'
p69
I0
sS'penalites_saison'
p70
I0
sS'nom'
p71
S'Armacdir'
p72
sS'C'
p73
I9
sS'transformations_total'
p74
I0
sS'D'
p75
I23
sS'VAL'
p76
I150
sS'club'
p77
S'GP'
p78
sS'caracs'
p79
(dp80
S'A'
p81
I10
sS'ME'
p82
I6
sS'RP2'
p83
I8
sS'E'
p84
I11
sS'TO'
p85
I5
sS'RP1'
p86
I12
sS'JP'
p87
I8
sS'RP_tot'
p88
I13
sS'P'
p89
I11
sS'PA'
p90
I7
sS'M'
p91
I8
sS'R'
p92
I8
sS'TB'
p93
I8
sS'PL'
p94
I10
sS'TA'
p95
I5
ssS'fatigue'
p96
I3
sS'drop_ratees_total'
p97
I0
sS'blessures_total'
p98
I0
sS'XP'
p99
I0
sS'EV'
p100
F10.0
sS'penalite_ratees_total'
p101
I0
sS'blessures_saison'
p102
I0
sS'jaunes_total'
p103
I0
sS'caracs_sans_fatigue'
p104
g80
sS'rouges_saison'
p105
I0
sS'anciens_clubs'
p106
g55
sS'transformation_ratees_total'
p107
I1
sS'drops_saison'
p108
I0
sS'transformation_ratees_saison'
p109
I1
sS'MS'
p110
I15
sS'essais_total'
p111
I0
sS'jaunes_saison'
p112
I0
sS'ARM'
p113
S'N'
p114
sbsS'SA_scd'
p115
(ijoueur
joueur
p116
(dp117
g27
I0
sg28
I0
sg29
I0
sg30
(ijoueur
rang
p118
(dp119
g33
I4
sg34
S'x'
p120
sg36
S'heros'
p121
sbsg38
(dp122
g40
I0
sg41
I0
sg42
I0
sg43
I0
ssg44
(dp123
g40
I0
sg41
I0
sg42
I0
sg43
I0
ssg46
I0
sg47
I0
sg48
I0
sg49
I0
sg50
I0
sg51
(g52
S'DL'
p124
g55
g55
tp125
sg57
(ijoueur
rang
p126
(dp127
g33
I4
sg34
g120
sg36
g121
sbsg61
(dp128
g40
I0
sg41
I0
sg42
I0
sg43
I1
ssg63
(dp129
g40
I0
sg41
I0
sg42
I0
sg43
I0
ssg65
(dp130
g40
I0
sg41
I0
sg42
I0
sg43
I0
ssg67
(dp131
g40
I0
sg41
I0
sg42
I0
sg43
I1
ssg69
I0
sg70
I0
sg71
S'Wikaod'
p132
sg73
I2
sg74
I0
sg75
I17
sg76
I100
sg77
g78
sg79
(dp133
g81
I7
sg82
I9
sg83
I7
sg84
I10
sg85
I10
sg86
I10
sg87
I2
sg88
I10
sg89
I2
sg90
I8
sg91
I7
sg92
I10
sg93
I0
sg94
I8
sg95
I6
ssg96
I4
sg97
I0
sg98
I0
sg99
I0
sg100
F9.323529411764707
sg101
I0
sg102
I0
sg103
I0
sg104
g133
sg105
I0
sg106
g55
sg107
I0
sg108
I0
sg109
I0
sg110
I10
sg111
I0
sg112
I0
sg113
S'HL'
p134
sbsS'RJL'
p135
g25
sS'cap'
p136
(ijoueur
joueur
p137
(dp138
g27
I0
sg28
I0
sg29
I0
sg30
(ijoueur
rang
p139
(dp140
g33
I5
sg34
S'xx'
p141
sg36
g37
sbsg38
(dp142
g40
I0
sg41
I0
sg42
I0
sg43
I0
ssg44
(dp143
g40
I0
sg41
I0
sg42
I0
sg43
I0
ssg46
I0
sg47
I0
sg48
I1
sg49
I0
sg50
I0
sg51
(g52
S'DO'
p144
S'CE'
p145
S'AR'
p146
tp147
sg57
(ijoueur
rang
p148
(dp149
g33
I5
sg34
S'xx'
p150
sg36
g37
sbsg61
(dp151
g40
I0
sg41
I0
sg42
I0
sg43
I1
ssg63
(dp152
g40
I0
sg41
I0
sg42
I0
sg43
I0
ssg65
(dp153
g40
I0
sg41
I0
sg42
I0
sg43
I0
ssg67
(dp154
g40
I0
sg41
I0
sg42
I0
sg43
I1
ssg69
I0
sg70
I0
sg71
S"D'yb"
p155
sg73
I9
sg74
I0
sg75
I19
sg76
I350
sg77
g78
sg79
(dp156
g81
I10
sg82
I6
sg83
I8
sg84
I13
sg85
I6
sg86
I13
sg87
I8
sg88
I14
sg89
I10
sg90
I8
sg91
I8
sg92
I9
sg93
I8
sg94
I9
sg95
I7
ssg96
I4
sg97
I0
sg98
I0
sg99
I0
sg100
F9.787878787878787
sg101
I0
sg102
I0
sg103
I0
sg104
g156
sg105
I0
sg106
g55
sg107
I0
sg108
I0
sg109
I0
sg110
I35
sg111
I1
sg112
I0
sg113
S'HL'
p157
sbsS'B4'
p158
g25
sS'RJC'
p159
g137
sS'B1'
p160
g25
sS'B2'
p161
g25
sS'B3'
p162
g25
sS'SA_pcp2'
p163
(ijoueur
joueur
p164
(dp165
g27
I0
sg28
I0
sg29
I0
sg30
(ijoueur
rang
p166
(dp167
g33
I5
sg34
S'**'
p168
sg36
g37
sbsg38
(dp169
g40
I0
sg41
I0
sg42
I0
sg43
I1
ssg44
(dp170
g40
I0
sg41
I0
sg42
I0
sg43
I0
ssg46
I0
sg47
I0
sg48
I0
sg49
I0
sg50
I0
sg51
(g52
S'DL'
p171
S'N8'
p172
g55
tp173
sg57
(ijoueur
rang
p174
(dp175
g33
I5
sg34
S'**'
p176
sg36
g37
sbsg61
(dp177
g40
I0
sg41
I0
sg42
I0
sg43
I0
ssg63
(dp178
g40
I0
sg41
I0
sg42
I0
sg43
I1
ssg65
(dp179
g40
I0
sg41
I0
sg42
I0
sg43
I0
ssg67
(dp180
g40
I0
sg41
I0
sg42
I0
sg43
I0
ssg69
I0
sg70
I0
sg71
S'Amrik'
p181
sg73
I3
sg74
I0
sg75
I15
sg76
I150
sg77
g78
sg79
(dp182
g81
I9
sg82
I10
sg83
I7
sg84
I10
sg85
I12
sg86
I11
sg87
I5
sg88
I11
sg89
I5
sg90
I7
sg91
I8
sg92
I11
sg93
I6
sg94
I10
sg95
I5
ssg96
I4
sg97
I0
sg98
I0
sg99
I0
sg100
F10.529411764705882
sg101
I0
sg102
I0
sg103
I0
sg104
g182
sg105
I0
sg106
g55
sg107
I0
sg108
I0
sg109
I0
sg110
I15
sg111
I0
sg112
I0
sg113
g114
sbsS'SA_pcp1'
p183
(ijoueur
joueur
p184
(dp185
g27
I0
sg28
I0
sg29
I0
sg30
(ijoueur
rang
p186
(dp187
g33
I4
sg34
g120
sg36
g121
sbsg38
(dp188
g40
I0
sg41
I0
sg42
I0
sg43
I0
ssg44
(dp189
g40
I0
sg41
I0
sg42
I0
sg43
I0
ssg46
I0
sg47
I0
sg48
I0
sg49
I0
sg50
I0
sg51
(g52
S'TL'
p190
g55
g55
tp191
sg57
(ijoueur
rang
p192
(dp193
g33
I4
sg34
g120
sg36
g121
sbsg61
(dp194
g40
I0
sg41
I0
sg42
I0
sg43
I1
ssg63
(dp195
g40
I0
sg41
I0
sg42
I0
sg43
I0
ssg65
(dp196
g40
I0
sg41
I0
sg42
I0
sg43
I0
ssg67
(dp197
g40
I0
sg41
I0
sg42
I0
sg43
I1
ssg69
I0
sg70
I0
sg71
S'Lyemerich'
p198
sg73
I10
sg74
I0
sg75
I22
sg76
I100
sg77
g78
sg79
(dp199
g81
I11
sg82
I9
sg83
I7
sg84
I10
sg85
I13
sg86
I10
sg87
I5
sg88
I10
sg89
I5
sg90
I10
sg91
I7
sg92
I12
sg93
I5
sg94
I10
sg95
I6
ssg96
I4
sg97
I0
sg98
I0
sg99
I0
sg100
F10.894736842105264
sg101
I0
sg102
I0
sg103
I0
sg104
g199
sg105
I0
sg106
g55
sg107
I0
sg108
I0
sg109
I0
sg110
I10
sg111
I0
sg112
I0
sg113
S'CHS'
p200
sbsS'drop3'
p201
(ijoueur
joueur
p202
(dp203
g27
I0
sg28
I0
sg29
I0
sg30
(ijoueur
rang
p204
(dp205
g33
I4
sg34
g120
sg36
g121
sbsg38
(dp206
g40
I0
sg41
I0
sg42
I0
sg43
I0
ssg44
(dp207
g40
I0
sg41
I0
sg42
I0
sg43
I0
ssg46
I0
sg47
I0
sg48
I0
sg49
I0
sg50
I0
sg51
(g52
S'C2'
p208
S'AR'
p209
S'AI'
p210
tp211
sg57
(ijoueur
rang
p212
(dp213
g33
I4
sg34
g120
sg36
g121
sbsg61
(dp214
g40
I0
sg41
I0
sg42
I1
sg43
I0
ssg63
(dp215
g40
I0
sg41
I0
sg42
I0
sg43
I0
ssg65
(dp216
g40
I0
sg41
I0
sg42
I0
sg43
I0
ssg67
(dp217
g40
I0
sg41
I0
sg42
I1
sg43
I0
ssg69
I0
sg70
I0
sg71
S'Skerog'
p218
sg73
I2
sg74
I0
sg75
I12
sg76
I90
sg77
g78
sg79
(dp219
g81
I9
sg82
I6
sg83
I8
sg84
I11
sg85
I3
sg86
I8
sg87
I8
sg88
I9
sg89
I9
sg90
I7
sg91
I10
sg92
I6
sg93
I7
sg94
I11
sg95
I3
ssg96
I2
sg97
I0
sg98
I0
sg99
I0
sg100
F9.206896551724139
sg101
I0
sg102
I0
sg103
I0
sg104
g219
sg105
I0
sg106
g55
sg107
I0
sg108
I0
sg109
I0
sg110
I9
sg111
I0
sg112
I0
sg113
g114
sbsS'SA_remp1'
p220
(ijoueur
joueur
p221
(dp222
g27
I0
sg28
I0
sg29
I0
sg30
(ijoueur
rang
p223
(dp224
g33
I4
sg34
S'*'
p225
sg36
g121
sbsg38
(dp226
g40
I0
sg41
I0
sg42
I0
sg43
I0
ssg44
(dp227
g40
I0
sg41
I0
sg42
I0
sg43
I0
ssg46
I0
sg47
I0
sg48
I0
sg49
I0
sg50
I0
sg51
(g52
S'TL'
p228
S'DL'
p229
g55
tp230
sg57
(ijoueur
rang
p231
(dp232
g33
I4
sg34
g225
sg36
g121
sbsg61
(dp233
g40
I0
sg41
I0
sg42
I0
sg43
I1
ssg63
(dp234
g40
I0
sg41
I0
sg42
I0
sg43
I0
ssg65
(dp235
g40
I0
sg41
I0
sg42
I0
sg43
I0
ssg67
(dp236
g40
I0
sg41
I0
sg42
I0
sg43
I1
ssg69
I0
sg70
I0
sg71
S'Gruknam'
p237
sg73
I2
sg74
I0
sg75
I14
sg76
I60
sg77
g78
sg79
(dp238
g81
I7
sg82
I9
sg83
I7
sg84
I13
sg85
I8
sg86
I9
sg87
I4
sg88
I9
sg89
I5
sg90
I6
sg91
I8
sg92
I8
sg93
I5
sg94
I12
sg95
I4
ssg96
I2
sg97
I0
sg98
I0
sg99
I0
sg100
F9.451612903225806
sg101
I0
sg102
I0
sg103
I0
sg104
g238
sg105
I0
sg106
g55
sg107
I0
sg108
I0
sg109
I0
sg110
I6
sg111
I0
sg112
I0
sg113
g114
sbsS'drop2'
p239
g137
sS'SA_remp2'
p240
(ijoueur
joueur
p241
(dp242
g27
I0
sg28
I0
sg29
I0
sg30
(ijoueur
rang
p243
(dp244
g33
I3
sg34
S'^^^'
p245
sg36
S'rare'
p246
sbsg38
(dp247
g40
I0
sg41
I0
sg42
I0
sg43
I0
ssg44
(dp248
g40
I0
sg41
I0
sg42
I0
sg43
I0
ssg46
I0
sg47
I0
sg48
I0
sg49
I0
sg50
I0
sg51
(g52
S'N8'
p249
S'DL'
p250
S'TL'
p251
tp252
sg57
(ijoueur
rang
p253
(dp254
g33
I3
sg34
S'^^^'
p255
sg36
g246
sbsg61
(dp256
g40
I0
sg41
I0
sg42
I1
sg43
I0
ssg63
(dp257
g40
I0
sg41
I0
sg42
I0
sg43
I0
ssg65
(dp258
g40
I0
sg41
I0
sg42
I0
sg43
I0
ssg67
(dp259
g40
I0
sg41
I0
sg42
I1
sg43
I0
ssg69
I0
sg70
I0
sg71
S'Frugnir'
p260
sg73
I3
sg74
I0
sg75
I17
sg76
I11
sg77
g78
sg79
(dp261
g81
I6
sg82
I9
sg83
I6
sg84
I11
sg85
I8
sg86
I7
sg87
I4
sg88
I7
sg89
I4
sg90
I6
sg91
I6
sg92
I8
sg93
I5
sg94
I12
sg95
I4
ssg96
I2
sg97
I0
sg98
I0
sg99
I0
sg100
F8.689655172413794
sg101
I0
sg102
I0
sg103
I0
sg104
g261
sg105
I0
sg106
g55
sg107
I0
sg108
I0
sg109
I0
sg110
I1
sg111
I0
sg112
I0
sg113
g114
sbssS'totaux'
p262
(dp263
g19
I0
sg20
I0
sg21
I0
ssS'_compo_defaut_fatigue'
p264
Nsg79
(dp265
g4
I0
sg5
I0
sg6
I0
sg7
I0
sg8
I0
sg9
I0
sg10
I0
sg11
I0
sg12
I0
sg13
I0
sg14
I0
sg15
I0
sg16
I0
ssS'joueurs'
p266
(dp267
S'n12'
p268
(ijoueur
joueur
p269
(dp270
g27
I0
sg28
I0
sg29
I0
sg30
(ijoueur
rang
p271
(dp272
g33
I4
sg34
g225
sg36
g121
sbsg38
(dp273
g40
I0
sg41
I0
sg42
I0
sg43
I0
ssg44
(dp274
g40
I0
sg41
I0
sg42
I0
sg43
I0
ssg46
I0
sg47
I0
sg48
I0
sg49
I0
sg50
I0
sg51
(g52
S'C1'
p275
g55
g55
tp276
sg57
(ijoueur
rang
p277
(dp278
g33
I3
sg34
S'^^^'
p279
sg36
g246
sbsg61
(dp280
g40
I0
sg41
I0
sg42
I0
sg43
I1
ssg63
(dp281
g40
I0
sg41
I0
sg42
I0
sg43
I0
ssg65
(dp282
g40
I0
sg41
I0
sg42
I0
sg43
I0
ssg67
(dp283
g40
I0
sg41
I0
sg42
I0
sg43
I1
ssg69
I0
sg70
I0
sg71
S'Coess'
p284
sg73
I9
sg74
I0
sg75
I18
sg76
I18
sg77
g78
sg79
(dp285
g81
I10
sg82
I4
sg83
I8
sg84
I9
sg85
I5
sg86
I8
sg87
I7
sg88
I9
sg89
I8
sg90
I9
sg91
I11
sg92
I6
sg93
I6
sg94
I11
sg95
I7
ssg96
I2
sg97
I0
sg98
I0
sg99
I0
sg100
F9.266666666666667
sg101
I0
sg102
I0
sg103
I0
sg104
g285
sg105
I0
sg106
g55
sg107
I0
sg108
I0
sg109
I0
sg110
I2
sg111
I0
sg112
I0
sg113
S'S'
p286
sbsS'n13'
p287
(ijoueur
joueur
p288
(dp289
g27
I0
sg28
I0
sg29
I0
sg30
(ijoueur
rang
p290
(dp291
g33
I5
sg34
S'xx'
p292
sg36
g37
sbsg38
(dp293
g40
I0
sg41
I0
sg42
I0
sg43
I0
ssg44
(dp294
g40
I0
sg41
I0
sg42
I0
sg43
I0
ssg46
I0
sg47
I0
sg48
I0
sg49
I0
sg50
I0
sg51
(g52
S'C2'
p295
S'AI'
p296
S'AR'
p297
tp298
sg57
(ijoueur
rang
p299
(dp300
g33
I5
sg34
S'xx'
p301
sg36
g37
sbsg61
(dp302
g40
I0
sg41
I0
sg42
I0
sg43
I1
ssg63
(dp303
g40
I0
sg41
I0
sg42
I0
sg43
I0
ssg65
(dp304
g40
I0
sg41
I0
sg42
I0
sg43
I0
ssg67
(dp305
g40
I0
sg41
I0
sg42
I0
sg43
I1
ssg69
I0
sg70
I0
sg71
S"N'Waoy"
p306
sg73
I10
sg74
I0
sg75
I23
sg76
I350
sg77
g78
sg79
(dp307
g81
I8
sg82
I5
sg83
I10
sg84
I12
sg85
I6
sg86
I14
sg87
I7
sg88
I17
sg89
I9
sg90
I9
sg91
I9
sg92
I11
sg93
I7
sg94
I9
sg95
I6
ssg96
I5
sg97
I0
sg98
I0
sg99
I0
sg100
F10.724137931034482
sg101
I0
sg102
I0
sg103
I0
sg104
g307
sg105
I0
sg106
g55
sg107
I0
sg108
I0
sg109
I0
sg110
I35
sg111
I0
sg112
I0
sg113
S'HL'
p308
sbsS'n10'
p309
g137
sS'n11'
p310
(ijoueur
joueur
p311
(dp312
g27
I0
sg28
I0
sg29
I0
sg30
(ijoueur
rang
p313
(dp314
g33
I4
sg34
g225
sg36
g121
sbsg38
(dp315
g40
I0
sg41
I0
sg42
I0
sg43
I1
ssg44
(dp316
g40
I0
sg41
I0
sg42
I0
sg43
I0
ssg46
I0
sg47
I0
sg48
I0
sg49
I0
sg50
I0
sg51
(g52
S'AR'
p317
S'AI'
p318
g55
tp319
sg57
(ijoueur
rang
p320
(dp321
g33
I3
sg34
S'<<<'
p322
sg36
g246
sbsg61
(dp323
g40
I0
sg41
I0
sg42
I0
sg43
I0
ssg63
(dp324
g40
I0
sg41
I0
sg42
I0
sg43
I1
ssg65
(dp325
g40
I0
sg41
I0
sg42
I0
sg43
I0
ssg67
(dp326
g40
I0
sg41
I0
sg42
I0
sg43
I0
ssg69
I0
sg70
I0
sg71
S'Engret'
p327
sg73
I9
sg74
I0
sg75
I23
sg76
I75
sg77
g78
sg79
(dp328
g81
I10
sg82
I5
sg83
I9
sg84
I9
sg85
I4
sg86
I9
sg87
I3
sg88
I11
sg89
I5
sg90
I8
sg91
I13
sg92
I7
sg93
I4
sg94
I8
sg95
I7
ssg96
I3
sg97
I0
sg98
I0
sg99
I0
sg100
F9.030303030303031
sg101
I0
sg102
I0
sg103
I0
sg104
g328
sg105
I0
sg106
g55
sg107
I0
sg108
I0
sg109
I0
sg110
I8
sg111
I0
sg112
I0
sg113
S'OG'
p329
sbsS'n16'
p330
(ijoueur
joueur
p331
(dp332
g27
I0
sg28
I0
sg29
I0
sg30
(ijoueur
rang
p333
(dp334
g33
I3
sg34
S'^^^'
p335
sg36
g246
sbsg38
(dp336
g40
I0
sg41
I0
sg42
I1
sg43
I0
ssg44
(dp337
g40
I0
sg41
I0
sg42
I0
sg43
I0
ssg46
I0
sg47
I0
sg48
I0
sg49
I0
sg50
I0
sg51
(g52
S'PI'
p338
S'TA'
p339
g55
tp340
sg57
(ijoueur
rang
p341
(dp342
g33
I3
sg34
S'^^^'
p343
sg36
g246
sbsg61
(dp344
g40
I0
sg41
I0
sg42
I0
sg43
I0
ssg63
(dp345
g40
I0
sg41
I0
sg42
I1
sg43
I0
ssg65
(dp346
g40
I0
sg41
I0
sg42
I0
sg43
I0
ssg67
(dp347
g40
I0
sg41
I0
sg42
I0
sg43
I0
ssg69
I0
sg70
I0
sg71
S'Ykwen'
p348
sg73
I1
sg74
I0
sg75
I11
sg76
I65
sg77
g78
sg79
(dp349
g81
I9
sg82
I9
sg83
I7
sg84
I10
sg85
I5
sg86
I9
sg87
I0
sg88
I9
sg89
I0
sg90
I6
sg91
I9
sg92
I8
sg93
I0
sg94
I6
sg95
I9
ssg96
I1
sg97
I0
sg98
I0
sg99
I0
sg100
F8.413793103448276
sg101
I0
sg102
I0
sg103
I0
sg104
g349
sg105
I0
sg106
g55
sg107
I0
sg108
I0
sg109
I0
sg110
I7
sg111
I0
sg112
I0
sg113
S'HL'
p350
sbsS'n17'
p351
(ijoueur
joueur
p352
(dp353
g27
I0
sg28
I0
sg29
I0
sg30
(ijoueur
rang
p354
(dp355
g33
I1
sg34
S'<'
p356
sg36
S'base'
p357
sbsg38
(dp358
g40
I0
sg41
I0
sg42
I1
sg43
I0
ssg44
(dp359
g40
I0
sg41
I0
sg42
I0
sg43
I0
ssg46
I0
sg47
I0
sg48
I0
sg49
I0
sg50
I0
sg51
(g52
S'TA'
p360
S'PI'
p361
g55
tp362
sg57
(ijoueur
rang
p363
(dp364
g33
I1
sg34
g356
sg36
g357
sbsg61
(dp365
g40
I0
sg41
I0
sg42
I0
sg43
I0
ssg63
(dp366
g40
I0
sg41
I0
sg42
I1
sg43
I0
ssg65
(dp367
g40
I0
sg41
I0
sg42
I0
sg43
I0
ssg67
(dp368
g40
I0
sg41
I0
sg42
I0
sg43
I0
ssg69
I0
sg70
I0
sg71
S'Wugnik'
p369
sg73
I5
sg74
I0
sg75
I14
sg76
I9
sg77
g78
sg79
(dp370
g81
I9
sg82
I9
sg83
I8
sg84
I11
sg85
I5
sg86
I8
sg87
I3
sg88
I9
sg89
I5
sg90
I8
sg91
I6
sg92
I8
sg93
I4
sg94
I10
sg95
I8
ssg96
I2
sg97
I0
sg98
I0
sg99
I0
sg100
F8.931034482758621
sg101
I0
sg102
I0
sg103
I0
sg104
g370
sg105
I0
sg106
g55
sg107
I0
sg108
I0
sg109
I0
sg110
I1
sg111
I0
sg112
I0
sg113
g114
sbsS'n14'
p371
(ijoueur
joueur
p372
(dp373
g27
I0
sg28
I0
sg29
I0
sg30
(ijoueur
rang
p374
(dp375
g33
I4
sg34
g225
sg36
g121
sbsg38
(dp376
g40
I0
sg41
I0
sg42
I0
sg43
I0
ssg44
(dp377
g40
I0
sg41
I0
sg42
I0
sg43
I0
ssg46
I0
sg47
I0
sg48
I0
sg49
I0
sg50
I0
sg51
(g52
S'AI'
p378
S'CE'
p379
g55
tp380
sg57
(ijoueur
rang
p381
(dp382
g33
I4
sg34
g225
sg36
g121
sbsg61
(dp383
g40
I0
sg41
I0
sg42
I0
sg43
I1
ssg63
(dp384
g40
I0
sg41
I0
sg42
I0
sg43
I0
ssg65
(dp385
g40
I0
sg41
I0
sg42
I0
sg43
I0
ssg67
(dp386
g40
I0
sg41
I0
sg42
I0
sg43
I1
ssg69
I0
sg70
I0
sg71
S'Haloepl'
p387
sg73
I5
sg74
I0
sg75
I18
sg76
I150
sg77
g78
sg79
(dp388
g81
I9
sg82
I5
sg83
I10
sg84
I10
sg85
I5
sg86
I10
sg87
I6
sg88
I13
sg89
I8
sg90
I9
sg91
I14
sg92
I8
sg93
I6
sg94
I8
sg95
I7
ssg96
I2
sg97
I0
sg98
I0
sg99
I0
sg100
F10.419354838709678
sg101
I0
sg102
I0
sg103
I0
sg104
g388
sg105
I0
sg106
g55
sg107
I0
sg108
I0
sg109
I0
sg110
I14
sg111
I0
sg112
I0
sg113
S'HL'
p389
sbsS'n15'
p390
g25
sS'n18'
p391
(ijoueur
joueur
p392
(dp393
g27
I0
sg28
I0
sg29
I0
sg30
(ijoueur
rang
p394
(dp395
g33
I3
sg34
S'<<<'
p396
sg36
g246
sbsg38
(dp397
g40
I0
sg41
I0
sg42
I1
sg43
I0
ssg44
(dp398
g40
I0
sg41
I0
sg42
I0
sg43
I0
ssg46
I0
sg47
I0
sg48
I0
sg49
I0
sg50
I0
sg51
(g52
S'TL'
p399
S'DL'
p400
g55
tp401
sg57
(ijoueur
rang
p402
(dp403
g33
I3
sg34
S'<<<'
p404
sg36
g246
sbsg61
(dp405
g40
I0
sg41
I0
sg42
I0
sg43
I0
ssg63
(dp406
g40
I0
sg41
I0
sg42
I1
sg43
I0
ssg65
(dp407
g40
I0
sg41
I0
sg42
I0
sg43
I0
ssg67
(dp408
g40
I0
sg41
I0
sg42
I0
sg43
I0
ssg69
I0
sg70
I0
sg71
S'Yrmatot'
p409
sg73
I8
sg74
I0
sg75
I20
sg76
I75
sg77
g78
sg79
(dp410
g81
I7
sg82
I10
sg83
I7
sg84
I10
sg85
I7
sg86
I9
sg87
I1
sg88
I9
sg89
I2
sg90
I7
sg91
I9
sg92
I9
sg93
I1
sg94
I9
sg95
I5
ssg96
I2
sg97
I0
sg98
I0
sg99
I0
sg100
F8.935483870967742
sg101
I0
sg102
I0
sg103
I0
sg104
g410
sg105
I0
sg106
g55
sg107
I0
sg108
I0
sg109
I0
sg110
I8
sg111
I0
sg112
I0
sg113
S'OG'
p411
sbsS'n19'
p412
g241
sS'n22'
p413
(ijoueur
joueur
p414
(dp415
g27
I0
sg28
I0
sg29
I0
sg30
(ijoueur
rang
p416
(dp417
g33
I5
sg34
S'**'
p418
sg36
g37
sbsg38
(dp419
g40
I0
sg41
I0
sg42
I1
sg43
I0
ssg44
(dp420
g40
I0
sg41
I0
sg42
I0
sg43
I0
ssg46
I0
sg47
I0
sg48
I0
sg49
I0
sg50
I0
sg51
(g52
S'C1'
p421
S'AI'
p422
g55
tp423
sg57
(ijoueur
rang
p424
(dp425
g33
I5
sg34
S'**'
p426
sg36
g37
sbsg61
(dp427
g40
I0
sg41
I0
sg42
I0
sg43
I0
ssg63
(dp428
g40
I0
sg41
I0
sg42
I1
sg43
I0
ssg65
(dp429
g40
I0
sg41
I0
sg42
I0
sg43
I0
ssg67
(dp430
g40
I0
sg41
I0
sg42
I0
sg43
I0
ssg69
I0
sg70
I0
sg71
S"Oet'Pal"
p431
sg73
I2
sg74
I0
sg75
I15
sg76
I200
sg77
g78
sg79
(dp432
g81
I7
sg82
I4
sg83
I9
sg84
I11
sg85
I5
sg86
I11
sg87
I7
sg88
I13
sg89
I9
sg90
I7
sg91
I8
sg92
I8
sg93
I8
sg94
I8
sg95
I4
ssg96
I2
sg97
I0
sg98
I0
sg99
I0
sg100
F8.8
sg101
I0
sg102
I0
sg103
I0
sg104
g432
sg105
I0
sg106
g55
sg107
I0
sg108
I0
sg109
I0
sg110
I20
sg111
I0
sg112
I0
sg113
S'HL'
p433
sbsS'n21'
p434
g202
sS'n20'
p435
(ijoueur
joueur
p436
(dp437
g27
I0
sg28
I0
sg29
I0
sg30
(ijoueur
rang
p438
(dp439
g33
I5
sg34
S'**'
p440
sg36
g37
sbsg38
(dp441
g40
I0
sg41
I0
sg42
I0
sg43
I0
ssg44
(dp442
g40
I0
sg41
I0
sg42
I0
sg43
I0
ssg46
I0
sg47
I0
sg48
I0
sg49
I0
sg50
I0
sg51
(g52
S'DO'
p443
S'CE'
p444
g55
tp445
sg57
(ijoueur
rang
p446
(dp447
g33
I3
sg34
S'^^^'
p448
sg36
g246
sbsg61
(dp449
g40
I0
sg41
I0
sg42
I1
sg43
I0
ssg63
(dp450
g40
I0
sg41
I0
sg42
I0
sg43
I0
ssg65
(dp451
g40
I0
sg41
I0
sg42
I0
sg43
I0
ssg67
(dp452
g40
I0
sg41
I0
sg42
I1
sg43
I0
ssg69
I0
sg70
I0
sg71
S'Skem'
p453
sg73
I9
sg74
I0
sg75
I24
sg76
I11
sg77
g78
sg79
(dp454
g81
I10
sg82
I6
sg83
I8
sg84
I10
sg85
I3
sg86
I6
sg87
I7
sg88
I8
sg89
I8
sg90
I8
sg91
I7
sg92
I6
sg93
I7
sg94
I10
sg95
I6
ssg96
I2
sg97
I0
sg98
I0
sg99
I0
sg100
F8.363636363636363
sg101
I0
sg102
I0
sg103
I0
sg104
g454
sg105
I0
sg106
g55
sg107
I0
sg108
I0
sg109
I0
sg110
I1
sg111
I0
sg112
I0
sg113
g114
sbsS'n8'
p455
g164
sS'n9'
p456
(ijoueur
joueur
p457
(dp458
g27
I0
sg28
I0
sg29
I0
sg30
(ijoueur
rang
p459
(dp460
g33
I4
sg34
g120
sg36
g121
sbsg38
(dp461
g40
I0
sg41
I0
sg42
I0
sg43
I0
ssg44
(dp462
g40
I0
sg41
I0
sg42
I0
sg43
I0
ssg46
I0
sg47
I0
sg48
I0
sg49
I0
sg50
I0
sg51
(g52
S'DM'
p463
g55
g55
tp464
sg57
(ijoueur
rang
p465
(dp466
g33
I4
sg34
g120
sg36
g121
sbsg61
(dp467
g40
I0
sg41
I0
sg42
I0
sg43
I1
ssg63
(dp468
g40
I0
sg41
I0
sg42
I0
sg43
I0
ssg65
(dp469
g40
I0
sg41
I0
sg42
I0
sg43
I0
ssg67
(dp470
g40
I0
sg41
I0
sg42
I0
sg43
I1
ssg69
I0
sg70
I0
sg71
S'Tradw'
p471
sg73
I5
sg74
I0
sg75
I15
sg76
I100
sg77
g78
sg79
(dp472
g81
I8
sg82
I5
sg83
I8
sg84
I10
sg85
I4
sg86
I9
sg87
I5
sg88
I10
sg89
I6
sg90
I9
sg91
I7
sg92
I12
sg93
I5
sg94
I10
sg95
I7
ssg96
I4
sg97
I0
sg98
I0
sg99
I0
sg100
F8.413793103448276
sg101
I0
sg102
I0
sg103
I0
sg104
g472
sg105
I0
sg106
g55
sg107
I0
sg108
I0
sg109
I0
sg110
I10
sg111
I0
sg112
I0
sg113
S'HL'
p473
sbsS'n1'
p474
(ijoueur
joueur
p475
(dp476
g27
I0
sg28
I0
sg29
I0
sg30
(ijoueur
rang
p477
(dp478
g33
I4
sg34
g225
sg36
g121
sbsg38
(dp479
g40
I0
sg41
I0
sg42
I0
sg43
I0
ssg44
(dp480
g40
I0
sg41
I0
sg42
I0
sg43
I0
ssg46
I0
sg47
I0
sg48
I0
sg49
I0
sg50
I0
sg51
(g52
S'PI'
p481
g55
g55
tp482
sg57
(ijoueur
rang
p483
(dp484
g33
I4
sg34
g225
sg36
g121
sbsg61
(dp485
g40
I0
sg41
I0
sg42
I0
sg43
I1
ssg63
(dp486
g40
I0
sg41
I0
sg42
I0
sg43
I0
ssg65
(dp487
g40
I0
sg41
I0
sg42
I0
sg43
I0
ssg67
(dp488
g40
I0
sg41
I0
sg42
I0
sg43
I1
ssg69
I0
sg70
I0
sg71
S'Zwiek'
p489
sg73
I8
sg74
I0
sg75
I18
sg76
I65
sg77
g78
sg79
(dp490
g81
I8
sg82
I9
sg83
I10
sg84
I10
sg85
I3
sg86
I9
sg87
I3
sg88
I12
sg89
I4
sg90
I7
sg91
I11
sg92
I8
sg93
I3
sg94
I7
sg95
I7
ssg96
I1
sg97
I0
sg98
I0
sg99
I0
sg100
F9.0
sg101
I0
sg102
I0
sg103
I0
sg104
g490
sg105
I0
sg106
g55
sg107
I0
sg108
I0
sg109
I0
sg110
I7
sg111
I0
sg112
I0
sg113
S'HL'
p491
sbsS'n2'
p492
(ijoueur
joueur
p493
(dp494
g27
I0
sg28
I0
sg29
I0
sg30
(ijoueur
rang
p495
(dp496
g33
I5
sg34
S'**'
p497
sg36
g37
sbsg38
(dp498
g40
I0
sg41
I0
sg42
I0
sg43
I0
ssg44
(dp499
g40
I0
sg41
I0
sg42
I0
sg43
I0
ssg46
I0
sg47
I0
sg48
I0
sg49
I0
sg50
I0
sg51
(g52
S'TA'
p500
g55
g55
tp501
sg57
(ijoueur
rang
p502
(dp503
g33
I5
sg34
S'**'
p504
sg36
g37
sbsg61
(dp505
g40
I0
sg41
I0
sg42
I0
sg43
I1
ssg63
(dp506
g40
I0
sg41
I0
sg42
I0
sg43
I0
ssg65
(dp507
g40
I0
sg41
I0
sg42
I0
sg43
I0
ssg67
(dp508
g40
I0
sg41
I0
sg42
I0
sg43
I1
ssg69
I0
sg70
I0
sg71
S'Gruggnik'
p509
sg73
I4
sg74
I0
sg75
I16
sg76
I150
sg77
g78
sg79
(dp510
g81
I11
sg82
I9
sg83
I7
sg84
I12
sg85
I6
sg86
I11
sg87
I5
sg88
I11
sg89
I7
sg90
I7
sg91
I7
sg92
I9
sg93
I3
sg94
I10
sg95
I10
ssg96
I5
sg97
I0
sg98
I0
sg99
I0
sg100
F9.96551724137931
sg101
I0
sg102
I0
sg103
I0
sg104
g510
sg105
I0
sg106
g55
sg107
I0
sg108
I0
sg109
I0
sg110
I15
sg111
I0
sg112
I0
sg113
g114
sbsS'n3'
p511
(ijoueur
joueur
p512
(dp513
g27
I0
sg28
I0
sg29
I0
sg30
(ijoueur
rang
p514
(dp515
g33
I5
sg34
S'xx'
p516
sg36
g37
sbsg38
(dp517
g40
I0
sg41
I0
sg42
I0
sg43
I0
ssg44
(dp518
g40
I0
sg41
I0
sg42
I0
sg43
I0
ssg46
I0
sg47
I0
sg48
I0
sg49
I0
sg50
I0
sg51
(g52
S'PI'
p519
S'TA'
p520
S'N8'
p521
tp522
sg57
(ijoueur
rang
p523
(dp524
g33
I5
sg34
S'xx'
p525
sg36
g37
sbsg61
(dp526
g40
I0
sg41
I0
sg42
I0
sg43
I1
ssg63
(dp527
g40
I0
sg41
I0
sg42
I0
sg43
I0
ssg65
(dp528
g40
I0
sg41
I0
sg42
I0
sg43
I0
ssg67
(dp529
g40
I0
sg41
I0
sg42
I0
sg43
I1
ssg69
I0
sg70
I0
sg71
S"Nav'Pil"
p530
sg73
I6
sg74
I0
sg75
I18
sg76
I350
sg77
g78
sg79
(dp531
g81
I8
sg82
I10
sg83
I7
sg84
I10
sg85
I4
sg86
I14
sg87
I3
sg88
I14
sg89
I5
sg90
I6
sg91
I7
sg92
I13
sg93
I5
sg94
I8
sg95
I11
ssg96
I5
sg97
I0
sg98
I0
sg99
I0
sg100
F10.586206896551724
sg101
I0
sg102
I0
sg103
I0
sg104
g531
sg105
I0
sg106
g55
sg107
I0
sg108
I0
sg109
I0
sg110
I35
sg111
I0
sg112
I0
sg113
S'HL'
p532
sbsS'n4'
p533
g116
sS'n5'
p534
(ijoueur
joueur
p535
(dp536
g27
I0
sg28
I0
sg29
I0
sg30
(ijoueur
rang
p537
(dp538
g33
I3
sg34
S'^^^'
p539
sg36
g246
sbsg38
(dp540
g40
I0
sg41
I0
sg42
I0
sg43
I0
ssg44
(dp541
g40
I0
sg41
I0
sg42
I0
sg43
I0
ssg46
I0
sg47
I0
sg48
I0
sg49
I0
sg50
I0
sg51
(g52
S'DL'
p542
g55
g55
tp543
sg57
(ijoueur
rang
p544
(dp545
g33
I3
sg34
S'^^^'
p546
sg36
g246
sbsg61
(dp547
g40
I0
sg41
I0
sg42
I0
sg43
I1
ssg63
(dp548
g40
I0
sg41
I0
sg42
I0
sg43
I0
ssg65
(dp549
g40
I0
sg41
I0
sg42
I0
sg43
I0
ssg67
(dp550
g40
I0
sg41
I0
sg42
I0
sg43
I1
ssg69
I0
sg70
I0
sg71
S'Lalaod'
p551
sg73
I4
sg74
I0
sg75
I19
sg76
I65
sg77
g78
sg79
(dp552
g81
I8
sg82
I9
sg83
I8
sg84
I12
sg85
I7
sg86
I11
sg87
I2
sg88
I12
sg89
I2
sg90
I5
sg91
I9
sg92
I9
sg93
I1
sg94
I8
sg95
I5
ssg96
I1
sg97
I0
sg98
I0
sg99
I0
sg100
F9.518518518518519
sg101
I0
sg102
I0
sg103
I0
sg104
g552
sg105
I0
sg106
g55
sg107
I0
sg108
I0
sg109
I0
sg110
I7
sg111
I0
sg112
I0
sg113
S'HL'
p553
sbsS'n6'
p554
g184
sS'n7'
p555
g221
ssS'remplacements'
p556
(dp557
g330
S'n0'
p558
sg351
g558
sg391
g558
sg412
g558
sg413
g558
sg434
g558
sg435
g558
ssb.