(iclub
compo
p0
(dp1
S'caracs_old'
p2
(dp3
S'A'
p4
F207.5
sS'ME'
p5
F111.0
sS'E'
p6
I246
sS'OplusAV'
p7
F105.5
sS'TO_off'
p8
F116.5
sS'OplusAR'
p9
F87.5
sS'M'
p10
F63.5
sS'JP'
p11
F105.5
sS'OmoinsAR'
p12
F107.5
sS'PA'
p13
F134.0
sS'TO_def'
p14
F107.0
sS'OmoinsAV'
p15
F92.5
sS'R'
p16
F196.5
ssS'totaux_old'
p17
(dp18
S'T2'
p19
F223.5
sS'T3'
p20
F123.0
sS'T1'
p21
F209.625
ssS'roles'
p22
(dp23
S'drop1'
p24
(ijoueur
joueur
p25
(dp26
S'rouges_total'
p27
I0
sS'drops_total'
p28
I58
sS'blessure'
p29
I0
sS'RG_max'
p30
(ijoueur
rang
p31
(dp32
S'type_nb'
p33
I6
sS'rang'
p34
S'***'
p35
sS'type'
p36
S'personnage'
p37
sbsS'MJ2_total'
p38
(dp39
S'SR'
p40
I0
sS'ST'
p41
I0
sS'CR'
p42
I0
sS'CT'
p43
I0
ssS'MJ3_total'
p44
(dp45
g40
I0
sg41
I0
sg42
I0
sg43
I0
ssS'drop_rates_total'
p46
I0
sS'drop_rates_saison'
p47
I0
sS'transformations'
p48
I359
sS'penalites'
p49
I448
sS'essais_saison'
p50
I1
sS'penalite_ratees_saison'
p51
I1
sS'transformations_saison'
p52
I6
sS'postes'
p53
(S'dummy'
p54
S'AR'
p55
S'AI'
p56
S'CE'
p57
tp58
sS'RG'
p59
(ijoueur
rang
p60
(dp61
g33
I6
sg34
S'***'
p62
sg36
g37
sbsS'MJ1'
p63
(dp64
g40
I0
sg41
I0
sg42
I0
sg43
I1
ssS'MJ2'
p65
(dp66
g40
I0
sg41
I0
sg42
I0
sg43
I0
ssS'MJ3'
p67
(dp68
g40
I0
sg41
I0
sg42
I0
sg43
I0
ssS'MJ1_total'
p69
(dp70
g40
I0
sg41
I0
sg42
I0
sg43
I1
ssS'penalites_total'
p71
I448
sS'penalites_saison'
p72
I0
sS'nom'
p73
S'Lamenoire'
p74
sS'C'
p75
I0
sS'transformations_total'
p76
I359
sS'D'
p77
I11
sS'VAL'
p78
I510
sS'club'
p79
S'DKF'
p80
sS'caracs'
p81
(dp82
S'A'
p83
I16
sS'ME'
p84
I5
sS'RP2'
p85
I12
sS'E'
p86
I12
sS'TO'
p87
I6
sS'RP1'
p88
I7
sS'JP'
p89
I12
sS'RP_tot'
p90
I12
sS'P'
p91
I14
sS'PA'
p92
I15
sS'M'
p93
I12
sS'R'
p94
I6
sS'TB'
p95
I13
sS'PL'
p96
I16
sS'TA'
p97
I7
ssS'fatigue'
p98
I3
sS'drop_ratees_total'
p99
I0
sS'blessures_total'
p100
I0
sS'XP'
p101
I0
sS'EV'
p102
F13.666666666666666
sS'penalite_ratees_total'
p103
I0
sS'drops'
p104
I58
sS'blessures_saison'
p105
I0
sS'jaunes_total'
p106
I0
sS'caracs_sans_fatigue'
p107
g82
sS'rouges_saison'
p108
I0
sS'anciens_clubs'
p109
S''
p110
sS'transformation_ratees_total'
p111
I0
sS'drops_saison'
p112
I0
sS'transformation_ratees_saison'
p113
I0
sS'MS'
p114
I55
sS'essais_total'
p115
I30
sS'jaunes_saison'
p116
I0
sS'ARM'
p117
S'EN'
p118
sbsS'SA_scd'
p119
(ijoueur
joueur
p120
(dp121
g27
I0
sg28
I0
sg29
I0
sg30
(ijoueur
rang
p122
(dp123
g33
I5
sg34
S'xx'
p124
sg36
S'seigneur'
p125
sbsg38
(dp126
g40
I0
sg41
I0
sg42
I0
sg43
I0
ssg44
(dp127
g40
I0
sg41
I0
sg42
I0
sg43
I0
ssg46
I0
sg47
I0
sg48
I0
sg49
I0
sg50
I0
sg51
I0
sg52
I0
sg53
(g54
S'TL'
p128
S'DL'
p129
g110
tp130
sg59
(ijoueur
rang
p131
(dp132
g33
I5
sg34
S'xx'
p133
sg36
g125
sbsg63
(dp134
g40
I0
sg41
I0
sg42
I0
sg43
I0
ssg65
(dp135
g40
I0
sg41
I0
sg42
I0
sg43
I0
ssg67
(dp136
g40
I0
sg41
I0
sg42
I0
sg43
I0
ssg69
(dp137
g40
I0
sg41
I0
sg42
I0
sg43
I0
ssg71
I0
sg72
I0
sg73
S'Huken'
p138
sg75
I2
sg76
I0
sg77
I15
sg78
I168
sg79
S'KAK'
p139
sg81
(dp140
g83
I9
sg84
I10
sg85
I7
sg86
I14
sg87
I11
sg88
I12
sg89
I4
sg90
I12
sg91
I5
sg92
I8
sg93
I10
sg94
I8
sg95
I5
sg96
I12
sg97
I7
ssg98
I0
sg99
I0
sg100
I0
sg101
I0
sg102
F10.526315789473685
sg103
I0
sg104
I0
sg105
I0
sg106
I0
sg107
g140
sg108
I0
sg109
S'KH9'
p141
sg111
I0
sg112
I0
sg113
I0
sg114
I18
sg115
I1
sg116
I0
sg117
S'N'
p142
sbsS'RJL'
p143
g25
sS'cap'
p144
(ijoueur
joueur
p145
(dp146
g27
I0
sg28
I0
sg29
I0
sg30
(ijoueur
rang
p147
(dp148
g33
I5
sg34
S'xx'
p149
sg36
g125
sbsg38
(dp150
g40
I0
sg41
I0
sg42
I0
sg43
I0
ssg44
(dp151
g40
I0
sg41
I0
sg42
I0
sg43
I0
ssg46
I0
sg47
I0
sg48
I1
sg49
I1
sg50
I0
sg51
I0
sg52
I0
sg53
(g54
S'AI'
p152
S'CE'
p153
g110
tp154
sg59
(ijoueur
rang
p155
(dp156
g33
I5
sg34
S'xx'
p157
sg36
g125
sbsg63
(dp158
g40
I0
sg41
I0
sg42
I0
sg43
I1
ssg65
(dp159
g40
I0
sg41
I0
sg42
I0
sg43
I0
ssg67
(dp160
g40
I0
sg41
I0
sg42
I0
sg43
I0
ssg69
(dp161
g40
I0
sg41
I0
sg42
I0
sg43
I1
ssg71
I1
sg72
I0
sg73
S'Rhovend'
p162
sg75
I6
sg76
I1
sg77
I15
sg78
I700
sg79
g139
sg81
(dp163
g83
I12
sg84
I6
sg85
I12
sg86
I14
sg87
I8
sg88
I11
sg89
I7
sg90
I16
sg91
I7
sg92
I11
sg93
I10
sg94
I8
sg95
I11
sg96
I13
sg97
I7
ssg98
I3
sg99
I0
sg100
I0
sg101
I0
sg102
F12.290322580645162
sg103
I0
sg104
I0
sg105
I0
sg106
I0
sg107
g163
sg108
I0
sg109
S'MDL8'
p164
sg111
I0
sg112
I0
sg113
I0
sg114
I120
sg115
I16
sg116
I0
sg117
S'CV'
p165
sbsS'B4'
p166
g25
sS'RJC'
p167
(ijoueur
joueur
p168
(dp169
g27
I0
sg28
I24
sg29
I0
sg30
(ijoueur
rang
p170
(dp171
g33
I4
sg34
S'x'
p172
sg36
S'heros'
p173
sbsg38
(dp174
g40
I0
sg41
I0
sg42
I0
sg43
I0
ssg44
(dp175
g40
I0
sg41
I0
sg42
I0
sg43
I0
ssg46
I0
sg47
I0
sg48
I51
sg49
I125
sg50
I0
sg51
I0
sg52
I0
sg53
(g54
S'AR'
p176
S'CE'
p177
S'DO'
p178
tp179
sg59
(ijoueur
rang
p180
(dp181
g33
I4
sg34
g172
sg36
g173
sbsg63
(dp182
g40
I0
sg41
I0
sg42
I0
sg43
I0
ssg65
(dp183
g40
I0
sg41
I0
sg42
I0
sg43
I0
ssg67
(dp184
g40
I0
sg41
I0
sg42
I0
sg43
I0
ssg69
(dp185
g40
I0
sg41
I0
sg42
I0
sg43
I0
ssg71
I125
sg72
I0
sg73
S'Laosal'
p186
sg75
I7
sg76
I51
sg77
I15
sg78
I439
sg79
g139
sg81
(dp187
g83
I14
sg84
I5
sg85
I7
sg86
I13
sg87
I8
sg88
I6
sg89
I12
sg90
I7
sg91
I13
sg92
I13
sg93
I12
sg94
I9
sg95
I12
sg96
I16
sg97
I6
ssg98
I0
sg99
I0
sg100
I0
sg101
I0
sg102
F12.515151515151516
sg103
I0
sg104
I24
sg105
I0
sg106
I0
sg107
g187
sg108
I0
sg109
S'DKW9'
p188
sg111
I0
sg112
I0
sg113
I0
sg114
I42
sg115
I2
sg116
I0
sg117
S'EN'
p189
sbsS'B1'
p190
g25
sS'B2'
p191
g25
sS'B3'
p192
g25
sS'SA_pcp2'
p193
(ijoueur
joueur
p194
(dp195
g27
I0
sg28
I0
sg29
I0
sg30
(ijoueur
rang
p196
(dp197
g33
I5
sg34
S'**'
p198
sg36
g125
sbsg38
(dp199
g40
I0
sg41
I0
sg42
I0
sg43
I0
ssg44
(dp200
g40
I0
sg41
I0
sg42
I0
sg43
I0
ssg46
I0
sg47
I0
sg48
I0
sg49
I0
sg50
I2
sg51
I0
sg52
I0
sg53
(g54
S'DL'
p201
S'N8'
p202
g110
tp203
sg59
(ijoueur
rang
p204
(dp205
g33
I5
sg34
S'**'
p206
sg36
g125
sbsg63
(dp207
g40
I0
sg41
I0
sg42
I0
sg43
I1
ssg65
(dp208
g40
I0
sg41
I0
sg42
I0
sg43
I0
ssg67
(dp209
g40
I0
sg41
I0
sg42
I0
sg43
I0
ssg69
(dp210
g40
I0
sg41
I0
sg42
I0
sg43
I1
ssg71
I0
sg72
I0
sg73
S'Drodengh'
p211
sg75
I9
sg76
I0
sg77
I14
sg78
I140
sg79
g139
sg81
(dp212
g83
I11
sg84
I11
sg85
I7
sg86
I10
sg87
I12
sg88
I13
sg89
I4
sg90
I13
sg91
I4
sg92
I9
sg93
I7
sg94
I10
sg95
I3
sg96
I11
sg97
I5
ssg98
I6
sg99
I0
sg100
I0
sg101
I0
sg102
F10.941176470588236
sg103
I0
sg104
I0
sg105
I0
sg106
I0
sg107
g212
sg108
I0
sg109
g110
sg111
I0
sg112
I0
sg113
I0
sg114
I22
sg115
I25
sg116
I0
sg117
S'HB'
p213
sbsS'SA_pcp1'
p214
(ijoueur
joueur
p215
(dp216
g27
I0
sg28
I0
sg29
I0
sg30
(ijoueur
rang
p217
(dp218
g33
I6
sg34
S'***'
p219
sg36
g37
sbsg38
(dp220
g40
I0
sg41
I0
sg42
I0
sg43
I0
ssg44
(dp221
g40
I0
sg41
I0
sg42
I0
sg43
I0
ssg46
I0
sg47
I0
sg48
I0
sg49
I0
sg50
I0
sg51
I0
sg52
I0
sg53
(g54
S'TL'
p222
S'N8'
p223
S'DL'
p224
tp225
sg59
(ijoueur
rang
p226
(dp227
g33
I6
sg34
S'***'
p228
sg36
g37
sbsg63
(dp229
g40
I0
sg41
I0
sg42
I0
sg43
I0
ssg65
(dp230
g40
I0
sg41
I0
sg42
I0
sg43
I0
ssg67
(dp231
g40
I0
sg41
I0
sg42
I0
sg43
I0
ssg69
(dp232
g40
I0
sg41
I0
sg42
I0
sg43
I0
ssg71
I0
sg72
I0
sg73
S"U'zhul"
p233
sg75
I8
sg76
I0
sg77
I18
sg78
I651
sg79
g139
sg81
(dp234
g83
I14
sg84
I10
sg85
I7
sg86
I12
sg87
I14
sg88
I10
sg89
I0
sg90
I10
sg91
I0
sg92
I11
sg93
I9
sg94
I9
sg95
I0
sg96
I12
sg97
I6
ssg98
I0
sg99
I0
sg100
I0
sg101
I0
sg102
F11.31578947368421
sg103
I0
sg104
I0
sg105
I0
sg106
I0
sg107
g234
sg108
I0
sg109
g110
sg111
I0
sg112
I0
sg113
I0
sg114
I56
sg115
I11
sg116
I0
sg117
S'CHS'
p235
sbsS'drop3'
p236
(ijoueur
joueur
p237
(dp238
g27
I0
sg28
I3
sg29
I0
sg30
(ijoueur
rang
p239
(dp240
g33
I5
sg34
S'**'
p241
sg36
g125
sbsg38
(dp242
g40
I0
sg41
I0
sg42
I0
sg43
I1
ssg44
(dp243
g40
I0
sg41
I0
sg42
I0
sg43
I0
ssg46
I0
sg47
I0
sg48
I39
sg49
I46
sg50
I0
sg51
I0
sg52
I0
sg53
(g54
S'AR'
p244
S'CE'
p245
S'DO'
p246
tp247
sg59
(ijoueur
rang
p248
(dp249
g33
I5
sg34
S'**'
p250
sg36
g125
sbsg63
(dp251
g40
I0
sg41
I0
sg42
I0
sg43
I0
ssg65
(dp252
g40
I0
sg41
I0
sg42
I0
sg43
I1
ssg67
(dp253
g40
I0
sg41
I0
sg42
I0
sg43
I0
ssg69
(dp254
g40
I0
sg41
I0
sg42
I0
sg43
I0
ssg71
I46
sg72
I0
sg73
S'Ukatas'
p255
sg75
I6
sg76
I39
sg77
I15
sg78
I150
sg79
g139
sg81
(dp256
g83
I14
sg84
I4
sg85
I13
sg86
I10
sg87
I8
sg88
I7
sg89
I10
sg90
I13
sg91
I10
sg92
I12
sg93
I10
sg94
I9
sg95
I10
sg96
I14
sg97
I4
ssg98
I3
sg99
I0
sg100
I0
sg101
I0
sg102
F12.06060606060606
sg103
I0
sg104
I3
sg105
I0
sg106
I0
sg107
g256
sg108
I0
sg109
S'ED9'
p257
sg111
I0
sg112
I1
sg113
I0
sg114
I15
sg115
I11
sg116
I0
sg117
S'S'
p258
sbsS'SA_remp1'
p259
(ijoueur
joueur
p260
(dp261
g27
I0
sg28
I0
sg29
I0
sg30
(ijoueur
rang
p262
(dp263
g33
I4
sg34
S'*'
p264
sg36
g173
sbsg38
(dp265
g40
I0
sg41
I0
sg42
I0
sg43
I0
ssg44
(dp266
g40
I0
sg41
I0
sg42
I0
sg43
I0
ssg46
I0
sg47
I0
sg48
I0
sg49
I0
sg50
I0
sg51
I0
sg52
I0
sg53
(g54
S'PI'
p267
S'DL'
p268
g110
tp269
sg59
(ijoueur
rang
p270
(dp271
g33
I4
sg34
g264
sg36
g173
sbsg63
(dp272
g40
I0
sg41
I0
sg42
I0
sg43
I0
ssg65
(dp273
g40
I0
sg41
I0
sg42
I0
sg43
I0
ssg67
(dp274
g40
I0
sg41
I0
sg42
I0
sg43
I0
ssg69
(dp275
g40
I0
sg41
I0
sg42
I0
sg43
I0
ssg71
I0
sg72
I0
sg73
S'Brednh'
p276
sg75
I7
sg76
I0
sg77
I18
sg78
I176
sg79
g139
sg81
(dp277
g83
I11
sg84
I13
sg85
I7
sg86
I9
sg87
I11
sg88
I10
sg89
I3
sg90
I10
sg91
I6
sg92
I7
sg93
I7
sg94
I11
sg95
I2
sg96
I10
sg97
I8
ssg98
I0
sg99
I0
sg100
I0
sg101
I0
sg102
F10.588235294117647
sg103
I0
sg104
I0
sg105
I0
sg106
I0
sg107
g277
sg108
I0
sg109
g110
sg111
I0
sg112
I0
sg113
I0
sg114
I10
sg115
I12
sg116
I0
sg117
S'HB'
p278
sbsS'drop2'
p279
g25
sS'SA_remp2'
p280
(ijoueur
joueur
p281
(dp282
g27
I0
sg28
I0
sg29
I0
sg30
(ijoueur
rang
p283
(dp284
g33
I4
sg34
g264
sg36
g173
sbsg38
(dp285
g40
I0
sg41
I0
sg42
I0
sg43
I0
ssg44
(dp286
g40
I0
sg41
I0
sg42
I0
sg43
I0
ssg46
I0
sg47
I0
sg48
I0
sg49
I0
sg50
I1
sg51
I0
sg52
I0
sg53
(g54
S'TL'
p287
S'DL'
p288
g110
tp289
sg59
(ijoueur
rang
p290
(dp291
g33
I4
sg34
g264
sg36
g173
sbsg63
(dp292
g40
I0
sg41
I0
sg42
I0
sg43
I1
ssg65
(dp293
g40
I0
sg41
I0
sg42
I0
sg43
I0
ssg67
(dp294
g40
I0
sg41
I0
sg42
I0
sg43
I0
ssg69
(dp295
g40
I0
sg41
I0
sg42
I0
sg43
I1
ssg71
I0
sg72
I0
sg73
S'Xouvess'
p296
sg75
I5
sg76
I0
sg77
I13
sg78
I150
sg79
g139
sg81
(dp297
g83
I10
sg84
I9
sg85
I6
sg86
I10
sg87
I10
sg88
I9
sg89
I3
sg90
I9
sg91
I4
sg92
I8
sg93
I8
sg94
I10
sg95
I4
sg96
I15
sg97
I7
ssg98
I5
sg99
I0
sg100
I0
sg101
I0
sg102
F10.580645161290322
sg103
I0
sg104
I0
sg105
I0
sg106
I0
sg107
g297
sg108
I0
sg109
S'PRG11'
p298
sg111
I0
sg112
I0
sg113
I0
sg114
I15
sg115
I2
sg116
I0
sg117
S'CHS'
p299
sbssS'totaux'
p300
(dp301
g19
I0
sg20
I0
sg21
I0
ssS'_compo_defaut_fatigue'
p302
Nsg81
(dp303
g4
I0
sg5
I0
sg6
I0
sg7
I0
sg8
I0
sg9
I0
sg10
I0
sg11
I0
sg12
I0
sg13
I0
sg14
I0
sg15
I0
sg16
I0
ssS'joueurs'
p304
(dp305
S'n12'
p306
g237
sS'n13'
p307
(ijoueur
joueur
p308
(dp309
g27
I0
sg28
I0
sg29
I0
sg30
(ijoueur
rang
p310
(dp311
g33
I5
sg34
S'**'
p312
sg36
g125
sbsg38
(dp313
g40
I0
sg41
I0
sg42
I0
sg43
I0
ssg44
(dp314
g40
I0
sg41
I0
sg42
I0
sg43
I0
ssg46
I0
sg47
I0
sg48
I0
sg49
I0
sg50
I0
sg51
I0
sg52
I0
sg53
(g54
S'C1'
p315
S'DO'
p316
S'AR'
p317
tp318
sg59
(ijoueur
rang
p319
(dp320
g33
I5
sg34
S'**'
p321
sg36
g125
sbsg63
(dp322
g40
I0
sg41
I0
sg42
I0
sg43
I1
ssg65
(dp323
g40
I0
sg41
I0
sg42
I0
sg43
I0
ssg67
(dp324
g40
I0
sg41
I0
sg42
I0
sg43
I0
ssg69
(dp325
g40
I0
sg41
I0
sg42
I0
sg43
I1
ssg71
I0
sg72
I0
sg73
S'Silodem'
p326
sg75
I3
sg76
I0
sg77
I13
sg78
I188
sg79
g139
sg81
(dp327
g83
I12
sg84
I6
sg85
I9
sg86
I12
sg87
I8
sg88
I9
sg89
I10
sg90
I11
sg91
I10
sg92
I11
sg93
I10
sg94
I7
sg95
I9
sg96
I10
sg97
I5
ssg98
I2
sg99
I0
sg100
I0
sg101
I0
sg102
F10.6
sg103
I0
sg104
I0
sg105
I0
sg106
I0
sg107
g327
sg108
I0
sg109
g110
sg111
I0
sg112
I0
sg113
I0
sg114
I16
sg115
I10
sg116
I0
sg117
g258
sbsS'n10'
p328
g168
sS'n11'
p329
(ijoueur
joueur
p330
(dp331
g27
I0
sg28
I0
sg29
I0
sg30
(ijoueur
rang
p332
(dp333
g34
S'w'
p334
sbsg38
(dp335
g40
I0
sg41
I0
sg42
I0
sg43
I0
ssg44
(dp336
g40
I0
sg41
I0
sg42
I0
sg43
I0
ssg46
I0
sg47
I0
sg48
I0
sg49
I0
sg50
I1
sg51
I0
sg52
I0
sg53
(g54
S'AI'
p337
g110
g110
tp338
sg59
(ijoueur
rang
p339
(dp340
g33
I4
sg34
g172
sg36
g173
sbsg63
(dp341
g40
I0
sg41
I0
sg42
I0
sg43
I1
ssg65
(dp342
g40
I0
sg41
I0
sg42
I0
sg43
I0
ssg67
(dp343
g40
I0
sg41
I0
sg42
I0
sg43
I0
ssg69
(dp344
g40
I0
sg41
I0
sg42
I0
sg43
I1
ssg71
I0
sg72
I0
sg73
S'Ptork'
p345
sg75
I7
sg76
I0
sg77
I16
sg78
I176
sg79
g139
sg81
(dp346
g83
I13
sg84
I6
sg85
I9
sg86
I8
sg87
I4
sg88
I9
sg89
I5
sg90
I11
sg91
I8
sg92
I11
sg93
I11
sg94
I10
sg95
I5
sg96
I10
sg97
I7
ssg98
I2
sg99
I0
sg100
I0
sg101
I0
sg102
F10.548387096774194
sg103
I0
sg104
I0
sg105
I0
sg106
I0
sg107
g346
sg108
I0
sg109
g110
sg111
I0
sg112
I0
sg113
I0
sg114
I17
sg115
I11
sg116
I0
sg117
S'O'
p347
sbsS'n16'
p348
(ijoueur
joueur
p349
(dp350
g27
I0
sg28
I0
sg29
I0
sg30
(ijoueur
rang
p351
(dp352
g33
I3
sg34
S'^^^'
p353
sg36
S'rare'
p354
sbsg38
(dp355
g40
I0
sg41
I0
sg42
I0
sg43
I0
ssg44
(dp356
g40
I0
sg41
I0
sg42
I0
sg43
I0
ssg46
I0
sg47
I0
sg48
I0
sg49
I0
sg50
I0
sg51
I0
sg52
I0
sg53
(g54
S'TA'
p357
S'PI'
p358
g110
tp359
sg59
(ijoueur
rang
p360
(dp361
g33
I3
sg34
S'^^^'
p362
sg36
g354
sbsg63
(dp363
g40
I0
sg41
I0
sg42
I0
sg43
I0
ssg65
(dp364
g40
I0
sg41
I0
sg42
I0
sg43
I0
ssg67
(dp365
g40
I0
sg41
I0
sg42
I0
sg43
I0
ssg69
(dp366
g40
I0
sg41
I0
sg42
I0
sg43
I0
ssg71
I0
sg72
I0
sg73
S'Ssladom'
p367
sg75
I3
sg76
I0
sg77
I12
sg78
I117
sg79
g139
sg81
(dp368
g83
I9
sg84
I10
sg85
I7
sg86
I11
sg87
I6
sg88
I10
sg89
I0
sg90
I10
sg91
I3
sg92
I6
sg93
I9
sg94
I8
sg95
I0
sg96
I10
sg97
I10
ssg98
I0
sg99
I0
sg100
I0
sg101
I0
sg102
F9.482758620689655
sg103
I0
sg104
I0
sg105
I0
sg106
I0
sg107
g368
sg108
I0
sg109
g110
sg111
I0
sg112
I0
sg113
I0
sg114
I10
sg115
I10
sg116
I0
sg117
S'HL'
p369
sbsS'n17'
p370
g260
sS'n14'
p371
g145
sS'n15'
p372
g25
sS'n18'
p373
(ijoueur
joueur
p374
(dp375
g27
I0
sg28
I0
sg29
I0
sg30
(ijoueur
rang
p376
(dp377
g33
I5
sg34
S'xx'
p378
sg36
g125
sbsg38
(dp379
g40
I0
sg41
I0
sg42
I0
sg43
I0
ssg44
(dp380
g40
I0
sg41
I0
sg42
I1
sg43
I0
ssg46
I0
sg47
I0
sg48
I0
sg49
I0
sg50
I0
sg51
I0
sg52
I0
sg53
(g54
S'TL'
p381
S'N8'
p382
S'DL'
p383
tp384
sg59
(ijoueur
rang
p385
(dp386
g33
I5
sg34
S'xx'
p387
sg36
g125
sbsg63
(dp388
g40
I0
sg41
I0
sg42
I0
sg43
I0
ssg65
(dp389
g40
I0
sg41
I0
sg42
I0
sg43
I0
ssg67
(dp390
g40
I0
sg41
I0
sg42
I1
sg43
I0
ssg69
(dp391
g40
I0
sg41
I0
sg42
I0
sg43
I0
ssg71
I0
sg72
I0
sg73
S'Hugan'
p392
sg75
I1
sg76
I0
sg77
I10
sg78
I110
sg79
g139
sg81
(dp393
g83
I12
sg84
I9
sg85
I7
sg86
I12
sg87
I8
sg88
I11
sg89
I1
sg90
I11
sg91
I3
sg92
I11
sg93
I8
sg94
I10
sg95
I3
sg96
I8
sg97
I6
ssg98
I3
sg99
I0
sg100
I0
sg101
I0
sg102
F10.03225806451613
sg103
I0
sg104
I0
sg105
I0
sg106
I0
sg107
g393
sg108
I0
sg109
g110
sg111
I0
sg112
I0
sg113
I0
sg114
I14
sg115
I14
sg116
I0
sg117
g142
sbsS'n19'
p394
(ijoueur
joueur
p395
(dp396
g27
I0
sg28
I0
sg29
I0
sg30
(ijoueur
rang
p397
(dp398
g33
I4
sg34
g172
sg36
g173
sbsg38
(dp399
g40
I0
sg41
I0
sg42
I0
sg43
I0
ssg44
(dp400
g40
I0
sg41
I0
sg42
I0
sg43
I0
ssg46
I0
sg47
I0
sg48
I0
sg49
I0
sg50
I0
sg51
I0
sg52
I0
sg53
(g54
S'TL'
p401
S'N8'
p402
g110
tp403
sg59
(ijoueur
rang
p404
(dp405
g33
I4
sg34
g172
sg36
g173
sbsg63
(dp406
g40
I0
sg41
I0
sg42
I0
sg43
I1
ssg65
(dp407
g40
I0
sg41
I0
sg42
I0
sg43
I0
ssg67
(dp408
g40
I0
sg41
I0
sg42
I0
sg43
I0
ssg69
(dp409
g40
I0
sg41
I0
sg42
I0
sg43
I1
ssg71
I0
sg72
I0
sg73
S"Naas'Tal"
p410
sg75
I7
sg76
I0
sg77
I16
sg78
I157
sg79
g139
sg81
(dp411
g83
I8
sg84
I9
sg85
I8
sg86
I10
sg87
I9
sg88
I10
sg89
I1
sg90
I11
sg91
I2
sg92
I6
sg93
I12
sg94
I12
sg95
I2
sg96
I10
sg97
I8
ssg98
I4
sg99
I0
sg100
I0
sg101
I0
sg102
F10.451612903225806
sg103
I0
sg104
I0
sg105
I0
sg106
I0
sg107
g411
sg108
I0
sg109
S'AL10'
p412
sg111
I0
sg112
I0
sg113
I0
sg114
I17
sg115
I2
sg116
I0
sg117
S'HL'
p413
sbsS'n22'
p414
(ijoueur
joueur
p415
(dp416
g27
I0
sg28
I0
sg29
I0
sg30
(ijoueur
rang
p417
(dp418
g33
I5
sg34
S'**'
p419
sg36
g125
sbsg38
(dp420
g40
I0
sg41
I0
sg42
I0
sg43
I0
ssg44
(dp421
g40
I0
sg41
I0
sg42
I0
sg43
I0
ssg46
I0
sg47
I0
sg48
I0
sg49
I0
sg50
I0
sg51
I0
sg52
I0
sg53
(g54
S'C2'
p422
S'AI'
p423
g110
tp424
sg59
(ijoueur
rang
p425
(dp426
g33
I5
sg34
S'**'
p427
sg36
g125
sbsg63
(dp428
g40
I0
sg41
I0
sg42
I0
sg43
I0
ssg65
(dp429
g40
I0
sg41
I0
sg42
I0
sg43
I0
ssg67
(dp430
g40
I0
sg41
I0
sg42
I0
sg43
I0
ssg69
(dp431
g40
I0
sg41
I0
sg42
I0
sg43
I0
ssg71
I0
sg72
I0
sg73
S'Fretard'
p432
sg75
I2
sg76
I0
sg77
I11
sg78
I140
sg79
g139
sg81
(dp433
g83
I10
sg84
I5
sg85
I10
sg86
I11
sg87
I8
sg88
I11
sg89
I6
sg90
I14
sg91
I8
sg92
I11
sg93
I10
sg94
I6
sg95
I6
sg96
I9
sg97
I5
ssg98
I0
sg99
I0
sg100
I0
sg101
I0
sg102
F10.310344827586206
sg103
I0
sg104
I0
sg105
I0
sg106
I0
sg107
g433
sg108
I0
sg109
S'MSL10'
p434
sg111
I0
sg112
I0
sg113
I0
sg114
I15
sg115
I9
sg116
I0
sg117
S'B'
p435
sbsS'n21'
p436
(ijoueur
joueur
p437
(dp438
g27
I0
sg28
I0
sg29
I0
sg30
(ijoueur
rang
p439
(dp440
g33
I2
sg34
S'<<'
p441
sg36
S'special'
p442
sbsg38
(dp443
g40
I0
sg41
I0
sg42
I0
sg43
I0
ssg44
(dp444
g40
I0
sg41
I0
sg42
I0
sg43
I0
ssg46
I0
sg47
I0
sg48
I26
sg49
I69
sg50
I0
sg51
I0
sg52
I0
sg53
(g54
S'DO'
p445
S'CE'
p446
S'AI'
p447
tp448
sg59
(ijoueur
rang
p449
(dp450
g33
I2
sg34
S'<<'
p451
sg36
g442
sbsg63
(dp452
g40
I0
sg41
I0
sg42
I0
sg43
I1
ssg65
(dp453
g40
I0
sg41
I0
sg42
I0
sg43
I0
ssg67
(dp454
g40
I0
sg41
I0
sg42
I0
sg43
I0
ssg69
(dp455
g40
I0
sg41
I0
sg42
I0
sg43
I1
ssg71
I69
sg72
I0
sg73
S'Fetaor'
p456
sg75
I8
sg76
I26
sg77
I15
sg78
I50
sg79
g139
sg81
(dp457
g83
I14
sg84
I3
sg85
I8
sg86
I10
sg87
I7
sg88
I6
sg89
I6
sg90
I8
sg91
I10
sg92
I11
sg93
I8
sg94
I7
sg95
I11
sg96
I14
sg97
I5
ssg98
I2
sg99
I0
sg100
I0
sg101
I0
sg102
F10.0
sg103
I0
sg104
I0
sg105
I0
sg106
I0
sg107
g457
sg108
I0
sg109
S'PRG11'
p458
sg111
I0
sg112
I0
sg113
I0
sg114
I5
sg115
I0
sg116
I0
sg117
S'EN'
p459
sbsS'n20'
p460
(ijoueur
joueur
p461
(dp462
g27
I0
sg28
I0
sg29
I0
sg30
(ijoueur
rang
p463
(dp464
g33
I4
sg34
g172
sg36
g173
sbsg38
(dp465
g40
I0
sg41
I0
sg42
I0
sg43
I0
ssg44
(dp466
g40
I0
sg41
I0
sg42
I0
sg43
I0
ssg46
I0
sg47
I0
sg48
I0
sg49
I0
sg50
I0
sg51
I0
sg52
I0
sg53
(g54
S'DM'
p467
g110
g110
tp468
sg59
(ijoueur
rang
p469
(dp470
g33
I4
sg34
g172
sg36
g173
sbsg63
(dp471
g40
I0
sg41
I0
sg42
I1
sg43
I0
ssg65
(dp472
g40
I0
sg41
I0
sg42
I0
sg43
I0
ssg67
(dp473
g40
I0
sg41
I0
sg42
I0
sg43
I0
ssg69
(dp474
g40
I0
sg41
I0
sg42
I1
sg43
I0
ssg71
I0
sg72
I0
sg73
S'Haodel'
p475
sg75
I5
sg76
I0
sg77
I14
sg78
I238
sg79
g139
sg81
(dp476
g83
I13
sg84
I4
sg85
I7
sg86
I11
sg87
I8
sg88
I6
sg89
I6
sg90
I7
sg91
I8
sg92
I13
sg93
I8
sg94
I6
sg95
I7
sg96
I12
sg97
I5
ssg98
I2
sg99
I0
sg100
I0
sg101
I0
sg102
F10.0
sg103
I0
sg104
I0
sg105
I0
sg106
I0
sg107
g476
sg108
I0
sg109
S'TA9'
p477
sg111
I0
sg112
I0
sg113
I0
sg114
I21
sg115
I4
sg116
I0
sg117
S'ES'
p478
sbsS'n8'
p479
(ijoueur
joueur
p480
(dp481
g27
I0
sg28
I0
sg29
I0
sg30
(ijoueur
rang
p482
(dp483
g33
I5
sg34
S'xx'
p484
sg36
g125
sbsg38
(dp485
g40
I0
sg41
I0
sg42
I0
sg43
I1
ssg44
(dp486
g40
I0
sg41
I0
sg42
I0
sg43
I0
ssg46
I0
sg47
I0
sg48
I0
sg49
I0
sg50
I0
sg51
I0
sg52
I0
sg53
(g54
S'TL'
p487
S'N8'
p488
g110
tp489
sg59
(ijoueur
rang
p490
(dp491
g33
I5
sg34
S'xx'
p492
sg36
g125
sbsg63
(dp493
g40
I0
sg41
I0
sg42
I0
sg43
I0
ssg65
(dp494
g40
I0
sg41
I0
sg42
I0
sg43
I1
ssg67
(dp495
g40
I0
sg41
I0
sg42
I0
sg43
I0
ssg69
(dp496
g40
I0
sg41
I0
sg42
I0
sg43
I0
ssg71
I0
sg72
I0
sg73
S'Kulaaq'
p497
sg75
I4
sg76
I0
sg77
I11
sg78
I365
sg79
g139
sg81
(dp498
g83
I7
sg84
I9
sg85
I6
sg86
I11
sg87
I10
sg88
I15
sg89
I4
sg90
I15
sg91
I3
sg92
I7
sg93
I9
sg94
I12
sg95
I2
sg96
I13
sg97
I7
ssg98
I2
sg99
I0
sg100
I0
sg101
I0
sg102
F11.419354838709678
sg103
I0
sg104
I0
sg105
I0
sg106
I0
sg107
g498
sg108
I0
sg109
g110
sg111
I0
sg112
I0
sg113
I0
sg114
I39
sg115
I29
sg116
I0
sg117
S'HL'
p499
sbsS'n9'
p500
(ijoueur
joueur
p501
(dp502
g27
I0
sg28
I0
sg29
I0
sg30
(ijoueur
rang
p503
(dp504
g33
I4
sg34
g264
sg36
g173
sbsg38
(dp505
g40
I0
sg41
I0
sg42
I0
sg43
I0
ssg44
(dp506
g40
I0
sg41
I0
sg42
I0
sg43
I0
ssg46
I0
sg47
I0
sg48
I0
sg49
I0
sg50
I0
sg51
I0
sg52
I0
sg53
(g54
S'DM'
p507
g110
g110
tp508
sg59
(ijoueur
rang
p509
(dp510
g33
I4
sg34
g264
sg36
g173
sbsg63
(dp511
g40
I0
sg41
I0
sg42
I0
sg43
I1
ssg65
(dp512
g40
I0
sg41
I0
sg42
I0
sg43
I0
ssg67
(dp513
g40
I0
sg41
I0
sg42
I0
sg43
I0
ssg69
(dp514
g40
I0
sg41
I0
sg42
I0
sg43
I1
ssg71
I0
sg72
I0
sg73
S'Effleed'
p515
sg75
I4
sg76
I0
sg77
I12
sg78
I100
sg79
g139
sg81
(dp516
g83
I11
sg84
I5
sg85
I7
sg86
I12
sg87
I8
sg88
I7
sg89
I9
sg90
I7
sg91
I8
sg92
I14
sg93
I11
sg94
I8
sg95
I11
sg96
I8
sg97
I6
ssg98
I3
sg99
I0
sg100
I0
sg101
I0
sg102
F10.451612903225806
sg103
I0
sg104
I0
sg105
I0
sg106
I0
sg107
g516
sg108
I0
sg109
S'APA10'
p517
sg111
I0
sg112
I0
sg113
I0
sg114
I10
sg115
I1
sg116
I0
sg117
S'HE'
p518
sbsS'n1'
p519
(ijoueur
joueur
p520
(dp521
g27
I0
sg28
I0
sg29
I0
sg30
(ijoueur
rang
p522
(dp523
g33
I4
sg34
g172
sg36
g173
sbsg38
(dp524
g40
I0
sg41
I0
sg42
I0
sg43
I0
ssg44
(dp525
g40
I0
sg41
I0
sg42
I0
sg43
I0
ssg46
I0
sg47
I0
sg48
I0
sg49
I0
sg50
I0
sg51
I0
sg52
I0
sg53
(g54
S'PI'
p526
S'DL'
p527
g110
tp528
sg59
(ijoueur
rang
p529
(dp530
g33
I4
sg34
g172
sg36
g173
sbsg63
(dp531
g40
I0
sg41
I0
sg42
I0
sg43
I1
ssg65
(dp532
g40
I0
sg41
I0
sg42
I0
sg43
I0
ssg67
(dp533
g40
I0
sg41
I0
sg42
I0
sg43
I0
ssg69
(dp534
g40
I0
sg41
I0
sg42
I0
sg43
I1
ssg71
I0
sg72
I0
sg73
S'Ovlehr'
p535
sg75
I9
sg76
I0
sg77
I19
sg78
I187
sg79
g139
sg81
(dp536
g83
I10
sg84
I13
sg85
I9
sg86
I9
sg87
I9
sg88
I10
sg89
I6
sg90
I12
sg91
I5
sg92
I9
sg93
I10
sg94
I13
sg95
I6
sg96
I11
sg97
I7
ssg98
I4
sg99
I0
sg100
I0
sg101
I0
sg102
F11.481481481481481
sg103
I0
sg104
I0
sg105
I0
sg106
I0
sg107
g536
sg108
I0
sg109
S'DKF11'
p537
sg111
I0
sg112
I0
sg113
I0
sg114
I17
sg115
I0
sg116
I0
sg117
S'CV'
p538
sbsS'n2'
p539
(ijoueur
joueur
p540
(dp541
g27
I0
sg28
I0
sg29
I0
sg30
(ijoueur
rang
p542
(dp543
g33
I4
sg34
g264
sg36
g173
sbsg38
(dp544
g40
I0
sg41
I0
sg42
I0
sg43
I0
ssg44
(dp545
g40
I0
sg41
I0
sg42
I0
sg43
I0
ssg46
I0
sg47
I0
sg48
I0
sg49
I0
sg50
I0
sg51
I0
sg52
I0
sg53
(g54
S'TA'
p546
S'TL'
p547
S'N8'
p548
tp549
sg59
(ijoueur
rang
p550
(dp551
g33
I5
sg34
S'xx'
p552
sg36
g125
sbsg63
(dp553
g40
I0
sg41
I0
sg42
I1
sg43
I0
ssg65
(dp554
g40
I0
sg41
I0
sg42
I0
sg43
I0
ssg67
(dp555
g40
I0
sg41
I0
sg42
I0
sg43
I0
ssg69
(dp556
g40
I0
sg41
I0
sg42
I1
sg43
I0
ssg71
I0
sg72
I0
sg73
S'Ghenf'
p557
sg75
I7
sg76
I0
sg77
I16
sg78
I180
sg79
g139
sg81
(dp558
g83
I10
sg84
I11
sg85
I7
sg86
I13
sg87
I8
sg88
I13
sg89
I7
sg90
I13
sg91
I7
sg92
I9
sg93
I9
sg94
I11
sg95
I6
sg96
I12
sg97
I12
ssg98
I2
sg99
I0
sg100
I0
sg101
I0
sg102
F11.620689655172415
sg103
I0
sg104
I0
sg105
I0
sg106
I0
sg107
g558
sg108
I0
sg109
g110
sg111
I0
sg112
I0
sg113
I0
sg114
I21
sg115
I3
sg116
I0
sg117
S'HB'
p559
sbsS'n3'
p560
(ijoueur
joueur
p561
(dp562
g27
I0
sg28
I0
sg29
I0
sg30
(ijoueur
rang
p563
(dp564
g33
I4
sg34
g172
sg36
g173
sbsg38
(dp565
g40
I0
sg41
I0
sg42
I0
sg43
I0
ssg44
(dp566
g40
I0
sg41
I0
sg42
I0
sg43
I0
ssg46
I0
sg47
I0
sg48
I0
sg49
I0
sg50
I0
sg51
I0
sg52
I0
sg53
(g54
S'PI'
p567
S'TA'
p568
S'N8'
p569
tp570
sg59
(ijoueur
rang
p571
(dp572
g33
I4
sg34
g172
sg36
g173
sbsg63
(dp573
g40
I0
sg41
I0
sg42
I0
sg43
I1
ssg65
(dp574
g40
I0
sg41
I0
sg42
I0
sg43
I0
ssg67
(dp575
g40
I0
sg41
I0
sg42
I0
sg43
I0
ssg69
(dp576
g40
I0
sg41
I0
sg42
I0
sg43
I1
ssg71
I0
sg72
I0
sg73
S'Otopo'
p577
sg75
I8
sg76
I0
sg77
I20
sg78
I343
sg79
g139
sg81
(dp578
g83
I8
sg84
I10
sg85
I10
sg86
I14
sg87
I4
sg88
I15
sg89
I7
sg90
I18
sg91
I6
sg92
I7
sg93
I10
sg94
I10
sg95
I5
sg96
I9
sg97
I10
ssg98
I3
sg99
I0
sg100
I0
sg101
I0
sg102
F11.37037037037037
sg103
I0
sg104
I0
sg105
I0
sg106
I0
sg107
g578
sg108
I0
sg109
S'MDL11'
p579
sg111
I0
sg112
I0
sg113
I0
sg114
I21
sg115
I10
sg116
I0
sg117
S'OG'
p580
sbsS'n4'
p581
g120
sS'n5'
p582
g194
sS'n6'
p583
g281
sS'n7'
p584
g215
ssS'remplacements'
p585
(dp586
g348
S'n0'
p587
sg370
g587
sg373
g587
sg394
g587
sg414
g587
sg436
g587
sg460
g587
ssb.