(iclub
compo
p0
(dp1
S'caracs_old'
p2
(dp3
S'A'
p4
F169.5
sS'ME'
p5
F92.0
sS'E'
p6
F196.5
sS'OplusAV'
p7
F89.25
sS'TO_off'
p8
F145.75
sS'OplusAR'
p9
F108.5
sS'M'
p10
F98.0
sS'JP'
p11
F115.25
sS'OmoinsAR'
p12
F97.0
sS'PA'
p13
F106.75
sS'TO_def'
p14
F139.5
sS'OmoinsAV'
p15
F118.0
sS'R'
p16
F178.25
ssS'totaux_old'
p17
(dp18
S'T2'
p19
F195.75
sS'T3'
p20
F98.25
sS'T1'
p21
F206.5
ssS'roles'
p22
(dp23
S'SA_scd'
p24
(ijoueur
joueur
p25
(dp26
S'EV_saison_11'
p27
F10.777777777777779
sS'rouges_total'
p28
I0
sS'EV_saison_12'
p29
F10.63888888888889
sS'changements_postes'
p30
S''
p31
sS'drops_total'
p32
I0
sS'xp_total'
p33
F42.858361287494624
sS'blessure'
p34
I0
sS'RG_max'
p35
ccopy_reg
_reconstructor
p36
(cjoueur
rang_new
p37
c__builtin__
object
p38
Ntp39
Rp40
(dp41
S'type_nb'
p42
I5
sS'rang'
p43
S'**'
p44
sS'type'
p45
S'seigneur'
p46
sbsS'MJ2_total'
p47
(dp48
S'SR'
p49
I1
sS'CT'
p50
I5
sS'CR'
p51
I0
sS'ST'
p52
I0
ssS'MJ3_total'
p53
(dp54
g49
I0
sg50
I0
sg51
I0
sg52
I0
ssS'xp'
p55
I0
sS'anciens_clubs'
p56
g31
sS'drop_rates_saison'
p57
I0
sS'xp_saison'
p58
F42.858361287494624
sS'MS_probleme'
p59
I00
sS'essais_saison'
p60
I0
sS'penalite_ratees_saison'
p61
I0
sS'transformations_saison'
p62
I0
sS'postes'
p63
(S'dummy'
p64
S'N8'
p65
S'DL'
p66
g31
tp67
sS'veut_partir'
p68
I00
sS'RG'
p69
g36
(g37
g38
Ntp70
Rp71
(dp72
g42
I5
sg43
S'**'
p73
sg45
g46
sbsS'MJ1'
p74
(dp75
S'SR'
p76
I0
sS'CT'
p77
I0
sS'CR'
p78
I0
sS'ST'
p79
I0
ssS'MJ2'
p80
(dp81
g76
I0
sg77
I4
sg78
I0
sg79
I0
ssS'MJ3'
p82
(dp83
g76
I0
sg77
I0
sg78
I0
sg79
I0
ssS'MJ1_total'
p84
(dp85
g49
I1
sg50
I27
sg51
I0
sg52
I2
ssS'penalites_total'
p86
I0
sS'penalites_saison'
p87
I0
sS'nom'
p88
S'Faross'
p89
sS'C'
p90
I8
sS'transformations_total'
p91
I0
sS'D'
p92
I21
sS'VAL'
p93
I135
sS'club'
p94
S'AL'
p95
sS'caracs'
p96
(dp97
S'A'
p98
I14
sS'ME'
p99
I10
sS'RP2'
p100
I7
sS'E'
p101
I10
sS'TO'
p102
I14
sS'RP1'
p103
I7
sS'JP'
p104
I8
sS'RP_tot'
p105
I8
sS'P'
p106
I9
sS'PA'
p107
I13
sS'M'
p108
I7
sS'R'
p109
I9
sS'TB'
p110
I9
sS'PL'
p111
I13
sS'TA'
p112
I6
ssS'caracs_sans_fatigue'
p113
(dp114
g98
I14
sg99
I10
sg100
I7
sg101
I10
sg106
I9
sg103
I7
sg104
I8
sg105
I8
sg102
I14
sg107
I13
sg108
I7
sg109
I9
sg110
I9
sg111
I13
sg112
I6
ssS'jj_passe'
p115
(dp116
S's12'
p117
(ijoueur
joueur
p118
(dp119
g27
F10.777777777777779
sg28
I0
sg30
g31
sg32
I0
sg34
I0
sg35
g36
(g37
g38
Ntp120
Rp121
(dp122
g42
I5
sg43
S'**'
p123
sg45
S'seigneur'
p124
sbsg47
(dp125
S'SR'
p126
I1
sS'CT'
p127
I1
sS'CR'
p128
I0
sS'ST'
p129
I0
ssg53
(dp130
g126
I0
sg127
I0
sg128
I0
sg129
I0
ssg56
g31
sS'EV'
p131
F10.63888888888889
sg57
I0
sg60
I1
sg61
I0
sg62
I0
sg63
(S'dummy'
p132
S'N8'
p133
S'DL'
p134
g31
tp135
sg68
I00
sg69
g36
(g37
g38
Ntp136
Rp137
(dp138
g42
I5
sg43
S'**'
p139
sg45
g124
sbsg74
(dp140
S'SR'
p141
I0
sS'ST'
p142
I0
sS'CR'
p143
I0
sS'CT'
p144
I13
ssg59
I00
sg82
(dp145
g141
I0
sg142
I0
sg143
I0
sg144
I0
ssg84
(dp146
g126
I1
sg127
I27
sg128
I0
sg129
I2
ssg86
I0
sg87
I0
sg88
S'Faross (12)'
p147
sg90
I8
sg91
I0
sg92
I21
sg93
I135
sg94
S'AL'
p148
sg96
(dp149
S'A'
p150
I13
sS'ME'
p151
I10
sS'RP2'
p152
I7
sS'E'
p153
I10
sS'P'
p154
I9
sS'RP1'
p155
I7
sS'JP'
p156
I8
sS'RP_tot'
p157
I8
sS'TO'
p158
I14
sS'PA'
p159
I13
sS'M'
p160
I7
sS'R'
p161
I8
sS'TB'
p162
I8
sS'PL'
p163
I13
sS'TA'
p164
I6
ssg113
g149
sg115
(dp165
S's11'
p166
(ijoueur
joueur
p167
(dp168
g28
I0
sg32
I0
sg34
I0
sg35
g36
(g37
g38
Ntp169
Rp170
(dp171
g42
I5
sg43
S'**'
p172
sg45
S'seigneur'
p173
sbsg47
(dp174
S'SR'
p175
I1
sS'ST'
p176
I0
sS'CR'
p177
I0
sS'CT'
p178
I0
ssg53
(dp179
g175
I0
sg176
I0
sg177
I0
sg178
I0
ssg56
g31
sg57
I0
sg59
I00
sg60
I3
sg61
I0
sg62
I0
sg63
(S'dummy'
p180
S'N8'
p181
S'DL'
p182
g31
tp183
sg68
I00
sg69
g36
(g37
g38
Ntp184
Rp185
(dp186
g42
I5
sg43
S'**'
p187
sg45
g173
sbsg74
(dp188
g175
I1
sg176
I2
sg177
I0
sg178
I14
ssg80
(dp189
g175
I1
sg176
I0
sg177
I0
sg178
I0
ssg82
(dp190
g175
I0
sg176
I0
sg177
I0
sg178
I0
ssg84
(dp191
g175
I1
sg176
I2
sg177
I0
sg178
I14
ssg86
I0
sg87
I0
sg88
S'Faross'
p192
sg90
I8
sg91
I0
sg92
I21
sg93
I135
sg94
S'AL'
p193
sg96
(dp194
S'A'
p195
I13
sS'ME'
p196
I10
sS'RP2'
p197
I7
sS'E'
p198
I11
sS'TO'
p199
I13
sS'RP1'
p200
I7
sS'JP'
p201
I8
sS'RP_tot'
p202
I7
sS'P'
p203
I9
sS'PA'
p204
I13
sS'M'
p205
I8
sS'R'
p206
I9
sS'TB'
p207
I7
sS'PL'
p208
I13
sS'TA'
p209
I6
ssg113
g194
sS'fatigue'
p210
I0
sS'drop_ratees_total'
p211
I0
sS'blessures_total'
p212
I1
sS'XP'
p213
I0
sg131
F10.777777777777779
sS'penalite_ratees_total'
p214
I0
sS'pas_meme_type'
p215
(lp216
S'EV'
p217
asS'blessures_saison'
p218
I1
sS'jaunes_total'
p219
I1
sS'caracs_saison_11'
p220
(dp221
S'A'
p222
I13
sS'ME'
p223
I10
sS'RP2'
p224
I7
sS'E'
p225
I11
sS'TO'
p226
I13
sS'RP1'
p227
I7
sS'JP'
p228
I8
sS'RP_tot'
p229
I7
sS'P'
p230
I9
sS'PA'
p231
I13
sS'M'
p232
I8
sS'R'
p233
I9
sS'TB'
p234
I7
sS'PL'
p235
I13
sS'TA'
p236
I6
ssS'attribute_error'
p237
(lp238
sS'rouges_saison'
p239
I0
sS'transformation_ratees_total'
p240
I0
sS'drops_saison'
p241
I0
sS'transformation_ratees_saison'
p242
I0
sS'MS'
p243
I14
sS'essais_total'
p244
I3
sS'jaunes_saison'
p245
I1
sS'ARM'
p246
S'ES'
p247
sbssg210
I7
sg211
I0
sg212
I1
sg213
I0
sg80
(dp248
g141
I0
sg142
I0
sg143
I0
sg144
I1
ssg214
I0
sg215
(lp249
S'EV'
p250
asg218
I0
sg219
I1
sg220
(dp251
S'A'
p252
I13
sS'ME'
p253
I10
sS'RP2'
p254
I7
sS'E'
p255
I11
sS'P'
p256
I9
sS'RP1'
p257
I7
sS'JP'
p258
I8
sS'RP_tot'
p259
I7
sS'TO'
p260
I13
sS'PA'
p261
I13
sS'M'
p262
I8
sS'R'
p263
I9
sS'TB'
p264
I7
sS'PL'
p265
I13
sS'TA'
p266
I6
ssg237
(lp267
sg239
I0
sg240
I0
sg241
I0
sg242
I0
sg243
I14
sg244
I4
sg245
I0
sg246
S'ES'
p268
sbsS's11'
p269
(ijoueur
joueur
p270
(dp271
g28
I0
sg32
I0
sg34
I0
sg35
g36
(g37
g38
Ntp272
Rp273
(dp274
g42
I5
sg43
S'**'
p275
sg45
S'seigneur'
p276
sbsg47
(dp277
S'SR'
p278
I1
sS'ST'
p279
I0
sS'CR'
p280
I0
sS'CT'
p281
I0
ssg53
(dp282
g278
I0
sg279
I0
sg280
I0
sg281
I0
ssg56
g31
sg57
I0
sg59
I00
sg60
I3
sg61
I0
sg62
I0
sg63
(S'dummy'
p283
S'N8'
p284
S'DL'
p285
g31
tp286
sg68
I00
sg69
g36
(g37
g38
Ntp287
Rp288
(dp289
g42
I5
sg43
S'**'
p290
sg45
g276
sbsg74
(dp291
g278
I1
sg279
I2
sg280
I0
sg281
I14
ssg80
(dp292
g278
I1
sg279
I0
sg280
I0
sg281
I0
ssg82
(dp293
g278
I0
sg279
I0
sg280
I0
sg281
I0
ssg84
(dp294
g278
I1
sg279
I2
sg280
I0
sg281
I14
ssg86
I0
sg87
I0
sg88
S'Faross (11)'
p295
sg90
I8
sg91
I0
sg92
I21
sg93
I135
sg94
S'AL'
p296
sg96
(dp297
S'A'
p298
I13
sS'ME'
p299
I10
sS'RP2'
p300
I7
sS'E'
p301
I11
sS'TO'
p302
I13
sS'RP1'
p303
I7
sS'JP'
p304
I8
sS'RP_tot'
p305
I8
sS'P'
p306
I9
sS'PA'
p307
I13
sS'M'
p308
I8
sS'R'
p309
I9
sS'TB'
p310
I7
sS'PL'
p311
I13
sS'TA'
p312
I6
ssg113
g297
sg210
I0
sg211
I0
sg212
I1
sg213
I0
sg131
F10.777777777777779
sg214
I0
sg215
(lp313
S'EV'
p314
asg218
I1
sg219
I1
sg220
(dp315
S'A'
p316
I13
sS'ME'
p317
I10
sS'RP2'
p318
I7
sS'E'
p319
I11
sS'TO'
p320
I13
sS'RP1'
p321
I7
sS'JP'
p322
I8
sS'RP_tot'
p323
I7
sS'P'
p324
I9
sS'PA'
p325
I13
sS'M'
p326
I8
sS'R'
p327
I9
sS'TB'
p328
I7
sS'PL'
p329
I13
sS'TA'
p330
I6
ssg237
(lp331
sg239
I0
sg240
I0
sg241
I0
sg242
I0
sg243
I14
sg244
I3
sg245
I1
sg246
S'ES'
p332
sbssg210
I5
sg211
I0
sg212
I1
sg213
I0
sg131
F11.055555555555555
sg214
I0
sg215
(lp333
S'EV'
p334
asg218
I0
sg219
I1
sg220
(dp335
S'A'
p336
I13
sS'ME'
p337
I10
sS'RP2'
p338
I7
sS'E'
p339
I11
sS'P'
p340
I9
sS'RP1'
p341
I7
sS'JP'
p342
I8
sS'RP_tot'
p343
I7
sS'TO'
p344
I13
sS'PA'
p345
I13
sS'M'
p346
I8
sS'R'
p347
I9
sS'TB'
p348
I7
sS'PL'
p349
I13
sS'TA'
p350
I6
ssg237
(lp351
sg239
I0
sS'caracs_saison_12'
p352
(dp353
sg240
I0
sg241
I0
sg242
I0
sg243
I14
sg244
I4
sg245
I0
sg246
S'ES'
p354
sbsS'RJL'
p355
(ijoueur
joueur
p356
(dp357
g27
F10.969696969696969
sg28
I1
sg29
F11.818181818181818
sg30
g31
sg32
I20
sg33
F42.858361287494624
sg34
I0
sg35
g36
(g37
g38
Ntp358
Rp359
(dp360
g42
I4
sg43
S'*'
p361
sg45
S'heros'
p362
sbsg47
(dp363
S'SR'
p364
I0
sS'ST'
p365
I0
sS'CR'
p366
I0
sS'CT'
p367
I0
ssg53
(dp368
g364
I0
sg365
I0
sg366
I0
sg367
I0
ssg55
I0
sg56
g31
sg57
I0
sg58
F42.858361287494624
sg59
I00
sg60
I2
sg61
I0
sg62
I0
sg63
(S'dummy'
p369
S'DO'
p370
g31
g31
tp371
sg68
I00
sg69
g36
(g37
g38
Ntp372
Rp373
(dp374
g42
I4
sg43
S'*'
p375
sg45
g362
sbsg74
(dp376
S'SR'
p377
I0
sS'ST'
p378
I0
sS'CR'
p379
I0
sS'CT'
p380
I4
ssg80
(dp381
g377
I0
sg378
I0
sg379
I0
sg380
I0
ssg82
(dp382
g377
I0
sg378
I0
sg379
I0
sg380
I0
ssg84
(dp383
g364
I0
sg365
I0
sg366
I0
sg367
I33
ssg86
I0
sg87
I0
sg88
S'Tladol'
p384
sg90
I4
sg91
I0
sg92
I14
sg93
I70
sg94
S'AL'
p385
sg96
(dp386
S'A'
p387
I12
sS'ME'
p388
I2
sS'RP2'
p389
I10
sS'E'
p390
I11
sS'P'
p391
I14
sS'RP1'
p392
I7
sS'JP'
p393
I16
sS'RP_tot'
p394
I10
sS'TO'
p395
I7
sS'PA'
p396
I12
sS'M'
p397
I10
sS'R'
p398
I6
sS'TB'
p399
I10
sS'PL'
p400
I11
sS'TA'
p401
I5
ssg113
(dp402
g387
I12
sg388
I2
sg389
I10
sg390
I11
sg395
I7
sg392
I7
sg393
I16
sg394
I10
sg391
I14
sg396
I12
sg397
I10
sg398
I6
sg399
I10
sg400
I11
sg401
I5
ssg115
(dp403
S's12'
p404
(ijoueur
joueur
p405
(dp406
g27
F10.969696969696969
sg28
I1
sg30
g31
sg32
I18
sg34
I0
sg35
g36
(g37
g38
Ntp407
Rp408
(dp409
g42
I4
sg43
S'*'
p410
sg45
S'heros'
p411
sbsg47
(dp412
S'SR'
p413
I0
sS'ST'
p414
I0
sS'CR'
p415
I0
sS'CT'
p416
I0
ssg53
(dp417
g413
I0
sg414
I0
sg415
I0
sg416
I0
ssg56
g31
sg131
F11.818181818181818
sg57
I0
sg60
I1
sg61
I0
sg62
I0
sg63
(S'dummy'
p418
S'DO'
p419
g31
g31
tp420
sg68
I00
sg69
g36
(g37
g38
Ntp421
Rp422
(dp423
g42
I4
sg43
S'*'
p424
sg45
g411
sbsg74
(dp425
S'SR'
p426
I0
sS'CT'
p427
I14
sS'CR'
p428
I0
sS'ST'
p429
I0
ssg59
I00
sg82
(dp430
g426
I0
sg427
I0
sg428
I0
sg429
I0
ssg84
(dp431
g413
I0
sg414
I0
sg415
I0
sg416
I29
ssg86
I0
sg87
I0
sg88
S'Tladol'
p432
sg90
I4
sg91
I0
sg92
I14
sg93
I70
sg94
S'AL'
p433
sg96
(dp434
S'A'
p435
I12
sS'ME'
p436
I2
sS'RP2'
p437
I10
sS'E'
p438
I11
sS'TO'
p439
I7
sS'RP1'
p440
I7
sS'JP'
p441
I16
sS'RP_tot'
p442
I10
sS'P'
p443
I13
sS'PA'
p444
I11
sS'M'
p445
I10
sS'R'
p446
I6
sS'TB'
p447
I9
sS'PL'
p448
I11
sS'TA'
p449
I5
ssg113
g434
sg115
(dp450
S's11'
p451
(ijoueur
joueur
p452
(dp453
g28
I1
sg32
I13
sg34
I0
sg35
g36
(g37
g38
Ntp454
Rp455
(dp456
g42
I4
sg43
S'*'
p457
sg45
S'heros'
p458
sbsg47
(dp459
S'SR'
p460
I0
sS'CT'
p461
I0
sS'CR'
p462
I0
sS'ST'
p463
I0
ssg53
(dp464
g460
I0
sg461
I0
sg462
I0
sg463
I0
ssg56
g31
sg57
I1
sg59
I01
sg60
I0
sg61
I0
sg62
I0
sg63
(S'dummy'
p465
S'DO'
p466
g31
g31
tp467
sg68
I01
sg69
g36
(g37
g38
Ntp468
Rp469
(dp470
g42
I4
sg43
S'*'
p471
sg45
g458
sbsg74
(dp472
g460
I0
sg461
I15
sg462
I0
sg463
I0
ssg80
(dp473
g460
I0
sg461
I0
sg462
I0
sg463
I0
ssg82
(dp474
g460
I0
sg461
I0
sg462
I0
sg463
I0
ssg84
(dp475
g460
I0
sg461
I15
sg462
I0
sg463
I0
ssg86
I0
sg87
I0
sg88
S'Tladol'
p476
sg90
I4
sg91
I0
sg92
I14
sg93
I70
sg94
S'AL'
p477
sg96
(dp478
S'A'
p479
I12
sS'ME'
p480
I2
sS'RP2'
p481
I10
sS'E'
p482
I11
sS'P'
p483
I11
sS'RP1'
p484
I7
sS'JP'
p485
I13
sS'RP_tot'
p486
I10
sS'TO'
p487
I7
sS'PA'
p488
I11
sS'M'
p489
I9
sS'R'
p490
I6
sS'TB'
p491
I8
sS'PL'
p492
I11
sS'TA'
p493
I5
ssg113
g478
sg210
I0
sg211
I1
sg212
I0
sg213
I0
sg131
F10.969696969696969
sg214
I0
sg215
(lp494
S'EV'
p495
asg218
I0
sg219
I1
sg220
(dp496
S'A'
p497
I12
sS'ME'
p498
I2
sS'RP2'
p499
I10
sS'E'
p500
I11
sS'P'
p501
I11
sS'RP1'
p502
I7
sS'JP'
p503
I13
sS'RP_tot'
p504
I10
sS'TO'
p505
I7
sS'PA'
p506
I11
sS'M'
p507
I9
sS'R'
p508
I6
sS'TB'
p509
I8
sS'PL'
p510
I11
sS'TA'
p511
I5
ssg237
(lp512
sg239
I1
sg240
I0
sg241
I4
sg242
I0
sg243
I7
sg244
I2
sg245
I1
sg246
S'ES'
p513
sbssg210
I7
sg211
I1
sg212
I0
sg213
I0
sg80
(dp514
g426
I0
sg427
I0
sg428
I0
sg429
I0
ssg214
I0
sg215
(lp515
S'EV'
p516
asg218
I0
sg219
I2
sg220
(dp517
S'A'
p518
I12
sS'ME'
p519
I2
sS'RP2'
p520
I10
sS'E'
p521
I11
sS'TO'
p522
I7
sS'RP1'
p523
I7
sS'JP'
p524
I13
sS'RP_tot'
p525
I10
sS'P'
p526
I11
sS'PA'
p527
I11
sS'M'
p528
I9
sS'R'
p529
I6
sS'TB'
p530
I8
sS'PL'
p531
I11
sS'TA'
p532
I5
ssg237
(lp533
sg239
I0
sg240
I0
sg241
I5
sg242
I0
sg243
I25
sg244
I3
sg245
I1
sg246
S'ES'
p534
sbsS's11'
p535
(ijoueur
joueur
p536
(dp537
g28
I1
sg32
I13
sg34
I0
sg35
g36
(g37
g38
Ntp538
Rp539
(dp540
g42
I4
sg43
S'*'
p541
sg45
S'heros'
p542
sbsg47
(dp543
S'SR'
p544
I0
sS'CT'
p545
I0
sS'CR'
p546
I0
sS'ST'
p547
I0
ssg53
(dp548
g544
I0
sg545
I0
sg546
I0
sg547
I0
ssg56
g31
sg57
I1
sg59
I01
sg60
I0
sg61
I0
sg62
I0
sg63
(S'dummy'
p549
S'DO'
p550
g31
g31
tp551
sg68
I01
sg69
g36
(g37
g38
Ntp552
Rp553
(dp554
g42
I4
sg43
S'*'
p555
sg45
g542
sbsg74
(dp556
g544
I0
sg545
I15
sg546
I0
sg547
I0
ssg80
(dp557
g544
I0
sg545
I0
sg546
I0
sg547
I0
ssg82
(dp558
g544
I0
sg545
I0
sg546
I0
sg547
I0
ssg84
(dp559
g544
I0
sg545
I15
sg546
I0
sg547
I0
ssg86
I0
sg87
I0
sg88
S'Tladol'
p560
sg90
I4
sg91
I0
sg92
I14
sg93
I70
sg94
S'AL'
p561
sg96
(dp562
S'A'
p563
I12
sS'ME'
p564
I2
sS'RP2'
p565
I10
sS'E'
p566
I11
sS'P'
p567
I11
sS'RP1'
p568
I7
sS'JP'
p569
I13
sS'RP_tot'
p570
I10
sS'TO'
p571
I7
sS'PA'
p572
I11
sS'M'
p573
I9
sS'R'
p574
I6
sS'TB'
p575
I8
sS'PL'
p576
I11
sS'TA'
p577
I5
ssg113
g562
sg210
I0
sg211
I1
sg212
I0
sg213
I0
sg131
F10.969696969696969
sg214
I0
sg215
(lp578
S'EV'
p579
asg218
I0
sg219
I1
sg220
(dp580
S'A'
p581
I12
sS'ME'
p582
I2
sS'RP2'
p583
I10
sS'E'
p584
I11
sS'P'
p585
I11
sS'RP1'
p586
I7
sS'JP'
p587
I13
sS'RP_tot'
p588
I10
sS'TO'
p589
I7
sS'PA'
p590
I11
sS'M'
p591
I9
sS'R'
p592
I6
sS'TB'
p593
I8
sS'PL'
p594
I11
sS'TA'
p595
I5
ssg237
(lp596
sg239
I1
sg240
I0
sg241
I4
sg242
I0
sg243
I7
sg244
I2
sg245
I1
sg246
S'ES'
p597
sbssg210
I2
sg211
I1
sg212
I0
sg213
I0
sg131
F12.121212121212121
sg214
I0
sg215
(lp598
S'EV'
p599
asg218
I0
sg219
I2
sg220
(dp600
S'A'
p601
I12
sS'ME'
p602
I2
sS'RP2'
p603
I10
sS'E'
p604
I11
sS'TO'
p605
I7
sS'RP1'
p606
I7
sS'JP'
p607
I13
sS'RP_tot'
p608
I10
sS'P'
p609
I11
sS'PA'
p610
I11
sS'M'
p611
I9
sS'R'
p612
I6
sS'TB'
p613
I8
sS'PL'
p614
I11
sS'TA'
p615
I5
ssg237
(lp616
sg239
I0
sg352
(dp617
sg240
I0
sg241
I2
sg242
I0
sg243
I25
sg244
I5
sg245
I0
sg246
S'ES'
p618
sbsS'cap'
p619
(ijoueur
joueur
p620
(dp621
g27
F10.333333333333334
sg28
I1
sg29
F10.62962962962963
sg30
g31
sg32
I0
sg33
F53.03808272194353
sg34
I0
sg35
g36
(g37
g38
Ntp622
Rp623
(dp624
g42
I4
sg43
S'*'
p625
sg45
S'heros'
p626
sbsg47
(dp627
S'SR'
p628
I0
sS'ST'
p629
I13
sS'CR'
p630
I5
sS'CT'
p631
I10
ssg53
(dp632
g628
I0
sg629
I0
sg630
I0
sg631
I0
ssg55
I0
sg56
g31
sg57
I0
sg58
F53.03808272194353
sg59
I00
sg60
I0
sg61
I0
sg62
I0
sg63
(g64
S'PI'
p633
S'TA'
p634
g31
tp635
sg68
I00
sg69
g36
(g37
g38
Ntp636
Rp637
(dp638
g42
I4
sg43
S'*'
p639
sg45
g626
sbsg74
(dp640
g76
I0
sg77
I0
sg78
I0
sg79
I0
ssg80
(dp641
g76
I0
sg77
I0
sg78
I5
sg79
I0
ssg82
(dp642
g76
I0
sg77
I0
sg78
I0
sg79
I0
ssg84
(dp643
g628
I0
sg629
I1
sg630
I0
sg631
I16
ssg86
I0
sg87
I0
sg88
S'Itanel'
p644
sg90
I7
sg91
I0
sg92
I19
sg93
I70
sg94
g95
sg96
(dp645
S'A'
p646
I12
sS'ME'
p647
I8
sS'RP2'
p648
I7
sS'E'
p649
I14
sS'P'
p650
I10
sS'RP1'
p651
I8
sS'JP'
p652
I11
sS'RP_tot'
p653
I9
sS'TO'
p654
I10
sS'PA'
p655
I11
sS'M'
p656
I8
sS'R'
p657
I9
sS'TB'
p658
I6
sS'PL'
p659
I12
sS'TA'
p660
I9
ssg113
(dp661
g646
I12
sg647
I8
sg648
I7
sg649
I14
sg654
I10
sg651
I8
sg652
I11
sg653
I9
sg650
I10
sg655
I11
sg656
I8
sg657
I9
sg658
I6
sg659
I12
sg660
I9
ssg115
(dp662
g117
(ijoueur
joueur
p663
(dp664
g27
F10.333333333333334
sg28
I1
sg30
g31
sg32
I0
sg34
I0
sg35
g36
(g37
g38
Ntp665
Rp666
(dp667
g42
I4
sg43
S'*'
p668
sg45
S'heros'
p669
sbsg47
(dp670
S'SR'
p671
I0
sS'ST'
p672
I13
sS'CR'
p673
I0
sS'CT'
p674
I10
ssg53
(dp675
g671
I0
sg672
I0
sg673
I0
sg674
I0
ssg56
g31
sg131
F10.62962962962963
sg57
I0
sg60
I1
sg61
I0
sg62
I0
sg63
(g132
S'PI'
p676
S'TA'
p677
g31
tp678
sg68
I00
sg69
g36
(g37
g38
Ntp679
Rp680
(dp681
g42
I4
sg43
S'*'
p682
sg45
g669
sbsg74
(dp683
g141
I0
sg142
I1
sg143
I0
sg144
I13
ssg59
I01
sg82
(dp684
g141
I0
sg142
I0
sg143
I0
sg144
I0
ssg84
(dp685
g671
I0
sg672
I1
sg673
I0
sg674
I16
ssg86
I0
sg87
I0
sg88
S'Itanel (12)'
p686
sg90
I7
sg91
I0
sg92
I19
sg93
I70
sg94
g148
sg96
(dp687
S'A'
p688
I12
sS'ME'
p689
I10
sS'RP2'
p690
I7
sS'E'
p691
I14
sS'TO'
p692
I10
sS'RP1'
p693
I8
sS'JP'
p694
I10
sS'RP_tot'
p695
I9
sS'P'
p696
I9
sS'PA'
p697
I11
sS'M'
p698
I8
sS'R'
p699
I9
sS'TB'
p700
I6
sS'PL'
p701
I13
sS'TA'
p702
I9
ssg113
g687
sg115
(dp703
g166
(ijoueur
joueur
p704
(dp705
g28
I1
sg32
I0
sg34
I0
sg35
g36
(g37
g38
Ntp706
Rp707
(dp708
g42
I4
sg43
S'*'
p709
sg45
S'heros'
p710
sbsg47
(dp711
S'SR'
p712
I0
sS'CT'
p713
I10
sS'CR'
p714
I0
sS'ST'
p715
I8
ssg53
(dp716
g712
I0
sg713
I0
sg714
I0
sg715
I0
ssg56
g31
sg57
I0
sg59
I01
sg60
I2
sg61
I0
sg62
I0
sg63
(S'dummy'
p717
S'PI'
p718
S'TA'
p719
g31
tp720
sg68
I00
sg69
g36
(g37
g38
Ntp721
Rp722
(dp723
g42
I4
sg43
S'*'
p724
sg45
g710
sbsg74
(dp725
g712
I0
sg713
I3
sg714
I0
sg715
I0
ssg80
(dp726
g712
I0
sg713
I10
sg714
I0
sg715
I8
ssg82
(dp727
g712
I0
sg713
I0
sg714
I0
sg715
I0
ssg84
(dp728
g712
I0
sg713
I3
sg714
I0
sg715
I0
ssg86
I0
sg87
I0
sg88
S'Itanel'
p729
sg90
I7
sg91
I0
sg92
I19
sg93
I70
sg94
S'AL'
p730
sg96
(dp731
S'A'
p732
I12
sS'ME'
p733
I10
sS'RP2'
p734
I7
sS'E'
p735
I14
sS'P'
p736
I10
sS'RP1'
p737
I9
sS'JP'
p738
I10
sS'RP_tot'
p739
I9
sS'TO'
p740
I10
sS'PA'
p741
I11
sS'M'
p742
I8
sS'R'
p743
I7
sS'TB'
p744
I6
sS'PL'
p745
I13
sS'TA'
p746
I10
ssg113
g731
sg210
I0
sg211
I0
sg212
I1
sg213
I0
sg131
F10.333333333333334
sg214
I0
sg215
(lp747
S'EV'
p748
asg218
I1
sg219
I0
sg220
(dp749
S'A'
p750
I12
sS'ME'
p751
I10
sS'RP2'
p752
I7
sS'E'
p753
I14
sS'P'
p754
I10
sS'RP1'
p755
I9
sS'JP'
p756
I10
sS'RP_tot'
p757
I9
sS'TO'
p758
I10
sS'PA'
p759
I11
sS'M'
p760
I8
sS'R'
p761
I7
sS'TB'
p762
I6
sS'PL'
p763
I13
sS'TA'
p764
I10
ssg237
(lp765
sg239
I1
sg240
I0
sg241
I0
sg242
I0
sg243
I7
sg244
I3
sg245
I0
sg246
S'ES'
p766
sbssg210
I4
sg211
I0
sg212
I1
sg213
I0
sg80
(dp767
g141
I0
sg142
I5
sg143
I0
sg144
I0
ssg214
I0
sg215
(lp768
g250
asg218
I0
sg219
I1
sg220
(dp769
S'A'
p770
I12
sS'ME'
p771
I10
sS'RP2'
p772
I7
sS'E'
p773
I14
sS'TO'
p774
I10
sS'RP1'
p775
I9
sS'JP'
p776
I10
sS'RP_tot'
p777
I9
sS'P'
p778
I10
sS'PA'
p779
I11
sS'M'
p780
I8
sS'R'
p781
I7
sS'TB'
p782
I6
sS'PL'
p783
I13
sS'TA'
p784
I10
ssg237
(lp785
sg239
I0
sg240
I0
sg241
I0
sg242
I0
sg243
I7
sg244
I4
sg245
I1
sg246
S'ES'
p786
sbsg269
(ijoueur
joueur
p787
(dp788
g28
I1
sg32
I0
sg34
I0
sg35
g36
(g37
g38
Ntp789
Rp790
(dp791
g42
I4
sg43
S'*'
p792
sg45
S'heros'
p793
sbsg47
(dp794
S'SR'
p795
I0
sS'CT'
p796
I10
sS'CR'
p797
I0
sS'ST'
p798
I8
ssg53
(dp799
g795
I0
sg796
I0
sg797
I0
sg798
I0
ssg56
g31
sg57
I0
sg59
I01
sg60
I2
sg61
I0
sg62
I0
sg63
(S'dummy'
p800
S'PI'
p801
S'TA'
p802
g31
tp803
sg68
I00
sg69
g36
(g37
g38
Ntp804
Rp805
(dp806
g42
I4
sg43
S'*'
p807
sg45
g793
sbsg74
(dp808
g795
I0
sg796
I3
sg797
I0
sg798
I0
ssg80
(dp809
g795
I0
sg796
I10
sg797
I0
sg798
I8
ssg82
(dp810
g795
I0
sg796
I0
sg797
I0
sg798
I0
ssg84
(dp811
g795
I0
sg796
I3
sg797
I0
sg798
I0
ssg86
I0
sg87
I0
sg88
S'Itanel (11)'
p812
sg90
I7
sg91
I0
sg92
I19
sg93
I70
sg94
S'AL'
p813
sg96
(dp814
S'A'
p815
I12
sS'ME'
p816
I10
sS'RP2'
p817
I7
sS'E'
p818
I14
sS'P'
p819
I10
sS'RP1'
p820
I9
sS'JP'
p821
I10
sS'RP_tot'
p822
I9
sS'TO'
p823
I10
sS'PA'
p824
I11
sS'M'
p825
I8
sS'R'
p826
I7
sS'TB'
p827
I6
sS'PL'
p828
I13
sS'TA'
p829
I10
ssg113
g814
sg210
I0
sg211
I0
sg212
I1
sg213
I0
sg131
F10.333333333333334
sg214
I0
sg215
(lp830
S'EV'
p831
asg218
I1
sg219
I0
sg220
(dp832
S'A'
p833
I12
sS'ME'
p834
I10
sS'RP2'
p835
I7
sS'E'
p836
I14
sS'P'
p837
I10
sS'RP1'
p838
I9
sS'JP'
p839
I10
sS'RP_tot'
p840
I9
sS'TO'
p841
I10
sS'PA'
p842
I11
sS'M'
p843
I8
sS'R'
p844
I7
sS'TB'
p845
I6
sS'PL'
p846
I13
sS'TA'
p847
I10
ssg237
(lp848
sg239
I1
sg240
I0
sg241
I0
sg242
I0
sg243
I7
sg244
I3
sg245
I0
sg246
S'ES'
p849
sbssg210
I2
sg211
I0
sg212
I1
sg213
I0
sg131
F10.25925925925926
sg214
I0
sg215
(lp850
g334
asg218
I0
sg219
I1
sg220
(dp851
S'A'
p852
I12
sS'ME'
p853
I10
sS'RP2'
p854
I7
sS'E'
p855
I14
sS'TO'
p856
I10
sS'RP1'
p857
I9
sS'JP'
p858
I10
sS'RP_tot'
p859
I9
sS'P'
p860
I10
sS'PA'
p861
I11
sS'M'
p862
I8
sS'R'
p863
I7
sS'TB'
p864
I6
sS'PL'
p865
I13
sS'TA'
p866
I10
ssg237
(lp867
sg239
I0
sg352
(dp868
sg240
I0
sg241
I0
sg242
I0
sg243
I7
sg244
I4
sg245
I0
sg246
S'ES'
p869
sbsS'B4'
p870
(ijoueur
joueur
p871
(dp872
g27
F9.242424242424242
sg28
I0
sg29
F11.242424242424242
sg30
g31
sg32
I1
sg33
F42.858361287494624
sg34
I0
sg35
g36
(g37
g38
Ntp873
Rp874
(dp875
g42
I4
sg43
S'*'
p876
sg45
g362
sbsg47
(dp877
g364
I0
sg365
I0
sg366
I5
sg367
I17
ssg53
(dp878
g364
I0
sg365
I0
sg366
I0
sg367
I0
ssg55
I0
sg56
g31
sg57
I0
sg58
F42.858361287494624
sg59
I00
sg60
I0
sg61
I1
sg62
I4
sg63
(g369
S'DO'
p879
S'DM'
p880
g31
tp881
sg68
I00
sg69
g874
sg74
(dp882
g377
I0
sg378
I0
sg379
I0
sg380
I0
ssg80
(dp883
g377
I0
sg378
I0
sg379
I0
sg380
I4
ssg82
(dp884
g377
I0
sg378
I0
sg379
I0
sg380
I0
ssg84
(dp885
g364
I0
sg365
I0
sg366
I7
sg367
I5
ssg86
I59
sg87
I14
sg88
S'Orthanol'
p886
sg90
I11
sg91
I48
sg92
I22
sg93
I80
sg94
g385
sg96
(dp887
g387
I11
sg388
I5
sg389
I8
sg390
I10
sg391
I13
sg392
I10
sg393
I11
sg394
I11
sg395
I7
sg396
I13
sg397
I10
sg398
I6
sg399
I11
sg400
I11
sg401
I4
ssg113
(dp888
g387
I11
sg388
I5
sg389
I8
sg390
I10
sg395
I7
sg392
I10
sg393
I11
sg394
I11
sg391
I13
sg396
I13
sg397
I10
sg398
I6
sg399
I11
sg400
I11
sg401
I4
ssg115
(dp889
g404
(ijoueur
joueur
p890
(dp891
g27
F9.242424242424242
sg28
I0
sg30
g31
sg32
I1
sg34
I0
sg35
g36
(g37
g38
Ntp892
Rp893
(dp894
g42
I4
sg43
S'*'
p895
sg45
g411
sbsg47
(dp896
g413
I0
sg414
I0
sg415
I5
sg416
I13
ssg53
(dp897
g413
I0
sg414
I0
sg415
I0
sg416
I0
ssg56
g31
sg131
F11.242424242424242
sg57
I0
sg60
I1
sg61
I8
sg62
I44
sg63
(g418
S'DO'
p898
S'DM'
p899
g31
tp900
sg68
I00
sg69
g893
sg74
(dp901
g426
I0
sg427
I3
sg428
I0
sg429
I0
ssg59
I01
sg82
(dp902
g426
I0
sg427
I0
sg428
I0
sg429
I0
ssg84
(dp903
g413
I0
sg414
I0
sg415
I7
sg416
I5
ssg86
I45
sg87
I45
sg88
S'Orthanol'
p904
sg90
I11
sg91
I44
sg92
I22
sg93
I80
sg94
g433
sg96
(dp905
g435
I11
sg436
I5
sg437
I8
sg438
I10
sg439
I7
sg440
I10
sg441
I11
sg442
I11
sg443
I13
sg444
I13
sg445
I10
sg446
I6
sg447
I10
sg448
I11
sg449
I4
ssg113
g905
sg115
(dp906
g451
(ijoueur
joueur
p907
(dp908
g28
I0
sg32
I0
sg34
I0
sg35
g36
(g37
g38
Ntp909
Rp910
(dp911
g42
I4
sg43
S'*'
p912
sg45
S'heros'
p913
sbsg47
(dp914
S'SR'
p915
I0
sS'CT'
p916
I1
sS'CR'
p917
I5
sS'ST'
p918
I0
ssg53
(dp919
g915
I0
sg916
I0
sg917
I0
sg918
I0
ssg56
g31
sg57
I0
sg59
I00
sg60
I0
sg61
I0
sg62
I0
sg63
(S'dummy'
p920
S'DO'
p921
S'DM'
p922
g31
tp923
sg68
I00
sg69
g36
(g37
g38
Ntp924
Rp925
(dp926
g42
I2
sg43
S'<<'
p927
sg45
S'special'
p928
sbsg74
(dp929
g915
I0
sg916
I2
sg917
I7
sg918
I0
ssg80
(dp930
g915
I0
sg916
I1
sg917
I5
sg918
I0
ssg82
(dp931
g915
I0
sg916
I0
sg917
I0
sg918
I0
ssg84
(dp932
g915
I0
sg916
I2
sg917
I7
sg918
I0
ssg86
I0
sg87
I0
sg88
S'Orthanol'
p933
sg90
I11
sg91
I0
sg92
I22
sg93
I30
sg94
S'AL'
p934
sg96
(dp935
S'A'
p936
I10
sS'ME'
p937
I4
sS'RP2'
p938
I6
sS'E'
p939
I9
sS'P'
p940
I8
sS'RP1'
p941
I8
sS'JP'
p942
I9
sS'RP_tot'
p943
I8
sS'TO'
p944
I5
sS'PA'
p945
I11
sS'M'
p946
I11
sS'R'
p947
I6
sS'TB'
p948
I8
sS'PL'
p949
I9
sS'TA'
p950
I3
ssg113
g935
sg210
I0
sg211
I0
sg212
I1
sg213
I0
sg131
F9.242424242424242
sg214
I0
sg215
(lp951
S'EV'
p952
asg218
I1
sg219
I0
sg220
(dp953
S'A'
p954
I10
sS'ME'
p955
I4
sS'RP2'
p956
I6
sS'E'
p957
I9
sS'P'
p958
I8
sS'RP1'
p959
I8
sS'JP'
p960
I9
sS'RP_tot'
p961
I8
sS'TO'
p962
I5
sS'PA'
p963
I11
sS'M'
p964
I11
sS'R'
p965
I6
sS'TB'
p966
I8
sS'PL'
p967
I9
sS'TA'
p968
I3
ssg237
(lp969
sg239
I0
sg240
I0
sg241
I0
sg242
I0
sg243
I5
sg244
I0
sg245
I0
sg246
S'ES'
p970
sbssg210
I10
sg211
I0
sg212
I1
sg213
I0
sg80
(dp971
g426
I0
sg427
I12
sg428
I0
sg429
I0
ssg214
I8
sg215
(lp972
g516
asg218
I0
sg219
I1
sg220
(dp973
g518
I10
sg519
I4
sg520
I6
sg521
I9
sg522
I5
sg523
I8
sg524
I9
sg525
I8
sg526
I8
sg527
I11
sg528
I11
sg529
I6
sg530
I8
sg531
I9
sg532
I3
ssg237
(lp974
sg239
I0
sg240
I2
sg241
I1
sg242
I2
sg243
I10
sg244
I1
sg245
I1
sg246
S'ES'
p975
sbsg535
(ijoueur
joueur
p976
(dp977
g28
I0
sg32
I0
sg34
I0
sg35
g36
(g37
g38
Ntp978
Rp979
(dp980
g42
I4
sg43
S'*'
p981
sg45
S'heros'
p982
sbsg47
(dp983
S'SR'
p984
I0
sS'CT'
p985
I1
sS'CR'
p986
I5
sS'ST'
p987
I0
ssg53
(dp988
g984
I0
sg985
I0
sg986
I0
sg987
I0
ssg56
g31
sg57
I0
sg59
I00
sg60
I0
sg61
I0
sg62
I0
sg63
(S'dummy'
p989
S'DO'
p990
S'DM'
p991
g31
tp992
sg68
I00
sg69
g36
(g37
g38
Ntp993
Rp994
(dp995
g42
I2
sg43
S'<<'
p996
sg45
S'special'
p997
sbsg74
(dp998
g984
I0
sg985
I2
sg986
I7
sg987
I0
ssg80
(dp999
g984
I0
sg985
I1
sg986
I5
sg987
I0
ssg82
(dp1000
g984
I0
sg985
I0
sg986
I0
sg987
I0
ssg84
(dp1001
g984
I0
sg985
I2
sg986
I7
sg987
I0
ssg86
I0
sg87
I0
sg88
S'Orthanol'
p1002
sg90
I11
sg91
I0
sg92
I22
sg93
I30
sg94
S'AL'
p1003
sg96
(dp1004
S'A'
p1005
I10
sS'ME'
p1006
I4
sS'RP2'
p1007
I6
sS'E'
p1008
I9
sS'P'
p1009
I8
sS'RP1'
p1010
I8
sS'JP'
p1011
I9
sS'RP_tot'
p1012
I8
sS'TO'
p1013
I5
sS'PA'
p1014
I11
sS'M'
p1015
I11
sS'R'
p1016
I6
sS'TB'
p1017
I8
sS'PL'
p1018
I9
sS'TA'
p1019
I3
ssg113
g1004
sg210
I0
sg211
I0
sg212
I1
sg213
I0
sg131
F9.242424242424242
sg214
I0
sg215
(lp1020
S'EV'
p1021
asg218
I1
sg219
I0
sg220
(dp1022
S'A'
p1023
I10
sS'ME'
p1024
I4
sS'RP2'
p1025
I6
sS'E'
p1026
I9
sS'P'
p1027
I8
sS'RP1'
p1028
I8
sS'JP'
p1029
I9
sS'RP_tot'
p1030
I8
sS'TO'
p1031
I5
sS'PA'
p1032
I11
sS'M'
p1033
I11
sS'R'
p1034
I6
sS'TB'
p1035
I8
sS'PL'
p1036
I9
sS'TA'
p1037
I3
ssg237
(lp1038
sg239
I0
sg240
I0
sg241
I0
sg242
I0
sg243
I5
sg244
I0
sg245
I0
sg246
S'ES'
p1039
sbssg210
I7
sg211
I0
sg212
I1
sg213
I0
sg131
F11.242424242424242
sg214
I9
sg215
(lp1040
g599
asg218
I0
sg219
I1
sg220
(dp1041
g601
I10
sg602
I4
sg603
I6
sg604
I9
sg605
I5
sg606
I8
sg607
I9
sg608
I8
sg609
I8
sg610
I11
sg611
I11
sg612
I6
sg613
I8
sg614
I9
sg615
I3
ssg237
(lp1042
sg239
I0
sg352
(dp1043
sg240
I3
sg241
I0
sg242
I1
sg243
I10
sg244
I1
sg245
I0
sg246
S'ES'
p1044
sbsS'RJC'
p1045
g356
sS'B1'
p1046
g871
sS'B2'
p1047
g871
sS'B3'
p1048
g871
sS'SA_pcp2'
p1049
(ijoueur
joueur
p1050
(dp1051
g27
F12.078947368421053
sg28
I2
sg29
F11.210526315789474
sg30
g31
sg32
I0
sg33
F42.858361287494624
sg34
I0
sg35
g36
(g37
g38
Ntp1052
Rp1053
(dp1054
g42
I4
sg43
S'*'
p1055
sg45
g626
sbsg47
(dp1056
g49
I0
sg50
I0
sg51
I0
sg52
I0
ssg53
(dp1057
g49
I0
sg50
I0
sg51
I0
sg52
I0
ssg55
I0
sg56
g31
sg57
I0
sg58
F42.858361287494624
sg59
I00
sg60
I0
sg61
I0
sg62
I0
sg63
(g64
S'TL'
p1058
g31
g31
tp1059
sg68
I00
sg69
g36
(g37
g38
Ntp1060
Rp1061
(dp1062
g42
I4
sg43
S'*'
p1063
sg45
g626
sbsg74
(dp1064
g76
I0
sg77
I4
sg78
I0
sg79
I0
ssg80
(dp1065
g76
I0
sg77
I0
sg78
I0
sg79
I0
ssg82
(dp1066
g76
I0
sg77
I0
sg78
I0
sg79
I0
ssg84
(dp1067
g49
I0
sg50
I33
sg51
I0
sg52
I8
ssg86
I0
sg87
I0
sg88
S'Qaia'
p1068
sg90
I8
sg91
I0
sg92
I20
sg93
I70
sg94
g95
sg96
(dp1069
g98
I14
sg99
I8
sg100
I11
sg101
I10
sg102
I14
sg103
I8
sg104
I6
sg105
I12
sg106
I6
sg107
I11
sg108
I10
sg109
I10
sg110
I10
sg111
I13
sg112
I6
ssg113
(dp1070
g98
I14
sg99
I8
sg100
I11
sg101
I10
sg106
I6
sg103
I8
sg104
I6
sg105
I12
sg102
I14
sg107
I11
sg108
I10
sg109
I10
sg110
I10
sg111
I13
sg112
I6
ssg115
(dp1071
g117
(ijoueur
joueur
p1072
(dp1073
g27
F12.078947368421053
sg28
I1
sg30
g31
sg32
I0
sg34
I0
sg35
g36
(g37
g38
Ntp1074
Rp1075
(dp1076
g42
I4
sg43
S'*'
p1077
sg45
g669
sbsg47
(dp1078
g126
I0
sg127
I0
sg128
I0
sg129
I0
ssg53
(dp1079
g126
I0
sg127
I0
sg128
I0
sg129
I0
ssg56
g31
sg131
F11.210526315789474
sg57
I0
sg60
I1
sg61
I0
sg62
I0
sg63
(g132
S'TL'
p1080
g31
g31
tp1081
sg68
I00
sg69
g36
(g37
g38
Ntp1082
Rp1083
(dp1084
g42
I4
sg43
S'*'
p1085
sg45
g669
sbsg74
(dp1086
g141
I0
sg142
I0
sg143
I0
sg144
I14
ssg59
I01
sg82
(dp1087
g141
I0
sg142
I0
sg143
I0
sg144
I0
ssg84
(dp1088
g126
I0
sg127
I29
sg128
I0
sg129
I8
ssg86
I0
sg87
I0
sg88
S'Qaia (12)'
p1089
sg90
I8
sg91
I0
sg92
I20
sg93
I70
sg94
g148
sg96
(dp1090
g150
I14
sg151
I8
sg152
I10
sg153
I10
sg154
I7
sg155
I8
sg156
I7
sg157
I11
sg158
I13
sg159
I11
sg160
I10
sg161
I10
sg162
I10
sg163
I12
sg164
I6
ssg113
g1090
sg115
(dp1091
g166
(ijoueur
joueur
p1092
(dp1093
g28
I0
sg32
I0
sg34
I0
sg35
g36
(g37
g38
Ntp1094
Rp1095
(dp1096
g42
I4
sg43
S'*'
p1097
sg45
S'heros'
p1098
sbsg47
(dp1099
S'SR'
p1100
I0
sS'ST'
p1101
I0
sS'CR'
p1102
I0
sS'CT'
p1103
I0
ssg53
(dp1104
g1100
I0
sg1101
I0
sg1102
I0
sg1103
I0
ssg56
g31
sg57
I0
sg59
I01
sg60
I4
sg61
I0
sg62
I0
sg63
(S'dummy'
p1105
S'TL'
p1106
g31
g31
tp1107
sg68
I00
sg69
g36
(g37
g38
Ntp1108
Rp1109
(dp1110
g42
I4
sg43
S'*'
p1111
sg45
g1098
sbsg74
(dp1112
g1100
I0
sg1101
I8
sg1102
I0
sg1103
I15
ssg80
(dp1113
g1100
I0
sg1101
I0
sg1102
I0
sg1103
I0
ssg82
(dp1114
g1100
I0
sg1101
I0
sg1102
I0
sg1103
I0
ssg84
(dp1115
g1100
I0
sg1101
I8
sg1102
I0
sg1103
I15
ssg86
I0
sg87
I0
sg88
S'Qaia'
p1116
sg90
I8
sg91
I0
sg92
I20
sg93
I70
sg94
S'AL'
p1117
sg96
(dp1118
S'A'
p1119
I14
sS'ME'
p1120
I8
sS'RP2'
p1121
I10
sS'E'
p1122
I10
sS'TO'
p1123
I14
sS'RP1'
p1124
I8
sS'JP'
p1125
I7
sS'RP_tot'
p1126
I11
sS'P'
p1127
I7
sS'PA'
p1128
I11
sS'M'
p1129
I11
sS'R'
p1130
I12
sS'TB'
p1131
I9
sS'PL'
p1132
I13
sS'TA'
p1133
I6
ssg113
g1118
sg210
I0
sg211
I0
sg212
I0
sg213
I0
sg131
F12.078947368421053
sg214
I0
sg215
(lp1134
S'EV'
p1135
asg218
I0
sg219
I1
sg220
(dp1136
S'A'
p1137
I14
sS'ME'
p1138
I8
sS'RP2'
p1139
I10
sS'E'
p1140
I10
sS'TO'
p1141
I14
sS'RP1'
p1142
I8
sS'JP'
p1143
I7
sS'RP_tot'
p1144
I11
sS'P'
p1145
I7
sS'PA'
p1146
I11
sS'M'
p1147
I11
sS'R'
p1148
I12
sS'TB'
p1149
I9
sS'PL'
p1150
I13
sS'TA'
p1151
I6
ssg237
(lp1152
sg239
I0
sg240
I0
sg241
I0
sg242
I0
sg243
I7
sg244
I5
sg245
I1
sg246
S'ES'
p1153
sbssg210
I0
sg211
I0
sg212
I1
sg213
I0
sg80
(dp1154
g141
I0
sg142
I0
sg143
I0
sg144
I0
ssg214
I0
sg215
(lp1155
g250
asg218
I1
sg219
I1
sg220
(dp1156
g252
I14
sg253
I8
sg254
I10
sg255
I10
sg256
I7
sg257
I8
sg258
I7
sg259
I11
sg260
I14
sg261
I11
sg262
I11
sg263
I12
sg264
I9
sg265
I13
sg266
I6
ssg237
(lp1157
sg239
I1
sg240
I0
sg241
I0
sg242
I0
sg243
I7
sg244
I6
sg245
I0
sg246
S'ES'
p1158
sbsg269
(ijoueur
joueur
p1159
(dp1160
g28
I0
sg32
I0
sg34
I0
sg35
g36
(g37
g38
Ntp1161
Rp1162
(dp1163
g42
I4
sg43
S'*'
p1164
sg45
S'heros'
p1165
sbsg47
(dp1166
S'SR'
p1167
I0
sS'ST'
p1168
I0
sS'CR'
p1169
I0
sS'CT'
p1170
I0
ssg53
(dp1171
g1167
I0
sg1168
I0
sg1169
I0
sg1170
I0
ssg56
g31
sg57
I0
sg59
I01
sg60
I4
sg61
I0
sg62
I0
sg63
(S'dummy'
p1172
S'TL'
p1173
g31
g31
tp1174
sg68
I00
sg69
g36
(g37
g38
Ntp1175
Rp1176
(dp1177
g42
I4
sg43
S'*'
p1178
sg45
g1165
sbsg74
(dp1179
g1167
I0
sg1168
I8
sg1169
I0
sg1170
I15
ssg80
(dp1180
g1167
I0
sg1168
I0
sg1169
I0
sg1170
I0
ssg82
(dp1181
g1167
I0
sg1168
I0
sg1169
I0
sg1170
I0
ssg84
(dp1182
g1167
I0
sg1168
I8
sg1169
I0
sg1170
I15
ssg86
I0
sg87
I0
sg88
S'Qaia (11)'
p1183
sg90
I8
sg91
I0
sg92
I20
sg93
I70
sg94
S'AL'
p1184
sg96
(dp1185
S'A'
p1186
I14
sS'ME'
p1187
I8
sS'RP2'
p1188
I10
sS'E'
p1189
I10
sS'TO'
p1190
I14
sS'RP1'
p1191
I8
sS'JP'
p1192
I7
sS'RP_tot'
p1193
I11
sS'P'
p1194
I7
sS'PA'
p1195
I11
sS'M'
p1196
I11
sS'R'
p1197
I12
sS'TB'
p1198
I9
sS'PL'
p1199
I13
sS'TA'
p1200
I6
ssg113
g1185
sg210
I0
sg211
I0
sg212
I0
sg213
I0
sg131
F12.078947368421053
sg214
I0
sg215
(lp1201
S'EV'
p1202
asg218
I0
sg219
I1
sg220
(dp1203
S'A'
p1204
I14
sS'ME'
p1205
I8
sS'RP2'
p1206
I10
sS'E'
p1207
I10
sS'TO'
p1208
I14
sS'RP1'
p1209
I8
sS'JP'
p1210
I7
sS'RP_tot'
p1211
I11
sS'P'
p1212
I7
sS'PA'
p1213
I11
sS'M'
p1214
I11
sS'R'
p1215
I12
sS'TB'
p1216
I9
sS'PL'
p1217
I13
sS'TA'
p1218
I6
ssg237
(lp1219
sg239
I0
sg240
I0
sg241
I0
sg242
I0
sg243
I7
sg244
I5
sg245
I1
sg246
S'ES'
p1220
sbssg210
I2
sg211
I0
sg212
I1
sg213
I0
sg131
F11.657894736842104
sg214
I0
sg215
(lp1221
g334
asg218
I0
sg219
I1
sg220
(dp1222
g336
I14
sg337
I8
sg338
I10
sg339
I10
sg340
I7
sg341
I8
sg342
I7
sg343
I11
sg344
I14
sg345
I11
sg346
I11
sg347
I12
sg348
I9
sg349
I13
sg350
I6
ssg237
(lp1223
sg239
I1
sg352
(dp1224
sg240
I0
sg241
I0
sg242
I0
sg243
I7
sg244
I6
sg245
I0
sg246
S'ES'
p1225
sbsS'SA_pcp1'
p1226
(ijoueur
joueur
p1227
(dp1228
g27
F9.555555555555555
sg28
I0
sg29
F10.055555555555555
sg30
g31
sg32
I0
sg33
F53.03808272194353
sg34
I0
sg35
g36
(g37
g38
Ntp1229
Rp1230
(dp1231
g42
I2
sg43
S'^^'
p1232
sg45
S'special'
p1233
sbsg47
(dp1234
g49
I0
sg50
I7
sg51
I13
sg52
I0
ssg53
(dp1235
g49
I0
sg50
I0
sg51
I0
sg52
I0
ssg55
I0
sg56
g31
sg57
I0
sg58
F53.03808272194353
sg59
I00
sg60
I0
sg61
I0
sg62
I0
sg63
(g64
S'N8'
p1236
S'TL'
p1237
g31
tp1238
sg68
I00
sg69
g36
(g37
g38
Ntp1239
Rp1240
(dp1241
g42
I2
sg43
S'^^'
p1242
sg45
g1233
sbsg74
(dp1243
g76
I0
sg77
I1
sg78
I1
sg79
I0
ssg80
(dp1244
g76
I0
sg77
I0
sg78
I3
sg79
I0
ssg82
(dp1245
g76
I0
sg77
I0
sg78
I0
sg79
I0
ssg84
(dp1246
g49
I0
sg50
I3
sg51
I8
sg52
I0
ssg86
I0
sg87
I0
sg88
S'Vlenael'
p1247
sg90
I11
sg91
I0
sg92
I23
sg93
I17
sg94
g95
sg96
(dp1248
g98
I11
sg99
I6
sg100
I7
sg101
I11
sg102
I15
sg103
I7
sg104
I5
sg105
I8
sg106
I5
sg107
I9
sg108
I9
sg109
I9
sg110
I5
sg111
I11
sg112
I4
ssg113
(dp1249
g98
I11
sg99
I6
sg100
I7
sg101
I11
sg106
I5
sg103
I7
sg104
I5
sg105
I8
sg102
I15
sg107
I9
sg108
I9
sg109
I9
sg110
I5
sg111
I11
sg112
I4
ssg115
(dp1250
g117
(ijoueur
joueur
p1251
(dp1252
g27
F9.555555555555555
sg28
I0
sg30
g31
sg32
I0
sg34
I0
sg35
g36
(g37
g38
Ntp1253
Rp1254
(dp1255
g42
I2
sg43
S'^^'
p1256
sg45
S'special'
p1257
sbsg47
(dp1258
g126
I0
sg127
I7
sg128
I10
sg129
I0
ssg53
(dp1259
g126
I0
sg127
I0
sg128
I0
sg129
I0
ssg56
g31
sg131
F10.055555555555555
sg57
I0
sg60
I1
sg61
I0
sg62
I0
sg63
(g132
S'N8'
p1260
S'TL'
p1261
g31
tp1262
sg68
I00
sg69
g36
(g37
g38
Ntp1263
Rp1264
(dp1265
g42
I2
sg43
S'^^'
p1266
sg45
g1257
sbsg74
(dp1267
g141
I0
sg142
I0
sg143
I5
sg144
I2
ssg59
I01
sg82
(dp1268
g141
I0
sg142
I0
sg143
I0
sg144
I0
ssg84
(dp1269
g126
I0
sg127
I2
sg128
I7
sg129
I0
ssg86
I0
sg87
I0
sg88
S'Vlenael (12)'
p1270
sg90
I11
sg91
I0
sg92
I23
sg93
I17
sg94
g148
sg96
(dp1271
g150
I10
sg151
I6
sg152
I7
sg153
I11
sg154
I5
sg155
I7
sg156
I5
sg157
I8
sg158
I15
sg159
I9
sg160
I8
sg161
I9
sg162
I5
sg163
I10
sg164
I4
ssg113
g1271
sg115
(dp1272
g166
(ijoueur
joueur
p1273
(dp1274
g28
I0
sg32
I0
sg34
I0
sg35
g36
(g37
g38
Ntp1275
Rp1276
(dp1277
g42
I2
sg43
S'^^'
p1278
sg45
S'special'
p1279
sbsg47
(dp1280
S'SR'
p1281
I0
sS'ST'
p1282
I0
sS'CR'
p1283
I5
sS'CT'
p1284
I4
ssg53
(dp1285
g1281
I0
sg1282
I0
sg1283
I0
sg1284
I0
ssg56
g31
sg57
I0
sg59
I01
sg60
I0
sg61
I0
sg62
I0
sg63
(S'dummy'
p1286
S'N8'
p1287
S'TL'
p1288
g31
tp1289
sg68
I00
sg69
g36
(g37
g38
Ntp1290
Rp1291
(dp1292
g42
I2
sg43
S'^^'
p1293
sg45
g1279
sbsg74
(dp1294
g1281
I0
sg1282
I0
sg1283
I2
sg1284
I0
ssg80
(dp1295
g1281
I0
sg1282
I0
sg1283
I5
sg1284
I4
ssg82
(dp1296
g1281
I0
sg1282
I0
sg1283
I0
sg1284
I0
ssg84
(dp1297
g1281
I0
sg1282
I0
sg1283
I2
sg1284
I0
ssg86
I0
sg87
I0
sg88
S'Vlenael'
p1298
sg90
I11
sg91
I0
sg92
I23
sg93
I17
sg94
S'AL'
p1299
sg96
(dp1300
S'A'
p1301
I10
sS'ME'
p1302
I6
sS'RP2'
p1303
I7
sS'E'
p1304
I10
sS'TO'
p1305
I13
sS'RP1'
p1306
I8
sS'JP'
p1307
I5
sS'RP_tot'
p1308
I8
sS'P'
p1309
I5
sS'PA'
p1310
I9
sS'M'
p1311
I8
sS'R'
p1312
I9
sS'TB'
p1313
I5
sS'PL'
p1314
I9
sS'TA'
p1315
I4
ssg113
g1300
sg210
I0
sg211
I0
sg212
I1
sg213
I0
sg131
F9.555555555555555
sg214
I0
sg215
(lp1316
S'EV'
p1317
asg218
I1
sg219
I0
sg220
(dp1318
S'A'
p1319
I10
sS'ME'
p1320
I6
sS'RP2'
p1321
I7
sS'E'
p1322
I10
sS'TO'
p1323
I13
sS'RP1'
p1324
I8
sS'JP'
p1325
I5
sS'RP_tot'
p1326
I8
sS'P'
p1327
I5
sS'PA'
p1328
I9
sS'M'
p1329
I8
sS'R'
p1330
I9
sS'TB'
p1331
I5
sS'PL'
p1332
I9
sS'TA'
p1333
I4
ssg237
(lp1334
sg239
I0
sg240
I0
sg241
I0
sg242
I0
sg243
I2
sg244
I0
sg245
I0
sg246
S'ES'
p1335
sbssg210
I6
sg211
I0
sg212
I1
sg213
I0
sg80
(dp1336
g141
I0
sg142
I0
sg143
I5
sg144
I3
ssg214
I0
sg215
(lp1337
g250
asg218
I0
sg219
I0
sg220
(dp1338
g252
I10
sg253
I6
sg254
I7
sg255
I10
sg256
I5
sg257
I8
sg258
I5
sg259
I8
sg260
I13
sg261
I9
sg262
I8
sg263
I9
sg264
I5
sg265
I9
sg266
I4
ssg237
(lp1339
sg239
I0
sg240
I0
sg241
I0
sg242
I0
sg243
I2
sg244
I1
sg245
I0
sg246
S'ES'
p1340
sbsg269
(ijoueur
joueur
p1341
(dp1342
g28
I0
sg32
I0
sg34
I0
sg35
g36
(g37
g38
Ntp1343
Rp1344
(dp1345
g42
I2
sg43
S'^^'
p1346
sg45
S'special'
p1347
sbsg47
(dp1348
S'SR'
p1349
I0
sS'ST'
p1350
I0
sS'CR'
p1351
I5
sS'CT'
p1352
I4
ssg53
(dp1353
g1349
I0
sg1350
I0
sg1351
I0
sg1352
I0
ssg56
g31
sg57
I0
sg59
I01
sg60
I0
sg61
I0
sg62
I0
sg63
(S'dummy'
p1354
S'N8'
p1355
S'TL'
p1356
g31
tp1357
sg68
I00
sg69
g36
(g37
g38
Ntp1358
Rp1359
(dp1360
g42
I2
sg43
S'^^'
p1361
sg45
g1347
sbsg74
(dp1362
g1349
I0
sg1350
I0
sg1351
I2
sg1352
I0
ssg80
(dp1363
g1349
I0
sg1350
I0
sg1351
I5
sg1352
I4
ssg82
(dp1364
g1349
I0
sg1350
I0
sg1351
I0
sg1352
I0
ssg84
(dp1365
g1349
I0
sg1350
I0
sg1351
I2
sg1352
I0
ssg86
I0
sg87
I0
sg88
S'Vlenael (11)'
p1366
sg90
I11
sg91
I0
sg92
I23
sg93
I17
sg94
S'AL'
p1367
sg96
(dp1368
S'A'
p1369
I10
sS'ME'
p1370
I6
sS'RP2'
p1371
I7
sS'E'
p1372
I10
sS'TO'
p1373
I13
sS'RP1'
p1374
I8
sS'JP'
p1375
I5
sS'RP_tot'
p1376
I9
sS'P'
p1377
I5
sS'PA'
p1378
I9
sS'M'
p1379
I8
sS'R'
p1380
I9
sS'TB'
p1381
I5
sS'PL'
p1382
I9
sS'TA'
p1383
I4
ssg113
g1368
sg210
I0
sg211
I0
sg212
I1
sg213
I0
sg131
F9.555555555555555
sg214
I0
sg215
(lp1384
S'EV'
p1385
asg218
I1
sg219
I0
sg220
(dp1386
S'A'
p1387
I10
sS'ME'
p1388
I6
sS'RP2'
p1389
I7
sS'E'
p1390
I10
sS'TO'
p1391
I13
sS'RP1'
p1392
I8
sS'JP'
p1393
I5
sS'RP_tot'
p1394
I8
sS'P'
p1395
I5
sS'PA'
p1396
I9
sS'M'
p1397
I8
sS'R'
p1398
I9
sS'TB'
p1399
I5
sS'PL'
p1400
I9
sS'TA'
p1401
I4
ssg237
(lp1402
sg239
I0
sg240
I0
sg241
I0
sg242
I0
sg243
I2
sg244
I0
sg245
I0
sg246
S'ES'
p1403
sbssg210
I1
sg211
I0
sg212
I1
sg213
I0
sg131
F10.444444444444445
sg214
I0
sg215
(lp1404
g334
asg218
I0
sg219
I0
sg220
(dp1405
g336
I10
sg337
I6
sg338
I7
sg339
I10
sg340
I5
sg341
I8
sg342
I5
sg343
I8
sg344
I13
sg345
I9
sg346
I8
sg347
I9
sg348
I5
sg349
I9
sg350
I4
ssg237
(lp1406
sg239
I0
sg352
(dp1407
sg240
I0
sg241
I0
sg242
I0
sg243
I2
sg244
I1
sg245
I0
sg246
S'ES'
p1408
sbsS'drop3'
p1409
g871
sS'SA_remp1'
p1410
(ijoueur
joueur
p1411
(dp1412
g27
F8.823529411764707
sg28
I0
sg29
F10.823529411764707
sg30
g31
sg32
I0
sg33
F53.03808272194353
sg34
I0
sg35
g36
(g37
g38
Ntp1413
Rp1414
(dp1415
g42
I5
sg43
S'**'
p1416
sg45
g46
sbsg47
(dp1417
g49
I8
sg50
I3
sg51
I9
sg52
I0
ssg53
(dp1418
g49
I0
sg50
I0
sg51
I0
sg52
I0
ssg55
I0
sg56
g31
sg57
I0
sg58
F53.03808272194353
sg59
I00
sg60
I0
sg61
I0
sg62
I0
sg63
(g64
S'DL'
p1419
S'PI'
p1420
g31
tp1421
sg68
I00
sg69
g1414
sg74
(dp1422
g76
I0
sg77
I1
sg78
I4
sg79
I0
ssg80
(dp1423
g76
I0
sg77
I0
sg78
I0
sg79
I0
ssg82
(dp1424
g76
I0
sg77
I0
sg78
I0
sg79
I0
ssg84
(dp1425
g49
I0
sg50
I14
sg51
I9
sg52
I0
ssg86
I0
sg87
I0
sg88
S'Jenhair'
p1426
sg90
I11
sg91
I0
sg92
I27
sg93
I162
sg94
g95
sg96
(dp1427
g98
I12
sg99
I11
sg100
I9
sg101
I11
sg102
I13
sg103
I9
sg104
I9
sg105
I11
sg106
I10
sg107
I13
sg108
I8
sg109
I8
sg110
I9
sg111
I9
sg112
I5
ssg113
(dp1428
g98
I12
sg99
I11
sg100
I9
sg101
I11
sg106
I10
sg103
I9
sg104
I9
sg105
I11
sg102
I13
sg107
I13
sg108
I8
sg109
I8
sg110
I9
sg111
I9
sg112
I5
ssg115
(dp1429
g117
(ijoueur
joueur
p1430
(dp1431
g27
F8.823529411764707
sg28
I0
sg30
g31
sg32
I0
sg34
I0
sg35
g36
(g37
g38
Ntp1432
Rp1433
(dp1434
g42
I5
sg43
S'**'
p1435
sg45
g124
sbsg47
(dp1436
g126
I8
sg127
I3
sg128
I9
sg129
I0
ssg53
(dp1437
g126
I0
sg127
I0
sg128
I0
sg129
I0
ssg56
g31
sg131
F10.823529411764707
sg57
I0
sg60
I3
sg61
I0
sg62
I0
sg63
(g132
S'DL'
p1438
S'PI'
p1439
g31
tp1440
sg68
I00
sg69
g36
(g37
g38
Ntp1441
Rp1442
(dp1443
g42
I4
sg43
S'x'
p1444
sg45
S'heros'
p1445
sbsg74
(dp1446
g141
I0
sg142
I0
sg143
I1
sg144
I13
ssg59
I00
sg82
(dp1447
g141
I0
sg142
I0
sg143
I0
sg144
I0
ssg84
(dp1448
g126
I0
sg127
I13
sg128
I5
sg129
I0
ssg86
I0
sg87
I0
sg88
S'Jenhair (12)'
p1449
sg90
I11
sg91
I0
sg92
I27
sg93
I142
sg94
g148
sg96
(dp1450
g150
I12
sg151
I11
sg152
I8
sg153
I11
sg154
I8
sg155
I9
sg156
I5
sg157
I10
sg158
I14
sg159
I13
sg160
I9
sg161
I8
sg162
I7
sg163
I10
sg164
I5
ssg113
g1450
sg115
(dp1451
g166
(ijoueur
joueur
p1452
(dp1453
g28
I0
sg32
I0
sg34
I0
sg35
g36
(g37
g38
Ntp1454
Rp1455
(dp1456
g42
I5
sg43
S'**'
p1457
sg45
S'seigneur'
p1458
sbsg47
(dp1459
S'SR'
p1460
I1
sS'ST'
p1461
I0
sS'CR'
p1462
I9
sS'CT'
p1463
I3
ssg53
(dp1464
g1460
I0
sg1461
I0
sg1462
I0
sg1463
I0
ssg56
g31
sg57
I0
sg59
I00
sg60
I0
sg61
I0
sg62
I0
sg63
(S'dummy'
p1465
S'DL'
p1466
S'PI'
p1467
g31
tp1468
sg68
I00
sg69
g36
(g37
g38
Ntp1469
Rp1470
(dp1471
g42
I1
sg43
S'^'
p1472
sg45
S'base'
p1473
sbsg74
(dp1474
g1460
I0
sg1461
I0
sg1462
I4
sg1463
I0
ssg80
(dp1475
g1460
I1
sg1461
I0
sg1462
I9
sg1463
I3
ssg82
(dp1476
g1460
I0
sg1461
I0
sg1462
I0
sg1463
I0
ssg84
(dp1477
g1460
I0
sg1461
I0
sg1462
I4
sg1463
I0
ssg86
I0
sg87
I0
sg88
S'Jenhair'
p1478
sg90
I11
sg91
I0
sg92
I27
sg93
I42
sg94
S'AL'
p1479
sg96
(dp1480
S'A'
p1481
I8
sS'ME'
p1482
I10
sS'RP2'
p1483
I6
sS'E'
p1484
I10
sS'TO'
p1485
I11
sS'RP1'
p1486
I8
sS'JP'
p1487
I3
sS'RP_tot'
p1488
I8
sS'P'
p1489
I5
sS'PA'
p1490
I9
sS'M'
p1491
I9
sS'R'
p1492
I7
sS'TB'
p1493
I5
sS'PL'
p1494
I7
sS'TA'
p1495
I5
ssg113
g1480
sg210
I0
sg211
I0
sg212
I0
sg213
I0
sg131
F8.823529411764707
sg214
I0
sg215
(lp1496
S'EV'
p1497
asg218
I0
sg219
I0
sg220
(dp1498
S'A'
p1499
I8
sS'ME'
p1500
I10
sS'RP2'
p1501
I6
sS'E'
p1502
I10
sS'TO'
p1503
I11
sS'RP1'
p1504
I8
sS'JP'
p1505
I3
sS'RP_tot'
p1506
I8
sS'P'
p1507
I5
sS'PA'
p1508
I9
sS'M'
p1509
I9
sS'R'
p1510
I7
sS'TB'
p1511
I5
sS'PL'
p1512
I7
sS'TA'
p1513
I5
ssg237
(lp1514
sg239
I0
sg240
I0
sg241
I0
sg242
I0
sg243
I3
sg244
I0
sg245
I0
sg246
S'ES'
p1515
sbssg210
I3
sg211
I0
sg212
I1
sg213
I0
sg80
(dp1516
g141
I7
sg142
I0
sg143
I0
sg144
I0
ssg214
I0
sg215
(lp1517
g250
asg218
I1
sg219
I2
sg220
(dp1518
g252
I8
sg253
I10
sg254
I6
sg255
I10
sg256
I5
sg257
I8
sg258
I3
sg259
I8
sg260
I11
sg261
I9
sg262
I9
sg263
I7
sg264
I5
sg265
I7
sg266
I5
ssg237
(lp1519
sg239
I0
sg240
I0
sg241
I0
sg242
I0
sg243
I12
sg244
I3
sg245
I2
sg246
S'ES'
p1520
sbsg269
(ijoueur
joueur
p1521
(dp1522
g28
I0
sg32
I0
sg34
I0
sg35
g36
(g37
g38
Ntp1523
Rp1524
(dp1525
g42
I5
sg43
S'**'
p1526
sg45
S'seigneur'
p1527
sbsg47
(dp1528
S'SR'
p1529
I1
sS'ST'
p1530
I0
sS'CR'
p1531
I9
sS'CT'
p1532
I3
ssg53
(dp1533
g1529
I0
sg1530
I0
sg1531
I0
sg1532
I0
ssg56
g31
sg57
I0
sg59
I00
sg60
I0
sg61
I0
sg62
I0
sg63
(S'dummy'
p1534
S'DL'
p1535
S'PI'
p1536
g31
tp1537
sg68
I00
sg69
g36
(g37
g38
Ntp1538
Rp1539
(dp1540
g42
I1
sg43
S'^'
p1541
sg45
S'base'
p1542
sbsg74
(dp1543
g1529
I0
sg1530
I0
sg1531
I4
sg1532
I0
ssg80
(dp1544
g1529
I1
sg1530
I0
sg1531
I9
sg1532
I3
ssg82
(dp1545
g1529
I0
sg1530
I0
sg1531
I0
sg1532
I0
ssg84
(dp1546
g1529
I0
sg1530
I0
sg1531
I4
sg1532
I0
ssg86
I0
sg87
I0
sg88
S'Jenhair (11)'
p1547
sg90
I11
sg91
I0
sg92
I27
sg93
I42
sg94
S'AL'
p1548
sg96
(dp1549
S'A'
p1550
I8
sS'ME'
p1551
I10
sS'RP2'
p1552
I6
sS'E'
p1553
I10
sS'TO'
p1554
I11
sS'RP1'
p1555
I8
sS'JP'
p1556
I3
sS'RP_tot'
p1557
I8
sS'P'
p1558
I5
sS'PA'
p1559
I9
sS'M'
p1560
I9
sS'R'
p1561
I7
sS'TB'
p1562
I5
sS'PL'
p1563
I7
sS'TA'
p1564
I5
ssg113
g1549
sg210
I0
sg211
I0
sg212
I0
sg213
I0
sg131
F8.823529411764707
sg214
I0
sg215
(lp1565
S'EV'
p1566
asg218
I0
sg219
I0
sg220
(dp1567
S'A'
p1568
I8
sS'ME'
p1569
I10
sS'RP2'
p1570
I6
sS'E'
p1571
I10
sS'TO'
p1572
I11
sS'RP1'
p1573
I8
sS'JP'
p1574
I3
sS'RP_tot'
p1575
I8
sS'P'
p1576
I5
sS'PA'
p1577
I9
sS'M'
p1578
I9
sS'R'
p1579
I7
sS'TB'
p1580
I5
sS'PL'
p1581
I7
sS'TA'
p1582
I5
ssg237
(lp1583
sg239
I0
sg240
I0
sg241
I0
sg242
I0
sg243
I3
sg244
I0
sg245
I0
sg246
S'ES'
p1584
sbssg210
I1
sg211
I0
sg212
I1
sg213
I0
sg131
F10.588235294117647
sg214
I0
sg215
(lp1585
g334
asg218
I0
sg219
I2
sg220
(dp1586
g336
I8
sg337
I10
sg338
I6
sg339
I10
sg340
I5
sg341
I8
sg342
I3
sg343
I8
sg344
I11
sg345
I9
sg346
I9
sg347
I7
sg348
I5
sg349
I7
sg350
I5
ssg237
(lp1587
sg239
I0
sg352
(dp1588
sg240
I0
sg241
I0
sg242
I0
sg243
I14
sg244
I3
sg245
I0
sg246
S'ES'
p1589
sbsS'drop1'
p1590
(ijoueur
joueur
p1591
(dp1592
g27
F10.909090909090908
sg28
I0
sg29
F11.06060606060606
sg30
g31
sg32
I5
sg33
F53.03808272194353
sg34
I0
sg35
g36
(g37
g38
Ntp1593
Rp1594
(dp1595
g42
I5
sg43
S'xx'
p1596
sg45
S'seigneur'
p1597
sbsg47
(dp1598
g364
I0
sg365
I0
sg366
I0
sg367
I0
ssg53
(dp1599
g364
I0
sg365
I0
sg366
I0
sg367
I0
ssg55
I0
sg56
S'TO 8;FS 10'
p1600
sg57
I0
sg58
F53.03808272194353
sg59
I00
sg60
I0
sg61
I0
sg62
I0
sg63
(g369
S'AR'
p1601
S'DO'
p1602
g31
tp1603
sg68
I00
sg69
g36
(g37
g38
Ntp1604
Rp1605
(dp1606
g42
I5
sg43
S'xx'
p1607
sg45
g1597
sbsg74
(dp1608
g377
I0
sg378
I0
sg379
I0
sg380
I5
ssg80
(dp1609
g377
I0
sg378
I0
sg379
I0
sg380
I0
ssg82
(dp1610
g377
I0
sg378
I0
sg379
I0
sg380
I0
ssg84
(dp1611
g364
I0
sg365
I11
sg366
I0
sg367
I33
ssg86
I3
sg87
I0
sg88
S'Aadeel'
p1612
sg90
I2
sg91
I6
sg92
I13
sg93
I754
sg94
g385
sg96
(dp1613
g387
I10
sg388
I4
sg389
I10
sg390
I9
sg391
I8
sg392
I13
sg393
I11
sg394
I14
sg395
I4
sg396
I6
sg397
I7
sg398
I10
sg399
I8
sg400
I13
sg401
I5
ssg113
(dp1614
g387
I11
sg388
I4
sg389
I10
sg390
I9
sg395
I4
sg392
I13
sg393
I11
sg394
I14
sg391
I8
sg396
I6
sg397
I7
sg398
I11
sg399
I8
sg400
I14
sg401
I5
ssg115
(dp1615
g404
(ijoueur
joueur
p1616
(dp1617
g27
F10.909090909090908
sg28
I0
sg30
g31
sg32
I4
sg34
I0
sg35
g36
(g37
g38
Ntp1618
Rp1619
(dp1620
g42
I5
sg43
S'xx'
p1621
sg45
S'seigneur'
p1622
sbsg47
(dp1623
g413
I0
sg414
I0
sg415
I0
sg416
I0
ssg53
(dp1624
g413
I0
sg414
I0
sg415
I0
sg416
I0
ssg56
S'TO 8;FS 10'
p1625
sg131
F11.06060606060606
sg57
I0
sg60
I5
sg61
I0
sg62
I0
sg63
(g418
S'AR'
p1626
S'DO'
p1627
g31
tp1628
sg68
I00
sg69
g36
(g37
g38
Ntp1629
Rp1630
(dp1631
g42
I5
sg43
S'xx'
p1632
sg45
g1622
sbsg74
(dp1633
g426
I0
sg427
I14
sg428
I0
sg429
I5
ssg59
I00
sg82
(dp1634
g426
I0
sg427
I0
sg428
I0
sg429
I0
ssg84
(dp1635
g413
I0
sg414
I11
sg415
I0
sg416
I28
ssg86
I3
sg87
I0
sg88
S'Aadeel'
p1636
sg90
I2
sg91
I6
sg92
I13
sg93
I754
sg94
g433
sg96
(dp1637
g435
I11
sg436
I4
sg437
I10
sg438
I9
sg439
I4
sg440
I13
sg441
I11
sg442
I16
sg443
I8
sg444
I6
sg445
I8
sg446
I11
sg447
I7
sg448
I14
sg449
I5
ssg113
g1637
sg115
(dp1638
g451
(ijoueur
joueur
p1639
(dp1640
g28
I0
sg32
I2
sg34
I0
sg35
g36
(g37
g38
Ntp1641
Rp1642
(dp1643
g42
I5
sg43
S'xx'
p1644
sg45
S'seigneur'
p1645
sbsg47
(dp1646
S'SR'
p1647
I0
sS'CT'
p1648
I0
sS'CR'
p1649
I0
sS'ST'
p1650
I0
ssg53
(dp1651
g1647
I0
sg1648
I0
sg1649
I0
sg1650
I0
ssg56
S'TO 8;FS 10'
p1652
sg57
I0
sg59
I00
sg60
I3
sg61
I0
sg62
I0
sg63
(S'dummy'
p1653
S'AR'
p1654
S'DO'
p1655
g31
tp1656
sg68
I00
sg69
g36
(g37
g38
Ntp1657
Rp1658
(dp1659
g42
I5
sg43
S'xx'
p1660
sg45
g1645
sbsg74
(dp1661
g1647
I0
sg1648
I14
sg1649
I0
sg1650
I6
ssg80
(dp1662
g1647
I0
sg1648
I0
sg1649
I0
sg1650
I0
ssg82
(dp1663
g1647
I0
sg1648
I0
sg1649
I0
sg1650
I0
ssg84
(dp1664
g1647
I0
sg1648
I14
sg1649
I0
sg1650
I6
ssg86
I3
sg87
I0
sg88
S'Aadeel'
p1665
sg90
I2
sg91
I6
sg92
I13
sg93
I754
sg94
S'AL'
p1666
sg96
(dp1667
S'A'
p1668
I10
sS'ME'
p1669
I4
sS'RP2'
p1670
I10
sS'E'
p1671
I10
sS'P'
p1672
I8
sS'RP1'
p1673
I13
sS'JP'
p1674
I10
sS'RP_tot'
p1675
I16
sS'TO'
p1676
I4
sS'PA'
p1677
I6
sS'M'
p1678
I8
sS'R'
p1679
I10
sS'TB'
p1680
I7
sS'PL'
p1681
I14
sS'TA'
p1682
I5
ssg113
g1667
sg210
I0
sg211
I0
sg212
I0
sg213
I0
sg131
F10.909090909090908
sg214
I0
sg215
(lp1683
S'EV'
p1684
asg218
I0
sg219
I0
sg220
(dp1685
S'A'
p1686
I10
sS'ME'
p1687
I4
sS'RP2'
p1688
I10
sS'E'
p1689
I10
sS'P'
p1690
I8
sS'RP1'
p1691
I13
sS'JP'
p1692
I10
sS'RP_tot'
p1693
I16
sS'TO'
p1694
I4
sS'PA'
p1695
I6
sS'M'
p1696
I8
sS'R'
p1697
I10
sS'TB'
p1698
I7
sS'PL'
p1699
I14
sS'TA'
p1700
I5
ssg237
(lp1701
sg239
I0
sg240
I0
sg241
I0
sg242
I0
sg243
I125
sg244
I22
sg245
I0
sg246
S'HL'
p1702
sbssg210
I3
sg211
I0
sg212
I0
sg213
I0
sg80
(dp1703
g426
I0
sg427
I0
sg428
I0
sg429
I0
ssg214
I0
sg215
(lp1704
g516
asg218
I0
sg219
I0
sg220
(dp1705
g518
I10
sg519
I4
sg520
I10
sg521
I10
sg522
I4
sg523
I13
sg524
I10
sg525
I16
sg526
I8
sg527
I6
sg528
I8
sg529
I10
sg530
I7
sg531
I14
sg532
I5
ssg237
(lp1706
sg239
I0
sg240
I0
sg241
I2
sg242
I0
sg243
I125
sg244
I27
sg245
I0
sg246
S'HL'
p1707
sbsg535
(ijoueur
joueur
p1708
(dp1709
g28
I0
sg32
I2
sg34
I0
sg35
g36
(g37
g38
Ntp1710
Rp1711
(dp1712
g42
I5
sg43
S'xx'
p1713
sg45
S'seigneur'
p1714
sbsg47
(dp1715
S'SR'
p1716
I0
sS'CT'
p1717
I0
sS'CR'
p1718
I0
sS'ST'
p1719
I0
ssg53
(dp1720
g1716
I0
sg1717
I0
sg1718
I0
sg1719
I0
ssg56
S'TO 8;FS 10'
p1721
sg57
I0
sg59
I00
sg60
I3
sg61
I0
sg62
I0
sg63
(S'dummy'
p1722
S'AR'
p1723
S'DO'
p1724
g31
tp1725
sg68
I00
sg69
g36
(g37
g38
Ntp1726
Rp1727
(dp1728
g42
I5
sg43
S'xx'
p1729
sg45
g1714
sbsg74
(dp1730
g1716
I0
sg1717
I14
sg1718
I0
sg1719
I6
ssg80
(dp1731
g1716
I0
sg1717
I0
sg1718
I0
sg1719
I0
ssg82
(dp1732
g1716
I0
sg1717
I0
sg1718
I0
sg1719
I0
ssg84
(dp1733
g1716
I0
sg1717
I14
sg1718
I0
sg1719
I6
ssg86
I3
sg87
I0
sg88
S'Aadeel'
p1734
sg90
I2
sg91
I6
sg92
I13
sg93
I754
sg94
S'AL'
p1735
sg96
(dp1736
S'A'
p1737
I10
sS'ME'
p1738
I4
sS'RP2'
p1739
I10
sS'E'
p1740
I10
sS'P'
p1741
I8
sS'RP1'
p1742
I13
sS'JP'
p1743
I10
sS'RP_tot'
p1744
I16
sS'TO'
p1745
I4
sS'PA'
p1746
I6
sS'M'
p1747
I8
sS'R'
p1748
I10
sS'TB'
p1749
I7
sS'PL'
p1750
I14
sS'TA'
p1751
I5
ssg113
g1736
sg210
I0
sg211
I0
sg212
I0
sg213
I0
sg131
F10.909090909090908
sg214
I0
sg215
(lp1752
S'EV'
p1753
asg218
I0
sg219
I0
sg220
(dp1754
S'A'
p1755
I10
sS'ME'
p1756
I4
sS'RP2'
p1757
I10
sS'E'
p1758
I10
sS'P'
p1759
I8
sS'RP1'
p1760
I13
sS'JP'
p1761
I10
sS'RP_tot'
p1762
I16
sS'TO'
p1763
I4
sS'PA'
p1764
I6
sS'M'
p1765
I8
sS'R'
p1766
I10
sS'TB'
p1767
I7
sS'PL'
p1768
I14
sS'TA'
p1769
I5
ssg237
(lp1770
sg239
I0
sg240
I0
sg241
I0
sg242
I0
sg243
I125
sg244
I22
sg245
I0
sg246
S'HL'
p1771
sbssg210
I9
sg211
I0
sg212
I0
sg213
I0
sg131
F10.636363636363637
sg214
I0
sg215
(lp1772
g599
asg218
I0
sg219
I0
sg220
(dp1773
g601
I10
sg602
I4
sg603
I10
sg604
I10
sg605
I4
sg606
I13
sg607
I10
sg608
I16
sg609
I8
sg610
I6
sg611
I8
sg612
I10
sg613
I7
sg614
I14
sg615
I5
ssg237
(lp1774
sg239
I0
sg352
(dp1775
sg240
I0
sg241
I1
sg242
I0
sg243
I125
sg244
I27
sg245
I0
sg246
S'HL'
p1776
sbsS'drop2'
p1777
g356
sS'SA_remp2'
p1778
(ijoueur
joueur
p1779
(dp1780
g27
F9.088235294117647
sg28
I0
sg29
F9.941176470588236
sg30
g31
sg32
I0
sg33
F10.17972143444891
sg34
I0
sg35
g36
(g37
g38
Ntp1781
Rp1782
(dp1783
g42
I2
sg43
S'^^'
p1784
sg45
S'special'
p1785
sbsg47
(dp1786
S'SR'
p1787
I0
sS'CT'
p1788
I0
sS'CR'
p1789
I0
sS'ST'
p1790
I0
ssg53
(dp1791
g1787
I0
sg1788
I0
sg1789
I0
sg1790
I0
ssg55
I0
sS'drop_rates_total'
p1792
I0
sg57
I0
sg58
F10.17972143444891
sg59
I00
sg60
I0
sg61
I0
sg62
I0
sg63
(S'dummy'
p1793
S'DL'
p1794
S'TL'
p1795
g31
tp1796
sg68
I00
sg69
g36
(g37
g38
Ntp1797
Rp1798
(dp1799
g42
I2
sg43
S'^^'
p1800
sg45
g1785
sbsg74
(dp1801
g76
I0
sg77
I0
sg78
I1
sg79
I0
ssg80
(dp1802
g76
I0
sg77
I0
sg78
I0
sg79
I0
ssg82
(dp1803
g76
I0
sg77
I0
sg78
I0
sg79
I0
ssg84
(dp1804
g1787
I7
sg1788
I26
sg1789
I2
sg1790
I0
ssg86
I0
sg87
I0
sg88
S'Daef'
p1805
sg90
I9
sg91
I0
sg92
I20
sg93
I50
sg94
g95
sg96
(dp1806
S'A'
p1807
I11
sS'ME'
p1808
I8
sS'RP2'
p1809
I6
sS'E'
p1810
I10
sS'TO'
p1811
I13
sS'RP1'
p1812
I8
sS'JP'
p1813
I4
sS'RP_tot'
p1814
I8
sS'P'
p1815
I5
sS'PA'
p1816
I9
sS'M'
p1817
I8
sS'R'
p1818
I10
sS'TB'
p1819
I4
sS'PL'
p1820
I8
sS'TA'
p1821
I6
ssg115
(dp1822
g117
(ijoueur
joueur
p1823
(dp1824
g27
F9.088235294117647
sg28
I0
sg30
g31
sg32
I0
sg34
I0
sg35
g36
(g37
g38
Ntp1825
Rp1826
(dp1827
g42
I2
sg43
S'^^'
p1828
sg45
S'special'
p1829
sbsg47
(dp1830
S'SR'
p1831
I0
sS'CT'
p1832
I0
sS'CR'
p1833
I0
sS'ST'
p1834
I0
ssg53
(dp1835
g1831
I0
sg1832
I0
sg1833
I0
sg1834
I0
ssg1792
I0
sg131
F9.941176470588236
sg57
I0
sg60
I0
sg61
I0
sg62
I0
sg63
(S'dummy'
p1836
S'DL'
p1837
S'TL'
p1838
g31
tp1839
sg68
I01
sg69
g36
(g37
g38
Ntp1840
Rp1841
(dp1842
g42
I2
sg43
S'^^'
p1843
sg45
g1829
sbsg74
(dp1844
S'SR'
p1845
I7
sS'CT'
p1846
I11
sS'CR'
p1847
I1
sS'ST'
p1848
I0
ssg59
I01
sg82
(dp1849
g1845
I0
sg1846
I0
sg1847
I0
sg1848
I0
ssg84
(dp1850
g1831
I7
sg1832
I26
sg1833
I1
sg1834
I0
ssg86
I0
sg87
I0
sg88
S'Daef (12)'
p1851
sg90
I9
sg91
I0
sg92
I20
sg93
I19
sg94
S'APA'
p1852
sg96
(dp1853
S'A'
p1854
I12
sS'ME'
p1855
I8
sS'RP2'
p1856
I6
sS'E'
p1857
I10
sS'P'
p1858
I5
sS'RP1'
p1859
I8
sS'JP'
p1860
I4
sS'RP_tot'
p1861
I8
sS'TO'
p1862
I13
sS'PA'
p1863
I9
sS'M'
p1864
I8
sS'R'
p1865
I10
sS'TB'
p1866
I4
sS'PL'
p1867
I8
sS'TA'
p1868
I6
ssg115
(dp1869
S's11'
p1870
(ijoueur
joueur
p1871
(dp1872
g28
I0
sg32
I0
sg34
I0
sg35
g36
(g37
g38
Ntp1873
Rp1874
(dp1875
g42
I2
sg43
S'^^'
p1876
sg45
S'special'
p1877
sbsg47
(dp1878
S'SR'
p1879
I0
sS'CT'
p1880
I0
sS'CR'
p1881
I0
sS'ST'
p1882
I0
ssg53
(dp1883
g1879
I0
sg1880
I0
sg1881
I0
sg1882
I0
ssg1792
I0
sg57
I0
sg59
I01
sg60
I1
sg61
I0
sg62
I0
sg63
(S'dummy'
p1884
S'DL'
p1885
S'TL'
p1886
g31
tp1887
sg68
I00
sg69
g36
(g37
g38
Ntp1888
Rp1889
(dp1890
g42
I2
sg43
S'^^'
p1891
sg45
g1877
sbsg74
(dp1892
g1879
I0
sg1880
I15
sg1881
I0
sg1882
I0
ssg80
(dp1893
g1879
I0
sg1880
I0
sg1881
I0
sg1882
I0
ssg82
(dp1894
g1879
I0
sg1880
I0
sg1881
I0
sg1882
I0
ssg84
(dp1895
g1879
I0
sg1880
I15
sg1881
I0
sg1882
I0
ssg86
I0
sg87
I0
sg88
S'Daef'
p1896
sg90
I9
sg91
I0
sg92
I20
sg93
I19
sg94
S'APA'
p1897
sg96
(dp1898
S'A'
p1899
I12
sS'ME'
p1900
I7
sS'RP2'
p1901
I6
sS'E'
p1902
I10
sS'P'
p1903
I5
sS'RP1'
p1904
I7
sS'JP'
p1905
I4
sS'RP_tot'
p1906
I7
sS'TO'
p1907
I13
sS'PA'
p1908
I9
sS'M'
p1909
I8
sS'R'
p1910
I7
sS'TB'
p1911
I4
sS'PL'
p1912
I8
sS'TA'
p1913
I6
ssg210
I0
sg211
I0
sg212
I0
sg213
I0
sg131
F9.088235294117647
sg214
I0
sg218
I0
sg219
I1
sg220
(dp1914
S'A'
p1915
I12
sS'ME'
p1916
I7
sS'RP2'
p1917
I6
sS'E'
p1918
I10
sS'P'
p1919
I5
sS'RP1'
p1920
I7
sS'JP'
p1921
I4
sS'RP_tot'
p1922
I7
sS'TO'
p1923
I13
sS'PA'
p1924
I9
sS'M'
p1925
I8
sS'R'
p1926
I7
sS'TB'
p1927
I4
sS'PL'
p1928
I8
sS'TA'
p1929
I6
ssg113
g1898
sg239
I0
sg56
g31
sg240
I0
sg241
I0
sg242
I0
sg243
I2
sg244
I1
sg245
I1
sg246
S'HE'
p1930
sbssg210
I4
sg211
I0
sg212
I0
sg213
I0
sg80
(dp1931
g1845
I0
sg1846
I0
sg1847
I0
sg1848
I0
ssg214
I0
sg218
I0
sg219
I2
sg220
(dp1932
S'A'
p1933
I12
sS'ME'
p1934
I7
sS'RP2'
p1935
I6
sS'E'
p1936
I10
sS'TO'
p1937
I13
sS'RP1'
p1938
I7
sS'JP'
p1939
I4
sS'RP_tot'
p1940
I7
sS'P'
p1941
I5
sS'PA'
p1942
I9
sS'M'
p1943
I8
sS'R'
p1944
I7
sS'TB'
p1945
I4
sS'PL'
p1946
I8
sS'TA'
p1947
I6
ssg113
g1853
sg239
I0
sg56
g31
sg240
I0
sg241
I0
sg242
I0
sg243
I2
sg244
I1
sg245
I1
sg246
S'HE'
p1948
sbsS's11'
p1949
(ijoueur
joueur
p1950
(dp1951
g28
I0
sg32
I0
sg34
I0
sg35
g36
(g37
g38
Ntp1952
Rp1953
(dp1954
g42
I2
sg43
S'^^'
p1955
sg45
S'special'
p1956
sbsg47
(dp1957
S'SR'
p1958
I0
sS'CT'
p1959
I0
sS'CR'
p1960
I0
sS'ST'
p1961
I0
ssg53
(dp1962
g1958
I0
sg1959
I0
sg1960
I0
sg1961
I0
ssg1792
I0
sg57
I0
sg59
I01
sg60
I1
sg61
I0
sg62
I0
sg63
(S'dummy'
p1963
S'DL'
p1964
S'TL'
p1965
g31
tp1966
sg68
I00
sg69
g36
(g37
g38
Ntp1967
Rp1968
(dp1969
g42
I2
sg43
S'^^'
p1970
sg45
g1956
sbsg74
(dp1971
g1958
I0
sg1959
I15
sg1960
I0
sg1961
I0
ssg80
(dp1972
g1958
I0
sg1959
I0
sg1960
I0
sg1961
I0
ssg82
(dp1973
g1958
I0
sg1959
I0
sg1960
I0
sg1961
I0
ssg84
(dp1974
g1958
I0
sg1959
I15
sg1960
I0
sg1961
I0
ssg86
I0
sg87
I0
sg88
S'Daef (11)'
p1975
sg90
I9
sg91
I0
sg92
I20
sg93
I19
sg94
S'APA'
p1976
sg96
(dp1977
S'A'
p1978
I12
sS'ME'
p1979
I7
sS'RP2'
p1980
I6
sS'E'
p1981
I10
sS'P'
p1982
I5
sS'RP1'
p1983
I7
sS'JP'
p1984
I4
sS'RP_tot'
p1985
I7
sS'TO'
p1986
I13
sS'PA'
p1987
I9
sS'M'
p1988
I8
sS'R'
p1989
I7
sS'TB'
p1990
I4
sS'PL'
p1991
I8
sS'TA'
p1992
I6
ssg210
I0
sg211
I0
sg212
I0
sg213
I0
sg131
F9.088235294117647
sg214
I0
sg218
I0
sg219
I1
sg220
(dp1993
S'A'
p1994
I12
sS'ME'
p1995
I7
sS'RP2'
p1996
I6
sS'E'
p1997
I10
sS'P'
p1998
I5
sS'RP1'
p1999
I7
sS'JP'
p2000
I4
sS'RP_tot'
p2001
I7
sS'TO'
p2002
I13
sS'PA'
p2003
I9
sS'M'
p2004
I8
sS'R'
p2005
I7
sS'TB'
p2006
I4
sS'PL'
p2007
I8
sS'TA'
p2008
I6
ssg113
g1977
sg239
I0
sg56
g31
sg240
I0
sg241
I0
sg242
I0
sg243
I2
sg244
I1
sg245
I1
sg246
S'HE'
p2009
sbssg210
I0
sg211
I0
sg212
I0
sg213
I0
sg131
F9.882352941176471
sg214
I0
sg218
I0
sg219
I2
sg220
(dp2010
S'A'
p2011
I12
sS'ME'
p2012
I7
sS'RP2'
p2013
I6
sS'E'
p2014
I10
sS'TO'
p2015
I13
sS'RP1'
p2016
I7
sS'JP'
p2017
I4
sS'RP_tot'
p2018
I7
sS'P'
p2019
I5
sS'PA'
p2020
I9
sS'M'
p2021
I8
sS'R'
p2022
I7
sS'TB'
p2023
I4
sS'PL'
p2024
I8
sS'TA'
p2025
I6
ssg113
(dp2026
g1807
I11
sg1808
I8
sg1809
I6
sg1810
I10
sg1815
I5
sg1812
I8
sg1813
I4
sg1814
I8
sg1811
I13
sg1816
I9
sg1817
I8
sg1818
I10
sg1819
I4
sg1820
I8
sg1821
I6
ssg239
I0
sg352
(dp2027
sg240
I0
sg56
S'APA 13'
p2028
sg241
I0
sg242
I0
sg243
I6
sg244
I1
sg245
I0
sg246
S'HE'
p2029
sbssS'totaux'
p2030
(dp2031
g19
I0
sg20
I0
sg21
I0
ssS'_compo_defaut_fatigue'
p2032
Nsg96
(dp2033
g4
I0
sg5
I0
sg6
I0
sg7
I0
sg8
I0
sg9
I0
sg10
I0
sg11
I0
sg12
I0
sg13
I0
sg14
I0
sg15
I0
sg16
I0
ssS'joueurs'
p2034
(dp2035
S'n12'
p2036
(ijoueur
joueur
p2037
(dp2038
g27
F9.033333333333333
sg28
I0
sg29
F10.266666666666667
sg30
g31
sg32
I0
sg33
F53.03808272194353
sg34
I0
sg35
g36
(g37
g38
Ntp2039
Rp2040
(dp2041
g42
I2
sg43
S'<<'
p2042
sg45
S'special'
p2043
sbsg47
(dp2044
g364
I0
sg365
I0
sg366
I0
sg367
I0
ssg53
(dp2045
g364
I0
sg365
I0
sg366
I0
sg367
I0
ssg55
I0
sg56
g31
sg57
I0
sg58
F53.03808272194353
sg59
I00
sg60
I0
sg61
I0
sg62
I0
sg63
(g369
S'C1'
p2046
g31
g31
tp2047
sg68
I00
sg69
g36
(g37
g38
Ntp2048
Rp2049
(dp2050
g42
I3
sg43
S'^^^'
p2051
sg45
S'rare'
p2052
sbsg74
(dp2053
g377
I0
sg378
I0
sg379
I0
sg380
I5
ssg80
(dp2054
g377
I0
sg378
I0
sg379
I0
sg380
I0
ssg82
(dp2055
g377
I0
sg378
I0
sg379
I0
sg380
I0
ssg84
(dp2056
g364
I0
sg365
I0
sg366
I6
sg367
I21
ssg86
I1
sg87
I1
sg88
S'Tymeel'
p2057
sg90
I8
sg91
I0
sg92
I19
sg93
I8
sg94
g385
sg96
(dp2058
g387
I11
sg388
I3
sg389
I9
sg390
I10
sg391
I14
sg392
I9
sg393
I9
sg394
I11
sg395
I7
sg396
I12
sg397
I10
sg398
I4
sg399
I9
sg400
I9
sg401
I2
ssg113
(dp2059
g387
I12
sg388
I3
sg389
I9
sg390
I10
sg395
I7
sg392
I9
sg393
I9
sg394
I11
sg391
I14
sg396
I12
sg397
I10
sg398
I5
sg399
I9
sg400
I10
sg401
I2
ssg115
(dp2060
g404
(ijoueur
joueur
p2061
(dp2062
g27
F9.033333333333333
sg28
I0
sg30
g31
sg32
I0
sg34
I0
sg35
g36
(g37
g38
Ntp2063
Rp2064
(dp2065
g42
I2
sg43
S'<<'
p2066
sg45
S'special'
p2067
sbsg47
(dp2068
g413
I0
sg414
I0
sg415
I0
sg416
I0
ssg53
(dp2069
g413
I0
sg414
I0
sg415
I0
sg416
I0
ssg56
g31
sg131
F10.266666666666667
sg57
I0
sg60
I2
sg61
I0
sg62
I0
sg63
(g418
S'C1'
p2070
g31
g31
tp2071
sg68
I00
sg69
g36
(g37
g38
Ntp2072
Rp2073
(dp2074
g42
I3
sg43
S'^^^'
p2075
sg45
S'rare'
p2076
sbsg74
(dp2077
g426
I0
sg427
I15
sg428
I0
sg429
I0
ssg59
I01
sg82
(dp2078
g426
I0
sg427
I0
sg428
I0
sg429
I0
ssg84
(dp2079
g413
I0
sg414
I0
sg415
I6
sg416
I16
ssg86
I0
sg87
I0
sg88
S'Tymeel'
p2080
sg90
I8
sg91
I0
sg92
I19
sg93
I8
sg94
g433
sg96
(dp2081
g435
I12
sg436
I3
sg437
I9
sg438
I10
sg439
I7
sg440
I8
sg441
I9
sg442
I10
sg443
I12
sg444
I12
sg445
I10
sg446
I5
sg447
I8
sg448
I10
sg449
I2
ssg113
g2081
sg115
(dp2082
g451
(ijoueur
joueur
p2083
(dp2084
g28
I0
sg32
I0
sg34
I0
sg35
g36
(g37
g38
Ntp2085
Rp2086
(dp2087
g42
I2
sg43
S'<<'
p2088
sg45
S'special'
p2089
sbsg47
(dp2090
S'SR'
p2091
I0
sS'CT'
p2092
I0
sS'CR'
p2093
I0
sS'ST'
p2094
I0
ssg53
(dp2095
g2091
I0
sg2092
I0
sg2093
I0
sg2094
I0
ssg56
g31
sg57
I0
sg59
I01
sg60
I0
sg61
I0
sg62
I0
sg63
(S'dummy'
p2096
S'C1'
p2097
g31
g31
tp2098
sg68
I00
sg69
g36
(g37
g38
Ntp2099
Rp2100
(dp2101
g42
I3
sg43
S'^^^'
p2102
sg45
S'rare'
p2103
sbsg74
(dp2104
g2091
I0
sg2092
I1
sg2093
I6
sg2094
I0
ssg80
(dp2105
g2091
I0
sg2092
I0
sg2093
I0
sg2094
I0
ssg82
(dp2106
g2091
I0
sg2092
I0
sg2093
I0
sg2094
I0
ssg84
(dp2107
g2091
I0
sg2092
I1
sg2093
I6
sg2094
I0
ssg86
I0
sg87
I0
sg88
S'Tymeel'
p2108
sg90
I8
sg91
I0
sg92
I19
sg93
I8
sg94
S'AL'
p2109
sg96
(dp2110
S'A'
p2111
I10
sS'ME'
p2112
I3
sS'RP2'
p2113
I8
sS'E'
p2114
I9
sS'P'
p2115
I11
sS'RP1'
p2116
I6
sS'JP'
p2117
I9
sS'RP_tot'
p2118
I8
sS'TO'
p2119
I7
sS'PA'
p2120
I12
sS'M'
p2121
I10
sS'R'
p2122
I5
sS'TB'
p2123
I9
sS'PL'
p2124
I7
sS'TA'
p2125
I2
ssg113
g2110
sg210
I0
sg211
I0
sg212
I0
sg213
I0
sg131
F9.033333333333333
sg214
I0
sg215
(lp2126
S'EV'
p2127
asg218
I0
sg219
I1
sg220
(dp2128
S'A'
p2129
I10
sS'ME'
p2130
I3
sS'RP2'
p2131
I8
sS'E'
p2132
I9
sS'P'
p2133
I11
sS'RP1'
p2134
I6
sS'JP'
p2135
I9
sS'RP_tot'
p2136
I8
sS'TO'
p2137
I7
sS'PA'
p2138
I12
sS'M'
p2139
I10
sS'R'
p2140
I5
sS'TB'
p2141
I9
sS'PL'
p2142
I7
sS'TA'
p2143
I2
ssg237
(lp2144
sg239
I0
sg240
I0
sg241
I0
sg242
I0
sg243
I1
sg244
I1
sg245
I1
sg246
S'ES'
p2145
sbssg210
I14
sg211
I0
sg212
I0
sg213
I0
sg80
(dp2146
g426
I0
sg427
I0
sg428
I0
sg429
I0
ssg214
I0
sg215
(lp2147
g516
asg218
I0
sg219
I1
sg220
(dp2148
g518
I10
sg519
I3
sg520
I8
sg521
I9
sg522
I7
sg523
I6
sg524
I9
sg525
I8
sg526
I11
sg527
I12
sg528
I10
sg529
I5
sg530
I9
sg531
I7
sg532
I2
ssg237
(lp2149
sg239
I0
sg240
I0
sg241
I0
sg242
I0
sg243
I1
sg244
I3
sg245
I0
sg246
S'ES'
p2150
sbsg535
(ijoueur
joueur
p2151
(dp2152
g28
I0
sg32
I0
sg34
I0
sg35
g36
(g37
g38
Ntp2153
Rp2154
(dp2155
g42
I2
sg43
S'<<'
p2156
sg45
S'special'
p2157
sbsg47
(dp2158
S'SR'
p2159
I0
sS'CT'
p2160
I0
sS'CR'
p2161
I0
sS'ST'
p2162
I0
ssg53
(dp2163
g2159
I0
sg2160
I0
sg2161
I0
sg2162
I0
ssg56
g31
sg57
I0
sg59
I01
sg60
I0
sg61
I0
sg62
I0
sg63
(S'dummy'
p2164
S'C1'
p2165
g31
g31
tp2166
sg68
I00
sg69
g36
(g37
g38
Ntp2167
Rp2168
(dp2169
g42
I3
sg43
S'^^^'
p2170
sg45
S'rare'
p2171
sbsg74
(dp2172
g2159
I0
sg2160
I1
sg2161
I6
sg2162
I0
ssg80
(dp2173
g2159
I0
sg2160
I0
sg2161
I0
sg2162
I0
ssg82
(dp2174
g2159
I0
sg2160
I0
sg2161
I0
sg2162
I0
ssg84
(dp2175
g2159
I0
sg2160
I1
sg2161
I6
sg2162
I0
ssg86
I0
sg87
I0
sg88
S'Tymeel'
p2176
sg90
I8
sg91
I0
sg92
I19
sg93
I8
sg94
S'AL'
p2177
sg96
(dp2178
S'A'
p2179
I10
sS'ME'
p2180
I3
sS'RP2'
p2181
I8
sS'E'
p2182
I9
sS'P'
p2183
I11
sS'RP1'
p2184
I6
sS'JP'
p2185
I9
sS'RP_tot'
p2186
I8
sS'TO'
p2187
I7
sS'PA'
p2188
I12
sS'M'
p2189
I10
sS'R'
p2190
I5
sS'TB'
p2191
I9
sS'PL'
p2192
I7
sS'TA'
p2193
I2
ssg113
g2178
sg210
I0
sg211
I0
sg212
I0
sg213
I0
sg131
F9.033333333333333
sg214
I0
sg215
(lp2194
S'EV'
p2195
asg218
I0
sg219
I1
sg220
(dp2196
S'A'
p2197
I10
sS'ME'
p2198
I3
sS'RP2'
p2199
I8
sS'E'
p2200
I9
sS'P'
p2201
I11
sS'RP1'
p2202
I6
sS'JP'
p2203
I9
sS'RP_tot'
p2204
I8
sS'TO'
p2205
I7
sS'PA'
p2206
I12
sS'M'
p2207
I10
sS'R'
p2208
I5
sS'TB'
p2209
I9
sS'PL'
p2210
I7
sS'TA'
p2211
I2
ssg237
(lp2212
sg239
I0
sg240
I0
sg241
I0
sg242
I0
sg243
I1
sg244
I1
sg245
I1
sg246
S'ES'
p2213
sbssg210
I10
sg211
I0
sg212
I0
sg213
I0
sg131
F10.533333333333333
sg214
I0
sg215
(lp2214
g599
asg218
I0
sg219
I1
sg220
(dp2215
g601
I10
sg602
I3
sg603
I8
sg604
I9
sg605
I7
sg606
I6
sg607
I9
sg608
I8
sg609
I11
sg610
I12
sg611
I10
sg612
I5
sg613
I9
sg614
I7
sg615
I2
ssg237
(lp2216
sg239
I0
sg352
(dp2217
sg240
I0
sg241
I0
sg242
I0
sg243
I1
sg244
I3
sg245
I0
sg246
S'ES'
p2218
sbsS'n13'
p2219
(ijoueur
joueur
p2220
(dp2221
g27
F9.533333333333333
sg28
I0
sg29
F9.59375
sg30
g31
sg32
I0
sg33
F53.03808272194353
sg34
I0
sg35
g36
(g37
g38
Ntp2222
Rp2223
(dp2224
g42
I2
sg43
S'^^'
p2225
sg45
S'special'
p2226
sbsg47
(dp2227
S'SR'
p2228
I0
sS'ST'
p2229
I0
sS'CR'
p2230
I8
sS'CT'
p2231
I6
ssg53
(dp2232
g2228
I0
sg2229
I0
sg2230
I0
sg2231
I0
ssg55
I0
sg56
S'FS 11'
p2233
sg131
F10.0625
sg57
I0
sg58
F53.03808272194353
sg60
I0
sg61
I0
sg62
I0
sg63
(S'dummy'
p2234
S'C1'
p2235
S'AI'
p2236
g31
tp2237
sg68
I00
sg69
g36
(g37
g38
Ntp2238
Rp2239
(dp2240
g42
I2
sg43
S'^^'
p2241
sg45
g2226
sbsg74
(dp2242
S'SR'
p2243
I0
sS'ST'
p2244
I0
sS'CR'
p2245
I4
sS'CT'
p2246
I0
ssg59
I00
sg82
(dp2247
g2243
I0
sg2244
I0
sg2245
I0
sg2246
I0
ssg84
(dp2248
g2228
I0
sg2229
I0
sg2230
I14
sg2231
I7
ssg86
I0
sg87
I0
sg88
S'Nanael'
p2249
sg90
I8
sg91
I0
sg92
I18
sg93
I77
sg94
S'AL'
p2250
sg96
(dp2251
S'A'
p2252
I11
sS'ME'
p2253
I4
sS'RP2'
p2254
I8
sS'E'
p2255
I11
sS'P'
p2256
I8
sS'RP1'
p2257
I9
sS'JP'
p2258
I10
sS'RP_tot'
p2259
I10
sS'TO'
p2260
I8
sS'PA'
p2261
I9
sS'M'
p2262
I11
sS'R'
p2263
I6
sS'TB'
p2264
I11
sS'PL'
p2265
I11
sS'TA'
p2266
I3
ssg113
(dp2267
g2252
I11
sg2253
I4
sg2254
I8
sg2255
I11
sg2260
I8
sg2257
I9
sg2258
I10
sg2259
I10
sg2256
I8
sg2261
I9
sg2262
I11
sg2263
I6
sg2264
I11
sg2265
I11
sg2266
I3
ssg115
(dp2268
S's12'
p2269
(ijoueur
joueur
p2270
(dp2271
g27
F9.533333333333333
sg28
I0
sg30
g31
sg32
I0
sg34
I0
sg35
g36
(g37
g38
Ntp2272
Rp2273
(dp2274
g42
I2
sg43
S'^^'
p2275
sg45
S'special'
p2276
sbsg47
(dp2277
S'SR'
p2278
I0
sS'ST'
p2279
I0
sS'CR'
p2280
I8
sS'CT'
p2281
I5
ssg53
(dp2282
g2278
I0
sg2279
I0
sg2280
I0
sg2281
I0
ssg80
(dp2283
S'SR'
p2284
I0
sS'CT'
p2285
I2
sS'CR'
p2286
I0
sS'ST'
p2287
I0
ssg56
S'FS 11'
p2288
sg57
I0
sg60
I0
sg61
I0
sg62
I0
sg63
(S'dummy'
p2289
S'C1'
p2290
S'AI'
p2291
g31
tp2292
sg68
I00
sg69
g36
(g37
g38
Ntp2293
Rp2294
(dp2295
g42
I2
sg43
S'^^'
p2296
sg45
g2276
sbsg74
(dp2297
g2284
I0
sg2285
I5
sg2286
I8
sg2287
I0
ssg59
I00
sg82
(dp2298
g2284
I0
sg2285
I0
sg2286
I0
sg2287
I0
ssg84
(dp2299
g2278
I0
sg2279
I0
sg2280
I10
sg2281
I7
ssg86
I0
sg87
I0
sg88
S'Nanael (12)'
p2300
sg90
I8
sg91
I0
sg92
I18
sg93
I77
sg94
S'AL'
p2301
sg96
(dp2302
S'A'
p2303
I11
sS'ME'
p2304
I4
sS'RP2'
p2305
I8
sS'E'
p2306
I11
sS'TO'
p2307
I8
sS'RP1'
p2308
I8
sS'JP'
p2309
I8
sS'RP_tot'
p2310
I10
sS'P'
p2311
I8
sS'PA'
p2312
I9
sS'M'
p2313
I11
sS'R'
p2314
I6
sS'TB'
p2315
I10
sS'PL'
p2316
I10
sS'TA'
p2317
I3
ssg113
g2302
sg115
(dp2318
S's11'
p2319
(ijoueur
joueur
p2320
(dp2321
g28
I0
sg32
I0
sg34
I0
sg35
g36
(g37
g38
Ntp2322
Rp2323
(dp2324
g42
I2
sg43
S'^^'
p2325
sg45
S'special'
p2326
sbsg47
(dp2327
S'SR'
p2328
I0
sS'CT'
p2329
I3
sS'CR'
p2330
I8
sS'ST'
p2331
I0
ssg53
(dp2332
g2328
I0
sg2329
I0
sg2330
I0
sg2331
I0
ssg56
S'FS 11'
p2333
sg57
I0
sg59
I00
sg60
I1
sg61
I0
sg62
I0
sg63
(S'dummy'
p2334
S'C1'
p2335
S'AI'
p2336
g31
tp2337
sg68
I00
sg69
g36
(g37
g38
Ntp2338
Rp2339
(dp2340
g42
I2
sg43
S'^^'
p2341
sg45
g2326
sbsg74
(dp2342
g2328
I0
sg2329
I2
sg2330
I2
sg2331
I0
ssg80
(dp2343
g2328
I0
sg2329
I3
sg2330
I8
sg2331
I0
ssg82
(dp2344
g2328
I0
sg2329
I0
sg2330
I0
sg2331
I0
ssg84
(dp2345
g2328
I0
sg2329
I2
sg2330
I2
sg2331
I0
ssg86
I0
sg87
I0
sg88
S'Nanael'
p2346
sg90
I8
sg91
I0
sg92
I18
sg93
I77
sg94
S'AL'
p2347
sg96
(dp2348
S'A'
p2349
I11
sS'ME'
p2350
I4
sS'RP2'
p2351
I8
sS'E'
p2352
I10
sS'P'
p2353
I9
sS'RP1'
p2354
I8
sS'JP'
p2355
I8
sS'RP_tot'
p2356
I9
sS'TO'
p2357
I8
sS'PA'
p2358
I10
sS'M'
p2359
I10
sS'R'
p2360
I6
sS'TB'
p2361
I9
sS'PL'
p2362
I10
sS'TA'
p2363
I3
ssg113
g2348
sg210
I0
sg211
I0
sg212
I0
sg213
I0
sg131
F9.533333333333333
sg214
I0
sg215
(lp2364
S'EV'
p2365
asg218
I0
sg219
I0
sg220
(dp2366
S'A'
p2367
I11
sS'ME'
p2368
I4
sS'RP2'
p2369
I8
sS'E'
p2370
I10
sS'P'
p2371
I9
sS'RP1'
p2372
I8
sS'JP'
p2373
I8
sS'RP_tot'
p2374
I9
sS'TO'
p2375
I8
sS'PA'
p2376
I10
sS'M'
p2377
I10
sS'R'
p2378
I6
sS'TB'
p2379
I9
sS'PL'
p2380
I10
sS'TA'
p2381
I3
ssg237
(lp2382
sg239
I0
sg240
I0
sg241
I0
sg242
I0
sg243
I5
sg244
I2
sg245
I0
sg246
S'ES'
p2383
sbssg210
I6
sg211
I0
sg212
I0
sg213
I0
sg131
F9.59375
sg214
I0
sg215
(lp2384
S'EV'
p2385
asg218
I0
sg219
I0
sg220
(dp2386
S'A'
p2387
I11
sS'ME'
p2388
I4
sS'RP2'
p2389
I8
sS'E'
p2390
I10
sS'TO'
p2391
I8
sS'RP1'
p2392
I8
sS'JP'
p2393
I8
sS'RP_tot'
p2394
I9
sS'P'
p2395
I9
sS'PA'
p2396
I10
sS'M'
p2397
I10
sS'R'
p2398
I6
sS'TB'
p2399
I9
sS'PL'
p2400
I10
sS'TA'
p2401
I3
ssg237
(lp2402
sg239
I0
sg240
I0
sg241
I0
sg242
I0
sg243
I5
sg244
I2
sg245
I0
sg246
S'ES'
p2403
sbsS's11'
p2404
(ijoueur
joueur
p2405
(dp2406
g28
I0
sg32
I0
sg34
I0
sg35
g36
(g37
g38
Ntp2407
Rp2408
(dp2409
g42
I2
sg43
S'^^'
p2410
sg45
S'special'
p2411
sbsg47
(dp2412
S'SR'
p2413
I0
sS'CT'
p2414
I3
sS'CR'
p2415
I8
sS'ST'
p2416
I0
ssg53
(dp2417
g2413
I0
sg2414
I0
sg2415
I0
sg2416
I0
ssg56
S'FS 11'
p2418
sg57
I0
sg59
I00
sg60
I1
sg61
I0
sg62
I0
sg63
(S'dummy'
p2419
S'C1'
p2420
S'AI'
p2421
g31
tp2422
sg68
I00
sg69
g36
(g37
g38
Ntp2423
Rp2424
(dp2425
g42
I2
sg43
S'^^'
p2426
sg45
g2411
sbsg74
(dp2427
g2413
I0
sg2414
I2
sg2415
I2
sg2416
I0
ssg80
(dp2428
g2413
I0
sg2414
I3
sg2415
I8
sg2416
I0
ssg82
(dp2429
g2413
I0
sg2414
I0
sg2415
I0
sg2416
I0
ssg84
(dp2430
g2413
I0
sg2414
I2
sg2415
I2
sg2416
I0
ssg86
I0
sg87
I0
sg88
S'Nanael (11)'
p2431
sg90
I8
sg91
I0
sg92
I18
sg93
I77
sg94
S'AL'
p2432
sg96
(dp2433
S'A'
p2434
I11
sS'ME'
p2435
I4
sS'RP2'
p2436
I8
sS'E'
p2437
I10
sS'P'
p2438
I9
sS'RP1'
p2439
I8
sS'JP'
p2440
I8
sS'RP_tot'
p2441
I10
sS'TO'
p2442
I8
sS'PA'
p2443
I10
sS'M'
p2444
I10
sS'R'
p2445
I6
sS'TB'
p2446
I9
sS'PL'
p2447
I10
sS'TA'
p2448
I3
ssg113
g2433
sg210
I0
sg211
I0
sg212
I0
sg213
I0
sg131
F9.533333333333333
sg214
I0
sg215
(lp2449
S'EV'
p2450
asg218
I0
sg219
I0
sg220
(dp2451
S'A'
p2452
I11
sS'ME'
p2453
I4
sS'RP2'
p2454
I8
sS'E'
p2455
I10
sS'P'
p2456
I9
sS'RP1'
p2457
I8
sS'JP'
p2458
I8
sS'RP_tot'
p2459
I9
sS'TO'
p2460
I8
sS'PA'
p2461
I10
sS'M'
p2462
I10
sS'R'
p2463
I6
sS'TB'
p2464
I9
sS'PL'
p2465
I10
sS'TA'
p2466
I3
ssg237
(lp2467
sg239
I0
sg240
I0
sg241
I0
sg242
I0
sg243
I5
sg244
I2
sg245
I0
sg246
S'ES'
p2468
sbssg210
I5
sg211
I0
sg212
I0
sg213
I0
sg80
(dp2469
g2243
I0
sg2244
I0
sg2245
I0
sg2246
I1
ssg214
I0
sg215
(lp2470
S'EV'
p2471
asg218
I0
sg219
I0
sg220
(dp2472
S'A'
p2473
I11
sS'ME'
p2474
I4
sS'RP2'
p2475
I8
sS'E'
p2476
I10
sS'TO'
p2477
I8
sS'RP1'
p2478
I8
sS'JP'
p2479
I8
sS'RP_tot'
p2480
I9
sS'P'
p2481
I9
sS'PA'
p2482
I10
sS'M'
p2483
I10
sS'R'
p2484
I6
sS'TB'
p2485
I9
sS'PL'
p2486
I10
sS'TA'
p2487
I3
ssg237
(lp2488
sg239
I0
sg352
(dp2489
sg240
I0
sg241
I0
sg242
I0
sg243
I5
sg244
I2
sg245
I0
sg246
S'ES'
p2490
sbsS'n10'
p2491
g356
sS'n11'
p2492
(ijoueur
joueur
p2493
(dp2494
g27
F9.096774193548388
sg28
I0
sg29
F10.903225806451612
sg30
g31
sg32
I0
sg33
F42.858361287494624
sg34
I0
sg35
g36
(g37
g38
Ntp2495
Rp2496
(dp2497
g42
I5
sg43
S'**'
p2498
sg45
S'seigneur'
p2499
sbsg47
(dp2500
S'SR'
p2501
I0
sS'CT'
p2502
I0
sS'CR'
p2503
I0
sS'ST'
p2504
I0
ssg53
(dp2505
g2501
I0
sg2502
I0
sg2503
I0
sg2504
I0
ssg55
I0
sg1792
I0
sg57
I0
sS'transformations'
p2506
I0
sS'penalites'
p2507
I0
sg59
I00
sg60
I1
sg61
I0
sg62
I0
sg63
(S'dummy'
p2508
S'AI'
p2509
g31
g31
tp2510
sg68
I00
sg69
g2496
sg74
(dp2511
g377
I0
sg378
I0
sg379
I0
sg380
I4
ssg80
(dp2512
g377
I0
sg378
I0
sg379
I0
sg380
I0
ssg82
(dp2513
g377
I0
sg378
I0
sg379
I0
sg380
I0
ssg84
(dp2514
g2501
I0
sg2502
I20
sg2503
I6
sg2504
I0
ssg86
I0
sg87
I0
sg88
S'Qleyr'
p2515
sg90
I9
sg91
I0
sg92
I23
sg93
I468
sg94
g385
sg96
(dp2516
S'A'
p2517
I12
sS'ME'
p2518
I5
sS'RP2'
p2519
I10
sS'E'
p2520
I11
sS'TO'
p2521
I7
sS'RP1'
p2522
I9
sS'JP'
p2523
I6
sS'RP_tot'
p2524
I11
sS'P'
p2525
I8
sS'PA'
p2526
I12
sS'M'
p2527
I10
sS'R'
p2528
I6
sS'TB'
p2529
I8
sS'PL'
p2530
I9
sS'TA'
p2531
I5
ssg115
(dp2532
g404
(ijoueur
joueur
p2533
(dp2534
g27
F9.096774193548388
sg28
I0
sg30
g31
sg32
I0
sg34
I0
sg35
g36
(g37
g38
Ntp2535
Rp2536
(dp2537
g42
I5
sg43
S'**'
p2538
sg45
S'seigneur'
p2539
sbsg47
(dp2540
S'SR'
p2541
I0
sS'CT'
p2542
I0
sS'CR'
p2543
I0
sS'ST'
p2544
I0
ssg53
(dp2545
g2541
I0
sg2542
I0
sg2543
I0
sg2544
I0
ssg1792
I0
sg131
F10.903225806451612
sg57
I0
sg2506
I0
sg2507
I0
sg60
I0
sg61
I0
sg62
I0
sg63
(S'dummy'
p2546
S'AI'
p2547
g31
g31
tp2548
sg68
I01
sg69
g2536
sg74
(dp2549
S'SR'
p2550
I0
sS'ST'
p2551
I0
sS'CR'
p2552
I1
sS'CT'
p2553
I12
ssg59
I00
sg82
(dp2554
g2550
I0
sg2551
I0
sg2552
I0
sg2553
I0
ssg84
(dp2555
g2541
I0
sg2542
I16
sg2543
I6
sg2544
I0
ssg86
I0
sg87
I0
sg88
S'Qleyr'
p2556
sg90
I9
sg91
I0
sg92
I23
sg93
I181
sg94
S'DKF'
p2557
sg96
(dp2558
S'A'
p2559
I13
sS'ME'
p2560
I5
sS'RP2'
p2561
I10
sS'E'
p2562
I11
sS'P'
p2563
I9
sS'RP1'
p2564
I9
sS'JP'
p2565
I6
sS'RP_tot'
p2566
I12
sS'TO'
p2567
I7
sS'PA'
p2568
I12
sS'M'
p2569
I10
sS'R'
p2570
I7
sS'TB'
p2571
I9
sS'PL'
p2572
I9
sS'TA'
p2573
I5
ssg115
(dp2574
S's11'
p2575
(ijoueur
joueur
p2576
(dp2577
g28
I0
sg32
I0
sg34
I0
sg35
g36
(g37
g38
Ntp2578
Rp2579
(dp2580
g42
I5
sg43
S'**'
p2581
sg45
S'seigneur'
p2582
sbsg47
(dp2583
S'SR'
p2584
I0
sS'CT'
p2585
I0
sS'CR'
p2586
I0
sS'ST'
p2587
I0
ssg53
(dp2588
g2584
I0
sg2585
I0
sg2586
I0
sg2587
I0
ssg80
(dp2589
g2584
I0
sg2585
I0
sg2586
I0
sg2587
I0
ssg1792
I0
sg57
I0
sg2506
I0
sg2507
I0
sg60
I0
sg61
I0
sg62
I0
sg63
(S'dummy'
p2590
S'AI'
p2591
g31
g31
tp2592
sg68
I00
sg69
g36
(g37
g38
Ntp2593
Rp2594
(dp2595
g42
I4
sg43
S'x'
p2596
sg45
S'heros'
p2597
sbsg74
(dp2598
g2584
I0
sg2585
I4
sg2586
I5
sg2587
I0
ssg59
I00
sg82
(dp2599
g2584
I0
sg2585
I0
sg2586
I0
sg2587
I0
ssg84
(dp2600
g2584
I0
sg2585
I4
sg2586
I5
sg2587
I0
ssg86
I0
sg87
I0
sg88
S'Qleyr'
p2601
sg90
I9
sg91
I0
sg92
I23
sg93
I76
sg94
S'DKF'
p2602
sg96
(dp2603
S'A'
p2604
I10
sS'ME'
p2605
I4
sS'RP2'
p2606
I8
sS'E'
p2607
I9
sS'P'
p2608
I7
sS'RP1'
p2609
I9
sS'JP'
p2610
I5
sS'RP_tot'
p2611
I10
sS'TO'
p2612
I5
sS'PA'
p2613
I10
sS'M'
p2614
I10
sS'R'
p2615
I6
sS'TB'
p2616
I7
sS'PL'
p2617
I7
sS'TA'
p2618
I4
ssg210
I0
sg211
I0
sg212
I0
sg213
I0
sg131
F9.096774193548388
sg214
I0
sS'drops'
p2619
I0
sg218
I0
sg219
I0
sg220
(dp2620
S'A'
p2621
I10
sS'ME'
p2622
I4
sS'RP2'
p2623
I8
sS'E'
p2624
I9
sS'P'
p2625
I7
sS'RP1'
p2626
I9
sS'JP'
p2627
I5
sS'RP_tot'
p2628
I10
sS'TO'
p2629
I5
sS'PA'
p2630
I10
sS'M'
p2631
I10
sS'R'
p2632
I6
sS'TB'
p2633
I7
sS'PL'
p2634
I7
sS'TA'
p2635
I4
ssg113
g2603
sg239
I0
sg56
g31
sg240
I0
sg241
I0
sg242
I0
sg243
I8
sg244
I0
sg245
I0
sg246
S'CV'
p2636
sbssg210
I0
sg211
I0
sg212
I0
sg213
I0
sg80
(dp2637
g2550
I0
sg2551
I0
sg2552
I0
sg2553
I0
ssg214
I0
sg2619
I0
sg218
I0
sg219
I0
sg220
(dp2638
S'A'
p2639
I10
sS'ME'
p2640
I4
sS'RP2'
p2641
I8
sS'E'
p2642
I9
sS'P'
p2643
I7
sS'RP1'
p2644
I9
sS'JP'
p2645
I5
sS'RP_tot'
p2646
I10
sS'TO'
p2647
I5
sS'PA'
p2648
I10
sS'M'
p2649
I10
sS'R'
p2650
I6
sS'TB'
p2651
I7
sS'PL'
p2652
I7
sS'TA'
p2653
I4
ssg113
g2558
sg239
I0
sg56
g31
sg240
I0
sg241
I0
sg242
I0
sg243
I18
sg244
I0
sg245
I0
sg246
S'CV'
p2654
sbsS's11'
p2655
(ijoueur
joueur
p2656
(dp2657
g28
I0
sg32
I0
sg34
I0
sg35
g36
(g37
g38
Ntp2658
Rp2659
(dp2660
g42
I5
sg43
S'**'
p2661
sg45
S'seigneur'
p2662
sbsg47
(dp2663
S'SR'
p2664
I0
sS'CT'
p2665
I0
sS'CR'
p2666
I0
sS'ST'
p2667
I0
ssg53
(dp2668
g2664
I0
sg2665
I0
sg2666
I0
sg2667
I0
ssg80
(dp2669
g2664
I0
sg2665
I0
sg2666
I0
sg2667
I0
ssg1792
I0
sg57
I0
sg2506
I0
sg2507
I0
sg60
I0
sg61
I0
sg62
I0
sg63
(S'dummy'
p2670
S'AI'
p2671
g31
g31
tp2672
sg68
I00
sg69
g36
(g37
g38
Ntp2673
Rp2674
(dp2675
g42
I4
sg43
S'x'
p2676
sg45
S'heros'
p2677
sbsg74
(dp2678
g2664
I0
sg2665
I4
sg2666
I5
sg2667
I0
ssg59
I00
sg82
(dp2679
g2664
I0
sg2665
I0
sg2666
I0
sg2667
I0
ssg84
(dp2680
g2664
I0
sg2665
I4
sg2666
I5
sg2667
I0
ssg86
I0
sg87
I0
sg88
S'Qleyr'
p2681
sg90
I9
sg91
I0
sg92
I23
sg93
I76
sg94
S'DKF'
p2682
sg96
(dp2683
S'A'
p2684
I10
sS'ME'
p2685
I4
sS'RP2'
p2686
I8
sS'E'
p2687
I9
sS'P'
p2688
I7
sS'RP1'
p2689
I9
sS'JP'
p2690
I5
sS'RP_tot'
p2691
I10
sS'TO'
p2692
I5
sS'PA'
p2693
I10
sS'M'
p2694
I10
sS'R'
p2695
I6
sS'TB'
p2696
I7
sS'PL'
p2697
I7
sS'TA'
p2698
I4
ssg210
I0
sg211
I0
sg212
I0
sg213
I0
sg131
F9.096774193548388
sg214
I0
sg2619
I0
sg218
I0
sg219
I0
sg220
(dp2699
S'A'
p2700
I10
sS'ME'
p2701
I4
sS'RP2'
p2702
I8
sS'E'
p2703
I9
sS'P'
p2704
I7
sS'RP1'
p2705
I9
sS'JP'
p2706
I5
sS'RP_tot'
p2707
I10
sS'TO'
p2708
I5
sS'PA'
p2709
I10
sS'M'
p2710
I10
sS'R'
p2711
I6
sS'TB'
p2712
I7
sS'PL'
p2713
I7
sS'TA'
p2714
I4
ssg113
g2683
sg239
I0
sg56
g31
sg240
I0
sg241
I0
sg242
I0
sg243
I8
sg244
I0
sg245
I0
sg246
S'CV'
p2715
sbssg210
I7
sg211
I0
sg212
I0
sg213
I0
sg131
F10.451612903225806
sg214
I0
sg58
F42.858361287494624
sg2619
I0
sg218
I0
sg219
I0
sg220
(dp2716
S'A'
p2717
I10
sS'ME'
p2718
I4
sS'RP2'
p2719
I8
sS'E'
p2720
I9
sS'P'
p2721
I7
sS'RP1'
p2722
I9
sS'JP'
p2723
I5
sS'RP_tot'
p2724
I10
sS'TO'
p2725
I5
sS'PA'
p2726
I10
sS'M'
p2727
I10
sS'R'
p2728
I6
sS'TB'
p2729
I7
sS'PL'
p2730
I7
sS'TA'
p2731
I4
ssg113
(dp2732
g2517
I12
sg2518
I5
sg2519
I10
sg2520
I11
sg2525
I8
sg2522
I9
sg2523
I6
sg2524
I11
sg2521
I7
sg2526
I12
sg2527
I10
sg2528
I6
sg2529
I8
sg2530
I9
sg2531
I5
ssg239
I0
sg352
(dp2733
sg240
I0
sg56
S'DKF 13'
p2734
sg241
I0
sg242
I0
sg243
I21
sg244
I1
sg245
I0
sg246
S'CV'
p2735
sbsS'n16'
p2736
(ijoueur
joueur
p2737
(dp2738
g27
F8.758620689655173
sg28
I0
sg29
F9.275862068965518
sg30
g31
sg32
I0
sg33
F10.17972143444891
sS'poste3'
p2739
g31
sg34
I0
sS'poste1'
p2740
g31
sg35
g36
(g37
g38
Ntp2741
Rp2742
(dp2743
g42
I5
sg43
S'**'
p2744
sg45
S'seigneur'
p2745
sbsg47
(dp2746
S'SR'
p2747
I0
sS'CT'
p2748
I0
sS'CR'
p2749
I0
sS'ST'
p2750
I1
ssg53
(dp2751
g2747
I0
sg2748
I1
sg2749
I0
sg2750
I1
ssg55
I0
sg80
(dp2752
S'SR'
p2753
I0
sS'CT'
p2754
I0
sS'CR'
p2755
I0
sS'ST'
p2756
I0
ssg56
S'vide 12'
p2757
sg57
I0
sg58
F10.17972143444891
sg60
I0
sg61
I0
sg62
I0
sg94
S'AL'
p2758
sg68
I00
sg69
g2742
sg74
(dp2759
g2753
I0
sg2754
I0
sg2755
I0
sg2756
I0
ssg59
I00
sg82
(dp2760
g2753
I0
sg2754
I1
sg2755
I0
sg2756
I0
ssg84
(dp2761
g2747
I2
sg2748
I2
sg2749
I3
sg2750
I5
ssg86
I0
sg87
I0
sg88
S'Ghirkhelev'
p2762
sg90
I11
sg91
I0
sg92
I20
sg93
I136
sg63
(S'dummy'
p2763
S'TA'
p2764
S'N8'
p2765
S'TL'
p2766
tp2767
sS'poste2'
p2768
g31
sg96
(dp2769
S'RP1'
p2770
I14
sS'ME'
p2771
I7
sS'RP2'
p2772
I8
sS'E'
p2773
I10
sS'TO'
p2774
I8
sS'M'
p2775
I8
sS'JP'
p2776
I5
sS'RP_tot'
p2777
I15
sS'P'
p2778
I6
sS'PA'
p2779
I12
sS'A'
p2780
I9
sS'R'
p2781
I7
sS'TB'
p2782
I5
sS'PL'
p2783
I13
sg2764
I7
ssg115
(dp2784
S's12'
p2785
(ijoueur
joueur
p2786
(dp2787
g27
F8.758620689655173
sg28
I0
sg30
g31
sg32
I0
sg2739
g31
sg34
I0
sg2740
g31
sg35
g36
(g37
g38
Ntp2788
Rp2789
(dp2790
g42
I5
sg43
S'**'
p2791
sg45
S'seigneur'
p2792
sbsg47
(dp2793
S'SR'
p2794
I0
sS'CT'
p2795
I0
sS'CR'
p2796
I0
sS'ST'
p2797
I1
ssg53
(dp2798
g2794
I0
sg2795
I0
sg2796
I0
sg2797
I1
ssg56
S'vide 12'
p2799
sg57
I0
sg59
I00
sg60
I2
sg61
I0
sg62
I0
sg94
S'AL'
p2800
sg68
I00
sg69
g2789
sg74
(dp2801
S'SR'
p2802
I0
sS'ST'
p2803
I5
sS'CR'
p2804
I3
sS'CT'
p2805
I2
ssg80
(dp2806
g2802
I0
sg2803
I0
sg2804
I0
sg2805
I0
ssg82
(dp2807
g2802
I0
sg2803
I1
sg2804
I0
sg2805
I0
ssg84
(dp2808
g2794
I2
sg2795
I2
sg2796
I3
sg2797
I5
ssg86
I0
sg87
I0
sg88
S'Ghirkhelev'
p2809
sg90
I11
sg91
I0
sg92
I20
sg93
I136
sg63
(S'dummy'
p2810
S'TA'
p2811
S'N8'
p2812
S'TL'
p2813
tp2814
sg2768
g31
sg96
(dp2815
S'A'
p2816
I0
sS'ME'
p2817
I0
sS'RP2'
p2818
I0
sS'E'
p2819
I0
sS'P'
p2820
I0
sS'RP1'
p2821
I0
sS'JP'
p2822
I0
sS'RP_tot'
p2823
I0
sS'TO'
p2824
I0
sS'PA'
p2825
I0
sS'M'
p2826
I0
sS'R'
p2827
I0
sS'TB'
p2828
I0
sS'PL'
p2829
I0
sg2811
I0
ssg115
(dp2830
S's11'
p2831
(ijoueur
joueur
p2832
(dp2833
g28
I0
sg32
I0
sg2739
g31
sg34
I0
sg2740
g31
sg35
g36
(g37
g38
Ntp2834
Rp2835
(dp2836
g42
I5
sg43
S'**'
p2837
sg45
S'seigneur'
p2838
sbsg47
(dp2839
S'SR'
p2840
I0
sS'ST'
p2841
I1
sS'CR'
p2842
I0
sS'CT'
p2843
I0
ssg53
(dp2844
g2840
I0
sg2841
I0
sg2842
I0
sg2843
I0
ssg56
g31
sg57
I0
sg59
I01
sg60
I0
sg61
I0
sg62
I0
sg94
S'vide'
p2845
sg68
I01
sg69
g36
(g37
g38
Ntp2846
Rp2847
(dp2848
g42
I3
sg43
S'^^^'
p2849
sg45
S'rare'
p2850
sbsg74
(dp2851
g2840
I2
sg2841
I0
sg2842
I0
sg2843
I0
ssg80
(dp2852
g2840
I0
sg2841
I1
sg2842
I0
sg2843
I0
ssg82
(dp2853
g2840
I0
sg2841
I0
sg2842
I0
sg2843
I0
ssg84
(dp2854
g2840
I2
sg2841
I0
sg2842
I0
sg2843
I0
ssg86
I0
sg87
I0
sg88
S'Ghirkhelev'
p2855
sg90
I11
sg91
I0
sg92
I20
sg93
I15
sg63
(S'dummy'
p2856
S'TA'
p2857
S'N8'
p2858
S'TL'
p2859
tp2860
sg2768
g31
sg96
(dp2861
S'A'
p2862
I0
sS'ME'
p2863
I0
sS'RP2'
p2864
I0
sS'E'
p2865
I0
sS'TO'
p2866
I0
sS'RP1'
p2867
I0
sS'JP'
p2868
I0
sS'RP_tot'
p2869
I0
sS'P'
p2870
I0
sS'PA'
p2871
I0
sS'M'
p2872
I0
sS'R'
p2873
I0
sS'TB'
p2874
I0
sS'PL'
p2875
I0
sg2857
I0
ssg210
I0
sg211
I0
sg212
I0
sg213
I0
sg131
F8.758620689655173
sg214
I0
sg218
I0
sg219
I0
sg220
(dp2876
S'RP1'
p2877
I9
sS'ME'
p2878
I7
sS'RP2'
p2879
I6
sS'E'
p2880
I10
sS'TO'
p2881
I7
sS'M'
p2882
I7
sS'JP'
p2883
I3
sS'RP_tot'
p2884
I9
sS'P'
p2885
I4
sS'PA'
p2886
I10
sS'A'
p2887
I8
sS'R'
p2888
I8
sS'TB'
p2889
I3
sS'PL'
p2890
I12
sS'TA'
p2891
I7
ssg113
(dp2892
g2867
I9
sg2863
I7
sg2864
I6
sg2865
I10
sg2866
I7
sg2872
I7
sg2868
I3
sg2869
I9
sg2870
I4
sg2871
I10
sg2862
I8
sg2873
I8
sg2874
I3
sg2875
I12
sg2857
I7
ssg239
I0
sg240
I0
sg241
I0
sg242
I0
sg243
I1
sg244
I0
sg245
I0
sg246
S'K'
p2893
sbssg210
I2
sg211
I0
sg212
I0
sg213
I0
sg131
F9.275862068965518
sg214
I0
sg218
I0
sg219
I0
sg220
(dp2894
S'RP1'
p2895
I9
sS'ME'
p2896
I7
sS'RP2'
p2897
I6
sS'E'
p2898
I10
sS'TO'
p2899
I7
sS'M'
p2900
I7
sS'JP'
p2901
I3
sS'RP_tot'
p2902
I9
sS'P'
p2903
I4
sS'PA'
p2904
I10
sS'A'
p2905
I8
sS'R'
p2906
I8
sS'TB'
p2907
I3
sS'PL'
p2908
I12
sS'TA'
p2909
I7
ssg113
(dp2910
g2821
I13
sg2817
I7
sg2818
I8
sg2819
I10
sg2820
I6
sg2822
I5
sg2826
I8
sg2823
I14
sg2824
I8
sg2825
I12
sg2816
I8
sg2827
I6
sg2828
I5
sg2829
I13
sg2811
I7
ssg239
I0
sg240
I0
sg241
I0
sg242
I0
sg243
I13
sg244
I2
sg245
I0
sg246
S'K'
p2911
sbsS's11'
p2912
(ijoueur
joueur
p2913
(dp2914
g28
I0
sg32
I0
sg2739
g31
sg34
I0
sg2740
g31
sg35
g36
(g37
g38
Ntp2915
Rp2916
(dp2917
g42
I5
sg43
S'**'
p2918
sg45
S'seigneur'
p2919
sbsg47
(dp2920
S'SR'
p2921
I0
sS'ST'
p2922
I1
sS'CR'
p2923
I0
sS'CT'
p2924
I0
ssg53
(dp2925
g2921
I0
sg2922
I0
sg2923
I0
sg2924
I0
ssg56
g31
sg57
I0
sg59
I01
sg60
I0
sg61
I0
sg62
I0
sg94
S'vide'
p2926
sg68
I01
sg69
g36
(g37
g38
Ntp2927
Rp2928
(dp2929
g42
I3
sg43
S'^^^'
p2930
sg45
S'rare'
p2931
sbsg74
(dp2932
g2921
I2
sg2922
I0
sg2923
I0
sg2924
I0
ssg80
(dp2933
g2921
I0
sg2922
I1
sg2923
I0
sg2924
I0
ssg82
(dp2934
g2921
I0
sg2922
I0
sg2923
I0
sg2924
I0
ssg84
(dp2935
g2921
I2
sg2922
I0
sg2923
I0
sg2924
I0
ssg86
I0
sg87
I0
sg88
S'Ghirkhelev'
p2936
sg90
I11
sg91
I0
sg92
I20
sg93
I15
sg63
(S'dummy'
p2937
S'TA'
p2938
S'N8'
p2939
S'TL'
p2940
tp2941
sg2768
g31
sg96
(dp2942
S'A'
p2943
I0
sS'ME'
p2944
I0
sS'RP2'
p2945
I0
sS'E'
p2946
I0
sS'TO'
p2947
I0
sS'RP1'
p2948
I0
sS'JP'
p2949
I0
sS'RP_tot'
p2950
I0
sS'P'
p2951
I0
sS'PA'
p2952
I0
sS'M'
p2953
I0
sS'R'
p2954
I0
sS'TB'
p2955
I0
sS'PL'
p2956
I0
sg2938
I0
ssg210
I0
sg211
I0
sg212
I0
sg213
I0
sg131
F8.758620689655173
sg214
I0
sg218
I0
sg219
I0
sg220
(dp2957
S'RP1'
p2958
I9
sS'ME'
p2959
I7
sS'RP2'
p2960
I6
sS'E'
p2961
I10
sS'TO'
p2962
I7
sS'M'
p2963
I7
sS'JP'
p2964
I3
sS'RP_tot'
p2965
I9
sS'P'
p2966
I4
sS'PA'
p2967
I10
sS'A'
p2968
I8
sS'R'
p2969
I8
sS'TB'
p2970
I3
sS'PL'
p2971
I12
sS'TA'
p2972
I7
ssg113
(dp2973
g2948
I9
sg2944
I7
sg2945
I6
sg2946
I10
sg2947
I7
sg2953
I7
sg2949
I3
sg2950
I9
sg2951
I4
sg2952
I10
sg2943
I8
sg2954
I8
sg2955
I3
sg2956
I12
sg2938
I7
ssg239
I0
sg240
I0
sg241
I0
sg242
I0
sg243
I1
sg244
I0
sg245
I0
sg246
S'K'
p2974
sbssg210
I0
sg211
I0
sg212
I0
sg213
I0
sg131
F9.689655172413794
sg214
I0
sg218
I0
sg219
I0
sg220
(dp2975
S'RP1'
p2976
I9
sS'ME'
p2977
I7
sS'RP2'
p2978
I6
sS'E'
p2979
I10
sS'TO'
p2980
I7
sS'M'
p2981
I7
sS'JP'
p2982
I3
sS'RP_tot'
p2983
I9
sS'P'
p2984
I4
sS'PA'
p2985
I10
sS'A'
p2986
I8
sS'R'
p2987
I8
sS'TB'
p2988
I3
sS'PL'
p2989
I12
sS'TA'
p2990
I7
ssg113
(dp2991
g2770
I14
sg2771
I7
sg2772
I8
sg2773
I10
sg2778
I6
sg2776
I5
sg2775
I8
sg2777
I15
sg2774
I8
sg2779
I12
sg2780
I9
sg2781
I7
sg2782
I5
sg2783
I13
sg2764
I7
ssg239
I0
sg352
(dp2992
sg240
I0
sg241
I0
sg242
I0
sg243
I13
sg244
I2
sg245
I0
sg246
S'K'
p2993
sbsS'n17'
p2994
(ijoueur
joueur
p2995
(dp2996
g27
F11.074074074074074
sg28
I0
sg29
F11.814814814814815
sg30
g31
sg32
I0
sg33
F53.03808272194353
sg34
I0
sg35
g36
(g37
g38
Ntp2997
Rp2998
(dp2999
g42
I2
sg43
S'<<'
p3000
sg45
S'special'
p3001
sbsg47
(dp3002
S'SR'
p3003
I0
sS'ST'
p3004
I0
sS'CR'
p3005
I0
sS'CT'
p3006
I0
ssg53
(dp3007
g3003
I0
sg3004
I0
sg3005
I0
sg3006
I0
ssg55
I0
sg80
(dp3008
g2753
I0
sg2754
I0
sg2755
I0
sg2756
I0
ssg56
S'HTH 9'
p3009
sg57
I0
sg58
F53.03808272194353
sg60
I0
sg61
I0
sg62
I0
sg63
(S'dummy'
p3010
S'PI'
p3011
g31
g31
tp3012
sg68
I00
sg69
g36
(g37
g38
Ntp3013
Rp3014
(dp3015
g42
I2
sg43
S'<<'
p3016
sg45
g3001
sbsg74
(dp3017
g2753
I0
sg2754
I5
sg2755
I0
sg2756
I0
ssg59
I00
sg82
(dp3018
g2753
I0
sg2754
I0
sg2755
I0
sg2756
I0
ssg84
(dp3019
g3003
I0
sg3004
I15
sg3005
I0
sg3006
I32
ssg86
I0
sg87
I0
sg88
S'Maethol'
p3020
sg90
I4
sg91
I0
sg92
I13
sg93
I50
sg94
g2758
sg96
(dp3021
S'A'
p3022
I10
sS'ME'
p3023
I15
sS'RP2'
p3024
I7
sS'E'
p3025
I13
sS'P'
p3026
I3
sS'RP1'
p3027
I12
sS'JP'
p3028
I5
sS'RP_tot'
p3029
I12
sS'TO'
p3030
I9
sS'PA'
p3031
I8
sS'M'
p3032
I7
sS'R'
p3033
I10
sS'TB'
p3034
I5
sS'PL'
p3035
I9
sS'TA'
p3036
I8
ssg113
(dp3037
g3022
I11
sg3023
I15
sg3024
I7
sg3025
I13
sg3030
I9
sg3027
I12
sg3028
I5
sg3029
I12
sg3026
I3
sg3031
I8
sg3032
I7
sg3033
I11
sg3034
I5
sg3035
I10
sg3036
I8
ssg115
(dp3038
g2785
(ijoueur
joueur
p3039
(dp3040
g27
F11.074074074074074
sg28
I0
sg30
g31
sg32
I0
sg34
I0
sg35
g36
(g37
g38
Ntp3041
Rp3042
(dp3043
g42
I2
sg43
S'<<'
p3044
sg45
S'special'
p3045
sbsg47
(dp3046
S'SR'
p3047
I0
sS'ST'
p3048
I0
sS'CR'
p3049
I0
sS'CT'
p3050
I0
ssg53
(dp3051
g3047
I0
sg3048
I0
sg3049
I0
sg3050
I0
ssg56
S'HTH 9'
p3052
sg57
I0
sg59
I01
sg60
I2
sg61
I0
sg62
I0
sg63
(S'dummy'
p3053
S'PI'
p3054
g31
g31
tp3055
sg68
I00
sg69
g36
(g37
g38
Ntp3056
Rp3057
(dp3058
g42
I2
sg43
S'<<'
p3059
sg45
g3045
sbsg74
(dp3060
g2802
I0
sg2803
I7
sg2804
I0
sg2805
I13
ssg80
(dp3061
g2802
I0
sg2803
I0
sg2804
I0
sg2805
I0
ssg82
(dp3062
g2802
I0
sg2803
I0
sg2804
I0
sg2805
I0
ssg84
(dp3063
g3047
I0
sg3048
I15
sg3049
I0
sg3050
I27
ssg86
I0
sg87
I0
sg88
S'Maethol'
p3064
sg90
I4
sg91
I0
sg92
I13
sg93
I50
sg94
g2800
sg96
(dp3065
S'A'
p3066
I11
sS'ME'
p3067
I15
sS'RP2'
p3068
I7
sS'E'
p3069
I13
sS'TO'
p3070
I9
sS'RP1'
p3071
I12
sS'JP'
p3072
I5
sS'RP_tot'
p3073
I12
sS'P'
p3074
I3
sS'PA'
p3075
I8
sS'M'
p3076
I8
sS'R'
p3077
I11
sS'TB'
p3078
I5
sS'PL'
p3079
I10
sS'TA'
p3080
I8
ssg113
g3065
sg115
(dp3081
g2831
(ijoueur
joueur
p3082
(dp3083
g28
I0
sg32
I0
sg34
I0
sg35
g36
(g37
g38
Ntp3084
Rp3085
(dp3086
g42
I2
sg43
S'<<'
p3087
sg45
S'special'
p3088
sbsg47
(dp3089
S'SR'
p3090
I0
sS'CT'
p3091
I0
sS'CR'
p3092
I0
sS'ST'
p3093
I0
ssg53
(dp3094
g3090
I0
sg3091
I0
sg3092
I0
sg3093
I0
ssg56
S'HTH 9'
p3095
sg57
I0
sg59
I01
sg60
I2
sg61
I0
sg62
I0
sg63
(S'dummy'
p3096
S'PI'
p3097
g31
g31
tp3098
sg68
I00
sg69
g36
(g37
g38
Ntp3099
Rp3100
(dp3101
g42
I2
sg43
S'<<'
p3102
sg45
g3088
sbsg74
(dp3103
g3090
I0
sg3091
I14
sg3092
I0
sg3093
I8
ssg80
(dp3104
g3090
I0
sg3091
I0
sg3092
I0
sg3093
I0
ssg82
(dp3105
g3090
I0
sg3091
I0
sg3092
I0
sg3093
I0
ssg84
(dp3106
g3090
I0
sg3091
I14
sg3092
I0
sg3093
I8
ssg86
I0
sg87
I0
sg88
S'Maethol'
p3107
sg90
I4
sg91
I0
sg92
I13
sg93
I50
sg94
S'AL'
p3108
sg96
(dp3109
S'A'
p3110
I11
sS'ME'
p3111
I13
sS'RP2'
p3112
I6
sS'E'
p3113
I13
sS'P'
p3114
I3
sS'RP1'
p3115
I12
sS'JP'
p3116
I5
sS'RP_tot'
p3117
I12
sS'TO'
p3118
I9
sS'PA'
p3119
I8
sS'M'
p3120
I8
sS'R'
p3121
I10
sS'TB'
p3122
I5
sS'PL'
p3123
I9
sS'TA'
p3124
I8
ssg113
g3109
sg210
I0
sg211
I0
sg212
I0
sg213
I0
sg131
F11.074074074074074
sg214
I0
sg215
(lp3125
S'EV'
p3126
asg218
I0
sg219
I1
sg220
(dp3127
S'A'
p3128
I11
sS'ME'
p3129
I13
sS'RP2'
p3130
I6
sS'E'
p3131
I13
sS'P'
p3132
I3
sS'RP1'
p3133
I12
sS'JP'
p3134
I5
sS'RP_tot'
p3135
I12
sS'TO'
p3136
I9
sS'PA'
p3137
I8
sS'M'
p3138
I8
sS'R'
p3139
I10
sS'TB'
p3140
I5
sS'PL'
p3141
I9
sS'TA'
p3142
I8
ssg237
(lp3143
sg239
I0
sg240
I0
sg241
I0
sg242
I0
sg243
I5
sg244
I9
sg245
I1
sg246
S'HE'
p3144
sbssg210
I5
sg211
I0
sg212
I0
sg213
I0
sg131
F11.814814814814815
sg214
I0
sg215
(lp3145
S'EV'
p3146
asg218
I0
sg219
I1
sg220
(dp3147
S'A'
p3148
I11
sS'ME'
p3149
I13
sS'RP2'
p3150
I6
sS'E'
p3151
I13
sS'TO'
p3152
I9
sS'RP1'
p3153
I12
sS'JP'
p3154
I5
sS'RP_tot'
p3155
I12
sS'P'
p3156
I3
sS'PA'
p3157
I8
sS'M'
p3158
I8
sS'R'
p3159
I10
sS'TB'
p3160
I5
sS'PL'
p3161
I9
sS'TA'
p3162
I8
ssg237
(lp3163
sg239
I0
sg240
I0
sg241
I0
sg242
I0
sg243
I5
sg244
I11
sg245
I0
sg246
S'HE'
p3164
sbsg2912
(ijoueur
joueur
p3165
(dp3166
g28
I0
sg32
I0
sg34
I0
sg35
g36
(g37
g38
Ntp3167
Rp3168
(dp3169
g42
I2
sg43
S'<<'
p3170
sg45
S'special'
p3171
sbsg47
(dp3172
S'SR'
p3173
I0
sS'CT'
p3174
I0
sS'CR'
p3175
I0
sS'ST'
p3176
I0
ssg53
(dp3177
g3173
I0
sg3174
I0
sg3175
I0
sg3176
I0
ssg56
S'HTH 9'
p3178
sg57
I0
sg59
I01
sg60
I2
sg61
I0
sg62
I0
sg63
(S'dummy'
p3179
S'PI'
p3180
g31
g31
tp3181
sg68
I00
sg69
g36
(g37
g38
Ntp3182
Rp3183
(dp3184
g42
I2
sg43
S'<<'
p3185
sg45
g3171
sbsg74
(dp3186
g3173
I0
sg3174
I14
sg3175
I0
sg3176
I8
ssg80
(dp3187
g3173
I0
sg3174
I0
sg3175
I0
sg3176
I0
ssg82
(dp3188
g3173
I0
sg3174
I0
sg3175
I0
sg3176
I0
ssg84
(dp3189
g3173
I0
sg3174
I14
sg3175
I0
sg3176
I8
ssg86
I0
sg87
I0
sg88
S'Maethol'
p3190
sg90
I4
sg91
I0
sg92
I13
sg93
I50
sg94
S'AL'
p3191
sg96
(dp3192
S'A'
p3193
I11
sS'ME'
p3194
I13
sS'RP2'
p3195
I6
sS'E'
p3196
I13
sS'P'
p3197
I3
sS'RP1'
p3198
I12
sS'JP'
p3199
I5
sS'RP_tot'
p3200
I12
sS'TO'
p3201
I9
sS'PA'
p3202
I8
sS'M'
p3203
I8
sS'R'
p3204
I10
sS'TB'
p3205
I5
sS'PL'
p3206
I9
sS'TA'
p3207
I8
ssg113
g3192
sg210
I0
sg211
I0
sg212
I0
sg213
I0
sg131
F11.074074074074074
sg214
I0
sg215
(lp3208
S'EV'
p3209
asg218
I0
sg219
I1
sg220
(dp3210
S'A'
p3211
I11
sS'ME'
p3212
I13
sS'RP2'
p3213
I6
sS'E'
p3214
I13
sS'P'
p3215
I3
sS'RP1'
p3216
I12
sS'JP'
p3217
I5
sS'RP_tot'
p3218
I12
sS'TO'
p3219
I9
sS'PA'
p3220
I8
sS'M'
p3221
I8
sS'R'
p3222
I10
sS'TB'
p3223
I5
sS'PL'
p3224
I9
sS'TA'
p3225
I8
ssg237
(lp3226
sg239
I0
sg240
I0
sg241
I0
sg242
I0
sg243
I5
sg244
I9
sg245
I1
sg246
S'HE'
p3227
sbssg210
I9
sg211
I0
sg212
I0
sg213
I0
sg131
F11.777777777777779
sg214
I0
sg215
(lp3228
S'EV'
p3229
asg218
I0
sg219
I1
sg220
(dp3230
S'A'
p3231
I11
sS'ME'
p3232
I13
sS'RP2'
p3233
I6
sS'E'
p3234
I13
sS'TO'
p3235
I9
sS'RP1'
p3236
I12
sS'JP'
p3237
I5
sS'RP_tot'
p3238
I12
sS'P'
p3239
I3
sS'PA'
p3240
I8
sS'M'
p3241
I8
sS'R'
p3242
I10
sS'TB'
p3243
I5
sS'PL'
p3244
I9
sS'TA'
p3245
I8
ssg237
(lp3246
sg239
I0
sg352
(dp3247
sg240
I0
sg241
I0
sg242
I0
sg243
I5
sg244
I11
sg245
I0
sg246
S'HE'
p3248
sbsS'n14'
p3249
(ijoueur
joueur
p3250
(dp3251
g27
F9.741935483870968
sg28
I0
sg29
F9.580645161290322
sg30
g31
sg32
I0
sg33
F42.17360972131856
sg34
I0
sg35
g36
(g37
g38
Ntp3252
Rp3253
(dp3254
g42
I3
sg43
S'^^^'
p3255
sg45
S'rare'
p3256
sbsg47
(dp3257
g2228
I0
sg2229
I0
sg2230
I5
sg2231
I4
ssg53
(dp3258
g2228
I0
sg2229
I0
sg2230
I0
sg2231
I0
ssg55
I0
sg56
g31
sg131
F9.741935483870968
sg57
I0
sg58
F42.17360972131856
sg60
I0
sg61
I0
sg62
I0
sg63
(g2234
S'AI'
p3259
S'AR'
p3260
g31
tp3261
sg68
I00
sg69
g36
(g37
g38
Ntp3262
Rp3263
(dp3264
g42
I3
sg43
S'^^^'
p3265
sg45
g3256
sbsg74
(dp3266
g2243
I0
sg2244
I0
sg2245
I2
sg2246
I1
ssg59
I00
sg82
(dp3267
g2243
I0
sg2244
I0
sg2245
I0
sg2246
I0
ssg84
(dp3268
g2228
I0
sg2229
I0
sg2230
I13
sg2231
I7
ssg86
I0
sg87
I0
sg88
S'Vlyner'
p3269
sg90
I8
sg91
I0
sg92
I16
sg93
I20
sg94
g2250
sg96
(dp3270
g2252
I11
sg2253
I4
sg2254
I12
sg2255
I8
sg2256
I9
sg2257
I6
sg2258
I7
sg2259
I12
sg2260
I6
sg2261
I7
sg2262
I11
sg2263
I8
sg2264
I9
sg2265
I8
sg2266
I3
ssg113
(dp3271
g2252
I11
sg2253
I4
sg2254
I12
sg2255
I8
sg2260
I6
sg2257
I6
sg2258
I7
sg2259
I12
sg2256
I9
sg2261
I7
sg2262
I11
sg2263
I8
sg2264
I9
sg2265
I8
sg2266
I3
ssg115
(dp3272
g2269
(ijoueur
joueur
p3273
(dp3274
g27
F9.741935483870968
sg28
I0
sg30
g31
sg32
I0
sg34
I0
sg35
g36
(g37
g38
Ntp3275
Rp3276
(dp3277
g42
I3
sg43
S'^^^'
p3278
sg45
S'rare'
p3279
sbsg47
(dp3280
g2278
I0
sg2279
I0
sg2280
I4
sg2281
I4
ssg53
(dp3281
g2278
I0
sg2279
I0
sg2280
I0
sg2281
I0
ssg80
(dp3282
g2284
I0
sg2285
I3
sg2286
I2
sg2287
I0
ssg56
g31
sg57
I0
sg60
I3
sg61
I0
sg62
I0
sg63
(g2289
S'AI'
p3283
S'AR'
p3284
g31
tp3285
sg68
I00
sg69
g36
(g37
g38
Ntp3286
Rp3287
(dp3288
g42
I3
sg43
S'^^^'
p3289
sg45
g3279
sbsg74
(dp3290
g2284
I0
sg2285
I3
sg2286
I7
sg2287
I0
ssg59
I00
sg82
(dp3291
g2284
I0
sg2285
I0
sg2286
I0
sg2287
I0
ssg84
(dp3292
g2278
I0
sg2279
I0
sg2280
I11
sg2281
I6
ssg86
I0
sg87
I0
sg88
S'Vlyner'
p3293
sg90
I8
sg91
I0
sg92
I16
sg93
I20
sg94
g2301
sg96
(dp3294
g2303
I11
sg2304
I4
sg2305
I12
sg2306
I8
sg2307
I6
sg2308
I6
sg2309
I7
sg2310
I12
sg2311
I9
sg2312
I7
sg2313
I10
sg2314
I8
sg2315
I8
sg2316
I8
sg2317
I3
ssg113
g3294
sg115
(dp3295
g2319
(ijoueur
joueur
p3296
(dp3297
g28
I0
sg32
I0
sg34
I0
sg35
g36
(g37
g38
Ntp3298
Rp3299
(dp3300
g42
I3
sg43
S'^^^'
p3301
sg45
S'rare'
p3302
sbsg47
(dp3303
S'SR'
p3304
I0
sS'CT'
p3305
I1
sS'CR'
p3306
I2
sS'ST'
p3307
I0
ssg53
(dp3308
g3304
I0
sg3305
I0
sg3306
I0
sg3307
I0
ssg56
g31
sg57
I0
sg59
I01
sg60
I1
sg61
I0
sg62
I0
sg63
(S'dummy'
p3309
S'AI'
p3310
S'AR'
p3311
g31
tp3312
sg68
I01
sg69
g36
(g37
g38
Ntp3313
Rp3314
(dp3315
g42
I3
sg43
S'^^^'
p3316
sg45
g3302
sbsg74
(dp3317
g3304
I0
sg3305
I3
sg3306
I4
sg3307
I0
ssg80
(dp3318
g3304
I0
sg3305
I1
sg3306
I2
sg3307
I0
ssg82
(dp3319
g3304
I0
sg3305
I0
sg3306
I0
sg3307
I0
ssg84
(dp3320
g3304
I0
sg3305
I3
sg3306
I4
sg3307
I0
ssg86
I0
sg87
I0
sg88
S'Vlyner'
p3321
sg90
I8
sg91
I0
sg92
I16
sg93
I20
sg94
S'AL'
p3322
sg96
(dp3323
S'A'
p3324
I10
sS'ME'
p3325
I4
sS'RP2'
p3326
I12
sS'E'
p3327
I9
sS'P'
p3328
I9
sS'RP1'
p3329
I6
sS'JP'
p3330
I7
sS'RP_tot'
p3331
I12
sS'TO'
p3332
I6
sS'PA'
p3333
I8
sS'M'
p3334
I11
sS'R'
p3335
I7
sS'TB'
p3336
I8
sS'PL'
p3337
I8
sS'TA'
p3338
I3
ssg113
g3323
sg210
I0
sg211
I0
sg212
I0
sg213
I0
sg131
F9.741935483870968
sg214
I0
sg215
(lp3339
S'EV'
p3340
asg218
I0
sg219
I0
sg220
(dp3341
S'A'
p3342
I10
sS'ME'
p3343
I4
sS'RP2'
p3344
I12
sS'E'
p3345
I9
sS'P'
p3346
I9
sS'RP1'
p3347
I6
sS'JP'
p3348
I7
sS'RP_tot'
p3349
I12
sS'TO'
p3350
I6
sS'PA'
p3351
I8
sS'M'
p3352
I11
sS'R'
p3353
I7
sS'TB'
p3354
I8
sS'PL'
p3355
I8
sS'TA'
p3356
I3
ssg237
(lp3357
sg239
I0
sg240
I0
sg241
I0
sg242
I0
sg243
I2
sg244
I1
sg245
I0
sg246
S'ES'
p3358
sbssg210
I9
sg211
I0
sg212
I0
sg213
I0
sg131
F9.580645161290322
sg214
I0
sg215
(lp3359
g2385
asg218
I0
sg219
I0
sg220
(dp3360
g2387
I10
sg2388
I4
sg2389
I12
sg2390
I9
sg2391
I6
sg2392
I6
sg2393
I7
sg2394
I12
sg2395
I9
sg2396
I8
sg2397
I11
sg2398
I7
sg2399
I8
sg2400
I8
sg2401
I3
ssg237
(lp3361
sg239
I0
sg240
I0
sg241
I0
sg242
I0
sg243
I8
sg244
I4
sg245
I0
sg246
S'ES'
p3362
sbsg2404
(ijoueur
joueur
p3363
(dp3364
g28
I0
sg32
I0
sg34
I0
sg35
g36
(g37
g38
Ntp3365
Rp3366
(dp3367
g42
I3
sg43
S'^^^'
p3368
sg45
S'rare'
p3369
sbsg47
(dp3370
S'SR'
p3371
I0
sS'CT'
p3372
I1
sS'CR'
p3373
I2
sS'ST'
p3374
I0
ssg53
(dp3375
g3371
I0
sg3372
I0
sg3373
I0
sg3374
I0
ssg56
g31
sg57
I0
sg59
I01
sg60
I1
sg61
I0
sg62
I0
sg63
(S'dummy'
p3376
S'AI'
p3377
S'AR'
p3378
g31
tp3379
sg68
I01
sg69
g36
(g37
g38
Ntp3380
Rp3381
(dp3382
g42
I3
sg43
S'^^^'
p3383
sg45
g3369
sbsg74
(dp3384
g3371
I0
sg3372
I3
sg3373
I4
sg3374
I0
ssg80
(dp3385
g3371
I0
sg3372
I1
sg3373
I2
sg3374
I0
ssg82
(dp3386
g3371
I0
sg3372
I0
sg3373
I0
sg3374
I0
ssg84
(dp3387
g3371
I0
sg3372
I3
sg3373
I4
sg3374
I0
ssg86
I0
sg87
I0
sg88
S'Vlyner'
p3388
sg90
I8
sg91
I0
sg92
I16
sg93
I20
sg94
S'AL'
p3389
sg96
(dp3390
S'A'
p3391
I10
sS'ME'
p3392
I4
sS'RP2'
p3393
I12
sS'E'
p3394
I9
sS'P'
p3395
I9
sS'RP1'
p3396
I6
sS'JP'
p3397
I7
sS'RP_tot'
p3398
I12
sS'TO'
p3399
I6
sS'PA'
p3400
I8
sS'M'
p3401
I11
sS'R'
p3402
I7
sS'TB'
p3403
I8
sS'PL'
p3404
I8
sS'TA'
p3405
I3
ssg113
g3390
sg210
I0
sg211
I0
sg212
I0
sg213
I0
sg131
F9.741935483870968
sg214
I0
sg215
(lp3406
S'EV'
p3407
asg218
I0
sg219
I0
sg220
(dp3408
S'A'
p3409
I10
sS'ME'
p3410
I4
sS'RP2'
p3411
I12
sS'E'
p3412
I9
sS'P'
p3413
I9
sS'RP1'
p3414
I6
sS'JP'
p3415
I7
sS'RP_tot'
p3416
I12
sS'TO'
p3417
I6
sS'PA'
p3418
I8
sS'M'
p3419
I11
sS'R'
p3420
I7
sS'TB'
p3421
I8
sS'PL'
p3422
I8
sS'TA'
p3423
I3
ssg237
(lp3424
sg239
I0
sg240
I0
sg241
I0
sg242
I0
sg243
I2
sg244
I1
sg245
I0
sg246
S'ES'
p3425
sbssg210
I2
sg211
I0
sg212
I0
sg213
I0
sg80
(dp3426
g2243
I0
sg2244
I0
sg2245
I1
sg2246
I0
ssg214
I0
sg215
(lp3427
g2471
asg218
I0
sg219
I0
sg220
(dp3428
g2473
I10
sg2474
I4
sg2475
I12
sg2476
I9
sg2477
I6
sg2478
I6
sg2479
I7
sg2480
I12
sg2481
I9
sg2482
I8
sg2483
I11
sg2484
I7
sg2485
I8
sg2486
I8
sg2487
I3
ssg237
(lp3429
sg239
I0
sg352
(dp3430
sg240
I0
sg241
I0
sg242
I0
sg243
I8
sg244
I4
sg245
I0
sg246
S'ES'
p3431
sbsS'n15'
p3432
g1591
sS'n18'
p3433
(ijoueur
joueur
p3434
(dp3435
g27
F8.823529411764707
sg28
I0
sg29
F10.823529411764707
sg30
g31
sg32
I0
sg33
F53.03808272194353
sg34
I0
sg35
g36
(g37
g38
Ntp3436
Rp3437
(dp3438
g42
I5
sg43
S'**'
p3439
sg45
g1597
sbsg47
(dp3440
g364
I8
sg365
I0
sg366
I9
sg367
I3
ssg53
(dp3441
g364
I0
sg365
I0
sg366
I0
sg367
I0
ssg55
I0
sg56
g31
sg57
I0
sg58
F53.03808272194353
sg59
I00
sg60
I0
sg61
I0
sg62
I0
sg63
(g369
S'DL'
p3442
S'PI'
p3443
g31
tp3444
sg68
I00
sg69
g3437
sg74
(dp3445
g377
I0
sg378
I0
sg379
I4
sg380
I1
ssg80
(dp3446
g377
I0
sg378
I0
sg379
I0
sg380
I0
ssg82
(dp3447
g377
I0
sg378
I0
sg379
I0
sg380
I0
ssg84
(dp3448
g364
I0
sg365
I0
sg366
I9
sg367
I14
ssg86
I0
sg87
I0
sg88
S'Jenhair'
p3449
sg90
I11
sg91
I0
sg92
I27
sg93
I162
sg94
g385
sg96
(dp3450
g387
I12
sg388
I11
sg389
I9
sg390
I11
sg391
I10
sg392
I9
sg393
I9
sg394
I11
sg395
I13
sg396
I13
sg397
I8
sg398
I8
sg399
I9
sg400
I9
sg401
I5
ssg113
(dp3451
g387
I12
sg388
I11
sg389
I9
sg390
I11
sg395
I13
sg392
I9
sg393
I9
sg394
I11
sg391
I10
sg396
I13
sg397
I8
sg398
I8
sg399
I9
sg400
I9
sg401
I5
ssg115
(dp3452
g404
(ijoueur
joueur
p3453
(dp3454
g27
F8.823529411764707
sg28
I0
sg30
g31
sg32
I0
sg34
I0
sg35
g36
(g37
g38
Ntp3455
Rp3456
(dp3457
g42
I5
sg43
S'**'
p3458
sg45
g1622
sbsg47
(dp3459
g413
I8
sg414
I0
sg415
I9
sg416
I3
ssg53
(dp3460
g413
I0
sg414
I0
sg415
I0
sg416
I0
ssg56
g31
sg131
F10.823529411764707
sg57
I0
sg60
I3
sg61
I0
sg62
I0
sg63
(g418
S'DL'
p3461
S'PI'
p3462
g31
tp3463
sg68
I00
sg69
g36
(g37
g38
Ntp3464
Rp3465
(dp3466
g42
I4
sg43
S'x'
p3467
sg45
S'heros'
p3468
sbsg74
(dp3469
g426
I0
sg427
I13
sg428
I1
sg429
I0
ssg59
I00
sg82
(dp3470
g426
I0
sg427
I0
sg428
I0
sg429
I0
ssg84
(dp3471
g413
I0
sg414
I0
sg415
I5
sg416
I13
ssg86
I0
sg87
I0
sg88
S'Jenhair'
p3472
sg90
I11
sg91
I0
sg92
I27
sg93
I142
sg94
g433
sg96
(dp3473
g435
I12
sg436
I11
sg437
I8
sg438
I11
sg439
I14
sg440
I9
sg441
I5
sg442
I10
sg443
I8
sg444
I13
sg445
I9
sg446
I8
sg447
I7
sg448
I10
sg449
I5
ssg113
g3473
sg115
(dp3474
g451
(ijoueur
joueur
p3475
(dp3476
g28
I0
sg32
I0
sg34
I0
sg35
g36
(g37
g38
Ntp3477
Rp3478
(dp3479
g42
I5
sg43
S'**'
p3480
sg45
S'seigneur'
p3481
sbsg47
(dp3482
S'SR'
p3483
I1
sS'CT'
p3484
I3
sS'CR'
p3485
I9
sS'ST'
p3486
I0
ssg53
(dp3487
g3483
I0
sg3484
I0
sg3485
I0
sg3486
I0
ssg56
g31
sg57
I0
sg59
I00
sg60
I0
sg61
I0
sg62
I0
sg63
(S'dummy'
p3488
S'DL'
p3489
S'PI'
p3490
g31
tp3491
sg68
I00
sg69
g36
(g37
g38
Ntp3492
Rp3493
(dp3494
g42
I1
sg43
S'^'
p3495
sg45
S'base'
p3496
sbsg74
(dp3497
g3483
I0
sg3484
I0
sg3485
I4
sg3486
I0
ssg80
(dp3498
g3483
I1
sg3484
I3
sg3485
I9
sg3486
I0
ssg82
(dp3499
g3483
I0
sg3484
I0
sg3485
I0
sg3486
I0
ssg84
(dp3500
g3483
I0
sg3484
I0
sg3485
I4
sg3486
I0
ssg86
I0
sg87
I0
sg88
S'Jenhair'
p3501
sg90
I11
sg91
I0
sg92
I27
sg93
I42
sg94
S'AL'
p3502
sg96
(dp3503
S'A'
p3504
I8
sS'ME'
p3505
I10
sS'RP2'
p3506
I6
sS'E'
p3507
I10
sS'P'
p3508
I5
sS'RP1'
p3509
I8
sS'JP'
p3510
I3
sS'RP_tot'
p3511
I8
sS'TO'
p3512
I11
sS'PA'
p3513
I9
sS'M'
p3514
I9
sS'R'
p3515
I7
sS'TB'
p3516
I5
sS'PL'
p3517
I7
sS'TA'
p3518
I5
ssg113
g3503
sg210
I0
sg211
I0
sg212
I0
sg213
I0
sg131
F8.823529411764707
sg214
I0
sg215
(lp3519
S'EV'
p3520
asg218
I0
sg219
I0
sg220
(dp3521
S'A'
p3522
I8
sS'ME'
p3523
I10
sS'RP2'
p3524
I6
sS'E'
p3525
I10
sS'P'
p3526
I5
sS'RP1'
p3527
I8
sS'JP'
p3528
I3
sS'RP_tot'
p3529
I8
sS'TO'
p3530
I11
sS'PA'
p3531
I9
sS'M'
p3532
I9
sS'R'
p3533
I7
sS'TB'
p3534
I5
sS'PL'
p3535
I7
sS'TA'
p3536
I5
ssg237
(lp3537
sg239
I0
sg240
I0
sg241
I0
sg242
I0
sg243
I3
sg244
I0
sg245
I0
sg246
S'ES'
p3538
sbssg210
I3
sg211
I0
sg212
I1
sg213
I0
sg80
(dp3539
g426
I7
sg427
I0
sg428
I0
sg429
I0
ssg214
I0
sg215
(lp3540
g516
asg218
I1
sg219
I2
sg220
(dp3541
g518
I8
sg519
I10
sg520
I6
sg521
I10
sg522
I11
sg523
I8
sg524
I3
sg525
I8
sg526
I5
sg527
I9
sg528
I9
sg529
I7
sg530
I5
sg531
I7
sg532
I5
ssg237
(lp3542
sg239
I0
sg240
I0
sg241
I0
sg242
I0
sg243
I12
sg244
I3
sg245
I2
sg246
S'ES'
p3543
sbsg535
(ijoueur
joueur
p3544
(dp3545
g28
I0
sg32
I0
sg34
I0
sg35
g36
(g37
g38
Ntp3546
Rp3547
(dp3548
g42
I5
sg43
S'**'
p3549
sg45
S'seigneur'
p3550
sbsg47
(dp3551
S'SR'
p3552
I1
sS'CT'
p3553
I3
sS'CR'
p3554
I9
sS'ST'
p3555
I0
ssg53
(dp3556
g3552
I0
sg3553
I0
sg3554
I0
sg3555
I0
ssg56
g31
sg57
I0
sg59
I00
sg60
I0
sg61
I0
sg62
I0
sg63
(S'dummy'
p3557
S'DL'
p3558
S'PI'
p3559
g31
tp3560
sg68
I00
sg69
g36
(g37
g38
Ntp3561
Rp3562
(dp3563
g42
I1
sg43
S'^'
p3564
sg45
S'base'
p3565
sbsg74
(dp3566
g3552
I0
sg3553
I0
sg3554
I4
sg3555
I0
ssg80
(dp3567
g3552
I1
sg3553
I3
sg3554
I9
sg3555
I0
ssg82
(dp3568
g3552
I0
sg3553
I0
sg3554
I0
sg3555
I0
ssg84
(dp3569
g3552
I0
sg3553
I0
sg3554
I4
sg3555
I0
ssg86
I0
sg87
I0
sg88
S'Jenhair'
p3570
sg90
I11
sg91
I0
sg92
I27
sg93
I42
sg94
S'AL'
p3571
sg96
(dp3572
S'A'
p3573
I8
sS'ME'
p3574
I10
sS'RP2'
p3575
I6
sS'E'
p3576
I10
sS'P'
p3577
I5
sS'RP1'
p3578
I8
sS'JP'
p3579
I3
sS'RP_tot'
p3580
I8
sS'TO'
p3581
I11
sS'PA'
p3582
I9
sS'M'
p3583
I9
sS'R'
p3584
I7
sS'TB'
p3585
I5
sS'PL'
p3586
I7
sS'TA'
p3587
I5
ssg113
g3572
sg210
I0
sg211
I0
sg212
I0
sg213
I0
sg131
F8.823529411764707
sg214
I0
sg215
(lp3588
S'EV'
p3589
asg218
I0
sg219
I0
sg220
(dp3590
S'A'
p3591
I8
sS'ME'
p3592
I10
sS'RP2'
p3593
I6
sS'E'
p3594
I10
sS'P'
p3595
I5
sS'RP1'
p3596
I8
sS'JP'
p3597
I3
sS'RP_tot'
p3598
I8
sS'TO'
p3599
I11
sS'PA'
p3600
I9
sS'M'
p3601
I9
sS'R'
p3602
I7
sS'TB'
p3603
I5
sS'PL'
p3604
I7
sS'TA'
p3605
I5
ssg237
(lp3606
sg239
I0
sg240
I0
sg241
I0
sg242
I0
sg243
I3
sg244
I0
sg245
I0
sg246
S'ES'
p3607
sbssg210
I1
sg211
I0
sg212
I1
sg213
I0
sg131
F10.588235294117647
sg214
I0
sg215
(lp3608
g599
asg218
I0
sg219
I2
sg220
(dp3609
g601
I8
sg602
I10
sg603
I6
sg604
I10
sg605
I11
sg606
I8
sg607
I3
sg608
I8
sg609
I5
sg610
I9
sg611
I9
sg612
I7
sg613
I5
sg614
I7
sg615
I5
ssg237
(lp3610
sg239
I0
sg352
(dp3611
sg240
I0
sg241
I0
sg242
I0
sg243
I14
sg244
I3
sg245
I0
sg246
S'ES'
p3612
sbsS'n19'
p3613
(ijoueur
joueur
p3614
(dp3615
g27
F9.088235294117647
sg28
I0
sg29
F9.941176470588236
sg30
g31
sg32
I0
sg33
F10.17972143444891
sg34
I0
sg35
g36
(g37
g38
Ntp3616
Rp3617
(dp3618
g42
I2
sg43
S'^^'
p3619
sg45
S'special'
p3620
sbsg47
(dp3621
S'SR'
p3622
I0
sS'ST'
p3623
I0
sS'CR'
p3624
I0
sS'CT'
p3625
I0
ssg53
(dp3626
g3622
I0
sg3623
I0
sg3624
I0
sg3625
I0
ssg55
I0
sg1792
I0
sg131
F9.882352941176471
sg57
I0
sg58
F10.17972143444891
sg60
I0
sg61
I0
sg62
I0
sg63
(S'dummy'
p3627
S'DL'
p3628
S'TL'
p3629
g31
tp3630
sg68
I00
sg69
g36
(g37
g38
Ntp3631
Rp3632
(dp3633
g42
I2
sg43
S'^^'
p3634
sg45
g3620
sbsg74
(dp3635
g2243
I0
sg2244
I0
sg2245
I1
sg2246
I0
ssg59
I00
sg82
(dp3636
g2243
I0
sg2244
I0
sg2245
I0
sg2246
I0
ssg84
(dp3637
g3622
I7
sg3623
I0
sg3624
I2
sg3625
I26
ssg86
I0
sg87
I0
sg88
S'Daef'
p3638
sg90
I9
sg91
I0
sg92
I20
sg93
I50
sg94
g2250
sg96
(dp3639
S'A'
p3640
I11
sS'ME'
p3641
I8
sS'RP2'
p3642
I6
sS'E'
p3643
I10
sS'P'
p3644
I5
sS'RP1'
p3645
I8
sS'JP'
p3646
I4
sS'RP_tot'
p3647
I8
sS'TO'
p3648
I13
sS'PA'
p3649
I9
sS'M'
p3650
I8
sS'R'
p3651
I10
sS'TB'
p3652
I4
sS'PL'
p3653
I8
sS'TA'
p3654
I6
ssg115
(dp3655
g2269
(ijoueur
joueur
p3656
(dp3657
g27
F9.088235294117647
sg28
I0
sg30
g31
sg32
I0
sg34
I0
sg35
g36
(g37
g38
Ntp3658
Rp3659
(dp3660
g42
I2
sg43
S'^^'
p3661
sg45
S'special'
p3662
sbsg47
(dp3663
S'SR'
p3664
I0
sS'ST'
p3665
I0
sS'CR'
p3666
I0
sS'CT'
p3667
I0
ssg53
(dp3668
g3664
I0
sg3665
I0
sg3666
I0
sg3667
I0
ssg80
(dp3669
S'SR'
p3670
I0
sS'ST'
p3671
I0
sS'CR'
p3672
I0
sS'CT'
p3673
I0
ssg1792
I0
sg57
I0
sg60
I0
sg61
I0
sg62
I0
sg63
(S'dummy'
p3674
S'DL'
p3675
S'TL'
p3676
g31
tp3677
sg68
I01
sg69
g36
(g37
g38
Ntp3678
Rp3679
(dp3680
g42
I2
sg43
S'^^'
p3681
sg45
g3662
sbsg74
(dp3682
g3670
I7
sg3671
I0
sg3672
I1
sg3673
I11
ssg59
I01
sg82
(dp3683
g3670
I0
sg3671
I0
sg3672
I0
sg3673
I0
ssg84
(dp3684
g3664
I7
sg3665
I0
sg3666
I1
sg3667
I26
ssg86
I0
sg87
I0
sg88
S'Daef (12)'
p3685
sg90
I9
sg91
I0
sg92
I20
sg93
I19
sg94
S'APA'
p3686
sg96
(dp3687
S'A'
p3688
I12
sS'ME'
p3689
I8
sS'RP2'
p3690
I6
sS'E'
p3691
I10
sS'TO'
p3692
I13
sS'RP1'
p3693
I8
sS'JP'
p3694
I4
sS'RP_tot'
p3695
I8
sS'P'
p3696
I5
sS'PA'
p3697
I9
sS'M'
p3698
I8
sS'R'
p3699
I10
sS'TB'
p3700
I4
sS'PL'
p3701
I8
sS'TA'
p3702
I6
ssg115
(dp3703
S's11'
p3704
(ijoueur
joueur
p3705
(dp3706
g28
I0
sg32
I0
sg34
I0
sg35
g36
(g37
g38
Ntp3707
Rp3708
(dp3709
g42
I2
sg43
S'^^'
p3710
sg45
S'special'
p3711
sbsg47
(dp3712
S'SR'
p3713
I0
sS'ST'
p3714
I0
sS'CR'
p3715
I0
sS'CT'
p3716
I0
ssg53
(dp3717
g3713
I0
sg3714
I0
sg3715
I0
sg3716
I0
ssg1792
I0
sg57
I0
sg59
I01
sg60
I1
sg61
I0
sg62
I0
sg63
(S'dummy'
p3718
S'DL'
p3719
S'TL'
p3720
g31
tp3721
sg68
I00
sg69
g36
(g37
g38
Ntp3722
Rp3723
(dp3724
g42
I2
sg43
S'^^'
p3725
sg45
g3711
sbsg74
(dp3726
g3713
I0
sg3714
I0
sg3715
I0
sg3716
I15
ssg80
(dp3727
g3713
I0
sg3714
I0
sg3715
I0
sg3716
I0
ssg82
(dp3728
g3713
I0
sg3714
I0
sg3715
I0
sg3716
I0
ssg84
(dp3729
g3713
I0
sg3714
I0
sg3715
I0
sg3716
I15
ssg86
I0
sg87
I0
sg88
S'Daef'
p3730
sg90
I9
sg91
I0
sg92
I20
sg93
I19
sg94
S'APA'
p3731
sg96
(dp3732
S'A'
p3733
I12
sS'ME'
p3734
I7
sS'RP2'
p3735
I6
sS'E'
p3736
I10
sS'TO'
p3737
I13
sS'RP1'
p3738
I7
sS'JP'
p3739
I4
sS'RP_tot'
p3740
I7
sS'P'
p3741
I5
sS'PA'
p3742
I9
sS'M'
p3743
I8
sS'R'
p3744
I7
sS'TB'
p3745
I4
sS'PL'
p3746
I8
sS'TA'
p3747
I6
ssg210
I0
sg211
I0
sg212
I0
sg213
I0
sg131
F9.088235294117647
sg214
I0
sg218
I0
sg219
I1
sg220
(dp3748
S'A'
p3749
I12
sS'ME'
p3750
I7
sS'RP2'
p3751
I6
sS'E'
p3752
I10
sS'TO'
p3753
I13
sS'RP1'
p3754
I7
sS'JP'
p3755
I4
sS'RP_tot'
p3756
I7
sS'P'
p3757
I5
sS'PA'
p3758
I9
sS'M'
p3759
I8
sS'R'
p3760
I7
sS'TB'
p3761
I4
sS'PL'
p3762
I8
sS'TA'
p3763
I6
ssg113
g3732
sg239
I0
sg56
g31
sg240
I0
sg241
I0
sg242
I0
sg243
I2
sg244
I1
sg245
I1
sg246
S'HE'
p3764
sbssg210
I4
sg211
I0
sg212
I0
sg213
I0
sg131
F9.941176470588236
sg214
I0
sg218
I0
sg219
I2
sg220
(dp3765
S'A'
p3766
I12
sS'ME'
p3767
I7
sS'RP2'
p3768
I6
sS'E'
p3769
I10
sS'P'
p3770
I5
sS'RP1'
p3771
I7
sS'JP'
p3772
I4
sS'RP_tot'
p3773
I7
sS'TO'
p3774
I13
sS'PA'
p3775
I9
sS'M'
p3776
I8
sS'R'
p3777
I7
sS'TB'
p3778
I4
sS'PL'
p3779
I8
sS'TA'
p3780
I6
ssg113
g3687
sg239
I0
sg56
g31
sg240
I0
sg241
I0
sg242
I0
sg243
I2
sg244
I1
sg245
I1
sg246
S'HE'
p3781
sbsS's11'
p3782
(ijoueur
joueur
p3783
(dp3784
g28
I0
sg32
I0
sg34
I0
sg35
g36
(g37
g38
Ntp3785
Rp3786
(dp3787
g42
I2
sg43
S'^^'
p3788
sg45
S'special'
p3789
sbsg47
(dp3790
S'SR'
p3791
I0
sS'ST'
p3792
I0
sS'CR'
p3793
I0
sS'CT'
p3794
I0
ssg53
(dp3795
g3791
I0
sg3792
I0
sg3793
I0
sg3794
I0
ssg1792
I0
sg57
I0
sg59
I01
sg60
I1
sg61
I0
sg62
I0
sg63
(S'dummy'
p3796
S'DL'
p3797
S'TL'
p3798
g31
tp3799
sg68
I00
sg69
g36
(g37
g38
Ntp3800
Rp3801
(dp3802
g42
I2
sg43
S'^^'
p3803
sg45
g3789
sbsg74
(dp3804
g3791
I0
sg3792
I0
sg3793
I0
sg3794
I15
ssg80
(dp3805
g3791
I0
sg3792
I0
sg3793
I0
sg3794
I0
ssg82
(dp3806
g3791
I0
sg3792
I0
sg3793
I0
sg3794
I0
ssg84
(dp3807
g3791
I0
sg3792
I0
sg3793
I0
sg3794
I15
ssg86
I0
sg87
I0
sg88
S'Daef (11)'
p3808
sg90
I9
sg91
I0
sg92
I20
sg93
I19
sg94
S'APA'
p3809
sg96
(dp3810
S'A'
p3811
I12
sS'ME'
p3812
I7
sS'RP2'
p3813
I6
sS'E'
p3814
I10
sS'TO'
p3815
I13
sS'RP1'
p3816
I7
sS'JP'
p3817
I4
sS'RP_tot'
p3818
I7
sS'P'
p3819
I5
sS'PA'
p3820
I9
sS'M'
p3821
I8
sS'R'
p3822
I7
sS'TB'
p3823
I4
sS'PL'
p3824
I8
sS'TA'
p3825
I6
ssg210
I0
sg211
I0
sg212
I0
sg213
I0
sg131
F9.088235294117647
sg214
I0
sg218
I0
sg219
I1
sg220
(dp3826
S'A'
p3827
I12
sS'ME'
p3828
I7
sS'RP2'
p3829
I6
sS'E'
p3830
I10
sS'TO'
p3831
I13
sS'RP1'
p3832
I7
sS'JP'
p3833
I4
sS'RP_tot'
p3834
I7
sS'P'
p3835
I5
sS'PA'
p3836
I9
sS'M'
p3837
I8
sS'R'
p3838
I7
sS'TB'
p3839
I4
sS'PL'
p3840
I8
sS'TA'
p3841
I6
ssg113
g3810
sg239
I0
sg56
g31
sg240
I0
sg241
I0
sg242
I0
sg243
I2
sg244
I1
sg245
I1
sg246
S'HE'
p3842
sbssg210
I0
sg211
I0
sg212
I0
sg213
I0
sg80
(dp3843
g2243
I0
sg2244
I0
sg2245
I0
sg2246
I0
ssg214
I0
sg218
I0
sg219
I2
sg220
(dp3844
S'A'
p3845
I12
sS'ME'
p3846
I7
sS'RP2'
p3847
I6
sS'E'
p3848
I10
sS'P'
p3849
I5
sS'RP1'
p3850
I7
sS'JP'
p3851
I4
sS'RP_tot'
p3852
I7
sS'TO'
p3853
I13
sS'PA'
p3854
I9
sS'M'
p3855
I8
sS'R'
p3856
I7
sS'TB'
p3857
I4
sS'PL'
p3858
I8
sS'TA'
p3859
I6
ssg113
(dp3860
g3640
I11
sg3641
I8
sg3642
I6
sg3643
I10
sg3648
I13
sg3645
I8
sg3646
I4
sg3647
I8
sg3644
I5
sg3649
I9
sg3650
I8
sg3651
I10
sg3652
I4
sg3653
I8
sg3654
I6
ssg239
I0
sg352
(dp3861
sg240
I0
sg56
S'APA 13'
p3862
sg241
I0
sg242
I0
sg243
I6
sg244
I1
sg245
I0
sg246
S'HE'
p3863
sbsS'n22'
p3864
(ijoueur
joueur
p3865
(dp3866
g28
I0
sg29
F9.161290322580646
sg30
g31
sg32
I0
sg33
F21.044194435073877
sg2739
g31
sg34
I0
sg2740
g31
sg35
g36
(g37
g38
Ntp3867
Rp3868
(dp3869
g42
I1
sg43
S'^'
p3870
sg45
S'base'
p3871
sbsg47
(dp3872
S'SR'
p3873
I0
sS'CT'
p3874
I0
sS'CR'
p3875
I0
sS'ST'
p3876
I0
ssg53
(dp3877
g3873
I0
sg3874
I0
sg3875
I0
sg3876
I0
ssg55
I0
sg56
g31
sg131
F9.129032258064516
sg57
I0
sg58
F21.044194435073877
sg60
I0
sg61
I0
sg62
I0
sg94
g2250
sg68
I00
sg69
g3868
sg74
(dp3878
g2243
I0
sg2244
I0
sg2245
I2
sg2246
I0
ssg59
I00
sg82
(dp3879
g2243
I0
sg2244
I0
sg2245
I0
sg2246
I0
ssg84
(dp3880
g3873
I0
sg3874
I2
sg3875
I8
sg3876
I0
ssg86
I0
sg87
I0
sg88
S'Guenhir'
p3881
sg90
I12
sg91
I0
sg92
I23
sg93
I46
sg63
(S'dummy'
p3882
S'AI'
p3883
g31
g31
tp3884
sg2768
g31
sg96
(dp3885
S'RP1'
p3886
I5
sS'ME'
p3887
I3
sS'RP2'
p3888
I8
sS'E'
p3889
I11
sS'TO'
p3890
I4
sS'M'
p3891
I11
sS'JP'
p3892
I6
sS'RP_tot'
p3893
I8
sS'P'
p3894
I8
sS'PA'
p3895
I8
sS'A'
p3896
I10
sS'R'
p3897
I6
sS'TB'
p3898
I6
sS'PL'
p3899
I8
sS'TA'
p3900
I4
ssg115
(dp3901
g2269
(ijoueur
joueur
p3902
(dp3903
g28
I0
sg30
g31
sg32
I0
sg2739
g31
sg34
I0
sg2740
g31
sg35
g36
(g37
g38
Ntp3904
Rp3905
(dp3906
g42
I1
sg43
S'^'
p3907
sg45
S'base'
p3908
sbsg47
(dp3909
S'SR'
p3910
I0
sS'CT'
p3911
I0
sS'CR'
p3912
I0
sS'ST'
p3913
I0
ssg53
(dp3914
g3910
I0
sg3911
I0
sg3912
I0
sg3913
I0
ssg80
(dp3915
g3910
I0
sg3911
I0
sg3912
I0
sg3913
I0
ssg56
g31
sg57
I0
sg60
I0
sg61
I0
sg62
I0
sg94
g2301
sg68
I00
sg69
g3905
sg74
(dp3916
g3910
I0
sg3911
I2
sg3912
I6
sg3913
I0
ssg59
I01
sg82
(dp3917
g3910
I0
sg3911
I0
sg3912
I0
sg3913
I0
ssg84
(dp3918
g3910
I0
sg3911
I2
sg3912
I6
sg3913
I0
ssg86
I0
sg87
I0
sg88
S'Guenhir'
p3919
sg90
I12
sg91
I0
sg92
I23
sg93
I46
sg63
(S'dummy'
p3920
S'AI'
p3921
g31
g31
tp3922
sg2768
g31
sg96
(dp3923
S'RP1'
p3924
I6
sS'ME'
p3925
I3
sS'RP2'
p3926
I8
sS'E'
p3927
I11
sS'P'
p3928
I8
sS'JP'
p3929
I7
sS'M'
p3930
I11
sS'RP_tot'
p3931
I8
sS'TO'
p3932
I4
sS'PA'
p3933
I8
sS'A'
p3934
I10
sS'R'
p3935
I6
sS'TB'
p3936
I6
sS'PL'
p3937
I8
sS'TA'
p3938
I4
ssg115
(dp3939
sg210
I0
sg211
I0
sg212
I0
sg213
I0
sg131
F9.161290322580646
sg214
I0
sg218
I0
sg219
I0
sg113
g3923
sg239
I0
sg240
I0
sg241
I0
sg242
I0
sg243
I4
sg244
I0
sg245
I0
sg246
S'ES'
p3940
sbssg210
I0
sg211
I0
sg212
I0
sg213
I0
sg80
(dp3941
g2243
I0
sg2244
I0
sg2245
I0
sg2246
I0
ssg214
I0
sg218
I0
sg219
I0
sg113
(dp3942
g3886
I5
sg3887
I3
sg3888
I8
sg3889
I11
sg3894
I8
sg3892
I6
sg3891
I11
sg3893
I8
sg3890
I4
sg3895
I8
sg3896
I10
sg3897
I6
sg3898
I6
sg3899
I8
sg3900
I4
ssg239
I0
sg352
(dp3943
sg240
I0
sg241
I0
sg242
I0
sg243
I4
sg244
I0
sg245
I0
sg246
S'ES'
p3944
sbsS'n21'
p3945
(ijoueur
joueur
p3946
(dp3947
g28
I0
sg211
I0
sg32
I0
sg33
F10.17972143444891
sg2739
g31
sg34
I0
sg2740
g31
sg35
g36
(g37
g38
Ntp3948
Rp3949
(dp3950
g42
I1
sg43
S'^'
p3951
sg45
S'base'
p3952
sbsg47
(dp3953
S'SR'
p3954
I0
sS'CT'
p3955
I1
sS'CR'
p3956
I0
sS'ST'
p3957
I0
ssg53
(dp3958
g3954
I0
sg3955
I0
sg3956
I0
sg3957
I0
ssg55
I0
sg92
I23
sg56
g31
sg57
I0
sg58
F10.17972143444891
sg60
I0
sg61
I0
sg62
I0
sg94
g2250
sg68
I00
sg69
g3949
sg74
(dp3959
g3954
I0
sg3955
I0
sg3956
I0
sg3957
I0
ssg59
I00
sg82
(dp3960
g3954
I0
sg3955
I0
sg3956
I0
sg3957
I0
ssg84
(dp3961
g3954
I0
sg3955
I0
sg3956
I0
sg3957
I0
ssg86
I0
sg87
I0
sg88
S'Nayietal'
p3962
sg90
I13
sg91
I0
sg80
(dp3963
g3954
I0
sg3955
I1
sg3956
I0
sg3957
I0
ssg93
I48
sg63
(S'dummy'
p3964
S'C1'
p3965
S'DO'
p3966
g31
tp3967
sg2768
g31
sg96
(dp3968
S'RP1'
p3969
I7
sS'ME'
p3970
I4
sS'RP2'
p3971
I7
sS'E'
p3972
I9
sS'TO'
p3973
I5
sS'M'
p3974
I10
sS'JP'
p3975
I8
sS'RP_tot'
p3976
I8
sS'P'
p3977
I9
sS'PA'
p3978
I11
sS'A'
p3979
I10
sS'R'
p3980
I6
sS'TB'
p3981
I9
sS'PL'
p3982
I8
sS'TA'
p3983
I3
ssg210
I0
sg30
g31
sg212
I0
sg213
I0
sg131
F8.9375
sg214
I0
sg218
I0
sg219
I0
sg113
(dp3984
g3969
I7
sg3970
I4
sg3971
I7
sg3972
I9
sg3977
I9
sg3975
I8
sg3974
I10
sg3976
I8
sg3973
I5
sg3978
I11
sg3979
I10
sg3980
I6
sg3981
I9
sg3982
I8
sg3983
I3
ssg239
I0
sg240
I0
sg241
I0
sg242
I0
sg243
I4
sg244
I0
sg245
I0
sg246
S'ES'
p3985
sbsS'n20'
p3986
(ijoueur
joueur
p3987
(dp3988
g27
F9.225806451612904
sg28
I0
sg29
F9.137931034482758
sg30
g31
sg32
I0
sg33
F53.03808272194353
sg34
I0
sg35
g36
(g37
g38
Ntp3989
Rp3990
(dp3991
g42
I2
sg43
S'^^'
p3992
sg45
g2043
sbsg47
(dp3993
g364
I0
sg365
I0
sg366
I0
sg367
I0
ssg53
(dp3994
g364
I0
sg365
I0
sg366
I0
sg367
I0
ssg55
I0
sg56
g31
sg57
I0
sg58
F53.03808272194353
sg59
I00
sg60
I0
sg61
I0
sg62
I0
sg63
(g369
S'DM'
p3995
g31
g31
tp3996
sg68
I00
sg69
g36
(g37
g38
Ntp3997
Rp3998
(dp3999
g42
I2
sg43
S'^^'
p4000
sg45
g2043
sbsg74
(dp4001
g377
I0
sg378
I0
sg379
I4
sg380
I1
ssg80
(dp4002
g377
I0
sg378
I0
sg379
I0
sg380
I0
ssg82
(dp4003
g377
I0
sg378
I0
sg379
I0
sg380
I0
ssg84
(dp4004
g364
I0
sg365
I0
sg366
I19
sg367
I7
ssg86
I3
sg87
I0
sg88
S'Befendal'
p4005
sg90
I8
sg91
I1
sg92
I18
sg93
I15
sg94
g385
sg96
(dp4006
g387
I12
sg388
I3
sg389
I6
sg390
I9
sg391
I9
sg392
I5
sg393
I6
sg394
I6
sg395
I6
sg396
I13
sg397
I8
sg398
I4
sg399
I9
sg400
I8
sg401
I4
ssg113
(dp4007
g387
I12
sg388
I3
sg389
I6
sg390
I9
sg395
I6
sg392
I5
sg393
I6
sg394
I6
sg391
I9
sg396
I13
sg397
I8
sg398
I4
sg399
I9
sg400
I8
sg401
I4
ssg115
(dp4008
g404
(ijoueur
joueur
p4009
(dp4010
g27
F9.225806451612904
sg28
I0
sg30
g31
sg32
I0
sg34
I0
sg35
g36
(g37
g38
Ntp4011
Rp4012
(dp4013
g42
I2
sg43
S'^^'
p4014
sg45
g2067
sbsg47
(dp4015
g413
I0
sg414
I0
sg415
I0
sg416
I0
ssg53
(dp4016
g413
I0
sg414
I0
sg415
I0
sg416
I0
ssg56
g31
sg131
F9.137931034482758
sg57
I0
sg60
I0
sg61
I0
sg62
I0
sg63
(g418
S'DM'
p4017
g31
g31
tp4018
sg68
I00
sg69
g36
(g37
g38
Ntp4019
Rp4020
(dp4021
g42
I2
sg43
S'^^'
p4022
sg45
g2067
sbsg74
(dp4023
g426
I0
sg427
I4
sg428
I10
sg429
I0
ssg59
I01
sg82
(dp4024
g426
I0
sg427
I0
sg428
I0
sg429
I0
ssg84
(dp4025
g413
I0
sg414
I0
sg415
I15
sg416
I6
ssg86
I3
sg87
I0
sg88
S'Befendal'
p4026
sg90
I8
sg91
I1
sg92
I18
sg93
I15
sg94
g433
sg96
(dp4027
g435
I12
sg436
I3
sg437
I6
sg438
I9
sg439
I6
sg440
I5
sg441
I6
sg442
I6
sg443
I9
sg444
I13
sg445
I8
sg446
I4
sg447
I9
sg448
I8
sg449
I4
ssg113
g4027
sg115
(dp4028
g451
(ijoueur
joueur
p4029
(dp4030
g28
I0
sg32
I0
sg34
I0
sg35
g36
(g37
g38
Ntp4031
Rp4032
(dp4033
g42
I2
sg43
S'^^'
p4034
sg45
S'special'
p4035
sbsg47
(dp4036
S'SR'
p4037
I0
sS'CT'
p4038
I0
sS'CR'
p4039
I0
sS'ST'
p4040
I0
ssg53
(dp4041
g4037
I0
sg4038
I0
sg4039
I0
sg4040
I0
ssg56
g31
sg57
I0
sg59
I01
sg60
I0
sg61
I0
sg62
I1
sg63
(S'dummy'
p4042
S'DM'
p4043
g31
g31
tp4044
sg68
I00
sg69
g36
(g37
g38
Ntp4045
Rp4046
(dp4047
g42
I2
sg43
S'^^'
p4048
sg45
g4035
sbsg74
(dp4049
g4037
I0
sg4038
I2
sg4039
I5
sg4040
I0
ssg80
(dp4050
g4037
I0
sg4038
I0
sg4039
I0
sg4040
I0
ssg82
(dp4051
g4037
I0
sg4038
I0
sg4039
I0
sg4040
I0
ssg84
(dp4052
g4037
I0
sg4038
I2
sg4039
I5
sg4040
I0
ssg86
I3
sg87
I3
sg88
S'Befendal'
p4053
sg90
I8
sg91
I1
sg92
I18
sg93
I15
sg94
S'AL'
p4054
sg96
(dp4055
S'A'
p4056
I12
sS'ME'
p4057
I3
sS'RP2'
p4058
I6
sS'E'
p4059
I10
sS'P'
p4060
I8
sS'RP1'
p4061
I5
sS'JP'
p4062
I6
sS'RP_tot'
p4063
I6
sS'TO'
p4064
I6
sS'PA'
p4065
I12
sS'M'
p4066
I9
sS'R'
p4067
I4
sS'TB'
p4068
I10
sS'PL'
p4069
I9
sS'TA'
p4070
I4
ssg113
g4055
sg210
I0
sg211
I0
sg212
I0
sg213
I0
sg131
F9.225806451612904
sg214
I0
sg215
(lp4071
S'EV'
p4072
asg218
I0
sg219
I0
sg220
(dp4073
S'A'
p4074
I12
sS'ME'
p4075
I3
sS'RP2'
p4076
I6
sS'E'
p4077
I10
sS'P'
p4078
I8
sS'RP1'
p4079
I5
sS'JP'
p4080
I6
sS'RP_tot'
p4081
I6
sS'TO'
p4082
I6
sS'PA'
p4083
I12
sS'M'
p4084
I9
sS'R'
p4085
I4
sS'TB'
p4086
I10
sS'PL'
p4087
I9
sS'TA'
p4088
I4
ssg237
(lp4089
sg239
I0
sg240
I1
sg241
I0
sg242
I1
sg243
I2
sg244
I2
sg245
I0
sg246
S'ES'
p4090
sbssg210
I5
sg211
I0
sg212
I1
sg213
I0
sg80
(dp4091
g426
I0
sg427
I0
sg428
I0
sg429
I0
ssg214
I0
sg215
(lp4092
g516
asg218
I1
sg219
I0
sg220
(dp4093
g518
I12
sg519
I3
sg520
I6
sg521
I10
sg522
I6
sg523
I5
sg524
I6
sg525
I6
sg526
I8
sg527
I12
sg528
I9
sg529
I4
sg530
I10
sg531
I9
sg532
I4
ssg237
(lp4094
sg239
I0
sg240
I1
sg241
I0
sg242
I0
sg243
I2
sg244
I2
sg245
I0
sg246
S'ES'
p4095
sbsg535
(ijoueur
joueur
p4096
(dp4097
g28
I0
sg32
I0
sg34
I0
sg35
g36
(g37
g38
Ntp4098
Rp4099
(dp4100
g42
I2
sg43
S'^^'
p4101
sg45
S'special'
p4102
sbsg47
(dp4103
S'SR'
p4104
I0
sS'CT'
p4105
I0
sS'CR'
p4106
I0
sS'ST'
p4107
I0
ssg53
(dp4108
g4104
I0
sg4105
I0
sg4106
I0
sg4107
I0
ssg56
g31
sg57
I0
sg59
I01
sg60
I0
sg61
I0
sg62
I1
sg63
(S'dummy'
p4109
S'DM'
p4110
g31
g31
tp4111
sg68
I00
sg69
g36
(g37
g38
Ntp4112
Rp4113
(dp4114
g42
I2
sg43
S'^^'
p4115
sg45
g4102
sbsg74
(dp4116
g4104
I0
sg4105
I2
sg4106
I5
sg4107
I0
ssg80
(dp4117
g4104
I0
sg4105
I0
sg4106
I0
sg4107
I0
ssg82
(dp4118
g4104
I0
sg4105
I0
sg4106
I0
sg4107
I0
ssg84
(dp4119
g4104
I0
sg4105
I2
sg4106
I5
sg4107
I0
ssg86
I3
sg87
I3
sg88
S'Befendal'
p4120
sg90
I8
sg91
I1
sg92
I18
sg93
I15
sg94
S'AL'
p4121
sg96
(dp4122
S'A'
p4123
I12
sS'ME'
p4124
I3
sS'RP2'
p4125
I6
sS'E'
p4126
I10
sS'P'
p4127
I8
sS'RP1'
p4128
I5
sS'JP'
p4129
I6
sS'RP_tot'
p4130
I6
sS'TO'
p4131
I6
sS'PA'
p4132
I12
sS'M'
p4133
I9
sS'R'
p4134
I4
sS'TB'
p4135
I10
sS'PL'
p4136
I9
sS'TA'
p4137
I4
ssg113
g4122
sg210
I0
sg211
I0
sg212
I0
sg213
I0
sg131
F9.225806451612904
sg214
I0
sg215
(lp4138
S'EV'
p4139
asg218
I0
sg219
I0
sg220
(dp4140
S'A'
p4141
I12
sS'ME'
p4142
I3
sS'RP2'
p4143
I6
sS'E'
p4144
I10
sS'P'
p4145
I8
sS'RP1'
p4146
I5
sS'JP'
p4147
I6
sS'RP_tot'
p4148
I6
sS'TO'
p4149
I6
sS'PA'
p4150
I12
sS'M'
p4151
I9
sS'R'
p4152
I4
sS'TB'
p4153
I10
sS'PL'
p4154
I9
sS'TA'
p4155
I4
ssg237
(lp4156
sg239
I0
sg240
I1
sg241
I0
sg242
I1
sg243
I2
sg244
I2
sg245
I0
sg246
S'ES'
p4157
sbssg210
I4
sg211
I0
sg212
I1
sg213
I0
sg131
F9.137931034482758
sg214
I0
sg215
(lp4158
g599
asg218
I0
sg219
I0
sg220
(dp4159
g601
I12
sg602
I3
sg603
I6
sg604
I10
sg605
I6
sg606
I5
sg607
I6
sg608
I6
sg609
I8
sg610
I12
sg611
I9
sg612
I4
sg613
I10
sg614
I9
sg615
I4
ssg237
(lp4160
sg239
I0
sg352
(dp4161
sg240
I1
sg241
I0
sg242
I0
sg243
I2
sg244
I2
sg245
I0
sg246
S'ES'
p4162
sbsS'n8'
p4163
(ijoueur
joueur
p4164
(dp4165
g27
F9.555555555555555
sg28
I0
sg29
F10.055555555555555
sg30
g31
sg32
I0
sg33
F53.03808272194353
sg34
I0
sg35
g36
(g37
g38
Ntp4166
Rp4167
(dp4168
g42
I2
sg43
S'^^'
p4169
sg45
g2226
sbsg47
(dp4170
g2228
I0
sg2229
I0
sg2230
I13
sg2231
I7
ssg53
(dp4171
g2228
I0
sg2229
I0
sg2230
I0
sg2231
I0
ssg55
I0
sg56
g31
sg131
F10.444444444444445
sg57
I0
sg58
F53.03808272194353
sg60
I0
sg61
I0
sg62
I0
sg63
(g2234
S'N8'
p4172
S'TL'
p4173
g31
tp4174
sg68
I00
sg69
g36
(g37
g38
Ntp4175
Rp4176
(dp4177
g42
I2
sg43
S'^^'
p4178
sg45
g2226
sbsg74
(dp4179
g2243
I0
sg2244
I0
sg2245
I1
sg2246
I1
ssg59
I00
sg82
(dp4180
g2243
I0
sg2244
I0
sg2245
I0
sg2246
I0
ssg84
(dp4181
g2228
I0
sg2229
I0
sg2230
I8
sg2231
I3
ssg86
I0
sg87
I0
sg88
S'Vlenael'
p4182
sg90
I11
sg91
I0
sg92
I23
sg93
I17
sg94
g2250
sg96
(dp4183
g2252
I11
sg2253
I6
sg2254
I7
sg2255
I11
sg2256
I5
sg2257
I7
sg2258
I5
sg2259
I8
sg2260
I15
sg2261
I9
sg2262
I9
sg2263
I9
sg2264
I5
sg2265
I11
sg2266
I4
ssg113
(dp4184
g2252
I11
sg2253
I6
sg2254
I7
sg2255
I11
sg2260
I15
sg2257
I7
sg2258
I5
sg2259
I8
sg2256
I5
sg2261
I9
sg2262
I9
sg2263
I9
sg2264
I5
sg2265
I11
sg2266
I4
ssg115
(dp4185
g2269
(ijoueur
joueur
p4186
(dp4187
g27
F9.555555555555555
sg28
I0
sg30
g31
sg32
I0
sg34
I0
sg35
g36
(g37
g38
Ntp4188
Rp4189
(dp4190
g42
I2
sg43
S'^^'
p4191
sg45
g2276
sbsg47
(dp4192
g2278
I0
sg2279
I0
sg2280
I10
sg2281
I7
ssg53
(dp4193
g2278
I0
sg2279
I0
sg2280
I0
sg2281
I0
ssg80
(dp4194
g2284
I0
sg2285
I3
sg2286
I5
sg2287
I0
ssg56
g31
sg57
I0
sg60
I1
sg61
I0
sg62
I0
sg63
(g2289
S'N8'
p4195
S'TL'
p4196
g31
tp4197
sg68
I00
sg69
g36
(g37
g38
Ntp4198
Rp4199
(dp4200
g42
I2
sg43
S'^^'
p4201
sg45
g2276
sbsg74
(dp4202
g2284
I0
sg2285
I2
sg2286
I5
sg2287
I0
ssg59
I01
sg82
(dp4203
g2284
I0
sg2285
I0
sg2286
I0
sg2287
I0
ssg84
(dp4204
g2278
I0
sg2279
I0
sg2280
I7
sg2281
I2
ssg86
I0
sg87
I0
sg88
S'Vlenael (12)'
p4205
sg90
I11
sg91
I0
sg92
I23
sg93
I17
sg94
g2301
sg96
(dp4206
g2303
I10
sg2304
I6
sg2305
I7
sg2306
I11
sg2307
I15
sg2308
I7
sg2309
I5
sg2310
I8
sg2311
I5
sg2312
I9
sg2313
I8
sg2314
I9
sg2315
I5
sg2316
I10
sg2317
I4
ssg113
g4206
sg115
(dp4207
g2319
(ijoueur
joueur
p4208
(dp4209
g28
I0
sg32
I0
sg34
I0
sg35
g36
(g37
g38
Ntp4210
Rp4211
(dp4212
g42
I2
sg43
S'^^'
p4213
sg45
S'special'
p4214
sbsg47
(dp4215
S'SR'
p4216
I0
sS'CT'
p4217
I4
sS'CR'
p4218
I5
sS'ST'
p4219
I0
ssg53
(dp4220
g4216
I0
sg4217
I0
sg4218
I0
sg4219
I0
ssg56
g31
sg57
I0
sg59
I01
sg60
I0
sg61
I0
sg62
I0
sg63
(S'dummy'
p4221
S'N8'
p4222
S'TL'
p4223
g31
tp4224
sg68
I00
sg69
g36
(g37
g38
Ntp4225
Rp4226
(dp4227
g42
I2
sg43
S'^^'
p4228
sg45
g4214
sbsg74
(dp4229
g4216
I0
sg4217
I0
sg4218
I2
sg4219
I0
ssg80
(dp4230
g4216
I0
sg4217
I4
sg4218
I5
sg4219
I0
ssg82
(dp4231
g4216
I0
sg4217
I0
sg4218
I0
sg4219
I0
ssg84
(dp4232
g4216
I0
sg4217
I0
sg4218
I2
sg4219
I0
ssg86
I0
sg87
I0
sg88
S'Vlenael'
p4233
sg90
I11
sg91
I0
sg92
I23
sg93
I17
sg94
S'AL'
p4234
sg96
(dp4235
S'A'
p4236
I10
sS'ME'
p4237
I6
sS'RP2'
p4238
I7
sS'E'
p4239
I10
sS'P'
p4240
I5
sS'RP1'
p4241
I8
sS'JP'
p4242
I5
sS'RP_tot'
p4243
I8
sS'TO'
p4244
I13
sS'PA'
p4245
I9
sS'M'
p4246
I8
sS'R'
p4247
I9
sS'TB'
p4248
I5
sS'PL'
p4249
I9
sS'TA'
p4250
I4
ssg113
g4235
sg210
I0
sg211
I0
sg212
I1
sg213
I0
sg131
F9.555555555555555
sg214
I0
sg215
(lp4251
S'EV'
p4252
asg218
I1
sg219
I0
sg220
(dp4253
S'A'
p4254
I10
sS'ME'
p4255
I6
sS'RP2'
p4256
I7
sS'E'
p4257
I10
sS'P'
p4258
I5
sS'RP1'
p4259
I8
sS'JP'
p4260
I5
sS'RP_tot'
p4261
I8
sS'TO'
p4262
I13
sS'PA'
p4263
I9
sS'M'
p4264
I8
sS'R'
p4265
I9
sS'TB'
p4266
I5
sS'PL'
p4267
I9
sS'TA'
p4268
I4
ssg237
(lp4269
sg239
I0
sg240
I0
sg241
I0
sg242
I0
sg243
I2
sg244
I0
sg245
I0
sg246
S'ES'
p4270
sbssg210
I6
sg211
I0
sg212
I1
sg213
I0
sg131
F10.055555555555555
sg214
I0
sg215
(lp4271
g2385
asg218
I0
sg219
I0
sg220
(dp4272
g2387
I10
sg2388
I6
sg2389
I7
sg2390
I10
sg2391
I13
sg2392
I8
sg2393
I5
sg2394
I8
sg2395
I5
sg2396
I9
sg2397
I8
sg2398
I9
sg2399
I5
sg2400
I9
sg2401
I4
ssg237
(lp4273
sg239
I0
sg240
I0
sg241
I0
sg242
I0
sg243
I2
sg244
I1
sg245
I0
sg246
S'ES'
p4274
sbsg2404
(ijoueur
joueur
p4275
(dp4276
g28
I0
sg32
I0
sg34
I0
sg35
g36
(g37
g38
Ntp4277
Rp4278
(dp4279
g42
I2
sg43
S'^^'
p4280
sg45
S'special'
p4281
sbsg47
(dp4282
S'SR'
p4283
I0
sS'CT'
p4284
I4
sS'CR'
p4285
I5
sS'ST'
p4286
I0
ssg53
(dp4287
g4283
I0
sg4284
I0
sg4285
I0
sg4286
I0
ssg56
g31
sg57
I0
sg59
I01
sg60
I0
sg61
I0
sg62
I0
sg63
(S'dummy'
p4288
S'N8'
p4289
S'TL'
p4290
g31
tp4291
sg68
I00
sg69
g36
(g37
g38
Ntp4292
Rp4293
(dp4294
g42
I2
sg43
S'^^'
p4295
sg45
g4281
sbsg74
(dp4296
g4283
I0
sg4284
I0
sg4285
I2
sg4286
I0
ssg80
(dp4297
g4283
I0
sg4284
I4
sg4285
I5
sg4286
I0
ssg82
(dp4298
g4283
I0
sg4284
I0
sg4285
I0
sg4286
I0
ssg84
(dp4299
g4283
I0
sg4284
I0
sg4285
I2
sg4286
I0
ssg86
I0
sg87
I0
sg88
S'Vlenael (11)'
p4300
sg90
I11
sg91
I0
sg92
I23
sg93
I17
sg94
S'AL'
p4301
sg96
(dp4302
S'A'
p4303
I10
sS'ME'
p4304
I6
sS'RP2'
p4305
I7
sS'E'
p4306
I10
sS'P'
p4307
I5
sS'RP1'
p4308
I8
sS'JP'
p4309
I5
sS'RP_tot'
p4310
I9
sS'TO'
p4311
I13
sS'PA'
p4312
I9
sS'M'
p4313
I8
sS'R'
p4314
I9
sS'TB'
p4315
I5
sS'PL'
p4316
I9
sS'TA'
p4317
I4
ssg113
g4302
sg210
I0
sg211
I0
sg212
I1
sg213
I0
sg131
F9.555555555555555
sg214
I0
sg215
(lp4318
S'EV'
p4319
asg218
I1
sg219
I0
sg220
(dp4320
S'A'
p4321
I10
sS'ME'
p4322
I6
sS'RP2'
p4323
I7
sS'E'
p4324
I10
sS'P'
p4325
I5
sS'RP1'
p4326
I8
sS'JP'
p4327
I5
sS'RP_tot'
p4328
I8
sS'TO'
p4329
I13
sS'PA'
p4330
I9
sS'M'
p4331
I8
sS'R'
p4332
I9
sS'TB'
p4333
I5
sS'PL'
p4334
I9
sS'TA'
p4335
I4
ssg237
(lp4336
sg239
I0
sg240
I0
sg241
I0
sg242
I0
sg243
I2
sg244
I0
sg245
I0
sg246
S'ES'
p4337
sbssg210
I1
sg211
I0
sg212
I1
sg213
I0
sg80
(dp4338
g2243
I0
sg2244
I0
sg2245
I3
sg2246
I0
ssg214
I0
sg215
(lp4339
g2471
asg218
I0
sg219
I0
sg220
(dp4340
g2473
I10
sg2474
I6
sg2475
I7
sg2476
I10
sg2477
I13
sg2478
I8
sg2479
I5
sg2480
I8
sg2481
I5
sg2482
I9
sg2483
I8
sg2484
I9
sg2485
I5
sg2486
I9
sg2487
I4
ssg237
(lp4341
sg239
I0
sg352
(dp4342
sg240
I0
sg241
I0
sg242
I0
sg243
I2
sg244
I1
sg245
I0
sg246
S'ES'
p4343
sbsS'n9'
p4344
g871
sS'n1'
p4345
(ijoueur
joueur
p4346
(dp4347
g27
F8.25925925925926
sg28
I0
sg29
F9.852941176470589
sg30
g31
sg32
I0
sg33
F10.17972143444891
sg34
I0
sg35
g36
(g37
g38
Ntp4348
Rp4349
(dp4350
g42
I4
sg43
S'x'
p4351
sg45
S'heros'
p4352
sbsg47
(dp4353
g3003
I0
sg3004
I0
sg3005
I0
sg3006
I0
ssg53
(dp4354
g3003
I0
sg3004
I0
sg3005
I0
sg3006
I0
ssg55
I0
sg80
(dp4355
g2753
I0
sg2754
I0
sg2755
I0
sg2756
I0
ssg56
g31
sg57
I0
sg58
F10.17972143444891
sg60
I0
sg61
I0
sg62
I0
sg63
(g3010
S'PI'
p4356
g31
g31
tp4357
sg68
I00
sg69
g4349
sg74
(dp4358
g2753
I0
sg2754
I0
sg2755
I1
sg2756
I0
ssg59
I00
sg82
(dp4359
g2753
I0
sg2754
I0
sg2755
I0
sg2756
I0
ssg84
(dp4360
g3003
I0
sg3004
I0
sg3005
I6
sg3006
I5
ssg86
I0
sg87
I0
sg88
S'Jlopdair'
p4361
sg90
I11
sg91
I0
sg92
I26
sg93
I143
sg94
g2758
sg96
(dp4362
g3022
I12
sg3023
I10
sg3024
I7
sg3025
I10
sg3026
I7
sg3027
I9
sg3028
I7
sg3029
I9
sg3030
I11
sg3031
I12
sg3032
I12
sg3033
I6
sg3034
I7
sg3035
I9
sg3036
I7
ssg113
(dp4363
g3022
I12
sg3023
I10
sg3024
I7
sg3025
I10
sg3030
I11
sg3027
I9
sg3028
I7
sg3029
I9
sg3026
I7
sg3031
I12
sg3032
I12
sg3033
I6
sg3034
I7
sg3035
I9
sg3036
I7
ssg115
(dp4364
g2785
(ijoueur
joueur
p4365
(dp4366
g27
F8.25925925925926
sg28
I0
sg30
g31
sg32
I0
sg34
I0
sg35
g36
(g37
g38
Ntp4367
Rp4368
(dp4369
g42
I4
sg43
S'x'
p4370
sg45
S'heros'
p4371
sbsg47
(dp4372
g3047
I0
sg3048
I0
sg3049
I0
sg3050
I0
ssg53
(dp4373
g3047
I0
sg3048
I0
sg3049
I0
sg3050
I0
ssg56
g31
sg57
I0
sg59
I00
sg60
I0
sg61
I0
sg62
I0
sg63
(g3053
S'PI'
p4374
g31
g31
tp4375
sg68
I00
sg69
g4368
sg74
(dp4376
g2802
I0
sg2803
I0
sg2804
I4
sg2805
I2
ssg80
(dp4377
g2802
I0
sg2803
I0
sg2804
I0
sg2805
I0
ssg82
(dp4378
g2802
I0
sg2803
I0
sg2804
I0
sg2805
I0
ssg84
(dp4379
g3047
I0
sg3048
I0
sg3049
I5
sg3050
I5
ssg86
I0
sg87
I0
sg88
S'Jlopdair'
p4380
sg90
I11
sg91
I0
sg92
I26
sg93
I143
sg94
g2800
sg96
(dp4381
g3066
I12
sg3067
I10
sg3068
I8
sg3069
I11
sg3070
I11
sg3071
I9
sg3072
I7
sg3073
I10
sg3074
I7
sg3075
I12
sg3076
I12
sg3077
I6
sg3078
I7
sg3079
I10
sg3080
I7
ssg113
g4381
sg115
(dp4382
g2831
(ijoueur
joueur
p4383
(dp4384
g28
I0
sg32
I0
sg34
I0
sg35
g36
(g37
g38
Ntp4385
Rp4386
(dp4387
g42
I4
sg43
S'x'
p4388
sg45
S'heros'
p4389
sbsg47
(dp4390
S'SR'
p4391
I0
sS'CT'
p4392
I0
sS'CR'
p4393
I0
sS'ST'
p4394
I0
ssg53
(dp4395
g4391
I0
sg4392
I0
sg4393
I0
sg4394
I0
ssg56
g31
sg57
I0
sg59
I00
sg60
I1
sg61
I0
sg62
I0
sg63
(S'dummy'
p4396
S'PI'
p4397
g31
g31
tp4398
sg68
I00
sg69
g36
(g37
g38
Ntp4399
Rp4400
(dp4401
g42
I2
sg43
S'<<'
p4402
sg45
S'special'
p4403
sbsg74
(dp4404
g4391
I0
sg4392
I3
sg4393
I1
sg4394
I0
ssg80
(dp4405
g4391
I0
sg4392
I0
sg4393
I0
sg4394
I0
ssg82
(dp4406
g4391
I0
sg4392
I0
sg4393
I0
sg4394
I0
ssg84
(dp4407
g4391
I0
sg4392
I3
sg4393
I1
sg4394
I0
ssg86
I0
sg87
I0
sg88
S'Jlopdair'
p4408
sg90
I11
sg91
I0
sg92
I26
sg93
I48
sg94
S'AL'
p4409
sg96
(dp4410
S'A'
p4411
I9
sS'ME'
p4412
I9
sS'RP2'
p4413
I6
sS'E'
p4414
I10
sS'P'
p4415
I6
sS'RP1'
p4416
I8
sS'JP'
p4417
I5
sS'RP_tot'
p4418
I8
sS'TO'
p4419
I8
sS'PA'
p4420
I9
sS'M'
p4421
I11
sS'R'
p4422
I6
sS'TB'
p4423
I5
sS'PL'
p4424
I8
sS'TA'
p4425
I7
ssg113
g4410
sg210
I0
sg211
I0
sg212
I0
sg213
I0
sg131
F8.25925925925926
sg214
I0
sg215
(lp4426
S'EV'
p4427
asg218
I0
sg219
I1
sg220
(dp4428
S'A'
p4429
I9
sS'ME'
p4430
I9
sS'RP2'
p4431
I6
sS'E'
p4432
I10
sS'P'
p4433
I6
sS'RP1'
p4434
I8
sS'JP'
p4435
I5
sS'RP_tot'
p4436
I8
sS'TO'
p4437
I8
sS'PA'
p4438
I9
sS'M'
p4439
I11
sS'R'
p4440
I6
sS'TB'
p4441
I5
sS'PL'
p4442
I8
sS'TA'
p4443
I7
ssg237
(lp4444
sg239
I0
sg240
I0
sg241
I0
sg242
I0
sg243
I3
sg244
I1
sg245
I1
sg246
S'ES'
p4445
sbssg210
I0
sg211
I0
sg212
I1
sg213
I0
sg131
F9.852941176470589
sg214
I0
sg215
(lp4446
g3146
asg218
I1
sg219
I1
sg220
(dp4447
g3148
I9
sg3149
I9
sg3150
I6
sg3151
I10
sg3152
I8
sg3153
I8
sg3154
I5
sg3155
I8
sg3156
I6
sg3157
I9
sg3158
I11
sg3159
I6
sg3160
I5
sg3161
I8
sg3162
I7
ssg237
(lp4448
sg239
I0
sg240
I0
sg241
I0
sg242
I0
sg243
I12
sg244
I1
sg245
I0
sg246
S'ES'
p4449
sbsg2912
(ijoueur
joueur
p4450
(dp4451
g28
I0
sg32
I0
sg34
I0
sg35
g36
(g37
g38
Ntp4452
Rp4453
(dp4454
g42
I4
sg43
S'x'
p4455
sg45
S'heros'
p4456
sbsg47
(dp4457
S'SR'
p4458
I0
sS'CT'
p4459
I0
sS'CR'
p4460
I0
sS'ST'
p4461
I0
ssg53
(dp4462
g4458
I0
sg4459
I0
sg4460
I0
sg4461
I0
ssg56
g31
sg57
I0
sg59
I00
sg60
I1
sg61
I0
sg62
I0
sg63
(S'dummy'
p4463
S'PI'
p4464
g31
g31
tp4465
sg68
I00
sg69
g36
(g37
g38
Ntp4466
Rp4467
(dp4468
g42
I2
sg43
S'<<'
p4469
sg45
S'special'
p4470
sbsg74
(dp4471
g4458
I0
sg4459
I3
sg4460
I1
sg4461
I0
ssg80
(dp4472
g4458
I0
sg4459
I0
sg4460
I0
sg4461
I0
ssg82
(dp4473
g4458
I0
sg4459
I0
sg4460
I0
sg4461
I0
ssg84
(dp4474
g4458
I0
sg4459
I3
sg4460
I1
sg4461
I0
ssg86
I0
sg87
I0
sg88
S'Jlopdair'
p4475
sg90
I11
sg91
I0
sg92
I26
sg93
I48
sg94
S'AL'
p4476
sg96
(dp4477
S'A'
p4478
I9
sS'ME'
p4479
I9
sS'RP2'
p4480
I6
sS'E'
p4481
I10
sS'P'
p4482
I6
sS'RP1'
p4483
I8
sS'JP'
p4484
I5
sS'RP_tot'
p4485
I8
sS'TO'
p4486
I8
sS'PA'
p4487
I9
sS'M'
p4488
I11
sS'R'
p4489
I6
sS'TB'
p4490
I5
sS'PL'
p4491
I8
sS'TA'
p4492
I7
ssg113
g4477
sg210
I0
sg211
I0
sg212
I0
sg213
I0
sg131
F8.25925925925926
sg214
I0
sg215
(lp4493
S'EV'
p4494
asg218
I0
sg219
I1
sg220
(dp4495
S'A'
p4496
I9
sS'ME'
p4497
I9
sS'RP2'
p4498
I6
sS'E'
p4499
I10
sS'P'
p4500
I6
sS'RP1'
p4501
I8
sS'JP'
p4502
I5
sS'RP_tot'
p4503
I8
sS'TO'
p4504
I8
sS'PA'
p4505
I9
sS'M'
p4506
I11
sS'R'
p4507
I6
sS'TB'
p4508
I5
sS'PL'
p4509
I8
sS'TA'
p4510
I7
ssg237
(lp4511
sg239
I0
sg240
I0
sg241
I0
sg242
I0
sg243
I3
sg244
I1
sg245
I1
sg246
S'ES'
p4512
sbssg210
I0
sg211
I0
sg212
I1
sg213
I0
sg131
F9.5
sg214
I0
sg215
(lp4513
g3229
asg218
I0
sg219
I1
sg220
(dp4514
g3231
I9
sg3232
I9
sg3233
I6
sg3234
I10
sg3235
I8
sg3236
I8
sg3237
I5
sg3238
I8
sg3239
I6
sg3240
I9
sg3241
I11
sg3242
I6
sg3243
I5
sg3244
I8
sg3245
I7
ssg237
(lp4515
sg239
I0
sg352
(dp4516
sg240
I0
sg241
I0
sg242
I0
sg243
I12
sg244
I1
sg245
I0
sg246
S'ES'
p4517
sbsS'n2'
p4518
(ijoueur
joueur
p4519
(dp4520
g27
F10.333333333333334
sg28
I1
sg29
F10.62962962962963
sg30
g31
sg32
I0
sg33
F53.03808272194353
sg34
I0
sg35
g36
(g37
g38
Ntp4521
Rp4522
(dp4523
g42
I4
sg43
S'*'
p4524
sg45
g4352
sbsg47
(dp4525
g3003
I0
sg3004
I13
sg3005
I5
sg3006
I10
ssg53
(dp4526
g3003
I0
sg3004
I0
sg3005
I0
sg3006
I0
ssg55
I0
sg80
(dp4527
g2753
I0
sg2754
I0
sg2755
I5
sg2756
I0
ssg56
g31
sg57
I0
sg58
F53.03808272194353
sg60
I0
sg61
I0
sg62
I0
sg63
(g3010
S'PI'
p4528
S'TA'
p4529
g31
tp4530
sg68
I00
sg69
g36
(g37
g38
Ntp4531
Rp4532
(dp4533
g42
I4
sg43
S'*'
p4534
sg45
g4352
sbsg74
(dp4535
g2753
I0
sg2754
I0
sg2755
I0
sg2756
I0
ssg59
I00
sg82
(dp4536
g2753
I0
sg2754
I0
sg2755
I0
sg2756
I0
ssg84
(dp4537
g3003
I0
sg3004
I1
sg3005
I0
sg3006
I16
ssg86
I0
sg87
I0
sg88
S'Itanel'
p4538
sg90
I7
sg91
I0
sg92
I19
sg93
I70
sg94
g2758
sg96
(dp4539
g3022
I12
sg3023
I8
sg3024
I7
sg3025
I14
sg3026
I10
sg3027
I8
sg3028
I11
sg3029
I9
sg3030
I10
sg3031
I11
sg3032
I8
sg3033
I9
sg3034
I6
sg3035
I12
sg3036
I9
ssg113
(dp4540
g3022
I12
sg3023
I8
sg3024
I7
sg3025
I14
sg3030
I10
sg3027
I8
sg3028
I11
sg3029
I9
sg3026
I10
sg3031
I11
sg3032
I8
sg3033
I9
sg3034
I6
sg3035
I12
sg3036
I9
ssg115
(dp4541
g2785
(ijoueur
joueur
p4542
(dp4543
g27
F10.333333333333334
sg28
I1
sg30
g31
sg32
I0
sg34
I0
sg35
g36
(g37
g38
Ntp4544
Rp4545
(dp4546
g42
I4
sg43
S'*'
p4547
sg45
g4371
sbsg47
(dp4548
g3047
I0
sg3048
I13
sg3049
I0
sg3050
I10
ssg53
(dp4549
g3047
I0
sg3048
I0
sg3049
I0
sg3050
I0
ssg56
g31
sg57
I0
sg59
I01
sg60
I1
sg61
I0
sg62
I0
sg63
(g3053
S'PI'
p4550
S'TA'
p4551
g31
tp4552
sg68
I00
sg69
g36
(g37
g38
Ntp4553
Rp4554
(dp4555
g42
I4
sg43
S'*'
p4556
sg45
g4371
sbsg74
(dp4557
g2802
I0
sg2803
I1
sg2804
I0
sg2805
I13
ssg80
(dp4558
g2802
I0
sg2803
I5
sg2804
I0
sg2805
I0
ssg82
(dp4559
g2802
I0
sg2803
I0
sg2804
I0
sg2805
I0
ssg84
(dp4560
g3047
I0
sg3048
I1
sg3049
I0
sg3050
I16
ssg86
I0
sg87
I0
sg88
S'Itanel'
p4561
sg90
I7
sg91
I0
sg92
I19
sg93
I70
sg94
g2800
sg96
(dp4562
g3066
I12
sg3067
I10
sg3068
I7
sg3069
I14
sg3070
I10
sg3071
I8
sg3072
I10
sg3073
I8
sg3074
I9
sg3075
I11
sg3076
I8
sg3077
I9
sg3078
I6
sg3079
I13
sg3080
I9
ssg113
g4562
sg115
(dp4563
g2831
(ijoueur
joueur
p4564
(dp4565
g28
I1
sg32
I0
sg34
I0
sg35
g36
(g37
g38
Ntp4566
Rp4567
(dp4568
g42
I4
sg43
S'*'
p4569
sg45
S'heros'
p4570
sbsg47
(dp4571
S'SR'
p4572
I0
sS'CT'
p4573
I10
sS'CR'
p4574
I0
sS'ST'
p4575
I8
ssg53
(dp4576
g4572
I0
sg4573
I0
sg4574
I0
sg4575
I0
ssg56
g31
sg57
I0
sg59
I01
sg60
I2
sg61
I0
sg62
I0
sg63
(S'dummy'
p4577
S'PI'
p4578
S'TA'
p4579
g31
tp4580
sg68
I00
sg69
g36
(g37
g38
Ntp4581
Rp4582
(dp4583
g42
I4
sg43
S'*'
p4584
sg45
g4570
sbsg74
(dp4585
g4572
I0
sg4573
I3
sg4574
I0
sg4575
I0
ssg80
(dp4586
g4572
I0
sg4573
I10
sg4574
I0
sg4575
I8
ssg82
(dp4587
g4572
I0
sg4573
I0
sg4574
I0
sg4575
I0
ssg84
(dp4588
g4572
I0
sg4573
I3
sg4574
I0
sg4575
I0
ssg86
I0
sg87
I0
sg88
S'Itanel'
p4589
sg90
I7
sg91
I0
sg92
I19
sg93
I70
sg94
S'AL'
p4590
sg96
(dp4591
S'A'
p4592
I12
sS'ME'
p4593
I10
sS'RP2'
p4594
I7
sS'E'
p4595
I14
sS'P'
p4596
I10
sS'RP1'
p4597
I9
sS'JP'
p4598
I10
sS'RP_tot'
p4599
I9
sS'TO'
p4600
I10
sS'PA'
p4601
I11
sS'M'
p4602
I8
sS'R'
p4603
I7
sS'TB'
p4604
I6
sS'PL'
p4605
I13
sS'TA'
p4606
I10
ssg113
g4591
sg210
I0
sg211
I0
sg212
I1
sg213
I0
sg131
F10.333333333333334
sg214
I0
sg215
(lp4607
S'EV'
p4608
asg218
I1
sg219
I0
sg220
(dp4609
S'A'
p4610
I12
sS'ME'
p4611
I10
sS'RP2'
p4612
I7
sS'E'
p4613
I14
sS'P'
p4614
I10
sS'RP1'
p4615
I9
sS'JP'
p4616
I10
sS'RP_tot'
p4617
I9
sS'TO'
p4618
I10
sS'PA'
p4619
I11
sS'M'
p4620
I8
sS'R'
p4621
I7
sS'TB'
p4622
I6
sS'PL'
p4623
I13
sS'TA'
p4624
I10
ssg237
(lp4625
sg239
I1
sg240
I0
sg241
I0
sg242
I0
sg243
I7
sg244
I3
sg245
I0
sg246
S'ES'
p4626
sbssg210
I4
sg211
I0
sg212
I1
sg213
I0
sg131
F10.62962962962963
sg214
I0
sg215
(lp4627
g3146
asg218
I0
sg219
I1
sg220
(dp4628
g3148
I12
sg3149
I10
sg3150
I7
sg3151
I14
sg3152
I10
sg3153
I9
sg3154
I10
sg3155
I9
sg3156
I10
sg3157
I11
sg3158
I8
sg3159
I7
sg3160
I6
sg3161
I13
sg3162
I10
ssg237
(lp4629
sg239
I0
sg240
I0
sg241
I0
sg242
I0
sg243
I7
sg244
I4
sg245
I1
sg246
S'ES'
p4630
sbsg2912
(ijoueur
joueur
p4631
(dp4632
g28
I1
sg32
I0
sg34
I0
sg35
g36
(g37
g38
Ntp4633
Rp4634
(dp4635
g42
I4
sg43
S'*'
p4636
sg45
S'heros'
p4637
sbsg47
(dp4638
S'SR'
p4639
I0
sS'CT'
p4640
I10
sS'CR'
p4641
I0
sS'ST'
p4642
I8
ssg53
(dp4643
g4639
I0
sg4640
I0
sg4641
I0
sg4642
I0
ssg56
g31
sg57
I0
sg59
I01
sg60
I2
sg61
I0
sg62
I0
sg63
(S'dummy'
p4644
S'PI'
p4645
S'TA'
p4646
g31
tp4647
sg68
I00
sg69
g36
(g37
g38
Ntp4648
Rp4649
(dp4650
g42
I4
sg43
S'*'
p4651
sg45
g4637
sbsg74
(dp4652
g4639
I0
sg4640
I3
sg4641
I0
sg4642
I0
ssg80
(dp4653
g4639
I0
sg4640
I10
sg4641
I0
sg4642
I8
ssg82
(dp4654
g4639
I0
sg4640
I0
sg4641
I0
sg4642
I0
ssg84
(dp4655
g4639
I0
sg4640
I3
sg4641
I0
sg4642
I0
ssg86
I0
sg87
I0
sg88
S'Itanel'
p4656
sg90
I7
sg91
I0
sg92
I19
sg93
I70
sg94
S'AL'
p4657
sg96
(dp4658
S'A'
p4659
I12
sS'ME'
p4660
I10
sS'RP2'
p4661
I7
sS'E'
p4662
I14
sS'P'
p4663
I10
sS'RP1'
p4664
I9
sS'JP'
p4665
I10
sS'RP_tot'
p4666
I9
sS'TO'
p4667
I10
sS'PA'
p4668
I11
sS'M'
p4669
I8
sS'R'
p4670
I7
sS'TB'
p4671
I6
sS'PL'
p4672
I13
sS'TA'
p4673
I10
ssg113
g4658
sg210
I0
sg211
I0
sg212
I1
sg213
I0
sg131
F10.333333333333334
sg214
I0
sg215
(lp4674
S'EV'
p4675
asg218
I1
sg219
I0
sg220
(dp4676
S'A'
p4677
I12
sS'ME'
p4678
I10
sS'RP2'
p4679
I7
sS'E'
p4680
I14
sS'P'
p4681
I10
sS'RP1'
p4682
I9
sS'JP'
p4683
I10
sS'RP_tot'
p4684
I9
sS'TO'
p4685
I10
sS'PA'
p4686
I11
sS'M'
p4687
I8
sS'R'
p4688
I7
sS'TB'
p4689
I6
sS'PL'
p4690
I13
sS'TA'
p4691
I10
ssg237
(lp4692
sg239
I1
sg240
I0
sg241
I0
sg242
I0
sg243
I7
sg244
I3
sg245
I0
sg246
S'ES'
p4693
sbssg210
I2
sg211
I0
sg212
I1
sg213
I0
sg131
F10.25925925925926
sg214
I0
sg215
(lp4694
g3229
asg218
I0
sg219
I1
sg220
(dp4695
g3231
I12
sg3232
I10
sg3233
I7
sg3234
I14
sg3235
I10
sg3236
I9
sg3237
I10
sg3238
I9
sg3239
I10
sg3240
I11
sg3241
I8
sg3242
I7
sg3243
I6
sg3244
I13
sg3245
I10
ssg237
(lp4696
sg239
I0
sg352
(dp4697
sg240
I0
sg241
I0
sg242
I0
sg243
I7
sg244
I4
sg245
I0
sg246
S'ES'
p4698
sbsS'n3'
p4699
(ijoueur
joueur
p4700
(dp4701
g27
F8.517241379310345
sg28
I1
sg29
F9.911764705882353
sg30
S'TA -> PI : 13'
p4702
sg32
I0
sg33
F42.858361287494624
sg34
I0
sg35
g36
(g37
g38
Ntp4703
Rp4704
(dp4705
g42
I4
sg43
S'x'
p4706
sg45
g4352
sbsg47
(dp4707
g3003
I0
sg3004
I0
sg3005
I1
sg3006
I3
ssg53
(dp4708
g3003
I0
sg3004
I0
sg3005
I0
sg3006
I0
ssg55
I0
sg80
(dp4709
g2753
I0
sg2754
I0
sg2755
I0
sg2756
I0
ssg56
g31
sg57
I0
sg58
F42.858361287494624
sg60
I1
sg61
I0
sg62
I0
sg63
(S'dummy'
p4710
S'PI'
p4711
S'TA'
p4712
g31
tp4713
sg68
I00
sg69
g4704
sg74
(dp4714
g2753
I0
sg2754
I0
sg2755
I4
sg2756
I0
ssg59
I00
sg82
(dp4715
g2753
I0
sg2754
I0
sg2755
I0
sg2756
I0
ssg84
(dp4716
g3003
I0
sg3004
I0
sg3005
I20
sg3006
I5
ssg86
I0
sg87
I0
sg88
S'Enthael'
p4717
sg90
I11
sg91
I0
sg92
I25
sg93
I133
sg94
g2758
sg96
(dp4718
g3022
I13
sg3023
I10
sg3024
I6
sg3025
I8
sg3026
I6
sg3027
I9
sg3028
I6
sg3029
I9
sg3030
I10
sg3031
I12
sg3032
I8
sg3033
I6
sg3034
I5
sg3035
I14
sg3036
I7
ssg113
(dp4719
g3022
I13
sg3023
I10
sg3024
I6
sg3025
I8
sg3030
I10
sg3027
I9
sg3028
I6
sg3029
I9
sg3026
I6
sg3031
I12
sg3032
I8
sg3033
I6
sg3034
I5
sg3035
I14
sg3036
I7
ssg115
(dp4720
g2785
(ijoueur
joueur
p4721
(dp4722
g27
F8.517241379310345
sg28
I1
sg30
g31
sg32
I0
sg34
I0
sg35
g36
(g37
g38
Ntp4723
Rp4724
(dp4725
g42
I4
sg43
S'x'
p4726
sg45
g4371
sbsg47
(dp4727
g3047
I0
sg3048
I0
sg3049
I16
sg3050
I5
ssg53
(dp4728
g3047
I0
sg3048
I0
sg3049
I0
sg3050
I0
ssg56
g31
sg57
I0
sg59
I00
sg60
I0
sg61
I0
sg62
I0
sg63
(g3053
S'TA'
p4729
S'PI'
p4730
g31
tp4731
sg68
I00
sg69
g4724
sg74
(dp4732
g2802
I0
sg2803
I0
sg2804
I0
sg2805
I0
ssg80
(dp4733
g2802
I0
sg2803
I0
sg2804
I13
sg2805
I3
ssg82
(dp4734
g2802
I0
sg2803
I0
sg2804
I0
sg2805
I0
ssg84
(dp4735
g3047
I0
sg3048
I0
sg3049
I1
sg3050
I3
ssg86
I0
sg87
I0
sg88
S'Enthael'
p4736
sg90
I11
sg91
I0
sg92
I25
sg93
I133
sg94
g2800
sg96
(dp4737
g3066
I13
sg3067
I10
sg3068
I6
sg3069
I9
sg3070
I10
sg3071
I9
sg3072
I6
sg3073
I9
sg3074
I6
sg3075
I12
sg3076
I9
sg3077
I7
sg3078
I5
sg3079
I14
sg3080
I7
ssg113
g4737
sg115
(dp4738
g2831
(ijoueur
joueur
p4739
(dp4740
g28
I1
sg32
I0
sg34
I0
sg35
g36
(g37
g38
Ntp4741
Rp4742
(dp4743
g42
I4
sg43
S'x'
p4744
sg45
S'heros'
p4745
sbsg47
(dp4746
S'SR'
p4747
I0
sS'CT'
p4748
I2
sS'CR'
p4749
I3
sS'ST'
p4750
I0
ssg53
(dp4751
g4747
I0
sg4748
I0
sg4749
I0
sg4750
I0
ssg56
g31
sg57
I0
sg59
I00
sg60
I0
sg61
I0
sg62
I0
sg63
(S'dummy'
p4752
S'TA'
p4753
S'PI'
p4754
g31
tp4755
sg68
I00
sg69
g36
(g37
g38
Ntp4756
Rp4757
(dp4758
g42
I2
sg43
S'^^'
p4759
sg45
S'special'
p4760
sbsg74
(dp4761
g4747
I0
sg4748
I3
sg4749
I1
sg4750
I0
ssg80
(dp4762
g4747
I0
sg4748
I2
sg4749
I3
sg4750
I0
ssg82
(dp4763
g4747
I0
sg4748
I0
sg4749
I0
sg4750
I0
ssg84
(dp4764
g4747
I0
sg4748
I3
sg4749
I1
sg4750
I0
ssg86
I0
sg87
I0
sg88
S'Enthael'
p4765
sg90
I11
sg91
I0
sg92
I25
sg93
I33
sg94
S'AL'
p4766
sg96
(dp4767
S'A'
p4768
I10
sS'ME'
p4769
I9
sS'RP2'
p4770
I6
sS'E'
p4771
I9
sS'P'
p4772
I4
sS'RP1'
p4773
I8
sS'JP'
p4774
I4
sS'RP_tot'
p4775
I8
sS'TO'
p4776
I7
sS'PA'
p4777
I9
sS'M'
p4778
I9
sS'R'
p4779
I7
sS'TB'
p4780
I3
sS'PL'
p4781
I11
sS'TA'
p4782
I7
ssg113
g4767
sg210
I0
sg211
I0
sg212
I1
sg213
I0
sg131
F8.517241379310345
sg214
I0
sg215
(lp4783
S'EV'
p4784
asg218
I1
sg219
I1
sg220
(dp4785
S'A'
p4786
I10
sS'ME'
p4787
I9
sS'RP2'
p4788
I6
sS'E'
p4789
I9
sS'P'
p4790
I4
sS'RP1'
p4791
I8
sS'JP'
p4792
I4
sS'RP_tot'
p4793
I8
sS'TO'
p4794
I7
sS'PA'
p4795
I9
sS'M'
p4796
I9
sS'R'
p4797
I7
sS'TB'
p4798
I3
sS'PL'
p4799
I11
sS'TA'
p4800
I7
ssg237
(lp4801
sg239
I1
sg240
I0
sg241
I0
sg242
I0
sg243
I4
sg244
I0
sg245
I1
sg246
S'ES'
p4802
sbssg210
I0
sg211
I0
sg212
I1
sg213
I0
sg131
F9.482758620689655
sg214
I0
sg215
(lp4803
g3146
asg218
I0
sg219
I1
sg220
(dp4804
g3148
I10
sg3149
I9
sg3150
I6
sg3151
I9
sg3152
I7
sg3153
I8
sg3154
I4
sg3155
I8
sg3156
I4
sg3157
I9
sg3158
I9
sg3159
I7
sg3160
I3
sg3161
I11
sg3162
I7
ssg237
(lp4805
sg239
I0
sg240
I0
sg241
I0
sg242
I0
sg243
I13
sg244
I0
sg245
I0
sg246
S'ES'
p4806
sbsg2912
(ijoueur
joueur
p4807
(dp4808
g28
I1
sg32
I0
sg34
I0
sg35
g36
(g37
g38
Ntp4809
Rp4810
(dp4811
g42
I4
sg43
S'x'
p4812
sg45
S'heros'
p4813
sbsg47
(dp4814
S'SR'
p4815
I0
sS'CT'
p4816
I2
sS'CR'
p4817
I3
sS'ST'
p4818
I0
ssg53
(dp4819
g4815
I0
sg4816
I0
sg4817
I0
sg4818
I0
ssg56
g31
sg57
I0
sg59
I00
sg60
I0
sg61
I0
sg62
I0
sg63
(S'dummy'
p4820
S'TA'
p4821
S'PI'
p4822
g31
tp4823
sg68
I00
sg69
g36
(g37
g38
Ntp4824
Rp4825
(dp4826
g42
I2
sg43
S'^^'
p4827
sg45
S'special'
p4828
sbsg74
(dp4829
g4815
I0
sg4816
I3
sg4817
I1
sg4818
I0
ssg80
(dp4830
g4815
I0
sg4816
I2
sg4817
I3
sg4818
I0
ssg82
(dp4831
g4815
I0
sg4816
I0
sg4817
I0
sg4818
I0
ssg84
(dp4832
g4815
I0
sg4816
I3
sg4817
I1
sg4818
I0
ssg86
I0
sg87
I0
sg88
S'Enthael'
p4833
sg90
I11
sg91
I0
sg92
I25
sg93
I33
sg94
S'AL'
p4834
sg96
(dp4835
S'A'
p4836
I10
sS'ME'
p4837
I9
sS'RP2'
p4838
I6
sS'E'
p4839
I9
sS'P'
p4840
I4
sS'RP1'
p4841
I8
sS'JP'
p4842
I4
sS'RP_tot'
p4843
I8
sS'TO'
p4844
I7
sS'PA'
p4845
I9
sS'M'
p4846
I9
sS'R'
p4847
I7
sS'TB'
p4848
I3
sS'PL'
p4849
I11
sS'TA'
p4850
I7
ssg113
g4835
sg210
I0
sg211
I0
sg212
I1
sg213
I0
sg131
F8.517241379310345
sg214
I0
sg215
(lp4851
S'EV'
p4852
asg218
I1
sg219
I1
sg220
(dp4853
S'A'
p4854
I10
sS'ME'
p4855
I9
sS'RP2'
p4856
I6
sS'E'
p4857
I9
sS'P'
p4858
I4
sS'RP1'
p4859
I8
sS'JP'
p4860
I4
sS'RP_tot'
p4861
I8
sS'TO'
p4862
I7
sS'PA'
p4863
I9
sS'M'
p4864
I9
sS'R'
p4865
I7
sS'TB'
p4866
I3
sS'PL'
p4867
I11
sS'TA'
p4868
I7
ssg237
(lp4869
sg239
I1
sg240
I0
sg241
I0
sg242
I0
sg243
I4
sg244
I0
sg245
I1
sg246
S'ES'
p4870
sbssg210
I1
sg211
I0
sg212
I1
sg213
I0
sg131
F9.588235294117647
sg214
I0
sg215
(lp4871
g3229
asg218
I0
sg219
I1
sg220
(dp4872
g3231
I10
sg3232
I9
sg3233
I6
sg3234
I9
sg3235
I7
sg3236
I8
sg3237
I4
sg3238
I8
sg3239
I4
sg3240
I9
sg3241
I9
sg3242
I7
sg3243
I3
sg3244
I11
sg3245
I7
ssg237
(lp4873
sg239
I0
sg352
(dp4874
sg240
I0
sg241
I0
sg242
I0
sg243
I13
sg244
I1
sg245
I0
sg246
S'ES'
p4875
sbsS'n4'
p4876
(ijoueur
joueur
p4877
(dp4878
g27
F9.193548387096774
sg28
I1
sg29
F10.483870967741936
sg30
g31
sg32
I0
sg33
F42.858361287494624
sg34
I0
sg35
g36
(g37
g38
Ntp4879
Rp4880
(dp4881
g42
I2
sg43
S'^^'
p4882
sg45
g2043
sbsg47
(dp4883
g364
I0
sg365
I0
sg366
I16
sg367
I7
ssg53
(dp4884
g364
I0
sg365
I0
sg366
I0
sg367
I0
ssg55
I0
sg56
g31
sg57
I0
sg58
F42.858361287494624
sg59
I00
sg60
I0
sg61
I0
sg62
I0
sg63
(g369
S'TL'
p4885
S'DL'
p4886
g31
tp4887
sg68
I00
sg69
g36
(g37
g38
Ntp4888
Rp4889
(dp4890
g42
I2
sg43
S'^^'
p4891
sg45
g2043
sbsg74
(dp4892
g377
I0
sg378
I0
sg379
I0
sg380
I0
ssg80
(dp4893
g377
I0
sg378
I0
sg379
I0
sg380
I4
ssg82
(dp4894
g377
I0
sg378
I0
sg379
I0
sg380
I0
ssg84
(dp4895
g364
I0
sg365
I0
sg366
I1
sg367
I4
ssg86
I0
sg87
I0
sg88
S'Uflen'
p4896
sg90
I9
sg91
I0
sg92
I19
sg93
I23
sg94
g385
sg96
(dp4897
g387
I11
sg388
I9
sg389
I5
sg390
I9
sg391
I6
sg392
I6
sg393
I4
sg394
I6
sg395
I10
sg396
I9
sg397
I12
sg398
I12
sg399
I2
sg400
I14
sg401
I5
ssg113
(dp4898
g387
I11
sg388
I9
sg389
I5
sg390
I9
sg395
I10
sg392
I6
sg393
I4
sg394
I6
sg391
I6
sg396
I9
sg397
I12
sg398
I12
sg399
I2
sg400
I14
sg401
I5
ssg115
(dp4899
g404
(ijoueur
joueur
p4900
(dp4901
g27
F9.193548387096774
sg28
I1
sg30
g31
sg32
I0
sg34
I0
sg35
g36
(g37
g38
Ntp4902
Rp4903
(dp4904
g42
I2
sg43
S'^^'
p4905
sg45
g2067
sbsg47
(dp4906
g413
I0
sg414
I0
sg415
I16
sg416
I3
ssg53
(dp4907
g413
I0
sg414
I0
sg415
I0
sg416
I0
ssg56
g31
sg131
F10.483870967741936
sg57
I0
sg60
I0
sg61
I0
sg62
I0
sg63
(g418
S'TL'
p4908
S'DL'
p4909
g31
tp4910
sg68
I00
sg69
g36
(g37
g38
Ntp4911
Rp4912
(dp4913
g42
I2
sg43
S'^^'
p4914
sg45
g2067
sbsg74
(dp4915
g426
I0
sg427
I3
sg428
I0
sg429
I0
ssg59
I01
sg82
(dp4916
g426
I0
sg427
I0
sg428
I0
sg429
I0
ssg84
(dp4917
g413
I0
sg414
I0
sg415
I1
sg416
I4
ssg86
I0
sg87
I0
sg88
S'Uflen'
p4918
sg90
I9
sg91
I0
sg92
I19
sg93
I23
sg94
g433
sg96
(dp4919
g435
I11
sg436
I8
sg437
I5
sg438
I9
sg439
I9
sg440
I6
sg441
I4
sg442
I6
sg443
I6
sg444
I9
sg445
I12
sg446
I11
sg447
I2
sg448
I14
sg449
I5
ssg113
g4919
sg115
(dp4920
g451
(ijoueur
joueur
p4921
(dp4922
g28
I0
sg32
I0
sg34
I0
sg35
g36
(g37
g38
Ntp4923
Rp4924
(dp4925
g42
I2
sg43
S'^^'
p4926
sg45
S'special'
p4927
sbsg47
(dp4928
S'SR'
p4929
I0
sS'CT'
p4930
I0
sS'CR'
p4931
I5
sS'ST'
p4932
I0
ssg53
(dp4933
g4929
I0
sg4930
I0
sg4931
I0
sg4932
I0
ssg56
g31
sg57
I0
sg59
I01
sg60
I0
sg61
I0
sg62
I0
sg63
(S'dummy'
p4934
S'TL'
p4935
S'DL'
p4936
g31
tp4937
sg68
I00
sg69
g36
(g37
g38
Ntp4938
Rp4939
(dp4940
g42
I2
sg43
S'^^'
p4941
sg45
g4927
sbsg74
(dp4942
g4929
I0
sg4930
I1
sg4931
I1
sg4932
I0
ssg80
(dp4943
g4929
I0
sg4930
I0
sg4931
I5
sg4932
I0
ssg82
(dp4944
g4929
I0
sg4930
I0
sg4931
I0
sg4932
I0
ssg84
(dp4945
g4929
I0
sg4930
I1
sg4931
I1
sg4932
I0
ssg86
I0
sg87
I0
sg88
S'Uflen'
p4946
sg90
I9
sg91
I0
sg92
I19
sg93
I23
sg94
S'AL'
p4947
sg96
(dp4948
S'A'
p4949
I12
sS'ME'
p4950
I8
sS'RP2'
p4951
I5
sS'E'
p4952
I8
sS'P'
p4953
I6
sS'RP1'
p4954
I6
sS'JP'
p4955
I4
sS'RP_tot'
p4956
I6
sS'TO'
p4957
I9
sS'PA'
p4958
I9
sS'M'
p4959
I12
sS'R'
p4960
I8
sS'TB'
p4961
I2
sS'PL'
p4962
I12
sS'TA'
p4963
I5
ssg113
g4948
sg210
I0
sg211
I0
sg212
I0
sg213
I0
sg131
F9.193548387096774
sg214
I0
sg215
(lp4964
S'EV'
p4965
asg218
I0
sg219
I0
sg220
(dp4966
S'A'
p4967
I12
sS'ME'
p4968
I8
sS'RP2'
p4969
I5
sS'E'
p4970
I8
sS'P'
p4971
I6
sS'RP1'
p4972
I6
sS'JP'
p4973
I4
sS'RP_tot'
p4974
I6
sS'TO'
p4975
I9
sS'PA'
p4976
I9
sS'M'
p4977
I12
sS'R'
p4978
I8
sS'TB'
p4979
I2
sS'PL'
p4980
I12
sS'TA'
p4981
I5
ssg237
(lp4982
sg239
I0
sg240
I0
sg241
I0
sg242
I0
sg243
I4
sg244
I0
sg245
I0
sg246
S'ES'
p4983
sbssg210
I7
sg211
I0
sg212
I0
sg213
I0
sg80
(dp4984
g426
I0
sg427
I3
sg428
I11
sg429
I0
ssg214
I0
sg215
(lp4985
g516
asg218
I0
sg219
I0
sg220
(dp4986
g518
I12
sg519
I8
sg520
I5
sg521
I8
sg522
I9
sg523
I6
sg524
I4
sg525
I6
sg526
I6
sg527
I9
sg528
I12
sg529
I8
sg530
I2
sg531
I12
sg532
I5
ssg237
(lp4987
sg239
I1
sg240
I0
sg241
I0
sg242
I0
sg243
I4
sg244
I0
sg245
I0
sg246
S'ES'
p4988
sbsg535
(ijoueur
joueur
p4989
(dp4990
g28
I0
sg32
I0
sg34
I0
sg35
g36
(g37
g38
Ntp4991
Rp4992
(dp4993
g42
I2
sg43
S'^^'
p4994
sg45
S'special'
p4995
sbsg47
(dp4996
S'SR'
p4997
I0
sS'CT'
p4998
I0
sS'CR'
p4999
I5
sS'ST'
p5000
I0
ssg53
(dp5001
g4997
I0
sg4998
I0
sg4999
I0
sg5000
I0
ssg56
g31
sg57
I0
sg59
I01
sg60
I0
sg61
I0
sg62
I0
sg63
(S'dummy'
p5002
S'TL'
p5003
S'DL'
p5004
g31
tp5005
sg68
I00
sg69
g36
(g37
g38
Ntp5006
Rp5007
(dp5008
g42
I2
sg43
S'^^'
p5009
sg45
g4995
sbsg74
(dp5010
g4997
I0
sg4998
I1
sg4999
I1
sg5000
I0
ssg80
(dp5011
g4997
I0
sg4998
I0
sg4999
I5
sg5000
I0
ssg82
(dp5012
g4997
I0
sg4998
I0
sg4999
I0
sg5000
I0
ssg84
(dp5013
g4997
I0
sg4998
I1
sg4999
I1
sg5000
I0
ssg86
I0
sg87
I0
sg88
S'Uflen'
p5014
sg90
I9
sg91
I0
sg92
I19
sg93
I23
sg94
S'AL'
p5015
sg96
(dp5016
S'A'
p5017
I12
sS'ME'
p5018
I8
sS'RP2'
p5019
I5
sS'E'
p5020
I8
sS'P'
p5021
I6
sS'RP1'
p5022
I6
sS'JP'
p5023
I4
sS'RP_tot'
p5024
I6
sS'TO'
p5025
I9
sS'PA'
p5026
I9
sS'M'
p5027
I12
sS'R'
p5028
I8
sS'TB'
p5029
I2
sS'PL'
p5030
I12
sS'TA'
p5031
I5
ssg113
g5016
sg210
I0
sg211
I0
sg212
I0
sg213
I0
sg131
F9.193548387096774
sg214
I0
sg215
(lp5032
S'EV'
p5033
asg218
I0
sg219
I0
sg220
(dp5034
S'A'
p5035
I12
sS'ME'
p5036
I8
sS'RP2'
p5037
I5
sS'E'
p5038
I8
sS'P'
p5039
I6
sS'RP1'
p5040
I6
sS'JP'
p5041
I4
sS'RP_tot'
p5042
I6
sS'TO'
p5043
I9
sS'PA'
p5044
I9
sS'M'
p5045
I12
sS'R'
p5046
I8
sS'TB'
p5047
I2
sS'PL'
p5048
I12
sS'TA'
p5049
I5
ssg237
(lp5050
sg239
I0
sg240
I0
sg241
I0
sg242
I0
sg243
I4
sg244
I0
sg245
I0
sg246
S'ES'
p5051
sbssg210
I4
sg211
I0
sg212
I0
sg213
I0
sg131
F10.838709677419354
sg214
I0
sg215
(lp5052
g599
asg218
I0
sg219
I0
sg220
(dp5053
g601
I12
sg602
I8
sg603
I5
sg604
I8
sg605
I9
sg606
I6
sg607
I4
sg608
I6
sg609
I6
sg610
I9
sg611
I12
sg612
I8
sg613
I2
sg614
I12
sg615
I5
ssg237
(lp5054
sg239
I0
sg352
(dp5055
sg240
I0
sg241
I0
sg242
I0
sg243
I4
sg244
I0
sg245
I0
sg246
S'ES'
p5056
sbsS'n5'
p5057
(ijoueur
joueur
p5058
(dp5059
g27
F10.777777777777779
sg28
I0
sg29
F10.63888888888889
sg30
g31
sg32
I0
sg33
F42.858361287494624
sg34
I0
sg35
g36
(g37
g38
Ntp5060
Rp5061
(dp5062
g42
I5
sg43
S'**'
p5063
sg45
g1597
sbsg47
(dp5064
g364
I1
sg365
I0
sg366
I0
sg367
I5
ssg53
(dp5065
g364
I0
sg365
I0
sg366
I0
sg367
I0
ssg55
I0
sg56
g31
sg57
I0
sg58
F42.858361287494624
sg59
I00
sg60
I0
sg61
I0
sg62
I0
sg63
(g369
S'N8'
p5066
S'DL'
p5067
g31
tp5068
sg68
I00
sg69
g36
(g37
g38
Ntp5069
Rp5070
(dp5071
g42
I5
sg43
S'**'
p5072
sg45
g1597
sbsg74
(dp5073
g377
I0
sg378
I0
sg379
I0
sg380
I0
ssg80
(dp5074
g377
I0
sg378
I0
sg379
I0
sg380
I4
ssg82
(dp5075
g377
I0
sg378
I0
sg379
I0
sg380
I0
ssg84
(dp5076
g364
I1
sg365
I2
sg366
I0
sg367
I27
ssg86
I0
sg87
I0
sg88
S'Faross'
p5077
sg90
I8
sg91
I0
sg92
I21
sg93
I135
sg94
g385
sg96
(dp5078
g387
I14
sg388
I10
sg389
I7
sg390
I10
sg391
I9
sg392
I7
sg393
I8
sg394
I8
sg395
I14
sg396
I13
sg397
I7
sg398
I9
sg399
I9
sg400
I13
sg401
I6
ssg113
(dp5079
g387
I14
sg388
I10
sg389
I7
sg390
I10
sg395
I14
sg392
I7
sg393
I8
sg394
I8
sg391
I9
sg396
I13
sg397
I7
sg398
I9
sg399
I9
sg400
I13
sg401
I6
ssg115
(dp5080
g404
(ijoueur
joueur
p5081
(dp5082
g27
F10.777777777777779
sg28
I0
sg30
g31
sg32
I0
sg34
I0
sg35
g36
(g37
g38
Ntp5083
Rp5084
(dp5085
g42
I5
sg43
S'**'
p5086
sg45
g1622
sbsg47
(dp5087
g413
I1
sg414
I0
sg415
I0
sg416
I1
ssg53
(dp5088
g413
I0
sg414
I0
sg415
I0
sg416
I0
ssg56
g31
sg131
F10.63888888888889
sg57
I0
sg60
I1
sg61
I0
sg62
I0
sg63
(g418
S'N8'
p5089
S'DL'
p5090
g31
tp5091
sg68
I00
sg69
g36
(g37
g38
Ntp5092
Rp5093
(dp5094
g42
I5
sg43
S'**'
p5095
sg45
g1622
sbsg74
(dp5096
g426
I0
sg427
I13
sg428
I0
sg429
I0
ssg59
I00
sg82
(dp5097
g426
I0
sg427
I0
sg428
I0
sg429
I0
ssg84
(dp5098
g413
I1
sg414
I2
sg415
I0
sg416
I27
ssg86
I0
sg87
I0
sg88
S'Faross'
p5099
sg90
I8
sg91
I0
sg92
I21
sg93
I135
sg94
g433
sg96
(dp5100
g435
I13
sg436
I10
sg437
I7
sg438
I10
sg439
I14
sg440
I7
sg441
I8
sg442
I7
sg443
I9
sg444
I13
sg445
I7
sg446
I8
sg447
I8
sg448
I13
sg449
I6
ssg113
g5100
sg115
(dp5101
g451
(ijoueur
joueur
p5102
(dp5103
g28
I0
sg32
I0
sg34
I0
sg35
g36
(g37
g38
Ntp5104
Rp5105
(dp5106
g42
I5
sg43
S'**'
p5107
sg45
S'seigneur'
p5108
sbsg47
(dp5109
S'SR'
p5110
I1
sS'CT'
p5111
I0
sS'CR'
p5112
I0
sS'ST'
p5113
I0
ssg53
(dp5114
g5110
I0
sg5111
I0
sg5112
I0
sg5113
I0
ssg56
g31
sg57
I0
sg59
I00
sg60
I3
sg61
I0
sg62
I0
sg63
(S'dummy'
p5115
S'N8'
p5116
S'DL'
p5117
g31
tp5118
sg68
I00
sg69
g36
(g37
g38
Ntp5119
Rp5120
(dp5121
g42
I5
sg43
S'**'
p5122
sg45
g5108
sbsg74
(dp5123
g5110
I1
sg5111
I14
sg5112
I0
sg5113
I2
ssg80
(dp5124
g5110
I1
sg5111
I0
sg5112
I0
sg5113
I0
ssg82
(dp5125
g5110
I0
sg5111
I0
sg5112
I0
sg5113
I0
ssg84
(dp5126
g5110
I1
sg5111
I14
sg5112
I0
sg5113
I2
ssg86
I0
sg87
I0
sg88
S'Faross'
p5127
sg90
I8
sg91
I0
sg92
I21
sg93
I135
sg94
S'AL'
p5128
sg96
(dp5129
S'A'
p5130
I13
sS'ME'
p5131
I10
sS'RP2'
p5132
I7
sS'E'
p5133
I11
sS'P'
p5134
I9
sS'RP1'
p5135
I7
sS'JP'
p5136
I8
sS'RP_tot'
p5137
I7
sS'TO'
p5138
I13
sS'PA'
p5139
I13
sS'M'
p5140
I8
sS'R'
p5141
I9
sS'TB'
p5142
I7
sS'PL'
p5143
I13
sS'TA'
p5144
I6
ssg113
g5129
sg210
I0
sg211
I0
sg212
I1
sg213
I0
sg131
F10.777777777777779
sg214
I0
sg215
(lp5145
S'EV'
p5146
asg218
I1
sg219
I1
sg220
(dp5147
S'A'
p5148
I13
sS'ME'
p5149
I10
sS'RP2'
p5150
I7
sS'E'
p5151
I11
sS'P'
p5152
I9
sS'RP1'
p5153
I7
sS'JP'
p5154
I8
sS'RP_tot'
p5155
I7
sS'TO'
p5156
I13
sS'PA'
p5157
I13
sS'M'
p5158
I8
sS'R'
p5159
I9
sS'TB'
p5160
I7
sS'PL'
p5161
I13
sS'TA'
p5162
I6
ssg237
(lp5163
sg239
I0
sg240
I0
sg241
I0
sg242
I0
sg243
I14
sg244
I3
sg245
I1
sg246
S'ES'
p5164
sbssg210
I7
sg211
I0
sg212
I1
sg213
I0
sg80
(dp5165
g426
I0
sg427
I1
sg428
I0
sg429
I0
ssg214
I0
sg215
(lp5166
g516
asg218
I0
sg219
I1
sg220
(dp5167
g518
I13
sg519
I10
sg520
I7
sg521
I11
sg522
I13
sg523
I7
sg524
I8
sg525
I7
sg526
I9
sg527
I13
sg528
I8
sg529
I9
sg530
I7
sg531
I13
sg532
I6
ssg237
(lp5168
sg239
I0
sg240
I0
sg241
I0
sg242
I0
sg243
I14
sg244
I4
sg245
I0
sg246
S'ES'
p5169
sbsg535
(ijoueur
joueur
p5170
(dp5171
g28
I0
sg32
I0
sg34
I0
sg35
g36
(g37
g38
Ntp5172
Rp5173
(dp5174
g42
I5
sg43
S'**'
p5175
sg45
S'seigneur'
p5176
sbsg47
(dp5177
S'SR'
p5178
I1
sS'CT'
p5179
I0
sS'CR'
p5180
I0
sS'ST'
p5181
I0
ssg53
(dp5182
g5178
I0
sg5179
I0
sg5180
I0
sg5181
I0
ssg56
g31
sg57
I0
sg59
I00
sg60
I3
sg61
I0
sg62
I0
sg63
(S'dummy'
p5183
S'N8'
p5184
S'DL'
p5185
g31
tp5186
sg68
I00
sg69
g36
(g37
g38
Ntp5187
Rp5188
(dp5189
g42
I5
sg43
S'**'
p5190
sg45
g5176
sbsg74
(dp5191
g5178
I1
sg5179
I14
sg5180
I0
sg5181
I2
ssg80
(dp5192
g5178
I1
sg5179
I0
sg5180
I0
sg5181
I0
ssg82
(dp5193
g5178
I0
sg5179
I0
sg5180
I0
sg5181
I0
ssg84
(dp5194
g5178
I1
sg5179
I14
sg5180
I0
sg5181
I2
ssg86
I0
sg87
I0
sg88
S'Faross'
p5195
sg90
I8
sg91
I0
sg92
I21
sg93
I135
sg94
S'AL'
p5196
sg96
(dp5197
S'A'
p5198
I13
sS'ME'
p5199
I10
sS'RP2'
p5200
I7
sS'E'
p5201
I11
sS'P'
p5202
I9
sS'RP1'
p5203
I7
sS'JP'
p5204
I8
sS'RP_tot'
p5205
I7
sS'TO'
p5206
I13
sS'PA'
p5207
I13
sS'M'
p5208
I8
sS'R'
p5209
I9
sS'TB'
p5210
I7
sS'PL'
p5211
I13
sS'TA'
p5212
I6
ssg113
g5197
sg210
I0
sg211
I0
sg212
I1
sg213
I0
sg131
F10.777777777777779
sg214
I0
sg215
(lp5213
S'EV'
p5214
asg218
I1
sg219
I1
sg220
(dp5215
S'A'
p5216
I13
sS'ME'
p5217
I10
sS'RP2'
p5218
I7
sS'E'
p5219
I11
sS'P'
p5220
I9
sS'RP1'
p5221
I7
sS'JP'
p5222
I8
sS'RP_tot'
p5223
I7
sS'TO'
p5224
I13
sS'PA'
p5225
I13
sS'M'
p5226
I8
sS'R'
p5227
I9
sS'TB'
p5228
I7
sS'PL'
p5229
I13
sS'TA'
p5230
I6
ssg237
(lp5231
sg239
I0
sg240
I0
sg241
I0
sg242
I0
sg243
I14
sg244
I3
sg245
I1
sg246
S'ES'
p5232
sbssg210
I5
sg211
I0
sg212
I1
sg213
I0
sg131
F11.055555555555555
sg214
I0
sg215
(lp5233
g599
asg218
I0
sg219
I1
sg220
(dp5234
g601
I13
sg602
I10
sg603
I7
sg604
I11
sg605
I13
sg606
I7
sg607
I8
sg608
I7
sg609
I9
sg610
I13
sg611
I8
sg612
I9
sg613
I7
sg614
I13
sg615
I6
ssg237
(lp5235
sg239
I0
sg352
(dp5236
sg240
I0
sg241
I0
sg242
I0
sg243
I14
sg244
I4
sg245
I0
sg246
S'ES'
p5237
sbsS'n6'
p5238
(ijoueur
joueur
p5239
(dp5240
g27
F12.078947368421053
sg28
I2
sg29
F11.210526315789474
sg30
g31
sg32
I0
sg33
F42.858361287494624
sg34
I0
sg35
g36
(g37
g38
Ntp5241
Rp5242
(dp5243
g42
I4
sg43
S'*'
p5244
sg45
g362
sbsg47
(dp5245
g364
I0
sg365
I0
sg366
I0
sg367
I0
ssg53
(dp5246
g364
I0
sg365
I0
sg366
I0
sg367
I0
ssg55
I0
sg56
g31
sg57
I0
sg58
F42.858361287494624
sg59
I00
sg60
I0
sg61
I0
sg62
I0
sg63
(g369
S'TL'
p5247
g31
g31
tp5248
sg68
I00
sg69
g36
(g37
g38
Ntp5249
Rp5250
(dp5251
g42
I4
sg43
S'*'
p5252
sg45
g362
sbsg74
(dp5253
g377
I0
sg378
I0
sg379
I0
sg380
I4
ssg80
(dp5254
g377
I0
sg378
I0
sg379
I0
sg380
I0
ssg82
(dp5255
g377
I0
sg378
I0
sg379
I0
sg380
I0
ssg84
(dp5256
g364
I0
sg365
I8
sg366
I0
sg367
I33
ssg86
I0
sg87
I0
sg88
S'Qaia'
p5257
sg90
I8
sg91
I0
sg92
I20
sg93
I70
sg94
g385
sg96
(dp5258
g387
I14
sg388
I8
sg389
I11
sg390
I10
sg391
I6
sg392
I8
sg393
I6
sg394
I12
sg395
I14
sg396
I11
sg397
I10
sg398
I10
sg399
I10
sg400
I13
sg401
I6
ssg113
(dp5259
g387
I14
sg388
I8
sg389
I11
sg390
I10
sg395
I14
sg392
I8
sg393
I6
sg394
I12
sg391
I6
sg396
I11
sg397
I10
sg398
I10
sg399
I10
sg400
I13
sg401
I6
ssg115
(dp5260
g404
(ijoueur
joueur
p5261
(dp5262
g27
F12.078947368421053
sg28
I1
sg30
g31
sg32
I0
sg34
I0
sg35
g36
(g37
g38
Ntp5263
Rp5264
(dp5265
g42
I4
sg43
S'*'
p5266
sg45
g411
sbsg47
(dp5267
g413
I0
sg414
I0
sg415
I0
sg416
I0
ssg53
(dp5268
g413
I0
sg414
I0
sg415
I0
sg416
I0
ssg56
g31
sg131
F11.210526315789474
sg57
I0
sg60
I1
sg61
I0
sg62
I0
sg63
(g418
S'TL'
p5269
g31
g31
tp5270
sg68
I00
sg69
g36
(g37
g38
Ntp5271
Rp5272
(dp5273
g42
I4
sg43
S'*'
p5274
sg45
g411
sbsg74
(dp5275
g426
I0
sg427
I14
sg428
I0
sg429
I0
ssg59
I01
sg82
(dp5276
g426
I0
sg427
I0
sg428
I0
sg429
I0
ssg84
(dp5277
g413
I0
sg414
I8
sg415
I0
sg416
I29
ssg86
I0
sg87
I0
sg88
S'Qaia'
p5278
sg90
I8
sg91
I0
sg92
I20
sg93
I70
sg94
g433
sg96
(dp5279
g435
I14
sg436
I8
sg437
I10
sg438
I10
sg439
I13
sg440
I8
sg441
I7
sg442
I11
sg443
I7
sg444
I11
sg445
I10
sg446
I10
sg447
I10
sg448
I12
sg449
I6
ssg113
g5279
sg115
(dp5280
g451
(ijoueur
joueur
p5281
(dp5282
g28
I0
sg32
I0
sg34
I0
sg35
g36
(g37
g38
Ntp5283
Rp5284
(dp5285
g42
I4
sg43
S'*'
p5286
sg45
S'heros'
p5287
sbsg47
(dp5288
S'SR'
p5289
I0
sS'CT'
p5290
I0
sS'CR'
p5291
I0
sS'ST'
p5292
I0
ssg53
(dp5293
g5289
I0
sg5290
I0
sg5291
I0
sg5292
I0
ssg56
g31
sg57
I0
sg59
I01
sg60
I4
sg61
I0
sg62
I0
sg63
(S'dummy'
p5294
S'TL'
p5295
g31
g31
tp5296
sg68
I00
sg69
g36
(g37
g38
Ntp5297
Rp5298
(dp5299
g42
I4
sg43
S'*'
p5300
sg45
g5287
sbsg74
(dp5301
g5289
I0
sg5290
I15
sg5291
I0
sg5292
I8
ssg80
(dp5302
g5289
I0
sg5290
I0
sg5291
I0
sg5292
I0
ssg82
(dp5303
g5289
I0
sg5290
I0
sg5291
I0
sg5292
I0
ssg84
(dp5304
g5289
I0
sg5290
I15
sg5291
I0
sg5292
I8
ssg86
I0
sg87
I0
sg88
S'Qaia'
p5305
sg90
I8
sg91
I0
sg92
I20
sg93
I70
sg94
S'AL'
p5306
sg96
(dp5307
S'A'
p5308
I14
sS'ME'
p5309
I8
sS'RP2'
p5310
I10
sS'E'
p5311
I10
sS'P'
p5312
I7
sS'RP1'
p5313
I8
sS'JP'
p5314
I7
sS'RP_tot'
p5315
I11
sS'TO'
p5316
I14
sS'PA'
p5317
I11
sS'M'
p5318
I11
sS'R'
p5319
I12
sS'TB'
p5320
I9
sS'PL'
p5321
I13
sS'TA'
p5322
I6
ssg113
g5307
sg210
I0
sg211
I0
sg212
I0
sg213
I0
sg131
F12.078947368421053
sg214
I0
sg215
(lp5323
S'EV'
p5324
asg218
I0
sg219
I1
sg220
(dp5325
S'A'
p5326
I14
sS'ME'
p5327
I8
sS'RP2'
p5328
I10
sS'E'
p5329
I10
sS'P'
p5330
I7
sS'RP1'
p5331
I8
sS'JP'
p5332
I7
sS'RP_tot'
p5333
I11
sS'TO'
p5334
I14
sS'PA'
p5335
I11
sS'M'
p5336
I11
sS'R'
p5337
I12
sS'TB'
p5338
I9
sS'PL'
p5339
I13
sS'TA'
p5340
I6
ssg237
(lp5341
sg239
I0
sg240
I0
sg241
I0
sg242
I0
sg243
I7
sg244
I5
sg245
I1
sg246
S'ES'
p5342
sbssg210
I0
sg211
I0
sg212
I1
sg213
I0
sg80
(dp5343
g426
I0
sg427
I0
sg428
I0
sg429
I0
ssg214
I0
sg215
(lp5344
g516
asg218
I1
sg219
I1
sg220
(dp5345
g518
I14
sg519
I8
sg520
I10
sg521
I10
sg522
I14
sg523
I8
sg524
I7
sg525
I11
sg526
I7
sg527
I11
sg528
I11
sg529
I12
sg530
I9
sg531
I13
sg532
I6
ssg237
(lp5346
sg239
I1
sg240
I0
sg241
I0
sg242
I0
sg243
I7
sg244
I6
sg245
I0
sg246
S'ES'
p5347
sbsg535
(ijoueur
joueur
p5348
(dp5349
g28
I0
sg32
I0
sg34
I0
sg35
g36
(g37
g38
Ntp5350
Rp5351
(dp5352
g42
I4
sg43
S'*'
p5353
sg45
S'heros'
p5354
sbsg47
(dp5355
S'SR'
p5356
I0
sS'CT'
p5357
I0
sS'CR'
p5358
I0
sS'ST'
p5359
I0
ssg53
(dp5360
g5356
I0
sg5357
I0
sg5358
I0
sg5359
I0
ssg56
g31
sg57
I0
sg59
I01
sg60
I4
sg61
I0
sg62
I0
sg63
(S'dummy'
p5361
S'TL'
p5362
g31
g31
tp5363
sg68
I00
sg69
g36
(g37
g38
Ntp5364
Rp5365
(dp5366
g42
I4
sg43
S'*'
p5367
sg45
g5354
sbsg74
(dp5368
g5356
I0
sg5357
I15
sg5358
I0
sg5359
I8
ssg80
(dp5369
g5356
I0
sg5357
I0
sg5358
I0
sg5359
I0
ssg82
(dp5370
g5356
I0
sg5357
I0
sg5358
I0
sg5359
I0
ssg84
(dp5371
g5356
I0
sg5357
I15
sg5358
I0
sg5359
I8
ssg86
I0
sg87
I0
sg88
S'Qaia'
p5372
sg90
I8
sg91
I0
sg92
I20
sg93
I70
sg94
S'AL'
p5373
sg96
(dp5374
S'A'
p5375
I14
sS'ME'
p5376
I8
sS'RP2'
p5377
I10
sS'E'
p5378
I10
sS'P'
p5379
I7
sS'RP1'
p5380
I8
sS'JP'
p5381
I7
sS'RP_tot'
p5382
I11
sS'TO'
p5383
I14
sS'PA'
p5384
I11
sS'M'
p5385
I11
sS'R'
p5386
I12
sS'TB'
p5387
I9
sS'PL'
p5388
I13
sS'TA'
p5389
I6
ssg113
g5374
sg210
I0
sg211
I0
sg212
I0
sg213
I0
sg131
F12.078947368421053
sg214
I0
sg215
(lp5390
S'EV'
p5391
asg218
I0
sg219
I1
sg220
(dp5392
S'A'
p5393
I14
sS'ME'
p5394
I8
sS'RP2'
p5395
I10
sS'E'
p5396
I10
sS'P'
p5397
I7
sS'RP1'
p5398
I8
sS'JP'
p5399
I7
sS'RP_tot'
p5400
I11
sS'TO'
p5401
I14
sS'PA'
p5402
I11
sS'M'
p5403
I11
sS'R'
p5404
I12
sS'TB'
p5405
I9
sS'PL'
p5406
I13
sS'TA'
p5407
I6
ssg237
(lp5408
sg239
I0
sg240
I0
sg241
I0
sg242
I0
sg243
I7
sg244
I5
sg245
I1
sg246
S'ES'
p5409
sbssg210
I2
sg211
I0
sg212
I1
sg213
I0
sg131
F11.657894736842104
sg214
I0
sg215
(lp5410
g599
asg218
I0
sg219
I1
sg220
(dp5411
g601
I14
sg602
I8
sg603
I10
sg604
I10
sg605
I14
sg606
I8
sg607
I7
sg608
I11
sg609
I7
sg610
I11
sg611
I11
sg612
I12
sg613
I9
sg614
I13
sg615
I6
ssg237
(lp5412
sg239
I1
sg352
(dp5413
sg240
I0
sg241
I0
sg242
I0
sg243
I7
sg244
I6
sg245
I0
sg246
S'ES'
p5414
sbsS'n7'
p5415
(ijoueur
joueur
p5416
(dp5417
g27
F11.03225806451613
sg28
I0
sg29
F11.451612903225806
sg30
g31
sg32
I0
sg33
F42.858361287494624
sg34
I0
sg35
g36
(g37
g38
Ntp5418
Rp5419
(dp5420
g42
I5
sg43
S'**'
p5421
sg45
S'seigneur'
p5422
sbsg47
(dp5423
S'SR'
p5424
I3
sS'ST'
p5425
I0
sS'CR'
p5426
I5
sS'CT'
p5427
I4
ssg53
(dp5428
g5424
I0
sg5425
I0
sg5426
I0
sg5427
I0
ssg55
I0
sg1792
I0
sg131
F11.451612903225806
sg57
I0
sg58
F42.858361287494624
sg60
I0
sg61
I0
sg62
I0
sg63
(S'dummy'
p5429
S'TL'
p5430
S'N8'
p5431
g31
tp5432
sg68
I00
sg69
g36
(g37
g38
Ntp5433
Rp5434
(dp5435
g42
I5
sg43
S'**'
p5436
sg45
g5422
sbsg74
(dp5437
g2243
I0
sg2244
I0
sg2245
I0
sg2246
I0
ssg59
I00
sg82
(dp5438
g2243
I0
sg2244
I0
sg2245
I0
sg2246
I0
ssg84
(dp5439
g5424
I3
sg5425
I8
sg5426
I6
sg5427
I17
ssg86
I0
sg87
I0
sg88
S'Nogr'
p5440
sg90
I8
sg91
I0
sg92
I24
sg93
I244
sg94
g2250
sg96
(dp5441
S'A'
p5442
I10
sS'ME'
p5443
I10
sS'RP2'
p5444
I6
sS'E'
p5445
I11
sS'P'
p5446
I9
sS'RP1'
p5447
I11
sS'JP'
p5448
I4
sS'RP_tot'
p5449
I11
sS'TO'
p5450
I8
sS'PA'
p5451
I8
sS'M'
p5452
I10
sS'R'
p5453
I13
sS'TB'
p5454
I4
sS'PL'
p5455
I12
sS'TA'
p5456
I4
ssg115
(dp5457
g2269
(ijoueur
joueur
p5458
(dp5459
g27
F11.03225806451613
sg28
I0
sg30
g31
sg32
I0
sg34
I0
sg35
g36
(g37
g38
Ntp5460
Rp5461
(dp5462
g42
I5
sg43
S'**'
p5463
sg45
S'seigneur'
p5464
sbsg47
(dp5465
S'SR'
p5466
I3
sS'ST'
p5467
I0
sS'CR'
p5468
I5
sS'CT'
p5469
I0
ssg53
(dp5470
g5466
I0
sg5467
I0
sg5468
I0
sg5469
I0
ssg80
(dp5471
S'SR'
p5472
I0
sS'CT'
p5473
I0
sS'CR'
p5474
I0
sS'ST'
p5475
I0
ssg1792
I0
sg57
I0
sg60
I2
sg61
I0
sg62
I0
sg63
(S'dummy'
p5476
S'TL'
p5477
S'N8'
p5478
g31
tp5479
sg68
I01
sg69
g36
(g37
g38
Ntp5480
Rp5481
(dp5482
g42
I5
sg43
S'**'
p5483
sg45
g5464
sbsg74
(dp5484
g5472
I0
sg5473
I13
sg5474
I0
sg5475
I6
ssg59
I01
sg82
(dp5485
g5472
I0
sg5473
I0
sg5474
I0
sg5475
I0
ssg84
(dp5486
g5466
I3
sg5467
I8
sg5468
I6
sg5469
I17
ssg86
I0
sg87
I0
sg88
S'Nogr (12)'
p5487
sg90
I8
sg91
I0
sg92
I24
sg93
I155
sg94
S'BRB'
p5488
sg96
(dp5489
S'A'
p5490
I10
sS'ME'
p5491
I10
sS'RP2'
p5492
I6
sS'E'
p5493
I11
sS'TO'
p5494
I8
sS'RP1'
p5495
I11
sS'JP'
p5496
I4
sS'RP_tot'
p5497
I11
sS'P'
p5498
I8
sS'PA'
p5499
I8
sS'M'
p5500
I10
sS'R'
p5501
I13
sS'TB'
p5502
I4
sS'PL'
p5503
I12
sS'TA'
p5504
I4
ssg115
(dp5505
S's11'
p5506
(ijoueur
joueur
p5507
(dp5508
g28
I0
sg32
I0
sg34
I0
sg35
g36
(g37
g38
Ntp5509
Rp5510
(dp5511
g42
I5
sg43
S'**'
p5512
sg45
S'seigneur'
p5513
sbsg47
(dp5514
S'SR'
p5515
I3
sS'CT'
p5516
I0
sS'CR'
p5517
I5
sS'ST'
p5518
I0
ssg53
(dp5519
g5515
I0
sg5516
I0
sg5517
I0
sg5518
I0
ssg1792
I0
sg57
I0
sg59
I01
sg60
I0
sg61
I0
sg62
I0
sg63
(S'dummy'
p5520
S'TL'
p5521
S'N8'
p5522
g31
tp5523
sg68
I00
sg69
g36
(g37
g38
Ntp5524
Rp5525
(dp5526
g42
I5
sg43
S'**'
p5527
sg45
g5513
sbsg74
(dp5528
g5515
I3
sg5516
I4
sg5517
I6
sg5518
I1
ssg80
(dp5529
g5515
I3
sg5516
I0
sg5517
I5
sg5518
I0
ssg82
(dp5530
g5515
I0
sg5516
I0
sg5517
I0
sg5518
I0
ssg84
(dp5531
g5515
I3
sg5516
I4
sg5517
I6
sg5518
I1
ssg86
I0
sg87
I0
sg88
S'Nogr'
p5532
sg90
I8
sg91
I0
sg92
I24
sg93
I155
sg94
S'BRB'
p5533
sg96
(dp5534
S'A'
p5535
I10
sS'ME'
p5536
I10
sS'RP2'
p5537
I6
sS'E'
p5538
I11
sS'P'
p5539
I7
sS'RP1'
p5540
I11
sS'JP'
p5541
I4
sS'RP_tot'
p5542
I11
sS'TO'
p5543
I8
sS'PA'
p5544
I8
sS'M'
p5545
I11
sS'R'
p5546
I12
sS'TB'
p5547
I4
sS'PL'
p5548
I11
sS'TA'
p5549
I4
ssg210
I0
sg211
I0
sg212
I0
sg213
I0
sg131
F11.03225806451613
sg214
I0
sg218
I0
sg219
I1
sg220
(dp5550
S'A'
p5551
I10
sS'ME'
p5552
I10
sS'RP2'
p5553
I6
sS'E'
p5554
I11
sS'P'
p5555
I7
sS'RP1'
p5556
I11
sS'JP'
p5557
I4
sS'RP_tot'
p5558
I11
sS'TO'
p5559
I8
sS'PA'
p5560
I8
sS'M'
p5561
I11
sS'R'
p5562
I12
sS'TB'
p5563
I4
sS'PL'
p5564
I11
sS'TA'
p5565
I4
ssg113
g5534
sg239
I0
sg56
g31
sg240
I0
sg241
I0
sg242
I0
sg243
I16
sg244
I0
sg245
I1
sg246
S'HB'
p5566
sbssg210
I7
sg211
I0
sg212
I1
sg213
I0
sg131
F11.451612903225806
sg214
I0
sg218
I1
sg219
I2
sg220
(dp5567
S'A'
p5568
I10
sS'ME'
p5569
I10
sS'RP2'
p5570
I6
sS'E'
p5571
I11
sS'P'
p5572
I7
sS'RP1'
p5573
I11
sS'JP'
p5574
I4
sS'RP_tot'
p5575
I11
sS'TO'
p5576
I8
sS'PA'
p5577
I8
sS'M'
p5578
I11
sS'R'
p5579
I12
sS'TB'
p5580
I4
sS'PL'
p5581
I11
sS'TA'
p5582
I4
ssg113
g5489
sg239
I0
sg56
g31
sg240
I0
sg241
I0
sg242
I0
sg243
I16
sg244
I2
sg245
I1
sg246
S'HB'
p5583
sbsS's11'
p5584
(ijoueur
joueur
p5585
(dp5586
g28
I0
sg32
I0
sg34
I0
sg35
g36
(g37
g38
Ntp5587
Rp5588
(dp5589
g42
I5
sg43
S'**'
p5590
sg45
S'seigneur'
p5591
sbsg47
(dp5592
S'SR'
p5593
I3
sS'CT'
p5594
I0
sS'CR'
p5595
I5
sS'ST'
p5596
I0
ssg53
(dp5597
g5593
I0
sg5594
I0
sg5595
I0
sg5596
I0
ssg1792
I0
sg57
I0
sg59
I01
sg60
I0
sg61
I0
sg62
I0
sg63
(S'dummy'
p5598
S'TL'
p5599
S'N8'
p5600
g31
tp5601
sg68
I00
sg69
g36
(g37
g38
Ntp5602
Rp5603
(dp5604
g42
I5
sg43
S'**'
p5605
sg45
g5591
sbsg74
(dp5606
g5593
I3
sg5594
I4
sg5595
I6
sg5596
I1
ssg80
(dp5607
g5593
I3
sg5594
I0
sg5595
I5
sg5596
I0
ssg82
(dp5608
g5593
I0
sg5594
I0
sg5595
I0
sg5596
I0
ssg84
(dp5609
g5593
I3
sg5594
I4
sg5595
I6
sg5596
I1
ssg86
I0
sg87
I0
sg88
S'Nogr (11)'
p5610
sg90
I8
sg91
I0
sg92
I24
sg93
I155
sg94
S'BRB'
p5611
sg96
(dp5612
S'A'
p5613
I10
sS'ME'
p5614
I10
sS'RP2'
p5615
I6
sS'E'
p5616
I11
sS'P'
p5617
I7
sS'RP1'
p5618
I11
sS'JP'
p5619
I4
sS'RP_tot'
p5620
I11
sS'TO'
p5621
I8
sS'PA'
p5622
I8
sS'M'
p5623
I11
sS'R'
p5624
I12
sS'TB'
p5625
I4
sS'PL'
p5626
I11
sS'TA'
p5627
I4
ssg210
I0
sg211
I0
sg212
I0
sg213
I0
sg131
F11.03225806451613
sg214
I0
sg218
I0
sg219
I1
sg220
(dp5628
S'A'
p5629
I10
sS'ME'
p5630
I10
sS'RP2'
p5631
I6
sS'E'
p5632
I11
sS'P'
p5633
I7
sS'RP1'
p5634
I11
sS'JP'
p5635
I4
sS'RP_tot'
p5636
I11
sS'TO'
p5637
I8
sS'PA'
p5638
I8
sS'M'
p5639
I11
sS'R'
p5640
I12
sS'TB'
p5641
I4
sS'PL'
p5642
I11
sS'TA'
p5643
I4
ssg113
g5612
sg239
I0
sg56
g31
sg240
I0
sg241
I0
sg242
I0
sg243
I16
sg244
I0
sg245
I1
sg246
S'HB'
p5644
sbssg210
I5
sg211
I0
sg212
I1
sg213
I0
sg80
(dp5645
g2243
I0
sg2244
I0
sg2245
I0
sg2246
I4
ssg214
I0
sg218
I0
sg219
I2
sg220
(dp5646
S'A'
p5647
I10
sS'ME'
p5648
I10
sS'RP2'
p5649
I6
sS'E'
p5650
I11
sS'P'
p5651
I7
sS'RP1'
p5652
I11
sS'JP'
p5653
I4
sS'RP_tot'
p5654
I11
sS'TO'
p5655
I8
sS'PA'
p5656
I8
sS'M'
p5657
I11
sS'R'
p5658
I12
sS'TB'
p5659
I4
sS'PL'
p5660
I11
sS'TA'
p5661
I4
ssg113
(dp5662
g5442
I10
sg5443
I10
sg5444
I6
sg5445
I11
sg5450
I8
sg5447
I11
sg5448
I4
sg5449
I11
sg5446
I9
sg5451
I8
sg5452
I10
sg5453
I13
sg5454
I4
sg5455
I12
sg5456
I4
ssg239
I0
sg352
(dp5663
sg240
I0
sg56
S'BRB 13'
p5664
sg241
I0
sg242
I0
sg243
I47
sg244
I2
sg245
I0
sg246
S'HB'
p5665
sbssS'remplacements'
p5666
(dp5667
g2736
S'n0'
p5668
sg2994
g5668
sg3433
g5668
sg3613
g5668
sg3864
g5668
sg3945
g5668
sg3986
g5668
ssb.