(iclub
compo
p0
(dp1
S'caracs_old'
p2
(dp3
S'A'
p4
F153.0
sS'ME'
p5
F99.0
sS'E'
p6
I182
sS'OplusAV'
p7
F64.0
sS'TO_off'
p8
F75.0
sS'OplusAR'
p9
F94.0
sS'M'
p10
F34.0
sS'JP'
p11
F74.5
sS'OmoinsAR'
p12
F42.0
sS'PA'
p13
F98.5
sS'TO_def'
p14
F64.5
sS'OmoinsAV'
p15
F46.5
sS'R'
p16
F141.5
ssS'totaux_old'
p17
(dp18
S'T2'
p19
F163.0
sS'T3'
p20
F91.0
sS'T1'
p21
F155.125
ssS'roles'
p22
(dp23
S'drop1'
p24
(ijoueur
joueur
p25
(dp26
S'rouges_total'
p27
I0
sS'drops_total'
p28
I0
sS'blessure'
p29
I0
sS'RG_max'
p30
(ijoueur
rang
p31
(dp32
S'type_nb'
p33
I4
sS'rang'
p34
S'*'
p35
sS'type'
p36
S'heros'
p37
sbsS'MJ2_total'
p38
(dp39
S'SR'
p40
I0
sS'ST'
p41
I0
sS'CR'
p42
I0
sS'CT'
p43
I0
ssS'MJ3_total'
p44
(dp45
g40
I0
sg41
I0
sg42
I0
sg43
I0
ssS'drop_rates_total'
p46
I1
sS'drop_rates_saison'
p47
I1
sS'transformations'
p48
I0
sS'penalites'
p49
I0
sS'essais_saison'
p50
I1
sS'penalite_ratees_saison'
p51
I0
sS'transformations_saison'
p52
I0
sS'postes'
p53
(S'dummy'
p54
S'AI'
p55
S'CE'
p56
S''
p57
tp58
sS'RG'
p59
(ijoueur
rang
p60
(dp61
g33
I4
sg34
g35
sg36
g37
sbsS'MJ1'
p62
(dp63
g40
I0
sg41
I0
sg42
I1
sg43
I8
ssS'MJ2'
p64
(dp65
g40
I0
sg41
I0
sg42
I0
sg43
I0
ssS'MJ3'
p66
(dp67
g40
I0
sg41
I0
sg42
I0
sg43
I0
ssS'MJ1_total'
p68
(dp69
g40
I0
sg41
I0
sg42
I1
sg43
I8
ssS'penalites_total'
p70
I0
sS'penalites_saison'
p71
I0
sS'nom'
p72
S'Yvarov'
p73
sS'C'
p74
I9
sS'transformations_total'
p75
I0
sS'D'
p76
I22
sS'VAL'
p77
I98
sS'club'
p78
S'MSL'
p79
sS'caracs'
p80
(dp81
S'A'
p82
I9
sS'ME'
p83
I6
sS'RP2'
p84
I8
sS'E'
p85
I9
sS'P'
p86
I9
sS'RP1'
p87
I13
sS'JP'
p88
I9
sS'RP_tot'
p89
I14
sS'TO'
p90
I3
sS'PA'
p91
I10
sS'M'
p92
I9
sS'R'
p93
I8
sS'TB'
p94
I7
sS'PL'
p95
I9
sS'TA'
p96
I5
ssS'fatigue'
p97
I6
sS'drop_ratees_total'
p98
I0
sS'blessures_total'
p99
I0
sS'XP'
p100
I0
sS'EV'
p101
F10.03225806451613
sS'penalite_ratees_total'
p102
I0
sS'drops'
p103
I0
sS'blessures_saison'
p104
I0
sS'jaunes_total'
p105
I0
sS'caracs_sans_fatigue'
p106
(dp107
g82
I9
sg83
I6
sg84
I8
sg85
I9
sg90
I3
sg87
I13
sg88
I9
sg89
I14
sg86
I9
sg91
I10
sg92
I9
sg93
I8
sg94
I7
sg95
I9
sg96
I5
ssS'rouges_saison'
p108
I0
sS'anciens_clubs'
p109
g57
sS'transformation_ratees_total'
p110
I0
sS'drops_saison'
p111
I0
sS'transformation_ratees_saison'
p112
I0
sS'MS'
p113
I9
sS'essais_total'
p114
I2
sS'jaunes_saison'
p115
I0
sS'ARM'
p116
S'CV'
p117
sbsS'SA_scd'
p118
(ijoueur
joueur
p119
(dp120
g27
I0
sg28
I0
sg29
I0
sg30
(ijoueur
rang
p121
(dp122
g33
I1
sg34
S'>'
p123
sg36
S'base'
p124
sbsg38
(dp125
g40
I0
sg41
I0
sg42
I3
sg43
I1
ssg44
(dp126
g40
I0
sg41
I0
sg42
I0
sg43
I0
ssg46
I0
sg47
I0
sg48
I0
sg49
I0
sg50
I0
sg51
I0
sg52
I0
sg53
(g54
S'DL'
p127
S'PI'
p128
g57
tp129
sg59
(ijoueur
rang
p130
(dp131
g33
I3
sg34
S'^^^'
p132
sg36
S'rare'
p133
sbsg62
(dp134
g40
I0
sg41
I0
sg42
I1
sg43
I0
ssg64
(dp135
g40
I0
sg41
I0
sg42
I3
sg43
I1
ssg66
(dp136
g40
I0
sg41
I0
sg42
I0
sg43
I0
ssg68
(dp137
g40
I0
sg41
I0
sg42
I1
sg43
I0
ssg70
I0
sg71
I0
sg72
S'Xakett'
p138
sg74
I7
sg75
I0
sg76
I15
sg77
I11
sg78
g79
sg80
(dp139
g82
I8
sg83
I10
sg84
I7
sg85
I13
sg86
I4
sg87
I9
sg88
I3
sg89
I9
sg90
I8
sg91
I6
sg92
I7
sg93
I8
sg94
I3
sg95
I8
sg96
I2
ssg97
I0
sg98
I0
sg99
I0
sg100
I0
sg101
F9.074074074074074
sg102
I0
sg103
I0
sg104
I0
sg105
I0
sg106
(dp140
g82
I8
sg83
I10
sg84
I7
sg85
I13
sg90
I8
sg87
I9
sg88
I3
sg89
I9
sg86
I4
sg91
I6
sg92
I7
sg93
I8
sg94
I3
sg95
I8
sg96
I2
ssg108
I0
sg109
g57
sg110
I0
sg111
I0
sg112
I0
sg113
I1
sg114
I0
sg115
I0
sg116
S'N'
p141
sbsS'RJL'
p142
(ijoueur
joueur
p143
(dp144
g27
I0
sg28
I0
sg29
I0
sg30
(ijoueur
rang
p145
(dp146
g33
I5
sg34
S'**'
p147
sg36
S'seigneur'
p148
sbsg38
(dp149
g40
I0
sg41
I0
sg42
I0
sg43
I0
ssg44
(dp150
g40
I0
sg41
I0
sg42
I0
sg43
I0
ssg46
I0
sg47
I0
sg48
I0
sg49
I0
sg50
I1
sg51
I0
sg52
I0
sg53
(g54
S'AI'
p151
g57
g57
tp152
sg59
(ijoueur
rang
p153
(dp154
g33
I5
sg34
S'**'
p155
sg36
g148
sbsg62
(dp156
g40
I0
sg41
I0
sg42
I0
sg43
I9
ssg64
(dp157
g40
I0
sg41
I0
sg42
I0
sg43
I0
ssg66
(dp158
g40
I0
sg41
I0
sg42
I0
sg43
I0
ssg68
(dp159
g40
I0
sg41
I0
sg42
I0
sg43
I9
ssg70
I0
sg71
I0
sg72
S'Strepen'
p160
sg74
I8
sg75
I0
sg76
I20
sg77
I180
sg78
g79
sg80
(dp161
g82
I15
sg83
I4
sg84
I10
sg85
I10
sg86
I11
sg87
I8
sg88
I7
sg89
I11
sg90
I10
sg91
I11
sg92
I9
sg93
I6
sg94
I9
sg95
I9
sg96
I3
ssg97
I6
sg98
I0
sg99
I0
sg100
I0
sg101
F10.774193548387096
sg102
I0
sg103
I0
sg104
I0
sg105
I0
sg106
(dp162
g82
I15
sg83
I4
sg84
I10
sg85
I10
sg90
I10
sg87
I8
sg88
I7
sg89
I11
sg86
I11
sg91
I11
sg92
I9
sg93
I6
sg94
I9
sg95
I9
sg96
I3
ssg108
I0
sg109
g57
sg110
I0
sg111
I0
sg112
I0
sg113
I18
sg114
I5
sg115
I0
sg116
S'CV'
p163
sbsS'cap'
p164
(ijoueur
joueur
p165
(dp166
g27
I0
sg28
I0
sg29
I0
sg30
(ijoueur
rang
p167
(dp168
g33
I4
sg34
g35
sg36
g37
sbsg38
(dp169
g40
I0
sg41
I0
sg42
I1
sg43
I1
ssg44
(dp170
g40
I0
sg41
I0
sg42
I0
sg43
I0
ssg46
I0
sg47
I0
sg48
I0
sg49
I0
sg50
I0
sg51
I0
sg52
I0
sg53
(g54
S'PI'
p171
S'TL'
p172
S'TA'
p173
tp174
sg59
(ijoueur
rang
p175
(dp176
g33
I4
sg34
g35
sg36
g37
sbsg62
(dp177
g40
I0
sg41
I0
sg42
I6
sg43
I3
ssg64
(dp178
g40
I0
sg41
I0
sg42
I1
sg43
I1
ssg66
(dp179
g40
I0
sg41
I0
sg42
I0
sg43
I0
ssg68
(dp180
g40
I0
sg41
I0
sg42
I6
sg43
I3
ssg70
I0
sg71
I0
sg72
S'Petilier'
p181
sg74
I8
sg75
I0
sg76
I17
sg77
I60
sg78
g79
sg80
(dp182
g82
I9
sg83
I7
sg84
I7
sg85
I13
sg86
I3
sg87
I9
sg88
I5
sg89
I9
sg90
I7
sg91
I8
sg92
I10
sg93
I9
sg94
I3
sg95
I9
sg96
I9
ssg97
I3
sg98
I0
sg99
I0
sg100
I0
sg101
F9.222222222222221
sg102
I0
sg103
I0
sg104
I0
sg105
I0
sg106
(dp183
g82
I9
sg83
I7
sg84
I7
sg85
I13
sg90
I7
sg87
I9
sg88
I5
sg89
I9
sg86
I3
sg91
I8
sg92
I10
sg93
I9
sg94
I3
sg95
I9
sg96
I9
ssg108
I0
sg109
g57
sg110
I0
sg111
I0
sg112
I0
sg113
I6
sg114
I1
sg115
I0
sg116
S'B'
p184
sbsS'B4'
p185
g143
sS'RJC'
p186
g25
sS'B1'
p187
(ijoueur
joueur
p188
(dp189
g27
I0
sg28
I5
sg29
I0
sg30
(ijoueur
rang
p190
(dp191
g33
I5
sg34
S'**'
p192
sg36
S'seigneur'
p193
sbsg38
(dp194
S'SR'
p195
I0
sS'ST'
p196
I0
sS'CR'
p197
I0
sS'CT'
p198
I6
ssg44
(dp199
g195
I0
sg196
I0
sg197
I0
sg198
I1
ssg109
g57
sg47
I0
sg48
I34
sg49
I23
sg50
I0
sg51
I0
sg52
I0
sg53
(S'dummy'
p200
S'DO'
p201
S'CE'
p202
S'AR'
p203
tp204
sg59
(ijoueur
rang
p205
(dp206
g33
I5
sg34
S'**'
p207
sg36
g193
sbsg62
(dp208
g195
I0
sg196
I0
sg197
I1
sg198
I0
ssg64
(dp209
g195
I0
sg196
I0
sg197
I0
sg198
I6
ssg66
(dp210
g195
I0
sg196
I0
sg197
I0
sg198
I1
ssg68
(dp211
g195
I0
sg196
I0
sg197
I1
sg198
I0
ssg70
I23
sg71
I0
sg72
S'Vereneux'
p212
sg74
I4
sg75
I34
sg76
I18
sg77
I110
sg78
g79
sg80
(dp213
S'A'
p214
I13
sS'ME'
p215
I7
sS'RP2'
p216
I10
sS'E'
p217
I10
sS'P'
p218
I7
sS'RP1'
p219
I9
sS'JP'
p220
I8
sS'RP_tot'
p221
I12
sS'TO'
p222
I6
sS'PA'
p223
I10
sS'M'
p224
I8
sS'R'
p225
I6
sS'TB'
p226
I11
sS'PL'
p227
I10
sS'TA'
p228
I6
ssg97
I0
sg98
I0
sg99
I0
sg100
I0
sg101
F9.485714285714286
sg102
I0
sg103
I5
sg104
I0
sg105
I1
sg106
(dp229
g214
I13
sg215
I7
sg216
I10
sg217
I10
sg222
I6
sg219
I9
sg220
I8
sg221
I12
sg218
I7
sg223
I10
sg224
I8
sg225
I6
sg226
I11
sg227
I10
sg228
I6
ssg108
I0
sg110
I0
sg111
I0
sg112
I0
sg113
I11
sg114
I4
sg115
I1
sg116
S'B'
p230
sbsS'B2'
p231
g188
sS'B3'
p232
g188
sS'SA_pcp2'
p233
(ijoueur
joueur
p234
(dp235
g27
I0
sg28
I0
sg29
I0
sg30
(ijoueur
rang
p236
(dp237
g33
I4
sg34
g35
sg36
g37
sbsg38
(dp238
g40
I0
sg41
I0
sg42
I0
sg43
I0
ssg44
(dp239
g40
I0
sg41
I0
sg42
I0
sg43
I0
ssg46
I0
sg47
I0
sg48
I0
sg49
I0
sg50
I0
sg51
I0
sg52
I0
sg53
(g54
S'DL'
p240
g57
g57
tp241
sg59
(ijoueur
rang
p242
(dp243
g33
I4
sg34
g35
sg36
g37
sbsg62
(dp244
g40
I0
sg41
I0
sg42
I8
sg43
I3
ssg64
(dp245
g40
I0
sg41
I0
sg42
I0
sg43
I0
ssg66
(dp246
g40
I0
sg41
I0
sg42
I0
sg43
I0
ssg68
(dp247
g40
I0
sg41
I0
sg42
I8
sg43
I3
ssg70
I0
sg71
I0
sg72
S'Kelter'
p248
sg74
I3
sg75
I0
sg76
I17
sg77
I60
sg78
g79
sg80
(dp249
g82
I11
sg83
I10
sg84
I9
sg85
I9
sg86
I4
sg87
I9
sg88
I4
sg89
I11
sg90
I9
sg91
I7
sg92
I8
sg93
I8
sg94
I5
sg95
I9
sg96
I7
ssg97
I4
sg98
I0
sg99
I1
sg100
I0
sg101
F9.222222222222221
sg102
I0
sg103
I0
sg104
I1
sg105
I0
sg106
(dp250
g82
I11
sg83
I10
sg84
I9
sg85
I9
sg90
I9
sg87
I9
sg88
I4
sg89
I11
sg86
I4
sg91
I7
sg92
I8
sg93
I8
sg94
I5
sg95
I9
sg96
I7
ssg108
I0
sg109
g57
sg110
I0
sg111
I0
sg112
I0
sg113
I6
sg114
I2
sg115
I0
sg116
g184
sbsS'SA_pcp1'
p251
(ijoueur
joueur
p252
(dp253
g27
I0
sg28
I0
sg29
I0
sg30
(ijoueur
rang
p254
(dp255
g33
I1
sg34
g123
sg36
g124
sbsg38
(dp256
g40
I0
sg41
I0
sg42
I2
sg43
I0
ssg44
(dp257
g40
I0
sg41
I0
sg42
I0
sg43
I0
ssg46
I0
sg47
I0
sg48
I0
sg49
I0
sg50
I0
sg51
I0
sg52
I0
sg53
(g54
S'N8'
p258
S'DL'
p259
g57
tp260
sg59
(ijoueur
rang
p261
(dp262
g33
I1
sg34
g123
sg36
g124
sbsg62
(dp263
g40
I0
sg41
I0
sg42
I1
sg43
I0
ssg64
(dp264
g40
I0
sg41
I0
sg42
I2
sg43
I0
ssg66
(dp265
g40
I0
sg41
I0
sg42
I0
sg43
I0
ssg68
(dp266
g40
I0
sg41
I0
sg42
I1
sg43
I0
ssg70
I0
sg71
I0
sg72
S'Walud'
p267
sg74
I2
sg75
I0
sg76
I12
sg77
I4
sg78
g79
sg80
(dp268
g82
I8
sg83
I11
sg84
I6
sg85
I10
sg86
I5
sg87
I6
sg88
I3
sg89
I6
sg90
I10
sg91
I6
sg92
I9
sg93
I8
sg94
I3
sg95
I6
sg96
I3
ssg97
I0
sg98
I0
sg99
I0
sg100
I0
sg101
F8.277777777777779
sg102
I0
sg103
I0
sg104
I0
sg105
I0
sg106
(dp269
g82
I8
sg83
I11
sg84
I6
sg85
I10
sg90
I10
sg87
I6
sg88
I3
sg89
I6
sg86
I5
sg91
I6
sg92
I9
sg93
I8
sg94
I3
sg95
I6
sg96
I3
ssg108
I0
sg109
g57
sg110
I0
sg111
I0
sg112
I0
sg113
I1
sg114
I0
sg115
I0
sg116
S'HL'
p270
sbsS'drop3'
p271
g25
sS'SA_remp1'
p272
(ijoueur
joueur
p273
(dp274
g27
I0
sg28
I0
sg29
I0
sg30
(ijoueur
rang
p275
(dp276
g33
I2
sg34
S'<<'
p277
sg36
S'special'
p278
sbsg38
(dp279
g40
I0
sg41
I0
sg42
I0
sg43
I0
ssg44
(dp280
g40
I0
sg41
I0
sg42
I0
sg43
I0
ssg46
I0
sg47
I0
sg48
I0
sg49
I0
sg50
I0
sg51
I0
sg52
I0
sg53
(g54
S'TL'
p281
S'DL'
p282
g57
tp283
sg59
(ijoueur
rang
p284
(dp285
g33
I3
sg34
S'^^^'
p286
sg36
g133
sbsg62
(dp287
g40
I0
sg41
I0
sg42
I0
sg43
I9
ssg64
(dp288
g40
I0
sg41
I0
sg42
I0
sg43
I0
ssg66
(dp289
g40
I0
sg41
I0
sg42
I0
sg43
I0
ssg68
(dp290
g40
I0
sg41
I0
sg42
I0
sg43
I9
ssg70
I0
sg71
I0
sg72
S'Lebel'
p291
sg74
I3
sg75
I0
sg76
I12
sg77
I80
sg78
g79
sg80
(dp292
g82
I9
sg83
I9
sg84
I7
sg85
I10
sg86
I4
sg87
I11
sg88
I4
sg89
I11
sg90
I11
sg91
I8
sg92
I9
sg93
I9
sg94
I5
sg95
I11
sg96
I4
ssg97
I9
sg98
I0
sg99
I0
sg100
I0
sg101
F10.447368421052632
sg102
I0
sg103
I0
sg104
I0
sg105
I0
sg106
(dp293
g82
I10
sg83
I9
sg84
I7
sg85
I10
sg90
I11
sg87
I11
sg88
I4
sg89
I11
sg86
I4
sg91
I8
sg92
I9
sg93
I10
sg94
I5
sg95
I12
sg96
I4
ssg108
I0
sg109
S'DKW 10'
p294
sg110
I0
sg111
I0
sg112
I0
sg113
I8
sg114
I3
sg115
I0
sg116
g184
sbsS'drop2'
p295
g25
sS'SA_remp2'
p296
(ijoueur
joueur
p297
(dp298
g27
I0
sg28
I0
sg29
I0
sg30
(ijoueur
rang
p299
(dp300
g33
I5
sg34
S'**'
p301
sg36
g148
sbsg38
(dp302
g40
I0
sg41
I0
sg42
I4
sg43
I0
ssg44
(dp303
g40
I0
sg41
I0
sg42
I0
sg43
I1
ssg46
I0
sg47
I0
sg48
I0
sg49
I0
sg50
I0
sg51
I0
sg52
I0
sg53
(g54
S'TL'
p304
S'N8'
p305
S'DL'
p306
tp307
sg59
(ijoueur
rang
p308
(dp309
g33
I1
sg34
S'^'
p310
sg36
g124
sbsg62
(dp311
g40
I0
sg41
I0
sg42
I4
sg43
I1
ssg64
(dp312
g40
I0
sg41
I0
sg42
I4
sg43
I0
ssg66
(dp313
g40
I0
sg41
I0
sg42
I0
sg43
I1
ssg68
(dp314
g40
I0
sg41
I0
sg42
I4
sg43
I1
ssg70
I0
sg71
I0
sg72
S'Bispoek'
p315
sg74
I11
sg75
I0
sg76
I25
sg77
I41
sg78
g79
sg80
(dp316
g82
I8
sg83
I8
sg84
I6
sg85
I8
sg86
I2
sg87
I9
sg88
I4
sg89
I9
sg90
I8
sg91
I6
sg92
I9
sg93
I10
sg94
I5
sg95
I11
sg96
I3
ssg97
I2
sg98
I0
sg99
I0
sg100
I0
sg101
F9.290322580645162
sg102
I0
sg103
I0
sg104
I0
sg105
I0
sg106
(dp317
g82
I8
sg83
I8
sg84
I6
sg85
I8
sg90
I8
sg87
I9
sg88
I4
sg89
I9
sg86
I2
sg91
I6
sg92
I9
sg93
I10
sg94
I5
sg95
I11
sg96
I3
ssg108
I0
sg109
g57
sg110
I0
sg111
I0
sg112
I0
sg113
I5
sg114
I0
sg115
I0
sg116
S'CV'
p318
sbssS'totaux'
p319
(dp320
g19
I0
sg20
I0
sg21
I0
ssS'_compo_defaut_fatigue'
p321
Nsg80
(dp322
g4
I0
sg5
I0
sg6
I0
sg7
I0
sg8
I0
sg9
I0
sg10
I0
sg11
I0
sg12
I0
sg13
I0
sg14
I0
sg15
I0
sg16
I0
ssS'joueurs'
p323
(dp324
S'n12'
p325
(ijoueur
joueur
p326
(dp327
g27
I0
sg28
I0
sg29
I0
sg30
(ijoueur
rang
p328
(dp329
g33
I4
sg34
g35
sg36
g37
sbsg38
(dp330
g40
I0
sg41
I0
sg42
I0
sg43
I0
ssg44
(dp331
g40
I0
sg41
I0
sg42
I0
sg43
I0
ssg46
I0
sg47
I0
sg48
I0
sg49
I0
sg50
I0
sg51
I0
sg52
I0
sg53
(g54
S'C2'
p332
S'AI'
p333
g57
tp334
sg59
(ijoueur
rang
p335
(dp336
g33
I4
sg34
g35
sg36
g37
sbsg62
(dp337
g40
I0
sg41
I0
sg42
I6
sg43
I4
ssg64
(dp338
g40
I0
sg41
I0
sg42
I0
sg43
I0
ssg66
(dp339
g40
I0
sg41
I0
sg42
I0
sg43
I0
ssg68
(dp340
g40
I0
sg41
I0
sg42
I6
sg43
I4
ssg70
I0
sg71
I0
sg72
S'Guetelloy'
p341
sg74
I8
sg75
I0
sg76
I18
sg77
I60
sg78
g79
sg80
(dp342
g82
I9
sg83
I5
sg84
I9
sg85
I10
sg86
I9
sg87
I10
sg88
I7
sg89
I12
sg90
I5
sg91
I10
sg92
I10
sg93
I8
sg94
I6
sg95
I10
sg96
I6
ssg97
I1
sg98
I0
sg99
I0
sg100
I0
sg101
F9.931034482758621
sg102
I0
sg103
I0
sg104
I0
sg105
I1
sg106
(dp343
g82
I9
sg83
I5
sg84
I9
sg85
I10
sg90
I5
sg87
I10
sg88
I7
sg89
I12
sg86
I9
sg91
I10
sg92
I10
sg93
I8
sg94
I6
sg95
I10
sg96
I6
ssg108
I0
sg109
g57
sg110
I0
sg111
I0
sg112
I0
sg113
I6
sg114
I2
sg115
I1
sg116
g184
sbsS'n13'
p344
(ijoueur
joueur
p345
(dp346
g27
I0
sg28
I0
sg29
I0
sg30
(ijoueur
rang
p347
(dp348
g33
I5
sg34
S'**'
p349
sg36
g148
sbsg38
(dp350
g40
I0
sg41
I0
sg42
I0
sg43
I0
ssg44
(dp351
g40
I0
sg41
I0
sg42
I0
sg43
I0
ssg46
I0
sg47
I0
sg48
I0
sg49
I0
sg50
I2
sg51
I0
sg52
I0
sg53
(g54
S'C2'
p352
S'AR'
p353
g57
tp354
sg59
(ijoueur
rang
p355
(dp356
g33
I5
sg34
S'**'
p357
sg36
g148
sbsg62
(dp358
g40
I0
sg41
I0
sg42
I0
sg43
I9
ssg64
(dp359
g40
I0
sg41
I0
sg42
I0
sg43
I0
ssg66
(dp360
g40
I0
sg41
I0
sg42
I0
sg43
I0
ssg68
(dp361
g40
I0
sg41
I0
sg42
I0
sg43
I9
ssg70
I0
sg71
I0
sg72
S'Du Poloin'
p362
sg74
I8
sg75
I0
sg76
I20
sg77
I110
sg78
g79
sg80
(dp363
g82
I11
sg83
I5
sg84
I13
sg85
I10
sg86
I8
sg87
I9
sg88
I8
sg89
I15
sg90
I7
sg91
I9
sg92
I9
sg93
I5
sg94
I8
sg95
I9
sg96
I6
ssg97
I4
sg98
I0
sg99
I0
sg100
I0
sg101
F10.10344827586207
sg102
I0
sg103
I0
sg104
I0
sg105
I0
sg106
(dp364
g82
I11
sg83
I5
sg84
I13
sg85
I10
sg90
I7
sg87
I9
sg88
I8
sg89
I15
sg86
I8
sg91
I9
sg92
I9
sg93
I5
sg94
I8
sg95
I9
sg96
I6
ssg108
I0
sg109
g57
sg110
I0
sg111
I0
sg112
I0
sg113
I11
sg114
I5
sg115
I0
sg116
g184
sbsS'n10'
p365
(ijoueur
joueur
p366
(dp367
g27
I0
sg28
I0
sg29
I0
sg30
(ijoueur
rang
p368
(dp369
g33
I2
sg34
S'<<'
p370
sg36
g278
sbsg38
(dp371
g40
I0
sg41
I0
sg42
I5
sg43
I0
ssg44
(dp372
g40
I0
sg41
I0
sg42
I0
sg43
I0
ssg46
I0
sg47
I0
sg48
I0
sg49
I0
sg50
I0
sg51
I0
sg52
I0
sg53
(g54
S'DM'
p373
S'DO'
p374
g57
tp375
sg59
(ijoueur
rang
p376
(dp377
g33
I2
sg34
S'<<'
p378
sg36
g278
sbsg62
(dp379
g40
I0
sg41
I0
sg42
I2
sg43
I2
ssg64
(dp380
g40
I0
sg41
I0
sg42
I5
sg43
I0
ssg66
(dp381
g40
I0
sg41
I0
sg42
I0
sg43
I0
ssg68
(dp382
g40
I0
sg41
I0
sg42
I2
sg43
I2
ssg70
I0
sg71
I0
sg72
S'Laeth'
p383
sg74
I2
sg75
I0
sg76
I13
sg77
I208
sg78
g79
sg80
(dp384
g82
I12
sg83
I3
sg84
I7
sg85
I10
sg86
I10
sg87
I6
sg88
I8
sg89
I7
sg90
I8
sg91
I11
sg92
I8
sg93
I7
sg94
I8
sg95
I8
sg96
I4
ssg97
I0
sg98
I0
sg99
I0
sg100
I0
sg101
F9.379310344827585
sg102
I0
sg103
I0
sg104
I0
sg105
I0
sg106
(dp385
g82
I12
sg83
I3
sg84
I7
sg85
I10
sg90
I8
sg87
I6
sg88
I8
sg89
I7
sg86
I10
sg91
I11
sg92
I8
sg93
I7
sg94
I8
sg95
I8
sg96
I4
ssg108
I0
sg109
S'MRB 8;KAK 11'
p386
sg110
I0
sg111
I0
sg112
I0
sg113
I13
sg114
I9
sg115
I0
sg116
S'EN'
p387
sbsS'n11'
p388
g143
sS'n16'
p389
(ijoueur
joueur
p390
(dp391
g27
I0
sg28
I0
sg29
I0
sg30
(ijoueur
rang
p392
(dp393
g33
I3
sg34
S'^^^'
p394
sg36
g133
sbsg38
(dp395
g40
I0
sg41
I0
sg42
I1
sg43
I0
ssg44
(dp396
g40
I0
sg41
I0
sg42
I0
sg43
I0
ssg46
I0
sg47
I0
sg48
I0
sg49
I0
sg50
I0
sg51
I0
sg52
I0
sg53
(g54
S'PI'
p397
S'TA'
p398
g57
tp399
sg59
(ijoueur
rang
p400
(dp401
g33
I3
sg34
S'^^^'
p402
sg36
g133
sbsg62
(dp403
g40
I0
sg41
I0
sg42
I2
sg43
I0
ssg64
(dp404
g40
I0
sg41
I0
sg42
I1
sg43
I0
ssg66
(dp405
g40
I0
sg41
I0
sg42
I0
sg43
I0
ssg68
(dp406
g40
I0
sg41
I0
sg42
I2
sg43
I0
ssg70
I0
sg71
I0
sg72
S"D'Iber"
p407
sg74
I11
sg75
I0
sg76
I21
sg77
I53
sg78
g79
sg80
(dp408
g82
I8
sg83
I8
sg84
I7
sg85
I10
sg86
I4
sg87
I11
sg88
I6
sg89
I11
sg90
I7
sg91
I9
sg92
I8
sg93
I8
sg94
I5
sg95
I8
sg96
I10
ssg97
I0
sg98
I0
sg99
I0
sg100
I0
sg101
F8.862068965517242
sg102
I0
sg103
I0
sg104
I0
sg105
I0
sg106
(dp409
g82
I8
sg83
I8
sg84
I7
sg85
I10
sg90
I7
sg87
I11
sg88
I6
sg89
I11
sg86
I4
sg91
I9
sg92
I8
sg93
I8
sg94
I5
sg95
I8
sg96
I10
ssg108
I0
sg109
g57
sg110
I0
sg111
I0
sg112
I0
sg113
I7
sg114
I0
sg115
I0
sg116
g184
sbsS'n17'
p410
(ijoueur
joueur
p411
(dp412
g27
I0
sg28
I0
sg29
I0
sg30
(ijoueur
rang
p413
(dp414
g33
I4
sg34
g35
sg36
g37
sbsg38
(dp415
g40
I0
sg41
I0
sg42
I0
sg43
I0
ssg44
(dp416
g40
I0
sg41
I0
sg42
I0
sg43
I0
ssg46
I0
sg47
I0
sg48
I0
sg49
I0
sg50
I0
sg51
I0
sg52
I0
sg53
(g54
S'TA'
p417
S'PI'
p418
g57
tp419
sg59
(ijoueur
rang
p420
(dp421
g33
I1
sg34
g123
sg36
g124
sbsg62
(dp422
g40
I0
sg41
I0
sg42
I2
sg43
I0
ssg64
(dp423
g40
I0
sg41
I0
sg42
I0
sg43
I0
ssg66
(dp424
g40
I0
sg41
I0
sg42
I0
sg43
I0
ssg68
(dp425
g40
I0
sg41
I0
sg42
I2
sg43
I0
ssg70
I0
sg71
I0
sg72
S'Drian'
p426
sg74
I11
sg75
I0
sg76
I26
sg77
I6
sg78
g79
sg80
(dp427
g82
I7
sg83
I9
sg84
I8
sg85
I7
sg86
I4
sg87
I7
sg88
I2
sg89
I8
sg90
I6
sg91
I6
sg92
I9
sg93
I8
sg94
I2
sg95
I5
sg96
I6
ssg97
I0
sg98
I0
sg99
I0
sg100
I0
sg101
F7.172413793103448
sg102
I0
sg103
I0
sg104
I0
sg105
I0
sg106
(dp428
g82
I7
sg83
I9
sg84
I8
sg85
I7
sg90
I6
sg87
I7
sg88
I2
sg89
I8
sg86
I4
sg91
I6
sg92
I9
sg93
I8
sg94
I2
sg95
I5
sg96
I6
ssg108
I0
sg109
g57
sg110
I0
sg111
I0
sg112
I0
sg113
I1
sg114
I0
sg115
I0
sg116
g184
sbsS'n14'
p429
g25
sS'n15'
p430
g188
sS'n18'
p431
g252
sS'n19'
p432
g273
sS'n22'
p433
(ijoueur
joueur
p434
(dp435
g27
I0
sg28
I0
sg29
I0
sg30
(ijoueur
rang
p436
(dp437
g33
I4
sg34
g35
sg36
g37
sbsg38
(dp438
g40
I0
sg41
I0
sg42
I5
sg43
I0
ssg44
(dp439
g40
I0
sg41
I0
sg42
I0
sg43
I0
ssg46
I0
sg47
I0
sg48
I0
sg49
I0
sg50
I0
sg51
I0
sg52
I3
sg53
(g54
S'AI'
p440
S'AR'
p441
g57
tp442
sg59
(ijoueur
rang
p443
(dp444
g33
I4
sg34
g35
sg36
g37
sbsg62
(dp445
g40
I0
sg41
I0
sg42
I4
sg43
I1
ssg64
(dp446
g40
I0
sg41
I0
sg42
I5
sg43
I0
ssg66
(dp447
g40
I0
sg41
I0
sg42
I0
sg43
I0
ssg68
(dp448
g40
I0
sg41
I0
sg42
I4
sg43
I1
ssg70
I0
sg71
I0
sg72
S'Xouplarh'
p449
sg74
I8
sg75
I3
sg76
I16
sg77
I60
sg78
g79
sg80
(dp450
g82
I10
sg83
I2
sg84
I10
sg85
I11
sg86
I10
sg87
I7
sg88
I7
sg89
I10
sg90
I5
sg91
I8
sg92
I9
sg93
I8
sg94
I9
sg95
I7
sg96
I4
ssg97
I3
sg98
I0
sg99
I0
sg100
I0
sg101
F9.225806451612904
sg102
I0
sg103
I0
sg104
I0
sg105
I0
sg106
(dp451
g82
I10
sg83
I2
sg84
I10
sg85
I11
sg90
I5
sg87
I7
sg88
I7
sg89
I10
sg86
I10
sg91
I8
sg92
I9
sg93
I8
sg94
I9
sg95
I7
sg96
I4
ssg108
I0
sg109
g57
sg110
I0
sg111
I0
sg112
I0
sg113
I6
sg114
I1
sg115
I0
sg116
S'CV'
p452
sbsS'n21'
p453
(ijoueur
joueur
p454
(dp455
g27
I0
sg28
I0
sg29
I0
sg30
(ijoueur
rang
p456
(dp457
g33
I2
sg34
S'^^'
p458
sg36
g278
sbsg38
(dp459
g40
I0
sg41
I0
sg42
I2
sg43
I1
ssg44
(dp460
g40
I0
sg41
I0
sg42
I0
sg43
I0
ssg46
I0
sg47
I0
sg48
I0
sg49
I0
sg50
I0
sg51
I0
sg52
I0
sg53
(g54
S'AI'
p461
S'CE'
p462
g57
tp463
sg59
(ijoueur
rang
p464
(dp465
g33
I2
sg34
S'^^'
p466
sg36
g278
sbsg62
(dp467
g40
I0
sg41
I0
sg42
I1
sg43
I4
ssg64
(dp468
g40
I0
sg41
I0
sg42
I2
sg43
I1
ssg66
(dp469
g40
I0
sg41
I0
sg42
I0
sg43
I0
ssg68
(dp470
g40
I0
sg41
I0
sg42
I1
sg43
I4
ssg70
I0
sg71
I0
sg72
S'Laroed'
p471
sg74
I8
sg75
I0
sg76
I15
sg77
I100
sg78
g79
sg80
(dp472
g82
I10
sg83
I5
sg84
I10
sg85
I8
sg86
I10
sg87
I6
sg88
I5
sg89
I10
sg90
I7
sg91
I11
sg92
I11
sg93
I10
sg94
I5
sg95
I10
sg96
I5
ssg97
I0
sg98
I0
sg99
I0
sg100
I0
sg101
F9.838709677419354
sg102
I0
sg103
I0
sg104
I0
sg105
I0
sg106
(dp473
g82
I10
sg83
I5
sg84
I10
sg85
I8
sg90
I7
sg87
I6
sg88
I5
sg89
I10
sg86
I10
sg91
I11
sg92
I11
sg93
I10
sg94
I5
sg95
I10
sg96
I5
ssg108
I0
sg109
S'PRG 10'
p474
sg110
I0
sg111
I0
sg112
I0
sg113
I10
sg114
I0
sg115
I0
sg116
S'CHS'
p475
sbsS'n20'
p476
(ijoueur
joueur
p477
(dp478
g27
I0
sg28
I0
sg29
I0
sg30
(ijoueur
rang
p479
(dp480
g33
I4
sg34
g35
sg36
g37
sbsg38
(dp481
g40
I0
sg41
I0
sg42
I0
sg43
I0
ssg44
(dp482
g40
I0
sg41
I0
sg42
I0
sg43
I0
ssg46
I1
sg47
I1
sg48
I0
sg49
I0
sg50
I0
sg51
I0
sg52
I0
sg53
(g54
S'DO'
p483
S'CE'
p484
S'AI'
p485
tp486
sg59
(ijoueur
rang
p487
(dp488
g33
I4
sg34
g35
sg36
g37
sbsg62
(dp489
g40
I0
sg41
I0
sg42
I4
sg43
I1
ssg64
(dp490
g40
I0
sg41
I0
sg42
I0
sg43
I0
ssg66
(dp491
g40
I0
sg41
I0
sg42
I0
sg43
I0
ssg68
(dp492
g40
I0
sg41
I0
sg42
I4
sg43
I1
ssg70
I0
sg71
I0
sg72
S'Le Hag'
p493
sg74
I5
sg75
I0
sg76
I20
sg77
I60
sg78
g79
sg80
(dp494
g82
I7
sg83
I5
sg84
I12
sg85
I7
sg86
I11
sg87
I8
sg88
I7
sg89
I13
sg90
I6
sg91
I11
sg92
I8
sg93
I5
sg94
I7
sg95
I9
sg96
I3
ssg97
I0
sg98
I0
sg99
I0
sg100
I0
sg101
F9.030303030303031
sg102
I0
sg103
I0
sg104
I0
sg105
I0
sg106
(dp495
g82
I7
sg83
I5
sg84
I12
sg85
I7
sg90
I6
sg87
I8
sg88
I7
sg89
I13
sg86
I11
sg91
I11
sg92
I8
sg93
I5
sg94
I7
sg95
I9
sg96
I3
ssg108
I0
sg109
g57
sg110
I0
sg111
I0
sg112
I0
sg113
I6
sg114
I6
sg115
I0
sg116
g184
sbsS'n8'
p496
(ijoueur
joueur
p497
(dp498
g27
I0
sg28
I0
sg29
I0
sg30
(ijoueur
rang
p499
(dp500
g33
I3
sg34
S'<<<'
p501
sg36
g133
sbsg38
(dp502
g40
I0
sg41
I0
sg42
I0
sg43
I1
ssg44
(dp503
g40
I0
sg41
I0
sg42
I0
sg43
I0
ssg46
I0
sg47
I0
sg48
I0
sg49
I0
sg50
I2
sg51
I0
sg52
I0
sg53
(g54
S'N8'
p504
S'PI'
p505
g57
tp506
sg59
(ijoueur
rang
p507
(dp508
g33
I3
sg34
S'<<<'
p509
sg36
g133
sbsg62
(dp510
g40
I0
sg41
I0
sg42
I0
sg43
I9
ssg64
(dp511
g40
I0
sg41
I0
sg42
I0
sg43
I1
ssg66
(dp512
g40
I0
sg41
I0
sg42
I0
sg43
I0
ssg68
(dp513
g40
I0
sg41
I0
sg42
I0
sg43
I9
ssg70
I0
sg71
I0
sg72
S'Querelead'
p514
sg74
I8
sg75
I0
sg76
I19
sg77
I75
sg78
g79
sg80
(dp515
g82
I4
sg83
I9
sg84
I7
sg85
I9
sg86
I0
sg87
I13
sg88
I1
sg89
I13
sg90
I8
sg91
I5
sg92
I10
sg93
I10
sg94
I2
sg95
I10
sg96
I7
ssg97
I8
sg98
I0
sg99
I0
sg100
I0
sg101
F10.0
sg102
I0
sg103
I0
sg104
I0
sg105
I0
sg106
(dp516
g82
I5
sg83
I9
sg84
I7
sg85
I9
sg90
I8
sg87
I13
sg88
I1
sg89
I13
sg86
I0
sg91
I5
sg92
I10
sg93
I11
sg94
I2
sg95
I11
sg96
I7
ssg108
I0
sg109
g57
sg110
I0
sg111
I0
sg112
I0
sg113
I8
sg114
I4
sg115
I0
sg116
S'OG'
p517
sbsS'n9'
p518
(ijoueur
joueur
p519
(dp520
g27
I0
sg28
I3
sg29
I0
sg30
(ijoueur
rang
p521
(dp522
g33
I5
sg34
S'xx'
p523
sg36
g148
sbsg38
(dp524
g40
I0
sg41
I0
sg42
I0
sg43
I0
ssg44
(dp525
g40
I0
sg41
I0
sg42
I0
sg43
I0
ssg46
I0
sg47
I0
sg48
I0
sg49
I13
sg50
I0
sg51
I0
sg52
I0
sg53
(g54
S'DM'
p526
g57
g57
tp527
sg59
(ijoueur
rang
p528
(dp529
g33
I5
sg34
S'xx'
p530
sg36
g148
sbsg62
(dp531
g40
I0
sg41
I0
sg42
I0
sg43
I9
ssg64
(dp532
g40
I0
sg41
I0
sg42
I0
sg43
I0
ssg66
(dp533
g40
I0
sg41
I0
sg42
I0
sg43
I0
ssg68
(dp534
g40
I0
sg41
I0
sg42
I0
sg43
I9
ssg70
I13
sg71
I0
sg72
S'Suplatird'
p535
sg74
I2
sg75
I0
sg76
I14
sg77
I250
sg78
g79
sg80
(dp536
g82
I11
sg83
I5
sg84
I11
sg85
I11
sg86
I10
sg87
I7
sg88
I8
sg89
I11
sg90
I8
sg91
I13
sg92
I9
sg93
I9
sg94
I7
sg95
I10
sg96
I4
ssg97
I7
sg98
I0
sg99
I0
sg100
I0
sg101
F10.620689655172415
sg102
I0
sg103
I2
sg104
I0
sg105
I0
sg106
(dp537
g82
I11
sg83
I5
sg84
I11
sg85
I11
sg90
I8
sg87
I7
sg88
I8
sg89
I11
sg86
I10
sg91
I13
sg92
I9
sg93
I9
sg94
I7
sg95
I10
sg96
I4
ssg108
I0
sg109
g57
sg110
I0
sg111
I1
sg112
I0
sg113
I25
sg114
I4
sg115
I0
sg116
S'CV'
p538
sbsS'n1'
p539
(ijoueur
joueur
p540
(dp541
g27
I0
sg28
I0
sg29
I0
sg30
(ijoueur
rang
p542
(dp543
g33
I1
sg34
S'<'
p544
sg36
g124
sbsg38
(dp545
g40
I0
sg41
I0
sg42
I0
sg43
I0
ssg44
(dp546
g40
I0
sg41
I0
sg42
I0
sg43
I0
ssg46
I0
sg47
I0
sg48
I0
sg49
I0
sg50
I0
sg51
I0
sg52
I0
sg53
(g54
S'PI'
p547
S'TL'
p548
S'TA'
p549
tp550
sg59
(ijoueur
rang
p551
(dp552
g33
I1
sg34
g544
sg36
g124
sbsg62
(dp553
g40
I0
sg41
I0
sg42
I0
sg43
I7
ssg64
(dp554
g40
I0
sg41
I0
sg42
I0
sg43
I0
ssg66
(dp555
g40
I0
sg41
I0
sg42
I0
sg43
I0
ssg68
(dp556
g40
I0
sg41
I0
sg42
I0
sg43
I7
ssg70
I0
sg71
I0
sg72
S'Ledol'
p557
sg74
I3
sg75
I0
sg76
I13
sg77
I50
sg78
g79
sg80
(dp558
g82
I9
sg83
I15
sg84
I6
sg85
I10
sg86
I2
sg87
I12
sg88
I1
sg89
I12
sg90
I4
sg91
I4
sg92
I7
sg93
I11
sg94
I2
sg95
I9
sg96
I8
ssg97
I0
sg98
I0
sg99
I1
sg100
I0
sg101
F10.88888888888889
sg102
I0
sg103
I0
sg104
I1
sg105
I0
sg106
(dp559
g82
I9
sg83
I15
sg84
I6
sg85
I10
sg90
I4
sg87
I12
sg88
I1
sg89
I12
sg86
I2
sg91
I4
sg92
I7
sg93
I11
sg94
I2
sg95
I9
sg96
I8
ssg108
I0
sg109
S'TO 9'
p560
sg110
I0
sg111
I0
sg112
I0
sg113
I5
sg114
I3
sg115
I0
sg116
S'HL'
p561
sbsS'n2'
p562
(ijoueur
joueur
p563
(dp564
g27
I0
sg28
I0
sg29
I0
sg30
(ijoueur
rang
p565
(dp566
g33
I4
sg34
g35
sg36
g37
sbsg38
(dp567
g40
I0
sg41
I0
sg42
I0
sg43
I0
ssg44
(dp568
g40
I0
sg41
I0
sg42
I0
sg43
I0
ssg46
I0
sg47
I0
sg48
I0
sg49
I0
sg50
I0
sg51
I0
sg52
I0
sg53
(g54
S'TA'
p569
S'PI'
p570
g57
tp571
sg59
(ijoueur
rang
p572
(dp573
g33
I4
sg34
g35
sg36
g37
sbsg62
(dp574
g40
I0
sg41
I0
sg42
I8
sg43
I3
ssg64
(dp575
g40
I0
sg41
I0
sg42
I0
sg43
I0
ssg66
(dp576
g40
I0
sg41
I0
sg42
I0
sg43
I0
ssg68
(dp577
g40
I0
sg41
I0
sg42
I8
sg43
I3
ssg70
I0
sg71
I0
sg72
S"D'Uvars"
p578
sg74
I8
sg75
I0
sg76
I19
sg77
I60
sg78
g79
sg80
(dp579
g82
I8
sg83
I12
sg84
I7
sg85
I10
sg86
I5
sg87
I12
sg88
I3
sg89
I12
sg90
I5
sg91
I8
sg92
I7
sg93
I7
sg94
I3
sg95
I12
sg96
I13
ssg97
I5
sg98
I0
sg99
I0
sg100
I0
sg101
F10.241379310344827
sg102
I0
sg103
I0
sg104
I0
sg105
I0
sg106
(dp580
g82
I8
sg83
I12
sg84
I7
sg85
I10
sg90
I5
sg87
I12
sg88
I3
sg89
I12
sg86
I5
sg91
I8
sg92
I7
sg93
I7
sg94
I3
sg95
I12
sg96
I13
ssg108
I0
sg109
g57
sg110
I0
sg111
I0
sg112
I0
sg113
I6
sg114
I5
sg115
I0
sg116
g184
sbsS'n3'
p581
g165
sS'n4'
p582
g234
sS'n5'
p583
g119
sS'n6'
p584
(ijoueur
joueur
p585
(dp586
g27
I0
sg28
I0
sg29
I0
sg30
(ijoueur
rang
p587
(dp588
g33
I1
sg34
g310
sg36
g124
sbsg38
(dp589
g40
I0
sg41
I0
sg42
I1
sg43
I0
ssg44
(dp590
g40
I0
sg41
I0
sg42
I0
sg43
I0
ssg46
I0
sg47
I0
sg48
I0
sg49
I0
sg50
I1
sg51
I0
sg52
I0
sg53
(g54
S'N8'
p591
S'TL'
p592
g57
tp593
sg59
(ijoueur
rang
p594
(dp595
g33
I1
sg34
g310
sg36
g124
sbsg62
(dp596
g40
I0
sg41
I0
sg42
I0
sg43
I1
ssg64
(dp597
g40
I0
sg41
I0
sg42
I1
sg43
I0
ssg66
(dp598
g40
I0
sg41
I0
sg42
I0
sg43
I0
ssg68
(dp599
g40
I0
sg41
I0
sg42
I0
sg43
I1
ssg70
I0
sg71
I0
sg72
S'Noupel'
p600
sg74
I8
sg75
I0
sg76
I17
sg77
I8
sg78
g79
sg80
(dp601
g82
I9
sg83
I7
sg84
I5
sg85
I6
sg86
I3
sg87
I9
sg88
I3
sg89
I9
sg90
I8
sg91
I9
sg92
I7
sg93
I8
sg94
I3
sg95
I6
sg96
I3
ssg97
I0
sg98
I0
sg99
I0
sg100
I0
sg101
F7.638888888888889
sg102
I0
sg103
I0
sg104
I0
sg105
I0
sg106
(dp602
g82
I9
sg83
I7
sg84
I5
sg85
I6
sg90
I8
sg87
I9
sg88
I3
sg89
I9
sg86
I3
sg91
I9
sg92
I7
sg93
I8
sg94
I3
sg95
I6
sg96
I3
ssg108
I0
sg109
S'PRG 11'
p603
sg110
I0
sg111
I0
sg112
I0
sg113
I1
sg114
I3
sg115
I0
sg116
S'EMP'
p604
sbsS'n7'
p605
g297
ssS'remplacements'
p606
(dp607
g389
S'n0'
p608
sg410
g608
sg431
g608
sg432
g608
sg433
g608
sg453
g608
sg476
g608
ssb.