ccopy_reg
_reconstructor
p0
(cclub
club
p1
c__builtin__
object
p2
Ntp3
Rp4
(dp5
S'joues_championat'
p6
I13
sS'avertissement'
p7
I0
sS'pour_championat'
p8
I264
sS'contre_championat'
p9
I134
sS'_compo_defaut_fatigue'
p10
NsS'perdus_championat'
p11
I3
sS'difference_championat'
p12
I130
sS'perdus_coupe'
p13
I1
sS'pour_coupe'
p14
I40
sS'gagnes_championat'
p15
I9
sS'bonus_defensif_championat'
p16
I2
sS'contre_coupe'
p17
I24
sS'joues_coupe'
p18
I2
sS'bonus_offensif_coupe'
p19
I0
sS'valeur'
p20
I2669
sS'bonus_defensif_coupe'
p21
I0
sS'joueurs'
p22
(dp23
S'DO'
p24
(lp25
(ijoueur
joueur
p26
(dp27
S'rouges_total'
p28
I0
sS'drop_ratees_total'
p29
I1
sS'drops_total'
p30
I6
sS'xp_total'
p31
F175.15439921718868
sS'poste3'
p32
S''
p33
sS'blessure'
p34
I0
sS'poste1'
p35
g33
sS'points_retraite'
p36
I0
sS'RG_max'
p37
g0
(cjoueur
rang_new
p38
g2
Ntp39
Rp40
(dp41
S'type_nb'
p42
I4
sS'rang'
p43
S'*'
p44
sS'type'
p45
S'heros'
p46
sbsS'MJ2_total'
p47
(dp48
S'SR'
p49
I0
sS'ST'
p50
I0
sS'CR'
p51
I1
sS'CT'
p52
I0
ssS'MJ3_total'
p53
(dp54
g49
I0
sg50
I0
sg51
I0
sg52
I0
ssS'D'
p55
I14
sS'anciens_clubs'
p56
g33
sS'drop_rates_saison'
p57
I1
sS'xp_saison'
p58
F175.15439921718868
sS'essais_saison'
p59
I2
sS'penalite_ratees_saison'
p60
I0
sS'transformations_saison'
p61
I0
sS'club'
p62
S'AES'
p63
sS'veut_partir'
p64
I00
sS'RG'
p65
g40
sS'MJ1'
p66
(dp67
g49
I5
sg50
I1
sg51
I0
sg52
I11
ssS'MS_probleme'
p68
I00
sS'MJ3'
p69
(dp70
g49
I0
sg50
I0
sg51
I0
sg52
I0
ssS'MJ1_total'
p71
(dp72
g49
I5
sg50
I1
sg51
I0
sg52
I11
ssS'penalites_total'
p73
I0
sS'penalites_saison'
p74
I0
sS'nom'
p75
S'Frathyor'
p76
sS'C'
p77
I7
sS'transformations_total'
p78
I0
sS'random_retraite'
p79
I6
sS'VAL'
p80
I120
sS'bonus'
p81
I3
sS'retraite'
p82
I00
sS'poste2'
p83
g33
sS'caracs'
p84
(dp85
S'RP1'
p86
I9
sS'ME'
p87
I7
sS'RP2'
p88
I7
sS'E'
p89
I10
sS'TO'
p90
I7
sS'M'
p91
I8
sS'JP'
p92
I11
sS'RP_tot'
p93
I9
sS'P'
p94
I8
sS'PA'
p95
I11
sS'A'
p96
I11
sS'R'
p97
I10
sS'TB'
p98
I7
sS'PL'
p99
I10
sS'TA'
p100
I7
ssS'jj_passe'
p101
(dp102
S's12'
p103
(ijoueur
joueur
p104
(dp105
g28
I0
sg29
I0
sg30
I0
sg34
I0
sg37
g0
(g38
g2
Ntp106
Rp107
(dp108
g43
g33
sbsg47
(dp109
g49
I0
sg50
I0
sg51
I0
sg52
I0
ssg53
(dp110
g49
I0
sg50
I0
sg51
I0
sg52
I0
ssg56
g33
sg57
I0
sg59
I0
sg60
I0
sg61
I0
sS'postes'
p111
(S'dummy'
p112
g24
g33
g33
tp113
sg64
I00
sg65
g0
(g38
g2
Ntp114
Rp115
(dp116
g43
g33
sbsg66
(dp117
g49
I0
sg50
I0
sg51
I0
sg52
I0
ssg68
I00
sg69
(dp118
g49
I0
sg50
I0
sg51
I0
sg52
I0
ssg71
(dp119
g49
I0
sg50
I0
sg51
I0
sg52
I0
ssg73
I0
sg74
I0
sg75
g33
sg77
I0
sg78
I0
sg55
I0
sg80
I0
sg62
g63
sg84
(dp120
g96
I0
sg87
I0
sg88
I0
sg89
I0
sg90
I0
sg86
I0
sg92
I0
sg93
I0
sg94
I0
sg95
I0
sg91
I0
sg97
I0
sg98
I0
sg99
I0
sg100
I0
ssg101
(dp121
sS'fatigue'
p122
I0
sS'changements_postes'
p123
g33
sS'blessures_total'
p124
I0
sS'blessures_saison'
p125
I0
sS'XP'
p126
I0
sS'EV'
p127
F0.0
sS'penalite_ratees_total'
p128
I0
sS'MJ2'
p129
(dp130
g49
I0
sg50
I0
sg51
I0
sg52
I0
ssS'jaunes_total'
p131
I0
sS'caracs_sans_fatigue'
p132
g85
sS'rouges_saison'
p133
I0
sS'transformation_ratees_total'
p134
I0
sS'drops_saison'
p135
I0
sS'transformation_ratees_saison'
p136
I0
sS'MS'
p137
I0
sS'essais_total'
p138
I0
sS'jaunes_saison'
p139
I0
sS'ARM'
p140
g33
sbsS's11'
p141
(ijoueur
joueur
p142
(dp143
g28
I0
sg29
I0
sg30
I0
sg34
I0
sg37
g0
(g38
g2
Ntp144
Rp145
(dp146
g43
g33
sbsg47
(dp147
g49
I0
sg50
I0
sg51
I0
sg52
I0
ssg53
(dp148
g49
I0
sg50
I0
sg51
I0
sg52
I0
ssg56
g33
sg57
I0
sg59
I0
sg60
I0
sg61
I0
sg111
g113
sg64
I00
sg65
g0
(g38
g2
Ntp149
Rp150
(dp151
g43
g33
sbsg66
(dp152
g49
I0
sg50
I0
sg51
I0
sg52
I0
ssg68
I00
sg69
(dp153
g49
I0
sg50
I0
sg51
I0
sg52
I0
ssg71
(dp154
g49
I0
sg50
I0
sg51
I0
sg52
I0
ssg73
I0
sg74
I0
sg75
g33
sg77
I0
sg78
I0
sg55
I0
sg80
I0
sg62
g63
sg84
(dp155
g96
I0
sg87
I0
sg88
I0
sg89
I0
sg90
I0
sg86
I0
sg92
I0
sg93
I0
sg94
I0
sg95
I0
sg91
I0
sg97
I0
sg98
I0
sg99
I0
sg100
I0
ssg101
(dp156
sg122
I0
sg123
g33
sg124
I0
sg125
I0
sg126
I0
sg127
F0.0
sg128
I0
sg129
(dp157
g49
I0
sg50
I0
sg51
I0
sg52
I0
ssg131
I0
sg132
g85
sg133
I0
sg134
I0
sg135
I0
sg136
I0
sg137
I0
sg138
I0
sg139
I0
sg140
g33
sbssg122
I0
sg123
g33
sg124
I0
sg125
I0
sg126
I0
sg127
F9.818181818181818
sg128
I0
sg111
(g112
g24
S'AR'
p158
g33
tp159
sg129
(dp160
g49
I0
sg50
I0
sg51
I1
sg52
I0
ssg131
I0
sg132
g85
sg133
I0
sg134
I0
sg135
I6
sg136
I0
sg137
I12
sg138
I2
sg139
I0
sg140
S'CHS'
p161
sba(ijoueur
joueur
p162
(dp163
g28
I0
sg29
I1
sg30
I0
sg31
F52.87418428361307
sg32
g33
sg34
I0
sg35
g33
sg36
I0
sg37
g0
(g38
g2
Ntp164
Rp165
(dp166
g42
I2
sg43
S'^^'
p167
sg45
S'special'
p168
sbsg47
(dp169
g49
I0
sg50
I0
sg51
I0
sg52
I0
ssg53
(dp170
g49
I0
sg50
I0
sg51
I0
sg52
I0
ssg55
I14
sg56
g33
sg57
I1
sg58
F52.87418428361307
sg59
I0
sg60
I0
sg61
I0
sg62
g63
sg64
I01
sg65
g165
sg66
(dp171
g49
I0
sg50
I0
sg51
I4
sg52
I2
ssg68
I00
sg69
(dp172
g49
I0
sg50
I0
sg51
I0
sg52
I0
ssg71
(dp173
g49
I0
sg50
I0
sg51
I4
sg52
I2
ssg73
I5
sg74
I5
sg75
S'Xharmistl'
p174
sg77
I4
sg78
I0
sg79
I7
sg80
I79
sg81
I0
sg82
I00
sg83
g33
sg84
(dp175
g86
I5
sg87
I7
sg88
I7
sg89
I12
sg90
I7
sg91
I11
sg92
I7
sg93
I7
sg94
I7
sg95
I9
sg96
I11
sg97
I10
sg98
I9
sg99
I8
sg100
I6
ssg101
(dp176
S's12'
p177
(ijoueur
joueur
p178
(dp179
g28
I0
sg29
I0
sg30
I0
sg34
I0
sg37
g0
(g38
g2
Ntp180
Rp181
(dp182
g43
g33
sbsg47
(dp183
g49
I0
sg50
I0
sg51
I0
sg52
I0
ssg53
(dp184
g49
I0
sg50
I0
sg51
I0
sg52
I0
ssg56
g33
sg57
I0
sg59
I0
sg60
I0
sg61
I0
sg111
(g112
g24
g33
g33
tp185
sg64
I00
sg65
g0
(g38
g2
Ntp186
Rp187
(dp188
g43
g33
sbsg66
(dp189
g49
I0
sg50
I0
sg51
I0
sg52
I0
ssg68
I00
sg69
(dp190
g49
I0
sg50
I0
sg51
I0
sg52
I0
ssg71
(dp191
g49
I0
sg50
I0
sg51
I0
sg52
I0
ssg73
I0
sg74
I0
sg75
g33
sg77
I0
sg78
I0
sg55
I0
sg80
I0
sg62
g63
sg84
(dp192
g96
I0
sg87
I0
sg88
I0
sg89
I0
sg90
I0
sg86
I0
sg92
I0
sg93
I0
sg94
I0
sg95
I0
sg91
I0
sg97
I0
sg98
I0
sg99
I0
sg100
I0
ssg101
(dp193
sg122
I0
sg123
g33
sg124
I0
sg125
I0
sg126
I0
sg127
F0.0
sg128
I0
sg129
(dp194
g49
I0
sg50
I0
sg51
I0
sg52
I0
ssg131
I0
sg132
g175
sg133
I0
sg134
I0
sg135
I0
sg136
I0
sg137
I0
sg138
I0
sg139
I0
sg140
g33
sbsS's11'
p195
(ijoueur
joueur
p196
(dp197
g28
I0
sg29
I0
sg30
I0
sg34
I0
sg37
g0
(g38
g2
Ntp198
Rp199
(dp200
g43
g33
sbsg47
(dp201
g49
I0
sg50
I0
sg51
I0
sg52
I0
ssg53
(dp202
g49
I0
sg50
I0
sg51
I0
sg52
I0
ssg56
g33
sg57
I0
sg59
I0
sg60
I0
sg61
I0
sg111
g185
sg64
I00
sg65
g0
(g38
g2
Ntp203
Rp204
(dp205
g43
g33
sbsg66
(dp206
g49
I0
sg50
I0
sg51
I0
sg52
I0
ssg68
I00
sg69
(dp207
g49
I0
sg50
I0
sg51
I0
sg52
I0
ssg71
(dp208
g49
I0
sg50
I0
sg51
I0
sg52
I0
ssg73
I0
sg74
I0
sg75
g33
sg77
I0
sg78
I0
sg55
I0
sg80
I0
sg62
g63
sg84
(dp209
g96
I0
sg87
I0
sg88
I0
sg89
I0
sg90
I0
sg86
I0
sg92
I0
sg93
I0
sg94
I0
sg95
I0
sg91
I0
sg97
I0
sg98
I0
sg99
I0
sg100
I0
ssg101
(dp210
sg122
I0
sg123
g33
sg124
I0
sg125
I0
sg126
I0
sg127
F0.0
sg128
I0
sg129
(dp211
g49
I0
sg50
I0
sg51
I0
sg52
I0
ssg131
I0
sg132
g175
sg133
I0
sg134
I0
sg135
I0
sg136
I0
sg137
I0
sg138
I0
sg139
I0
sg140
g33
sbssg122
I0
sg123
g33
sg124
I1
sg125
I1
sg126
I0
sg127
F8.857142857142858
sg128
I0
sg111
(g112
g24
g33
g33
tp212
sg129
(dp213
g49
I0
sg50
I0
sg51
I0
sg52
I0
ssg131
I0
sg132
g175
sg133
I0
sg134
I0
sg135
I0
sg136
I0
sg137
I7
sg138
I0
sg139
I0
sg140
g161
sbasS'DL'
p214
(lp215
(ijoueur
joueur
p216
(dp217
g28
I0
sg29
I0
sg30
I0
sg31
F43.89778253392899
sg32
g33
sg34
I0
sg35
g33
sg36
I0
sg37
g0
(g38
g2
Ntp218
Rp219
(dp220
g42
I2
sg43
S'<<'
p221
sg45
g168
sbsg47
(dp222
g49
I0
sg50
I0
sg51
I0
sg52
I0
ssg53
(dp223
g49
I0
sg50
I0
sg51
I0
sg52
I0
ssS'rand_retraite'
p224
I10
sg56
g33
sg57
I0
sg58
F43.89778253392899
sg59
I0
sg60
I0
sg61
I0
sg62
g63
sg64
I01
sg65
g219
sg66
(dp225
g49
I0
sg50
I0
sg51
I4
sg52
I1
ssg129
(dp226
g49
I0
sg50
I0
sg51
I0
sg52
I0
ssg69
(dp227
g49
I0
sg50
I0
sg51
I0
sg52
I0
ssg71
(dp228
g49
I0
sg50
I0
sg51
I4
sg52
I1
ssg73
I0
sg74
I0
sg75
S'Dlanaor'
p229
sg77
I7
sg78
I0
sg68
I00
sg80
I48
sg81
I0
sg82
I00
sg83
g33
sg55
I15
sg84
(dp230
g86
I8
sg87
I9
sg88
I6
sg89
I8
sg90
I8
sg91
I7
sg92
I4
sg93
I8
sg94
I3
sg95
I8
sg96
I9
sg97
I8
sg98
I4
sg99
I10
sg100
I6
ssg101
(dp231
S's12'
p232
(ijoueur
joueur
p233
(dp234
g28
I0
sg29
I0
sg30
I0
sg34
I0
sg37
g0
(g38
g2
Ntp235
Rp236
(dp237
g43
g33
sbsg47
(dp238
g49
I0
sg50
I0
sg51
I0
sg52
I0
ssg53
(dp239
g49
I0
sg50
I0
sg51
I0
sg52
I0
ssg56
g33
sg57
I0
sg59
I0
sg60
I0
sg61
I0
sg111
(g112
g214
g33
g33
tp240
sg64
I00
sg65
g0
(g38
g2
Ntp241
Rp242
(dp243
g43
g33
sbsg66
(dp244
g49
I0
sg50
I0
sg51
I0
sg52
I0
ssg68
I00
sg69
(dp245
g49
I0
sg50
I0
sg51
I0
sg52
I0
ssg71
(dp246
g49
I0
sg50
I0
sg51
I0
sg52
I0
ssg73
I0
sg74
I0
sg75
g33
sg77
I0
sg78
I0
sg55
I0
sg80
I0
sg62
g63
sg84
(dp247
g96
I0
sg87
I0
sg88
I0
sg89
I0
sg90
I0
sg86
I0
sg92
I0
sg93
I0
sg94
I0
sg95
I0
sg91
I0
sg97
I0
sg98
I0
sg99
I0
sg100
I0
ssg101
(dp248
sg122
I0
sg123
g33
sg124
I0
sg125
I0
sg126
I0
sg127
F0.0
sg128
I0
sg129
(dp249
g49
I0
sg50
I0
sg51
I0
sg52
I0
ssg131
I0
sg132
g230
sg133
I0
sg134
I0
sg135
I0
sg136
I0
sg137
I0
sg138
I0
sg139
I0
sg140
g33
sbsS's11'
p250
(ijoueur
joueur
p251
(dp252
g28
I0
sg29
I0
sg30
I0
sg34
I0
sg37
g0
(g38
g2
Ntp253
Rp254
(dp255
g43
g33
sbsg47
(dp256
g49
I0
sg50
I0
sg51
I0
sg52
I0
ssg53
(dp257
g49
I0
sg50
I0
sg51
I0
sg52
I0
ssg56
g33
sg57
I0
sg59
I0
sg60
I0
sg61
I0
sg111
g240
sg64
I00
sg65
g0
(g38
g2
Ntp258
Rp259
(dp260
g43
g33
sbsg66
(dp261
g49
I0
sg50
I0
sg51
I0
sg52
I0
ssg68
I00
sg69
(dp262
g49
I0
sg50
I0
sg51
I0
sg52
I0
ssg71
(dp263
g49
I0
sg50
I0
sg51
I0
sg52
I0
ssg73
I0
sg74
I0
sg75
g33
sg77
I0
sg78
I0
sg55
I0
sg80
I0
sg62
g63
sg84
(dp264
g96
I0
sg87
I0
sg88
I0
sg89
I0
sg90
I0
sg86
I0
sg92
I0
sg93
I0
sg94
I0
sg95
I0
sg91
I0
sg97
I0
sg98
I0
sg99
I0
sg100
I0
ssg101
(dp265
sg122
I0
sg123
g33
sg124
I0
sg125
I0
sg126
I0
sg127
F0.0
sg128
I0
sg129
(dp266
g49
I0
sg50
I0
sg51
I0
sg52
I0
ssg131
I0
sg132
g230
sg133
I0
sg134
I0
sg135
I0
sg136
I0
sg137
I0
sg138
I0
sg139
I0
sg140
g33
sbssg122
I0
sg123
g33
sg124
I0
sg126
I0
sg127
F8.481481481481481
sg128
I0
sg111
(g112
g214
S'TL'
p267
g33
tp268
sg125
I0
sg131
I0
sg132
g230
sg133
I0
sg134
I0
sg135
I0
sg136
I0
sg137
I4
sg138
I0
sg139
I0
sg140
g161
sba(ijoueur
joueur
p269
(dp270
g28
I0
sg29
I0
sg30
I0
sg31
F8.830124800405503
sg32
g33
sg34
I0
sg35
g33
sg36
I0
sg37
g0
(g38
g2
Ntp271
Rp272
(dp273
g42
I1
sg43
S'>'
p274
sg45
S'base'
p275
sbsg47
(dp276
g49
I0
sg50
I0
sg51
I0
sg52
I0
ssg53
(dp277
g49
I0
sg50
I0
sg51
I0
sg52
I0
ssg224
I10
sg56
g33
sg57
I0
sg58
F8.830124800405503
sg59
I0
sg60
I0
sg61
I0
sg62
g63
sg64
I00
sg65
g272
sg66
(dp278
g49
I0
sg50
I0
sg51
I1
sg52
I0
ssg129
(dp279
g49
I0
sg50
I0
sg51
I0
sg52
I0
ssg69
(dp280
g49
I0
sg50
I0
sg51
I0
sg52
I0
ssg71
(dp281
g49
I0
sg50
I0
sg51
I1
sg52
I0
ssg73
I0
sg74
I0
sg75
S'Rajhaec'
p282
sg77
I13
sg78
I0
sg68
I01
sg80
I19
sg81
I0
sg82
I00
sg83
g33
sg55
I23
sg84
(dp283
g86
I7
sg87
I8
sg88
I8
sg89
I9
sg90
I7
sg91
I8
sg92
I3
sg93
I9
sg94
I4
sg95
I7
sg96
I8
sg97
I7
sg98
I3
sg99
I8
sg100
I1
ssg101
(dp284
sg122
I0
sg123
g33
sg124
I0
sg126
I0
sg127
F8.0
sg128
I0
sg111
(g112
g214
g33
g33
tp285
sg125
I0
sg131
I0
sg132
g283
sg133
I0
sg134
I0
sg135
I0
sg136
I0
sg137
I1
sg138
I0
sg139
I0
sg140
g161
sba(ijoueur
joueur
p286
(dp287
g28
I0
sg29
I0
sg30
I0
sg31
F108.00646688721505
sg32
g33
sg34
I0
sg35
g33
sg36
I0
sg37
g0
(g38
g2
Ntp288
Rp289
(dp290
g42
I4
sg43
S'x'
p291
sg45
g46
sbsg47
(dp292
g49
I0
sg50
I0
sg51
I0
sg52
I0
ssg53
(dp293
g49
I0
sg50
I0
sg51
I0
sg52
I0
ssg224
I10
sg56
g33
sg57
I0
sg58
F108.00646688721505
sg59
I1
sg60
I0
sg61
I0
sg62
g63
sg64
I00
sg65
g289
sg66
(dp294
g49
I0
sg50
I0
sg51
I1
sg52
I11
ssg129
(dp295
g49
I0
sg50
I0
sg51
I0
sg52
I0
ssg69
(dp296
g49
I0
sg50
I0
sg51
I0
sg52
I0
ssg71
(dp297
g49
I0
sg50
I0
sg51
I1
sg52
I11
ssg73
I0
sg74
I0
sg75
S'Zlomo'
p298
sg77
I8
sg78
I0
sg68
I00
sg80
I152
sg81
I2
sg82
I00
sg83
g33
sg55
I22
sg84
(dp299
g86
I10
sg87
I10
sg88
I7
sg89
I9
sg90
I11
sg91
I7
sg92
I3
sg93
I10
sg94
I5
sg95
I8
sg96
I8
sg97
I8
sg98
I6
sg99
I11
sg100
I6
ssg101
(dp300
S's12'
p301
(ijoueur
joueur
p302
(dp303
g28
I0
sg29
I0
sg30
I0
sg34
I0
sg37
g0
(g38
g2
Ntp304
Rp305
(dp306
g43
g33
sbsg47
(dp307
g49
I0
sg50
I0
sg51
I0
sg52
I0
ssg53
(dp308
g49
I0
sg50
I0
sg51
I0
sg52
I0
ssg56
g33
sg57
I0
sg59
I0
sg60
I0
sg61
I0
sg111
(g112
g214
g33
g33
tp309
sg64
I00
sg65
g0
(g38
g2
Ntp310
Rp311
(dp312
g43
g33
sbsg66
(dp313
g49
I0
sg50
I0
sg51
I0
sg52
I0
ssg68
I00
sg69
(dp314
g49
I0
sg50
I0
sg51
I0
sg52
I0
ssg71
(dp315
g49
I0
sg50
I0
sg51
I0
sg52
I0
ssg73
I0
sg74
I0
sg75
g33
sg77
I0
sg78
I0
sg55
I0
sg80
I0
sg62
g63
sg84
(dp316
g96
I0
sg87
I0
sg88
I0
sg89
I0
sg90
I0
sg86
I0
sg92
I0
sg93
I0
sg94
I0
sg95
I0
sg91
I0
sg97
I0
sg98
I0
sg99
I0
sg100
I0
ssg101
(dp317
sg122
I0
sg123
g33
sg124
I0
sg125
I0
sg126
I0
sg127
F0.0
sg128
I0
sg129
(dp318
g49
I0
sg50
I0
sg51
I0
sg52
I0
ssg131
I0
sg132
g299
sg133
I0
sg134
I0
sg135
I0
sg136
I0
sg137
I0
sg138
I0
sg139
I0
sg140
g33
sbsS's11'
p319
(ijoueur
joueur
p320
(dp321
g28
I0
sg29
I0
sg30
I0
sg34
I0
sg37
g0
(g38
g2
Ntp322
Rp323
(dp324
g43
g33
sbsg47
(dp325
g49
I0
sg50
I0
sg51
I0
sg52
I0
ssg53
(dp326
g49
I0
sg50
I0
sg51
I0
sg52
I0
ssg56
g33
sg57
I0
sg59
I0
sg60
I0
sg61
I0
sg111
g309
sg64
I00
sg65
g0
(g38
g2
Ntp327
Rp328
(dp329
g43
g33
sbsg66
(dp330
g49
I0
sg50
I0
sg51
I0
sg52
I0
ssg68
I00
sg69
(dp331
g49
I0
sg50
I0
sg51
I0
sg52
I0
ssg71
(dp332
g49
I0
sg50
I0
sg51
I0
sg52
I0
ssg73
I0
sg74
I0
sg75
g33
sg77
I0
sg78
I0
sg55
I0
sg80
I0
sg62
g63
sg84
(dp333
g96
I0
sg87
I0
sg88
I0
sg89
I0
sg90
I0
sg86
I0
sg92
I0
sg93
I0
sg94
I0
sg95
I0
sg91
I0
sg97
I0
sg98
I0
sg99
I0
sg100
I0
ssg101
(dp334
sg122
I0
sg123
g33
sg124
I0
sg125
I0
sg126
I0
sg127
F0.0
sg128
I0
sg129
(dp335
g49
I0
sg50
I0
sg51
I0
sg52
I0
ssg131
I0
sg132
g299
sg133
I0
sg134
I0
sg135
I0
sg136
I0
sg137
I0
sg138
I0
sg139
I0
sg140
g33
sbssg122
I0
sg123
g33
sg124
I0
sg126
I0
sg127
F9.529411764705882
sg128
I0
sg111
(g112
g214
g33
g33
tp336
sg125
I0
sg131
I1
sg132
g299
sg133
I0
sg134
I0
sg135
I0
sg136
I0
sg137
I15
sg138
I1
sg139
I1
sg140
S'O'
p337
sba(ijoueur
joueur
p338
(dp339
g28
I0
sg29
I0
sg30
I0
sg31
F62.204867317715824
sg32
g33
sg34
I0
sg35
g33
sg36
I0
sg37
g0
(g38
g2
Ntp340
Rp341
(dp342
g42
I1
sg43
g274
sg45
g275
sbsg47
(dp343
g49
I0
sg50
I0
sg51
I1
sg52
I0
ssg53
(dp344
g49
I0
sg50
I0
sg51
I0
sg52
I0
ssg224
I10
sg56
g33
sg57
I0
sg58
F62.204867317715824
sg59
I0
sg60
I0
sg61
I0
sg62
g63
sg64
I01
sg65
g341
sg66
(dp345
g49
I0
sg50
I0
sg51
I1
sg52
I5
ssg129
(dp346
g49
I0
sg50
I0
sg51
I1
sg52
I0
ssg69
(dp347
g49
I0
sg50
I0
sg51
I0
sg52
I0
ssg71
(dp348
g49
I0
sg50
I0
sg51
I1
sg52
I5
ssg73
I0
sg74
I0
sg75
S'Frathoer'
p349
sg77
I10
sg78
I0
sg68
I00
sg80
I29
sg81
I0
sg82
I00
sg83
g33
sg55
I23
sg84
(dp350
g86
I7
sg87
I7
sg88
I5
sg89
I11
sg90
I8
sg91
I8
sg92
I3
sg93
I7
sg94
I1
sg95
I6
sg96
I10
sg97
I8
sg98
I2
sg99
I10
sg100
I3
ssg101
(dp351
S's12'
p352
(ijoueur
joueur
p353
(dp354
g28
I0
sg29
I0
sg30
I0
sg34
I0
sg37
g0
(g38
g2
Ntp355
Rp356
(dp357
g43
g33
sbsg47
(dp358
g49
I0
sg50
I0
sg51
I0
sg52
I0
ssg53
(dp359
g49
I0
sg50
I0
sg51
I0
sg52
I0
ssg56
g33
sg57
I0
sg59
I0
sg60
I0
sg61
I0
sg111
(g112
g214
g33
g33
tp360
sg64
I00
sg65
g0
(g38
g2
Ntp361
Rp362
(dp363
g43
g33
sbsg66
(dp364
g49
I0
sg50
I0
sg51
I0
sg52
I0
ssg68
I00
sg69
(dp365
g49
I0
sg50
I0
sg51
I0
sg52
I0
ssg71
(dp366
g49
I0
sg50
I0
sg51
I0
sg52
I0
ssg73
I0
sg74
I0
sg75
g33
sg77
I0
sg78
I0
sg55
I0
sg80
I0
sg62
g63
sg84
(dp367
g96
I0
sg87
I0
sg88
I0
sg89
I0
sg90
I0
sg86
I0
sg92
I0
sg93
I0
sg94
I0
sg95
I0
sg91
I0
sg97
I0
sg98
I0
sg99
I0
sg100
I0
ssg101
(dp368
sg122
I0
sg123
g33
sg124
I0
sg125
I0
sg126
I0
sg127
F0.0
sg128
I0
sg129
(dp369
g49
I0
sg50
I0
sg51
I0
sg52
I0
ssg131
I0
sg132
g350
sg133
I0
sg134
I0
sg135
I0
sg136
I0
sg137
I0
sg138
I0
sg139
I0
sg140
g33
sbsS's11'
p370
(ijoueur
joueur
p371
(dp372
g28
I0
sg29
I0
sg30
I0
sg34
I0
sg37
g0
(g38
g2
Ntp373
Rp374
(dp375
g43
g33
sbsg47
(dp376
g49
I0
sg50
I0
sg51
I0
sg52
I0
ssg53
(dp377
g49
I0
sg50
I0
sg51
I0
sg52
I0
ssg56
g33
sg57
I0
sg59
I0
sg60
I0
sg61
I0
sg111
g360
sg64
I00
sg65
g0
(g38
g2
Ntp378
Rp379
(dp380
g43
g33
sbsg66
(dp381
g49
I0
sg50
I0
sg51
I0
sg52
I0
ssg68
I00
sg69
(dp382
g49
I0
sg50
I0
sg51
I0
sg52
I0
ssg71
(dp383
g49
I0
sg50
I0
sg51
I0
sg52
I0
ssg73
I0
sg74
I0
sg75
g33
sg77
I0
sg78
I0
sg55
I0
sg80
I0
sg62
g63
sg84
(dp384
g96
I0
sg87
I0
sg88
I0
sg89
I0
sg90
I0
sg86
I0
sg92
I0
sg93
I0
sg94
I0
sg95
I0
sg91
I0
sg97
I0
sg98
I0
sg99
I0
sg100
I0
ssg101
(dp385
sg122
I0
sg123
g33
sg124
I0
sg125
I0
sg126
I0
sg127
F0.0
sg128
I0
sg129
(dp386
g49
I0
sg50
I0
sg51
I0
sg52
I0
ssg131
I0
sg132
g350
sg133
I0
sg134
I0
sg135
I0
sg136
I0
sg137
I0
sg138
I0
sg139
I0
sg140
g33
sbssg122
I0
sg123
g33
sg124
I0
sg126
I0
sg127
F8.518518518518519
sg128
I0
sg111
(g112
g214
S'TL'
p387
g33
tp388
sg125
I0
sg131
I0
sg132
g350
sg133
I0
sg134
I0
sg135
I0
sg136
I0
sg137
I2
sg138
I0
sg139
I0
sg140
g161
sbasS'DM'
p389
(lp390
(ijoueur
joueur
p391
(dp392
g28
I0
sg29
I0
sg30
I0
sg31
F26.516019165160458
sg32
g33
sg34
I0
sg35
g33
sg36
I0
sg37
g0
(g38
g2
Ntp393
Rp394
(dp395
g42
I2
sg43
g221
sg45
g168
sbsg47
(dp396
g49
I0
sg50
I0
sg51
I2
sg52
I0
ssg53
(dp397
g49
I0
sg50
I0
sg51
I0
sg52
I0
ssg224
I10
sg56
g33
sg57
I0
sg58
F26.516019165160458
sg59
I0
sg60
I0
sg61
I0
sg62
g63
sg64
I00
sg65
g0
(g38
g2
Ntp398
Rp399
(dp400
g42
I1
sg43
S'<'
p401
sg45
g275
sbsg66
(dp402
g49
I0
sg50
I0
sg51
I1
sg52
I0
ssg129
(dp403
g49
I0
sg50
I0
sg51
I2
sg52
I0
ssg69
(dp404
g49
I0
sg50
I0
sg51
I0
sg52
I0
ssg71
(dp405
g49
I0
sg50
I0
sg51
I1
sg52
I0
ssg73
I0
sg74
I0
sg75
S'Bren'
p406
sg77
I13
sg78
I0
sg68
I01
sg80
I5
sg81
I0
sg82
I00
sg83
g33
sg55
I23
sg84
(dp407
g86
I6
sg87
I5
sg88
I6
sg89
I9
sg90
I4
sg91
I7
sg92
I6
sg93
I7
sg94
I8
sg95
I10
sg96
I9
sg97
I6
sg98
I7
sg99
I7
sg100
I3
ssg101
(dp408
sg122
I0
sg123
g33
sg124
I0
sg126
I0
sg127
F8.068965517241379
sg128
I0
sg111
(g112
g389
S'DO'
p409
S'CE'
p410
tp411
sg125
I0
sg131
I0
sg132
g407
sg133
I0
sg134
I0
sg135
I0
sg136
I0
sg137
I0
sg138
I0
sg139
I0
sg140
g161
sba(ijoueur
joueur
p412
(dp413
g28
I0
sg29
I0
sg30
I0
sg31
F79.65061237366258
sg32
g33
sg34
I0
sg35
g33
sg36
I0
sg37
g0
(g38
g2
Ntp414
Rp415
(dp416
g42
I2
sg43
g221
sg45
g168
sbsg47
(dp417
g49
I0
sg50
I0
sg51
I2
sg52
I0
ssg53
(dp418
g49
I0
sg50
I0
sg51
I0
sg52
I0
ssg224
I10
sg56
g33
sg57
I0
sg58
F79.65061237366258
sg59
I0
sg60
I0
sg61
I0
sg62
g63
sg64
I00
sg65
g415
sg66
(dp419
g49
I0
sg50
I0
sg51
I1
sg52
I6
ssg129
(dp420
g49
I0
sg50
I0
sg51
I2
sg52
I0
ssg69
(dp421
g49
I0
sg50
I0
sg51
I0
sg52
I0
ssg71
(dp422
g49
I0
sg50
I0
sg51
I1
sg52
I6
ssg73
I0
sg74
I0
sg75
S'Aklamey'
p423
sg77
I3
sg78
I0
sg68
I00
sg80
I25
sg81
I1
sg82
I00
sg83
g33
sg55
I16
sg84
(dp424
g86
I9
sg87
I3
sg88
I6
sg89
I9
sg90
I7
sg91
I10
sg92
I6
sg93
I9
sg94
I8
sg95
I9
sg96
I10
sg97
I7
sg98
I7
sg99
I9
sg100
I4
ssg101
(dp425
S's12'
p426
(ijoueur
joueur
p427
(dp428
g28
I0
sg29
I0
sg30
I0
sg34
I0
sg37
g0
(g38
g2
Ntp429
Rp430
(dp431
g43
g33
sbsg47
(dp432
g49
I0
sg50
I0
sg51
I0
sg52
I0
ssg53
(dp433
g49
I0
sg50
I0
sg51
I0
sg52
I0
ssg56
g33
sg57
I0
sg59
I0
sg60
I0
sg61
I0
sg111
(g112
g389
g33
g33
tp434
sg64
I00
sg65
g0
(g38
g2
Ntp435
Rp436
(dp437
g43
g33
sbsg66
(dp438
g49
I0
sg50
I0
sg51
I0
sg52
I0
ssg68
I00
sg69
(dp439
g49
I0
sg50
I0
sg51
I0
sg52
I0
ssg71
(dp440
g49
I0
sg50
I0
sg51
I0
sg52
I0
ssg73
I0
sg74
I0
sg75
g33
sg77
I0
sg78
I0
sg55
I0
sg80
I0
sg62
g63
sg84
(dp441
g96
I0
sg87
I0
sg88
I0
sg89
I0
sg90
I0
sg86
I0
sg92
I0
sg93
I0
sg94
I0
sg95
I0
sg91
I0
sg97
I0
sg98
I0
sg99
I0
sg100
I0
ssg101
(dp442
sg122
I0
sg123
g33
sg124
I0
sg125
I0
sg126
I0
sg127
F0.0
sg128
I0
sg129
(dp443
g49
I0
sg50
I0
sg51
I0
sg52
I0
ssg131
I0
sg132
g424
sg133
I0
sg134
I0
sg135
I0
sg136
I0
sg137
I0
sg138
I0
sg139
I0
sg140
g33
sbsS's11'
p444
(ijoueur
joueur
p445
(dp446
g28
I0
sg29
I0
sg30
I0
sg34
I0
sg37
g0
(g38
g2
Ntp447
Rp448
(dp449
g43
g33
sbsg47
(dp450
g49
I0
sg50
I0
sg51
I0
sg52
I0
ssg53
(dp451
g49
I0
sg50
I0
sg51
I0
sg52
I0
ssg56
g33
sg57
I0
sg59
I0
sg60
I0
sg61
I0
sg111
g434
sg64
I00
sg65
g0
(g38
g2
Ntp452
Rp453
(dp454
g43
g33
sbsg66
(dp455
g49
I0
sg50
I0
sg51
I0
sg52
I0
ssg68
I00
sg69
(dp456
g49
I0
sg50
I0
sg51
I0
sg52
I0
ssg71
(dp457
g49
I0
sg50
I0
sg51
I0
sg52
I0
ssg73
I0
sg74
I0
sg75
g33
sg77
I0
sg78
I0
sg55
I0
sg80
I0
sg62
g63
sg84
(dp458
g96
I0
sg87
I0
sg88
I0
sg89
I0
sg90
I0
sg86
I0
sg92
I0
sg93
I0
sg94
I0
sg95
I0
sg91
I0
sg97
I0
sg98
I0
sg99
I0
sg100
I0
ssg101
(dp459
sg122
I0
sg123
g33
sg124
I0
sg125
I0
sg126
I0
sg127
F0.0
sg128
I0
sg129
(dp460
g49
I0
sg50
I0
sg51
I0
sg52
I0
ssg131
I0
sg132
g424
sg133
I0
sg134
I0
sg135
I0
sg136
I0
sg137
I0
sg138
I0
sg139
I0
sg140
g33
sbssg122
I0
sg123
g33
sg124
I0
sg126
I0
sg127
F8.724137931034482
sg128
I0
sg111
(g112
g389
S'CE'
p461
g33
tp462
sg125
I0
sg131
I0
sg132
g424
sg133
I0
sg134
I0
sg135
I0
sg136
I0
sg137
I2
sg138
I0
sg139
I0
sg140
g161
sbasS'AI'
p463
(lp464
(ijoueur
joueur
p465
(dp466
g28
I0
sg29
I0
sg30
I0
sg31
F107.48831249421124
sg32
g33
sg34
I0
sg35
g33
sg36
I0
sg37
g0
(g38
g2
Ntp467
Rp468
(dp469
g42
I4
sg43
g44
sg45
g46
sbsg47
(dp470
g49
I0
sg50
I0
sg51
I0
sg52
I0
ssg53
(dp471
g49
I0
sg50
I0
sg51
I0
sg52
I0
ssg224
I10
sg56
g33
sg57
I0
sg58
F107.48831249421124
sg59
I0
sg60
I0
sg61
I0
sg62
g63
sg64
I00
sg65
g468
sg66
(dp472
g49
I0
sg50
I0
sg51
I0
sg52
I12
ssg129
(dp473
g49
I0
sg50
I0
sg51
I0
sg52
I0
ssg69
(dp474
g49
I0
sg50
I0
sg51
I0
sg52
I0
ssg71
(dp475
g49
I0
sg50
I0
sg51
I0
sg52
I12
ssg73
I0
sg74
I0
sg75
S'Iulaszrok'
p476
sg77
I11
sg78
I0
sg68
I00
sg80
I128
sg81
I2
sg82
I00
sg83
g33
sg55
I18
sg84
(dp477
g86
I9
sg87
I8
sg88
I10
sg89
I10
sg90
I6
sg91
I10
sg92
I7
sg93
I11
sg94
I7
sg95
I9
sg96
I11
sg97
I7
sg98
I7
sg99
I9
sg100
I8
ssg101
(dp478
S's12'
p479
(ijoueur
joueur
p480
(dp481
g28
I0
sg29
I0
sg30
I0
sg34
I0
sg37
g0
(g38
g2
Ntp482
Rp483
(dp484
g43
g33
sbsg47
(dp485
g49
I0
sg50
I0
sg51
I0
sg52
I0
ssg53
(dp486
g49
I0
sg50
I0
sg51
I0
sg52
I0
ssg56
g33
sg57
I0
sg59
I0
sg60
I0
sg61
I0
sg111
(g112
g463
g33
g33
tp487
sg64
I00
sg65
g0
(g38
g2
Ntp488
Rp489
(dp490
g43
g33
sbsg66
(dp491
g49
I0
sg50
I0
sg51
I0
sg52
I0
ssg68
I00
sg69
(dp492
g49
I0
sg50
I0
sg51
I0
sg52
I0
ssg71
(dp493
g49
I0
sg50
I0
sg51
I0
sg52
I0
ssg73
I0
sg74
I0
sg75
g33
sg77
I0
sg78
I0
sg55
I0
sg80
I0
sg62
g63
sg84
(dp494
g96
I0
sg87
I0
sg88
I0
sg89
I0
sg90
I0
sg86
I0
sg92
I0
sg93
I0
sg94
I0
sg95
I0
sg91
I0
sg97
I0
sg98
I0
sg99
I0
sg100
I0
ssg101
(dp495
sg122
I0
sg123
g33
sg124
I0
sg125
I0
sg126
I0
sg127
F0.0
sg128
I0
sg129
(dp496
g49
I0
sg50
I0
sg51
I0
sg52
I0
ssg131
I0
sg132
g477
sg133
I0
sg134
I0
sg135
I0
sg136
I0
sg137
I0
sg138
I0
sg139
I0
sg140
g33
sbsS's11'
p497
(ijoueur
joueur
p498
(dp499
g28
I0
sg29
I0
sg30
I0
sg34
I0
sg37
g0
(g38
g2
Ntp500
Rp501
(dp502
g43
g33
sbsg47
(dp503
g49
I0
sg50
I0
sg51
I0
sg52
I0
ssg53
(dp504
g49
I0
sg50
I0
sg51
I0
sg52
I0
ssg56
g33
sg57
I0
sg59
I0
sg60
I0
sg61
I0
sg111
g487
sg64
I00
sg65
g0
(g38
g2
Ntp505
Rp506
(dp507
g43
g33
sbsg66
(dp508
g49
I0
sg50
I0
sg51
I0
sg52
I0
ssg68
I00
sg69
(dp509
g49
I0
sg50
I0
sg51
I0
sg52
I0
ssg71
(dp510
g49
I0
sg50
I0
sg51
I0
sg52
I0
ssg73
I0
sg74
I0
sg75
g33
sg77
I0
sg78
I0
sg55
I0
sg80
I0
sg62
g63
sg84
(dp511
g96
I0
sg87
I0
sg88
I0
sg89
I0
sg90
I0
sg86
I0
sg92
I0
sg93
I0
sg94
I0
sg95
I0
sg91
I0
sg97
I0
sg98
I0
sg99
I0
sg100
I0
ssg101
(dp512
sg122
I0
sg123
g33
sg124
I0
sg125
I0
sg126
I0
sg127
F0.0
sg128
I0
sg129
(dp513
g49
I0
sg50
I0
sg51
I0
sg52
I0
ssg131
I0
sg132
g477
sg133
I0
sg134
I0
sg135
I0
sg136
I0
sg137
I0
sg138
I0
sg139
I0
sg140
g33
sbssg122
I0
sg123
g33
sg124
I0
sg126
I0
sg127
F9.870967741935484
sg128
I0
sg111
(g112
g463
S'AR'
p514
g33
tp515
sg125
I0
sg131
I1
sg132
g477
sg133
I0
sg134
I0
sg135
I0
sg136
I0
sg137
I12
sg138
I0
sg139
I1
sg140
g161
sba(ijoueur
joueur
p516
(dp517
g28
I0
sg29
I0
sg30
I0
sg31
F125.6301233261778
sg32
g33
sg34
I0
sg35
g33
sg36
I0
sg37
g0
(g38
g2
Ntp518
Rp519
(dp520
g42
I1
sg43
S'^'
p521
sg45
g275
sbsg47
(dp522
g49
I0
sg50
I0
sg51
I3
sg52
I0
ssg53
(dp523
g49
I0
sg50
I0
sg51
I0
sg52
I0
ssg55
I14
sg56
g33
sg57
I0
sg58
F125.6301233261778
sg59
I1
sg60
I0
sg61
I0
sg62
g63
sg64
I01
sg65
g519
sg66
(dp524
g49
I0
sg50
I0
sg51
I7
sg52
I4
ssg68
I01
sg69
(dp525
g49
I0
sg50
I0
sg51
I0
sg52
I0
ssg71
(dp526
g49
I0
sg50
I0
sg51
I7
sg52
I4
ssg73
I0
sg74
I0
sg75
S'Zkarmeol'
p527
sg77
I4
sg78
I0
sg79
I8
sg80
I16
sg81
I1
sg82
I00
sg83
g33
sg84
(dp528
g86
I9
sg87
I4
sg88
I8
sg89
I10
sg90
I3
sg91
I8
sg92
I6
sg93
I10
sg94
I6
sg95
I8
sg96
I10
sg97
I8
sg98
I6
sg99
I9
sg100
I4
ssg101
(dp529
S's12'
p530
(ijoueur
joueur
p531
(dp532
g28
I0
sg29
I0
sg30
I0
sg34
I0
sg37
g0
(g38
g2
Ntp533
Rp534
(dp535
g43
g33
sbsg47
(dp536
g49
I0
sg50
I0
sg51
I0
sg52
I0
ssg53
(dp537
g49
I0
sg50
I0
sg51
I0
sg52
I0
ssg56
g33
sg57
I0
sg59
I0
sg60
I0
sg61
I0
sg111
(g112
g463
g33
g33
tp538
sg64
I00
sg65
g0
(g38
g2
Ntp539
Rp540
(dp541
g43
g33
sbsg66
(dp542
g49
I0
sg50
I0
sg51
I0
sg52
I0
ssg68
I00
sg69
(dp543
g49
I0
sg50
I0
sg51
I0
sg52
I0
ssg71
(dp544
g49
I0
sg50
I0
sg51
I0
sg52
I0
ssg73
I0
sg74
I0
sg75
g33
sg77
I0
sg78
I0
sg55
I0
sg80
I0
sg62
g63
sg84
(dp545
g96
I0
sg87
I0
sg88
I0
sg89
I0
sg90
I0
sg86
I0
sg92
I0
sg93
I0
sg94
I0
sg95
I0
sg91
I0
sg97
I0
sg98
I0
sg99
I0
sg100
I0
ssg101
(dp546
sg122
I0
sg123
g33
sg124
I0
sg125
I0
sg126
I0
sg127
F0.0
sg128
I0
sg129
(dp547
g49
I0
sg50
I0
sg51
I0
sg52
I0
ssg131
I0
sg132
g528
sg133
I0
sg134
I0
sg135
I0
sg136
I0
sg137
I0
sg138
I0
sg139
I0
sg140
g33
sbsS's11'
p548
(ijoueur
joueur
p549
(dp550
g28
I0
sg29
I0
sg30
I0
sg34
I0
sg37
g0
(g38
g2
Ntp551
Rp552
(dp553
g43
g33
sbsg47
(dp554
g49
I0
sg50
I0
sg51
I0
sg52
I0
ssg53
(dp555
g49
I0
sg50
I0
sg51
I0
sg52
I0
ssg56
g33
sg57
I0
sg59
I0
sg60
I0
sg61
I0
sg111
g538
sg64
I00
sg65
g0
(g38
g2
Ntp556
Rp557
(dp558
g43
g33
sbsg66
(dp559
g49
I0
sg50
I0
sg51
I0
sg52
I0
ssg68
I00
sg69
(dp560
g49
I0
sg50
I0
sg51
I0
sg52
I0
ssg71
(dp561
g49
I0
sg50
I0
sg51
I0
sg52
I0
ssg73
I0
sg74
I0
sg75
g33
sg77
I0
sg78
I0
sg55
I0
sg80
I0
sg62
g63
sg84
(dp562
g96
I0
sg87
I0
sg88
I0
sg89
I0
sg90
I0
sg86
I0
sg92
I0
sg93
I0
sg94
I0
sg95
I0
sg91
I0
sg97
I0
sg98
I0
sg99
I0
sg100
I0
ssg101
(dp563
sg122
I0
sg123
g33
sg124
I0
sg125
I0
sg126
I0
sg127
F0.0
sg128
I0
sg129
(dp564
g49
I0
sg50
I0
sg51
I0
sg52
I0
ssg131
I0
sg132
g528
sg133
I0
sg134
I0
sg135
I0
sg136
I0
sg137
I0
sg138
I0
sg139
I0
sg140
g33
sbssg122
I0
sg123
g33
sg124
I0
sg125
I0
sg126
I0
sg127
F9.03225806451613
sg128
I0
sg111
(g112
g463
S'AR'
p565
g33
tp566
sg129
(dp567
g49
I0
sg50
I0
sg51
I3
sg52
I0
ssg131
I1
sg132
g528
sg133
I0
sg134
I0
sg135
I0
sg136
I0
sg137
I1
sg138
I1
sg139
I1
sg140
g161
sba(ijoueur
joueur
p568
(dp569
g28
I0
sg29
I0
sg30
I0
sg31
F175.01014896068295
sg32
g33
sg34
I0
sg35
g33
sg36
I0
sg37
g0
(g38
g2
Ntp570
Rp571
(dp572
g42
I4
sg43
g291
sg45
g46
sbsg47
(dp573
g49
I0
sg50
I0
sg51
I0
sg52
I0
ssg53
(dp574
g49
I0
sg50
I0
sg51
I0
sg52
I0
ssg224
I10
sg56
g33
sg57
I0
sg58
F175.01014896068295
sg59
I2
sg60
I0
sg61
I0
sg62
g63
sg64
I00
sg65
g571
sg66
(dp575
g49
I6
sg50
I0
sg51
I0
sg52
I12
ssg129
(dp576
g49
I0
sg50
I0
sg51
I0
sg52
I0
ssg69
(dp577
g49
I0
sg50
I0
sg51
I0
sg52
I0
ssg71
(dp578
g49
I6
sg50
I0
sg51
I0
sg52
I12
ssg73
I0
sg74
I0
sg75
S'Vlathaer'
p579
sg77
I9
sg78
I0
sg68
I00
sg80
I190
sg81
I2
sg82
I00
sg83
g33
sg55
I19
sg84
(dp580
g86
I13
sg87
I6
sg88
I8
sg89
I9
sg90
I9
sg91
I8
sg92
I6
sg93
I14
sg94
I7
sg95
I10
sg96
I11
sg97
I7
sg98
I6
sg99
I10
sg100
I6
ssg101
(dp581
S's12'
p582
(ijoueur
joueur
p583
(dp584
g28
I0
sg29
I0
sg30
I0
sg34
I0
sg37
g0
(g38
g2
Ntp585
Rp586
(dp587
g43
g33
sbsg47
(dp588
g49
I0
sg50
I0
sg51
I0
sg52
I0
ssg53
(dp589
g49
I0
sg50
I0
sg51
I0
sg52
I0
ssg56
g33
sg57
I0
sg59
I0
sg60
I0
sg61
I0
sg111
(g112
g463
g33
g33
tp590
sg64
I00
sg65
g0
(g38
g2
Ntp591
Rp592
(dp593
g43
g33
sbsg66
(dp594
g49
I0
sg50
I0
sg51
I0
sg52
I0
ssg68
I00
sg69
(dp595
g49
I0
sg50
I0
sg51
I0
sg52
I0
ssg71
(dp596
g49
I0
sg50
I0
sg51
I0
sg52
I0
ssg73
I0
sg74
I0
sg75
g33
sg77
I0
sg78
I0
sg55
I0
sg80
I0
sg62
g63
sg84
(dp597
g96
I0
sg87
I0
sg88
I0
sg89
I0
sg90
I0
sg86
I0
sg92
I0
sg93
I0
sg94
I0
sg95
I0
sg91
I0
sg97
I0
sg98
I0
sg99
I0
sg100
I0
ssg101
(dp598
sg122
I0
sg123
g33
sg124
I0
sg125
I0
sg126
I0
sg127
F0.0
sg128
I0
sg129
(dp599
g49
I0
sg50
I0
sg51
I0
sg52
I0
ssg131
I0
sg132
g580
sg133
I0
sg134
I0
sg135
I0
sg136
I0
sg137
I0
sg138
I0
sg139
I0
sg140
g33
sbsS's11'
p600
(ijoueur
joueur
p601
(dp602
g28
I0
sg29
I0
sg30
I0
sg34
I0
sg37
g0
(g38
g2
Ntp603
Rp604
(dp605
g43
g33
sbsg47
(dp606
g49
I0
sg50
I0
sg51
I0
sg52
I0
ssg53
(dp607
g49
I0
sg50
I0
sg51
I0
sg52
I0
ssg56
g33
sg57
I0
sg59
I0
sg60
I0
sg61
I0
sg111
g590
sg64
I00
sg65
g0
(g38
g2
Ntp608
Rp609
(dp610
g43
g33
sbsg66
(dp611
g49
I0
sg50
I0
sg51
I0
sg52
I0
ssg68
I00
sg69
(dp612
g49
I0
sg50
I0
sg51
I0
sg52
I0
ssg71
(dp613
g49
I0
sg50
I0
sg51
I0
sg52
I0
ssg73
I0
sg74
I0
sg75
g33
sg77
I0
sg78
I0
sg55
I0
sg80
I0
sg62
g63
sg84
(dp614
g96
I0
sg87
I0
sg88
I0
sg89
I0
sg90
I0
sg86
I0
sg92
I0
sg93
I0
sg94
I0
sg95
I0
sg91
I0
sg97
I0
sg98
I0
sg99
I0
sg100
I0
ssg101
(dp615
sg122
I0
sg123
g33
sg124
I0
sg125
I0
sg126
I0
sg127
F0.0
sg128
I0
sg129
(dp616
g49
I0
sg50
I0
sg51
I0
sg52
I0
ssg131
I0
sg132
g580
sg133
I0
sg134
I0
sg135
I0
sg136
I0
sg137
I0
sg138
I0
sg139
I0
sg140
g33
sbssg122
I0
sg123
g33
sg124
I0
sg126
I0
sg127
F10.193548387096774
sg128
I0
sg111
(g112
g463
S'CE'
p617
g33
tp618
sg125
I0
sg131
I0
sg132
g580
sg133
I0
sg134
I0
sg135
I0
sg136
I0
sg137
I19
sg138
I2
sg139
I0
sg140
g161
sbasS'espoirs'
p619
(lp620
sS'CE'
p621
(lp622
(ijoueur
joueur
p623
(dp624
g28
I1
sg29
I0
sg30
I6
sg31
F116.5033148547773
sg32
g33
sg34
I0
sg35
g33
sg36
I0
sg37
g0
(g38
g2
Ntp625
Rp626
(dp627
g42
I5
sg43
S'**'
p628
sg45
S'seigneur'
p629
sbsg47
(dp630
S'SR'
p631
I0
sS'CT'
p632
I0
sS'CR'
p633
I0
sS'ST'
p634
I0
ssg53
(dp635
g631
I0
sg632
I1
sg633
I0
sg634
I0
ssg224
I10
sg56
g33
sg57
I0
sg58
F116.5033148547773
sg59
I2
sg60
I6
sg61
I14
sg62
g63
sg64
I00
sg65
g626
sg66
(dp636
g631
I0
sg632
I12
sg633
I0
sg634
I0
ssg68
I01
sg69
(dp637
g631
I0
sg632
I1
sg633
I0
sg634
I0
ssg71
(dp638
g631
I0
sg632
I12
sg633
I0
sg634
I0
ssg73
I40
sg74
I40
sg75
S'Floemathel'
p639
sg77
I3
sg78
I14
sg129
(dp640
g631
I0
sg632
I0
sg633
I0
sg634
I0
ssg80
I169
sg81
I1
sg82
I00
sg83
g33
sg55
I16
sg84
(dp641
S'RP1'
p642
I10
sS'ME'
p643
I4
sS'RP2'
p644
I13
sS'E'
p645
I13
sS'P'
p646
I10
sS'JP'
p647
I10
sS'M'
p648
I10
sS'RP_tot'
p649
I14
sS'TO'
p650
I11
sS'PA'
p651
I12
sS'A'
p652
I12
sS'R'
p653
I10
sS'TB'
p654
I10
sS'PL'
p655
I12
sS'TA'
p656
I7
ssg101
(dp657
S's12'
p658
(ijoueur
joueur
p659
(dp660
g28
I0
sg29
I0
sg30
I0
sg34
I0
sg37
g0
(g38
g2
Ntp661
Rp662
(dp663
g43
g33
sbsg47
(dp664
g631
I0
sg632
I0
sg633
I0
sg634
I0
ssg53
(dp665
g631
I0
sg632
I0
sg633
I0
sg634
I0
ssg55
I0
sg56
g33
sg57
I0
sg59
I0
sg60
I0
sg61
I0
sg111
(S'dummy'
p666
S'CE'
p667
g33
g33
tp668
sg64
I00
sg65
g0
(g38
g2
Ntp669
Rp670
(dp671
g43
g33
sbsg66
(dp672
g631
I0
sg632
I0
sg633
I0
sg634
I0
ssg68
I00
sg69
(dp673
g631
I0
sg632
I0
sg633
I0
sg634
I0
ssg71
(dp674
g631
I0
sg632
I0
sg633
I0
sg634
I0
ssg73
I0
sg74
I0
sg75
g33
sg77
I0
sg78
I0
sg129
(dp675
g631
I0
sg632
I0
sg633
I0
sg634
I0
ssg80
I0
sg62
g63
sg84
(dp676
g652
I0
sg643
I0
sg644
I0
sg645
I0
sg646
I0
sg642
I0
sg647
I0
sg649
I0
sg650
I0
sg651
I0
sg648
I0
sg653
I0
sg654
I0
sg655
I0
sg656
I0
ssg101
(dp677
sg122
I0
sg123
g33
sg124
I0
sg126
I0
sg127
F0.0
sg128
I0
sg125
I0
sg131
I0
sg132
g641
sg133
I0
sg134
I0
sg135
I0
sg136
I0
sg137
I0
sg138
I0
sg139
I0
sg140
g33
sbsS's11'
p678
(ijoueur
joueur
p679
(dp680
g28
I0
sg29
I0
sg30
I0
sg34
I0
sg37
g0
(g38
g2
Ntp681
Rp682
(dp683
g43
g33
sbsg47
(dp684
g631
I0
sg632
I0
sg633
I0
sg634
I0
ssg53
(dp685
g631
I0
sg632
I0
sg633
I0
sg634
I0
ssg55
I0
sg56
g33
sg57
I0
sg59
I0
sg60
I0
sg61
I0
sg111
g668
sg64
I00
sg65
g0
(g38
g2
Ntp686
Rp687
(dp688
g43
g33
sbsg66
(dp689
g631
I0
sg632
I0
sg633
I0
sg634
I0
ssg68
I00
sg69
(dp690
g631
I0
sg632
I0
sg633
I0
sg634
I0
ssg71
(dp691
g631
I0
sg632
I0
sg633
I0
sg634
I0
ssg73
I0
sg74
I0
sg75
g33
sg77
I0
sg78
I0
sg129
(dp692
g631
I0
sg632
I0
sg633
I0
sg634
I0
ssg80
I0
sg62
g63
sg84
(dp693
g652
I0
sg643
I0
sg644
I0
sg645
I0
sg646
I0
sg642
I0
sg647
I0
sg649
I0
sg650
I0
sg651
I0
sg648
I0
sg653
I0
sg654
I0
sg655
I0
sg656
I0
ssg101
(dp694
sg122
I0
sg123
g33
sg124
I0
sg126
I0
sg127
F0.0
sg128
I0
sg125
I0
sg131
I0
sg132
g641
sg133
I0
sg134
I0
sg135
I0
sg136
I0
sg137
I0
sg138
I0
sg139
I0
sg140
g33
sbssg122
I0
sg123
g33
sg124
I0
sg126
I0
sg127
F11.8
sg128
I6
sg111
(g666
S'C1'
p695
S'DO'
p696
S'AR'
p697
tp698
sg125
I0
sg131
I0
sg132
g641
sg133
I1
sg134
I5
sg135
I6
sg136
I5
sg137
I16
sg138
I2
sg139
I0
sg140
S'EN'
p699
sba(ijoueur
joueur
p700
(dp701
g28
I0
sg29
I0
sg30
I0
sg31
F174.85813132800055
sg32
g33
sg34
I0
sg35
g33
sg36
I0
sg37
g0
(g38
g2
Ntp702
Rp703
(dp704
g42
I5
sg43
g628
sg45
g629
sbsg47
(dp705
g631
I0
sg632
I0
sg633
I0
sg634
I0
ssg53
(dp706
g631
I0
sg632
I0
sg633
I0
sg634
I0
ssg224
I10
sg56
g33
sg57
I0
sg58
F174.85813132800055
sg59
I2
sg60
I0
sg61
I0
sg62
g63
sg64
I00
sg65
g703
sg66
(dp707
g631
I0
sg632
I12
sg633
I0
sg634
I6
ssg68
I00
sg69
(dp708
g631
I0
sg632
I0
sg633
I0
sg634
I0
ssg71
(dp709
g631
I0
sg632
I12
sg633
I0
sg634
I6
ssg73
I0
sg74
I0
sg75
S'Wilmendroth'
p710
sg77
I8
sg78
I0
sg129
(dp711
g631
I0
sg632
I0
sg633
I0
sg634
I0
ssg80
I294
sg81
I3
sg82
I00
sg83
g33
sg55
I17
sg84
(dp712
g642
I12
sg643
I7
sg644
I8
sg645
I10
sg646
I8
sg647
I7
sg648
I8
sg649
I13
sg650
I11
sg651
I12
sg652
I12
sg653
I12
sg654
I7
sg655
I13
sg656
I5
ssg101
(dp713
S's12'
p714
(ijoueur
joueur
p715
(dp716
g28
I0
sg29
I0
sg30
I0
sg34
I0
sg37
g0
(g38
g2
Ntp717
Rp718
(dp719
g43
g33
sbsg47
(dp720
g631
I0
sg632
I0
sg633
I0
sg634
I0
ssg53
(dp721
g631
I0
sg632
I0
sg633
I0
sg634
I0
ssg55
I0
sg56
g33
sg57
I0
sg59
I0
sg60
I0
sg61
I0
sg111
(g666
g667
g33
g33
tp722
sg64
I00
sg65
g0
(g38
g2
Ntp723
Rp724
(dp725
g43
g33
sbsg66
(dp726
g631
I0
sg632
I0
sg633
I0
sg634
I0
ssg68
I00
sg69
(dp727
g631
I0
sg632
I0
sg633
I0
sg634
I0
ssg71
(dp728
g631
I0
sg632
I0
sg633
I0
sg634
I0
ssg73
I0
sg74
I0
sg75
g33
sg77
I0
sg78
I0
sg129
(dp729
g631
I0
sg632
I0
sg633
I0
sg634
I0
ssg80
I0
sg62
g63
sg84
(dp730
g652
I0
sg643
I0
sg644
I0
sg645
I0
sg646
I0
sg642
I0
sg647
I0
sg649
I0
sg650
I0
sg651
I0
sg648
I0
sg653
I0
sg654
I0
sg655
I0
sg656
I0
ssg101
(dp731
sg122
I0
sg123
g33
sg124
I0
sg126
I0
sg127
F0.0
sg128
I0
sg125
I0
sg131
I0
sg132
g712
sg133
I0
sg134
I0
sg135
I0
sg136
I0
sg137
I0
sg138
I0
sg139
I0
sg140
g33
sbsS's11'
p732
(ijoueur
joueur
p733
(dp734
g28
I0
sg29
I0
sg30
I0
sg34
I0
sg37
g0
(g38
g2
Ntp735
Rp736
(dp737
g43
g33
sbsg47
(dp738
g631
I0
sg632
I0
sg633
I0
sg634
I0
ssg53
(dp739
g631
I0
sg632
I0
sg633
I0
sg634
I0
ssg55
I0
sg56
g33
sg57
I0
sg59
I0
sg60
I0
sg61
I0
sg111
g722
sg64
I00
sg65
g0
(g38
g2
Ntp740
Rp741
(dp742
g43
g33
sbsg66
(dp743
g631
I0
sg632
I0
sg633
I0
sg634
I0
ssg68
I00
sg69
(dp744
g631
I0
sg632
I0
sg633
I0
sg634
I0
ssg71
(dp745
g631
I0
sg632
I0
sg633
I0
sg634
I0
ssg73
I0
sg74
I0
sg75
g33
sg77
I0
sg78
I0
sg129
(dp746
g631
I0
sg632
I0
sg633
I0
sg634
I0
ssg80
I0
sg62
g63
sg84
(dp747
g652
I0
sg643
I0
sg644
I0
sg645
I0
sg646
I0
sg642
I0
sg647
I0
sg649
I0
sg650
I0
sg651
I0
sg648
I0
sg653
I0
sg654
I0
sg655
I0
sg656
I0
ssg101
(dp748
sg122
I0
sg123
g33
sg124
I0
sg126
I0
sg127
F0.0
sg128
I0
sg125
I0
sg131
I0
sg132
g712
sg133
I0
sg134
I0
sg135
I0
sg136
I0
sg137
I0
sg138
I0
sg139
I0
sg140
g33
sbssg122
I1
sg123
g33
sg124
I0
sg126
I0
sg127
F11.344827586206897
sg128
I0
sg111
(g666
S'C2'
p749
g33
g33
tp750
sg125
I0
sg131
I0
sg132
g712
sg133
I0
sg134
I0
sg135
I0
sg136
I0
sg137
I29
sg138
I2
sg139
I0
sg140
S'CHS'
p751
sba(ijoueur
joueur
p752
(dp753
g28
I0
sg29
I0
sg30
I1
sg31
F116.04422397184292
sg32
g33
sg34
I0
sg35
g33
sg36
I0
sg37
g0
(g38
g2
Ntp754
Rp755
(dp756
g42
I4
sg43
S'*'
p757
sg45
S'heros'
p758
sbsg47
(dp759
g631
I0
sg632
I2
sg633
I8
sg634
I0
ssg53
(dp760
g631
I0
sg632
I0
sg633
I0
sg634
I0
ssg224
I10
sg56
g33
sg57
I0
sg58
F116.04422397184292
sg59
I0
sg60
I2
sg61
I1
sg62
g63
sg64
I00
sg65
g755
sg66
(dp761
g631
I0
sg632
I3
sg633
I0
sg634
I0
ssg68
I00
sg69
(dp762
g631
I0
sg632
I0
sg633
I0
sg634
I0
ssg71
(dp763
g631
I0
sg632
I3
sg633
I0
sg634
I0
ssg73
I1
sg74
I1
sg75
S'Ztendlor'
p764
sg77
I8
sg78
I1
sg129
(dp765
g631
I0
sg632
I2
sg633
I8
sg634
I0
ssg80
I112
sg81
I1
sg82
I00
sg83
g33
sg55
I18
sg84
(dp766
g642
I9
sg643
I5
sg644
I8
sg645
I9
sg646
I9
sg647
I7
sg648
I9
sg649
I10
sg650
I6
sg651
I10
sg652
I11
sg653
I8
sg654
I8
sg655
I10
sg656
I6
ssg101
(dp767
S's12'
p768
(ijoueur
joueur
p769
(dp770
g28
I0
sg29
I0
sg30
I0
sg34
I0
sg37
g0
(g38
g2
Ntp771
Rp772
(dp773
g43
g33
sbsg47
(dp774
g631
I0
sg632
I0
sg633
I0
sg634
I0
ssg53
(dp775
g631
I0
sg632
I0
sg633
I0
sg634
I0
ssg55
I0
sg56
g33
sg57
I0
sg59
I0
sg60
I0
sg61
I0
sg111
(g666
g667
g33
g33
tp776
sg64
I00
sg65
g0
(g38
g2
Ntp777
Rp778
(dp779
g43
g33
sbsg66
(dp780
g631
I0
sg632
I0
sg633
I0
sg634
I0
ssg68
I00
sg69
(dp781
g631
I0
sg632
I0
sg633
I0
sg634
I0
ssg71
(dp782
g631
I0
sg632
I0
sg633
I0
sg634
I0
ssg73
I0
sg74
I0
sg75
g33
sg77
I0
sg78
I0
sg129
(dp783
g631
I0
sg632
I0
sg633
I0
sg634
I0
ssg80
I0
sg62
g63
sg84
(dp784
g652
I0
sg643
I0
sg644
I0
sg645
I0
sg646
I0
sg642
I0
sg647
I0
sg649
I0
sg650
I0
sg651
I0
sg648
I0
sg653
I0
sg654
I0
sg655
I0
sg656
I0
ssg101
(dp785
sg122
I0
sg123
g33
sg124
I0
sg126
I0
sg127
F0.0
sg128
I0
sg125
I0
sg131
I0
sg132
g766
sg133
I0
sg134
I0
sg135
I0
sg136
I0
sg137
I0
sg138
I0
sg139
I0
sg140
g33
sbsS's11'
p786
(ijoueur
joueur
p787
(dp788
g28
I0
sg29
I0
sg30
I0
sg34
I0
sg37
g0
(g38
g2
Ntp789
Rp790
(dp791
g43
g33
sbsg47
(dp792
g631
I0
sg632
I0
sg633
I0
sg634
I0
ssg53
(dp793
g631
I0
sg632
I0
sg633
I0
sg634
I0
ssg55
I0
sg56
g33
sg57
I0
sg59
I0
sg60
I0
sg61
I0
sg111
g776
sg64
I00
sg65
g0
(g38
g2
Ntp794
Rp795
(dp796
g43
g33
sbsg66
(dp797
g631
I0
sg632
I0
sg633
I0
sg634
I0
ssg68
I00
sg69
(dp798
g631
I0
sg632
I0
sg633
I0
sg634
I0
ssg71
(dp799
g631
I0
sg632
I0
sg633
I0
sg634
I0
ssg73
I0
sg74
I0
sg75
g33
sg77
I0
sg78
I0
sg129
(dp800
g631
I0
sg632
I0
sg633
I0
sg634
I0
ssg80
I0
sg62
g63
sg84
(dp801
g652
I0
sg643
I0
sg644
I0
sg645
I0
sg646
I0
sg642
I0
sg647
I0
sg649
I0
sg650
I0
sg651
I0
sg648
I0
sg653
I0
sg654
I0
sg655
I0
sg656
I0
ssg101
(dp802
sg122
I0
sg123
g33
sg124
I0
sg126
I0
sg127
F0.0
sg128
I0
sg125
I0
sg131
I0
sg132
g766
sg133
I0
sg134
I0
sg135
I0
sg136
I0
sg137
I0
sg138
I0
sg139
I0
sg140
g33
sbssg122
I0
sg123
g33
sg124
I0
sg126
I0
sg127
F9.5
sg128
I2
sg111
(g666
S'C1'
p803
S'DO'
p804
g33
tp805
sg125
I0
sg131
I0
sg132
g766
sg133
I0
sg134
I0
sg135
I1
sg136
I0
sg137
I11
sg138
I0
sg139
I0
sg140
g751
sba(ijoueur
joueur
p806
(dp807
g28
I0
sg29
I0
sg30
I0
sg31
F43.89778253392899
sg32
g33
sg34
I0
sg35
g33
sg36
I0
sg37
g0
(g38
g2
Ntp808
Rp809
(dp810
g42
I2
sg43
S'<<'
p811
sg45
S'special'
p812
sbsg47
(dp813
g631
I0
sg632
I0
sg633
I3
sg634
I0
ssg53
(dp814
g631
I0
sg632
I0
sg633
I0
sg634
I0
ssg224
I10
sg56
g33
sg57
I0
sg58
F43.89778253392899
sg59
I0
sg60
I0
sg61
I0
sg62
g63
sg64
I00
sg65
g0
(g38
g2
Ntp815
Rp816
(dp817
g42
I1
sg43
S'>'
p818
sg45
S'base'
p819
sbsg66
(dp820
g631
I0
sg632
I0
sg633
I2
sg634
I0
ssg68
I00
sg69
(dp821
g631
I0
sg632
I0
sg633
I0
sg634
I0
ssg71
(dp822
g631
I0
sg632
I0
sg633
I2
sg634
I0
ssg73
I0
sg74
I0
sg75
S'Pelette'
p823
sg77
I12
sg78
I0
sg129
(dp824
g631
I0
sg632
I0
sg633
I3
sg634
I0
ssg80
I5
sg81
I0
sg82
I00
sg83
g33
sg55
I24
sg84
(dp825
g642
I7
sg643
I3
sg644
I7
sg645
I7
sg646
I7
sg647
I5
sg648
I8
sg649
I8
sg650
I4
sg651
I8
sg652
I7
sg653
I8
sg654
I5
sg655
I7
sg656
I4
ssg101
(dp826
S's12'
p827
(ijoueur
joueur
p828
(dp829
g28
I0
sg29
I0
sg30
I0
sg34
I0
sg37
g0
(g38
g2
Ntp830
Rp831
(dp832
g43
g33
sbsg47
(dp833
g631
I0
sg632
I0
sg633
I0
sg634
I0
ssg53
(dp834
g631
I0
sg632
I0
sg633
I0
sg634
I0
ssg55
I0
sg56
g33
sg57
I0
sg59
I0
sg60
I0
sg61
I0
sg111
(g666
g667
g33
g33
tp835
sg64
I00
sg65
g0
(g38
g2
Ntp836
Rp837
(dp838
g43
g33
sbsg66
(dp839
g631
I0
sg632
I0
sg633
I0
sg634
I0
ssg68
I00
sg69
(dp840
g631
I0
sg632
I0
sg633
I0
sg634
I0
ssg71
(dp841
g631
I0
sg632
I0
sg633
I0
sg634
I0
ssg73
I0
sg74
I0
sg75
g33
sg77
I0
sg78
I0
sg129
(dp842
g631
I0
sg632
I0
sg633
I0
sg634
I0
ssg80
I0
sg62
g63
sg84
(dp843
g652
I0
sg643
I0
sg644
I0
sg645
I0
sg646
I0
sg642
I0
sg647
I0
sg649
I0
sg650
I0
sg651
I0
sg648
I0
sg653
I0
sg654
I0
sg655
I0
sg656
I0
ssg101
(dp844
sg122
I0
sg123
g33
sg124
I0
sg126
I0
sg127
F0.0
sg128
I0
sg125
I0
sg131
I0
sg132
g825
sg133
I0
sg134
I0
sg135
I0
sg136
I0
sg137
I0
sg138
I0
sg139
I0
sg140
g33
sbssg122
I0
sg123
g33
sg124
I0
sg126
I0
sg127
F7.413793103448276
sg128
I0
sg111
(g666
S'C2'
p845
S'AI'
p846
g33
tp847
sg125
I0
sg131
I0
sg132
g825
sg133
I0
sg134
I0
sg135
I0
sg136
I0
sg137
I0
sg138
I0
sg139
I0
sg140
S'B'
p848
sba(ijoueur
joueur
p849
(dp850
g28
I0
sg29
I0
sg30
I0
sg31
F125.6301233261778
sg32
g33
sg34
I0
sg35
g33
sg36
I0
sg37
g0
(g38
g2
Ntp851
Rp852
(dp853
g42
I4
sg43
g757
sg45
g758
sbsg47
(dp854
g631
I0
sg632
I1
sg633
I3
sg634
I0
ssg53
(dp855
g631
I0
sg632
I2
sg633
I0
sg634
I0
ssg224
I10
sg56
g33
sg57
I0
sg58
F125.6301233261778
sg59
I0
sg60
I0
sg61
I0
sg62
g63
sg64
I00
sg65
g852
sg66
(dp856
g631
I0
sg632
I3
sg633
I5
sg634
I0
ssg68
I00
sg69
(dp857
g631
I0
sg632
I2
sg633
I0
sg634
I0
ssg71
(dp858
g631
I0
sg632
I3
sg633
I5
sg634
I0
ssg73
I0
sg74
I0
sg75
S'Kjentar'
p859
sg77
I6
sg78
I0
sg129
(dp860
g631
I0
sg632
I1
sg633
I3
sg634
I0
ssg80
I144
sg81
I1
sg82
I00
sg83
g33
sg55
I15
sg84
(dp861
g642
I9
sg643
I3
sg644
I10
sg645
I10
sg646
I7
sg647
I6
sg648
I8
sg649
I11
sg650
I9
sg651
I11
sg652
I10
sg653
I9
sg654
I6
sg655
I10
sg656
I4
ssg101
(dp862
S's12'
p863
(ijoueur
joueur
p864
(dp865
g28
I0
sg29
I0
sg30
I0
sg34
I0
sg37
g0
(g38
g2
Ntp866
Rp867
(dp868
g43
g33
sbsg47
(dp869
g631
I0
sg632
I0
sg633
I0
sg634
I0
ssg53
(dp870
g631
I0
sg632
I0
sg633
I0
sg634
I0
ssg55
I0
sg56
g33
sg57
I0
sg59
I0
sg60
I0
sg61
I0
sg111
(g666
g667
g33
g33
tp871
sg64
I00
sg65
g0
(g38
g2
Ntp872
Rp873
(dp874
g43
g33
sbsg66
(dp875
g631
I0
sg632
I0
sg633
I0
sg634
I0
ssg68
I00
sg69
(dp876
g631
I0
sg632
I0
sg633
I0
sg634
I0
ssg71
(dp877
g631
I0
sg632
I0
sg633
I0
sg634
I0
ssg73
I0
sg74
I0
sg75
g33
sg77
I0
sg78
I0
sg129
(dp878
g631
I0
sg632
I0
sg633
I0
sg634
I0
ssg80
I0
sg62
g63
sg84
(dp879
g652
I0
sg643
I0
sg644
I0
sg645
I0
sg646
I0
sg642
I0
sg647
I0
sg649
I0
sg650
I0
sg651
I0
sg648
I0
sg653
I0
sg654
I0
sg655
I0
sg656
I0
ssg101
(dp880
sg122
I0
sg123
g33
sg124
I0
sg126
I0
sg127
F0.0
sg128
I0
sg125
I0
sg131
I0
sg132
g861
sg133
I0
sg134
I0
sg135
I0
sg136
I0
sg137
I0
sg138
I0
sg139
I0
sg140
g33
sbsS's11'
p881
(ijoueur
joueur
p882
(dp883
g28
I0
sg29
I0
sg30
I0
sg34
I0
sg37
g0
(g38
g2
Ntp884
Rp885
(dp886
g43
g33
sbsg47
(dp887
g631
I0
sg632
I0
sg633
I0
sg634
I0
ssg53
(dp888
g631
I0
sg632
I0
sg633
I0
sg634
I0
ssg55
I0
sg56
g33
sg57
I0
sg59
I0
sg60
I0
sg61
I0
sg111
g871
sg64
I00
sg65
g0
(g38
g2
Ntp889
Rp890
(dp891
g43
g33
sbsg66
(dp892
g631
I0
sg632
I0
sg633
I0
sg634
I0
ssg68
I00
sg69
(dp893
g631
I0
sg632
I0
sg633
I0
sg634
I0
ssg71
(dp894
g631
I0
sg632
I0
sg633
I0
sg634
I0
ssg73
I0
sg74
I0
sg75
g33
sg77
I0
sg78
I0
sg129
(dp895
g631
I0
sg632
I0
sg633
I0
sg634
I0
ssg80
I0
sg62
g63
sg84
(dp896
g652
I0
sg643
I0
sg644
I0
sg645
I0
sg646
I0
sg642
I0
sg647
I0
sg649
I0
sg650
I0
sg651
I0
sg648
I0
sg653
I0
sg654
I0
sg655
I0
sg656
I0
ssg101
(dp897
sg122
I0
sg123
g33
sg124
I0
sg126
I0
sg127
F0.0
sg128
I0
sg125
I0
sg131
I0
sg132
g861
sg133
I0
sg134
I0
sg135
I0
sg136
I0
sg137
I0
sg138
I0
sg139
I0
sg140
g33
sbssg122
I0
sg123
g33
sg124
I0
sg126
I0
sg127
F9.793103448275861
sg128
I0
sg111
(g666
S'C2'
p898
S'AR'
p899
S'AI'
p900
tp901
sg125
I0
sg131
I0
sg132
g861
sg133
I0
sg134
I0
sg135
I0
sg136
I0
sg137
I14
sg138
I0
sg139
I0
sg140
g751
sbasS'N8'
p902
(lp903
(ijoueur
joueur
p904
(dp905
g28
I0
sg29
I0
sg30
I0
sg31
F116.0504559514383
sg32
g33
sg34
I0
sg35
g33
sg36
I0
sg37
g0
(g38
g2
Ntp906
Rp907
(dp908
g42
I5
sg43
g628
sg45
g629
sbsg47
(dp909
g631
I0
sg632
I0
sg633
I0
sg634
I0
ssg53
(dp910
g631
I0
sg632
I0
sg633
I0
sg634
I0
ssg224
I10
sg56
g33
sg57
I0
sg58
F116.0504559514383
sg59
I0
sg60
I0
sg61
I0
sg62
g63
sg64
I00
sg65
g907
sg66
(dp911
g631
I0
sg632
I11
sg633
I2
sg634
I0
ssg68
I00
sg69
(dp912
g631
I0
sg632
I0
sg633
I0
sg634
I0
ssg71
(dp913
g631
I0
sg632
I11
sg633
I2
sg634
I0
ssg73
I0
sg74
I0
sg75
S'Le Kentalor'
p914
sg77
I10
sg78
I0
sg129
(dp915
g631
I0
sg632
I0
sg633
I0
sg634
I0
ssg80
I132
sg81
I1
sg82
I00
sg83
g33
sg55
I20
sg84
(dp916
g642
I11
sg643
I8
sg644
I9
sg645
I11
sg646
I6
sg647
I3
sg648
I8
sg649
I12
sg650
I11
sg651
I9
sg652
I11
sg653
I8
sg654
I4
sg655
I11
sg656
I4
ssg101
(dp917
S's12'
p918
(ijoueur
joueur
p919
(dp920
g28
I0
sg29
I0
sg30
I0
sg34
I0
sg37
g0
(g38
g2
Ntp921
Rp922
(dp923
g43
g33
sbsg47
(dp924
g631
I0
sg632
I0
sg633
I0
sg634
I0
ssg53
(dp925
g631
I0
sg632
I0
sg633
I0
sg634
I0
ssg55
I0
sg56
g33
sg57
I0
sg59
I0
sg60
I0
sg61
I0
sg111
(g666
S'N8'
p926
g33
g33
tp927
sg64
I00
sg65
g0
(g38
g2
Ntp928
Rp929
(dp930
g43
g33
sbsg66
(dp931
g631
I0
sg632
I0
sg633
I0
sg634
I0
ssg68
I00
sg69
(dp932
g631
I0
sg632
I0
sg633
I0
sg634
I0
ssg71
(dp933
g631
I0
sg632
I0
sg633
I0
sg634
I0
ssg73
I0
sg74
I0
sg75
g33
sg77
I0
sg78
I0
sg129
(dp934
g631
I0
sg632
I0
sg633
I0
sg634
I0
ssg80
I0
sg62
g63
sg84
(dp935
g652
I0
sg643
I0
sg644
I0
sg645
I0
sg646
I0
sg642
I0
sg647
I0
sg649
I0
sg650
I0
sg651
I0
sg648
I0
sg653
I0
sg654
I0
sg655
I0
sg656
I0
ssg101
(dp936
sg122
I0
sg123
g33
sg124
I0
sg126
I0
sg127
F0.0
sg128
I0
sg125
I0
sg131
I0
sg132
g916
sg133
I0
sg134
I0
sg135
I0
sg136
I0
sg137
I0
sg138
I0
sg139
I0
sg140
g33
sbsS's11'
p937
(ijoueur
joueur
p938
(dp939
g28
I0
sg29
I0
sg30
I0
sg34
I0
sg37
g0
(g38
g2
Ntp940
Rp941
(dp942
g43
g33
sbsg47
(dp943
g631
I0
sg632
I0
sg633
I0
sg634
I0
ssg53
(dp944
g631
I0
sg632
I0
sg633
I0
sg634
I0
ssg55
I0
sg56
g33
sg57
I0
sg59
I0
sg60
I0
sg61
I0
sg111
g927
sg64
I00
sg65
g0
(g38
g2
Ntp945
Rp946
(dp947
g43
g33
sbsg66
(dp948
g631
I0
sg632
I0
sg633
I0
sg634
I0
ssg68
I00
sg69
(dp949
g631
I0
sg632
I0
sg633
I0
sg634
I0
ssg71
(dp950
g631
I0
sg632
I0
sg633
I0
sg634
I0
ssg73
I0
sg74
I0
sg75
g33
sg77
I0
sg78
I0
sg129
(dp951
g631
I0
sg632
I0
sg633
I0
sg634
I0
ssg80
I0
sg62
g63
sg84
(dp952
g652
I0
sg643
I0
sg644
I0
sg645
I0
sg646
I0
sg642
I0
sg647
I0
sg649
I0
sg650
I0
sg651
I0
sg648
I0
sg653
I0
sg654
I0
sg655
I0
sg656
I0
ssg101
(dp953
sg122
I0
sg123
g33
sg124
I0
sg126
I0
sg127
F0.0
sg128
I0
sg125
I0
sg131
I0
sg132
g916
sg133
I0
sg134
I0
sg135
I0
sg136
I0
sg137
I0
sg138
I0
sg139
I0
sg140
g33
sbssg122
I0
sg123
g33
sg124
I0
sg126
I0
sg127
F10.166666666666666
sg128
I0
sg111
(g666
g926
g33
g33
tp954
sg125
I0
sg131
I1
sg132
g916
sg133
I0
sg134
I0
sg135
I0
sg136
I0
sg137
I13
sg138
I0
sg139
I1
sg140
g848
sba(ijoueur
joueur
p955
(dp956
g28
I0
sg29
I0
sg30
I0
sg31
F125.22085136636602
sg32
g33
sg34
I0
sg35
g33
sg36
I0
sg37
g0
(g38
g2
Ntp957
Rp958
(dp959
g42
I4
sg43
S'x'
p960
sg45
g758
sbsg47
(dp961
g631
I0
sg632
I0
sg633
I0
sg634
I0
ssg53
(dp962
g631
I0
sg632
I0
sg633
I0
sg634
I0
ssg224
I10
sg56
g33
sg57
I0
sg58
F125.22085136636602
sg59
I0
sg60
I0
sg61
I0
sg62
g63
sg64
I00
sg65
g0
(g38
g2
Ntp963
Rp964
(dp965
g42
I2
sg43
g811
sg45
g812
sbsg66
(dp966
g631
I0
sg632
I4
sg633
I10
sg634
I0
ssg68
I01
sg69
(dp967
g631
I0
sg632
I0
sg633
I0
sg634
I0
ssg71
(dp968
g631
I0
sg632
I4
sg633
I10
sg634
I0
ssg73
I0
sg74
I0
sg75
S'Drusced'
p969
sg77
I13
sg78
I0
sg129
(dp970
g631
I0
sg632
I0
sg633
I0
sg634
I0
ssg80
I29
sg81
I1
sg82
I00
sg83
g33
sg55
I24
sg84
(dp971
g642
I10
sg643
I9
sg644
I6
sg645
I10
sg646
I5
sg647
I3
sg648
I7
sg649
I10
sg650
I9
sg651
I10
sg652
I11
sg653
I7
sg654
I3
sg655
I10
sg656
I7
ssg101
(dp972
sg122
I0
sg123
g33
sg124
I0
sg126
I0
sg127
F9.172413793103448
sg128
I0
sg111
(g666
g926
g33
g33
tp973
sg125
I0
sg131
I0
sg132
g971
sg133
I0
sg134
I0
sg135
I0
sg136
I0
sg137
I2
sg138
I0
sg139
I0
sg140
g751
sbasS'TL'
p974
(lp975
(ijoueur
joueur
p976
(dp977
g28
I0
sg29
I0
sg30
I0
sg31
F107.64754529042784
sg32
g33
sg34
I0
sg35
g33
sg36
I0
sg37
g0
(g38
g2
Ntp978
Rp979
(dp980
g42
I4
sg43
g960
sg45
g758
sbsg47
(dp981
g631
I0
sg632
I0
sg633
I0
sg634
I0
ssg53
(dp982
g631
I0
sg632
I0
sg633
I0
sg634
I0
ssg224
I10
sg56
g33
sg57
I0
sg58
F107.64754529042784
sg59
I1
sg60
I0
sg61
I0
sg62
g63
sg64
I00
sg65
g979
sg66
(dp983
g631
I0
sg632
I12
sg633
I0
sg634
I0
ssg68
I00
sg69
(dp984
g631
I0
sg632
I0
sg633
I0
sg634
I0
ssg71
(dp985
g631
I0
sg632
I12
sg633
I0
sg634
I0
ssg73
I0
sg74
I0
sg75
S'Yzgaor'
p986
sg77
I7
sg78
I0
sg129
(dp987
g631
I0
sg632
I0
sg633
I0
sg634
I0
ssg80
I229
sg81
I1
sg82
I00
sg83
g33
sg55
I21
sg84
(dp988
g642
I10
sg643
I9
sg644
I7
sg645
I9
sg646
I5
sg647
I4
sg648
I8
sg649
I10
sg650
I11
sg651
I9
sg652
I12
sg653
I8
sg654
I4
sg655
I13
sg656
I5
ssg101
(dp989
S's12'
p990
(ijoueur
joueur
p991
(dp992
g28
I0
sg29
I0
sg30
I0
sg34
I0
sg37
g0
(g38
g2
Ntp993
Rp994
(dp995
g43
g33
sbsg47
(dp996
g631
I0
sg632
I0
sg633
I0
sg634
I0
ssg53
(dp997
g631
I0
sg632
I0
sg633
I0
sg634
I0
ssg55
I0
sg56
g33
sg57
I0
sg59
I0
sg60
I0
sg61
I0
sg111
(g666
S'TL'
p998
g33
g33
tp999
sg64
I00
sg65
g0
(g38
g2
Ntp1000
Rp1001
(dp1002
g43
g33
sbsg66
(dp1003
g631
I0
sg632
I0
sg633
I0
sg634
I0
ssg68
I00
sg69
(dp1004
g631
I0
sg632
I0
sg633
I0
sg634
I0
ssg71
(dp1005
g631
I0
sg632
I0
sg633
I0
sg634
I0
ssg73
I0
sg74
I0
sg75
g33
sg77
I0
sg78
I0
sg129
(dp1006
g631
I0
sg632
I0
sg633
I0
sg634
I0
ssg80
I0
sg62
g63
sg84
(dp1007
g652
I0
sg643
I0
sg644
I0
sg645
I0
sg646
I0
sg642
I0
sg647
I0
sg649
I0
sg650
I0
sg651
I0
sg648
I0
sg653
I0
sg654
I0
sg655
I0
sg656
I0
ssg101
(dp1008
sg122
I0
sg123
g33
sg124
I0
sg126
I0
sg127
F0.0
sg128
I0
sg125
I0
sg131
I0
sg132
g988
sg133
I0
sg134
I0
sg135
I0
sg136
I0
sg137
I0
sg138
I0
sg139
I0
sg140
g33
sbsS's11'
p1009
(ijoueur
joueur
p1010
(dp1011
g28
I0
sg29
I0
sg30
I0
sg34
I0
sg37
g0
(g38
g2
Ntp1012
Rp1013
(dp1014
g43
g33
sbsg47
(dp1015
g631
I0
sg632
I0
sg633
I0
sg634
I0
ssg53
(dp1016
g631
I0
sg632
I0
sg633
I0
sg634
I0
ssg55
I0
sg56
g33
sg57
I0
sg59
I0
sg60
I0
sg61
I0
sg111
g999
sg64
I00
sg65
g0
(g38
g2
Ntp1017
Rp1018
(dp1019
g43
g33
sbsg66
(dp1020
g631
I0
sg632
I0
sg633
I0
sg634
I0
ssg68
I00
sg69
(dp1021
g631
I0
sg632
I0
sg633
I0
sg634
I0
ssg71
(dp1022
g631
I0
sg632
I0
sg633
I0
sg634
I0
ssg73
I0
sg74
I0
sg75
g33
sg77
I0
sg78
I0
sg129
(dp1023
g631
I0
sg632
I0
sg633
I0
sg634
I0
ssg80
I0
sg62
g63
sg84
(dp1024
g652
I0
sg643
I0
sg644
I0
sg645
I0
sg646
I0
sg642
I0
sg647
I0
sg649
I0
sg650
I0
sg651
I0
sg648
I0
sg653
I0
sg654
I0
sg655
I0
sg656
I0
ssg101
(dp1025
sg122
I0
sg123
g33
sg124
I0
sg126
I0
sg127
F0.0
sg128
I0
sg125
I0
sg131
I0
sg132
g988
sg133
I0
sg134
I0
sg135
I0
sg136
I0
sg137
I0
sg138
I0
sg139
I0
sg140
g33
sbssg122
I0
sg123
g33
sg124
I0
sg126
I0
sg127
F10.052631578947368
sg128
I0
sg111
(g666
g998
g33
g33
tp1026
sg125
I0
sg131
I0
sg132
g988
sg133
I0
sg134
I0
sg135
I0
sg136
I0
sg137
I23
sg138
I1
sg139
I0
sg140
g751
sba(ijoueur
joueur
p1027
(dp1028
g28
I0
sg29
I0
sg30
I0
sg31
F108.11827299804949
sg32
g33
sg34
I0
sg35
g33
sg36
I0
sg37
g0
(g38
g2
Ntp1029
Rp1030
(dp1031
g42
I4
sg43
g960
sg45
g758
sbsg47
(dp1032
g631
I0
sg632
I0
sg633
I0
sg634
I0
ssg53
(dp1033
g631
I0
sg632
I0
sg633
I0
sg634
I0
ssg224
I10
sg56
g33
sg57
I0
sg58
F108.11827299804949
sg59
I2
sg60
I0
sg61
I0
sg62
g63
sg64
I00
sg65
g0
(g38
g2
Ntp1034
Rp1035
(dp1036
g42
I2
sg43
S'^^'
p1037
sg45
g812
sbsg66
(dp1038
g631
I0
sg632
I12
sg633
I0
sg634
I0
ssg68
I01
sg69
(dp1039
g631
I0
sg632
I0
sg633
I0
sg634
I0
ssg71
(dp1040
g631
I0
sg632
I12
sg633
I0
sg634
I0
ssg73
I0
sg74
I0
sg75
S'Yhap'
p1041
sg77
I13
sg78
I0
sg129
(dp1042
g631
I0
sg632
I0
sg633
I0
sg634
I0
ssg80
I46
sg81
I2
sg82
I00
sg83
g33
sg55
I22
sg84
(dp1043
g642
I7
sg643
I9
sg644
I6
sg645
I10
sg646
I5
sg647
I4
sg648
I8
sg649
I7
sg650
I11
sg651
I7
sg652
I11
sg653
I8
sg654
I4
sg655
I12
sg656
I5
ssg101
(dp1044
sg122
I0
sg123
g33
sg124
I0
sg126
I0
sg127
F9.552631578947368
sg128
I0
sg111
(g666
g998
S'DM'
p1045
S'DL'
p1046
tp1047
sg125
I0
sg131
I1
sg132
g1043
sg133
I0
sg134
I0
sg135
I0
sg136
I0
sg137
I4
sg138
I2
sg139
I1
sg140
g751
sba(ijoueur
joueur
p1048
(dp1049
g28
I0
sg29
I0
sg30
I0
sg31
F52.84959434262754
sg32
g33
sg34
I0
sg35
g33
sg36
I0
sg37
g0
(g38
g2
Ntp1050
Rp1051
(dp1052
g42
I4
sg43
g757
sg45
g758
sbsg47
(dp1053
g631
I0
sg632
I0
sg633
I1
sg634
I0
ssg53
(dp1054
g631
I0
sg632
I0
sg633
I0
sg634
I0
ssg224
I10
sg56
g33
sg57
I0
sg58
F52.84959434262754
sg59
I0
sg60
I0
sg61
I0
sg62
g63
sg64
I00
sg65
g0
(g38
g2
Ntp1055
Rp1056
(dp1057
g42
I1
sg43
g818
sg45
g819
sbsg66
(dp1058
g631
I0
sg632
I4
sg633
I1
sg634
I0
ssg68
I01
sg69
(dp1059
g631
I0
sg632
I0
sg633
I0
sg634
I0
ssg71
(dp1060
g631
I0
sg632
I4
sg633
I1
sg634
I0
ssg73
I0
sg74
I0
sg75
S'Genjedil'
p1061
sg77
I13
sg78
I0
sg129
(dp1062
g631
I0
sg632
I0
sg633
I1
sg634
I0
ssg80
I19
sg81
I0
sg82
I00
sg83
g33
sg55
I23
sg84
(dp1063
g642
I6
sg643
I8
sg644
I6
sg645
I7
sg646
I5
sg647
I5
sg648
I9
sg649
I7
sg650
I9
sg651
I7
sg652
I9
sg653
I9
sg654
I4
sg655
I10
sg656
I4
ssg101
(dp1064
sg122
I0
sg123
g33
sg124
I0
sg126
I0
sg127
F8.631578947368421
sg128
I0
sg111
(g666
g998
S'N8'
p1065
g33
tp1066
sg125
I0
sg131
I0
sg132
g1063
sg133
I0
sg134
I0
sg135
I0
sg136
I0
sg137
I1
sg138
I0
sg139
I0
sg140
g751
sbasS'AR'
p1067
(lp1068
(ijoueur
joueur
p1069
(dp1070
g28
I0
sg29
I0
sg30
I0
sg31
F117.64642595056566
sg32
g33
sg34
I0
sg35
g33
sg36
I0
sg37
g0
(g38
g2
Ntp1071
Rp1072
(dp1073
g42
I4
sg43
g757
sg45
g758
sbsg47
(dp1074
g631
I1
sg632
I0
sg633
I1
sg634
I0
ssg53
(dp1075
g631
I0
sg632
I9
sg633
I0
sg634
I0
ssg224
I10
sg56
g33
sg57
I0
sg58
F117.64642595056566
sg59
I1
sg60
I0
sg61
I0
sg62
g63
sg64
I00
sg65
g0
(g38
g2
Ntp1076
Rp1077
(dp1078
g42
I2
sg43
S'^^'
p1079
sg45
g812
sbsg66
(dp1080
g631
I0
sg632
I1
sg633
I1
sg634
I0
ssg68
I00
sg69
(dp1081
g631
I0
sg632
I9
sg633
I0
sg634
I0
ssg71
(dp1082
g631
I0
sg632
I1
sg633
I1
sg634
I0
ssg73
I0
sg74
I0
sg75
S'Quelamer'
p1083
sg77
I12
sg78
I0
sg129
(dp1084
g631
I1
sg632
I0
sg633
I1
sg634
I0
ssg80
I77
sg81
I2
sg82
I00
sg83
g33
sg55
I21
sg84
(dp1085
g642
I6
sg643
I4
sg644
I9
sg645
I11
sg646
I7
sg647
I7
sg648
I11
sg649
I9
sg650
I6
sg651
I10
sg652
I9
sg653
I7
sg654
I6
sg655
I7
sg656
I5
ssg101
(dp1086
S's12'
p1087
(ijoueur
joueur
p1088
(dp1089
g28
I0
sg29
I0
sg30
I0
sg34
I0
sg37
g0
(g38
g2
Ntp1090
Rp1091
(dp1092
g43
g33
sbsg47
(dp1093
g631
I0
sg632
I0
sg633
I0
sg634
I0
ssg53
(dp1094
g631
I0
sg632
I0
sg633
I0
sg634
I0
ssg55
I0
sg56
g33
sg57
I0
sg59
I0
sg60
I0
sg61
I0
sg111
(g666
S'AR'
p1095
g33
g33
tp1096
sg64
I00
sg65
g0
(g38
g2
Ntp1097
Rp1098
(dp1099
g43
g33
sbsg66
(dp1100
g631
I0
sg632
I0
sg633
I0
sg634
I0
ssg68
I00
sg69
(dp1101
g631
I0
sg632
I0
sg633
I0
sg634
I0
ssg71
(dp1102
g631
I0
sg632
I0
sg633
I0
sg634
I0
ssg73
I0
sg74
I0
sg75
g33
sg77
I0
sg78
I0
sg129
(dp1103
g631
I0
sg632
I0
sg633
I0
sg634
I0
ssg80
I0
sg62
g63
sg84
(dp1104
g652
I0
sg643
I0
sg644
I0
sg645
I0
sg646
I0
sg642
I0
sg647
I0
sg649
I0
sg650
I0
sg651
I0
sg648
I0
sg653
I0
sg654
I0
sg655
I0
sg656
I0
ssg101
(dp1105
sg122
I0
sg123
g33
sg124
I0
sg126
I0
sg127
F0.0
sg128
I0
sg125
I0
sg131
I0
sg132
g1085
sg133
I0
sg134
I0
sg135
I0
sg136
I0
sg137
I0
sg138
I0
sg139
I0
sg140
g33
sbssg122
I0
sg123
g33
sg124
I0
sg126
I0
sg127
F8.909090909090908
sg128
I0
sg111
(g666
g1095
S'AI'
p1106
S'DM'
p1107
tp1108
sg125
I0
sg131
I0
sg132
g1085
sg133
I0
sg134
I0
sg135
I0
sg136
I0
sg137
I7
sg138
I1
sg139
I0
sg140
g848
sba(ijoueur
joueur
p1109
(dp1110
g28
I0
sg29
I0
sg30
I0
sg31
F116.5033148547773
sg32
g33
sg34
I0
sg35
g33
sg36
I0
sg37
g0
(g38
g2
Ntp1111
Rp1112
(dp1113
g42
I2
sg43
g1079
sg45
g812
sbsg47
(dp1114
g631
I0
sg632
I0
sg633
I0
sg634
I0
ssg53
(dp1115
g631
I0
sg632
I0
sg633
I0
sg634
I0
ssg224
I10
sg56
g33
sg57
I0
sg58
F116.5033148547773
sg59
I0
sg60
I0
sg61
I0
sg62
g63
sg64
I01
sg65
g1112
sg66
(dp1116
g631
I0
sg632
I12
sg633
I1
sg634
I0
ssg68
I01
sg69
(dp1117
g631
I0
sg632
I0
sg633
I0
sg634
I0
ssg71
(dp1118
g631
I0
sg632
I12
sg633
I1
sg634
I0
ssg73
I0
sg74
I0
sg75
S'Zafleoth'
p1119
sg77
I7
sg78
I0
sg129
(dp1120
g631
I0
sg632
I0
sg633
I0
sg634
I0
ssg80
I36
sg81
I2
sg82
I00
sg83
g33
sg55
I18
sg84
(dp1121
g642
I6
sg643
I5
sg644
I8
sg645
I8
sg646
I9
sg647
I7
sg648
I12
sg649
I8
sg650
I6
sg651
I10
sg652
I11
sg653
I6
sg654
I8
sg655
I11
sg656
I5
ssg101
(dp1122
S's12'
p1123
(ijoueur
joueur
p1124
(dp1125
g28
I0
sg29
I0
sg30
I0
sg34
I0
sg37
g0
(g38
g2
Ntp1126
Rp1127
(dp1128
g43
g33
sbsg47
(dp1129
g631
I0
sg632
I0
sg633
I0
sg634
I0
ssg53
(dp1130
g631
I0
sg632
I0
sg633
I0
sg634
I0
ssg55
I0
sg56
g33
sg57
I0
sg59
I0
sg60
I0
sg61
I0
sg111
(g666
g1095
g33
g33
tp1131
sg64
I00
sg65
g0
(g38
g2
Ntp1132
Rp1133
(dp1134
g43
g33
sbsg66
(dp1135
g631
I0
sg632
I0
sg633
I0
sg634
I0
ssg68
I00
sg69
(dp1136
g631
I0
sg632
I0
sg633
I0
sg634
I0
ssg71
(dp1137
g631
I0
sg632
I0
sg633
I0
sg634
I0
ssg73
I0
sg74
I0
sg75
g33
sg77
I0
sg78
I0
sg129
(dp1138
g631
I0
sg632
I0
sg633
I0
sg634
I0
ssg80
I0
sg62
g63
sg84
(dp1139
g652
I0
sg643
I0
sg644
I0
sg645
I0
sg646
I0
sg642
I0
sg647
I0
sg649
I0
sg650
I0
sg651
I0
sg648
I0
sg653
I0
sg654
I0
sg655
I0
sg656
I0
ssg101
(dp1140
sg122
I0
sg123
g33
sg124
I0
sg126
I0
sg127
F0.0
sg128
I0
sg125
I0
sg131
I0
sg132
g1121
sg133
I0
sg134
I0
sg135
I0
sg136
I0
sg137
I0
sg138
I0
sg139
I0
sg140
g33
sbsS's11'
p1141
(ijoueur
joueur
p1142
(dp1143
g28
I0
sg29
I0
sg30
I0
sg34
I0
sg37
g0
(g38
g2
Ntp1144
Rp1145
(dp1146
g43
g33
sbsg47
(dp1147
g631
I0
sg632
I0
sg633
I0
sg634
I0
ssg53
(dp1148
g631
I0
sg632
I0
sg633
I0
sg634
I0
ssg55
I0
sg56
g33
sg57
I0
sg59
I0
sg60
I0
sg61
I0
sg111
g1131
sg64
I00
sg65
g0
(g38
g2
Ntp1149
Rp1150
(dp1151
g43
g33
sbsg66
(dp1152
g631
I0
sg632
I0
sg633
I0
sg634
I0
ssg68
I00
sg69
(dp1153
g631
I0
sg632
I0
sg633
I0
sg634
I0
ssg71
(dp1154
g631
I0
sg632
I0
sg633
I0
sg634
I0
ssg73
I0
sg74
I0
sg75
g33
sg77
I0
sg78
I0
sg129
(dp1155
g631
I0
sg632
I0
sg633
I0
sg634
I0
ssg80
I0
sg62
g63
sg84
(dp1156
g652
I0
sg643
I0
sg644
I0
sg645
I0
sg646
I0
sg642
I0
sg647
I0
sg649
I0
sg650
I0
sg651
I0
sg648
I0
sg653
I0
sg654
I0
sg655
I0
sg656
I0
ssg101
(dp1157
sg122
I0
sg123
g33
sg124
I0
sg126
I0
sg127
F0.0
sg128
I0
sg125
I0
sg131
I0
sg132
g1121
sg133
I0
sg134
I0
sg135
I0
sg136
I0
sg137
I0
sg138
I0
sg139
I0
sg140
g33
sbssg122
I0
sg123
g33
sg124
I0
sg126
I0
sg127
F9.696969696969697
sg128
I0
sg111
(g666
g1095
S'AI'
p1158
S'CE'
p1159
tp1160
sg125
I0
sg131
I0
sg132
g1121
sg133
I0
sg134
I0
sg135
I0
sg136
I0
sg137
I3
sg138
I0
sg139
I0
sg140
g699
sbasS'PI'
p1161
(lp1162
(ijoueur
joueur
p1163
(dp1164
g28
I0
sg29
I0
sg30
I0
sg31
F71.31674614587294
sg32
g33
sg34
I0
sg35
g33
sg36
I0
sg37
g0
(g38
g2
Ntp1165
Rp1166
(dp1167
g42
I2
sg43
g811
sg45
g812
sbsg47
(dp1168
g631
I0
sg632
I0
sg633
I0
sg634
I0
ssg53
(dp1169
g631
I0
sg632
I0
sg633
I0
sg634
I0
ssg224
I10
sg56
g33
sg57
I0
sg58
F71.31674614587294
sg59
I1
sg60
I0
sg61
I0
sg62
g63
sg64
I00
sg65
g1166
sg66
(dp1170
g631
I0
sg632
I8
sg633
I0
sg634
I0
ssg68
I01
sg69
(dp1171
g631
I0
sg632
I0
sg633
I0
sg634
I0
ssg71
(dp1172
g631
I0
sg632
I8
sg633
I0
sg634
I0
ssg73
I0
sg74
I0
sg75
S'Gymyael'
p1173
sg77
I13
sg78
I0
sg129
(dp1174
g631
I0
sg632
I0
sg633
I0
sg634
I0
ssg80
I46
sg81
I0
sg82
I00
sg83
g33
sg55
I23
sg84
(dp1175
g642
I8
sg643
I9
sg644
I6
sg645
I11
sg646
I3
sg647
I2
sg648
I7
sg649
I8
sg650
I11
sg651
I8
sg652
I11
sg653
I9
sg654
I2
sg655
I11
sg656
I7
ssg101
(dp1176
sg122
I0
sg123
g33
sg124
I1
sg126
I0
sg127
F9.794117647058824
sg128
I0
sg111
(g666
S'PI'
p1177
g33
g33
tp1178
sg125
I1
sg131
I0
sg132
g1175
sg133
I0
sg134
I0
sg135
I0
sg136
I0
sg137
I4
sg138
I1
sg139
I0
sg140
g751
sba(ijoueur
joueur
p1179
(dp1180
g28
I0
sg29
I0
sg30
I0
sg31
F116.95201615845471
sg32
g33
sg34
I0
sg35
g33
sg36
I0
sg37
g0
(g38
g2
Ntp1181
Rp1182
(dp1183
g42
I3
sg43
S'^^^'
p1184
sg45
S'rare'
p1185
sbsg47
(dp1186
g631
I0
sg632
I0
sg633
I0
sg634
I0
ssg53
(dp1187
g631
I0
sg632
I0
sg633
I0
sg634
I0
ssg224
I10
sg56
g33
sg57
I0
sg58
F116.95201615845471
sg59
I0
sg60
I0
sg61
I0
sg62
g63
sg64
I00
sg65
g1182
sg66
(dp1188
g631
I0
sg632
I6
sg633
I7
sg634
I0
ssg68
I00
sg69
(dp1189
g631
I0
sg632
I0
sg633
I0
sg634
I0
ssg71
(dp1190
g631
I0
sg632
I6
sg633
I7
sg634
I0
ssg73
I0
sg74
I0
sg75
S'Reclep'
p1191
sg77
I13
sg78
I0
sg129
(dp1192
g631
I0
sg632
I0
sg633
I0
sg634
I0
ssg80
I144
sg81
I1
sg82
I00
sg83
g33
sg55
I21
sg84
(dp1193
g642
I9
sg643
I10
sg644
I7
sg645
I9
sg646
I2
sg647
I6
sg648
I9
sg649
I9
sg650
I7
sg651
I6
sg652
I7
sg653
I11
sg654
I3
sg655
I9
sg656
I11
ssg101
(dp1194
sg122
I0
sg123
g33
sg124
I0
sg126
I0
sg127
F9.37037037037037
sg128
I0
sg111
(g666
g1177
g33
g33
tp1195
sg125
I0
sg131
I0
sg132
g1193
sg133
I0
sg134
I0
sg135
I0
sg136
I0
sg137
I14
sg138
I0
sg139
I0
sg140
S'OG'
p1196
sba(ijoueur
joueur
p1197
(dp1198
g28
I0
sg29
I0
sg30
I0
sg31
F107.56392204874837
sg32
g33
sg34
I0
sg35
g33
sg36
I0
sg37
g0
(g38
g2
Ntp1199
Rp1200
(dp1201
g42
I2
sg43
g1079
sg45
g812
sbsg47
(dp1202
g631
I0
sg632
I0
sg633
I0
sg634
I0
ssg53
(dp1203
g631
I0
sg632
I0
sg633
I0
sg634
I0
ssg224
I10
sg56
g33
sg57
I0
sg58
F107.56392204874837
sg59
I0
sg60
I0
sg61
I0
sg62
g63
sg64
I00
sg65
g0
(g38
g2
Ntp1204
Rp1205
(dp1206
g42
I1
sg43
S'^'
p1207
sg45
g819
sbsg66
(dp1208
g631
I0
sg632
I9
sg633
I3
sg634
I0
ssg68
I01
sg69
(dp1209
g631
I0
sg632
I0
sg633
I0
sg634
I0
ssg71
(dp1210
g631
I0
sg632
I9
sg633
I3
sg634
I0
ssg73
I0
sg74
I0
sg75
S'Stedhal'
p1211
sg77
I13
sg78
I0
sg129
(dp1212
g631
I0
sg632
I0
sg633
I0
sg634
I0
ssg80
I22
sg81
I1
sg82
I00
sg83
g33
sg55
I23
sg84
(dp1213
g642
I9
sg643
I12
sg644
I6
sg645
I9
sg646
I4
sg647
I2
sg648
I7
sg649
I9
sg650
I9
sg651
I8
sg652
I8
sg653
I9
sg654
I3
sg655
I10
sg656
I7
ssg101
(dp1214
sg122
I0
sg123
g33
sg124
I0
sg126
I0
sg127
F9.518518518518519
sg128
I0
sg111
(g666
g1177
g33
g33
tp1215
sg125
I0
sg131
I0
sg132
g1213
sg133
I0
sg134
I0
sg135
I0
sg136
I0
sg137
I2
sg138
I0
sg139
I0
sg140
g751
sba(ijoueur
joueur
p1216
(dp1217
g28
I0
sg29
I0
sg30
I0
sg31
F107.65664400990411
sg32
g33
sg34
I0
sg35
g33
sg36
I0
sg37
g0
(g38
g2
Ntp1218
Rp1219
(dp1220
g42
I4
sg43
g757
sg45
g758
sbsg47
(dp1221
g631
I0
sg632
I11
sg633
I0
sg634
I0
ssg53
(dp1222
g631
I0
sg632
I0
sg633
I0
sg634
I0
ssg224
I10
sg56
g33
sg57
I0
sg58
F107.65664400990411
sg59
I2
sg60
I0
sg61
I0
sg62
g63
sg64
I00
sg65
g1219
sg66
(dp1223
g631
I0
sg632
I1
sg633
I0
sg634
I0
ssg68
I00
sg69
(dp1224
g631
I0
sg632
I0
sg633
I0
sg634
I0
ssg71
(dp1225
g631
I0
sg632
I1
sg633
I0
sg634
I0
ssg73
I0
sg74
I0
sg75
S'Ryenmror'
p1226
sg77
I5
sg78
I0
sg129
(dp1227
g631
I0
sg632
I11
sg633
I0
sg634
I0
ssg80
I128
sg81
I2
sg82
I00
sg83
g33
sg55
I16
sg84
(dp1228
g642
I9
sg643
I11
sg644
I9
sg645
I8
sg646
I5
sg647
I3
sg648
I7
sg649
I11
sg650
I11
sg651
I9
sg652
I9
sg653
I8
sg654
I3
sg655
I10
sg656
I9
ssg101
(dp1229
S's12'
p1230
(ijoueur
joueur
p1231
(dp1232
g28
I0
sg29
I0
sg30
I0
sg34
I0
sg37
g0
(g38
g2
Ntp1233
Rp1234
(dp1235
g43
g33
sbsg47
(dp1236
g631
I0
sg632
I0
sg633
I0
sg634
I0
ssg53
(dp1237
g631
I0
sg632
I0
sg633
I0
sg634
I0
ssg55
I0
sg56
g33
sg57
I0
sg59
I0
sg60
I0
sg61
I0
sg111
(g666
g1177
g33
g33
tp1238
sg64
I00
sg65
g0
(g38
g2
Ntp1239
Rp1240
(dp1241
g43
g33
sbsg66
(dp1242
g631
I0
sg632
I0
sg633
I0
sg634
I0
ssg68
I00
sg69
(dp1243
g631
I0
sg632
I0
sg633
I0
sg634
I0
ssg71
(dp1244
g631
I0
sg632
I0
sg633
I0
sg634
I0
ssg73
I0
sg74
I0
sg75
g33
sg77
I0
sg78
I0
sg129
(dp1245
g631
I0
sg632
I0
sg633
I0
sg634
I0
ssg80
I0
sg62
g63
sg84
(dp1246
g652
I0
sg643
I0
sg644
I0
sg645
I0
sg646
I0
sg642
I0
sg647
I0
sg649
I0
sg650
I0
sg651
I0
sg648
I0
sg653
I0
sg654
I0
sg655
I0
sg656
I0
ssg101
(dp1247
sg122
I0
sg123
g33
sg124
I0
sg126
I0
sg127
F0.0
sg128
I0
sg125
I0
sg131
I0
sg132
g1228
sg133
I0
sg134
I0
sg135
I0
sg136
I0
sg137
I0
sg138
I0
sg139
I0
sg140
g33
sbsS's11'
p1248
(ijoueur
joueur
p1249
(dp1250
g28
I0
sg29
I0
sg30
I0
sg34
I0
sg37
g0
(g38
g2
Ntp1251
Rp1252
(dp1253
g43
g33
sbsg47
(dp1254
g631
I0
sg632
I0
sg633
I0
sg634
I0
ssg53
(dp1255
g631
I0
sg632
I0
sg633
I0
sg634
I0
ssg55
I0
sg56
g33
sg57
I0
sg59
I0
sg60
I0
sg61
I0
sg111
g1238
sg64
I00
sg65
g0
(g38
g2
Ntp1256
Rp1257
(dp1258
g43
g33
sbsg66
(dp1259
g631
I0
sg632
I0
sg633
I0
sg634
I0
ssg68
I00
sg69
(dp1260
g631
I0
sg632
I0
sg633
I0
sg634
I0
ssg71
(dp1261
g631
I0
sg632
I0
sg633
I0
sg634
I0
ssg73
I0
sg74
I0
sg75
g33
sg77
I0
sg78
I0
sg129
(dp1262
g631
I0
sg632
I0
sg633
I0
sg634
I0
ssg80
I0
sg62
g63
sg84
(dp1263
g652
I0
sg643
I0
sg644
I0
sg645
I0
sg646
I0
sg642
I0
sg647
I0
sg649
I0
sg650
I0
sg651
I0
sg648
I0
sg653
I0
sg654
I0
sg655
I0
sg656
I0
ssg101
(dp1264
sg122
I0
sg123
g33
sg124
I0
sg126
I0
sg127
F0.0
sg128
I0
sg125
I0
sg131
I0
sg132
g1228
sg133
I0
sg134
I0
sg135
I0
sg136
I0
sg137
I0
sg138
I0
sg139
I0
sg140
g33
sbssg122
I0
sg123
g33
sg124
I0
sg126
I0
sg127
F9.705882352941176
sg128
I0
sg111
(g666
g1177
S'DL'
p1265
S'TA'
p1266
tp1267
sg125
I0
sg131
I3
sg132
g1228
sg133
I0
sg134
I0
sg135
I0
sg136
I0
sg137
I12
sg138
I2
sg139
I3
sg140
g751
sba(ijoueur
joueur
p1268
(dp1269
g28
I0
sg29
I0
sg30
I0
sg31
F124.98361677787186
sg32
g33
sg34
I0
sg35
g33
sg36
I0
sg37
g0
(g38
g2
Ntp1270
Rp1271
(dp1272
g42
I2
sg43
g811
sg45
g812
sbsg47
(dp1273
g631
I0
sg632
I2
sg633
I8
sg634
I0
ssg53
(dp1274
g631
I0
sg632
I1
sg633
I0
sg634
I0
ssg224
I10
sg56
g33
sg57
I0
sg58
F124.98361677787186
sg59
I1
sg60
I0
sg61
I0
sg62
g63
sg64
I01
sg65
g1271
sg66
(dp1275
g631
I0
sg632
I3
sg633
I0
sg634
I0
ssg68
I01
sg69
(dp1276
g631
I0
sg632
I1
sg633
I0
sg634
I0
ssg71
(dp1277
g631
I0
sg632
I3
sg633
I0
sg634
I0
ssg73
I0
sg74
I0
sg75
S'Qladyr'
p1278
sg77
I8
sg78
I0
sg129
(dp1279
g631
I0
sg632
I2
sg633
I8
sg634
I0
ssg80
I43
sg81
I1
sg82
I00
sg83
g33
sg55
I21
sg84
(dp1280
g642
I8
sg643
I11
sg644
I5
sg645
I9
sg646
I5
sg647
I4
sg648
I7
sg649
I8
sg650
I11
sg651
I8
sg652
I8
sg653
I7
sg654
I2
sg655
I11
sg656
I8
ssg101
(dp1281
S's12'
p1282
(ijoueur
joueur
p1283
(dp1284
g28
I0
sg29
I0
sg30
I0
sg34
I0
sg37
g0
(g38
g2
Ntp1285
Rp1286
(dp1287
g43
g33
sbsg47
(dp1288
g631
I0
sg632
I0
sg633
I0
sg634
I0
ssg53
(dp1289
g631
I0
sg632
I0
sg633
I0
sg634
I0
ssg55
I0
sg56
g33
sg57
I0
sg59
I0
sg60
I0
sg61
I0
sg111
(g666
g1177
g33
g33
tp1290
sg64
I00
sg65
g0
(g38
g2
Ntp1291
Rp1292
(dp1293
g43
g33
sbsg66
(dp1294
g631
I0
sg632
I0
sg633
I0
sg634
I0
ssg68
I00
sg69
(dp1295
g631
I0
sg632
I0
sg633
I0
sg634
I0
ssg71
(dp1296
g631
I0
sg632
I0
sg633
I0
sg634
I0
ssg73
I0
sg74
I0
sg75
g33
sg77
I0
sg78
I0
sg129
(dp1297
g631
I0
sg632
I0
sg633
I0
sg634
I0
ssg80
I0
sg62
g63
sg84
(dp1298
g652
I0
sg643
I0
sg644
I0
sg645
I0
sg646
I0
sg642
I0
sg647
I0
sg649
I0
sg650
I0
sg651
I0
sg648
I0
sg653
I0
sg654
I0
sg655
I0
sg656
I0
ssg101
(dp1299
sg122
I0
sg123
g33
sg124
I0
sg126
I0
sg127
F0.0
sg128
I0
sg125
I0
sg131
I0
sg132
g1280
sg133
I0
sg134
I0
sg135
I0
sg136
I0
sg137
I0
sg138
I0
sg139
I0
sg140
g33
sbsS's11'
p1300
(ijoueur
joueur
p1301
(dp1302
g28
I0
sg29
I0
sg30
I0
sg34
I0
sg37
g0
(g38
g2
Ntp1303
Rp1304
(dp1305
g43
g33
sbsg47
(dp1306
g631
I0
sg632
I0
sg633
I0
sg634
I0
ssg53
(dp1307
g631
I0
sg632
I0
sg633
I0
sg634
I0
ssg55
I0
sg56
g33
sg57
I0
sg59
I0
sg60
I0
sg61
I0
sg111
g1290
sg64
I00
sg65
g0
(g38
g2
Ntp1308
Rp1309
(dp1310
g43
g33
sbsg66
(dp1311
g631
I0
sg632
I0
sg633
I0
sg634
I0
ssg68
I00
sg69
(dp1312
g631
I0
sg632
I0
sg633
I0
sg634
I0
ssg71
(dp1313
g631
I0
sg632
I0
sg633
I0
sg634
I0
ssg73
I0
sg74
I0
sg75
g33
sg77
I0
sg78
I0
sg129
(dp1314
g631
I0
sg632
I0
sg633
I0
sg634
I0
ssg80
I0
sg62
g63
sg84
(dp1315
g652
I0
sg643
I0
sg644
I0
sg645
I0
sg646
I0
sg642
I0
sg647
I0
sg649
I0
sg650
I0
sg651
I0
sg648
I0
sg653
I0
sg654
I0
sg655
I0
sg656
I0
ssg101
(dp1316
sg122
I0
sg123
g33
sg124
I0
sg126
I0
sg127
F0.0
sg128
I0
sg125
I0
sg131
I0
sg132
g1280
sg133
I0
sg134
I0
sg135
I0
sg136
I0
sg137
I0
sg138
I0
sg139
I0
sg140
g33
sbssg122
I0
sg123
g33
sg124
I0
sg126
I0
sg127
F9.323529411764707
sg128
I0
sg111
(g666
g1177
S'DL'
p1317
S'TL'
p1318
tp1319
sg125
I0
sg131
I0
sg132
g1280
sg133
I0
sg134
I0
sg135
I0
sg136
I0
sg137
I4
sg138
I1
sg139
I0
sg140
g751
sbasg100
(lp1320
(ijoueur
joueur
p1321
(dp1322
g28
I0
sg29
I0
sg30
I0
sg31
F124.8140418875047
sg32
g33
sg34
I0
sg35
g33
sg36
I0
sg37
g0
(g38
g2
Ntp1323
Rp1324
(dp1325
g42
I2
sg43
g811
sg45
g812
sbsg47
(dp1326
g631
I0
sg632
I2
sg633
I1
sg634
I0
ssg53
(dp1327
g631
I0
sg632
I0
sg633
I0
sg634
I0
ssg224
I10
sg56
g33
sg57
I0
sg58
F124.8140418875047
sg59
I1
sg60
I0
sg61
I0
sg62
g63
sg64
I01
sg65
g1324
sg66
(dp1328
g631
I0
sg632
I5
sg633
I6
sg634
I0
ssg68
I01
sg69
(dp1329
g631
I0
sg632
I0
sg633
I0
sg634
I0
ssg71
(dp1330
g631
I0
sg632
I5
sg633
I6
sg634
I0
ssg73
I0
sg74
I0
sg75
S'Vaceer'
p1331
sg77
I5
sg78
I0
sg129
(dp1332
g631
I0
sg632
I2
sg633
I1
sg634
I0
ssg80
I34
sg81
I1
sg82
I00
sg83
g33
sg55
I16
sg84
(dp1333
g642
I8
sg643
I10
sg644
I6
sg645
I8
sg646
I4
sg647
I3
sg648
I8
sg649
I8
sg650
I8
sg651
I8
sg652
I9
sg653
I10
sg654
I4
sg655
I11
sg656
I9
ssg101
(dp1334
S's12'
p1335
(ijoueur
joueur
p1336
(dp1337
g28
I0
sg29
I0
sg30
I0
sg34
I0
sg37
g0
(g38
g2
Ntp1338
Rp1339
(dp1340
g43
g33
sbsg47
(dp1341
g631
I0
sg632
I0
sg633
I0
sg634
I0
ssg53
(dp1342
g631
I0
sg632
I0
sg633
I0
sg634
I0
ssg55
I0
sg56
g33
sg57
I0
sg59
I0
sg60
I0
sg61
I0
sg111
(g666
g656
g33
g33
tp1343
sg64
I00
sg65
g0
(g38
g2
Ntp1344
Rp1345
(dp1346
g43
g33
sbsg66
(dp1347
g631
I0
sg632
I0
sg633
I0
sg634
I0
ssg68
I00
sg69
(dp1348
g631
I0
sg632
I0
sg633
I0
sg634
I0
ssg71
(dp1349
g631
I0
sg632
I0
sg633
I0
sg634
I0
ssg73
I0
sg74
I0
sg75
g33
sg77
I0
sg78
I0
sg129
(dp1350
g631
I0
sg632
I0
sg633
I0
sg634
I0
ssg80
I0
sg62
g63
sg84
(dp1351
g652
I0
sg643
I0
sg644
I0
sg645
I0
sg646
I0
sg642
I0
sg647
I0
sg649
I0
sg650
I0
sg651
I0
sg648
I0
sg653
I0
sg654
I0
sg655
I0
sg656
I0
ssg101
(dp1352
sg122
I0
sg123
g33
sg124
I0
sg126
I0
sg127
F0.0
sg128
I0
sg125
I0
sg131
I0
sg132
g1333
sg133
I0
sg134
I0
sg135
I0
sg136
I0
sg137
I0
sg138
I0
sg139
I0
sg140
g33
sbsS's11'
p1353
(ijoueur
joueur
p1354
(dp1355
g28
I0
sg29
I0
sg30
I0
sg34
I0
sg37
g0
(g38
g2
Ntp1356
Rp1357
(dp1358
g43
g33
sbsg47
(dp1359
g631
I0
sg632
I0
sg633
I0
sg634
I0
ssg53
(dp1360
g631
I0
sg632
I0
sg633
I0
sg634
I0
ssg55
I0
sg56
g33
sg57
I0
sg59
I0
sg60
I0
sg61
I0
sg111
g1343
sg64
I00
sg65
g0
(g38
g2
Ntp1361
Rp1362
(dp1363
g43
g33
sbsg66
(dp1364
g631
I0
sg632
I0
sg633
I0
sg634
I0
ssg68
I00
sg69
(dp1365
g631
I0
sg632
I0
sg633
I0
sg634
I0
ssg71
(dp1366
g631
I0
sg632
I0
sg633
I0
sg634
I0
ssg73
I0
sg74
I0
sg75
g33
sg77
I0
sg78
I0
sg129
(dp1367
g631
I0
sg632
I0
sg633
I0
sg634
I0
ssg80
I0
sg62
g63
sg84
(dp1368
g652
I0
sg643
I0
sg644
I0
sg645
I0
sg646
I0
sg642
I0
sg647
I0
sg649
I0
sg650
I0
sg651
I0
sg648
I0
sg653
I0
sg654
I0
sg655
I0
sg656
I0
ssg101
(dp1369
sg122
I0
sg123
g33
sg124
I0
sg126
I0
sg127
F0.0
sg128
I0
sg125
I0
sg131
I0
sg132
g1333
sg133
I0
sg134
I0
sg135
I0
sg136
I0
sg137
I0
sg138
I0
sg139
I0
sg140
g33
sbssg122
I0
sg123
g33
sg124
I0
sg126
I0
sg127
F9.241379310344827
sg128
I0
sg111
(g666
g656
S'PI'
p1370
g33
tp1371
sg125
I0
sg131
I0
sg132
g1333
sg133
I0
sg134
I0
sg135
I0
sg136
I0
sg137
I3
sg138
I1
sg139
I0
sg140
g751
sba(ijoueur
joueur
p1372
(dp1373
g28
I0
sg29
I0
sg30
I0
sg31
F98.32888625806576
sg32
g33
sg34
I0
sg35
g33
sg36
I0
sg37
g0
(g38
g2
Ntp1374
Rp1375
(dp1376
g42
I2
sg43
g811
sg45
g812
sbsg47
(dp1377
g631
I0
sg632
I1
sg633
I4
sg634
I0
ssg53
(dp1378
g631
I0
sg632
I1
sg633
I0
sg634
I0
ssg224
I10
sg56
g33
sg57
I0
sg58
F98.32888625806576
sg59
I2
sg60
I0
sg61
I0
sg62
g63
sg64
I01
sg65
g1375
sg66
(dp1379
g631
I0
sg632
I3
sg633
I2
sg634
I0
ssg68
I01
sg69
(dp1380
g631
I0
sg632
I1
sg633
I0
sg634
I0
ssg71
(dp1381
g631
I0
sg632
I3
sg633
I2
sg634
I0
ssg73
I0
sg74
I0
sg75
S'Ichendye'
p1382
sg77
I6
sg78
I0
sg129
(dp1383
g631
I0
sg632
I1
sg633
I4
sg634
I0
ssg80
I29
sg81
I0
sg82
I00
sg83
g33
sg55
I17
sg84
(dp1384
g642
I9
sg643
I9
sg644
I6
sg645
I12
sg646
I4
sg647
I2
sg648
I7
sg649
I9
sg650
I7
sg651
I10
sg652
I8
sg653
I7
sg654
I2
sg655
I11
sg656
I9
ssg101
(dp1385
S's12'
p1386
(ijoueur
joueur
p1387
(dp1388
g28
I0
sg29
I0
sg30
I0
sg34
I0
sg37
g0
(g38
g2
Ntp1389
Rp1390
(dp1391
g43
g33
sbsg47
(dp1392
g631
I0
sg632
I0
sg633
I0
sg634
I0
ssg53
(dp1393
g631
I0
sg632
I0
sg633
I0
sg634
I0
ssg55
I0
sg56
g33
sg57
I0
sg59
I0
sg60
I0
sg61
I0
sg111
(g666
g656
g33
g33
tp1394
sg64
I00
sg65
g0
(g38
g2
Ntp1395
Rp1396
(dp1397
g43
g33
sbsg66
(dp1398
g631
I0
sg632
I0
sg633
I0
sg634
I0
ssg68
I00
sg69
(dp1399
g631
I0
sg632
I0
sg633
I0
sg634
I0
ssg71
(dp1400
g631
I0
sg632
I0
sg633
I0
sg634
I0
ssg73
I0
sg74
I0
sg75
g33
sg77
I0
sg78
I0
sg129
(dp1401
g631
I0
sg632
I0
sg633
I0
sg634
I0
ssg80
I0
sg62
g63
sg84
(dp1402
g652
I0
sg643
I0
sg644
I0
sg645
I0
sg646
I0
sg642
I0
sg647
I0
sg649
I0
sg650
I0
sg651
I0
sg648
I0
sg653
I0
sg654
I0
sg655
I0
sg656
I0
ssg101
(dp1403
sg122
I0
sg123
g33
sg124
I0
sg126
I0
sg127
F0.0
sg128
I0
sg125
I0
sg131
I0
sg132
g1384
sg133
I0
sg134
I0
sg135
I0
sg136
I0
sg137
I0
sg138
I0
sg139
I0
sg140
g33
sbsS's11'
p1404
(ijoueur
joueur
p1405
(dp1406
g28
I0
sg29
I0
sg30
I0
sg34
I0
sg37
g0
(g38
g2
Ntp1407
Rp1408
(dp1409
g43
g33
sbsg47
(dp1410
g631
I0
sg632
I0
sg633
I0
sg634
I0
ssg53
(dp1411
g631
I0
sg632
I0
sg633
I0
sg634
I0
ssg55
I0
sg56
g33
sg57
I0
sg59
I0
sg60
I0
sg61
I0
sg111
g1394
sg64
I00
sg65
g0
(g38
g2
Ntp1412
Rp1413
(dp1414
g43
g33
sbsg66
(dp1415
g631
I0
sg632
I0
sg633
I0
sg634
I0
ssg68
I00
sg69
(dp1416
g631
I0
sg632
I0
sg633
I0
sg634
I0
ssg71
(dp1417
g631
I0
sg632
I0
sg633
I0
sg634
I0
ssg73
I0
sg74
I0
sg75
g33
sg77
I0
sg78
I0
sg129
(dp1418
g631
I0
sg632
I0
sg633
I0
sg634
I0
ssg80
I0
sg62
g63
sg84
(dp1419
g652
I0
sg643
I0
sg644
I0
sg645
I0
sg646
I0
sg642
I0
sg647
I0
sg649
I0
sg650
I0
sg651
I0
sg648
I0
sg653
I0
sg654
I0
sg655
I0
sg656
I0
ssg101
(dp1420
sg122
I0
sg123
g33
sg124
I0
sg126
I0
sg127
F0.0
sg128
I0
sg125
I0
sg131
I0
sg132
g1384
sg133
I0
sg134
I0
sg135
I0
sg136
I0
sg137
I0
sg138
I0
sg139
I0
sg140
g33
sbssg122
I0
sg123
g33
sg124
I0
sg126
I0
sg127
F9.172413793103448
sg128
I0
sg111
(g666
g656
S'PI'
p1421
S'TL'
p1422
tp1423
sg125
I0
sg131
I1
sg132
g1384
sg133
I0
sg134
I0
sg135
I0
sg136
I0
sg137
I2
sg138
I2
sg139
I1
sg140
g751
sba(ijoueur
joueur
p1424
(dp1425
g28
I0
sg29
I0
sg30
I0
sg31
F125.6301233261778
sg32
g33
sg34
I0
sg35
g33
sg36
I0
sg37
g0
(g38
g2
Ntp1426
Rp1427
(dp1428
g42
I4
sg43
g757
sg45
g758
sbsg47
(dp1429
g631
I0
sg632
I0
sg633
I0
sg634
I0
ssg53
(dp1430
g631
I0
sg632
I0
sg633
I0
sg634
I0
ssg224
I10
sg56
g33
sg57
I0
sg58
F125.6301233261778
sg59
I0
sg60
I0
sg61
I0
sg62
g63
sg64
I00
sg65
g1427
sg66
(dp1431
g631
I0
sg632
I7
sg633
I7
sg634
I0
ssg68
I00
sg69
(dp1432
g631
I0
sg632
I0
sg633
I0
sg634
I0
ssg71
(dp1433
g631
I0
sg632
I7
sg633
I7
sg634
I0
ssg73
I0
sg74
I0
sg75
S'Rhokled'
p1434
sg77
I9
sg78
I0
sg129
(dp1435
g631
I0
sg632
I0
sg633
I0
sg634
I0
ssg80
I120
sg81
I1
sg82
I00
sg83
g33
sg55
I18
sg84
(dp1436
g642
I9
sg643
I10
sg644
I8
sg645
I9
sg646
I6
sg647
I6
sg648
I7
sg649
I10
sg650
I9
sg651
I10
sg652
I12
sg653
I8
sg654
I4
sg655
I11
sg656
I10
ssg101
(dp1437
S's12'
p1438
(ijoueur
joueur
p1439
(dp1440
g28
I0
sg29
I0
sg30
I0
sg34
I0
sg37
g0
(g38
g2
Ntp1441
Rp1442
(dp1443
g43
g33
sbsg47
(dp1444
g631
I0
sg632
I0
sg633
I0
sg634
I0
ssg53
(dp1445
g631
I0
sg632
I0
sg633
I0
sg634
I0
ssg55
I0
sg56
g33
sg57
I0
sg59
I0
sg60
I0
sg61
I0
sg111
(g666
g656
g33
g33
tp1446
sg64
I00
sg65
g0
(g38
g2
Ntp1447
Rp1448
(dp1449
g43
g33
sbsg66
(dp1450
g631
I0
sg632
I0
sg633
I0
sg634
I0
ssg68
I00
sg69
(dp1451
g631
I0
sg632
I0
sg633
I0
sg634
I0
ssg71
(dp1452
g631
I0
sg632
I0
sg633
I0
sg634
I0
ssg73
I0
sg74
I0
sg75
g33
sg77
I0
sg78
I0
sg129
(dp1453
g631
I0
sg632
I0
sg633
I0
sg634
I0
ssg80
I0
sg62
g63
sg84
(dp1454
g652
I0
sg643
I0
sg644
I0
sg645
I0
sg646
I0
sg642
I0
sg647
I0
sg649
I0
sg650
I0
sg651
I0
sg648
I0
sg653
I0
sg654
I0
sg655
I0
sg656
I0
ssg101
(dp1455
sg122
I0
sg123
g33
sg124
I0
sg126
I0
sg127
F0.0
sg128
I0
sg125
I0
sg131
I0
sg132
g1436
sg133
I0
sg134
I0
sg135
I0
sg136
I0
sg137
I0
sg138
I0
sg139
I0
sg140
g33
sbsS's11'
p1456
(ijoueur
joueur
p1457
(dp1458
g28
I0
sg29
I0
sg30
I0
sg34
I0
sg37
g0
(g38
g2
Ntp1459
Rp1460
(dp1461
g43
g33
sbsg47
(dp1462
g631
I0
sg632
I0
sg633
I0
sg634
I0
ssg53
(dp1463
g631
I0
sg632
I0
sg633
I0
sg634
I0
ssg55
I0
sg56
g33
sg57
I0
sg59
I0
sg60
I0
sg61
I0
sg111
g1446
sg64
I00
sg65
g0
(g38
g2
Ntp1464
Rp1465
(dp1466
g43
g33
sbsg66
(dp1467
g631
I0
sg632
I0
sg633
I0
sg634
I0
ssg68
I00
sg69
(dp1468
g631
I0
sg632
I0
sg633
I0
sg634
I0
ssg71
(dp1469
g631
I0
sg632
I0
sg633
I0
sg634
I0
ssg73
I0
sg74
I0
sg75
g33
sg77
I0
sg78
I0
sg129
(dp1470
g631
I0
sg632
I0
sg633
I0
sg634
I0
ssg80
I0
sg62
g63
sg84
(dp1471
g652
I0
sg643
I0
sg644
I0
sg645
I0
sg646
I0
sg642
I0
sg647
I0
sg649
I0
sg650
I0
sg651
I0
sg648
I0
sg653
I0
sg654
I0
sg655
I0
sg656
I0
ssg101
(dp1472
sg122
I0
sg123
g33
sg124
I0
sg126
I0
sg127
F0.0
sg128
I0
sg125
I0
sg131
I0
sg132
g1436
sg133
I0
sg134
I0
sg135
I0
sg136
I0
sg137
I0
sg138
I0
sg139
I0
sg140
g33
sbssg122
I0
sg123
g33
sg124
I0
sg126
I0
sg127
F9.620689655172415
sg128
I0
sg111
(g666
g656
S'PI'
p1473
g33
tp1474
sg125
I0
sg131
I0
sg132
g1436
sg133
I0
sg134
I0
sg135
I0
sg136
I0
sg137
I12
sg138
I0
sg139
I0
sg140
g751
sbassg75
g63
sS'besoins'
p1475
(lp1476
(S'DL'
p1477
F9.8
tp1478
a(S'DL'
p1479
F9.0
tp1480
a(S'TL'
p1481
F9.5
tp1482
a(S'DM'
p1483
F10.0
tp1484
a(S'DM'
p1485
F9.0
tp1486
a(S'DO'
p1487
F9.0
tp1488
a(S'AI'
p1489
F9.5
tp1490
a(S'AR'
p1491
F9.0
tp1492
a(S'PI'
p1493
F9.0
tp1494
a(S'TA'
p1495
F9.0
tp1496
a(S'TA'
p1497
F9.0
tp1498
a(S'DL'
p1499
F8.5
tp1500
a(S'DO'
p1501
F9.0
tp1502
a(S'AI'
p1503
F9.0
tp1504
a(S'AR'
p1505
F9.8
tp1506
asS'masse_salariale'
p1507
I251
sS'difference_coupe'
p1508
I16
sS'bonus_offensif_championat'
p1509
I1
sS'nuls_coupe'
p1510
I0
sS'revenus'
p1511
I0
sS'gagnes_coupe'
p1512
I1
sS'budget'
p1513
I225
sS'compo_defaut'
p1514
(iclub
compo
p1515
(dp1516
S'caracs_old'
p1517
(dp1518
S'A'
p1519
F159.5
sS'ME'
p1520
F97.25
sS'E'
p1521
F186.0
sS'OplusAV'
p1522
F90.75
sS'OplusAR'
p1523
F111.0
sS'JP'
p1524
F84.5
sS'PA'
p1525
F101.25
sS'M'
p1526
F89.25
sS'OmoinsAR'
p1527
F100.25
sS'TO_off'
p1528
F100.25
sS'TO_def'
p1529
F93.0
sS'OmoinsAV'
p1530
F110.5
sS'R'
p1531
F166.25
ssS'totaux_old'
p1532
(dp1533
S'T2'
p1534
F172.75
sS'T3'
p1535
F93.0
sS'T1'
p1536
F180.0
ssS'roles'
p1537
(dp1538
S'SA_scd'
p1539
(ijoueur
joueur
p1540
(dp1541
g28
I0
sg29
I0
sg30
I0
sg32
g33
sg34
I0
sg35
g33
sg37
g0
(g38
g2
Ntp1542
Rp1543
(dp1544
g42
I4
sg43
S'x'
p1545
sg45
S'heros'
p1546
sbsg47
(dp1547
S'SR'
p1548
I0
sS'CT'
p1549
I0
sS'CR'
p1550
I0
sS'ST'
p1551
I0
ssg53
(dp1552
g1548
I0
sg1549
I0
sg1550
I0
sg1551
I0
ssg56
g33
sg57
I0
sg59
I0
sg60
I0
sg61
I0
sg62
S'AES'
p1553
sg64
I00
sg65
g0
(g38
g2
Ntp1554
Rp1555
(dp1556
g42
I2
sg43
S'^^'
p1557
sg45
S'special'
p1558
sbsg66
(dp1559
g1548
I0
sg1549
I0
sg1550
I0
sg1551
I0
ssg68
I00
sg69
(dp1560
g1548
I0
sg1549
I0
sg1550
I0
sg1551
I0
ssg71
(dp1561
g1548
I0
sg1549
I0
sg1550
I0
sg1551
I0
ssg73
I0
sg74
I0
sg75
S'Yhap'
p1562
sg77
I13
sg78
I0
sg55
I22
sg80
I46
sg111
(S'dummy'
p1563
S'TL'
p1564
S'DM'
p1565
S'DL'
p1566
tp1567
sg83
g33
sg84
(dp1568
S'RP1'
p1569
I7
sS'ME'
p1570
I9
sS'RP2'
p1571
I6
sS'E'
p1572
I10
sS'TO'
p1573
I11
sS'M'
p1574
I8
sS'JP'
p1575
I4
sS'RP_tot'
p1576
I7
sS'P'
p1577
I5
sS'PA'
p1578
I7
sS'A'
p1579
I11
sS'R'
p1580
I8
sS'TB'
p1581
I4
sS'PL'
p1582
I12
sS'TA'
p1583
I5
ssg101
(dp1584
sg122
I0
sg123
g33
sg124
I0
sg125
I0
sg126
I0
sg127
F9.552631578947368
sg128
I0
sg129
(dp1585
g1548
I0
sg1549
I0
sg1550
I0
sg1551
I0
ssg131
I0
sg132
(dp1586
g1569
I7
sg1570
I9
sg1571
I6
sg1572
I10
sg1577
I5
sg1575
I4
sg1574
I8
sg1576
I7
sg1573
I11
sg1578
I7
sg1579
I11
sg1580
I8
sg1581
I4
sg1582
I12
sg1583
I5
ssg133
I0
sg134
I0
sg135
I0
sg136
I0
sg137
I4
sg138
I0
sg139
I0
sg140
S'CHS'
p1587
sbsS'drop3'
p1588
(ijoueur
joueur
p1589
(dp1590
g28
I0
sg29
I0
sg30
I0
sg32
g33
sg34
I0
sg35
g33
sg37
g0
(g38
g2
Ntp1591
Rp1592
(dp1593
g42
I5
sg43
S'**'
p1594
sg45
S'seigneur'
p1595
sbsg47
(dp1596
g1548
I0
sg1549
I0
sg1550
I0
sg1551
I0
ssg53
(dp1597
g1548
I0
sg1549
I0
sg1550
I0
sg1551
I0
ssg56
g33
sg57
I0
sg59
I0
sg60
I0
sg61
I0
sg62
g1553
sg64
I00
sg65
g1592
sg66
(dp1598
g1548
I0
sg1549
I0
sg1550
I0
sg1551
I0
ssg68
I00
sg69
(dp1599
g1548
I0
sg1549
I0
sg1550
I0
sg1551
I0
ssg71
(dp1600
g1548
I0
sg1549
I0
sg1550
I0
sg1551
I0
ssg73
I0
sg74
I0
sg75
S'Floemathel'
p1601
sg77
I3
sg78
I0
sg55
I16
sg80
I169
sg111
(g1563
S'C1'
p1602
S'DO'
p1603
S'AR'
p1604
tp1605
sg83
g33
sg84
(dp1606
g1569
I10
sg1570
I4
sg1571
I13
sg1572
I13
sg1573
I11
sg1574
I10
sg1575
I10
sg1576
I14
sg1577
I10
sg1578
I12
sg1579
I12
sg1580
I10
sg1581
I10
sg1582
I12
sg1583
I7
ssg101
(dp1607
S's12'
p1608
(ijoueur
joueur
p1609
(dp1610
g28
I0
sg29
I0
sg30
I0
sg34
I0
sg37
g0
(g38
g2
Ntp1611
Rp1612
(dp1613
g43
g33
sbsg47
(dp1614
g1548
I0
sg1549
I0
sg1550
I0
sg1551
I0
ssg53
(dp1615
g1548
I0
sg1549
I0
sg1550
I0
sg1551
I0
ssg56
g33
sg57
I0
sg59
I0
sg60
I0
sg61
I0
sg111
(g1563
S'CE'
p1616
g33
g33
tp1617
sg64
I00
sg65
g0
(g38
g2
Ntp1618
Rp1619
(dp1620
g43
g33
sbsg66
(dp1621
g1548
I0
sg1549
I0
sg1550
I0
sg1551
I0
ssg68
I00
sg69
(dp1622
g1548
I0
sg1549
I0
sg1550
I0
sg1551
I0
ssg71
(dp1623
g1548
I0
sg1549
I0
sg1550
I0
sg1551
I0
ssg73
I0
sg74
I0
sg75
S'Floemathel (12)'
p1624
sg77
I0
sg78
I0
sg55
I0
sg80
I0
sg62
g33
sg84
(dp1625
g1579
I0
sg1570
I0
sg1571
I0
sg1572
I0
sg1577
I0
sg1569
I0
sg1575
I0
sg1576
I0
sg1573
I0
sg1578
I0
sg1574
I0
sg1580
I0
sg1581
I0
sg1582
I0
sg1583
I0
ssg101
(dp1626
sg122
I0
sg123
g33
sg124
I0
sg125
I0
sg126
I0
sg127
F0.0
sg128
I0
sg129
(dp1627
g1548
I0
sg1549
I0
sg1550
I0
sg1551
I0
ssg131
I0
sg132
(dp1628
g1569
I10
sg1570
I4
sg1571
I13
sg1572
I13
sg1577
I10
sg1575
I10
sg1574
I10
sg1576
I14
sg1573
I11
sg1578
I12
sg1579
I12
sg1580
I10
sg1581
I10
sg1582
I12
sg1583
I7
ssg133
I0
sg134
I0
sg135
I0
sg136
I0
sg137
I0
sg138
I0
sg139
I0
sg140
g33
sbsS's11'
p1629
(ijoueur
joueur
p1630
(dp1631
g28
I0
sg29
I0
sg30
I0
sg34
I0
sg37
g0
(g38
g2
Ntp1632
Rp1633
(dp1634
g43
g33
sbsg47
(dp1635
g1548
I0
sg1549
I0
sg1550
I0
sg1551
I0
ssg53
(dp1636
g1548
I0
sg1549
I0
sg1550
I0
sg1551
I0
ssg56
g33
sg57
I0
sg59
I0
sg60
I0
sg61
I0
sg111
g1617
sg64
I00
sg65
g0
(g38
g2
Ntp1637
Rp1638
(dp1639
g43
g33
sbsg66
(dp1640
g1548
I0
sg1549
I0
sg1550
I0
sg1551
I0
ssg68
I00
sg69
(dp1641
g1548
I0
sg1549
I0
sg1550
I0
sg1551
I0
ssg71
(dp1642
g1548
I0
sg1549
I0
sg1550
I0
sg1551
I0
ssg73
I0
sg74
I0
sg75
S'Floemathel (11)'
p1643
sg77
I0
sg78
I0
sg55
I0
sg80
I0
sg62
g33
sg84
(dp1644
g1579
I0
sg1570
I0
sg1571
I0
sg1572
I0
sg1577
I0
sg1569
I0
sg1575
I0
sg1576
I0
sg1573
I0
sg1578
I0
sg1574
I0
sg1580
I0
sg1581
I0
sg1582
I0
sg1583
I0
ssg101
(dp1645
sg122
I0
sg123
g33
sg124
I0
sg125
I0
sg126
I0
sg127
F0.0
sg128
I0
sg129
(dp1646
g1548
I0
sg1549
I0
sg1550
I0
sg1551
I0
ssg131
I0
sg132
g1628
sg133
I0
sg134
I0
sg135
I0
sg136
I0
sg137
I0
sg138
I0
sg139
I0
sg140
g33
sbssg122
I0
sg123
g33
sg124
I0
sg125
I0
sg126
I0
sg127
F11.8
sg128
I0
sg129
(dp1647
g1548
I0
sg1549
I0
sg1550
I0
sg1551
I0
ssg131
I0
sg132
g1628
sg133
I0
sg134
I0
sg135
I0
sg136
I0
sg137
I16
sg138
I0
sg139
I0
sg140
S'EN'
p1648
sbsS'cap'
p1649
g1589
sS'B4'
p1650
g1589
sS'RJC'
p1651
(ijoueur
joueur
p1652
(dp1653
g28
I0
sg29
I0
sg30
I0
sg32
g33
sg34
I0
sg35
g33
sg37
g0
(g38
g2
Ntp1654
Rp1655
(dp1656
g42
I4
sg43
S'*'
p1657
sg45
S'heros'
p1658
sbsg47
(dp1659
S'SR'
p1660
I0
sS'ST'
p1661
I0
sS'CR'
p1662
I0
sS'CT'
p1663
I0
ssg53
(dp1664
g1660
I0
sg1661
I0
sg1662
I0
sg1663
I0
ssg55
I14
sg56
g33
sg57
I0
sg59
I0
sg60
I0
sg61
I0
sg62
g1553
sg64
I00
sg65
g1655
sg66
(dp1665
g1660
I0
sg1661
I0
sg1662
I0
sg1663
I0
ssg129
(dp1666
g1660
I0
sg1661
I0
sg1662
I0
sg1663
I0
ssg69
(dp1667
g1660
I0
sg1661
I0
sg1662
I0
sg1663
I0
ssg71
(dp1668
g1660
I0
sg1661
I0
sg1662
I0
sg1663
I0
ssg73
I0
sg74
I0
sg75
S'Frathyor'
p1669
sg77
I7
sg78
I0
sg68
I00
sg80
I120
sg111
(S'dummy'
p1670
S'DO'
p1671
S'AR'
p1672
g33
tp1673
sg83
g33
sg84
(dp1674
S'RP1'
p1675
I9
sS'ME'
p1676
I7
sS'RP2'
p1677
I7
sS'E'
p1678
I10
sS'P'
p1679
I8
sS'JP'
p1680
I11
sS'M'
p1681
I8
sS'RP_tot'
p1682
I9
sS'TO'
p1683
I7
sS'PA'
p1684
I11
sS'A'
p1685
I11
sS'R'
p1686
I10
sS'TB'
p1687
I7
sS'PL'
p1688
I10
sS'TA'
p1689
I7
ssg101
(dp1690
S's12'
p1691
(ijoueur
joueur
p1692
(dp1693
g28
I0
sg29
I0
sg30
I0
sg34
I0
sg37
g0
(g38
g2
Ntp1694
Rp1695
(dp1696
g43
g33
sbsg47
(dp1697
g1660
I0
sg1661
I0
sg1662
I0
sg1663
I0
ssg53
(dp1698
g1660
I0
sg1661
I0
sg1662
I0
sg1663
I0
ssg55
I0
sg56
g33
sg57
I0
sg59
I0
sg60
I0
sg61
I0
sg111
(g1670
g1671
g33
g33
tp1699
sg64
I00
sg65
g0
(g38
g2
Ntp1700
Rp1701
(dp1702
g43
g33
sbsg66
(dp1703
g1660
I0
sg1661
I0
sg1662
I0
sg1663
I0
ssg129
(dp1704
g1660
I0
sg1661
I0
sg1662
I0
sg1663
I0
ssg69
(dp1705
g1660
I0
sg1661
I0
sg1662
I0
sg1663
I0
ssg71
(dp1706
g1660
I0
sg1661
I0
sg1662
I0
sg1663
I0
ssg73
I0
sg74
I0
sg75
S'Frathyor (12)'
p1707
sg77
I0
sg78
I0
sg68
I00
sg80
I0
sg62
g33
sg84
(dp1708
g1685
I0
sg1676
I0
sg1677
I0
sg1678
I0
sg1683
I0
sg1675
I0
sg1680
I0
sg1682
I0
sg1679
I0
sg1684
I0
sg1681
I0
sg1686
I0
sg1687
I0
sg1688
I0
sg1689
I0
ssg101
(dp1709
sg122
I0
sg123
g33
sg124
I0
sg126
I0
sg127
F0.0
sg128
I0
sg125
I0
sg131
I0
sg132
(dp1710
g1675
I9
sg1676
I7
sg1677
I7
sg1678
I10
sg1683
I7
sg1681
I8
sg1680
I11
sg1682
I9
sg1679
I8
sg1684
I11
sg1685
I11
sg1686
I10
sg1687
I7
sg1688
I10
sg1689
I7
ssg133
I0
sg134
I0
sg135
I0
sg136
I0
sg137
I0
sg138
I0
sg139
I0
sg140
g33
sbsS's11'
p1711
(ijoueur
joueur
p1712
(dp1713
g28
I0
sg29
I0
sg30
I0
sg34
I0
sg37
g0
(g38
g2
Ntp1714
Rp1715
(dp1716
g43
g33
sbsg47
(dp1717
g1660
I0
sg1661
I0
sg1662
I0
sg1663
I0
ssg53
(dp1718
g1660
I0
sg1661
I0
sg1662
I0
sg1663
I0
ssg55
I0
sg56
g33
sg57
I0
sg59
I0
sg60
I0
sg61
I0
sg111
g1699
sg64
I00
sg65
g0
(g38
g2
Ntp1719
Rp1720
(dp1721
g43
g33
sbsg66
(dp1722
g1660
I0
sg1661
I0
sg1662
I0
sg1663
I0
ssg129
(dp1723
g1660
I0
sg1661
I0
sg1662
I0
sg1663
I0
ssg69
(dp1724
g1660
I0
sg1661
I0
sg1662
I0
sg1663
I0
ssg71
(dp1725
g1660
I0
sg1661
I0
sg1662
I0
sg1663
I0
ssg73
I0
sg74
I0
sg75
S'Frathyor (11)'
p1726
sg77
I0
sg78
I0
sg68
I00
sg80
I0
sg62
g33
sg84
(dp1727
g1685
I0
sg1676
I0
sg1677
I0
sg1678
I0
sg1683
I0
sg1675
I0
sg1680
I0
sg1682
I0
sg1679
I0
sg1684
I0
sg1681
I0
sg1686
I0
sg1687
I0
sg1688
I0
sg1689
I0
ssg101
(dp1728
sg122
I0
sg123
g33
sg124
I0
sg126
I0
sg127
F0.0
sg128
I0
sg125
I0
sg131
I0
sg132
g1710
sg133
I0
sg134
I0
sg135
I0
sg136
I0
sg137
I0
sg138
I0
sg139
I0
sg140
g33
sbssg122
I0
sg123
g33
sg124
I0
sg126
I0
sg127
F9.818181818181818
sg128
I0
sg125
I0
sg131
I0
sg132
g1710
sg133
I0
sg134
I0
sg135
I0
sg136
I0
sg137
I12
sg138
I0
sg139
I0
sg140
S'CHS'
p1729
sbsS'B1'
p1730
g1589
sS'B2'
p1731
g1589
sS'B3'
p1732
g1589
sS'SA_pcp2'
p1733
(ijoueur
joueur
p1734
(dp1735
g28
I0
sg29
I0
sg30
I0
sg32
g33
sg34
I0
sg35
g33
sg37
g0
(g38
g2
Ntp1736
Rp1737
(dp1738
g42
I5
sg43
g1594
sg45
g1595
sbsg47
(dp1739
g1548
I0
sg1549
I0
sg1550
I0
sg1551
I0
ssg53
(dp1740
g1548
I0
sg1549
I0
sg1550
I0
sg1551
I0
ssg56
g33
sg57
I0
sg59
I0
sg60
I0
sg61
I0
sg62
g1553
sg64
I00
sg65
g1737
sg66
(dp1741
g1548
I0
sg1549
I0
sg1550
I0
sg1551
I0
ssg68
I00
sg69
(dp1742
g1548
I0
sg1549
I0
sg1550
I0
sg1551
I0
ssg71
(dp1743
g1548
I0
sg1549
I0
sg1550
I0
sg1551
I0
ssg73
I0
sg74
I0
sg75
S'Le Kentalor'
p1744
sg77
I10
sg78
I0
sg55
I20
sg80
I132
sg111
(g1563
S'N8'
p1745
g33
g33
tp1746
sg83
g33
sg84
(dp1747
g1569
I11
sg1570
I8
sg1571
I9
sg1572
I11
sg1573
I11
sg1574
I8
sg1575
I3
sg1576
I12
sg1577
I6
sg1578
I9
sg1579
I11
sg1580
I8
sg1581
I4
sg1582
I11
sg1583
I4
ssg101
(dp1748
S's12'
p1749
(ijoueur
joueur
p1750
(dp1751
g28
I0
sg29
I0
sg30
I0
sg34
I0
sg37
g0
(g38
g2
Ntp1752
Rp1753
(dp1754
g43
g33
sbsg47
(dp1755
g1548
I0
sg1549
I0
sg1550
I0
sg1551
I0
ssg53
(dp1756
g1548
I0
sg1549
I0
sg1550
I0
sg1551
I0
ssg56
g33
sg57
I0
sg59
I0
sg60
I0
sg61
I0
sg111
(g1563
g1745
g33
g33
tp1757
sg64
I00
sg65
g0
(g38
g2
Ntp1758
Rp1759
(dp1760
g43
g33
sbsg66
(dp1761
g1548
I0
sg1549
I0
sg1550
I0
sg1551
I0
ssg68
I00
sg69
(dp1762
g1548
I0
sg1549
I0
sg1550
I0
sg1551
I0
ssg71
(dp1763
g1548
I0
sg1549
I0
sg1550
I0
sg1551
I0
ssg73
I0
sg74
I0
sg75
S'Le Kentalor (12)'
p1764
sg77
I0
sg78
I0
sg55
I0
sg80
I0
sg62
g33
sg84
(dp1765
g1579
I0
sg1570
I0
sg1571
I0
sg1572
I0
sg1577
I0
sg1569
I0
sg1575
I0
sg1576
I0
sg1573
I0
sg1578
I0
sg1574
I0
sg1580
I0
sg1581
I0
sg1582
I0
sg1583
I0
ssg101
(dp1766
sg122
I0
sg123
g33
sg124
I0
sg125
I0
sg126
I0
sg127
F0.0
sg128
I0
sg129
(dp1767
g1548
I0
sg1549
I0
sg1550
I0
sg1551
I0
ssg131
I0
sg132
(dp1768
g1569
I11
sg1570
I8
sg1571
I9
sg1572
I11
sg1577
I6
sg1575
I3
sg1574
I8
sg1576
I12
sg1573
I11
sg1578
I9
sg1579
I11
sg1580
I8
sg1581
I4
sg1582
I11
sg1583
I4
ssg133
I0
sg134
I0
sg135
I0
sg136
I0
sg137
I0
sg138
I0
sg139
I0
sg140
g33
sbsS's11'
p1769
(ijoueur
joueur
p1770
(dp1771
g28
I0
sg29
I0
sg30
I0
sg34
I0
sg37
g0
(g38
g2
Ntp1772
Rp1773
(dp1774
g43
g33
sbsg47
(dp1775
g1548
I0
sg1549
I0
sg1550
I0
sg1551
I0
ssg53
(dp1776
g1548
I0
sg1549
I0
sg1550
I0
sg1551
I0
ssg56
g33
sg57
I0
sg59
I0
sg60
I0
sg61
I0
sg111
g1757
sg64
I00
sg65
g0
(g38
g2
Ntp1777
Rp1778
(dp1779
g43
g33
sbsg66
(dp1780
g1548
I0
sg1549
I0
sg1550
I0
sg1551
I0
ssg68
I00
sg69
(dp1781
g1548
I0
sg1549
I0
sg1550
I0
sg1551
I0
ssg71
(dp1782
g1548
I0
sg1549
I0
sg1550
I0
sg1551
I0
ssg73
I0
sg74
I0
sg75
S'Le Kentalor (11)'
p1783
sg77
I0
sg78
I0
sg55
I0
sg80
I0
sg62
g33
sg84
(dp1784
g1579
I0
sg1570
I0
sg1571
I0
sg1572
I0
sg1577
I0
sg1569
I0
sg1575
I0
sg1576
I0
sg1573
I0
sg1578
I0
sg1574
I0
sg1580
I0
sg1581
I0
sg1582
I0
sg1583
I0
ssg101
(dp1785
sg122
I0
sg123
g33
sg124
I0
sg125
I0
sg126
I0
sg127
F0.0
sg128
I0
sg129
(dp1786
g1548
I0
sg1549
I0
sg1550
I0
sg1551
I0
ssg131
I0
sg132
g1768
sg133
I0
sg134
I0
sg135
I0
sg136
I0
sg137
I0
sg138
I0
sg139
I0
sg140
g33
sbssg122
I0
sg123
g33
sg124
I0
sg125
I0
sg126
I0
sg127
F10.166666666666666
sg128
I0
sg129
(dp1787
g1548
I0
sg1549
I0
sg1550
I0
sg1551
I0
ssg131
I0
sg132
g1768
sg133
I0
sg134
I0
sg135
I0
sg136
I0
sg137
I13
sg138
I0
sg139
I0
sg140
S'B'
p1788
sbsS'SA_pcp1'
p1789
(ijoueur
joueur
p1790
(dp1791
g28
I0
sg29
I0
sg30
I0
sg32
g33
sg34
I0
sg35
g33
sg37
g0
(g38
g2
Ntp1792
Rp1793
(dp1794
g42
I4
sg43
g1545
sg45
g1546
sbsg47
(dp1795
g1548
I0
sg1549
I0
sg1550
I0
sg1551
I0
ssg53
(dp1796
g1548
I0
sg1549
I0
sg1550
I0
sg1551
I0
ssg56
g33
sg57
I0
sg59
I0
sg60
I0
sg61
I0
sg62
g1553
sg64
I00
sg65
g1793
sg66
(dp1797
g1548
I0
sg1549
I0
sg1550
I0
sg1551
I0
ssg68
I00
sg69
(dp1798
g1548
I0
sg1549
I0
sg1550
I0
sg1551
I0
ssg71
(dp1799
g1548
I0
sg1549
I0
sg1550
I0
sg1551
I0
ssg73
I0
sg74
I0
sg75
S'Yzgaor'
p1800
sg77
I7
sg78
I0
sg55
I21
sg80
I229
sg111
(g1563
g1564
g33
g33
tp1801
sg83
g33
sg84
(dp1802
g1569
I10
sg1570
I9
sg1571
I7
sg1572
I9
sg1573
I11
sg1574
I8
sg1575
I4
sg1576
I10
sg1577
I5
sg1578
I9
sg1579
I12
sg1580
I8
sg1581
I4
sg1582
I13
sg1583
I5
ssg101
(dp1803
S's12'
p1804
(ijoueur
joueur
p1805
(dp1806
g28
I0
sg29
I0
sg30
I0
sg34
I0
sg37
g0
(g38
g2
Ntp1807
Rp1808
(dp1809
g43
g33
sbsg47
(dp1810
g1548
I0
sg1549
I0
sg1550
I0
sg1551
I0
ssg53
(dp1811
g1548
I0
sg1549
I0
sg1550
I0
sg1551
I0
ssg56
g33
sg57
I0
sg59
I0
sg60
I0
sg61
I0
sg111
(g1563
g1564
g33
g33
tp1812
sg64
I00
sg65
g0
(g38
g2
Ntp1813
Rp1814
(dp1815
g43
g33
sbsg66
(dp1816
g1548
I0
sg1549
I0
sg1550
I0
sg1551
I0
ssg68
I00
sg69
(dp1817
g1548
I0
sg1549
I0
sg1550
I0
sg1551
I0
ssg71
(dp1818
g1548
I0
sg1549
I0
sg1550
I0
sg1551
I0
ssg73
I0
sg74
I0
sg75
S'Yzgaor (12)'
p1819
sg77
I0
sg78
I0
sg55
I0
sg80
I0
sg62
g33
sg84
(dp1820
g1579
I0
sg1570
I0
sg1571
I0
sg1572
I0
sg1577
I0
sg1569
I0
sg1575
I0
sg1576
I0
sg1573
I0
sg1578
I0
sg1574
I0
sg1580
I0
sg1581
I0
sg1582
I0
sg1583
I0
ssg101
(dp1821
sg122
I0
sg123
g33
sg124
I0
sg125
I0
sg126
I0
sg127
F0.0
sg128
I0
sg129
(dp1822
g1548
I0
sg1549
I0
sg1550
I0
sg1551
I0
ssg131
I0
sg132
(dp1823
g1569
I10
sg1570
I9
sg1571
I7
sg1572
I9
sg1577
I5
sg1575
I4
sg1574
I8
sg1576
I10
sg1573
I11
sg1578
I9
sg1579
I12
sg1580
I8
sg1581
I4
sg1582
I13
sg1583
I5
ssg133
I0
sg134
I0
sg135
I0
sg136
I0
sg137
I0
sg138
I0
sg139
I0
sg140
g33
sbsS's11'
p1824
(ijoueur
joueur
p1825
(dp1826
g28
I0
sg29
I0
sg30
I0
sg34
I0
sg37
g0
(g38
g2
Ntp1827
Rp1828
(dp1829
g43
g33
sbsg47
(dp1830
g1548
I0
sg1549
I0
sg1550
I0
sg1551
I0
ssg53
(dp1831
g1548
I0
sg1549
I0
sg1550
I0
sg1551
I0
ssg56
g33
sg57
I0
sg59
I0
sg60
I0
sg61
I0
sg111
g1812
sg64
I00
sg65
g0
(g38
g2
Ntp1832
Rp1833
(dp1834
g43
g33
sbsg66
(dp1835
g1548
I0
sg1549
I0
sg1550
I0
sg1551
I0
ssg68
I00
sg69
(dp1836
g1548
I0
sg1549
I0
sg1550
I0
sg1551
I0
ssg71
(dp1837
g1548
I0
sg1549
I0
sg1550
I0
sg1551
I0
ssg73
I0
sg74
I0
sg75
S'Yzgaor (11)'
p1838
sg77
I0
sg78
I0
sg55
I0
sg80
I0
sg62
g33
sg84
(dp1839
g1579
I0
sg1570
I0
sg1571
I0
sg1572
I0
sg1577
I0
sg1569
I0
sg1575
I0
sg1576
I0
sg1573
I0
sg1578
I0
sg1574
I0
sg1580
I0
sg1581
I0
sg1582
I0
sg1583
I0
ssg101
(dp1840
sg122
I0
sg123
g33
sg124
I0
sg125
I0
sg126
I0
sg127
F0.0
sg128
I0
sg129
(dp1841
g1548
I0
sg1549
I0
sg1550
I0
sg1551
I0
ssg131
I0
sg132
g1823
sg133
I0
sg134
I0
sg135
I0
sg136
I0
sg137
I0
sg138
I0
sg139
I0
sg140
g33
sbssg122
I0
sg123
g33
sg124
I0
sg125
I0
sg126
I0
sg127
F10.052631578947368
sg128
I0
sg129
(dp1842
g1548
I0
sg1549
I0
sg1550
I0
sg1551
I0
ssg131
I0
sg132
g1823
sg133
I0
sg134
I0
sg135
I0
sg136
I0
sg137
I23
sg138
I0
sg139
I0
sg140
g1587
sbsS'RJL'
p1843
g1589
sS'SA_remp1'
p1844
(ijoueur
joueur
p1845
(dp1846
g28
I0
sg29
I0
sg30
I0
sg32
g33
sg34
I0
sg35
g33
sg37
g0
(g38
g2
Ntp1847
Rp1848
(dp1849
g42
I4
sg43
S'x'
p1850
sg45
g1658
sbsg47
(dp1851
g1660
I0
sg1661
I0
sg1662
I0
sg1663
I0
ssg53
(dp1852
g1660
I0
sg1661
I0
sg1662
I0
sg1663
I0
ssg55
I22
sg56
g33
sg57
I0
sg59
I0
sg60
I0
sg61
I0
sg62
g1553
sg64
I00
sg65
g1848
sg66
(dp1853
g1660
I0
sg1661
I0
sg1662
I0
sg1663
I0
ssg129
(dp1854
g1660
I0
sg1661
I0
sg1662
I0
sg1663
I0
ssg69
(dp1855
g1660
I0
sg1661
I0
sg1662
I0
sg1663
I0
ssg71
(dp1856
g1660
I0
sg1661
I0
sg1662
I0
sg1663
I0
ssg73
I0
sg74
I0
sg75
S'Zlomo'
p1857
sg77
I8
sg78
I0
sg68
I00
sg80
I152
sg111
(g1670
S'DL'
p1858
g33
g33
tp1859
sg83
g33
sg84
(dp1860
g1675
I10
sg1676
I10
sg1677
I7
sg1678
I9
sg1679
I5
sg1680
I3
sg1681
I7
sg1682
I10
sg1683
I11
sg1684
I8
sg1685
I8
sg1686
I8
sg1687
I6
sg1688
I11
sg1689
I6
ssg101
(dp1861
S's12'
p1862
(ijoueur
joueur
p1863
(dp1864
g28
I0
sg29
I0
sg30
I0
sg34
I0
sg37
g0
(g38
g2
Ntp1865
Rp1866
(dp1867
g43
g33
sbsg47
(dp1868
g1660
I0
sg1661
I0
sg1662
I0
sg1663
I0
ssg53
(dp1869
g1660
I0
sg1661
I0
sg1662
I0
sg1663
I0
ssg55
I0
sg56
g33
sg57
I0
sg59
I0
sg60
I0
sg61
I0
sg111
(g1670
g1858
g33
g33
tp1870
sg64
I00
sg65
g0
(g38
g2
Ntp1871
Rp1872
(dp1873
g43
g33
sbsg66
(dp1874
g1660
I0
sg1661
I0
sg1662
I0
sg1663
I0
ssg129
(dp1875
g1660
I0
sg1661
I0
sg1662
I0
sg1663
I0
ssg69
(dp1876
g1660
I0
sg1661
I0
sg1662
I0
sg1663
I0
ssg71
(dp1877
g1660
I0
sg1661
I0
sg1662
I0
sg1663
I0
ssg73
I0
sg74
I0
sg75
S'Zlomo (12)'
p1878
sg77
I0
sg78
I0
sg68
I00
sg80
I0
sg62
g33
sg84
(dp1879
g1685
I0
sg1676
I0
sg1677
I0
sg1678
I0
sg1683
I0
sg1675
I0
sg1680
I0
sg1682
I0
sg1679
I0
sg1684
I0
sg1681
I0
sg1686
I0
sg1687
I0
sg1688
I0
sg1689
I0
ssg101
(dp1880
sg122
I0
sg123
g33
sg124
I0
sg126
I0
sg127
F0.0
sg128
I0
sg125
I0
sg131
I0
sg132
(dp1881
g1675
I10
sg1676
I10
sg1677
I7
sg1678
I9
sg1683
I11
sg1681
I7
sg1680
I3
sg1682
I10
sg1679
I5
sg1684
I8
sg1685
I8
sg1686
I8
sg1687
I6
sg1688
I11
sg1689
I6
ssg133
I0
sg134
I0
sg135
I0
sg136
I0
sg137
I0
sg138
I0
sg139
I0
sg140
g33
sbsS's11'
p1882
(ijoueur
joueur
p1883
(dp1884
g28
I0
sg29
I0
sg30
I0
sg34
I0
sg37
g0
(g38
g2
Ntp1885
Rp1886
(dp1887
g43
g33
sbsg47
(dp1888
g1660
I0
sg1661
I0
sg1662
I0
sg1663
I0
ssg53
(dp1889
g1660
I0
sg1661
I0
sg1662
I0
sg1663
I0
ssg55
I0
sg56
g33
sg57
I0
sg59
I0
sg60
I0
sg61
I0
sg111
g1870
sg64
I00
sg65
g0
(g38
g2
Ntp1890
Rp1891
(dp1892
g43
g33
sbsg66
(dp1893
g1660
I0
sg1661
I0
sg1662
I0
sg1663
I0
ssg129
(dp1894
g1660
I0
sg1661
I0
sg1662
I0
sg1663
I0
ssg69
(dp1895
g1660
I0
sg1661
I0
sg1662
I0
sg1663
I0
ssg71
(dp1896
g1660
I0
sg1661
I0
sg1662
I0
sg1663
I0
ssg73
I0
sg74
I0
sg75
S'Zlomo (11)'
p1897
sg77
I0
sg78
I0
sg68
I00
sg80
I0
sg62
g33
sg84
(dp1898
g1685
I0
sg1676
I0
sg1677
I0
sg1678
I0
sg1683
I0
sg1675
I0
sg1680
I0
sg1682
I0
sg1679
I0
sg1684
I0
sg1681
I0
sg1686
I0
sg1687
I0
sg1688
I0
sg1689
I0
ssg101
(dp1899
sg122
I0
sg123
g33
sg124
I0
sg126
I0
sg127
F0.0
sg128
I0
sg125
I0
sg131
I0
sg132
g1881
sg133
I0
sg134
I0
sg135
I0
sg136
I0
sg137
I0
sg138
I0
sg139
I0
sg140
g33
sbssg122
I0
sg123
g33
sg124
I0
sg126
I0
sg127
F9.529411764705882
sg128
I0
sg125
I0
sg131
I0
sg132
g1881
sg133
I0
sg134
I0
sg135
I0
sg136
I0
sg137
I15
sg138
I0
sg139
I0
sg140
S'O'
p1900
sbsS'drop1'
p1901
g1589
sS'drop2'
p1902
g1589
sS'SA_remp2'
p1903
(ijoueur
joueur
p1904
(dp1905
g28
I0
sg29
I0
sg30
I0
sg32
g33
sg34
I0
sg35
g33
sg37
g0
(g38
g2
Ntp1906
Rp1907
(dp1908
g42
I2
sg43
S'<<'
p1909
sg45
g1558
sbsg47
(dp1910
g1548
I0
sg1549
I0
sg1550
I0
sg1551
I0
ssg53
(dp1911
g1548
I0
sg1549
I0
sg1550
I0
sg1551
I0
ssg56
g33
sg57
I0
sg59
I0
sg60
I0
sg61
I0
sg62
g1553
sg64
I00
sg65
g1907
sg66
(dp1912
g1548
I0
sg1549
I0
sg1550
I0
sg1551
I0
ssg68
I00
sg69
(dp1913
g1548
I0
sg1549
I0
sg1550
I0
sg1551
I0
ssg71
(dp1914
g1548
I0
sg1549
I0
sg1550
I0
sg1551
I0
ssg73
I0
sg74
I0
sg75
S'Gymyael'
p1915
sg77
I13
sg78
I0
sg55
I23
sg80
I46
sg111
(g1563
S'PI'
p1916
g33
g33
tp1917
sg83
g33
sg84
(dp1918
g1569
I8
sg1570
I9
sg1571
I6
sg1572
I11
sg1573
I11
sg1574
I7
sg1575
I2
sg1576
I8
sg1577
I3
sg1578
I8
sg1579
I11
sg1580
I9
sg1581
I2
sg1582
I11
sg1583
I7
ssg101
(dp1919
sg122
I0
sg123
g33
sg124
I0
sg125
I0
sg126
I0
sg127
F9.794117647058824
sg128
I0
sg129
(dp1920
g1548
I0
sg1549
I0
sg1550
I0
sg1551
I0
ssg131
I0
sg132
(dp1921
g1569
I8
sg1570
I9
sg1571
I6
sg1572
I11
sg1577
I3
sg1575
I2
sg1574
I7
sg1576
I8
sg1573
I11
sg1578
I8
sg1579
I11
sg1580
I9
sg1581
I2
sg1582
I11
sg1583
I7
ssg133
I0
sg134
I0
sg135
I0
sg136
I0
sg137
I4
sg138
I0
sg139
I0
sg140
g1587
sbssg75
S'AES_defaut'
p1922
sS'totaux'
p1923
(dp1924
g1534
I0
sg1535
I0
sg1536
I0
ssg10
Nsg84
(dp1925
g1519
I0
sg1520
I0
sg1521
I0
sg1522
I0
sg1523
I0
sg1524
I0
sg1525
I0
sg1526
I0
sg1527
I0
sg1528
I0
sg1529
I0
sg1530
I0
sg1531
I0
ssg22
(dp1926
S'n12'
p1927
g1589
sS'n13'
p1928
(ijoueur
joueur
p1929
(dp1930
g28
I0
sg29
I0
sg30
I0
sg32
g33
sg34
I0
sg35
g33
sg37
g0
(g38
g2
Ntp1931
Rp1932
(dp1933
g42
I5
sg43
g1594
sg45
g1595
sbsg47
(dp1934
g1548
I0
sg1549
I0
sg1550
I0
sg1551
I0
ssg53
(dp1935
g1548
I0
sg1549
I0
sg1550
I0
sg1551
I0
ssg56
g33
sg57
I0
sg59
I0
sg60
I0
sg61
I0
sg62
g1553
sg64
I00
sg65
g1932
sg66
(dp1936
g1548
I0
sg1549
I0
sg1550
I0
sg1551
I0
ssg68
I00
sg69
(dp1937
g1548
I0
sg1549
I0
sg1550
I0
sg1551
I0
ssg71
(dp1938
g1548
I0
sg1549
I0
sg1550
I0
sg1551
I0
ssg73
I0
sg74
I0
sg75
S'Wilmendroth'
p1939
sg77
I8
sg78
I0
sg55
I17
sg80
I294
sg111
(g1563
S'C2'
p1940
g33
g33
tp1941
sg83
g33
sg84
(dp1942
g1569
I12
sg1570
I7
sg1571
I8
sg1572
I10
sg1573
I11
sg1574
I8
sg1575
I7
sg1576
I13
sg1577
I8
sg1578
I12
sg1579
I12
sg1580
I12
sg1581
I7
sg1582
I13
sg1583
I5
ssg101
(dp1943
S's12'
p1944
(ijoueur
joueur
p1945
(dp1946
g28
I0
sg29
I0
sg30
I0
sg34
I0
sg37
g0
(g38
g2
Ntp1947
Rp1948
(dp1949
g43
g33
sbsg47
(dp1950
g1548
I0
sg1549
I0
sg1550
I0
sg1551
I0
ssg53
(dp1951
g1548
I0
sg1549
I0
sg1550
I0
sg1551
I0
ssg56
g33
sg57
I0
sg59
I0
sg60
I0
sg61
I0
sg111
(g1563
g1616
g33
g33
tp1952
sg64
I00
sg65
g0
(g38
g2
Ntp1953
Rp1954
(dp1955
g43
g33
sbsg66
(dp1956
g1548
I0
sg1549
I0
sg1550
I0
sg1551
I0
ssg68
I00
sg69
(dp1957
g1548
I0
sg1549
I0
sg1550
I0
sg1551
I0
ssg71
(dp1958
g1548
I0
sg1549
I0
sg1550
I0
sg1551
I0
ssg73
I0
sg74
I0
sg75
S'Wilmendroth (12)'
p1959
sg77
I0
sg78
I0
sg55
I0
sg80
I0
sg62
g33
sg84
(dp1960
g1579
I0
sg1570
I0
sg1571
I0
sg1572
I0
sg1577
I0
sg1569
I0
sg1575
I0
sg1576
I0
sg1573
I0
sg1578
I0
sg1574
I0
sg1580
I0
sg1581
I0
sg1582
I0
sg1583
I0
ssg101
(dp1961
sg122
I0
sg123
g33
sg124
I0
sg125
I0
sg126
I0
sg127
F0.0
sg128
I0
sg129
(dp1962
g1548
I0
sg1549
I0
sg1550
I0
sg1551
I0
ssg131
I0
sg132
(dp1963
g1569
I12
sg1570
I7
sg1571
I8
sg1572
I10
sg1577
I8
sg1575
I7
sg1574
I8
sg1576
I13
sg1573
I11
sg1578
I12
sg1579
I12
sg1580
I12
sg1581
I7
sg1582
I13
sg1583
I5
ssg133
I0
sg134
I0
sg135
I0
sg136
I0
sg137
I0
sg138
I0
sg139
I0
sg140
g33
sbsS's11'
p1964
(ijoueur
joueur
p1965
(dp1966
g28
I0
sg29
I0
sg30
I0
sg34
I0
sg37
g0
(g38
g2
Ntp1967
Rp1968
(dp1969
g43
g33
sbsg47
(dp1970
g1548
I0
sg1549
I0
sg1550
I0
sg1551
I0
ssg53
(dp1971
g1548
I0
sg1549
I0
sg1550
I0
sg1551
I0
ssg56
g33
sg57
I0
sg59
I0
sg60
I0
sg61
I0
sg111
g1952
sg64
I00
sg65
g0
(g38
g2
Ntp1972
Rp1973
(dp1974
g43
g33
sbsg66
(dp1975
g1548
I0
sg1549
I0
sg1550
I0
sg1551
I0
ssg68
I00
sg69
(dp1976
g1548
I0
sg1549
I0
sg1550
I0
sg1551
I0
ssg71
(dp1977
g1548
I0
sg1549
I0
sg1550
I0
sg1551
I0
ssg73
I0
sg74
I0
sg75
S'Wilmendroth (11)'
p1978
sg77
I0
sg78
I0
sg55
I0
sg80
I0
sg62
g33
sg84
(dp1979
g1579
I0
sg1570
I0
sg1571
I0
sg1572
I0
sg1577
I0
sg1569
I0
sg1575
I0
sg1576
I0
sg1573
I0
sg1578
I0
sg1574
I0
sg1580
I0
sg1581
I0
sg1582
I0
sg1583
I0
ssg101
(dp1980
sg122
I0
sg123
g33
sg124
I0
sg125
I0
sg126
I0
sg127
F0.0
sg128
I0
sg129
(dp1981
g1548
I0
sg1549
I0
sg1550
I0
sg1551
I0
ssg131
I0
sg132
g1963
sg133
I0
sg134
I0
sg135
I0
sg136
I0
sg137
I0
sg138
I0
sg139
I0
sg140
g33
sbssg122
I0
sg123
g33
sg124
I0
sg125
I0
sg126
I0
sg127
F11.344827586206897
sg128
I0
sg129
(dp1982
g1548
I0
sg1549
I0
sg1550
I0
sg1551
I0
ssg131
I0
sg132
g1963
sg133
I0
sg134
I0
sg135
I0
sg136
I0
sg137
I29
sg138
I0
sg139
I0
sg140
g1587
sbsS'n10'
p1983
g1652
sS'n11'
p1984
(ijoueur
joueur
p1985
(dp1986
g28
I0
sg29
I0
sg30
I0
sg32
g33
sg34
I0
sg35
g33
sg37
g0
(g38
g2
Ntp1987
Rp1988
(dp1989
g42
I4
sg43
g1850
sg45
g1658
sbsg47
(dp1990
g1660
I0
sg1661
I0
sg1662
I0
sg1663
I0
ssg53
(dp1991
g1660
I0
sg1661
I0
sg1662
I0
sg1663
I0
ssg55
I19
sg56
g33
sg57
I0
sg59
I0
sg60
I0
sg61
I0
sg62
g1553
sg64
I00
sg65
g1988
sg66
(dp1992
g1660
I0
sg1661
I0
sg1662
I0
sg1663
I0
ssg129
(dp1993
g1660
I0
sg1661
I0
sg1662
I0
sg1663
I0
ssg69
(dp1994
g1660
I0
sg1661
I0
sg1662
I0
sg1663
I0
ssg71
(dp1995
g1660
I0
sg1661
I0
sg1662
I0
sg1663
I0
ssg73
I0
sg74
I0
sg75
S'Vlathaer'
p1996
sg77
I9
sg78
I0
sg68
I00
sg80
I190
sg111
(g1670
S'AI'
p1997
S'CE'
p1998
g33
tp1999
sg83
g33
sg84
(dp2000
g1675
I13
sg1676
I6
sg1677
I8
sg1678
I9
sg1679
I7
sg1680
I6
sg1681
I8
sg1682
I14
sg1683
I9
sg1684
I10
sg1685
I11
sg1686
I7
sg1687
I6
sg1688
I10
sg1689
I6
ssg101
(dp2001
S's12'
p2002
(ijoueur
joueur
p2003
(dp2004
g28
I0
sg29
I0
sg30
I0
sg34
I0
sg37
g0
(g38
g2
Ntp2005
Rp2006
(dp2007
g43
g33
sbsg47
(dp2008
g1660
I0
sg1661
I0
sg1662
I0
sg1663
I0
ssg53
(dp2009
g1660
I0
sg1661
I0
sg1662
I0
sg1663
I0
ssg55
I0
sg56
g33
sg57
I0
sg59
I0
sg60
I0
sg61
I0
sg111
(g1670
g1997
g33
g33
tp2010
sg64
I00
sg65
g0
(g38
g2
Ntp2011
Rp2012
(dp2013
g43
g33
sbsg66
(dp2014
g1660
I0
sg1661
I0
sg1662
I0
sg1663
I0
ssg129
(dp2015
g1660
I0
sg1661
I0
sg1662
I0
sg1663
I0
ssg69
(dp2016
g1660
I0
sg1661
I0
sg1662
I0
sg1663
I0
ssg71
(dp2017
g1660
I0
sg1661
I0
sg1662
I0
sg1663
I0
ssg73
I0
sg74
I0
sg75
S'Vlathaer (12)'
p2018
sg77
I0
sg78
I0
sg68
I00
sg80
I0
sg62
g33
sg84
(dp2019
g1685
I0
sg1676
I0
sg1677
I0
sg1678
I0
sg1683
I0
sg1675
I0
sg1680
I0
sg1682
I0
sg1679
I0
sg1684
I0
sg1681
I0
sg1686
I0
sg1687
I0
sg1688
I0
sg1689
I0
ssg101
(dp2020
sg122
I0
sg123
g33
sg124
I0
sg126
I0
sg127
F0.0
sg128
I0
sg125
I0
sg131
I0
sg132
(dp2021
g1675
I13
sg1676
I6
sg1677
I8
sg1678
I9
sg1683
I9
sg1681
I8
sg1680
I6
sg1682
I14
sg1679
I7
sg1684
I10
sg1685
I11
sg1686
I7
sg1687
I6
sg1688
I10
sg1689
I6
ssg133
I0
sg134
I0
sg135
I0
sg136
I0
sg137
I0
sg138
I0
sg139
I0
sg140
g33
sbsS's11'
p2022
(ijoueur
joueur
p2023
(dp2024
g28
I0
sg29
I0
sg30
I0
sg34
I0
sg37
g0
(g38
g2
Ntp2025
Rp2026
(dp2027
g43
g33
sbsg47
(dp2028
g1660
I0
sg1661
I0
sg1662
I0
sg1663
I0
ssg53
(dp2029
g1660
I0
sg1661
I0
sg1662
I0
sg1663
I0
ssg55
I0
sg56
g33
sg57
I0
sg59
I0
sg60
I0
sg61
I0
sg111
g2010
sg64
I00
sg65
g0
(g38
g2
Ntp2030
Rp2031
(dp2032
g43
g33
sbsg66
(dp2033
g1660
I0
sg1661
I0
sg1662
I0
sg1663
I0
ssg129
(dp2034
g1660
I0
sg1661
I0
sg1662
I0
sg1663
I0
ssg69
(dp2035
g1660
I0
sg1661
I0
sg1662
I0
sg1663
I0
ssg71
(dp2036
g1660
I0
sg1661
I0
sg1662
I0
sg1663
I0
ssg73
I0
sg74
I0
sg75
S'Vlathaer (11)'
p2037
sg77
I0
sg78
I0
sg68
I00
sg80
I0
sg62
g33
sg84
(dp2038
g1685
I0
sg1676
I0
sg1677
I0
sg1678
I0
sg1683
I0
sg1675
I0
sg1680
I0
sg1682
I0
sg1679
I0
sg1684
I0
sg1681
I0
sg1686
I0
sg1687
I0
sg1688
I0
sg1689
I0
ssg101
(dp2039
sg122
I0
sg123
g33
sg124
I0
sg126
I0
sg127
F0.0
sg128
I0
sg125
I0
sg131
I0
sg132
g2021
sg133
I0
sg134
I0
sg135
I0
sg136
I0
sg137
I0
sg138
I0
sg139
I0
sg140
g33
sbssg122
I0
sg123
g33
sg124
I0
sg126
I0
sg127
F10.193548387096774
sg128
I0
sg125
I0
sg131
I0
sg132
g2021
sg133
I0
sg134
I0
sg135
I0
sg136
I0
sg137
I19
sg138
I0
sg139
I0
sg140
g1729
sbsS'n16'
p2040
(ijoueur
joueur
p2041
(dp2042
g28
I0
sg29
I0
sg30
I0
sg32
g33
sg34
I0
sg35
g33
sg37
g0
(g38
g2
Ntp2043
Rp2044
(dp2045
g42
I2
sg43
g1909
sg45
g1558
sbsg47
(dp2046
g1548
I0
sg1549
I0
sg1550
I0
sg1551
I0
ssg53
(dp2047
g1548
I0
sg1549
I0
sg1550
I0
sg1551
I0
ssg56
g33
sg57
I0
sg59
I0
sg60
I0
sg61
I0
sg62
g1553
sg64
I00
sg65
g2044
sg66
(dp2048
g1548
I0
sg1549
I0
sg1550
I0
sg1551
I0
ssg68
I00
sg69
(dp2049
g1548
I0
sg1549
I0
sg1550
I0
sg1551
I0
ssg71
(dp2050
g1548
I0
sg1549
I0
sg1550
I0
sg1551
I0
ssg73
I0
sg74
I0
sg75
S'Vaceer'
p2051
sg77
I5
sg78
I0
sg55
I16
sg80
I34
sg111
(g1563
g1583
S'PI'
p2052
g33
tp2053
sg83
g33
sg84
(dp2054
g1569
I8
sg1570
I10
sg1571
I6
sg1572
I8
sg1573
I8
sg1574
I8
sg1575
I3
sg1576
I8
sg1577
I4
sg1578
I8
sg1579
I9
sg1580
I10
sg1581
I4
sg1582
I11
sg1583
I9
ssg101
(dp2055
S's12'
p2056
(ijoueur
joueur
p2057
(dp2058
g28
I0
sg29
I0
sg30
I0
sg34
I0
sg37
g0
(g38
g2
Ntp2059
Rp2060
(dp2061
g43
g33
sbsg47
(dp2062
g1548
I0
sg1549
I0
sg1550
I0
sg1551
I0
ssg53
(dp2063
g1548
I0
sg1549
I0
sg1550
I0
sg1551
I0
ssg56
g33
sg57
I0
sg59
I0
sg60
I0
sg61
I0
sg111
(g1563
g1583
g33
g33
tp2064
sg64
I00
sg65
g0
(g38
g2
Ntp2065
Rp2066
(dp2067
g43
g33
sbsg66
(dp2068
g1548
I0
sg1549
I0
sg1550
I0
sg1551
I0
ssg68
I00
sg69
(dp2069
g1548
I0
sg1549
I0
sg1550
I0
sg1551
I0
ssg71
(dp2070
g1548
I0
sg1549
I0
sg1550
I0
sg1551
I0
ssg73
I0
sg74
I0
sg75
S'Vaceer (12)'
p2071
sg77
I0
sg78
I0
sg55
I0
sg80
I0
sg62
g33
sg84
(dp2072
g1579
I0
sg1570
I0
sg1571
I0
sg1572
I0
sg1577
I0
sg1569
I0
sg1575
I0
sg1576
I0
sg1573
I0
sg1578
I0
sg1574
I0
sg1580
I0
sg1581
I0
sg1582
I0
sg1583
I0
ssg101
(dp2073
sg122
I0
sg123
g33
sg124
I0
sg125
I0
sg126
I0
sg127
F0.0
sg128
I0
sg129
(dp2074
g1548
I0
sg1549
I0
sg1550
I0
sg1551
I0
ssg131
I0
sg132
(dp2075
g1569
I8
sg1570
I10
sg1571
I6
sg1572
I8
sg1577
I4
sg1575
I3
sg1574
I8
sg1576
I8
sg1573
I8
sg1578
I8
sg1579
I9
sg1580
I10
sg1581
I4
sg1582
I11
sg1583
I9
ssg133
I0
sg134
I0
sg135
I0
sg136
I0
sg137
I0
sg138
I0
sg139
I0
sg140
g33
sbsS's11'
p2076
(ijoueur
joueur
p2077
(dp2078
g28
I0
sg29
I0
sg30
I0
sg34
I0
sg37
g0
(g38
g2
Ntp2079
Rp2080
(dp2081
g43
g33
sbsg47
(dp2082
g1548
I0
sg1549
I0
sg1550
I0
sg1551
I0
ssg53
(dp2083
g1548
I0
sg1549
I0
sg1550
I0
sg1551
I0
ssg56
g33
sg57
I0
sg59
I0
sg60
I0
sg61
I0
sg111
g2064
sg64
I00
sg65
g0
(g38
g2
Ntp2084
Rp2085
(dp2086
g43
g33
sbsg66
(dp2087
g1548
I0
sg1549
I0
sg1550
I0
sg1551
I0
ssg68
I00
sg69
(dp2088
g1548
I0
sg1549
I0
sg1550
I0
sg1551
I0
ssg71
(dp2089
g1548
I0
sg1549
I0
sg1550
I0
sg1551
I0
ssg73
I0
sg74
I0
sg75
S'Vaceer (11)'
p2090
sg77
I0
sg78
I0
sg55
I0
sg80
I0
sg62
g33
sg84
(dp2091
g1579
I0
sg1570
I0
sg1571
I0
sg1572
I0
sg1577
I0
sg1569
I0
sg1575
I0
sg1576
I0
sg1573
I0
sg1578
I0
sg1574
I0
sg1580
I0
sg1581
I0
sg1582
I0
sg1583
I0
ssg101
(dp2092
sg122
I0
sg123
g33
sg124
I0
sg125
I0
sg126
I0
sg127
F0.0
sg128
I0
sg129
(dp2093
g1548
I0
sg1549
I0
sg1550
I0
sg1551
I0
ssg131
I0
sg132
g2075
sg133
I0
sg134
I0
sg135
I0
sg136
I0
sg137
I0
sg138
I0
sg139
I0
sg140
g33
sbssg122
I0
sg123
g33
sg124
I0
sg125
I0
sg126
I0
sg127
F9.241379310344827
sg128
I0
sg129
(dp2094
g1548
I0
sg1549
I0
sg1550
I0
sg1551
I0
ssg131
I0
sg132
g2075
sg133
I0
sg134
I0
sg135
I0
sg136
I0
sg137
I3
sg138
I0
sg139
I0
sg140
g1587
sbsS'n17'
p2095
(ijoueur
joueur
p2096
(dp2097
g28
I0
sg29
I0
sg30
I0
sg32
g33
sg34
I0
sg35
g33
sg37
g0
(g38
g2
Ntp2098
Rp2099
(dp2100
g42
I3
sg43
S'^^^'
p2101
sg45
S'rare'
p2102
sbsg47
(dp2103
g1548
I0
sg1549
I0
sg1550
I0
sg1551
I0
ssg53
(dp2104
g1548
I0
sg1549
I0
sg1550
I0
sg1551
I0
ssg56
g33
sg57
I0
sg59
I0
sg60
I0
sg61
I0
sg62
g1553
sg64
I00
sg65
g2099
sg66
(dp2105
g1548
I0
sg1549
I0
sg1550
I0
sg1551
I0
ssg68
I00
sg69
(dp2106
g1548
I0
sg1549
I0
sg1550
I0
sg1551
I0
ssg71
(dp2107
g1548
I0
sg1549
I0
sg1550
I0
sg1551
I0
ssg73
I0
sg74
I0
sg75
S'Reclep'
p2108
sg77
I13
sg78
I0
sg55
I21
sg80
I144
sg111
(g1563
g1916
g33
g33
tp2109
sg83
g33
sg84
(dp2110
g1569
I9
sg1570
I10
sg1571
I7
sg1572
I9
sg1573
I7
sg1574
I9
sg1575
I6
sg1576
I9
sg1577
I2
sg1578
I6
sg1579
I7
sg1580
I11
sg1581
I3
sg1582
I9
sg1583
I11
ssg101
(dp2111
sg122
I0
sg123
g33
sg124
I0
sg125
I0
sg126
I0
sg127
F9.37037037037037
sg128
I0
sg129
(dp2112
g1548
I0
sg1549
I0
sg1550
I0
sg1551
I0
ssg131
I0
sg132
(dp2113
g1569
I9
sg1570
I10
sg1571
I7
sg1572
I9
sg1577
I2
sg1575
I6
sg1574
I9
sg1576
I9
sg1573
I7
sg1578
I6
sg1579
I7
sg1580
I11
sg1581
I3
sg1582
I9
sg1583
I11
ssg133
I0
sg134
I0
sg135
I0
sg136
I0
sg137
I14
sg138
I0
sg139
I0
sg140
S'OG'
p2114
sbsS'n14'
p2115
(ijoueur
joueur
p2116
(dp2117
g28
I0
sg29
I0
sg30
I0
sg32
g33
sg34
I0
sg35
g33
sg37
g0
(g38
g2
Ntp2118
Rp2119
(dp2120
g42
I4
sg43
g1657
sg45
g1658
sbsg47
(dp2121
g1660
I0
sg1661
I0
sg1662
I0
sg1663
I0
ssg53
(dp2122
g1660
I0
sg1661
I0
sg1662
I0
sg1663
I0
ssg55
I18
sg56
g33
sg57
I0
sg59
I0
sg60
I0
sg61
I0
sg62
g1553
sg64
I00
sg65
g2119
sg66
(dp2123
g1660
I0
sg1661
I0
sg1662
I0
sg1663
I0
ssg129
(dp2124
g1660
I0
sg1661
I0
sg1662
I0
sg1663
I0
ssg69
(dp2125
g1660
I0
sg1661
I0
sg1662
I0
sg1663
I0
ssg71
(dp2126
g1660
I0
sg1661
I0
sg1662
I0
sg1663
I0
ssg73
I0
sg74
I0
sg75
S'Iulaszrok'
p2127
sg77
I11
sg78
I0
sg68
I00
sg80
I128
sg111
(g1670
g1997
S'AR'
p2128
g33
tp2129
sg83
g33
sg84
(dp2130
g1675
I9
sg1676
I8
sg1677
I10
sg1678
I10
sg1679
I7
sg1680
I7
sg1681
I10
sg1682
I11
sg1683
I6
sg1684
I9
sg1685
I11
sg1686
I7
sg1687
I7
sg1688
I9
sg1689
I8
ssg101
(dp2131
S's12'
p2132
(ijoueur
joueur
p2133
(dp2134
g28
I0
sg29
I0
sg30
I0
sg34
I0
sg37
g0
(g38
g2
Ntp2135
Rp2136
(dp2137
g43
g33
sbsg47
(dp2138
g1660
I0
sg1661
I0
sg1662
I0
sg1663
I0
ssg53
(dp2139
g1660
I0
sg1661
I0
sg1662
I0
sg1663
I0
ssg55
I0
sg56
g33
sg57
I0
sg59
I0
sg60
I0
sg61
I0
sg111
(g1670
g1997
g33
g33
tp2140
sg64
I00
sg65
g0
(g38
g2
Ntp2141
Rp2142
(dp2143
g43
g33
sbsg66
(dp2144
g1660
I0
sg1661
I0
sg1662
I0
sg1663
I0
ssg129
(dp2145
g1660
I0
sg1661
I0
sg1662
I0
sg1663
I0
ssg69
(dp2146
g1660
I0
sg1661
I0
sg1662
I0
sg1663
I0
ssg71
(dp2147
g1660
I0
sg1661
I0
sg1662
I0
sg1663
I0
ssg73
I0
sg74
I0
sg75
S'Iulaszrok (12)'
p2148
sg77
I0
sg78
I0
sg68
I00
sg80
I0
sg62
g33
sg84
(dp2149
g1685
I0
sg1676
I0
sg1677
I0
sg1678
I0
sg1683
I0
sg1675
I0
sg1680
I0
sg1682
I0
sg1679
I0
sg1684
I0
sg1681
I0
sg1686
I0
sg1687
I0
sg1688
I0
sg1689
I0
ssg101
(dp2150
sg122
I0
sg123
g33
sg124
I0
sg126
I0
sg127
F0.0
sg128
I0
sg125
I0
sg131
I0
sg132
(dp2151
g1675
I9
sg1676
I8
sg1677
I10
sg1678
I10
sg1683
I6
sg1681
I10
sg1680
I7
sg1682
I11
sg1679
I7
sg1684
I9
sg1685
I11
sg1686
I7
sg1687
I7
sg1688
I9
sg1689
I8
ssg133
I0
sg134
I0
sg135
I0
sg136
I0
sg137
I0
sg138
I0
sg139
I0
sg140
g33
sbsS's11'
p2152
(ijoueur
joueur
p2153
(dp2154
g28
I0
sg29
I0
sg30
I0
sg34
I0
sg37
g0
(g38
g2
Ntp2155
Rp2156
(dp2157
g43
g33
sbsg47
(dp2158
g1660
I0
sg1661
I0
sg1662
I0
sg1663
I0
ssg53
(dp2159
g1660
I0
sg1661
I0
sg1662
I0
sg1663
I0
ssg55
I0
sg56
g33
sg57
I0
sg59
I0
sg60
I0
sg61
I0
sg111
g2140
sg64
I00
sg65
g0
(g38
g2
Ntp2160
Rp2161
(dp2162
g43
g33
sbsg66
(dp2163
g1660
I0
sg1661
I0
sg1662
I0
sg1663
I0
ssg129
(dp2164
g1660
I0
sg1661
I0
sg1662
I0
sg1663
I0
ssg69
(dp2165
g1660
I0
sg1661
I0
sg1662
I0
sg1663
I0
ssg71
(dp2166
g1660
I0
sg1661
I0
sg1662
I0
sg1663
I0
ssg73
I0
sg74
I0
sg75
S'Iulaszrok (11)'
p2167
sg77
I0
sg78
I0
sg68
I00
sg80
I0
sg62
g33
sg84
(dp2168
g1685
I0
sg1676
I0
sg1677
I0
sg1678
I0
sg1683
I0
sg1675
I0
sg1680
I0
sg1682
I0
sg1679
I0
sg1684
I0
sg1681
I0
sg1686
I0
sg1687
I0
sg1688
I0
sg1689
I0
ssg101
(dp2169
sg122
I0
sg123
g33
sg124
I0
sg126
I0
sg127
F0.0
sg128
I0
sg125
I0
sg131
I0
sg132
g2151
sg133
I0
sg134
I0
sg135
I0
sg136
I0
sg137
I0
sg138
I0
sg139
I0
sg140
g33
sbssg122
I0
sg123
g33
sg124
I0
sg126
I0
sg127
F9.870967741935484
sg128
I0
sg125
I0
sg131
I0
sg132
g2151
sg133
I0
sg134
I0
sg135
I0
sg136
I0
sg137
I12
sg138
I0
sg139
I0
sg140
g1729
sbsS'n15'
p2170
(ijoueur
joueur
p2171
(dp2172
g28
I0
sg29
I0
sg30
I0
sg32
g33
sg34
I0
sg35
g33
sg37
g0
(g38
g2
Ntp2173
Rp2174
(dp2175
g42
I2
sg43
S'^^'
p2176
sg45
g1558
sbsg47
(dp2177
g1548
I0
sg1549
I0
sg1550
I0
sg1551
I0
ssg53
(dp2178
g1548
I0
sg1549
I0
sg1550
I0
sg1551
I0
ssg56
g33
sg57
I0
sg59
I0
sg60
I0
sg61
I0
sg62
g1553
sg64
I00
sg65
g2174
sg66
(dp2179
g1548
I0
sg1549
I0
sg1550
I0
sg1551
I0
ssg68
I00
sg69
(dp2180
g1548
I0
sg1549
I0
sg1550
I0
sg1551
I0
ssg71
(dp2181
g1548
I0
sg1549
I0
sg1550
I0
sg1551
I0
ssg73
I0
sg74
I0
sg75
S'Zafleoth'
p2182
sg77
I7
sg78
I0
sg55
I18
sg80
I36
sg111
(g1563
S'AR'
p2183
S'AI'
p2184
S'CE'
p2185
tp2186
sg83
g33
sg84
(dp2187
g1569
I6
sg1570
I5
sg1571
I8
sg1572
I8
sg1573
I6
sg1574
I12
sg1575
I7
sg1576
I8
sg1577
I9
sg1578
I10
sg1579
I11
sg1580
I6
sg1581
I8
sg1582
I11
sg1583
I5
ssg101
(dp2188
S's12'
p2189
(ijoueur
joueur
p2190
(dp2191
g28
I0
sg29
I0
sg30
I0
sg34
I0
sg37
g0
(g38
g2
Ntp2192
Rp2193
(dp2194
g43
g33
sbsg47
(dp2195
g1548
I0
sg1549
I0
sg1550
I0
sg1551
I0
ssg53
(dp2196
g1548
I0
sg1549
I0
sg1550
I0
sg1551
I0
ssg56
g33
sg57
I0
sg59
I0
sg60
I0
sg61
I0
sg111
(g1563
g2183
g33
g33
tp2197
sg64
I00
sg65
g0
(g38
g2
Ntp2198
Rp2199
(dp2200
g43
g33
sbsg66
(dp2201
g1548
I0
sg1549
I0
sg1550
I0
sg1551
I0
ssg68
I00
sg69
(dp2202
g1548
I0
sg1549
I0
sg1550
I0
sg1551
I0
ssg71
(dp2203
g1548
I0
sg1549
I0
sg1550
I0
sg1551
I0
ssg73
I0
sg74
I0
sg75
S'Zafleoth (12)'
p2204
sg77
I0
sg78
I0
sg55
I0
sg80
I0
sg62
g33
sg84
(dp2205
g1579
I0
sg1570
I0
sg1571
I0
sg1572
I0
sg1577
I0
sg1569
I0
sg1575
I0
sg1576
I0
sg1573
I0
sg1578
I0
sg1574
I0
sg1580
I0
sg1581
I0
sg1582
I0
sg1583
I0
ssg101
(dp2206
sg122
I0
sg123
g33
sg124
I0
sg125
I0
sg126
I0
sg127
F0.0
sg128
I0
sg129
(dp2207
g1548
I0
sg1549
I0
sg1550
I0
sg1551
I0
ssg131
I0
sg132
(dp2208
g1569
I6
sg1570
I5
sg1571
I8
sg1572
I8
sg1577
I9
sg1575
I7
sg1574
I12
sg1576
I8
sg1573
I6
sg1578
I10
sg1579
I11
sg1580
I6
sg1581
I8
sg1582
I11
sg1583
I5
ssg133
I0
sg134
I0
sg135
I0
sg136
I0
sg137
I0
sg138
I0
sg139
I0
sg140
g33
sbsS's11'
p2209
(ijoueur
joueur
p2210
(dp2211
g28
I0
sg29
I0
sg30
I0
sg34
I0
sg37
g0
(g38
g2
Ntp2212
Rp2213
(dp2214
g43
g33
sbsg47
(dp2215
g1548
I0
sg1549
I0
sg1550
I0
sg1551
I0
ssg53
(dp2216
g1548
I0
sg1549
I0
sg1550
I0
sg1551
I0
ssg56
g33
sg57
I0
sg59
I0
sg60
I0
sg61
I0
sg111
g2197
sg64
I00
sg65
g0
(g38
g2
Ntp2217
Rp2218
(dp2219
g43
g33
sbsg66
(dp2220
g1548
I0
sg1549
I0
sg1550
I0
sg1551
I0
ssg68
I00
sg69
(dp2221
g1548
I0
sg1549
I0
sg1550
I0
sg1551
I0
ssg71
(dp2222
g1548
I0
sg1549
I0
sg1550
I0
sg1551
I0
ssg73
I0
sg74
I0
sg75
S'Zafleoth (11)'
p2223
sg77
I0
sg78
I0
sg55
I0
sg80
I0
sg62
g33
sg84
(dp2224
g1579
I0
sg1570
I0
sg1571
I0
sg1572
I0
sg1577
I0
sg1569
I0
sg1575
I0
sg1576
I0
sg1573
I0
sg1578
I0
sg1574
I0
sg1580
I0
sg1581
I0
sg1582
I0
sg1583
I0
ssg101
(dp2225
sg122
I0
sg123
g33
sg124
I0
sg125
I0
sg126
I0
sg127
F0.0
sg128
I0
sg129
(dp2226
g1548
I0
sg1549
I0
sg1550
I0
sg1551
I0
ssg131
I0
sg132
g2208
sg133
I0
sg134
I0
sg135
I0
sg136
I0
sg137
I0
sg138
I0
sg139
I0
sg140
g33
sbssg122
I0
sg123
g33
sg124
I0
sg125
I0
sg126
I0
sg127
F9.696969696969697
sg128
I0
sg129
(dp2227
g1548
I0
sg1549
I0
sg1550
I0
sg1551
I0
ssg131
I0
sg132
g2208
sg133
I0
sg134
I0
sg135
I0
sg136
I0
sg137
I3
sg138
I0
sg139
I0
sg140
g1648
sbsS'n18'
p2228
(ijoueur
joueur
p2229
(dp2230
g28
I0
sg29
I0
sg30
I0
sg32
g33
sg34
I0
sg35
g33
sg37
g0
(g38
g2
Ntp2231
Rp2232
(dp2233
g42
I2
sg43
g1909
sg45
g1558
sbsg47
(dp2234
g1548
I0
sg1549
I0
sg1550
I0
sg1551
I0
ssg53
(dp2235
g1548
I0
sg1549
I0
sg1550
I0
sg1551
I0
ssg56
g33
sg57
I0
sg59
I0
sg60
I0
sg61
I0
sg62
g1553
sg64
I00
sg65
g2232
sg66
(dp2236
g1548
I0
sg1549
I0
sg1550
I0
sg1551
I0
ssg68
I00
sg69
(dp2237
g1548
I0
sg1549
I0
sg1550
I0
sg1551
I0
ssg71
(dp2238
g1548
I0
sg1549
I0
sg1550
I0
sg1551
I0
ssg73
I0
sg74
I0
sg75
S'Qladyr'
p2239
sg77
I8
sg78
I0
sg55
I21
sg80
I43
sg111
(g1563
g1916
S'DL'
p2240
S'TL'
p2241
tp2242
sg83
g33
sg84
(dp2243
g1569
I8
sg1570
I11
sg1571
I5
sg1572
I9
sg1573
I11
sg1574
I7
sg1575
I4
sg1576
I8
sg1577
I5
sg1578
I8
sg1579
I8
sg1580
I7
sg1581
I2
sg1582
I11
sg1583
I8
ssg101
(dp2244
S's12'
p2245
(ijoueur
joueur
p2246
(dp2247
g28
I0
sg29
I0
sg30
I0
sg34
I0
sg37
g0
(g38
g2
Ntp2248
Rp2249
(dp2250
g43
g33
sbsg47
(dp2251
g1548
I0
sg1549
I0
sg1550
I0
sg1551
I0
ssg53
(dp2252
g1548
I0
sg1549
I0
sg1550
I0
sg1551
I0
ssg56
g33
sg57
I0
sg59
I0
sg60
I0
sg61
I0
sg111
(g1563
g1916
g33
g33
tp2253
sg64
I00
sg65
g0
(g38
g2
Ntp2254
Rp2255
(dp2256
g43
g33
sbsg66
(dp2257
g1548
I0
sg1549
I0
sg1550
I0
sg1551
I0
ssg68
I00
sg69
(dp2258
g1548
I0
sg1549
I0
sg1550
I0
sg1551
I0
ssg71
(dp2259
g1548
I0
sg1549
I0
sg1550
I0
sg1551
I0
ssg73
I0
sg74
I0
sg75
S'Qladyr (12)'
p2260
sg77
I0
sg78
I0
sg55
I0
sg80
I0
sg62
g33
sg84
(dp2261
g1579
I0
sg1570
I0
sg1571
I0
sg1572
I0
sg1577
I0
sg1569
I0
sg1575
I0
sg1576
I0
sg1573
I0
sg1578
I0
sg1574
I0
sg1580
I0
sg1581
I0
sg1582
I0
sg1583
I0
ssg101
(dp2262
sg122
I0
sg123
g33
sg124
I0
sg125
I0
sg126
I0
sg127
F0.0
sg128
I0
sg129
(dp2263
g1548
I0
sg1549
I0
sg1550
I0
sg1551
I0
ssg131
I0
sg132
(dp2264
g1569
I8
sg1570
I11
sg1571
I5
sg1572
I9
sg1577
I5
sg1575
I4
sg1574
I7
sg1576
I8
sg1573
I11
sg1578
I8
sg1579
I8
sg1580
I7
sg1581
I2
sg1582
I11
sg1583
I8
ssg133
I0
sg134
I0
sg135
I0
sg136
I0
sg137
I0
sg138
I0
sg139
I0
sg140
g33
sbsS's11'
p2265
(ijoueur
joueur
p2266
(dp2267
g28
I0
sg29
I0
sg30
I0
sg34
I0
sg37
g0
(g38
g2
Ntp2268
Rp2269
(dp2270
g43
g33
sbsg47
(dp2271
g1548
I0
sg1549
I0
sg1550
I0
sg1551
I0
ssg53
(dp2272
g1548
I0
sg1549
I0
sg1550
I0
sg1551
I0
ssg56
g33
sg57
I0
sg59
I0
sg60
I0
sg61
I0
sg111
g2253
sg64
I00
sg65
g0
(g38
g2
Ntp2273
Rp2274
(dp2275
g43
g33
sbsg66
(dp2276
g1548
I0
sg1549
I0
sg1550
I0
sg1551
I0
ssg68
I00
sg69
(dp2277
g1548
I0
sg1549
I0
sg1550
I0
sg1551
I0
ssg71
(dp2278
g1548
I0
sg1549
I0
sg1550
I0
sg1551
I0
ssg73
I0
sg74
I0
sg75
S'Qladyr (11)'
p2279
sg77
I0
sg78
I0
sg55
I0
sg80
I0
sg62
g33
sg84
(dp2280
g1579
I0
sg1570
I0
sg1571
I0
sg1572
I0
sg1577
I0
sg1569
I0
sg1575
I0
sg1576
I0
sg1573
I0
sg1578
I0
sg1574
I0
sg1580
I0
sg1581
I0
sg1582
I0
sg1583
I0
ssg101
(dp2281
sg122
I0
sg123
g33
sg124
I0
sg125
I0
sg126
I0
sg127
F0.0
sg128
I0
sg129
(dp2282
g1548
I0
sg1549
I0
sg1550
I0
sg1551
I0
ssg131
I0
sg132
g2264
sg133
I0
sg134
I0
sg135
I0
sg136
I0
sg137
I0
sg138
I0
sg139
I0
sg140
g33
sbssg122
I0
sg123
g33
sg124
I0
sg125
I0
sg126
I0
sg127
F9.323529411764707
sg128
I0
sg129
(dp2283
g1548
I0
sg1549
I0
sg1550
I0
sg1551
I0
ssg131
I0
sg132
g2264
sg133
I0
sg134
I0
sg135
I0
sg136
I0
sg137
I4
sg138
I0
sg139
I0
sg140
g1587
sbsS'n19'
p2284
(ijoueur
joueur
p2285
(dp2286
g28
I0
sg29
I0
sg30
I0
sg32
g33
sg34
I0
sg35
g33
sg37
g0
(g38
g2
Ntp2287
Rp2288
(dp2289
g42
I4
sg43
g1545
sg45
g1546
sbsg47
(dp2290
g1548
I0
sg1549
I0
sg1550
I0
sg1551
I0
ssg53
(dp2291
g1548
I0
sg1549
I0
sg1550
I0
sg1551
I0
ssg56
g33
sg57
I0
sg59
I0
sg60
I0
sg61
I0
sg62
g1553
sg64
I00
sg65
g0
(g38
g2
Ntp2292
Rp2293
(dp2294
g42
I2
sg43
g1909
sg45
g1558
sbsg66
(dp2295
g1548
I0
sg1549
I0
sg1550
I0
sg1551
I0
ssg68
I00
sg69
(dp2296
g1548
I0
sg1549
I0
sg1550
I0
sg1551
I0
ssg71
(dp2297
g1548
I0
sg1549
I0
sg1550
I0
sg1551
I0
ssg73
I0
sg74
I0
sg75
S'Drusced'
p2298
sg77
I13
sg78
I0
sg55
I24
sg80
I29
sg111
(g1563
g1745
g33
g33
tp2299
sg83
g33
sg84
(dp2300
g1569
I10
sg1570
I9
sg1571
I6
sg1572
I10
sg1573
I9
sg1574
I7
sg1575
I3
sg1576
I10
sg1577
I5
sg1578
I10
sg1579
I11
sg1580
I7
sg1581
I3
sg1582
I10
sg1583
I7
ssg101
(dp2301
sg122
I0
sg123
g33
sg124
I0
sg125
I0
sg126
I0
sg127
F9.172413793103448
sg128
I0
sg129
(dp2302
g1548
I0
sg1549
I0
sg1550
I0
sg1551
I0
ssg131
I0
sg132
(dp2303
g1569
I10
sg1570
I9
sg1571
I6
sg1572
I10
sg1577
I5
sg1575
I3
sg1574
I7
sg1576
I10
sg1573
I9
sg1578
I10
sg1579
I11
sg1580
I7
sg1581
I3
sg1582
I10
sg1583
I7
ssg133
I0
sg134
I0
sg135
I0
sg136
I0
sg137
I2
sg138
I0
sg139
I0
sg140
g1587
sbsS'n22'
p2304
(ijoueur
joueur
p2305
(dp2306
g28
I0
sg29
I0
sg30
I0
sg32
g33
sg34
I0
sg35
g33
sg37
g0
(g38
g2
Ntp2307
Rp2308
(dp2309
g42
I1
sg43
S'^'
p2310
sg45
S'base'
p2311
sbsg47
(dp2312
g1660
I0
sg1661
I0
sg1662
I0
sg1663
I0
ssg53
(dp2313
g1660
I0
sg1661
I0
sg1662
I0
sg1663
I0
ssg55
I14
sg56
g33
sg57
I0
sg59
I0
sg60
I0
sg61
I0
sg62
g1553
sg64
I00
sg65
g2308
sg66
(dp2314
g1660
I0
sg1661
I0
sg1662
I0
sg1663
I0
ssg129
(dp2315
g1660
I0
sg1661
I0
sg1662
I0
sg1663
I0
ssg69
(dp2316
g1660
I0
sg1661
I0
sg1662
I0
sg1663
I0
ssg71
(dp2317
g1660
I0
sg1661
I0
sg1662
I0
sg1663
I0
ssg73
I0
sg74
I0
sg75
S'Zkarmeol'
p2318
sg77
I4
sg78
I0
sg68
I00
sg80
I16
sg111
(g1670
g1997
S'AR'
p2319
g33
tp2320
sg83
g33
sg84
(dp2321
g1675
I9
sg1676
I4
sg1677
I8
sg1678
I10
sg1679
I6
sg1680
I6
sg1681
I8
sg1682
I10
sg1683
I3
sg1684
I8
sg1685
I10
sg1686
I8
sg1687
I6
sg1688
I9
sg1689
I4
ssg101
(dp2322
S's12'
p2323
(ijoueur
joueur
p2324
(dp2325
g28
I0
sg29
I0
sg30
I0
sg34
I0
sg37
g0
(g38
g2
Ntp2326
Rp2327
(dp2328
g43
g33
sbsg47
(dp2329
g1660
I0
sg1661
I0
sg1662
I0
sg1663
I0
ssg53
(dp2330
g1660
I0
sg1661
I0
sg1662
I0
sg1663
I0
ssg55
I0
sg56
g33
sg57
I0
sg59
I0
sg60
I0
sg61
I0
sg111
(g1670
g1997
g33
g33
tp2331
sg64
I00
sg65
g0
(g38
g2
Ntp2332
Rp2333
(dp2334
g43
g33
sbsg66
(dp2335
g1660
I0
sg1661
I0
sg1662
I0
sg1663
I0
ssg129
(dp2336
g1660
I0
sg1661
I0
sg1662
I0
sg1663
I0
ssg69
(dp2337
g1660
I0
sg1661
I0
sg1662
I0
sg1663
I0
ssg71
(dp2338
g1660
I0
sg1661
I0
sg1662
I0
sg1663
I0
ssg73
I0
sg74
I0
sg75
S'Zkarmeol (12)'
p2339
sg77
I0
sg78
I0
sg68
I00
sg80
I0
sg62
g33
sg84
(dp2340
g1685
I0
sg1676
I0
sg1677
I0
sg1678
I0
sg1683
I0
sg1675
I0
sg1680
I0
sg1682
I0
sg1679
I0
sg1684
I0
sg1681
I0
sg1686
I0
sg1687
I0
sg1688
I0
sg1689
I0
ssg101
(dp2341
sg122
I0
sg123
g33
sg124
I0
sg126
I0
sg127
F0.0
sg128
I0
sg125
I0
sg131
I0
sg132
(dp2342
g1675
I9
sg1676
I4
sg1677
I8
sg1678
I10
sg1683
I3
sg1681
I8
sg1680
I6
sg1682
I10
sg1679
I6
sg1684
I8
sg1685
I10
sg1686
I8
sg1687
I6
sg1688
I9
sg1689
I4
ssg133
I0
sg134
I0
sg135
I0
sg136
I0
sg137
I0
sg138
I0
sg139
I0
sg140
g33
sbsS's11'
p2343
(ijoueur
joueur
p2344
(dp2345
g28
I0
sg29
I0
sg30
I0
sg34
I0
sg37
g0
(g38
g2
Ntp2346
Rp2347
(dp2348
g43
g33
sbsg47
(dp2349
g1660
I0
sg1661
I0
sg1662
I0
sg1663
I0
ssg53
(dp2350
g1660
I0
sg1661
I0
sg1662
I0
sg1663
I0
ssg55
I0
sg56
g33
sg57
I0
sg59
I0
sg60
I0
sg61
I0
sg111
g2331
sg64
I00
sg65
g0
(g38
g2
Ntp2351
Rp2352
(dp2353
g43
g33
sbsg66
(dp2354
g1660
I0
sg1661
I0
sg1662
I0
sg1663
I0
ssg129
(dp2355
g1660
I0
sg1661
I0
sg1662
I0
sg1663
I0
ssg69
(dp2356
g1660
I0
sg1661
I0
sg1662
I0
sg1663
I0
ssg71
(dp2357
g1660
I0
sg1661
I0
sg1662
I0
sg1663
I0
ssg73
I0
sg74
I0
sg75
S'Zkarmeol (11)'
p2358
sg77
I0
sg78
I0
sg68
I00
sg80
I0
sg62
g33
sg84
(dp2359
g1685
I0
sg1676
I0
sg1677
I0
sg1678
I0
sg1683
I0
sg1675
I0
sg1680
I0
sg1682
I0
sg1679
I0
sg1684
I0
sg1681
I0
sg1686
I0
sg1687
I0
sg1688
I0
sg1689
I0
ssg101
(dp2360
sg122
I0
sg123
g33
sg124
I0
sg126
I0
sg127
F0.0
sg128
I0
sg125
I0
sg131
I0
sg132
g2342
sg133
I0
sg134
I0
sg135
I0
sg136
I0
sg137
I0
sg138
I0
sg139
I0
sg140
g33
sbssg122
I0
sg123
g33
sg124
I0
sg126
I0
sg127
F9.03225806451613
sg128
I0
sg125
I0
sg131
I0
sg132
g2342
sg133
I0
sg134
I0
sg135
I0
sg136
I0
sg137
I1
sg138
I0
sg139
I0
sg140
g1729
sbsS'n21'
p2361
(ijoueur
joueur
p2362
(dp2363
g28
I0
sg29
I0
sg30
I0
sg32
g33
sg34
I0
sg35
g33
sg37
g0
(g38
g2
Ntp2364
Rp2365
(dp2366
g42
I4
sg43
S'*'
p2367
sg45
g1546
sbsg47
(dp2368
g1548
I0
sg1549
I0
sg1550
I0
sg1551
I0
ssg53
(dp2369
g1548
I0
sg1549
I0
sg1550
I0
sg1551
I0
ssg56
g33
sg57
I0
sg59
I0
sg60
I0
sg61
I0
sg62
g1553
sg64
I00
sg65
g2365
sg66
(dp2370
g1548
I0
sg1549
I0
sg1550
I0
sg1551
I0
ssg68
I00
sg69
(dp2371
g1548
I0
sg1549
I0
sg1550
I0
sg1551
I0
ssg71
(dp2372
g1548
I0
sg1549
I0
sg1550
I0
sg1551
I0
ssg73
I0
sg74
I0
sg75
S'Kjentar'
p2373
sg77
I6
sg78
I0
sg55
I15
sg80
I144
sg111
(g1563
S'C2'
p2374
S'AR'
p2375
S'AI'
p2376
tp2377
sg83
g33
sg84
(dp2378
g1569
I9
sg1570
I3
sg1571
I10
sg1572
I10
sg1573
I9
sg1574
I8
sg1575
I6
sg1576
I11
sg1577
I7
sg1578
I11
sg1579
I10
sg1580
I9
sg1581
I6
sg1582
I10
sg1583
I4
ssg101
(dp2379
S's12'
p2380
(ijoueur
joueur
p2381
(dp2382
g28
I0
sg29
I0
sg30
I0
sg34
I0
sg37
g0
(g38
g2
Ntp2383
Rp2384
(dp2385
g43
g33
sbsg47
(dp2386
g1548
I0
sg1549
I0
sg1550
I0
sg1551
I0
ssg53
(dp2387
g1548
I0
sg1549
I0
sg1550
I0
sg1551
I0
ssg56
g33
sg57
I0
sg59
I0
sg60
I0
sg61
I0
sg111
(g1563
g1616
g33
g33
tp2388
sg64
I00
sg65
g0
(g38
g2
Ntp2389
Rp2390
(dp2391
g43
g33
sbsg66
(dp2392
g1548
I0
sg1549
I0
sg1550
I0
sg1551
I0
ssg68
I00
sg69
(dp2393
g1548
I0
sg1549
I0
sg1550
I0
sg1551
I0
ssg71
(dp2394
g1548
I0
sg1549
I0
sg1550
I0
sg1551
I0
ssg73
I0
sg74
I0
sg75
S'Kjentar (12)'
p2395
sg77
I0
sg78
I0
sg55
I0
sg80
I0
sg62
g33
sg84
(dp2396
g1579
I0
sg1570
I0
sg1571
I0
sg1572
I0
sg1577
I0
sg1569
I0
sg1575
I0
sg1576
I0
sg1573
I0
sg1578
I0
sg1574
I0
sg1580
I0
sg1581
I0
sg1582
I0
sg1583
I0
ssg101
(dp2397
sg122
I0
sg123
g33
sg124
I0
sg125
I0
sg126
I0
sg127
F0.0
sg128
I0
sg129
(dp2398
g1548
I0
sg1549
I0
sg1550
I0
sg1551
I0
ssg131
I0
sg132
(dp2399
g1569
I9
sg1570
I3
sg1571
I10
sg1572
I10
sg1577
I7
sg1575
I6
sg1574
I8
sg1576
I11
sg1573
I9
sg1578
I11
sg1579
I10
sg1580
I9
sg1581
I6
sg1582
I10
sg1583
I4
ssg133
I0
sg134
I0
sg135
I0
sg136
I0
sg137
I0
sg138
I0
sg139
I0
sg140
g33
sbsS's11'
p2400
(ijoueur
joueur
p2401
(dp2402
g28
I0
sg29
I0
sg30
I0
sg34
I0
sg37
g0
(g38
g2
Ntp2403
Rp2404
(dp2405
g43
g33
sbsg47
(dp2406
g1548
I0
sg1549
I0
sg1550
I0
sg1551
I0
ssg53
(dp2407
g1548
I0
sg1549
I0
sg1550
I0
sg1551
I0
ssg56
g33
sg57
I0
sg59
I0
sg60
I0
sg61
I0
sg111
g2388
sg64
I00
sg65
g0
(g38
g2
Ntp2408
Rp2409
(dp2410
g43
g33
sbsg66
(dp2411
g1548
I0
sg1549
I0
sg1550
I0
sg1551
I0
ssg68
I00
sg69
(dp2412
g1548
I0
sg1549
I0
sg1550
I0
sg1551
I0
ssg71
(dp2413
g1548
I0
sg1549
I0
sg1550
I0
sg1551
I0
ssg73
I0
sg74
I0
sg75
S'Kjentar (11)'
p2414
sg77
I0
sg78
I0
sg55
I0
sg80
I0
sg62
g33
sg84
(dp2415
g1579
I0
sg1570
I0
sg1571
I0
sg1572
I0
sg1577
I0
sg1569
I0
sg1575
I0
sg1576
I0
sg1573
I0
sg1578
I0
sg1574
I0
sg1580
I0
sg1581
I0
sg1582
I0
sg1583
I0
ssg101
(dp2416
sg122
I0
sg123
g33
sg124
I0
sg125
I0
sg126
I0
sg127
F0.0
sg128
I0
sg129
(dp2417
g1548
I0
sg1549
I0
sg1550
I0
sg1551
I0
ssg131
I0
sg132
g2399
sg133
I0
sg134
I0
sg135
I0
sg136
I0
sg137
I0
sg138
I0
sg139
I0
sg140
g33
sbssg122
I0
sg123
g33
sg124
I0
sg125
I0
sg126
I0
sg127
F9.793103448275861
sg128
I0
sg129
(dp2418
g1548
I0
sg1549
I0
sg1550
I0
sg1551
I0
ssg131
I0
sg132
g2399
sg133
I0
sg134
I0
sg135
I0
sg136
I0
sg137
I14
sg138
I0
sg139
I0
sg140
g1587
sbsS'n20'
p2419
(ijoueur
joueur
p2420
(dp2421
g28
I0
sg29
I0
sg30
I0
sg32
g33
sg34
I0
sg35
g33
sg37
g0
(g38
g2
Ntp2422
Rp2423
(dp2424
g42
I4
sg43
g2367
sg45
g1546
sbsg47
(dp2425
g1548
I0
sg1549
I0
sg1550
I0
sg1551
I0
ssg53
(dp2426
g1548
I0
sg1549
I0
sg1550
I0
sg1551
I0
ssg56
g33
sg57
I0
sg59
I0
sg60
I0
sg61
I0
sg62
g1553
sg64
I00
sg65
g2423
sg66
(dp2427
g1548
I0
sg1549
I0
sg1550
I0
sg1551
I0
ssg68
I00
sg69
(dp2428
g1548
I0
sg1549
I0
sg1550
I0
sg1551
I0
ssg71
(dp2429
g1548
I0
sg1549
I0
sg1550
I0
sg1551
I0
ssg73
I0
sg74
I0
sg75
S'Ztendlor'
p2430
sg77
I8
sg78
I0
sg55
I18
sg80
I112
sg111
(g1563
S'C1'
p2431
S'DO'
p2432
g33
tp2433
sg83
g33
sg84
(dp2434
g1569
I9
sg1570
I5
sg1571
I8
sg1572
I9
sg1573
I6
sg1574
I9
sg1575
I7
sg1576
I10
sg1577
I9
sg1578
I10
sg1579
I11
sg1580
I8
sg1581
I8
sg1582
I10
sg1583
I6
ssg101
(dp2435
S's12'
p2436
(ijoueur
joueur
p2437
(dp2438
g28
I0
sg29
I0
sg30
I0
sg34
I0
sg37
g0
(g38
g2
Ntp2439
Rp2440
(dp2441
g43
g33
sbsg47
(dp2442
g1548
I0
sg1549
I0
sg1550
I0
sg1551
I0
ssg53
(dp2443
g1548
I0
sg1549
I0
sg1550
I0
sg1551
I0
ssg56
g33
sg57
I0
sg59
I0
sg60
I0
sg61
I0
sg111
(g1563
g1616
g33
g33
tp2444
sg64
I00
sg65
g0
(g38
g2
Ntp2445
Rp2446
(dp2447
g43
g33
sbsg66
(dp2448
g1548
I0
sg1549
I0
sg1550
I0
sg1551
I0
ssg68
I00
sg69
(dp2449
g1548
I0
sg1549
I0
sg1550
I0
sg1551
I0
ssg71
(dp2450
g1548
I0
sg1549
I0
sg1550
I0
sg1551
I0
ssg73
I0
sg74
I0
sg75
S'Ztendlor (12)'
p2451
sg77
I0
sg78
I0
sg55
I0
sg80
I0
sg62
g33
sg84
(dp2452
g1579
I0
sg1570
I0
sg1571
I0
sg1572
I0
sg1577
I0
sg1569
I0
sg1575
I0
sg1576
I0
sg1573
I0
sg1578
I0
sg1574
I0
sg1580
I0
sg1581
I0
sg1582
I0
sg1583
I0
ssg101
(dp2453
sg122
I0
sg123
g33
sg124
I0
sg125
I0
sg126
I0
sg127
F0.0
sg128
I0
sg129
(dp2454
g1548
I0
sg1549
I0
sg1550
I0
sg1551
I0
ssg131
I0
sg132
(dp2455
g1569
I9
sg1570
I5
sg1571
I8
sg1572
I9
sg1577
I9
sg1575
I7
sg1574
I9
sg1576
I10
sg1573
I6
sg1578
I10
sg1579
I11
sg1580
I8
sg1581
I8
sg1582
I10
sg1583
I6
ssg133
I0
sg134
I0
sg135
I0
sg136
I0
sg137
I0
sg138
I0
sg139
I0
sg140
g33
sbsS's11'
p2456
(ijoueur
joueur
p2457
(dp2458
g28
I0
sg29
I0
sg30
I0
sg34
I0
sg37
g0
(g38
g2
Ntp2459
Rp2460
(dp2461
g43
g33
sbsg47
(dp2462
g1548
I0
sg1549
I0
sg1550
I0
sg1551
I0
ssg53
(dp2463
g1548
I0
sg1549
I0
sg1550
I0
sg1551
I0
ssg56
g33
sg57
I0
sg59
I0
sg60
I0
sg61
I0
sg111
g2444
sg64
I00
sg65
g0
(g38
g2
Ntp2464
Rp2465
(dp2466
g43
g33
sbsg66
(dp2467
g1548
I0
sg1549
I0
sg1550
I0
sg1551
I0
ssg68
I00
sg69
(dp2468
g1548
I0
sg1549
I0
sg1550
I0
sg1551
I0
ssg71
(dp2469
g1548
I0
sg1549
I0
sg1550
I0
sg1551
I0
ssg73
I0
sg74
I0
sg75
S'Ztendlor (11)'
p2470
sg77
I0
sg78
I0
sg55
I0
sg80
I0
sg62
g33
sg84
(dp2471
g1579
I0
sg1570
I0
sg1571
I0
sg1572
I0
sg1577
I0
sg1569
I0
sg1575
I0
sg1576
I0
sg1573
I0
sg1578
I0
sg1574
I0
sg1580
I0
sg1581
I0
sg1582
I0
sg1583
I0
ssg101
(dp2472
sg122
I0
sg123
g33
sg124
I0
sg125
I0
sg126
I0
sg127
F0.0
sg128
I0
sg129
(dp2473
g1548
I0
sg1549
I0
sg1550
I0
sg1551
I0
ssg131
I0
sg132
g2455
sg133
I0
sg134
I0
sg135
I0
sg136
I0
sg137
I0
sg138
I0
sg139
I0
sg140
g33
sbssg122
I0
sg123
g33
sg124
I0
sg125
I0
sg126
I0
sg127
F9.5
sg128
I0
sg129
(dp2474
g1548
I0
sg1549
I0
sg1550
I0
sg1551
I0
ssg131
I0
sg132
g2455
sg133
I0
sg134
I0
sg135
I0
sg136
I0
sg137
I11
sg138
I0
sg139
I0
sg140
g1587
sbsS'n8'
p2475
g1734
sS'n9'
p2476
(ijoueur
joueur
p2477
(dp2478
g28
I0
sg29
I0
sg30
I0
sg32
g33
sg34
I0
sg35
g33
sg37
g0
(g38
g2
Ntp2479
Rp2480
(dp2481
g42
I4
sg43
g2367
sg45
g1546
sbsg47
(dp2482
g1548
I0
sg1549
I0
sg1550
I0
sg1551
I0
ssg53
(dp2483
g1548
I0
sg1549
I0
sg1550
I0
sg1551
I0
ssg56
g33
sg57
I0
sg59
I0
sg60
I0
sg61
I0
sg62
g1553
sg64
I00
sg65
g0
(g38
g2
Ntp2484
Rp2485
(dp2486
g42
I2
sg43
g2176
sg45
g1558
sbsg66
(dp2487
g1548
I0
sg1549
I0
sg1550
I0
sg1551
I0
ssg68
I00
sg69
(dp2488
g1548
I0
sg1549
I0
sg1550
I0
sg1551
I0
ssg71
(dp2489
g1548
I0
sg1549
I0
sg1550
I0
sg1551
I0
ssg73
I0
sg74
I0
sg75
S'Quelamer'
p2490
sg77
I12
sg78
I0
sg55
I21
sg80
I77
sg111
(g1563
g2183
S'AI'
p2491
S'DM'
p2492
tp2493
sg83
g33
sg84
(dp2494
g1569
I6
sg1570
I4
sg1571
I9
sg1572
I11
sg1573
I6
sg1574
I11
sg1575
I7
sg1576
I9
sg1577
I7
sg1578
I10
sg1579
I9
sg1580
I7
sg1581
I6
sg1582
I7
sg1583
I5
ssg101
(dp2495
S's12'
p2496
(ijoueur
joueur
p2497
(dp2498
g28
I0
sg29
I0
sg30
I0
sg34
I0
sg37
g0
(g38
g2
Ntp2499
Rp2500
(dp2501
g43
g33
sbsg47
(dp2502
g1548
I0
sg1549
I0
sg1550
I0
sg1551
I0
ssg53
(dp2503
g1548
I0
sg1549
I0
sg1550
I0
sg1551
I0
ssg56
g33
sg57
I0
sg59
I0
sg60
I0
sg61
I0
sg111
(g1563
g2183
g33
g33
tp2504
sg64
I00
sg65
g0
(g38
g2
Ntp2505
Rp2506
(dp2507
g43
g33
sbsg66
(dp2508
g1548
I0
sg1549
I0
sg1550
I0
sg1551
I0
ssg68
I00
sg69
(dp2509
g1548
I0
sg1549
I0
sg1550
I0
sg1551
I0
ssg71
(dp2510
g1548
I0
sg1549
I0
sg1550
I0
sg1551
I0
ssg73
I0
sg74
I0
sg75
S'Quelamer (12)'
p2511
sg77
I0
sg78
I0
sg55
I0
sg80
I0
sg62
g33
sg84
(dp2512
g1579
I0
sg1570
I0
sg1571
I0
sg1572
I0
sg1577
I0
sg1569
I0
sg1575
I0
sg1576
I0
sg1573
I0
sg1578
I0
sg1574
I0
sg1580
I0
sg1581
I0
sg1582
I0
sg1583
I0
ssg101
(dp2513
sg122
I0
sg123
g33
sg124
I0
sg125
I0
sg126
I0
sg127
F0.0
sg128
I0
sg129
(dp2514
g1548
I0
sg1549
I0
sg1550
I0
sg1551
I0
ssg131
I0
sg132
(dp2515
g1569
I6
sg1570
I4
sg1571
I9
sg1572
I11
sg1577
I7
sg1575
I7
sg1574
I11
sg1576
I9
sg1573
I6
sg1578
I10
sg1579
I9
sg1580
I7
sg1581
I6
sg1582
I7
sg1583
I5
ssg133
I0
sg134
I0
sg135
I0
sg136
I0
sg137
I0
sg138
I0
sg139
I0
sg140
g33
sbssg122
I0
sg123
g33
sg124
I0
sg125
I0
sg126
I0
sg127
F8.909090909090908
sg128
I0
sg129
(dp2516
g1548
I0
sg1549
I0
sg1550
I0
sg1551
I0
ssg131
I0
sg132
g2515
sg133
I0
sg134
I0
sg135
I0
sg136
I0
sg137
I7
sg138
I0
sg139
I0
sg140
g1788
sbsS'n1'
p2517
(ijoueur
joueur
p2518
(dp2519
g28
I0
sg29
I0
sg30
I0
sg32
g33
sg34
I0
sg35
g33
sg37
g0
(g38
g2
Ntp2520
Rp2521
(dp2522
g42
I2
sg43
g2176
sg45
g1558
sbsg47
(dp2523
g1548
I0
sg1549
I0
sg1550
I0
sg1551
I0
ssg53
(dp2524
g1548
I0
sg1549
I0
sg1550
I0
sg1551
I0
ssg56
g33
sg57
I0
sg59
I0
sg60
I0
sg61
I0
sg62
g1553
sg64
I00
sg65
g0
(g38
g2
Ntp2525
Rp2526
(dp2527
g42
I1
sg43
S'^'
p2528
sg45
S'base'
p2529
sbsg66
(dp2530
g1548
I0
sg1549
I0
sg1550
I0
sg1551
I0
ssg68
I00
sg69
(dp2531
g1548
I0
sg1549
I0
sg1550
I0
sg1551
I0
ssg71
(dp2532
g1548
I0
sg1549
I0
sg1550
I0
sg1551
I0
ssg73
I0
sg74
I0
sg75
S'Stedhal'
p2533
sg77
I13
sg78
I0
sg55
I23
sg80
I22
sg111
(g1563
g1916
g33
g33
tp2534
sg83
g33
sg84
(dp2535
g1569
I9
sg1570
I12
sg1571
I6
sg1572
I9
sg1573
I9
sg1574
I7
sg1575
I2
sg1576
I9
sg1577
I4
sg1578
I8
sg1579
I8
sg1580
I9
sg1581
I3
sg1582
I10
sg1583
I7
ssg101
(dp2536
sg122
I0
sg123
g33
sg124
I0
sg125
I0
sg126
I0
sg127
F9.518518518518519
sg128
I0
sg129
(dp2537
g1548
I0
sg1549
I0
sg1550
I0
sg1551
I0
ssg131
I0
sg132
(dp2538
g1569
I9
sg1570
I12
sg1571
I6
sg1572
I9
sg1577
I4
sg1575
I2
sg1574
I7
sg1576
I9
sg1573
I9
sg1578
I8
sg1579
I8
sg1580
I9
sg1581
I3
sg1582
I10
sg1583
I7
ssg133
I0
sg134
I0
sg135
I0
sg136
I0
sg137
I2
sg138
I0
sg139
I0
sg140
g1587
sbsS'n2'
p2539
(ijoueur
joueur
p2540
(dp2541
g28
I0
sg29
I0
sg30
I0
sg32
g33
sg34
I0
sg35
g33
sg37
g0
(g38
g2
Ntp2542
Rp2543
(dp2544
g42
I4
sg43
g2367
sg45
g1546
sbsg47
(dp2545
g1548
I0
sg1549
I0
sg1550
I0
sg1551
I0
ssg53
(dp2546
g1548
I0
sg1549
I0
sg1550
I0
sg1551
I0
ssg56
g33
sg57
I0
sg59
I0
sg60
I0
sg61
I0
sg62
g1553
sg64
I00
sg65
g2543
sg66
(dp2547
g1548
I0
sg1549
I0
sg1550
I0
sg1551
I0
ssg68
I00
sg69
(dp2548
g1548
I0
sg1549
I0
sg1550
I0
sg1551
I0
ssg71
(dp2549
g1548
I0
sg1549
I0
sg1550
I0
sg1551
I0
ssg73
I0
sg74
I0
sg75
S'Rhokled'
p2550
sg77
I9
sg78
I0
sg55
I18
sg80
I120
sg111
(g1563
g1583
S'PI'
p2551
g33
tp2552
sg83
g33
sg84
(dp2553
g1569
I9
sg1570
I10
sg1571
I8
sg1572
I9
sg1573
I9
sg1574
I7
sg1575
I6
sg1576
I10
sg1577
I6
sg1578
I10
sg1579
I12
sg1580
I8
sg1581
I4
sg1582
I11
sg1583
I10
ssg101
(dp2554
S's12'
p2555
(ijoueur
joueur
p2556
(dp2557
g28
I0
sg29
I0
sg30
I0
sg34
I0
sg37
g0
(g38
g2
Ntp2558
Rp2559
(dp2560
g43
g33
sbsg47
(dp2561
g1548
I0
sg1549
I0
sg1550
I0
sg1551
I0
ssg53
(dp2562
g1548
I0
sg1549
I0
sg1550
I0
sg1551
I0
ssg56
g33
sg57
I0
sg59
I0
sg60
I0
sg61
I0
sg111
(g1563
g1583
g33
g33
tp2563
sg64
I00
sg65
g0
(g38
g2
Ntp2564
Rp2565
(dp2566
g43
g33
sbsg66
(dp2567
g1548
I0
sg1549
I0
sg1550
I0
sg1551
I0
ssg68
I00
sg69
(dp2568
g1548
I0
sg1549
I0
sg1550
I0
sg1551
I0
ssg71
(dp2569
g1548
I0
sg1549
I0
sg1550
I0
sg1551
I0
ssg73
I0
sg74
I0
sg75
S'Rhokled (12)'
p2570
sg77
I0
sg78
I0
sg55
I0
sg80
I0
sg62
g33
sg84
(dp2571
g1579
I0
sg1570
I0
sg1571
I0
sg1572
I0
sg1577
I0
sg1569
I0
sg1575
I0
sg1576
I0
sg1573
I0
sg1578
I0
sg1574
I0
sg1580
I0
sg1581
I0
sg1582
I0
sg1583
I0
ssg101
(dp2572
sg122
I0
sg123
g33
sg124
I0
sg125
I0
sg126
I0
sg127
F0.0
sg128
I0
sg129
(dp2573
g1548
I0
sg1549
I0
sg1550
I0
sg1551
I0
ssg131
I0
sg132
(dp2574
g1569
I9
sg1570
I10
sg1571
I8
sg1572
I9
sg1577
I6
sg1575
I6
sg1574
I7
sg1576
I10
sg1573
I9
sg1578
I10
sg1579
I12
sg1580
I8
sg1581
I4
sg1582
I11
sg1583
I10
ssg133
I0
sg134
I0
sg135
I0
sg136
I0
sg137
I0
sg138
I0
sg139
I0
sg140
g33
sbsS's11'
p2575
(ijoueur
joueur
p2576
(dp2577
g28
I0
sg29
I0
sg30
I0
sg34
I0
sg37
g0
(g38
g2
Ntp2578
Rp2579
(dp2580
g43
g33
sbsg47
(dp2581
g1548
I0
sg1549
I0
sg1550
I0
sg1551
I0
ssg53
(dp2582
g1548
I0
sg1549
I0
sg1550
I0
sg1551
I0
ssg56
g33
sg57
I0
sg59
I0
sg60
I0
sg61
I0
sg111
g2563
sg64
I00
sg65
g0
(g38
g2
Ntp2583
Rp2584
(dp2585
g43
g33
sbsg66
(dp2586
g1548
I0
sg1549
I0
sg1550
I0
sg1551
I0
ssg68
I00
sg69
(dp2587
g1548
I0
sg1549
I0
sg1550
I0
sg1551
I0
ssg71
(dp2588
g1548
I0
sg1549
I0
sg1550
I0
sg1551
I0
ssg73
I0
sg74
I0
sg75
S'Rhokled (11)'
p2589
sg77
I0
sg78
I0
sg55
I0
sg80
I0
sg62
g33
sg84
(dp2590
g1579
I0
sg1570
I0
sg1571
I0
sg1572
I0
sg1577
I0
sg1569
I0
sg1575
I0
sg1576
I0
sg1573
I0
sg1578
I0
sg1574
I0
sg1580
I0
sg1581
I0
sg1582
I0
sg1583
I0
ssg101
(dp2591
sg122
I0
sg123
g33
sg124
I0
sg125
I0
sg126
I0
sg127
F0.0
sg128
I0
sg129
(dp2592
g1548
I0
sg1549
I0
sg1550
I0
sg1551
I0
ssg131
I0
sg132
g2574
sg133
I0
sg134
I0
sg135
I0
sg136
I0
sg137
I0
sg138
I0
sg139
I0
sg140
g33
sbssg122
I0
sg123
g33
sg124
I0
sg125
I0
sg126
I0
sg127
F9.620689655172415
sg128
I0
sg129
(dp2593
g1548
I0
sg1549
I0
sg1550
I0
sg1551
I0
ssg131
I0
sg132
g2574
sg133
I0
sg134
I0
sg135
I0
sg136
I0
sg137
I12
sg138
I0
sg139
I0
sg140
g1587
sbsS'n3'
p2594
g1904
sS'n4'
p2595
g1845
sS'n5'
p2596
(ijoueur
joueur
p2597
(dp2598
g28
I0
sg29
I0
sg30
I0
sg32
g33
sg34
I0
sg35
g33
sg37
g0
(g38
g2
Ntp2599
Rp2600
(dp2601
g42
I4
sg43
g2367
sg45
g1546
sbsg47
(dp2602
g1548
I0
sg1549
I0
sg1550
I0
sg1551
I0
ssg53
(dp2603
g1548
I0
sg1549
I0
sg1550
I0
sg1551
I0
ssg56
g33
sg57
I0
sg59
I0
sg60
I0
sg61
I0
sg62
g1553
sg64
I00
sg65
g2600
sg66
(dp2604
g1548
I0
sg1549
I0
sg1550
I0
sg1551
I0
ssg68
I00
sg69
(dp2605
g1548
I0
sg1549
I0
sg1550
I0
sg1551
I0
ssg71
(dp2606
g1548
I0
sg1549
I0
sg1550
I0
sg1551
I0
ssg73
I0
sg74
I0
sg75
S'Ryenmror'
p2607
sg77
I5
sg78
I0
sg55
I16
sg80
I128
sg111
(g1563
g1916
S'DL'
p2608
S'TA'
p2609
tp2610
sg83
g33
sg84
(dp2611
g1569
I9
sg1570
I11
sg1571
I9
sg1572
I8
sg1573
I11
sg1574
I7
sg1575
I3
sg1576
I11
sg1577
I5
sg1578
I9
sg1579
I9
sg1580
I8
sg1581
I3
sg1582
I10
sg1583
I9
ssg101
(dp2612
S's12'
p2613
(ijoueur
joueur
p2614
(dp2615
g28
I0
sg29
I0
sg30
I0
sg34
I0
sg37
g0
(g38
g2
Ntp2616
Rp2617
(dp2618
g43
g33
sbsg47
(dp2619
g1548
I0
sg1549
I0
sg1550
I0
sg1551
I0
ssg53
(dp2620
g1548
I0
sg1549
I0
sg1550
I0
sg1551
I0
ssg56
g33
sg57
I0
sg59
I0
sg60
I0
sg61
I0
sg111
(g1563
g1916
g33
g33
tp2621
sg64
I00
sg65
g0
(g38
g2
Ntp2622
Rp2623
(dp2624
g43
g33
sbsg66
(dp2625
g1548
I0
sg1549
I0
sg1550
I0
sg1551
I0
ssg68
I00
sg69
(dp2626
g1548
I0
sg1549
I0
sg1550
I0
sg1551
I0
ssg71
(dp2627
g1548
I0
sg1549
I0
sg1550
I0
sg1551
I0
ssg73
I0
sg74
I0
sg75
S'Ryenmror (12)'
p2628
sg77
I0
sg78
I0
sg55
I0
sg80
I0
sg62
g33
sg84
(dp2629
g1579
I0
sg1570
I0
sg1571
I0
sg1572
I0
sg1577
I0
sg1569
I0
sg1575
I0
sg1576
I0
sg1573
I0
sg1578
I0
sg1574
I0
sg1580
I0
sg1581
I0
sg1582
I0
sg1583
I0
ssg101
(dp2630
sg122
I0
sg123
g33
sg124
I0
sg125
I0
sg126
I0
sg127
F0.0
sg128
I0
sg129
(dp2631
g1548
I0
sg1549
I0
sg1550
I0
sg1551
I0
ssg131
I0
sg132
(dp2632
g1569
I9
sg1570
I11
sg1571
I9
sg1572
I8
sg1577
I5
sg1575
I3
sg1574
I7
sg1576
I11
sg1573
I11
sg1578
I9
sg1579
I9
sg1580
I8
sg1581
I3
sg1582
I10
sg1583
I9
ssg133
I0
sg134
I0
sg135
I0
sg136
I0
sg137
I0
sg138
I0
sg139
I0
sg140
g33
sbsS's11'
p2633
(ijoueur
joueur
p2634
(dp2635
g28
I0
sg29
I0
sg30
I0
sg34
I0
sg37
g0
(g38
g2
Ntp2636
Rp2637
(dp2638
g43
g33
sbsg47
(dp2639
g1548
I0
sg1549
I0
sg1550
I0
sg1551
I0
ssg53
(dp2640
g1548
I0
sg1549
I0
sg1550
I0
sg1551
I0
ssg56
g33
sg57
I0
sg59
I0
sg60
I0
sg61
I0
sg111
g2621
sg64
I00
sg65
g0
(g38
g2
Ntp2641
Rp2642
(dp2643
g43
g33
sbsg66
(dp2644
g1548
I0
sg1549
I0
sg1550
I0
sg1551
I0
ssg68
I00
sg69
(dp2645
g1548
I0
sg1549
I0
sg1550
I0
sg1551
I0
ssg71
(dp2646
g1548
I0
sg1549
I0
sg1550
I0
sg1551
I0
ssg73
I0
sg74
I0
sg75
S'Ryenmror (11)'
p2647
sg77
I0
sg78
I0
sg55
I0
sg80
I0
sg62
g33
sg84
(dp2648
g1579
I0
sg1570
I0
sg1571
I0
sg1572
I0
sg1577
I0
sg1569
I0
sg1575
I0
sg1576
I0
sg1573
I0
sg1578
I0
sg1574
I0
sg1580
I0
sg1581
I0
sg1582
I0
sg1583
I0
ssg101
(dp2649
sg122
I0
sg123
g33
sg124
I0
sg125
I0
sg126
I0
sg127
F0.0
sg128
I0
sg129
(dp2650
g1548
I0
sg1549
I0
sg1550
I0
sg1551
I0
ssg131
I0
sg132
g2632
sg133
I0
sg134
I0
sg135
I0
sg136
I0
sg137
I0
sg138
I0
sg139
I0
sg140
g33
sbssg122
I0
sg123
g33
sg124
I0
sg125
I0
sg126
I0
sg127
F9.705882352941176
sg128
I0
sg129
(dp2651
g1548
I0
sg1549
I0
sg1550
I0
sg1551
I0
ssg131
I0
sg132
g2632
sg133
I0
sg134
I0
sg135
I0
sg136
I0
sg137
I12
sg138
I0
sg139
I0
sg140
g1587
sbsS'n6'
p2652
g1540
sS'n7'
p2653
g1790
ssS'remplacements'
p2654
(dp2655
g2040
S'n0'
p2656
sg2095
g2656
sg2228
g2656
sg2284
g2656
sg2304
g2656
sg2361
g2656
sg2419
g2656
ssbsS'fatigue_prise_en_compte'
p2657
I01
sS'nuls_championat'
p2658
I1
sb.