(iclub
compo
p0
(dp1
S'caracs_old'
p2
(dp3
S'A'
p4
F202.5
sS'ME'
p5
F111.25
sS'E'
p6
F206.5
sS'OplusAV'
p7
F101.25
sS'OplusAR'
p8
F134.75
sS'JP'
p9
F107.0
sS'PA'
p10
F129.5
sS'M'
p11
F115.5
sS'OmoinsAR'
p12
F123.0
sS'TO_off'
p13
F152.75
sS'TO_def'
p14
F146.0
sS'OmoinsAV'
p15
F116.0
sS'R'
p16
F210.0
ssS'totaux_old'
p17
(dp18
S'T2'
p19
F219.5
sS'T3'
p20
F103.25
sS'T1'
p21
F235.25
ssS'roles'
p22
(dp23
S'SA_scd'
p24
(ijoueur
joueur
p25
(dp26
S'EV_saison_11'
p27
F9.689655172413794
sS'rouges_total'
p28
I0
sS'EV_saison_12'
p29
F9.344827586206897
sS'residu_experience'
p30
F13.5
sS'changements_postes'
p31
S''
p32
sS'drops_total'
p33
I0
sS'xp_total'
p34
F221.76276750042618
sS'blessure'
p35
I0
sS'points_retraite'
p36
I0
sS'RG_max'
p37
ccopy_reg
_reconstructor
p38
(cjoueur
rang_new
p39
c__builtin__
object
p40
Ntp41
Rp42
(dp43
S'type_nb'
p44
I5
sS'rang'
p45
S'**'
p46
sS'type'
p47
S'seigneur'
p48
sbsS'caracs_saison_13'
p49
(dp50
sS'MJ2_total'
p51
(dp52
S'SR'
p53
I2
sS'CT'
p54
I1
sS'CR'
p55
I8
sS'ST'
p56
I0
ssS'EV_saison_13'
p57
F10.916666666666666
sS'xp'
p58
I0
sS'rand_retraite'
p59
I10
sS'drop_rates_total'
p60
I0
sS'carte_evolution'
p61
(dp62
S'couleur'
p63
I2
sS'valeur'
p64
I10
sS'r_n'
p65
S'r'
p66
ssS'drop_rates_saison'
p67
I0
sS'transformations'
p68
I0
sS'penalites'
p69
I0
sS'nouveau_bonus_evolution'
p70
I01
sS'num_dernier_bonus'
p71
I6
sS'essais_saison'
p72
I0
sS'penalite_ratees_saison'
p73
I0
sS'transformations_saison'
p74
I0
sS'bonus'
p75
I1
sS'veut_partir'
p76
I00
sS'experience_total'
p77
F15.0
sS'MJ1'
p78
(dp79
S'SR'
p80
I0
sS'CT'
p81
I0
sS'CR'
p82
I0
sS'ST'
p83
I0
ssS'MS_probleme'
p84
I00
sS'MJ3'
p85
(dp86
g80
I0
sg81
I0
sg82
I0
sg83
I0
ssS'MJ1_total'
p87
(dp88
g53
I2
sg54
I6
sg55
I4
sg56
I2
ssS'penalites_total'
p89
I0
sS'postes_maitrises'
p90
(lp91
S'dummy'
p92
aI01
aI01
aI01
asS'penalites_saison'
p93
I0
sS'nom'
p94
S'Karss'
p95
sS'C'
p96
I11
sS'transformations_total'
p97
I0
sS'MJ2'
p98
(dp99
g80
I0
sg81
I0
sg82
I0
sg83
I0
ssS'VAL'
p100
I101
sS'club'
p101
S'TA'
p102
sS'retraite'
p103
I00
sS'D'
p104
I22
sS'caracs'
p105
(dp106
S'A'
p107
I16
sS'ME'
p108
I10
sS'RP2'
p109
I9
sS'E'
p110
I10
sS'TO'
p111
I13
sS'RP1'
p112
I10
sS'JP'
p113
I10
sS'RP_tot'
p114
I11
sS'P'
p115
I9
sS'PA'
p116
I11
sS'M'
p117
I9
sS'R'
p118
I10
sS'TB'
p119
I9
sS'PL'
p120
I10
sS'TA'
p121
I6
ssS'caracs_sans_fatigue'
p122
(dp123
g107
I16
sg108
I10
sg109
I9
sg110
I10
sg115
I9
sg112
I10
sg113
I10
sg114
I11
sg111
I13
sg116
I11
sg117
I9
sg118
I10
sg119
I9
sg120
I10
sg121
I6
ssS'RG'
p124
g42
sS'fatigue'
p125
I0
sS'drop_ratees_total'
p126
I0
sS'blessures_total'
p127
I0
sS'experience_saison'
p128
I0
sS'XP'
p129
I0
sS'EV'
p130
F11.222222222222221
sS'penalite_ratees_total'
p131
I0
sS'postes'
p132
(S'dummy'
p133
S'N8'
p134
S'TL'
p135
S'DL'
p136
tp137
sS'MJ3_total'
p138
(dp139
g53
I4
sg54
I8
sg55
I17
sg56
I1
ssS'xp_saison'
p140
F221.76276750042618
sS'evolution'
p141
I-2
sS'drops'
p142
I0
sS'blessures_saison'
p143
I0
sS'jj_passe'
p144
(dp145
S's13'
p146
(ijoueur
joueur
p147
(dp148
g28
I0
sg30
F1.5
sg126
I0
sg33
I0
sg71
I7
sg35
I0
sg37
g42
sg51
(dp149
S'SR'
p150
I0
sS'ST'
p151
I0
sS'CR'
p152
I0
sS'CT'
p153
I0
ssg138
g139
sS'anciens_clubs'
p154
g32
sS'MS'
p155
I7
sg61
(dp156
S'couleur'
p157
I1
sS'valeur'
p158
I1
sS'r_n'
p159
S'n'
p160
ssg67
I0
sg72
I1
sg73
I0
sg74
I0
sg101
g102
sg76
I00
sg124
g38
(g39
g40
Ntp161
Rp162
(dp163
g44
I4
sg45
S'*'
p164
sg47
S'heros'
p165
sbsg77
F1.0
sg84
I00
sg85
(dp166
S'SR'
p167
I3
sS'ST'
p168
I1
sS'CR'
p169
I8
sS'CT'
p170
I5
ssg87
g88
sg89
I0
sg90
(lp171
S'dummy'
p172
aI01
aI01
aI01
asg78
(dp173
g167
I0
sg168
I1
sg169
I0
sg170
I2
ssg94
S'Karss (13)'
p174
sg96
I11
sg97
I0
sg104
I22
sg100
I81
sg132
g137
sg105
(dp175
S'A'
p176
I0
sS'ME'
p177
I0
sS'RP2'
p178
I0
sS'E'
p179
I0
sS'TO'
p180
I0
sS'RP1'
p181
I0
sS'JP'
p182
I0
sS'RP_tot'
p183
I0
sS'P'
p184
I0
sS'PA'
p185
I0
sS'M'
p186
I0
sS'R'
p187
I0
sS'TB'
p188
I0
sS'PL'
p189
I0
sS'TA'
p190
I0
ssg144
(dp191
sg125
I0
sg31
g32
sg127
I0
sg128
F15.0
sg129
I0
sg130
F10.916666666666666
sg131
I0
sg141
I0
sg98
(dp192
g167
I1
sg168
I0
sg169
I0
sg170
I0
ssS'jaunes_total'
p193
I0
sg122
(dp194
S'A'
p195
I15
sS'ME'
p196
I10
sS'RP2'
p197
I8
sS'E'
p198
I10
sS'TO'
p199
I12
sS'RP1'
p200
I11
sS'JP'
p201
I8
sS'RP_tot'
p202
I12
sS'P'
p203
I8
sS'PA'
p204
I10
sS'M'
p205
I9
sS'R'
p206
I10
sS'TB'
p207
I7
sS'PL'
p208
I9
sS'TA'
p209
I6
ssS'rouges_saison'
p210
I0
sS'transformation_ratees_total'
p211
I0
sS'drops_saison'
p212
I0
sS'transformation_ratees_saison'
p213
I0
sg75
I0
sS'essais_total'
p214
I0
sg143
I0
sg93
I0
sS'jaunes_saison'
p215
I0
sS'ARM'
p216
S'S'
p217
sbsS's12'
p218
(ijoueur
joueur
p219
(dp220
g27
F9.689655172413794
sg28
I0
sg30
F6.5
sg31
g32
sg33
I0
sg71
I5
sg35
I0
sg37
g38
(g39
g40
Ntp221
Rp222
(dp223
g44
I5
sg45
S'**'
p224
sg47
S'seigneur'
p225
sbsg51
(dp226
S'SR'
p227
I1
sS'CT'
p228
I1
sS'CR'
p229
I8
sS'ST'
p230
I0
ssg138
(dp231
g227
I1
sg228
I3
sg229
I9
sg230
I0
ssg60
I0
sg155
I2
sg61
(dp232
g157
I1
sg158
I1
sg159
g160
ssg67
I0
sg68
I0
sg69
I0
sg72
I0
sg73
I0
sg74
I0
sg101
S'TA'
p233
sg76
I00
sg77
F9.0
sg78
(dp234
S'SR'
p235
I0
sS'CT'
p236
I0
sS'CR'
p237
I0
sS'ST'
p238
I1
ssg84
I01
sg85
(dp239
g235
I0
sg236
I3
sg237
I9
sg238
I0
ssg87
(dp240
g227
I2
sg228
I4
sg229
I4
sg230
I1
ssg89
I0
sg90
(lp241
g172
aI01
aI01
aI01
asg93
I0
sg94
S'Karss (12)'
p242
sg96
I11
sg97
I0
sg104
I22
sg100
I29
sg132
(S'dummy'
p243
S'N8'
p244
S'TL'
p245
S'DL'
p246
tp247
sg105
(dp248
S'A'
p249
I12
sS'ME'
p250
I9
sS'RP2'
p251
I6
sS'E'
p252
I9
sS'P'
p253
I5
sS'RP1'
p254
I10
sS'JP'
p255
I6
sS'RP_tot'
p256
I10
sS'TO'
p257
I9
sS'PA'
p258
I8
sS'M'
p259
I9
sS'R'
p260
I10
sS'TB'
p261
I5
sS'PL'
p262
I7
sS'TA'
p263
I6
ssg124
g38
(g39
g40
Ntp264
Rp265
(dp266
g44
I3
sg45
S'^^^'
p267
sg47
S'rare'
p268
sbsg125
I0
sg126
I0
sg127
I0
sg128
F9.0
sg129
I0
sg130
F9.344827586206897
sg131
I0
sg141
I0
sg142
I0
sg98
(dp269
g235
I0
sg236
I0
sg237
I1
sg238
I0
ssg144
(dp270
S's11'
p271
(ijoueur
joueur
p272
(dp273
g28
I0
sg33
I0
sg35
I0
sg37
g38
(g39
g40
Ntp274
Rp275
(dp276
g44
I5
sg45
S'**'
p277
sg47
S'seigneur'
p278
sbsg51
(dp279
S'SR'
p280
I1
sS'CT'
p281
I1
sS'CR'
p282
I7
sS'ST'
p283
I0
ssg138
(dp284
g280
I1
sg281
I0
sg282
I0
sg283
I0
ssg60
I0
sg130
F9.689655172413794
sg67
I0
sg68
I0
sg69
I0
sg72
I2
sg73
I0
sg74
I0
sg132
(S'dummy'
p285
S'N8'
p286
S'TL'
p287
S'DL'
p288
tp289
sg76
I00
sg124
g38
(g39
g40
Ntp290
Rp291
(dp292
g44
I2
sg45
S'<<'
p293
sg47
S'special'
p294
sbsg78
(dp295
g280
I2
sg281
I4
sg282
I4
sg283
I0
ssg84
I01
sg85
(dp296
g280
I1
sg281
I0
sg282
I0
sg283
I0
ssg87
(dp297
g280
I2
sg281
I4
sg282
I4
sg283
I0
ssg89
I0
sg93
I0
sg94
S'Karss'
p298
sg96
I11
sg97
I0
sg104
I22
sg100
I25
sg101
S'TA'
p299
sg105
(dp300
S'A'
p301
I12
sS'ME'
p302
I9
sS'RP2'
p303
I6
sS'E'
p304
I9
sS'P'
p305
I5
sS'RP1'
p306
I11
sS'JP'
p307
I6
sS'RP_tot'
p308
I11
sS'TO'
p309
I9
sS'PA'
p310
I8
sS'M'
p311
I9
sS'R'
p312
I10
sS'TB'
p313
I5
sS'PL'
p314
I8
sS'TA'
p315
I6
ssg125
I0
sg126
I0
sg127
I0
sg129
I0
sg98
(dp316
g280
I1
sg281
I1
sg282
I7
sg283
I0
ssg131
I0
sg142
I0
sg143
I0
sg193
I0
sS'caracs_saison_11'
p317
(dp318
S'A'
p319
I12
sS'ME'
p320
I9
sS'RP2'
p321
I6
sS'E'
p322
I9
sS'P'
p323
I5
sS'RP1'
p324
I11
sS'JP'
p325
I6
sS'RP_tot'
p326
I11
sS'TO'
p327
I9
sS'PA'
p328
I8
sS'M'
p329
I9
sS'R'
p330
I10
sS'TB'
p331
I5
sS'PL'
p332
I8
sS'TA'
p333
I6
ssg122
g300
sg210
I0
sg154
g32
sg211
I0
sg212
I0
sg213
I0
sg155
I2
sg214
I2
sg215
I0
sg216
S'S'
p334
sbssg193
I0
sg317
(dp335
S'A'
p336
I12
sS'ME'
p337
I9
sS'RP2'
p338
I6
sS'E'
p339
I9
sS'P'
p340
I5
sS'RP1'
p341
I11
sS'JP'
p342
I6
sS'RP_tot'
p343
I11
sS'TO'
p344
I9
sS'PA'
p345
I8
sS'M'
p346
I9
sS'R'
p347
I10
sS'TB'
p348
I5
sS'PL'
p349
I8
sS'TA'
p350
I6
ssg122
g248
sg210
I0
sg154
g32
sg211
I0
sg212
I0
sg213
I0
sg75
I0
sg214
I2
sg143
I0
sg215
I0
sg216
S'S'
p351
sbsS's11'
p352
(ijoueur
joueur
p353
(dp354
g28
I0
sg30
F2.5
sg33
I0
sg71
I4
sg35
I0
sg37
g38
(g39
g40
Ntp355
Rp356
(dp357
g44
I5
sg45
S'**'
p358
sg47
S'seigneur'
p359
sbsg51
(dp360
S'SR'
p361
I1
sS'CT'
p362
I1
sS'CR'
p363
I7
sS'ST'
p364
I0
ssg138
(dp365
g361
I1
sg362
I0
sg363
I0
sg364
I0
ssg60
I0
sg155
I2
sg61
(dp366
g157
I1
sg158
I1
sg159
g160
ssg67
I0
sg68
I0
sg69
I0
sg72
I2
sg73
I0
sg74
I0
sg101
S'TA'
p367
sg76
I00
sg77
F12.5
sg78
(dp368
g361
I2
sg362
I4
sg363
I4
sg364
I0
ssg84
I01
sg85
(dp369
g361
I1
sg362
I0
sg363
I0
sg364
I0
ssg87
(dp370
g361
I2
sg362
I4
sg363
I4
sg364
I0
ssg89
I0
sg90
(lp371
g172
aI01
aI01
aI01
asg93
I0
sg94
S'Karss (11)'
p372
sg96
I11
sg97
I0
sg104
I22
sg100
I25
sg132
(S'dummy'
p373
S'N8'
p374
S'TL'
p375
S'DL'
p376
tp377
sg105
(dp378
S'A'
p379
I12
sS'ME'
p380
I9
sS'RP2'
p381
I6
sS'E'
p382
I9
sS'P'
p383
I5
sS'RP1'
p384
I11
sS'JP'
p385
I6
sS'RP_tot'
p386
I11
sS'TO'
p387
I9
sS'PA'
p388
I8
sS'M'
p389
I9
sS'R'
p390
I10
sS'TB'
p391
I5
sS'PL'
p392
I8
sS'TA'
p393
I6
ssg124
g38
(g39
g40
Ntp394
Rp395
(dp396
g44
I2
sg45
S'<<'
p397
sg47
S'special'
p398
sbsg125
I0
sg126
I0
sg127
I0
sg128
F12.5
sg129
I0
sg130
F9.689655172413794
sg131
I0
sg141
I0
sg142
I0
sg98
(dp399
g361
I1
sg362
I1
sg363
I7
sg364
I0
ssg193
I0
sg317
(dp400
S'A'
p401
I12
sS'ME'
p402
I9
sS'RP2'
p403
I6
sS'E'
p404
I9
sS'P'
p405
I5
sS'RP1'
p406
I11
sS'JP'
p407
I6
sS'RP_tot'
p408
I11
sS'TO'
p409
I9
sS'PA'
p410
I8
sS'M'
p411
I9
sS'R'
p412
I10
sS'TB'
p413
I5
sS'PL'
p414
I8
sS'TA'
p415
I6
ssg122
g378
sg210
I0
sg154
g32
sg211
I0
sg212
I0
sg213
I0
sg75
I0
sg214
I2
sg143
I0
sg215
I0
sg216
S'S'
p416
sbssg193
I0
sg317
(dp417
S'A'
p418
I12
sS'ME'
p419
I9
sS'RP2'
p420
I6
sS'E'
p421
I9
sS'P'
p422
I5
sS'RP1'
p423
I11
sS'JP'
p424
I6
sS'RP_tot'
p425
I11
sS'TO'
p426
I9
sS'PA'
p427
I8
sS'M'
p428
I9
sS'R'
p429
I10
sS'TB'
p430
I5
sS'PL'
p431
I8
sS'TA'
p432
I6
ssg210
I0
sS'caracs_saison_12'
p433
(dp434
sg211
I0
sg154
g32
sg212
I0
sg213
I0
sg155
I9
sg214
I3
sg215
I0
sg216
g217
sbsS'drop3'
p435
(ijoueur
joueur
p436
(dp437
g27
F12.419354838709678
sg28
I1
sg29
F12.741935483870968
sg30
F12.5
sg31
g32
sg33
I2
sg34
F193.23578423282603
sg35
I0
sg36
I0
sg37
g38
(g39
g40
Ntp438
Rp439
(dp440
g44
I5
sg45
S'xx'
p441
sg47
S'seigneur'
p442
sbsg49
(dp443
sg51
(dp444
S'SR'
p445
I0
sS'CT'
p446
I37
sS'CR'
p447
I0
sS'ST'
p448
I20
ssg57
F12.67741935483871
sg58
I0
sg59
I10
sg60
I0
sg61
(dp449
S'couleur'
p450
I1
sS'valeur'
p451
I3
sS'r_n'
p452
S'n'
p453
ssg67
I0
sg140
F193.23578423282603
sg70
I00
sg71
I6
sg72
I0
sg73
I0
sg74
I0
sg75
I2
sg76
I00
sg77
F18.0
sg78
(dp454
S'SR'
p455
I0
sS'ST'
p456
I0
sS'CR'
p457
I0
sS'CT'
p458
I0
ssg98
(dp459
g455
I0
sg456
I0
sg457
I0
sg458
I0
ssg85
(dp460
g455
I0
sg456
I0
sg457
I0
sg458
I0
ssg87
(dp461
g445
I0
sg446
I3
sg447
I1
sg448
I0
ssg89
I0
sg90
(lp462
S'dummy'
p463
aI01
aI01
aI00
asg93
I0
sg94
S'Croskhaen'
p464
sg96
I7
sg97
I0
sg84
I00
sg100
I483
sg101
S'SN'
p465
sg103
I00
sg104
I21
sg105
(dp466
S'A'
p467
I14
sS'ME'
p468
I8
sS'RP2'
p469
I11
sS'E'
p470
I10
sS'TO'
p471
I13
sS'RP1'
p472
I9
sS'JP'
p473
I11
sS'RP_tot'
p474
I12
sS'P'
p475
I10
sS'PA'
p476
I16
sS'M'
p477
I13
sS'R'
p478
I13
sS'TB'
p479
I6
sS'PL'
p480
I14
sS'TA'
p481
I5
ssg122
(dp482
g467
I14
sg468
I8
sg469
I11
sg470
I10
sg475
I10
sg472
I9
sg473
I11
sg474
I12
sg471
I13
sg476
I16
sg477
I13
sg478
I13
sg479
I6
sg480
I14
sg481
I5
ssg124
g38
(g39
g40
Ntp483
Rp484
(dp485
g44
I5
sg45
S'xx'
p486
sg47
g442
sbsg125
I0
sg126
I0
sg127
I1
sg128
I0
sg129
I0
sg130
F12.870967741935484
sg131
I0
sg132
(S'dummy'
p487
S'AI'
p488
S'CE'
p489
g32
tp490
sg138
(dp491
g445
I0
sg446
I0
sg447
I0
sg448
I0
ssg141
I3
sg143
I0
sg144
(dp492
S's13'
p493
(ijoueur
joueur
p494
(dp495
g28
I0
sg30
F12.5
sg126
I0
sg33
I0
sg71
I6
sg35
I0
sg37
g439
sg51
(dp496
S'SR'
p497
I0
sS'ST'
p498
I0
sS'CR'
p499
I0
sS'CT'
p500
I0
ssg138
g491
sg154
g32
sg155
I49
sg61
(dp501
S'couleur'
p502
I1
sS'valeur'
p503
I1
sS'r_n'
p504
S'n'
p505
ssg67
I0
sg72
I1
sg73
I0
sg74
I0
sg101
g465
sg76
I00
sg124
g484
sg77
F10.5
sg84
I00
sg85
(dp506
S'SR'
p507
I0
sS'ST'
p508
I0
sS'CR'
p509
I0
sS'CT'
p510
I0
ssg87
g461
sg89
I0
sg90
(lp511
S'dummy'
p512
aI01
aI01
aI00
asg78
(dp513
g507
I0
sg508
I0
sg509
I0
sg510
I1
ssg94
S'Croskhaen (13)'
p514
sg96
I7
sg97
I0
sg104
I21
sg100
I483
sg132
g490
sg105
(dp515
S'A'
p516
I0
sS'ME'
p517
I0
sS'RP2'
p518
I0
sS'E'
p519
I0
sS'TO'
p520
I0
sS'RP1'
p521
I0
sS'JP'
p522
I0
sS'RP_tot'
p523
I0
sS'P'
p524
I0
sS'PA'
p525
I0
sS'M'
p526
I0
sS'R'
p527
I0
sS'TB'
p528
I0
sS'PL'
p529
I0
sS'TA'
p530
I0
ssg144
(dp531
sg125
I0
sg31
g32
sg127
I0
sg128
F18.0
sg129
I0
sg130
F12.67741935483871
sg131
I0
sg141
I0
sg98
(dp532
g507
I0
sg508
I6
sg509
I0
sg510
I11
ssg193
I0
sg122
(dp533
S'A'
p534
I14
sS'ME'
p535
I8
sS'RP2'
p536
I11
sS'E'
p537
I10
sS'P'
p538
I9
sS'RP1'
p539
I9
sS'JP'
p540
I10
sS'RP_tot'
p541
I12
sS'TO'
p542
I13
sS'PA'
p543
I16
sS'M'
p544
I13
sS'R'
p545
I13
sS'TB'
p546
I6
sS'PL'
p547
I13
sS'TA'
p548
I5
ssg210
I0
sg211
I0
sg212
I1
sg213
I0
sg75
I0
sg214
I0
sg143
I0
sg93
I0
sg215
I0
sg216
S'S'
p549
sbsS's12'
p550
(ijoueur
joueur
p551
(dp552
g27
F12.419354838709678
sg28
I0
sg30
F5.5
sg31
g32
sg33
I1
sg71
I5
sg35
I0
sg37
g38
(g39
g40
Ntp553
Rp554
(dp555
g44
I5
sg45
S'xx'
p556
sg47
S'seigneur'
p557
sbsg51
(dp558
S'SR'
p559
I0
sS'CT'
p560
I26
sS'CR'
p561
I0
sS'ST'
p562
I14
ssg138
(dp563
g559
I0
sg560
I0
sg561
I0
sg562
I0
ssg60
I0
sg155
I49
sg61
(dp564
g502
I1
sg503
I1
sg504
g505
ssg67
I0
sg72
I3
sg73
I0
sg74
I0
sg101
S'SN'
p565
sg76
I00
sg124
g38
(g39
g40
Ntp566
Rp567
(dp568
g44
I5
sg45
S'xx'
p569
sg47
g557
sbsg77
F18.0
sg84
I01
sg85
(dp570
S'SR'
p571
I0
sS'ST'
p572
I0
sS'CR'
p573
I0
sS'CT'
p574
I0
ssg87
(dp575
g559
I0
sg560
I2
sg561
I1
sg562
I0
ssg89
I0
sg90
(lp576
g512
aI01
aI01
aI00
asg78
(dp577
g571
I0
sg572
I0
sg573
I1
sg574
I0
ssg94
S'Croskhaen (12)'
p578
sg96
I7
sg97
I0
sg104
I21
sg100
I483
sg132
(S'dummy'
p579
S'AI'
p580
S'CE'
p581
g32
tp582
sg105
(dp583
S'A'
p584
I14
sS'ME'
p585
I8
sS'RP2'
p586
I11
sS'E'
p587
I10
sS'P'
p588
I9
sS'RP1'
p589
I9
sS'JP'
p590
I10
sS'RP_tot'
p591
I13
sS'TO'
p592
I13
sS'PA'
p593
I15
sS'M'
p594
I13
sS'R'
p595
I12
sS'TB'
p596
I6
sS'PL'
p597
I13
sS'TA'
p598
I5
ssg144
(dp599
S's11'
p600
(ijoueur
joueur
p601
(dp602
g28
I0
sg33
I0
sg35
I0
sg37
g38
(g39
g40
Ntp603
Rp604
(dp605
g44
I5
sg45
S'xx'
p606
sg47
S'seigneur'
p607
sbsg51
(dp608
S'SR'
p609
I0
sS'ST'
p610
I8
sS'CR'
p611
I0
sS'CT'
p612
I11
ssg138
(dp613
g609
I0
sg610
I0
sg611
I0
sg612
I0
ssg60
I0
sg67
I0
sg84
I01
sg72
I0
sg73
I0
sg74
I0
sg132
(S'dummy'
p614
S'AI'
p615
S'CE'
p616
g32
tp617
sg76
I00
sg124
g38
(g39
g40
Ntp618
Rp619
(dp620
g44
I5
sg45
S'xx'
p621
sg47
g607
sbsg78
(dp622
g609
I0
sg610
I0
sg611
I0
sg612
I2
ssg98
(dp623
g609
I0
sg610
I8
sg611
I0
sg612
I11
ssg85
(dp624
g609
I0
sg610
I0
sg611
I0
sg612
I0
ssg87
(dp625
g609
I0
sg610
I0
sg611
I0
sg612
I2
ssg89
I0
sg93
I0
sg94
S'Croskhaen'
p626
sg96
I7
sg97
I0
sg104
I21
sg100
I483
sg101
S'SN'
p627
sg105
(dp628
S'A'
p629
I14
sS'ME'
p630
I8
sS'RP2'
p631
I11
sS'E'
p632
I10
sS'TO'
p633
I13
sS'RP1'
p634
I9
sS'JP'
p635
I9
sS'RP_tot'
p636
I13
sS'P'
p637
I9
sS'PA'
p638
I15
sS'M'
p639
I13
sS'R'
p640
I11
sS'TB'
p641
I6
sS'PL'
p642
I11
sS'TA'
p643
I5
ssg125
I0
sg126
I0
sg127
I0
sg129
I0
sg130
F12.419354838709678
sg131
I0
sg143
I0
sg193
I0
sg317
(dp644
S'A'
p645
I14
sS'ME'
p646
I8
sS'RP2'
p647
I11
sS'E'
p648
I10
sS'TO'
p649
I13
sS'RP1'
p650
I9
sS'JP'
p651
I9
sS'RP_tot'
p652
I13
sS'P'
p653
I9
sS'PA'
p654
I15
sS'M'
p655
I13
sS'R'
p656
I11
sS'TB'
p657
I6
sS'PL'
p658
I11
sS'TA'
p659
I5
ssg122
g628
sg210
I0
sg154
g32
sg211
I0
sg212
I0
sg213
I0
sg155
I49
sg214
I0
sg215
I0
sg216
S'S'
p660
sbssg125
I9
sg126
I0
sg127
I1
sg128
F20.5
sg129
I0
sg130
F12.741935483870968
sg131
I0
sg141
I0
sg98
(dp661
g571
I0
sg572
I5
sg573
I0
sg574
I15
ssg193
I2
sg317
(dp662
S'A'
p663
I14
sS'ME'
p664
I8
sS'RP2'
p665
I11
sS'E'
p666
I10
sS'TO'
p667
I13
sS'RP1'
p668
I9
sS'JP'
p669
I9
sS'RP_tot'
p670
I13
sS'P'
p671
I9
sS'PA'
p672
I15
sS'M'
p673
I13
sS'R'
p674
I11
sS'TB'
p675
I6
sS'PL'
p676
I11
sS'TA'
p677
I5
ssg122
g583
sg210
I0
sg154
g32
sg211
I0
sg212
I1
sg213
I0
sg75
I0
sg214
I3
sg143
I1
sg93
I0
sg215
I2
sg216
S'S'
p678
sbsS's11'
p679
(ijoueur
joueur
p680
(dp681
g28
I0
sg30
F5.0
sg33
I0
sg71
I3
sg35
I0
sg37
g38
(g39
g40
Ntp682
Rp683
(dp684
g44
I5
sg45
S'xx'
p685
sg47
S'seigneur'
p686
sbsg51
(dp687
S'SR'
p688
I0
sS'ST'
p689
I8
sS'CR'
p690
I0
sS'CT'
p691
I11
ssg138
(dp692
g688
I0
sg689
I0
sg690
I0
sg691
I0
ssg60
I0
sg155
I49
sg61
(dp693
g502
I1
sg503
I1
sg504
g505
ssg67
I0
sg72
I0
sg73
I0
sg74
I0
sg101
S'SN'
p694
sg76
I00
sg124
g38
(g39
g40
Ntp695
Rp696
(dp697
g44
I5
sg45
S'xx'
p698
sg47
g686
sbsg77
F21.0
sg84
I01
sg85
(dp699
g688
I0
sg689
I0
sg690
I0
sg691
I0
ssg87
(dp700
g688
I0
sg689
I0
sg690
I0
sg691
I2
ssg89
I0
sg90
(lp701
g512
aI01
aI01
aI00
asg93
I0
sg94
S'Croskhaen (11)'
p702
sg96
I7
sg97
I0
sg104
I21
sg100
I483
sg132
(S'dummy'
p703
S'AI'
p704
S'CE'
p705
g32
tp706
sg78
(dp707
g688
I0
sg689
I0
sg690
I0
sg691
I2
ssg105
(dp708
S'A'
p709
I14
sS'ME'
p710
I8
sS'RP2'
p711
I11
sS'E'
p712
I10
sS'TO'
p713
I13
sS'RP1'
p714
I9
sS'JP'
p715
I9
sS'RP_tot'
p716
I13
sS'P'
p717
I9
sS'PA'
p718
I15
sS'M'
p719
I13
sS'R'
p720
I11
sS'TB'
p721
I6
sS'PL'
p722
I11
sS'TA'
p723
I5
ssg125
I0
sg126
I0
sg127
I0
sg128
F21.0
sg129
I0
sg130
F12.419354838709678
sg131
I0
sg141
I0
sg98
(dp724
g688
I0
sg689
I8
sg690
I0
sg691
I11
ssg193
I0
sg317
(dp725
S'A'
p726
I14
sS'ME'
p727
I8
sS'RP2'
p728
I11
sS'E'
p729
I10
sS'TO'
p730
I13
sS'RP1'
p731
I9
sS'JP'
p732
I9
sS'RP_tot'
p733
I13
sS'P'
p734
I9
sS'PA'
p735
I15
sS'M'
p736
I13
sS'R'
p737
I11
sS'TB'
p738
I6
sS'PL'
p739
I11
sS'TA'
p740
I5
ssg122
g708
sg210
I0
sg154
g32
sg211
I0
sg212
I0
sg213
I0
sg75
I0
sg214
I0
sg143
I0
sg215
I0
sg216
S'S'
p741
sbssg193
I2
sg317
(dp742
S'A'
p743
I14
sS'ME'
p744
I8
sS'RP2'
p745
I11
sS'E'
p746
I10
sS'TO'
p747
I13
sS'RP1'
p748
I9
sS'JP'
p749
I9
sS'RP_tot'
p750
I13
sS'P'
p751
I9
sS'PA'
p752
I15
sS'M'
p753
I13
sS'R'
p754
I11
sS'TB'
p755
I6
sS'PL'
p756
I11
sS'TA'
p757
I5
ssg210
I0
sg433
(dp758
sg211
I0
sg154
g32
sg212
I0
sg213
I0
sg155
I49
sg214
I4
sg215
I0
sg216
g549
sbsS'cap'
p759
(ijoueur
joueur
p760
(dp761
g27
F11.37037037037037
sg28
I0
sg29
F12.037037037037036
sg30
F1.5
sg31
g32
sg33
I2
sg34
F214.34067569399693
sg35
I0
sg36
I0
sg37
g38
(g39
g40
Ntp762
Rp763
(dp764
g44
I5
sg45
S'**'
p765
sg47
S'seigneur'
p766
sbsg49
(dp767
sg51
(dp768
S'SR'
p769
I0
sS'ST'
p770
I14
sS'CR'
p771
I1
sS'CT'
p772
I11
ssg57
F11.666666666666666
sg58
I0
sg59
I10
sg60
I0
sg61
(dp773
S'couleur'
p774
I2
sS'valeur'
p775
I8
sS'r_n'
p776
S'r'
p777
ssg67
I0
sg140
F214.34067569399693
sg70
I00
sg71
I7
sg72
I0
sg73
I0
sg74
I0
sg75
I3
sg76
I00
sg77
F19.0
sg78
(dp778
S'SR'
p779
I0
sS'CT'
p780
I0
sS'CR'
p781
I0
sS'ST'
p782
I0
ssg98
(dp783
g779
I0
sg780
I0
sg781
I0
sg782
I0
ssg85
(dp784
g779
I0
sg780
I0
sg781
I0
sg782
I0
ssg87
(dp785
g769
I0
sg770
I6
sg771
I0
sg772
I28
ssg89
I0
sg90
(lp786
S'dummy'
p787
aI01
aI01
aI00
asg93
I0
sg94
S'Wisspe'
p788
sg96
I8
sg97
I0
sg84
I00
sg100
I200
sg101
S'MDL'
p789
sg103
I00
sg104
I23
sg105
(dp790
S'A'
p791
I14
sS'ME'
p792
I12
sS'RP2'
p793
I9
sS'E'
p794
I14
sS'P'
p795
I8
sS'RP1'
p796
I10
sS'JP'
p797
I8
sS'RP_tot'
p798
I11
sS'TO'
p799
I8
sS'PA'
p800
I12
sS'M'
p801
I11
sS'R'
p802
I10
sS'TB'
p803
I6
sS'PL'
p804
I12
sS'TA'
p805
I8
ssg122
(dp806
g791
I14
sg792
I12
sg793
I9
sg794
I14
sg799
I8
sg796
I10
sg797
I8
sg798
I11
sg795
I8
sg800
I12
sg801
I11
sg802
I10
sg803
I6
sg804
I12
sg805
I8
ssg124
g38
(g39
g40
Ntp807
Rp808
(dp809
g44
I5
sg45
S'**'
p810
sg47
g766
sbsg125
I0
sg126
I0
sg127
I0
sg128
I0
sg129
I0
sg130
F11.814814814814815
sg131
I0
sg132
(S'dummy'
p811
S'PI'
p812
S'TA'
p813
g32
tp814
sg138
(dp815
g769
I0
sg770
I0
sg771
I0
sg772
I0
ssg141
I1
sg143
I0
sg144
(dp816
S's13'
p817
(ijoueur
joueur
p818
(dp819
g28
I0
sg30
F1.5
sg126
I0
sg33
I0
sg71
I7
sg35
I0
sg37
g763
sg51
(dp820
S'SR'
p821
I0
sS'ST'
p822
I0
sS'CR'
p823
I0
sS'CT'
p824
I0
ssg138
g815
sg154
S'ED 12'
p825
sg61
(dp826
S'couleur'
p827
I1
sS'valeur'
p828
I1
sS'r_n'
p829
S'n'
p830
ssg67
I0
sg72
I1
sg73
I0
sg74
I0
sg132
g814
sg76
I00
sg124
g808
sg77
F13.5
sg84
I00
sg85
(dp831
S'SR'
p832
I0
sS'CT'
p833
I0
sS'CR'
p834
I0
sS'ST'
p835
I0
ssg87
g785
sg89
I0
sg90
(lp836
S'dummy'
p837
aI01
aI01
aI00
asg78
(dp838
g832
I0
sg833
I13
sg834
I0
sg835
I0
ssg101
g789
sg94
S'Wisspe (13)'
p839
sg96
I8
sg97
I0
sg104
I23
sg100
I200
sg75
I0
sg105
(dp840
S'A'
p841
I0
sS'ME'
p842
I0
sS'RP2'
p843
I0
sS'E'
p844
I0
sS'TO'
p845
I0
sS'RP1'
p846
I0
sS'JP'
p847
I0
sS'RP_tot'
p848
I0
sS'P'
p849
I0
sS'PA'
p850
I0
sS'M'
p851
I0
sS'R'
p852
I0
sS'TB'
p853
I0
sS'PL'
p854
I0
sS'TA'
p855
I0
ssg144
(dp856
sg125
I0
sg31
g32
sg127
I0
sg128
F19.0
sg129
I0
sg130
F11.666666666666666
sg131
I0
sg141
I0
sg98
(dp857
g832
I0
sg833
I0
sg834
I0
sg835
I6
ssg193
I0
sg122
(dp858
S'A'
p859
I14
sS'ME'
p860
I12
sS'RP2'
p861
I9
sS'E'
p862
I13
sS'TO'
p863
I8
sS'RP1'
p864
I10
sS'JP'
p865
I8
sS'RP_tot'
p866
I11
sS'P'
p867
I7
sS'PA'
p868
I12
sS'M'
p869
I11
sS'R'
p870
I10
sS'TB'
p871
I6
sS'PL'
p872
I12
sS'TA'
p873
I8
ssg210
I0
sg211
I0
sg212
I0
sg213
I0
sg155
I35
sg214
I0
sg143
I0
sg93
I0
sg215
I0
sg216
S'S'
p874
sbsS's12'
p875
(ijoueur
joueur
p876
(dp877
g27
F11.37037037037037
sg28
I0
sg30
F8.5
sg31
g32
sg33
I2
sg71
I5
sg35
I0
sg37
g38
(g39
g40
Ntp878
Rp879
(dp880
g44
I5
sg45
S'**'
p881
sg47
S'seigneur'
p882
sbsg51
(dp883
S'SR'
p884
I0
sS'ST'
p885
I8
sS'CR'
p886
I1
sS'CT'
p887
I11
ssg138
(dp888
g884
I0
sg885
I0
sg886
I0
sg887
I0
ssg60
I0
sg61
(dp889
g827
I1
sg828
I1
sg829
g830
ssg67
I0
sg72
I4
sg73
I0
sg74
I0
sg132
(S'dummy'
p890
S'PI'
p891
S'TA'
p892
g32
tp893
sg76
I00
sg124
g38
(g39
g40
Ntp894
Rp895
(dp896
g44
I5
sg45
S'**'
p897
sg47
g882
sbsg77
F7.0
sg84
I01
sg85
(dp898
S'SR'
p899
I0
sS'CT'
p900
I0
sS'CR'
p901
I0
sS'ST'
p902
I0
ssg87
(dp903
g884
I0
sg885
I6
sg886
I0
sg887
I14
ssg89
I0
sg90
(lp904
g837
aI01
aI01
aI00
asg78
(dp905
g899
I0
sg900
I0
sg901
I0
sg902
I5
ssg101
S'MDL'
p906
sg94
S'Wisspe (12)'
p907
sg96
I8
sg97
I0
sg104
I23
sg100
I200
sg75
I0
sg105
(dp908
S'A'
p909
I14
sS'ME'
p910
I12
sS'RP2'
p911
I9
sS'E'
p912
I13
sS'TO'
p913
I8
sS'RP1'
p914
I10
sS'JP'
p915
I8
sS'RP_tot'
p916
I12
sS'P'
p917
I7
sS'PA'
p918
I12
sS'M'
p919
I11
sS'R'
p920
I11
sS'TB'
p921
I6
sS'PL'
p922
I12
sS'TA'
p923
I8
ssg144
(dp924
S's11'
p925
(ijoueur
joueur
p926
(dp927
g28
I0
sg33
I2
sg35
I0
sg37
g38
(g39
g40
Ntp928
Rp929
(dp930
g44
I5
sg45
S'**'
p931
sg47
S'seigneur'
p932
sbsg51
(dp933
S'SR'
p934
I0
sS'ST'
p935
I8
sS'CR'
p936
I0
sS'CT'
p937
I0
ssg138
(dp938
g934
I0
sg935
I0
sg936
I0
sg937
I0
ssg60
I0
sg67
I0
sg84
I01
sg72
I0
sg73
I0
sg74
I0
sg132
(S'dummy'
p939
S'PI'
p940
S'TA'
p941
g32
tp942
sg76
I01
sg124
g38
(g39
g40
Ntp943
Rp944
(dp945
g44
I5
sg45
S'**'
p946
sg47
g932
sbsg78
(dp947
g934
I0
sg935
I0
sg936
I0
sg937
I14
ssg98
(dp948
g934
I0
sg935
I8
sg936
I0
sg937
I0
ssg85
(dp949
g934
I0
sg935
I0
sg936
I0
sg937
I0
ssg87
(dp950
g934
I0
sg935
I0
sg936
I0
sg937
I14
ssg89
I0
sg93
I0
sg94
S'Wisspe'
p951
sg96
I8
sg97
I0
sg104
I23
sg100
I90
sg101
S'ED'
p952
sg105
(dp953
S'A'
p954
I14
sS'ME'
p955
I10
sS'RP2'
p956
I8
sS'E'
p957
I13
sS'TO'
p958
I8
sS'RP1'
p959
I10
sS'JP'
p960
I8
sS'RP_tot'
p961
I11
sS'P'
p962
I8
sS'PA'
p963
I12
sS'M'
p964
I11
sS'R'
p965
I11
sS'TB'
p966
I6
sS'PL'
p967
I11
sS'TA'
p968
I8
ssg125
I0
sg126
I0
sg127
I0
sg129
I0
sg130
F11.37037037037037
sg131
I0
sg143
I0
sg193
I0
sg317
(dp969
S'A'
p970
I14
sS'ME'
p971
I10
sS'RP2'
p972
I8
sS'E'
p973
I13
sS'TO'
p974
I8
sS'RP1'
p975
I10
sS'JP'
p976
I8
sS'RP_tot'
p977
I11
sS'P'
p978
I8
sS'PA'
p979
I12
sS'M'
p980
I11
sS'R'
p981
I11
sS'TB'
p982
I6
sS'PL'
p983
I11
sS'TA'
p984
I8
ssg122
g953
sg210
I0
sg154
g32
sg211
I0
sg212
I2
sg213
I0
sg155
I9
sg214
I2
sg215
I0
sg216
S'S'
p985
sbssg125
I5
sg126
I0
sg127
I0
sg128
F16.5
sg129
I0
sg130
F12.037037037037036
sg131
I0
sg141
I0
sg98
(dp986
g899
I0
sg900
I11
sg901
I1
sg902
I0
ssg193
I0
sg317
(dp987
S'A'
p988
I14
sS'ME'
p989
I10
sS'RP2'
p990
I8
sS'E'
p991
I13
sS'P'
p992
I8
sS'RP1'
p993
I10
sS'JP'
p994
I8
sS'RP_tot'
p995
I11
sS'TO'
p996
I8
sS'PA'
p997
I12
sS'M'
p998
I11
sS'R'
p999
I11
sS'TB'
p1000
I6
sS'PL'
p1001
I11
sS'TA'
p1002
I8
ssg122
g908
sg210
I0
sg154
S'ED 12'
p1003
sg211
I0
sg212
I0
sg213
I0
sg155
I35
sg214
I6
sg143
I0
sg93
I0
sg215
I0
sg216
S'S'
p1004
sbsS's11'
p1005
(ijoueur
joueur
p1006
(dp1007
g28
I0
sg30
F0.0
sg33
I2
sg71
I4
sg35
I0
sg37
g38
(g39
g40
Ntp1008
Rp1009
(dp1010
g44
I5
sg45
S'**'
p1011
sg47
S'seigneur'
p1012
sbsg51
(dp1013
S'SR'
p1014
I0
sS'ST'
p1015
I8
sS'CR'
p1016
I0
sS'CT'
p1017
I0
ssg138
(dp1018
g1014
I0
sg1015
I0
sg1016
I0
sg1017
I0
ssg60
I0
sg61
(dp1019
g827
I1
sg828
I1
sg829
g830
ssg67
I0
sg72
I0
sg73
I0
sg74
I0
sg132
(S'dummy'
p1020
S'PI'
p1021
S'TA'
p1022
g32
tp1023
sg76
I01
sg124
g38
(g39
g40
Ntp1024
Rp1025
(dp1026
g44
I5
sg45
S'**'
p1027
sg47
g1012
sbsg77
F22.0
sg84
I01
sg85
(dp1028
g1014
I0
sg1015
I0
sg1016
I0
sg1017
I0
ssg87
(dp1029
g1014
I0
sg1015
I0
sg1016
I0
sg1017
I14
ssg89
I0
sg90
(lp1030
g837
aI01
aI01
aI00
asg93
I0
sg101
S'ED'
p1031
sg94
S'Wisspe (11)'
p1032
sg96
I8
sg97
I0
sg104
I23
sg100
I90
sg75
I0
sg78
(dp1033
g1014
I0
sg1015
I0
sg1016
I0
sg1017
I14
ssg105
(dp1034
S'A'
p1035
I14
sS'ME'
p1036
I10
sS'RP2'
p1037
I8
sS'E'
p1038
I13
sS'TO'
p1039
I8
sS'RP1'
p1040
I10
sS'JP'
p1041
I8
sS'RP_tot'
p1042
I11
sS'P'
p1043
I8
sS'PA'
p1044
I12
sS'M'
p1045
I11
sS'R'
p1046
I11
sS'TB'
p1047
I6
sS'PL'
p1048
I11
sS'TA'
p1049
I8
ssg125
I0
sg126
I0
sg127
I0
sg128
F22.0
sg129
I0
sg130
F11.37037037037037
sg131
I0
sg141
I0
sg98
(dp1050
g1014
I0
sg1015
I8
sg1016
I0
sg1017
I0
ssg193
I0
sg317
(dp1051
S'A'
p1052
I14
sS'ME'
p1053
I10
sS'RP2'
p1054
I8
sS'E'
p1055
I13
sS'TO'
p1056
I8
sS'RP1'
p1057
I10
sS'JP'
p1058
I8
sS'RP_tot'
p1059
I11
sS'P'
p1060
I8
sS'PA'
p1061
I12
sS'M'
p1062
I11
sS'R'
p1063
I11
sS'TB'
p1064
I6
sS'PL'
p1065
I11
sS'TA'
p1066
I8
ssg122
g1034
sg210
I0
sg154
g32
sg211
I0
sg212
I2
sg213
I0
sg155
I9
sg214
I2
sg143
I0
sg215
I0
sg216
S'S'
p1067
sbssg193
I1
sg317
(dp1068
S'A'
p1069
I14
sS'ME'
p1070
I10
sS'RP2'
p1071
I8
sS'E'
p1072
I13
sS'P'
p1073
I8
sS'RP1'
p1074
I10
sS'JP'
p1075
I8
sS'RP_tot'
p1076
I11
sS'TO'
p1077
I8
sS'PA'
p1078
I12
sS'M'
p1079
I11
sS'R'
p1080
I11
sS'TB'
p1081
I6
sS'PL'
p1082
I11
sS'TA'
p1083
I8
ssg210
I0
sg433
(dp1084
sg211
I0
sg154
g825
sg212
I0
sg213
I0
sg155
I35
sg214
I7
sg215
I0
sg216
g874
sbsS'SA_pcp2'
p1085
(ijoueur
joueur
p1086
(dp1087
g27
F10.147058823529411
sg28
I0
sg29
F10.588235294117647
sg30
F14.5
sg31
g32
sg33
I0
sg34
F225.66795431959125
sg35
I0
sg36
I0
sg37
g38
(g39
g40
Ntp1088
Rp1089
(dp1090
g44
I5
sg45
S'**'
p1091
sg47
S'seigneur'
p1092
sbsg49
(dp1093
sg51
(dp1094
S'SR'
p1095
I0
sS'ST'
p1096
I0
sS'CR'
p1097
I0
sS'CT'
p1098
I0
ssg57
F11.117647058823529
sg58
I0
sg59
I10
sg60
I0
sg61
(dp1099
S'couleur'
p1100
I2
sS'valeur'
p1101
I10
sS'r_n'
p1102
S'r'
p1103
ssg67
I0
sg140
F225.66795431959125
sg70
I00
sg71
I5
sg72
I0
sg73
I0
sg74
I0
sg75
I2
sg76
I00
sg77
F16.5
sg78
(dp1104
S'SR'
p1105
I0
sS'CT'
p1106
I0
sS'CR'
p1107
I0
sS'ST'
p1108
I0
ssg84
I00
sg85
(dp1109
g1105
I0
sg1106
I0
sg1107
I0
sg1108
I0
ssg87
(dp1110
g1095
I7
sg1096
I14
sg1097
I30
sg1098
I17
ssg89
I0
sg90
(lp1111
S'dummy'
p1112
aI01
aI00
aI00
asg93
I0
sg94
S'Skoss'
p1113
sg96
I7
sg97
I0
sg98
(dp1114
g1105
I0
sg1106
I0
sg1107
I0
sg1108
I0
ssg100
I198
sg101
S'TO'
p1115
sg103
I00
sg104
I18
sg105
(dp1116
S'A'
p1117
I12
sS'ME'
p1118
I12
sS'RP2'
p1119
I9
sS'E'
p1120
I11
sS'P'
p1121
I6
sS'RP1'
p1122
I8
sS'JP'
p1123
I6
sS'RP_tot'
p1124
I10
sS'TO'
p1125
I15
sS'PA'
p1126
I10
sS'M'
p1127
I7
sS'R'
p1128
I9
sS'TB'
p1129
I6
sS'PL'
p1130
I9
sS'TA'
p1131
I5
ssg122
(dp1132
g1117
I12
sg1118
I12
sg1119
I9
sg1120
I11
sg1125
I15
sg1122
I8
sg1123
I6
sg1124
I10
sg1121
I6
sg1126
I10
sg1127
I7
sg1128
I9
sg1129
I6
sg1130
I9
sg1131
I5
ssg124
g38
(g39
g40
Ntp1133
Rp1134
(dp1135
g44
I5
sg45
S'**'
p1136
sg47
g1092
sbsg125
I0
sg126
I0
sg127
I1
sg128
I0
sg129
I0
sg130
F11.088235294117647
sg131
I0
sg132
(S'dummy'
p1137
S'DL'
p1138
g32
g32
tp1139
sg138
(dp1140
g1095
I0
sg1096
I0
sg1097
I0
sg1098
I0
ssg141
I-1
sg143
I0
sg144
(dp1141
S's13'
p1142
(ijoueur
joueur
p1143
(dp1144
g28
I0
sg30
F14.5
sg126
I0
sg33
I0
sg71
I5
sg35
I0
sg37
g1089
sg51
(dp1145
S'SR'
p1146
I0
sS'ST'
p1147
I0
sS'CR'
p1148
I0
sS'CT'
p1149
I0
ssg138
g1140
sg154
g32
sg61
(dp1150
S'couleur'
p1151
I1
sS'valeur'
p1152
I1
sS'r_n'
p1153
S'n'
p1154
ssg67
I0
sg72
I1
sg73
I0
sg74
I0
sg132
g1139
sg76
I00
sg124
g1134
sg77
F0.5
sg84
I00
sg85
(dp1155
S'SR'
p1156
I0
sS'ST'
p1157
I0
sS'CR'
p1158
I0
sS'CT'
p1159
I0
ssg87
g1110
sg89
I0
sg90
(lp1160
S'dummy'
p1161
aI01
aI00
aI00
asg78
(dp1162
g1156
I0
sg1157
I5
sg1158
I9
sg1159
I7
ssg101
g1115
sg94
S'Skoss (13)'
p1163
sg96
I7
sg97
I0
sg104
I18
sg100
I198
sg75
I0
sg105
(dp1164
S'A'
p1165
I0
sS'ME'
p1166
I0
sS'RP2'
p1167
I0
sS'E'
p1168
I0
sS'TO'
p1169
I0
sS'RP1'
p1170
I0
sS'JP'
p1171
I0
sS'RP_tot'
p1172
I0
sS'P'
p1173
I0
sS'PA'
p1174
I0
sS'M'
p1175
I0
sS'R'
p1176
I0
sS'TB'
p1177
I0
sS'PL'
p1178
I0
sS'TA'
p1179
I0
ssg144
(dp1180
sg125
I0
sg31
g32
sg127
I0
sg128
F16.5
sg129
I0
sg130
F11.117647058823529
sg131
I0
sg141
I0
sg98
(dp1181
g1156
I0
sg1157
I0
sg1158
I0
sg1159
I0
ssg193
I0
sg122
(dp1182
S'A'
p1183
I12
sS'ME'
p1184
I12
sS'RP2'
p1185
I9
sS'E'
p1186
I11
sS'TO'
p1187
I15
sS'RP1'
p1188
I8
sS'JP'
p1189
I6
sS'RP_tot'
p1190
I10
sS'P'
p1191
I6
sS'PA'
p1192
I10
sS'M'
p1193
I8
sS'R'
p1194
I9
sS'TB'
p1195
I6
sS'PL'
p1196
I9
sS'TA'
p1197
I5
ssg210
I0
sg211
I0
sg212
I0
sg213
I0
sg155
I38
sg214
I0
sg143
I0
sg93
I0
sg215
I0
sg216
S'S'
p1198
sbsS's12'
p1199
(ijoueur
joueur
p1200
(dp1201
g27
F10.147058823529411
sg28
I0
sg30
F8.0
sg31
g32
sg33
I0
sg71
I4
sg35
I0
sg37
g38
(g39
g40
Ntp1202
Rp1203
(dp1204
g44
I5
sg45
S'**'
p1205
sg47
S'seigneur'
p1206
sbsg51
(dp1207
S'SR'
p1208
I0
sS'ST'
p1209
I0
sS'CR'
p1210
I0
sS'CT'
p1211
I0
ssg138
(dp1212
g1208
I0
sg1209
I0
sg1210
I0
sg1211
I0
ssg60
I0
sg61
(dp1213
g1151
I1
sg1152
I1
sg1153
g1154
ssg67
I0
sg72
I3
sg73
I0
sg74
I0
sg132
(S'dummy'
p1214
S'DL'
p1215
g32
g32
tp1216
sg76
I01
sg124
g38
(g39
g40
Ntp1217
Rp1218
(dp1219
g44
I5
sg45
S'**'
p1220
sg47
g1206
sbsg77
F0.5
sg84
I00
sg85
(dp1221
S'SR'
p1222
I0
sS'ST'
p1223
I0
sS'CR'
p1224
I0
sS'CT'
p1225
I0
ssg87
(dp1226
g1208
I7
sg1209
I9
sg1210
I21
sg1211
I10
ssg89
I0
sg90
(lp1227
g1161
aI01
aI00
aI00
asg78
(dp1228
g1222
I0
sg1223
I6
sg1224
I11
sg1225
I4
ssg101
S'TO'
p1229
sg94
S'Skoss (12)'
p1230
sg96
I7
sg97
I0
sg104
I18
sg100
I198
sg75
I0
sg105
(dp1231
S'A'
p1232
I12
sS'ME'
p1233
I11
sS'RP2'
p1234
I9
sS'E'
p1235
I11
sS'TO'
p1236
I13
sS'RP1'
p1237
I8
sS'JP'
p1238
I6
sS'RP_tot'
p1239
I10
sS'P'
p1240
I6
sS'PA'
p1241
I10
sS'M'
p1242
I8
sS'R'
p1243
I9
sS'TB'
p1244
I6
sS'PL'
p1245
I9
sS'TA'
p1246
I5
ssg144
(dp1247
S's11'
p1248
(ijoueur
joueur
p1249
(dp1250
g28
I0
sg33
I0
sg35
I0
sg37
g38
(g39
g40
Ntp1251
Rp1252
(dp1253
g44
I5
sg45
S'**'
p1254
sg47
S'seigneur'
p1255
sbsg51
(dp1256
S'SR'
p1257
I0
sS'ST'
p1258
I0
sS'CR'
p1259
I0
sS'CT'
p1260
I0
ssg138
(dp1261
g1257
I0
sg1258
I0
sg1259
I0
sg1260
I0
ssg60
I0
sg67
I0
sg84
I00
sg72
I0
sg73
I0
sg74
I0
sg132
(S'dummy'
p1262
S'DL'
p1263
g32
g32
tp1264
sg76
I00
sg124
g38
(g39
g40
Ntp1265
Rp1266
(dp1267
g44
I5
sg45
S'**'
p1268
sg47
g1255
sbsg78
(dp1269
g1257
I7
sg1258
I2
sg1259
I10
sg1260
I6
ssg98
(dp1270
g1257
I0
sg1258
I0
sg1259
I0
sg1260
I0
ssg85
(dp1271
g1257
I0
sg1258
I0
sg1259
I0
sg1260
I0
ssg87
(dp1272
g1257
I7
sg1258
I2
sg1259
I10
sg1260
I6
ssg89
I0
sg93
I0
sg94
S'Skoss'
p1273
sg96
I7
sg97
I0
sg104
I18
sg100
I198
sg101
S'TO'
p1274
sg105
(dp1275
S'A'
p1276
I12
sS'ME'
p1277
I10
sS'RP2'
p1278
I9
sS'E'
p1279
I10
sS'TO'
p1280
I12
sS'RP1'
p1281
I8
sS'JP'
p1282
I6
sS'RP_tot'
p1283
I10
sS'P'
p1284
I6
sS'PA'
p1285
I10
sS'M'
p1286
I8
sS'R'
p1287
I9
sS'TB'
p1288
I6
sS'PL'
p1289
I9
sS'TA'
p1290
I5
ssg125
I0
sg126
I0
sg127
I1
sg129
I0
sg130
F10.147058823529411
sg131
I0
sg143
I1
sg193
I0
sg317
(dp1291
S'A'
p1292
I12
sS'ME'
p1293
I10
sS'RP2'
p1294
I9
sS'E'
p1295
I10
sS'TO'
p1296
I12
sS'RP1'
p1297
I8
sS'JP'
p1298
I6
sS'RP_tot'
p1299
I10
sS'P'
p1300
I6
sS'PA'
p1301
I10
sS'M'
p1302
I8
sS'R'
p1303
I9
sS'TB'
p1304
I6
sS'PL'
p1305
I9
sS'TA'
p1306
I5
ssg122
g1275
sg210
I0
sg154
g32
sg211
I0
sg212
I0
sg213
I0
sg155
I18
sg214
I6
sg215
I0
sg216
S'S'
p1307
sbssg125
I16
sg126
I0
sg127
I1
sg128
F15.5
sg129
I0
sg130
F10.588235294117647
sg131
I0
sg141
I0
sg98
(dp1308
g1222
I0
sg1223
I0
sg1224
I0
sg1225
I0
ssg193
I1
sg317
(dp1309
S'A'
p1310
I12
sS'ME'
p1311
I10
sS'RP2'
p1312
I9
sS'E'
p1313
I10
sS'P'
p1314
I6
sS'RP1'
p1315
I8
sS'JP'
p1316
I6
sS'RP_tot'
p1317
I10
sS'TO'
p1318
I12
sS'PA'
p1319
I10
sS'M'
p1320
I8
sS'R'
p1321
I9
sS'TB'
p1322
I6
sS'PL'
p1323
I9
sS'TA'
p1324
I5
ssg122
g1231
sg210
I0
sg154
g32
sg211
I0
sg212
I0
sg213
I0
sg155
I18
sg214
I9
sg143
I0
sg93
I0
sg215
I1
sg216
S'S'
p1325
sbsS's11'
p1326
(ijoueur
joueur
p1327
(dp1328
g28
I0
sg30
F0.5
sg33
I0
sg71
I3
sg35
I0
sg37
g38
(g39
g40
Ntp1329
Rp1330
(dp1331
g44
I5
sg45
S'**'
p1332
sg47
S'seigneur'
p1333
sbsg51
(dp1334
S'SR'
p1335
I0
sS'ST'
p1336
I0
sS'CR'
p1337
I0
sS'CT'
p1338
I0
ssg138
(dp1339
g1335
I0
sg1336
I0
sg1337
I0
sg1338
I0
ssg60
I0
sg61
(dp1340
g1151
I1
sg1152
I1
sg1153
g1154
ssg67
I0
sg72
I0
sg73
I0
sg74
I0
sg132
(S'dummy'
p1341
S'DL'
p1342
g32
g32
tp1343
sg76
I00
sg124
g38
(g39
g40
Ntp1344
Rp1345
(dp1346
g44
I5
sg45
S'**'
p1347
sg47
g1333
sbsg77
F16.5
sg84
I00
sg85
(dp1348
g1335
I0
sg1336
I0
sg1337
I0
sg1338
I0
ssg87
(dp1349
g1335
I7
sg1336
I2
sg1337
I10
sg1338
I6
ssg89
I0
sg90
(lp1350
g1161
aI01
aI00
aI00
asg93
I0
sg101
S'TO'
p1351
sg94
S'Skoss (11)'
p1352
sg96
I7
sg97
I0
sg104
I18
sg100
I198
sg75
I0
sg78
(dp1353
g1335
I7
sg1336
I2
sg1337
I10
sg1338
I6
ssg105
(dp1354
S'A'
p1355
I12
sS'ME'
p1356
I10
sS'RP2'
p1357
I9
sS'E'
p1358
I10
sS'TO'
p1359
I12
sS'RP1'
p1360
I8
sS'JP'
p1361
I6
sS'RP_tot'
p1362
I10
sS'P'
p1363
I6
sS'PA'
p1364
I10
sS'M'
p1365
I8
sS'R'
p1366
I9
sS'TB'
p1367
I6
sS'PL'
p1368
I9
sS'TA'
p1369
I5
ssg125
I0
sg126
I0
sg127
I1
sg128
F16.5
sg129
I0
sg130
F10.147058823529411
sg131
I0
sg141
I0
sg98
(dp1370
g1335
I0
sg1336
I0
sg1337
I0
sg1338
I0
ssg193
I0
sg317
(dp1371
S'A'
p1372
I12
sS'ME'
p1373
I10
sS'RP2'
p1374
I9
sS'E'
p1375
I10
sS'TO'
p1376
I12
sS'RP1'
p1377
I8
sS'JP'
p1378
I6
sS'RP_tot'
p1379
I10
sS'P'
p1380
I6
sS'PA'
p1381
I10
sS'M'
p1382
I8
sS'R'
p1383
I9
sS'TB'
p1384
I6
sS'PL'
p1385
I9
sS'TA'
p1386
I5
ssg122
g1354
sg210
I0
sg154
g32
sg211
I0
sg212
I0
sg213
I0
sg155
I18
sg214
I6
sg143
I1
sg215
I0
sg216
S'S'
p1387
sbssg193
I1
sg317
(dp1388
S'A'
p1389
I12
sS'ME'
p1390
I10
sS'RP2'
p1391
I9
sS'E'
p1392
I10
sS'P'
p1393
I6
sS'RP1'
p1394
I8
sS'JP'
p1395
I6
sS'RP_tot'
p1396
I10
sS'TO'
p1397
I12
sS'PA'
p1398
I10
sS'M'
p1399
I8
sS'R'
p1400
I9
sS'TB'
p1401
I6
sS'PL'
p1402
I9
sS'TA'
p1403
I5
ssg210
I0
sg433
(dp1404
sg211
I0
sg154
g32
sg212
I0
sg213
I0
sg155
I38
sg214
I10
sg215
I0
sg216
g1198
sbsS'B4'
p1405
(ijoueur
joueur
p1406
(dp1407
g27
F12.06060606060606
sg28
I0
sg29
F13.06060606060606
sg30
F8.0
sg31
g32
sg33
I13
sg34
F201.05209757388124
sg35
I0
sg36
I0
sg37
g38
(g39
g40
Ntp1408
Rp1409
(dp1410
g44
I5
sg45
S'**'
p1411
sg47
S'seigneur'
p1412
sbsg49
(dp1413
sg51
(dp1414
S'SR'
p1415
I0
sS'ST'
p1416
I1
sS'CR'
p1417
I0
sS'CT'
p1418
I15
ssg57
F12.484848484848484
sg58
I0
sg59
I10
sg60
I0
sg61
(dp1419
S'couleur'
p1420
I3
sS'valeur'
p1421
I11
sS'r_n'
p1422
S'n'
p1423
ssg67
I0
sg68
I39
sg69
I46
sg70
I00
sg71
I6
sg72
I0
sg73
I0
sg74
I0
sg75
I2
sg76
I00
sg77
F19.0
sg78
(dp1424
S'SR'
p1425
I0
sS'CT'
p1426
I0
sS'CR'
p1427
I0
sS'ST'
p1428
I0
ssg84
I00
sg85
(dp1429
g1425
I0
sg1426
I0
sg1427
I0
sg1428
I0
ssg87
(dp1430
g1415
I0
sg1416
I11
sg1417
I0
sg1418
I23
ssg89
I93
sg90
(lp1431
S'dummy'
p1432
aI01
aI01
aI01
asg93
I0
sg94
S'Ukatas'
p1433
sg96
I6
sg97
I50
sg98
(dp1434
g1425
I0
sg1426
I0
sg1427
I0
sg1428
I0
ssg100
I150
sg101
S'KAK'
p1435
sg103
I00
sg104
I15
sg105
(dp1436
S'A'
p1437
I15
sS'ME'
p1438
I4
sS'RP2'
p1439
I14
sS'E'
p1440
I10
sS'P'
p1441
I13
sS'RP1'
p1442
I9
sS'JP'
p1443
I11
sS'RP_tot'
p1444
I15
sS'TO'
p1445
I8
sS'PA'
p1446
I12
sS'M'
p1447
I10
sS'R'
p1448
I9
sS'TB'
p1449
I11
sS'PL'
p1450
I15
sS'TA'
p1451
I4
ssg122
(dp1452
g1437
I15
sg1438
I4
sg1439
I14
sg1440
I10
sg1445
I8
sg1442
I9
sg1443
I11
sg1444
I15
sg1441
I13
sg1446
I12
sg1447
I10
sg1448
I9
sg1449
I11
sg1450
I15
sg1451
I4
ssg124
g38
(g39
g40
Ntp1453
Rp1454
(dp1455
g44
I5
sg45
S'**'
p1456
sg47
g1412
sbsg125
I0
sg126
I0
sg127
I1
sg128
I0
sg129
I0
sg130
F12.969696969696969
sg131
I6
sg132
(S'dummy'
p1457
S'AR'
p1458
S'CE'
p1459
S'DO'
p1460
tp1461
sg138
(dp1462
g1415
I0
sg1416
I9
sg1417
I0
sg1418
I3
ssg140
F201.05209757388124
sg141
I5
sg142
I3
sg143
I0
sg144
(dp1463
S's13'
p1464
(ijoueur
joueur
p1465
(dp1466
g28
I0
sg30
F8.0
sg126
I0
sg33
I0
sg71
I6
sg35
I0
sg37
g1409
sg51
(dp1467
S'SR'
p1468
I0
sS'CT'
p1469
I0
sS'CR'
p1470
I0
sS'ST'
p1471
I0
ssg138
g1462
sg75
I0
sg154
S'ED 9'
p1472
sg61
(dp1473
S'couleur'
p1474
I1
sS'valeur'
p1475
I1
sS'r_n'
p1476
S'n'
p1477
ssg67
I0
sg72
I0
sg73
I5
sg74
I0
sg132
g1461
sg76
I00
sg124
g1454
sg77
F20.5
sg84
I00
sg85
(dp1478
S'SR'
p1479
I0
sS'CT'
p1480
I0
sS'CR'
p1481
I0
sS'ST'
p1482
I1
ssg87
g1430
sg89
I0
sg90
(lp1483
S'dummy'
p1484
aI01
aI01
aI01
asg78
(dp1485
g1479
I0
sg1480
I12
sg1481
I0
sg1482
I5
ssg94
S'Ukatas (13)'
p1486
sg96
I6
sg97
I0
sg104
I15
sg100
I150
sg101
g1435
sg105
(dp1487
S'A'
p1488
I0
sS'ME'
p1489
I0
sS'RP2'
p1490
I0
sS'E'
p1491
I0
sS'P'
p1492
I0
sS'RP1'
p1493
I0
sS'JP'
p1494
I0
sS'RP_tot'
p1495
I0
sS'TO'
p1496
I0
sS'PA'
p1497
I0
sS'M'
p1498
I0
sS'R'
p1499
I0
sS'TB'
p1500
I0
sS'PL'
p1501
I0
sS'TA'
p1502
I0
ssg144
(dp1503
sg125
I0
sg31
g32
sg127
I0
sg128
F19.0
sg129
I0
sg130
F12.484848484848484
sg131
I0
sg141
I0
sg98
(dp1504
g1479
I0
sg1480
I1
sg1481
I0
sg1482
I0
ssg193
I0
sg122
(dp1505
S'A'
p1506
I14
sS'ME'
p1507
I4
sS'RP2'
p1508
I14
sS'E'
p1509
I10
sS'TO'
p1510
I8
sS'RP1'
p1511
I8
sS'JP'
p1512
I9
sS'RP_tot'
p1513
I15
sS'P'
p1514
I13
sS'PA'
p1515
I12
sS'M'
p1516
I10
sS'R'
p1517
I9
sS'TB'
p1518
I10
sS'PL'
p1519
I14
sS'TA'
p1520
I4
ssg210
I0
sg211
I0
sg212
I3
sg213
I0
sg155
I15
sg214
I0
sg143
I0
sg93
I17
sg215
I0
sg216
S'S'
p1521
sbsS's12'
p1522
(ijoueur
joueur
p1523
(dp1524
g27
F12.06060606060606
sg28
I0
sg30
F1.0
sg31
g32
sg33
I10
sg71
I5
sg35
I0
sg37
g38
(g39
g40
Ntp1525
Rp1526
(dp1527
g44
I5
sg45
S'**'
p1528
sg47
S'seigneur'
p1529
sbsg51
(dp1530
S'SR'
p1531
I0
sS'ST'
p1532
I1
sS'CR'
p1533
I0
sS'CT'
p1534
I14
ssg138
(dp1535
g1531
I0
sg1532
I8
sg1533
I0
sg1534
I3
ssg75
I0
sg60
I0
sg61
(dp1536
g1474
I1
sg1475
I1
sg1476
g1477
ssg67
I0
sg68
I39
sg69
I46
sg72
I2
sg73
I1
sg74
I11
sg132
(S'dummy'
p1537
S'AR'
p1538
S'CE'
p1539
S'DO'
p1540
tp1541
sg76
I00
sg77
F19.0
sg78
(dp1542
S'SR'
p1543
I0
sS'ST'
p1544
I5
sS'CR'
p1545
I0
sS'CT'
p1546
I11
ssg84
I01
sg85
(dp1547
g1543
I0
sg1544
I0
sg1545
I0
sg1546
I1
ssg87
(dp1548
g1531
I0
sg1532
I6
sg1533
I0
sg1534
I11
ssg89
I76
sg90
(lp1549
g1484
aI01
aI01
aI01
asg93
I30
sg94
S'Ukatas (12)'
p1550
sg96
I6
sg97
I50
sg104
I15
sg100
I150
sg101
S'KAK'
p1551
sg105
(dp1552
S'A'
p1553
I15
sS'ME'
p1554
I4
sS'RP2'
p1555
I14
sS'E'
p1556
I10
sS'TO'
p1557
I8
sS'RP1'
p1558
I8
sS'JP'
p1559
I10
sS'RP_tot'
p1560
I15
sS'P'
p1561
I14
sS'PA'
p1562
I13
sS'M'
p1563
I10
sS'R'
p1564
I9
sS'TB'
p1565
I11
sS'PL'
p1566
I15
sS'TA'
p1567
I4
ssg124
g38
(g39
g40
Ntp1568
Rp1569
(dp1570
g44
I5
sg45
S'**'
p1571
sg47
g1529
sbsg125
I5
sg126
I0
sg127
I0
sg128
F18.0
sg129
I0
sg130
F13.06060606060606
sg131
I1
sg141
I0
sg142
I3
sg98
(dp1572
g1543
I0
sg1544
I1
sg1545
I0
sg1546
I0
ssg144
(dp1573
S's11'
p1574
(ijoueur
joueur
p1575
(dp1576
g28
I0
sg33
I8
sg35
I0
sg37
g38
(g39
g40
Ntp1577
Rp1578
(dp1579
g44
I5
sg45
S'**'
p1580
sg47
S'seigneur'
p1581
sbsg51
(dp1582
S'SR'
p1583
I0
sS'ST'
p1584
I0
sS'CR'
p1585
I0
sS'CT'
p1586
I14
ssg138
(dp1587
g1583
I0
sg1584
I8
sg1585
I0
sg1586
I2
ssg98
(dp1588
g1583
I0
sg1584
I0
sg1585
I0
sg1586
I14
ssg60
I0
sg67
I0
sg68
I39
sg69
I46
sg72
I1
sg73
I0
sg74
I0
sg132
(S'dummy'
p1589
S'AR'
p1590
S'CE'
p1591
S'DO'
p1592
tp1593
sg76
I00
sg124
g38
(g39
g40
Ntp1594
Rp1595
(dp1596
g44
I5
sg45
S'**'
p1597
sg47
g1581
sbsg78
(dp1598
g1583
I0
sg1584
I0
sg1585
I0
sg1586
I0
ssg84
I01
sg85
(dp1599
g1583
I0
sg1584
I8
sg1585
I0
sg1586
I2
ssg87
(dp1600
g1583
I0
sg1584
I0
sg1585
I0
sg1586
I0
ssg89
I46
sg93
I0
sg94
S'Ukatas'
p1601
sg96
I6
sg97
I39
sg104
I15
sg100
I150
sg101
S'KAK'
p1602
sg105
(dp1603
S'A'
p1604
I14
sS'ME'
p1605
I4
sS'RP2'
p1606
I13
sS'E'
p1607
I10
sS'TO'
p1608
I8
sS'RP1'
p1609
I7
sS'JP'
p1610
I10
sS'RP_tot'
p1611
I13
sS'P'
p1612
I10
sS'PA'
p1613
I12
sS'M'
p1614
I10
sS'R'
p1615
I9
sS'TB'
p1616
I10
sS'PL'
p1617
I14
sS'TA'
p1618
I4
ssg125
I0
sg126
I0
sg127
I0
sg129
I0
sg130
F12.06060606060606
sg131
I0
sg142
I3
sg143
I0
sg193
I0
sg317
(dp1619
S'A'
p1620
I14
sS'ME'
p1621
I4
sS'RP2'
p1622
I13
sS'E'
p1623
I10
sS'TO'
p1624
I8
sS'RP1'
p1625
I7
sS'JP'
p1626
I10
sS'RP_tot'
p1627
I13
sS'P'
p1628
I10
sS'PA'
p1629
I12
sS'M'
p1630
I10
sS'R'
p1631
I9
sS'TB'
p1632
I10
sS'PL'
p1633
I14
sS'TA'
p1634
I4
ssg122
g1603
sg210
I0
sg154
S'ED 9'
p1635
sg211
I0
sg212
I6
sg213
I0
sg155
I15
sg214
I12
sg215
I0
sg216
S'S'
p1636
sbssg193
I1
sg317
(dp1637
S'A'
p1638
I14
sS'ME'
p1639
I4
sS'RP2'
p1640
I13
sS'E'
p1641
I10
sS'TO'
p1642
I8
sS'RP1'
p1643
I7
sS'JP'
p1644
I10
sS'RP_tot'
p1645
I13
sS'P'
p1646
I10
sS'PA'
p1647
I12
sS'M'
p1648
I10
sS'R'
p1649
I9
sS'TB'
p1650
I10
sS'PL'
p1651
I14
sS'TA'
p1652
I4
ssg122
g1552
sg210
I0
sg154
S'ED 9'
p1653
sg211
I2
sg212
I2
sg213
I2
sg155
I15
sg214
I14
sg143
I0
sg215
I1
sg216
S'S'
p1654
sbsS's11'
p1655
(ijoueur
joueur
p1656
(dp1657
g28
I0
sg30
F5.0
sg33
I8
sg71
I3
sg35
I0
sg37
g38
(g39
g40
Ntp1658
Rp1659
(dp1660
g44
I5
sg45
S'**'
p1661
sg47
S'seigneur'
p1662
sbsg51
(dp1663
S'SR'
p1664
I0
sS'ST'
p1665
I0
sS'CR'
p1666
I0
sS'CT'
p1667
I14
ssg138
(dp1668
g1664
I0
sg1665
I8
sg1666
I0
sg1667
I2
ssg75
I0
sg60
I0
sg61
(dp1669
g1474
I1
sg1475
I1
sg1476
g1477
ssg67
I0
sg68
I39
sg69
I46
sg72
I1
sg73
I0
sg74
I0
sg132
(S'dummy'
p1670
S'AR'
p1671
S'CE'
p1672
S'DO'
p1673
tp1674
sg76
I00
sg77
F24.0
sg78
(dp1675
g1664
I0
sg1665
I0
sg1666
I0
sg1667
I0
ssg84
I01
sg85
(dp1676
g1664
I0
sg1665
I8
sg1666
I0
sg1667
I2
ssg87
(dp1677
g1664
I0
sg1665
I0
sg1666
I0
sg1667
I0
ssg89
I46
sg90
(lp1678
g1484
aI01
aI01
aI01
asg93
I0
sg94
S'Ukatas (11)'
p1679
sg96
I6
sg97
I39
sg104
I15
sg100
I150
sg101
S'KAK'
p1680
sg105
(dp1681
S'A'
p1682
I14
sS'ME'
p1683
I4
sS'RP2'
p1684
I13
sS'E'
p1685
I10
sS'TO'
p1686
I8
sS'RP1'
p1687
I7
sS'JP'
p1688
I10
sS'RP_tot'
p1689
I13
sS'P'
p1690
I10
sS'PA'
p1691
I12
sS'M'
p1692
I10
sS'R'
p1693
I9
sS'TB'
p1694
I10
sS'PL'
p1695
I14
sS'TA'
p1696
I4
ssg124
g38
(g39
g40
Ntp1697
Rp1698
(dp1699
g44
I5
sg45
S'**'
p1700
sg47
g1662
sbsg125
I0
sg126
I0
sg127
I0
sg128
F24.0
sg129
I0
sg130
F12.06060606060606
sg131
I0
sg141
I0
sg142
I3
sg98
(dp1701
g1664
I0
sg1665
I0
sg1666
I0
sg1667
I14
ssg193
I0
sg317
(dp1702
S'A'
p1703
I14
sS'ME'
p1704
I4
sS'RP2'
p1705
I13
sS'E'
p1706
I10
sS'TO'
p1707
I8
sS'RP1'
p1708
I7
sS'JP'
p1709
I10
sS'RP_tot'
p1710
I13
sS'P'
p1711
I10
sS'PA'
p1712
I12
sS'M'
p1713
I10
sS'R'
p1714
I9
sS'TB'
p1715
I10
sS'PL'
p1716
I14
sS'TA'
p1717
I4
ssg122
g1681
sg210
I0
sg154
S'ED 9'
p1718
sg211
I0
sg212
I6
sg213
I0
sg155
I15
sg214
I12
sg143
I0
sg215
I0
sg216
S'S'
p1719
sbssg193
I1
sg317
(dp1720
S'A'
p1721
I14
sS'ME'
p1722
I4
sS'RP2'
p1723
I13
sS'E'
p1724
I10
sS'TO'
p1725
I8
sS'RP1'
p1726
I7
sS'JP'
p1727
I10
sS'RP_tot'
p1728
I13
sS'P'
p1729
I10
sS'PA'
p1730
I12
sS'M'
p1731
I10
sS'R'
p1732
I9
sS'TB'
p1733
I10
sS'PL'
p1734
I14
sS'TA'
p1735
I4
ssg210
I0
sg433
(dp1736
sg211
I2
sg154
g1472
sg212
I0
sg213
I0
sg155
I15
sg214
I14
sg215
I0
sg216
g1521
sbsS'RJC'
p1737
(ijoueur
joueur
p1738
(dp1739
g27
F13.3
sg28
I1
sg29
F12.866666666666667
sg30
F13.0
sg31
g32
sg33
I26
sg34
F201.9498212568769
sg35
I0
sg36
I0
sg37
g38
(g39
g40
Ntp1740
Rp1741
(dp1742
g44
I5
sg45
S'xx'
p1743
sg47
S'seigneur'
p1744
sbsg49
(dp1745
sg51
(dp1746
S'SR'
p1747
I0
sS'CT'
p1748
I0
sS'CR'
p1749
I0
sS'ST'
p1750
I0
ssg57
F12.8
sg58
I0
sg59
I10
sg60
I0
sg61
(dp1751
S'couleur'
p1752
I4
sS'valeur'
p1753
I12
sS'r_n'
p1754
S'r'
p1755
ssg67
I0
sg140
F201.9498212568769
sg70
I00
sg71
I6
sg72
I0
sg73
I0
sg74
I0
sg75
I2
sg76
I00
sg77
F19.0
sg78
(dp1756
S'SR'
p1757
I0
sS'CT'
p1758
I0
sS'CR'
p1759
I0
sS'ST'
p1760
I0
ssg98
(dp1761
g1757
I0
sg1758
I0
sg1759
I0
sg1760
I0
ssg85
(dp1762
g1757
I0
sg1758
I0
sg1759
I0
sg1760
I0
ssg87
(dp1763
g1747
I0
sg1748
I27
sg1749
I0
sg1750
I8
ssg89
I52
sg90
(lp1764
S'dummy'
p1765
aI01
aI01
aI01
asg93
I0
sg94
S'Jtess'
p1766
sg96
I7
sg97
I15
sg84
I00
sg100
I475
sg101
S'ED'
p1767
sg103
I00
sg104
I19
sg105
(dp1768
S'A'
p1769
I16
sS'ME'
p1770
I6
sS'RP2'
p1771
I13
sS'E'
p1772
I11
sS'TO'
p1773
I11
sS'RP1'
p1774
I8
sS'JP'
p1775
I12
sS'RP_tot'
p1776
I14
sS'P'
p1777
I9
sS'PA'
p1778
I15
sS'M'
p1779
I12
sS'R'
p1780
I11
sS'TB'
p1781
I11
sS'PL'
p1782
I11
sS'TA'
p1783
I8
ssg122
(dp1784
g1769
I16
sg1770
I6
sg1771
I13
sg1772
I11
sg1777
I9
sg1774
I8
sg1775
I12
sg1776
I14
sg1773
I11
sg1778
I15
sg1779
I12
sg1780
I11
sg1781
I11
sg1782
I11
sg1783
I8
ssg124
g38
(g39
g40
Ntp1785
Rp1786
(dp1787
g44
I5
sg45
S'xx'
p1788
sg47
g1744
sbsg125
I0
sg126
I0
sg127
I0
sg128
I0
sg129
I0
sg130
F12.633333333333333
sg131
I8
sg132
(S'dummy'
p1789
S'C1'
p1790
S'AR'
p1791
S'DO'
p1792
tp1793
sg138
(dp1794
g1747
I0
sg1748
I14
sg1749
I0
sg1750
I12
ssg141
I-1
sg143
I0
sg144
(dp1795
S's13'
p1796
(ijoueur
joueur
p1797
(dp1798
g28
I0
sg30
F13.0
sg126
I0
sg33
I0
sg71
I6
sg35
I0
sg37
g1741
sg51
(dp1799
S'SR'
p1800
I0
sS'CT'
p1801
I0
sS'CR'
p1802
I0
sS'ST'
p1803
I0
ssg138
g1794
sg75
I0
sg154
g32
sg61
(dp1804
S'couleur'
p1805
I1
sS'valeur'
p1806
I1
sS'r_n'
p1807
S'n'
p1808
ssg67
I0
sg72
I1
sg73
I2
sg74
I5
sg132
g1793
sg76
I00
sg124
g1786
sg77
F1.0
sg84
I00
sg85
(dp1809
S'SR'
p1810
I0
sS'ST'
p1811
I5
sS'CR'
p1812
I0
sS'CT'
p1813
I0
ssg87
g1763
sg89
I0
sg90
(lp1814
S'dummy'
p1815
aI01
aI01
aI01
asg78
(dp1816
g1810
I0
sg1811
I0
sg1812
I0
sg1813
I14
ssg94
S'Jtess (13)'
p1817
sg96
I7
sg97
I0
sg104
I19
sg100
I475
sg101
g1767
sg105
(dp1818
S'A'
p1819
I0
sS'ME'
p1820
I0
sS'RP2'
p1821
I0
sS'E'
p1822
I0
sS'P'
p1823
I0
sS'RP1'
p1824
I0
sS'JP'
p1825
I0
sS'RP_tot'
p1826
I0
sS'TO'
p1827
I0
sS'PA'
p1828
I0
sS'M'
p1829
I0
sS'R'
p1830
I0
sS'TB'
p1831
I0
sS'PL'
p1832
I0
sS'TA'
p1833
I0
ssg144
(dp1834
sg125
I0
sg31
g32
sg127
I0
sg128
F19.0
sg129
I0
sg130
F12.8
sg131
I0
sg141
I0
sg98
(dp1835
g1810
I0
sg1811
I0
sg1812
I0
sg1813
I0
ssg193
I0
sg122
(dp1836
S'A'
p1837
I16
sS'ME'
p1838
I6
sS'RP2'
p1839
I13
sS'E'
p1840
I11
sS'TO'
p1841
I11
sS'RP1'
p1842
I8
sS'JP'
p1843
I12
sS'RP_tot'
p1844
I14
sS'P'
p1845
I9
sS'PA'
p1846
I15
sS'M'
p1847
I12
sS'R'
p1848
I11
sS'TB'
p1849
I11
sS'PL'
p1850
I12
sS'TA'
p1851
I8
ssg210
I0
sg211
I0
sg212
I5
sg213
I0
sg155
I48
sg214
I0
sg143
I0
sg93
I11
sg215
I0
sg216
S'S'
p1852
sbsS's12'
p1853
(ijoueur
joueur
p1854
(dp1855
g27
F13.3
sg28
I1
sg30
F5.0
sg31
g32
sg33
I21
sg71
I5
sg35
I0
sg37
g38
(g39
g40
Ntp1856
Rp1857
(dp1858
g44
I5
sg45
S'xx'
p1859
sg47
S'seigneur'
p1860
sbsg51
(dp1861
S'SR'
p1862
I0
sS'CT'
p1863
I0
sS'CR'
p1864
I0
sS'ST'
p1865
I0
ssg138
(dp1866
g1862
I0
sg1863
I14
sg1864
I0
sg1865
I7
ssg75
I0
sg60
I0
sg61
(dp1867
g1805
I1
sg1806
I1
sg1807
g1808
ssg67
I0
sg72
I2
sg73
I0
sg74
I0
sg132
(S'dummy'
p1868
S'C1'
p1869
S'AR'
p1870
S'DO'
p1871
tp1872
sg76
I00
sg124
g38
(g39
g40
Ntp1873
Rp1874
(dp1875
g44
I5
sg45
S'xx'
p1876
sg47
g1860
sbsg77
F3.0
sg84
I01
sg85
(dp1877
S'SR'
p1878
I0
sS'ST'
p1879
I6
sS'CR'
p1880
I0
sS'CT'
p1881
I0
ssg87
(dp1882
g1862
I0
sg1863
I13
sg1864
I0
sg1865
I8
ssg89
I41
sg90
(lp1883
g1815
aI01
aI01
aI01
asg78
(dp1884
g1878
I0
sg1879
I0
sg1880
I0
sg1881
I13
ssg94
S'Jtess (12)'
p1885
sg96
I7
sg97
I10
sg104
I19
sg100
I475
sg101
S'ED'
p1886
sg105
(dp1887
S'A'
p1888
I16
sS'ME'
p1889
I6
sS'RP2'
p1890
I13
sS'E'
p1891
I11
sS'P'
p1892
I9
sS'RP1'
p1893
I8
sS'JP'
p1894
I12
sS'RP_tot'
p1895
I14
sS'TO'
p1896
I11
sS'PA'
p1897
I15
sS'M'
p1898
I12
sS'R'
p1899
I12
sS'TB'
p1900
I10
sS'PL'
p1901
I12
sS'TA'
p1902
I8
ssg144
(dp1903
S's11'
p1904
(ijoueur
joueur
p1905
(dp1906
g28
I0
sg33
I15
sg35
I0
sg37
g38
(g39
g40
Ntp1907
Rp1908
(dp1909
g44
I5
sg45
S'xx'
p1910
sg47
S'seigneur'
p1911
sbsg51
(dp1912
S'SR'
p1913
I0
sS'CT'
p1914
I0
sS'CR'
p1915
I0
sS'ST'
p1916
I0
ssg138
(dp1917
g1913
I0
sg1914
I14
sg1915
I0
sg1916
I0
ssg60
I0
sg67
I0
sg84
I01
sg72
I3
sg73
I6
sg74
I9
sg132
(S'dummy'
p1918
S'C1'
p1919
S'AR'
p1920
S'DO'
p1921
tp1922
sg76
I00
sg124
g38
(g39
g40
Ntp1923
Rp1924
(dp1925
g44
I5
sg45
S'xx'
p1926
sg47
g1911
sbsg78
(dp1927
g1913
I0
sg1914
I0
sg1915
I0
sg1916
I8
ssg98
(dp1928
g1913
I0
sg1914
I0
sg1915
I0
sg1916
I0
ssg85
(dp1929
g1913
I0
sg1914
I14
sg1915
I0
sg1916
I0
ssg87
(dp1930
g1913
I0
sg1914
I0
sg1915
I0
sg1916
I8
ssg89
I39
sg93
I36
sg94
S'Jtess'
p1931
sg96
I7
sg97
I10
sg104
I19
sg100
I475
sg101
S'ED'
p1932
sg105
(dp1933
S'A'
p1934
I16
sS'ME'
p1935
I6
sS'RP2'
p1936
I14
sS'E'
p1937
I11
sS'P'
p1938
I9
sS'RP1'
p1939
I8
sS'JP'
p1940
I12
sS'RP_tot'
p1941
I15
sS'TO'
p1942
I11
sS'PA'
p1943
I16
sS'M'
p1944
I12
sS'R'
p1945
I12
sS'TB'
p1946
I9
sS'PL'
p1947
I13
sS'TA'
p1948
I8
ssg125
I0
sg126
I0
sg127
I0
sg129
I0
sg130
F13.3
sg131
I6
sg143
I0
sg193
I0
sg317
(dp1949
S'A'
p1950
I16
sS'ME'
p1951
I6
sS'RP2'
p1952
I14
sS'E'
p1953
I11
sS'P'
p1954
I9
sS'RP1'
p1955
I8
sS'JP'
p1956
I12
sS'RP_tot'
p1957
I15
sS'TO'
p1958
I11
sS'PA'
p1959
I16
sS'M'
p1960
I12
sS'R'
p1961
I12
sS'TB'
p1962
I9
sS'PL'
p1963
I13
sS'TA'
p1964
I8
ssg122
g1933
sg210
I0
sg154
g32
sg211
I2
sg212
I4
sg213
I2
sg155
I48
sg214
I8
sg215
I0
sg216
S'S'
p1965
sbssg125
I9
sg126
I0
sg127
I0
sg128
F19.0
sg129
I0
sg130
F12.866666666666667
sg131
I6
sg141
I0
sg98
(dp1966
g1878
I0
sg1879
I0
sg1880
I0
sg1881
I0
ssg193
I0
sg317
(dp1967
S'A'
p1968
I16
sS'ME'
p1969
I6
sS'RP2'
p1970
I14
sS'E'
p1971
I11
sS'P'
p1972
I9
sS'RP1'
p1973
I8
sS'JP'
p1974
I12
sS'RP_tot'
p1975
I15
sS'TO'
p1976
I11
sS'PA'
p1977
I16
sS'M'
p1978
I12
sS'R'
p1979
I12
sS'TB'
p1980
I9
sS'PL'
p1981
I13
sS'TA'
p1982
I8
ssg122
g1887
sg210
I1
sg154
g32
sg211
I2
sg212
I6
sg213
I0
sg155
I48
sg214
I10
sg143
I0
sg93
I2
sg215
I0
sg216
S'S'
p1983
sbsS's11'
p1984
(ijoueur
joueur
p1985
(dp1986
g28
I0
sg30
F6.0
sg33
I15
sg71
I3
sg35
I0
sg37
g38
(g39
g40
Ntp1987
Rp1988
(dp1989
g44
I5
sg45
S'xx'
p1990
sg47
S'seigneur'
p1991
sbsg51
(dp1992
S'SR'
p1993
I0
sS'CT'
p1994
I0
sS'CR'
p1995
I0
sS'ST'
p1996
I0
ssg138
(dp1997
g1993
I0
sg1994
I14
sg1995
I0
sg1996
I0
ssg75
I0
sg60
I0
sg61
(dp1998
g1805
I1
sg1806
I1
sg1807
g1808
ssg67
I0
sg72
I3
sg73
I6
sg74
I9
sg132
(S'dummy'
p1999
S'C1'
p2000
S'AR'
p2001
S'DO'
p2002
tp2003
sg76
I00
sg124
g38
(g39
g40
Ntp2004
Rp2005
(dp2006
g44
I5
sg45
S'xx'
p2007
sg47
g1991
sbsg77
F22.0
sg84
I01
sg85
(dp2008
g1993
I0
sg1994
I14
sg1995
I0
sg1996
I0
ssg87
(dp2009
g1993
I0
sg1994
I0
sg1995
I0
sg1996
I8
ssg89
I39
sg90
(lp2010
g1815
aI01
aI01
aI01
asg93
I36
sg94
S'Jtess (11)'
p2011
sg96
I7
sg97
I10
sg104
I19
sg100
I475
sg101
S'ED'
p2012
sg78
(dp2013
g1993
I0
sg1994
I0
sg1995
I0
sg1996
I8
ssg105
(dp2014
S'A'
p2015
I16
sS'ME'
p2016
I6
sS'RP2'
p2017
I14
sS'E'
p2018
I11
sS'P'
p2019
I9
sS'RP1'
p2020
I8
sS'JP'
p2021
I12
sS'RP_tot'
p2022
I15
sS'TO'
p2023
I11
sS'PA'
p2024
I16
sS'M'
p2025
I12
sS'R'
p2026
I12
sS'TB'
p2027
I9
sS'PL'
p2028
I13
sS'TA'
p2029
I8
ssg125
I0
sg126
I0
sg127
I0
sg128
F22.0
sg129
I0
sg130
F13.3
sg131
I6
sg141
I0
sg98
(dp2030
g1993
I0
sg1994
I0
sg1995
I0
sg1996
I0
ssg193
I0
sg317
(dp2031
S'A'
p2032
I16
sS'ME'
p2033
I6
sS'RP2'
p2034
I14
sS'E'
p2035
I11
sS'P'
p2036
I9
sS'RP1'
p2037
I8
sS'JP'
p2038
I12
sS'RP_tot'
p2039
I15
sS'TO'
p2040
I11
sS'PA'
p2041
I16
sS'M'
p2042
I12
sS'R'
p2043
I12
sS'TB'
p2044
I9
sS'PL'
p2045
I13
sS'TA'
p2046
I8
ssg122
g2014
sg210
I0
sg154
g32
sg211
I2
sg212
I4
sg213
I2
sg155
I48
sg214
I8
sg143
I0
sg215
I0
sg216
S'S'
p2047
sbssg193
I0
sg317
(dp2048
S'A'
p2049
I16
sS'ME'
p2050
I6
sS'RP2'
p2051
I14
sS'E'
p2052
I11
sS'P'
p2053
I9
sS'RP1'
p2054
I8
sS'JP'
p2055
I12
sS'RP_tot'
p2056
I15
sS'TO'
p2057
I11
sS'PA'
p2058
I16
sS'M'
p2059
I12
sS'R'
p2060
I12
sS'TB'
p2061
I9
sS'PL'
p2062
I13
sS'TA'
p2063
I8
ssg210
I0
sg433
(dp2064
sg211
I2
sg154
g32
sg212
I0
sg213
I0
sg155
I48
sg214
I11
sg215
I0
sg216
g1852
sbsS'B1'
p2065
g1406
sS'B2'
p2066
g1406
sS'B3'
p2067
g1406
sS'drop1'
p2068
g1738
sS'SA_pcp1'
p2069
(ijoueur
joueur
p2070
(dp2071
g27
F12.352941176470589
sg28
I2
sg29
F12.470588235294118
sg30
F1.0
sg31
g32
sg33
I0
sg34
F202.5368122174867
sg35
I0
sg36
I0
sg37
g38
(g39
g40
Ntp2072
Rp2073
(dp2074
g44
I5
sg45
S'xx'
p2075
sg47
g1744
sbsg49
(dp2076
sg51
(dp2077
g1747
I0
sg1748
I0
sg1749
I0
sg1750
I0
ssg57
F12.294117647058824
sg58
I0
sg59
I10
sg60
I0
sg61
(dp2078
g1752
I3
sg1753
I12
sg1754
S'n'
p2079
ssg67
I0
sg140
F202.5368122174867
sg70
I00
sg71
I7
sg72
I0
sg73
I0
sg74
I0
sg75
I2
sg76
I00
sg77
F19.0
sg78
(dp2080
g1757
I0
sg1758
I0
sg1759
I0
sg1760
I0
ssg98
(dp2081
g1757
I0
sg1758
I0
sg1759
I0
sg1760
I0
ssg85
(dp2082
g1757
I0
sg1758
I0
sg1759
I0
sg1760
I0
ssg87
(dp2083
g1747
I0
sg1748
I39
sg1749
I0
sg1750
I20
ssg89
I0
sg90
(lp2084
g1765
aI01
aI00
aI00
asg93
I0
sg94
S'Xyxess'
p2085
sg96
I8
sg97
I0
sg84
I00
sg100
I475
sg101
g1767
sg103
I00
sg104
I20
sg105
(dp2086
g1769
I14
sg1770
I12
sg1771
I11
sg1772
I12
sg1773
I17
sg1774
I11
sg1775
I4
sg1776
I14
sg1777
I5
sg1778
I14
sg1779
I13
sg1780
I9
sg1781
I5
sg1782
I11
sg1783
I7
ssg122
(dp2087
g1769
I14
sg1770
I12
sg1771
I11
sg1772
I12
sg1777
I5
sg1774
I11
sg1775
I4
sg1776
I14
sg1773
I17
sg1778
I14
sg1779
I13
sg1780
I9
sg1781
I5
sg1782
I11
sg1783
I7
ssg124
g38
(g39
g40
Ntp2088
Rp2089
(dp2090
g44
I5
sg45
S'xx'
p2091
sg47
g1744
sbsg125
I0
sg126
I0
sg127
I1
sg128
I0
sg129
I0
sg130
F12.735294117647058
sg131
I0
sg132
(g1789
S'DL'
p2092
g32
g32
tp2093
sg138
(dp2094
g1747
I0
sg1748
I0
sg1749
I0
sg1750
I0
ssg141
I5
sg143
I0
sg144
(dp2095
S's13'
p2096
(ijoueur
joueur
p2097
(dp2098
g28
I0
sg30
F1.0
sg126
I0
sg33
I0
sg71
I7
sg35
I0
sg37
g2073
sg51
(dp2099
g1800
I0
sg1801
I0
sg1802
I0
sg1803
I0
ssg138
g2094
sg75
I0
sg154
g32
sg61
(dp2100
g1805
I1
sg1806
I1
sg1807
g1808
ssg67
I0
sg72
I0
sg73
I0
sg74
I0
sg132
g2093
sg76
I00
sg124
g2089
sg77
F1.0
sg84
I00
sg85
(dp2101
g1810
I0
sg1811
I0
sg1812
I0
sg1813
I0
ssg87
g2083
sg89
I0
sg90
(lp2102
g1815
aI01
aI00
aI00
asg78
(dp2103
g1810
I0
sg1811
I6
sg1812
I0
sg1813
I13
ssg94
S'Xyxess (13)'
p2104
sg96
I8
sg97
I0
sg104
I20
sg100
I475
sg101
g1767
sg105
(dp2105
g1819
I0
sg1820
I0
sg1821
I0
sg1822
I0
sg1823
I0
sg1824
I0
sg1825
I0
sg1826
I0
sg1827
I0
sg1828
I0
sg1829
I0
sg1830
I0
sg1831
I0
sg1832
I0
sg1833
I0
ssg144
(dp2106
sg125
I0
sg31
g32
sg127
I0
sg128
F19.0
sg129
I0
sg130
F12.294117647058824
sg131
I0
sg141
I0
sg98
(dp2107
g1810
I0
sg1811
I0
sg1812
I0
sg1813
I0
ssg193
I0
sg122
(dp2108
g1837
I13
sg1838
I11
sg1839
I11
sg1840
I12
sg1841
I17
sg1842
I9
sg1843
I4
sg1844
I12
sg1845
I5
sg1846
I14
sg1847
I12
sg1848
I9
sg1849
I5
sg1850
I11
sg1851
I7
ssg210
I0
sg211
I0
sg212
I0
sg213
I0
sg155
I48
sg214
I0
sg143
I0
sg93
I0
sg215
I0
sg216
g1852
sbsg1853
(ijoueur
joueur
p2109
(dp2110
g27
F12.352941176470589
sg28
I2
sg30
F8.0
sg31
g32
sg33
I0
sg71
I5
sg35
I0
sg37
g38
(g39
g40
Ntp2111
Rp2112
(dp2113
g44
I5
sg45
S'xx'
p2114
sg47
g1860
sbsg51
(dp2115
g1862
I0
sg1863
I0
sg1864
I0
sg1865
I0
ssg138
(dp2116
g1862
I0
sg1863
I0
sg1864
I0
sg1865
I0
ssg75
I0
sg60
I0
sg61
(dp2117
g1805
I1
sg1806
I1
sg1807
g1808
ssg67
I0
sg72
I2
sg73
I0
sg74
I0
sg132
(g1868
S'DL'
p2118
g32
g32
tp2119
sg76
I00
sg124
g38
(g39
g40
Ntp2120
Rp2121
(dp2122
g44
I5
sg45
S'xx'
p2123
sg47
g1860
sbsg77
F4.0
sg84
I01
sg85
(dp2124
g1878
I0
sg1879
I0
sg1880
I0
sg1881
I0
ssg87
(dp2125
g1862
I0
sg1863
I26
sg1864
I0
sg1865
I14
ssg89
I0
sg90
(lp2126
g1815
aI01
aI00
aI00
asg78
(dp2127
g1878
I0
sg1879
I5
sg1880
I0
sg1881
I13
ssg94
S'Xyxess (12)'
p2128
sg96
I8
sg97
I0
sg104
I20
sg100
I475
sg101
g1886
sg105
(dp2129
g1888
I14
sg1889
I11
sg1890
I11
sg1891
I12
sg1892
I5
sg1893
I9
sg1894
I4
sg1895
I13
sg1896
I17
sg1897
I14
sg1898
I12
sg1899
I9
sg1900
I5
sg1901
I11
sg1902
I7
ssg144
(dp2130
g1904
(ijoueur
joueur
p2131
(dp2132
g28
I1
sg33
I0
sg35
I0
sg37
g38
(g39
g40
Ntp2133
Rp2134
(dp2135
g44
I5
sg45
S'xx'
p2136
sg47
S'seigneur'
p2137
sbsg51
(dp2138
S'SR'
p2139
I0
sS'CT'
p2140
I0
sS'CR'
p2141
I0
sS'ST'
p2142
I0
ssg138
(dp2143
g2139
I0
sg2140
I0
sg2141
I0
sg2142
I0
ssg60
I0
sg67
I0
sg84
I01
sg72
I3
sg73
I0
sg74
I0
sg132
(S'dummy'
p2144
S'DL'
p2145
g32
g32
tp2146
sg76
I00
sg124
g38
(g39
g40
Ntp2147
Rp2148
(dp2149
g44
I5
sg45
S'xx'
p2150
sg47
g2137
sbsg78
(dp2151
g2139
I0
sg2140
I13
sg2141
I0
sg2142
I8
ssg98
(dp2152
g2139
I0
sg2140
I0
sg2141
I0
sg2142
I0
ssg85
(dp2153
g2139
I0
sg2140
I0
sg2141
I0
sg2142
I0
ssg87
(dp2154
g2139
I0
sg2140
I13
sg2141
I0
sg2142
I8
ssg89
I0
sg93
I0
sg94
S'Xyxess'
p2155
sg96
I8
sg97
I0
sg104
I20
sg100
I475
sg101
S'ED'
p2156
sg105
(dp2157
S'A'
p2158
I14
sS'ME'
p2159
I10
sS'RP2'
p2160
I11
sS'E'
p2161
I12
sS'P'
p2162
I5
sS'RP1'
p2163
I9
sS'JP'
p2164
I4
sS'RP_tot'
p2165
I13
sS'TO'
p2166
I17
sS'PA'
p2167
I14
sS'M'
p2168
I12
sS'R'
p2169
I9
sS'TB'
p2170
I5
sS'PL'
p2171
I11
sS'TA'
p2172
I7
ssg125
I0
sg126
I0
sg127
I0
sg129
I0
sg130
F12.352941176470589
sg131
I0
sg143
I0
sg193
I0
sg317
(dp2173
S'A'
p2174
I14
sS'ME'
p2175
I10
sS'RP2'
p2176
I11
sS'E'
p2177
I12
sS'P'
p2178
I5
sS'RP1'
p2179
I9
sS'JP'
p2180
I4
sS'RP_tot'
p2181
I13
sS'TO'
p2182
I17
sS'PA'
p2183
I14
sS'M'
p2184
I12
sS'R'
p2185
I9
sS'TB'
p2186
I5
sS'PL'
p2187
I11
sS'TA'
p2188
I7
ssg122
g2157
sg210
I1
sg154
g32
sg211
I0
sg212
I0
sg213
I0
sg155
I48
sg214
I6
sg215
I0
sg216
S'S'
p2189
sbssg125
I8
sg126
I0
sg127
I0
sg128
F18.0
sg129
I0
sg130
F12.470588235294118
sg131
I0
sg141
I0
sg98
(dp2190
g1878
I0
sg1879
I0
sg1880
I0
sg1881
I0
ssg193
I1
sg317
(dp2191
g1968
I14
sg1969
I10
sg1970
I11
sg1971
I12
sg1972
I5
sg1973
I9
sg1974
I4
sg1975
I13
sg1976
I17
sg1977
I14
sg1978
I12
sg1979
I9
sg1980
I5
sg1981
I11
sg1982
I7
ssg122
g2129
sg210
I1
sg154
g32
sg211
I0
sg212
I0
sg213
I0
sg155
I48
sg214
I8
sg143
I0
sg93
I0
sg215
I1
sg216
g1983
sbsg1984
(ijoueur
joueur
p2192
(dp2193
g28
I1
sg30
F8.0
sg33
I0
sg71
I3
sg35
I0
sg37
g38
(g39
g40
Ntp2194
Rp2195
(dp2196
g44
I5
sg45
S'xx'
p2197
sg47
S'seigneur'
p2198
sbsg51
(dp2199
S'SR'
p2200
I0
sS'CT'
p2201
I0
sS'CR'
p2202
I0
sS'ST'
p2203
I0
ssg138
(dp2204
g2200
I0
sg2201
I0
sg2202
I0
sg2203
I0
ssg75
I0
sg60
I0
sg61
(dp2205
g1805
I1
sg1806
I1
sg1807
g1808
ssg67
I0
sg72
I3
sg73
I0
sg74
I0
sg132
(S'dummy'
p2206
S'DL'
p2207
g32
g32
tp2208
sg76
I00
sg124
g38
(g39
g40
Ntp2209
Rp2210
(dp2211
g44
I5
sg45
S'xx'
p2212
sg47
g2198
sbsg77
F21.0
sg84
I01
sg85
(dp2213
g2200
I0
sg2201
I0
sg2202
I0
sg2203
I0
ssg87
(dp2214
g2200
I0
sg2201
I13
sg2202
I0
sg2203
I8
ssg89
I0
sg90
(lp2215
g1815
aI01
aI00
aI00
asg93
I0
sg94
S'Xyxess (11)'
p2216
sg96
I8
sg97
I0
sg104
I20
sg100
I475
sg101
S'ED'
p2217
sg78
(dp2218
g2200
I0
sg2201
I13
sg2202
I0
sg2203
I8
ssg105
(dp2219
S'A'
p2220
I14
sS'ME'
p2221
I10
sS'RP2'
p2222
I11
sS'E'
p2223
I12
sS'P'
p2224
I5
sS'RP1'
p2225
I9
sS'JP'
p2226
I4
sS'RP_tot'
p2227
I13
sS'TO'
p2228
I17
sS'PA'
p2229
I14
sS'M'
p2230
I12
sS'R'
p2231
I9
sS'TB'
p2232
I5
sS'PL'
p2233
I11
sS'TA'
p2234
I7
ssg125
I0
sg126
I0
sg127
I0
sg128
F21.0
sg129
I0
sg130
F12.352941176470589
sg131
I0
sg141
I0
sg98
(dp2235
g2200
I0
sg2201
I0
sg2202
I0
sg2203
I0
ssg193
I0
sg317
(dp2236
S'A'
p2237
I14
sS'ME'
p2238
I10
sS'RP2'
p2239
I11
sS'E'
p2240
I12
sS'P'
p2241
I5
sS'RP1'
p2242
I9
sS'JP'
p2243
I4
sS'RP_tot'
p2244
I13
sS'TO'
p2245
I17
sS'PA'
p2246
I14
sS'M'
p2247
I12
sS'R'
p2248
I9
sS'TB'
p2249
I5
sS'PL'
p2250
I11
sS'TA'
p2251
I7
ssg122
g2219
sg210
I1
sg154
g32
sg211
I0
sg212
I0
sg213
I0
sg155
I48
sg214
I6
sg143
I0
sg215
I0
sg216
S'S'
p2252
sbssg193
I1
sg317
(dp2253
g2049
I14
sg2050
I10
sg2051
I11
sg2052
I12
sg2053
I5
sg2054
I9
sg2055
I4
sg2056
I13
sg2057
I17
sg2058
I14
sg2059
I12
sg2060
I9
sg2061
I5
sg2062
I11
sg2063
I7
ssg210
I0
sg433
(dp2254
sg211
I0
sg154
g32
sg212
I0
sg213
I0
sg155
I48
sg214
I8
sg215
I0
sg216
g1852
sbsS'RJL'
p2255
g1406
sS'SA_remp1'
p2256
(ijoueur
joueur
p2257
(dp2258
g27
F11.441176470588236
sg28
I1
sg29
F11.941176470588236
sg30
F16.0
sg31
g32
sg33
I0
sg34
F192.50586889131952
sg35
I0
sg36
I1
sg37
g38
(g39
g40
Ntp2259
Rp2260
(dp2261
g44
I5
sg45
S'xx'
p2262
sg47
S'seigneur'
p2263
sbsg49
(dp2264
sg51
(dp2265
S'SR'
p2266
I0
sS'CT'
p2267
I1
sS'CR'
p2268
I0
sS'ST'
p2269
I5
ssg57
F11.941176470588236
sg58
I0
sS'random_retraite'
p2270
I9
sg60
I0
sg61
(dp2271
S'couleur'
p2272
I4
sS'valeur'
p2273
I3
sS'r_n'
p2274
S'r'
p2275
ssg67
I0
sg68
I0
sg69
I0
sg70
I00
sg71
I5
sg72
I0
sg73
I0
sg74
I0
sg75
I3
sg76
I00
sg77
F18.0
sg78
(dp2276
S'SR'
p2277
I0
sS'ST'
p2278
I0
sS'CR'
p2279
I0
sS'CT'
p2280
I0
ssg84
I00
sg85
(dp2281
g2277
I0
sg2278
I0
sg2279
I0
sg2280
I0
ssg87
(dp2282
g2266
I0
sg2267
I39
sg2268
I0
sg2269
I16
ssg89
I0
sg90
(lp2283
S'dummy'
p2284
aI01
aI01
aI01
asg93
I0
sg94
S'Vrokhaen'
p2285
sg96
I5
sg97
I0
sg104
I13
sg100
I1093
sg101
S'MSL'
p2286
sg103
I00
sg105
(dp2287
S'A'
p2288
I12
sS'ME'
p2289
I12
sS'RP2'
p2290
I9
sS'E'
p2291
I11
sS'TO'
p2292
I13
sS'RP1'
p2293
I10
sS'JP'
p2294
I0
sS'RP_tot'
p2295
I11
sS'P'
p2296
I1
sS'PA'
p2297
I15
sS'M'
p2298
I13
sS'R'
p2299
I12
sS'TB'
p2300
I0
sS'PL'
p2301
I11
sS'TA'
p2302
I9
ssg122
(dp2303
g2288
I12
sg2289
I12
sg2290
I9
sg2291
I11
sg2296
I1
sg2293
I10
sg2294
I0
sg2295
I11
sg2292
I13
sg2297
I15
sg2298
I13
sg2299
I12
sg2300
I0
sg2301
I11
sg2302
I9
ssg124
g38
(g39
g40
Ntp2304
Rp2305
(dp2306
g44
I5
sg45
S'xx'
p2307
sg47
g2263
sbsg125
I0
sg126
I0
sg127
I1
sg128
I0
sg129
I0
sg130
F11.970588235294118
sg131
I0
sg132
(S'dummy'
p2308
S'PI'
p2309
S'TA'
p2310
S'DL'
p2311
tp2312
sg138
(dp2313
g2266
I0
sg2267
I0
sg2268
I0
sg2269
I0
ssg140
F192.50586889131952
sg141
I2
sg142
I0
sg98
(dp2314
g2277
I0
sg2278
I0
sg2279
I0
sg2280
I0
ssg144
(dp2315
S's13'
p2316
(ijoueur
joueur
p2317
(dp2318
g28
I0
sg30
F16.0
sg126
I0
sg33
I0
sg71
I5
sg35
I0
sg37
g2260
sg51
(dp2319
S'SR'
p2320
I0
sS'ST'
p2321
I0
sS'CR'
p2322
I0
sS'CT'
p2323
I0
ssg138
g2313
sg154
S'SN 10'
p2324
sg155
I112
sg61
(dp2325
S'couleur'
p2326
I1
sS'valeur'
p2327
I1
sS'r_n'
p2328
S'n'
p2329
ssg67
I0
sg72
I1
sg73
I0
sg74
I0
sg101
g2286
sg76
I00
sg124
g2305
sg77
F1.0
sg84
I00
sg85
(dp2330
S'SR'
p2331
I0
sS'CT'
p2332
I0
sS'CR'
p2333
I0
sS'ST'
p2334
I0
ssg87
g2282
sg89
I0
sg90
(lp2335
S'dummy'
p2336
aI01
aI01
aI01
asg78
(dp2337
g2331
I0
sg2332
I11
sg2333
I0
sg2334
I6
ssg94
S'Vrokhaen (13)'
p2338
sg96
I5
sg97
I0
sg104
I13
sg100
I1093
sg132
g2312
sg105
(dp2339
S'A'
p2340
I0
sS'ME'
p2341
I0
sS'RP2'
p2342
I0
sS'E'
p2343
I0
sS'TO'
p2344
I0
sS'RP1'
p2345
I0
sS'JP'
p2346
I0
sS'RP_tot'
p2347
I0
sS'P'
p2348
I0
sS'PA'
p2349
I0
sS'M'
p2350
I0
sS'R'
p2351
I0
sS'TB'
p2352
I0
sS'PL'
p2353
I0
sS'TA'
p2354
I0
ssg144
(dp2355
sg125
I0
sg31
g32
sg127
I0
sg128
F18.0
sg129
I0
sg130
F11.941176470588236
sg131
I0
sg141
I0
sg98
(dp2356
g2331
I0
sg2332
I1
sg2333
I0
sg2334
I0
ssg193
I0
sg122
(dp2357
S'A'
p2358
I12
sS'ME'
p2359
I12
sS'RP2'
p2360
I9
sS'E'
p2361
I11
sS'P'
p2362
I1
sS'RP1'
p2363
I9
sS'JP'
p2364
I0
sS'RP_tot'
p2365
I11
sS'TO'
p2366
I13
sS'PA'
p2367
I15
sS'M'
p2368
I12
sS'R'
p2369
I12
sS'TB'
p2370
I0
sS'PL'
p2371
I11
sS'TA'
p2372
I9
ssg210
I0
sg211
I0
sg212
I0
sg213
I0
sg75
I0
sg214
I0
sg143
I0
sg93
I0
sg215
I0
sg216
S'S'
p2373
sbsS's12'
p2374
(ijoueur
joueur
p2375
(dp2376
g27
F11.441176470588236
sg28
I1
sg30
F10.0
sg31
g32
sg33
I0
sg71
I4
sg35
I0
sg37
g38
(g39
g40
Ntp2377
Rp2378
(dp2379
g44
I5
sg45
S'xx'
p2380
sg47
S'seigneur'
p2381
sbsg51
(dp2382
S'SR'
p2383
I0
sS'CT'
p2384
I0
sS'CR'
p2385
I0
sS'ST'
p2386
I5
ssg138
(dp2387
g2383
I0
sg2384
I0
sg2385
I0
sg2386
I0
ssg60
I0
sg155
I112
sg61
(dp2388
g2326
I1
sg2327
I1
sg2328
g2329
ssg67
I0
sg68
I0
sg69
I0
sg72
I5
sg73
I0
sg74
I0
sg101
S'MSL'
p2389
sg76
I00
sg77
F12.5
sg78
(dp2390
S'SR'
p2391
I0
sS'ST'
p2392
I1
sS'CR'
p2393
I0
sS'CT'
p2394
I14
ssg84
I00
sg85
(dp2395
g2391
I0
sg2392
I0
sg2393
I0
sg2394
I0
ssg87
(dp2396
g2383
I0
sg2384
I28
sg2385
I0
sg2386
I10
ssg89
I0
sg90
(lp2397
g2336
aI01
aI01
aI01
asg93
I0
sg94
S'Vrokhaen (12)'
p2398
sg96
I5
sg97
I0
sg104
I13
sg100
I1093
sg132
(S'dummy'
p2399
S'PI'
p2400
S'TA'
p2401
S'DL'
p2402
tp2403
sg105
(dp2404
S'A'
p2405
I12
sS'ME'
p2406
I12
sS'RP2'
p2407
I9
sS'E'
p2408
I11
sS'P'
p2409
I1
sS'RP1'
p2410
I9
sS'JP'
p2411
I0
sS'RP_tot'
p2412
I11
sS'TO'
p2413
I13
sS'PA'
p2414
I15
sS'M'
p2415
I12
sS'R'
p2416
I12
sS'TB'
p2417
I0
sS'PL'
p2418
I11
sS'TA'
p2419
I10
ssg124
g38
(g39
g40
Ntp2420
Rp2421
(dp2422
g44
I5
sg45
S'xx'
p2423
sg47
g2381
sbsg125
I7
sg126
I0
sg127
I1
sg128
F19.0
sg129
I0
sg130
F11.941176470588236
sg131
I0
sg141
I0
sg142
I0
sg98
(dp2424
g2391
I0
sg2392
I4
sg2393
I0
sg2394
I0
ssg144
(dp2425
S's11'
p2426
(ijoueur
joueur
p2427
(dp2428
g28
I0
sg33
I0
sg35
I0
sg37
g38
(g39
g40
Ntp2429
Rp2430
(dp2431
g44
I5
sg45
S'xx'
p2432
sg47
S'seigneur'
p2433
sbsg51
(dp2434
S'SR'
p2435
I0
sS'CT'
p2436
I0
sS'CR'
p2437
I0
sS'ST'
p2438
I0
ssg138
(dp2439
g2435
I0
sg2436
I0
sg2437
I0
sg2438
I0
ssg60
I0
sg130
F11.441176470588236
sg67
I0
sg68
I0
sg69
I0
sg72
I4
sg73
I0
sg74
I0
sg132
(S'dummy'
p2440
S'PI'
p2441
S'TA'
p2442
S'DL'
p2443
tp2444
sg76
I00
sg124
g38
(g39
g40
Ntp2445
Rp2446
(dp2447
g44
I5
sg45
S'xx'
p2448
sg47
g2433
sbsg78
(dp2449
g2435
I0
sg2436
I14
sg2437
I0
sg2438
I9
ssg84
I00
sg85
(dp2450
g2435
I0
sg2436
I0
sg2437
I0
sg2438
I0
ssg87
(dp2451
g2435
I0
sg2436
I14
sg2437
I0
sg2438
I9
ssg89
I0
sg93
I0
sg94
S'Vrokhaen'
p2452
sg96
I5
sg97
I0
sg104
I13
sg100
I1093
sg101
S'MSL'
p2453
sg105
(dp2454
S'A'
p2455
I12
sS'ME'
p2456
I10
sS'RP2'
p2457
I9
sS'E'
p2458
I11
sS'P'
p2459
I1
sS'RP1'
p2460
I9
sS'JP'
p2461
I0
sS'RP_tot'
p2462
I11
sS'TO'
p2463
I13
sS'PA'
p2464
I15
sS'M'
p2465
I11
sS'R'
p2466
I11
sS'TB'
p2467
I0
sS'PL'
p2468
I11
sS'TA'
p2469
I10
ssg125
I0
sg126
I0
sg127
I1
sg129
I0
sg98
(dp2470
g2435
I0
sg2436
I0
sg2437
I0
sg2438
I0
ssg131
I0
sg142
I0
sg143
I1
sg193
I0
sg317
(dp2471
S'A'
p2472
I12
sS'ME'
p2473
I10
sS'RP2'
p2474
I9
sS'E'
p2475
I11
sS'P'
p2476
I1
sS'RP1'
p2477
I9
sS'JP'
p2478
I0
sS'RP_tot'
p2479
I11
sS'TO'
p2480
I13
sS'PA'
p2481
I15
sS'M'
p2482
I11
sS'R'
p2483
I11
sS'TB'
p2484
I0
sS'PL'
p2485
I11
sS'TA'
p2486
I10
ssg122
g2454
sg210
I0
sg154
S'SN 10'
p2487
sg211
I0
sg212
I0
sg213
I0
sg155
I112
sg214
I26
sg215
I0
sg216
S'S'
p2488
sbssg193
I0
sg317
(dp2489
S'A'
p2490
I12
sS'ME'
p2491
I10
sS'RP2'
p2492
I9
sS'E'
p2493
I11
sS'TO'
p2494
I13
sS'RP1'
p2495
I9
sS'JP'
p2496
I0
sS'RP_tot'
p2497
I11
sS'P'
p2498
I1
sS'PA'
p2499
I15
sS'M'
p2500
I11
sS'R'
p2501
I11
sS'TB'
p2502
I0
sS'PL'
p2503
I11
sS'TA'
p2504
I10
ssg122
g2404
sg210
I1
sg154
S'SN 10'
p2505
sg211
I0
sg212
I0
sg213
I0
sg75
I0
sg214
I31
sg143
I0
sg215
I0
sg216
S'S'
p2506
sbsS's11'
p2507
(ijoueur
joueur
p2508
(dp2509
g28
I0
sg30
F1.0
sg33
I0
sg71
I3
sg35
I0
sg37
g38
(g39
g40
Ntp2510
Rp2511
(dp2512
g44
I5
sg45
S'xx'
p2513
sg47
S'seigneur'
p2514
sbsg51
(dp2515
S'SR'
p2516
I0
sS'CT'
p2517
I0
sS'CR'
p2518
I0
sS'ST'
p2519
I0
ssg138
(dp2520
g2516
I0
sg2517
I0
sg2518
I0
sg2519
I0
ssg60
I0
sg155
I112
sg61
(dp2521
g2326
I1
sg2327
I1
sg2328
g2329
ssg67
I0
sg68
I0
sg69
I0
sg72
I4
sg73
I0
sg74
I0
sg101
S'MSL'
p2522
sg76
I00
sg77
F23.0
sg78
(dp2523
g2516
I0
sg2517
I14
sg2518
I0
sg2519
I9
ssg84
I00
sg85
(dp2524
g2516
I0
sg2517
I0
sg2518
I0
sg2519
I0
ssg87
(dp2525
g2516
I0
sg2517
I14
sg2518
I0
sg2519
I9
ssg89
I0
sg90
(lp2526
g2336
aI01
aI01
aI01
asg93
I0
sg94
S'Vrokhaen (11)'
p2527
sg96
I5
sg97
I0
sg104
I13
sg100
I1093
sg132
(S'dummy'
p2528
S'PI'
p2529
S'TA'
p2530
S'DL'
p2531
tp2532
sg105
(dp2533
S'A'
p2534
I12
sS'ME'
p2535
I10
sS'RP2'
p2536
I9
sS'E'
p2537
I11
sS'P'
p2538
I1
sS'RP1'
p2539
I9
sS'JP'
p2540
I0
sS'RP_tot'
p2541
I11
sS'TO'
p2542
I13
sS'PA'
p2543
I15
sS'M'
p2544
I11
sS'R'
p2545
I11
sS'TB'
p2546
I0
sS'PL'
p2547
I11
sS'TA'
p2548
I10
ssg124
g38
(g39
g40
Ntp2549
Rp2550
(dp2551
g44
I5
sg45
S'xx'
p2552
sg47
g2514
sbsg125
I0
sg126
I0
sg127
I1
sg128
F23.0
sg129
I0
sg130
F11.441176470588236
sg131
I0
sg141
I0
sg142
I0
sg98
(dp2553
g2516
I0
sg2517
I0
sg2518
I0
sg2519
I0
ssg193
I0
sg317
(dp2554
S'A'
p2555
I12
sS'ME'
p2556
I10
sS'RP2'
p2557
I9
sS'E'
p2558
I11
sS'P'
p2559
I1
sS'RP1'
p2560
I9
sS'JP'
p2561
I0
sS'RP_tot'
p2562
I11
sS'TO'
p2563
I13
sS'PA'
p2564
I15
sS'M'
p2565
I11
sS'R'
p2566
I11
sS'TB'
p2567
I0
sS'PL'
p2568
I11
sS'TA'
p2569
I10
ssg122
g2533
sg210
I0
sg154
S'SN 10'
p2570
sg211
I0
sg212
I0
sg213
I0
sg75
I0
sg214
I26
sg143
I1
sg215
I0
sg216
S'S'
p2571
sbssg193
I0
sg317
(dp2572
S'A'
p2573
I12
sS'ME'
p2574
I10
sS'RP2'
p2575
I9
sS'E'
p2576
I11
sS'TO'
p2577
I13
sS'RP1'
p2578
I9
sS'JP'
p2579
I0
sS'RP_tot'
p2580
I11
sS'P'
p2581
I1
sS'PA'
p2582
I15
sS'M'
p2583
I11
sS'R'
p2584
I11
sS'TB'
p2585
I0
sS'PL'
p2586
I11
sS'TA'
p2587
I10
ssg210
I0
sg433
(dp2588
sg211
I0
sg154
g2324
sg212
I0
sg213
I0
sg155
I112
sg214
I32
sg143
I0
sg215
I0
sg216
g2373
sbsS'drop2'
p2589
(ijoueur
joueur
p2590
(dp2591
g27
F11.935483870967742
sg28
I0
sg29
F12.129032258064516
sg30
F12.5
sg31
g32
sg33
I7
sg34
F213.56123995722234
sg35
I0
sg36
I0
sg37
g38
(g39
g40
Ntp2592
Rp2593
(dp2594
g44
I5
sg45
S'**'
p2595
sg47
S'seigneur'
p2596
sbsg49
(dp2597
sg51
(dp2598
S'SR'
p2599
I2
sS'ST'
p2600
I2
sS'CR'
p2601
I1
sS'CT'
p2602
I3
ssg57
F11.548387096774194
sg58
I0
sg59
I10
sg60
I0
sg61
(dp2603
S'couleur'
p2604
I1
sS'valeur'
p2605
I11
sS'r_n'
p2606
S'n'
p2607
ssg67
I0
sg140
F213.56123995722234
sg70
I00
sg71
I5
sg72
I0
sg73
I0
sg74
I0
sg75
I3
sg76
I00
sg77
F20.0
sg78
(dp2608
S'SR'
p2609
I0
sS'ST'
p2610
I0
sS'CR'
p2611
I0
sS'CT'
p2612
I0
ssg84
I00
sg85
(dp2613
g2609
I0
sg2610
I0
sg2611
I0
sg2612
I0
ssg87
(dp2614
g2599
I2
sg2600
I2
sg2601
I0
sg2602
I39
ssg89
I5
sg90
(lp2615
S'dummy'
p2616
aI01
aI01
aI01
asg93
I0
sg94
S'Frors'
p2617
sg96
I5
sg97
I0
sg98
(dp2618
g2609
I0
sg2610
I0
sg2611
I0
sg2612
I0
ssg100
I230
sg101
S'AL'
p2619
sg103
I00
sg104
I16
sg105
(dp2620
S'A'
p2621
I12
sS'ME'
p2622
I4
sS'RP2'
p2623
I12
sS'E'
p2624
I10
sS'P'
p2625
I11
sS'RP1'
p2626
I11
sS'JP'
p2627
I12
sS'RP_tot'
p2628
I14
sS'TO'
p2629
I8
sS'PA'
p2630
I13
sS'M'
p2631
I13
sS'R'
p2632
I8
sS'TB'
p2633
I10
sS'PL'
p2634
I12
sS'TA'
p2635
I4
ssg122
(dp2636
g2621
I12
sg2622
I4
sg2623
I12
sg2624
I10
sg2629
I8
sg2626
I11
sg2627
I12
sg2628
I14
sg2625
I11
sg2630
I13
sg2631
I13
sg2632
I8
sg2633
I10
sg2634
I12
sg2635
I4
ssg124
g38
(g39
g40
Ntp2637
Rp2638
(dp2639
g44
I5
sg45
S'**'
p2640
sg47
g2596
sbsg125
I0
sg126
I0
sg127
I0
sg128
I0
sg129
I0
sg130
F12.225806451612904
sg131
I0
sg132
(S'dummy'
p2641
S'AI'
p2642
S'AR'
p2643
S'CE'
p2644
tp2645
sg138
(dp2646
g2599
I0
sg2600
I11
sg2601
I0
sg2602
I0
ssg141
I6
sg143
I0
sg144
(dp2647
S's13'
p2648
(ijoueur
joueur
p2649
(dp2650
g28
I0
sg30
F12.5
sg126
I0
sg33
I0
sg71
I5
sg35
I0
sg37
g2593
sg51
(dp2651
S'SR'
p2652
I0
sS'ST'
p2653
I0
sS'CR'
p2654
I0
sS'CT'
p2655
I0
ssg138
g2646
sg154
S'TO 14'
p2656
sg155
I33
sg61
(dp2657
S'couleur'
p2658
I1
sS'valeur'
p2659
I1
sS'r_n'
p2660
S'n'
p2661
ssg67
I0
sg72
I3
sg73
I0
sg74
I0
sg101
S'TO'
p2662
sg76
I00
sg124
g2638
sg77
F0.5
sg84
I00
sg85
(dp2663
S'SR'
p2664
I0
sS'ST'
p2665
I5
sS'CR'
p2666
I0
sS'CT'
p2667
I0
ssg87
g2614
sg89
I0
sg90
(lp2668
S'dummy'
p2669
aI01
aI01
aI01
asg78
(dp2670
g2664
I0
sg2665
I0
sg2666
I0
sg2667
I15
ssg94
S'Frors (13)'
p2671
sg96
I5
sg97
I0
sg104
I16
sg100
I230
sg132
g2645
sg105
(dp2672
S'A'
p2673
I0
sS'ME'
p2674
I0
sS'RP2'
p2675
I0
sS'E'
p2676
I0
sS'TO'
p2677
I0
sS'RP1'
p2678
I0
sS'JP'
p2679
I0
sS'RP_tot'
p2680
I0
sS'P'
p2681
I0
sS'PA'
p2682
I0
sS'M'
p2683
I0
sS'R'
p2684
I0
sS'TB'
p2685
I0
sS'PL'
p2686
I0
sS'TA'
p2687
I0
ssg144
(dp2688
sg125
I0
sg31
g32
sg127
I0
sg128
F20.0
sg129
I0
sg130
F11.548387096774194
sg131
I0
sg141
I0
sg98
(dp2689
g2664
I0
sg2665
I0
sg2666
I0
sg2667
I0
ssg193
I0
sg122
(dp2690
S'A'
p2691
I11
sS'ME'
p2692
I4
sS'RP2'
p2693
I11
sS'E'
p2694
I10
sS'P'
p2695
I11
sS'RP1'
p2696
I11
sS'JP'
p2697
I11
sS'RP_tot'
p2698
I14
sS'TO'
p2699
I8
sS'PA'
p2700
I13
sS'M'
p2701
I11
sS'R'
p2702
I8
sS'TB'
p2703
I9
sS'PL'
p2704
I11
sS'TA'
p2705
I4
ssg210
I0
sg211
I0
sg212
I5
sg213
I0
sg75
I0
sg214
I0
sg143
I0
sg93
I5
sg215
I0
sg216
S'S'
p2706
sbsS's12'
p2707
(ijoueur
joueur
p2708
(dp2709
g27
F11.935483870967742
sg28
I0
sg30
F4.5
sg31
g32
sg33
I2
sg71
I4
sg35
I0
sg37
g38
(g39
g40
Ntp2710
Rp2711
(dp2712
g44
I5
sg45
S'**'
p2713
sg47
S'seigneur'
p2714
sbsg51
(dp2715
S'SR'
p2716
I2
sS'ST'
p2717
I2
sS'CR'
p2718
I1
sS'CT'
p2719
I3
ssg138
(dp2720
g2716
I0
sg2717
I6
sg2718
I0
sg2719
I0
ssg60
I0
sg155
I20
sg61
(dp2721
g2658
I1
sg2659
I1
sg2660
g2661
ssg67
I0
sg72
I7
sg73
I0
sg74
I0
sg101
S'TO'
p2722
sg76
I00
sg124
g38
(g39
g40
Ntp2723
Rp2724
(dp2725
g44
I5
sg45
S'**'
p2726
sg47
g2714
sbsg77
F2.0
sg84
I01
sg85
(dp2727
S'SR'
p2728
I0
sS'ST'
p2729
I5
sS'CR'
p2730
I0
sS'CT'
p2731
I0
ssg87
(dp2732
g2716
I2
sg2717
I2
sg2718
I0
sg2719
I24
ssg89
I0
sg90
(lp2733
g2669
aI01
aI01
aI01
asg78
(dp2734
g2728
I0
sg2729
I0
sg2730
I0
sg2731
I11
ssg94
S'Frors (12)'
p2735
sg96
I5
sg97
I0
sg104
I16
sg100
I162
sg132
(S'dummy'
p2736
S'AI'
p2737
S'AR'
p2738
S'CE'
p2739
tp2740
sg105
(dp2741
S'A'
p2742
I12
sS'ME'
p2743
I4
sS'RP2'
p2744
I11
sS'E'
p2745
I10
sS'TO'
p2746
I8
sS'RP1'
p2747
I11
sS'JP'
p2748
I12
sS'RP_tot'
p2749
I15
sS'P'
p2750
I11
sS'PA'
p2751
I13
sS'M'
p2752
I12
sS'R'
p2753
I8
sS'TB'
p2754
I8
sS'PL'
p2755
I11
sS'TA'
p2756
I4
ssg144
(dp2757
S's11'
p2758
(ijoueur
joueur
p2759
(dp2760
g28
I0
sg33
I1
sg35
I0
sg37
g38
(g39
g40
Ntp2761
Rp2762
(dp2763
g44
I5
sg45
S'**'
p2764
sg47
S'seigneur'
p2765
sbsg51
(dp2766
S'SR'
p2767
I2
sS'ST'
p2768
I2
sS'CR'
p2769
I0
sS'CT'
p2770
I2
ssg138
(dp2771
g2767
I0
sg2768
I0
sg2769
I0
sg2770
I0
ssg60
I0
sg67
I0
sg84
I00
sg72
I1
sg73
I0
sg74
I0
sg132
(S'dummy'
p2772
S'AI'
p2773
S'AR'
p2774
S'CE'
p2775
tp2776
sg76
I00
sg124
g38
(g39
g40
Ntp2777
Rp2778
(dp2779
g44
I5
sg45
S'**'
p2780
sg47
g2765
sbsg78
(dp2781
g2767
I2
sg2768
I2
sg2769
I0
sg2770
I13
ssg98
(dp2782
g2767
I2
sg2768
I2
sg2769
I0
sg2770
I2
ssg85
(dp2783
g2767
I0
sg2768
I0
sg2769
I0
sg2770
I0
ssg87
(dp2784
g2767
I2
sg2768
I2
sg2769
I0
sg2770
I13
ssg89
I0
sg93
I0
sg94
S'Frors'
p2785
sg96
I5
sg97
I0
sg104
I16
sg100
I162
sg101
S'TO'
p2786
sg105
(dp2787
S'A'
p2788
I12
sS'ME'
p2789
I4
sS'RP2'
p2790
I11
sS'E'
p2791
I10
sS'TO'
p2792
I8
sS'RP1'
p2793
I11
sS'JP'
p2794
I11
sS'RP_tot'
p2795
I15
sS'P'
p2796
I11
sS'PA'
p2797
I13
sS'M'
p2798
I11
sS'R'
p2799
I8
sS'TB'
p2800
I9
sS'PL'
p2801
I11
sS'TA'
p2802
I4
ssg125
I0
sg126
I0
sg127
I0
sg129
I0
sg130
F11.935483870967742
sg131
I0
sg143
I0
sg193
I0
sg317
(dp2803
S'A'
p2804
I12
sS'ME'
p2805
I4
sS'RP2'
p2806
I11
sS'E'
p2807
I10
sS'TO'
p2808
I8
sS'RP1'
p2809
I11
sS'JP'
p2810
I11
sS'RP_tot'
p2811
I15
sS'P'
p2812
I11
sS'PA'
p2813
I13
sS'M'
p2814
I11
sS'R'
p2815
I8
sS'TB'
p2816
I9
sS'PL'
p2817
I11
sS'TA'
p2818
I4
ssg122
g2787
sg210
I0
sg154
g32
sg211
I0
sg212
I0
sg213
I0
sg155
I20
sg214
I26
sg215
I0
sg216
S'S'
p2819
sbssg125
I8
sg126
I0
sg127
I0
sg128
F17.5
sg129
I0
sg130
F12.129032258064516
sg131
I0
sg141
I0
sg98
(dp2820
g2728
I0
sg2729
I0
sg2730
I1
sg2731
I1
ssg193
I0
sg317
(dp2821
S'A'
p2822
I12
sS'ME'
p2823
I4
sS'RP2'
p2824
I11
sS'E'
p2825
I10
sS'P'
p2826
I11
sS'RP1'
p2827
I11
sS'JP'
p2828
I11
sS'RP_tot'
p2829
I15
sS'TO'
p2830
I8
sS'PA'
p2831
I13
sS'M'
p2832
I11
sS'R'
p2833
I8
sS'TB'
p2834
I9
sS'PL'
p2835
I11
sS'TA'
p2836
I4
ssg122
g2741
sg210
I0
sg154
g32
sg211
I0
sg212
I1
sg213
I0
sg75
I0
sg214
I33
sg143
I0
sg93
I0
sg215
I0
sg216
S'S'
p2837
sbsS's11'
p2838
(ijoueur
joueur
p2839
(dp2840
g28
I0
sg30
F8.0
sg33
I1
sg71
I2
sg35
I0
sg37
g38
(g39
g40
Ntp2841
Rp2842
(dp2843
g44
I5
sg45
S'**'
p2844
sg47
S'seigneur'
p2845
sbsg51
(dp2846
S'SR'
p2847
I2
sS'ST'
p2848
I2
sS'CR'
p2849
I0
sS'CT'
p2850
I2
ssg138
(dp2851
g2847
I0
sg2848
I0
sg2849
I0
sg2850
I0
ssg60
I0
sg155
I20
sg61
(dp2852
g2658
I1
sg2659
I1
sg2660
g2661
ssg67
I0
sg72
I1
sg73
I0
sg74
I0
sg101
S'TO'
p2853
sg76
I00
sg124
g38
(g39
g40
Ntp2854
Rp2855
(dp2856
g44
I5
sg45
S'**'
p2857
sg47
g2845
sbsg77
F21.0
sg84
I00
sg85
(dp2858
g2847
I0
sg2848
I0
sg2849
I0
sg2850
I0
ssg87
(dp2859
g2847
I2
sg2848
I2
sg2849
I0
sg2850
I13
ssg89
I0
sg90
(lp2860
g2669
aI01
aI01
aI01
asg93
I0
sg94
S'Frors (11)'
p2861
sg96
I5
sg97
I0
sg104
I16
sg100
I162
sg132
(S'dummy'
p2862
S'AI'
p2863
S'AR'
p2864
S'CE'
p2865
tp2866
sg78
(dp2867
g2847
I2
sg2848
I2
sg2849
I0
sg2850
I13
ssg105
(dp2868
S'A'
p2869
I12
sS'ME'
p2870
I4
sS'RP2'
p2871
I11
sS'E'
p2872
I10
sS'TO'
p2873
I8
sS'RP1'
p2874
I11
sS'JP'
p2875
I11
sS'RP_tot'
p2876
I15
sS'P'
p2877
I11
sS'PA'
p2878
I13
sS'M'
p2879
I11
sS'R'
p2880
I8
sS'TB'
p2881
I9
sS'PL'
p2882
I11
sS'TA'
p2883
I4
ssg125
I0
sg126
I0
sg127
I0
sg128
F21.0
sg129
I0
sg130
F11.935483870967742
sg131
I0
sg141
I0
sg98
(dp2884
g2847
I2
sg2848
I2
sg2849
I0
sg2850
I2
ssg193
I0
sg317
(dp2885
S'A'
p2886
I12
sS'ME'
p2887
I4
sS'RP2'
p2888
I11
sS'E'
p2889
I10
sS'TO'
p2890
I8
sS'RP1'
p2891
I11
sS'JP'
p2892
I11
sS'RP_tot'
p2893
I15
sS'P'
p2894
I11
sS'PA'
p2895
I13
sS'M'
p2896
I11
sS'R'
p2897
I8
sS'TB'
p2898
I9
sS'PL'
p2899
I11
sS'TA'
p2900
I4
ssg122
g2868
sg210
I0
sg154
g32
sg211
I0
sg212
I0
sg213
I0
sg75
I0
sg214
I26
sg143
I0
sg215
I0
sg216
S'S'
p2901
sbssg193
I1
sg317
(dp2902
S'A'
p2903
I12
sS'ME'
p2904
I4
sS'RP2'
p2905
I11
sS'E'
p2906
I10
sS'P'
p2907
I11
sS'RP1'
p2908
I11
sS'JP'
p2909
I11
sS'RP_tot'
p2910
I15
sS'TO'
p2911
I8
sS'PA'
p2912
I13
sS'M'
p2913
I11
sS'R'
p2914
I8
sS'TB'
p2915
I9
sS'PL'
p2916
I11
sS'TA'
p2917
I4
ssg210
I0
sg433
(dp2918
sg211
I0
sg154
g2656
sg212
I0
sg213
I0
sg155
I33
sg214
I36
sg215
I0
sg216
g2706
sbsS'SA_remp2'
p2919
(ijoueur
joueur
p2920
(dp2921
g27
F10.741935483870968
sg28
I0
sg29
F11.225806451612904
sg30
F15.5
sg31
g32
sg33
I0
sg34
F211.57993319062743
sg35
I0
sg36
I0
sg37
g38
(g39
g40
Ntp2922
Rp2923
(dp2924
g44
I3
sg45
S'^^^'
p2925
sg47
S'rare'
p2926
sbsg49
(dp2927
sg51
(dp2928
S'SR'
p2929
I0
sS'CT'
p2930
I4
sS'CR'
p2931
I0
sS'ST'
p2932
I0
ssg57
F10.96774193548387
sg58
I0
sg59
I10
sg60
I0
sg61
(dp2933
S'couleur'
p2934
I1
sS'valeur'
p2935
I10
sS'r_n'
p2936
S'n'
p2937
ssg67
I0
sg140
F211.57993319062743
sg70
I00
sg71
I6
sg72
I0
sg73
I0
sg74
I0
sg75
I4
sg76
I00
sg77
F20.0
sg78
(dp2938
S'SR'
p2939
I0
sS'CT'
p2940
I0
sS'CR'
p2941
I0
sS'ST'
p2942
I0
ssg84
I00
sg85
(dp2943
g2939
I0
sg2940
I0
sg2941
I0
sg2942
I0
ssg87
(dp2944
g2929
I0
sg2930
I31
sg2931
I3
sg2932
I21
ssg89
I0
sg90
(lp2945
S'dummy'
p2946
aI01
aI01
aI00
asg93
I0
sg94
S'Crepich'
p2947
sg96
I8
sg97
I0
sg98
(dp2948
g2939
I0
sg2940
I0
sg2941
I0
sg2942
I0
ssg100
I100
sg101
S'QNL'
p2949
sg103
I00
sg104
I19
sg105
(dp2950
S'A'
p2951
I12
sS'ME'
p2952
I8
sS'RP2'
p2953
I7
sS'E'
p2954
I9
sS'TO'
p2955
I12
sS'RP1'
p2956
I6
sS'JP'
p2957
I4
sS'RP_tot'
p2958
I7
sS'P'
p2959
I5
sS'PA'
p2960
I9
sS'M'
p2961
I7
sS'R'
p2962
I14
sS'TB'
p2963
I6
sS'PL'
p2964
I16
sS'TA'
p2965
I5
ssg122
(dp2966
g2951
I12
sg2952
I8
sg2953
I7
sg2954
I9
sg2959
I5
sg2956
I6
sg2957
I4
sg2958
I7
sg2955
I12
sg2960
I9
sg2961
I7
sg2962
I14
sg2963
I6
sg2964
I16
sg2965
I5
ssg124
g38
(g39
g40
Ntp2967
Rp2968
(dp2969
g44
I3
sg45
S'^^^'
p2970
sg47
g2926
sbsg125
I0
sg126
I0
sg127
I2
sg128
I0
sg129
I0
sg130
F11.710526315789474
sg131
I0
sg132
(S'dummy'
p2971
S'TL'
p2972
S'DL'
p2973
g32
tp2974
sg138
(dp2975
g2929
I0
sg2930
I0
sg2931
I0
sg2932
I0
ssg141
I7
sg143
I0
sg144
(dp2976
S's13'
p2977
(ijoueur
joueur
p2978
(dp2979
g28
I0
sg30
F15.5
sg126
I0
sg33
I0
sg71
I6
sg35
I0
sg37
g2923
sg51
(dp2980
S'SR'
p2981
I0
sS'CT'
p2982
I0
sS'CR'
p2983
I0
sS'ST'
p2984
I0
ssg138
g2975
sg75
I0
sg154
S'BRB 12'
p2985
sg61
(dp2986
S'couleur'
p2987
I1
sS'valeur'
p2988
I1
sS'r_n'
p2989
S'n'
p2990
ssg67
I0
sg72
I0
sg73
I0
sg74
I0
sg132
g2974
sg76
I00
sg124
g2968
sg77
F5.5
sg84
I00
sg85
(dp2991
S'SR'
p2992
I0
sS'ST'
p2993
I0
sS'CR'
p2994
I0
sS'CT'
p2995
I0
ssg87
g2944
sg89
I0
sg90
(lp2996
S'dummy'
p2997
aI01
aI01
aI00
asg78
(dp2998
g2992
I0
sg2993
I6
sg2994
I0
sg2995
I14
ssg94
S'Crepich (13)'
p2999
sg96
I8
sg97
I0
sg104
I19
sg100
I100
sg101
g2949
sg105
(dp3000
S'A'
p3001
I0
sS'ME'
p3002
I0
sS'RP2'
p3003
I0
sS'E'
p3004
I0
sS'P'
p3005
I0
sS'RP1'
p3006
I0
sS'JP'
p3007
I0
sS'RP_tot'
p3008
I0
sS'TO'
p3009
I0
sS'PA'
p3010
I0
sS'M'
p3011
I0
sS'R'
p3012
I0
sS'TB'
p3013
I0
sS'PL'
p3014
I0
sS'TA'
p3015
I0
ssg144
(dp3016
sg125
I0
sg31
g32
sg127
I0
sg128
F20.0
sg129
I0
sg130
F10.96774193548387
sg131
I0
sg141
I0
sg98
(dp3017
g2992
I0
sg2993
I0
sg2994
I0
sg2995
I0
ssg193
I0
sg122
(dp3018
S'A'
p3019
I11
sS'ME'
p3020
I8
sS'RP2'
p3021
I7
sS'E'
p3022
I9
sS'TO'
p3023
I10
sS'RP1'
p3024
I5
sS'JP'
p3025
I4
sS'RP_tot'
p3026
I7
sS'P'
p3027
I5
sS'PA'
p3028
I9
sS'M'
p3029
I7
sS'R'
p3030
I14
sS'TB'
p3031
I6
sS'PL'
p3032
I13
sS'TA'
p3033
I5
ssg210
I0
sg211
I0
sg212
I0
sg213
I0
sg155
I19
sg214
I0
sg143
I0
sg93
I0
sg215
I0
sg216
S'S'
p3034
sbsS's12'
p3035
(ijoueur
joueur
p3036
(dp3037
g27
F10.741935483870968
sg28
I0
sg30
F5.5
sg31
g32
sg33
I0
sg71
I5
sg35
I0
sg37
g38
(g39
g40
Ntp3038
Rp3039
(dp3040
g44
I3
sg45
S'^^^'
p3041
sg47
S'rare'
p3042
sbsg51
(dp3043
S'SR'
p3044
I0
sS'CT'
p3045
I4
sS'CR'
p3046
I0
sS'ST'
p3047
I0
ssg138
(dp3048
g3044
I0
sg3045
I0
sg3046
I0
sg3047
I0
ssg75
I0
sg60
I0
sg61
(dp3049
g2987
I1
sg2988
I1
sg2989
g2990
ssg67
I0
sg72
I0
sg73
I0
sg74
I0
sg132
(S'dummy'
p3050
S'TL'
p3051
S'DL'
p3052
g32
tp3053
sg76
I00
sg124
g38
(g39
g40
Ntp3054
Rp3055
(dp3056
g44
I3
sg45
S'^^^'
p3057
sg47
g3042
sbsg77
F2.0
sg84
I01
sg85
(dp3058
S'SR'
p3059
I0
sS'ST'
p3060
I0
sS'CR'
p3061
I0
sS'CT'
p3062
I0
ssg87
(dp3063
g3044
I0
sg3045
I17
sg3046
I3
sg3047
I15
ssg89
I0
sg90
(lp3064
g2997
aI01
aI01
aI00
asg78
(dp3065
g3059
I0
sg3060
I6
sg3061
I0
sg3062
I14
ssg94
S'Crepich (12)'
p3066
sg96
I8
sg97
I0
sg104
I19
sg100
I100
sg101
S'QNL'
p3067
sg105
(dp3068
S'A'
p3069
I11
sS'ME'
p3070
I9
sS'RP2'
p3071
I7
sS'E'
p3072
I9
sS'P'
p3073
I5
sS'RP1'
p3074
I5
sS'JP'
p3075
I4
sS'RP_tot'
p3076
I7
sS'TO'
p3077
I10
sS'PA'
p3078
I9
sS'M'
p3079
I7
sS'R'
p3080
I14
sS'TB'
p3081
I6
sS'PL'
p3082
I14
sS'TA'
p3083
I5
ssg144
(dp3084
S's11'
p3085
(ijoueur
joueur
p3086
(dp3087
g28
I0
sg33
I0
sg35
I0
sg37
g38
(g39
g40
Ntp3088
Rp3089
(dp3090
g44
I3
sg45
S'^^^'
p3091
sg47
S'rare'
p3092
sbsg51
(dp3093
S'SR'
p3094
I0
sS'CT'
p3095
I4
sS'CR'
p3096
I0
sS'ST'
p3097
I0
ssg138
(dp3098
g3094
I0
sg3095
I0
sg3096
I0
sg3097
I0
ssg60
I0
sg67
I0
sg84
I01
sg72
I0
sg73
I0
sg74
I0
sg132
(S'dummy'
p3099
S'TL'
p3100
S'DL'
p3101
g32
tp3102
sg76
I01
sg124
g38
(g39
g40
Ntp3103
Rp3104
(dp3105
g44
I3
sg45
S'^^^'
p3106
sg47
g3092
sbsg78
(dp3107
g3094
I0
sg3095
I3
sg3096
I3
sg3097
I8
ssg98
(dp3108
g3094
I0
sg3095
I4
sg3096
I0
sg3097
I0
ssg85
(dp3109
g3094
I0
sg3095
I0
sg3096
I0
sg3097
I0
ssg87
(dp3110
g3094
I0
sg3095
I3
sg3096
I3
sg3097
I8
ssg89
I0
sg93
I0
sg94
S'Crepich'
p3111
sg96
I8
sg97
I0
sg104
I19
sg100
I18
sg101
S'BRB'
p3112
sg105
(dp3113
S'A'
p3114
I11
sS'ME'
p3115
I8
sS'RP2'
p3116
I7
sS'E'
p3117
I9
sS'P'
p3118
I5
sS'RP1'
p3119
I6
sS'JP'
p3120
I4
sS'RP_tot'
p3121
I7
sS'TO'
p3122
I10
sS'PA'
p3123
I9
sS'M'
p3124
I8
sS'R'
p3125
I13
sS'TB'
p3126
I6
sS'PL'
p3127
I13
sS'TA'
p3128
I5
ssg125
I0
sg126
I0
sg127
I0
sg129
I0
sg130
F10.741935483870968
sg131
I0
sg143
I0
sg193
I0
sg317
(dp3129
S'A'
p3130
I11
sS'ME'
p3131
I8
sS'RP2'
p3132
I7
sS'E'
p3133
I9
sS'P'
p3134
I5
sS'RP1'
p3135
I6
sS'JP'
p3136
I4
sS'RP_tot'
p3137
I7
sS'TO'
p3138
I10
sS'PA'
p3139
I9
sS'M'
p3140
I8
sS'R'
p3141
I13
sS'TB'
p3142
I6
sS'PL'
p3143
I13
sS'TA'
p3144
I5
ssg122
g3113
sg210
I0
sg154
g32
sg211
I0
sg212
I0
sg213
I0
sg155
I2
sg214
I0
sg215
I0
sg216
S'S'
p3145
sbssg125
I11
sg126
I0
sg127
I1
sg128
F20.0
sg129
I0
sg130
F11.225806451612904
sg131
I0
sg141
I0
sg98
(dp3146
g3059
I0
sg3060
I0
sg3061
I0
sg3062
I0
ssg193
I1
sg317
(dp3147
S'A'
p3148
I11
sS'ME'
p3149
I8
sS'RP2'
p3150
I7
sS'E'
p3151
I9
sS'TO'
p3152
I10
sS'RP1'
p3153
I6
sS'JP'
p3154
I4
sS'RP_tot'
p3155
I7
sS'P'
p3156
I5
sS'PA'
p3157
I9
sS'M'
p3158
I8
sS'R'
p3159
I13
sS'TB'
p3160
I6
sS'PL'
p3161
I13
sS'TA'
p3162
I5
ssg122
g3068
sg210
I0
sg154
S'BRB 12'
p3163
sg211
I0
sg212
I0
sg213
I0
sg155
I19
sg214
I0
sg143
I1
sg93
I0
sg215
I1
sg216
S'S'
p3164
sbsS's11'
p3165
(ijoueur
joueur
p3166
(dp3167
g28
I0
sg30
F3.5
sg33
I0
sg71
I3
sg35
I0
sg37
g38
(g39
g40
Ntp3168
Rp3169
(dp3170
g44
I3
sg45
S'^^^'
p3171
sg47
S'rare'
p3172
sbsg51
(dp3173
S'SR'
p3174
I0
sS'CT'
p3175
I4
sS'CR'
p3176
I0
sS'ST'
p3177
I0
ssg138
(dp3178
g3174
I0
sg3175
I0
sg3176
I0
sg3177
I0
ssg75
I0
sg60
I0
sg61
(dp3179
g2987
I1
sg2988
I1
sg2989
g2990
ssg67
I0
sg72
I0
sg73
I0
sg74
I0
sg132
(S'dummy'
p3180
S'TL'
p3181
S'DL'
p3182
g32
tp3183
sg76
I01
sg124
g38
(g39
g40
Ntp3184
Rp3185
(dp3186
g44
I3
sg45
S'^^^'
p3187
sg47
g3172
sbsg77
F16.5
sg84
I01
sg85
(dp3188
g3174
I0
sg3175
I0
sg3176
I0
sg3177
I0
ssg87
(dp3189
g3174
I0
sg3175
I3
sg3176
I3
sg3177
I8
ssg89
I0
sg90
(lp3190
g2997
aI01
aI01
aI00
asg93
I0
sg94
S'Crepich (11)'
p3191
sg96
I8
sg97
I0
sg104
I19
sg100
I18
sg101
S'BRB'
p3192
sg78
(dp3193
g3174
I0
sg3175
I3
sg3176
I3
sg3177
I8
ssg105
(dp3194
S'A'
p3195
I11
sS'ME'
p3196
I8
sS'RP2'
p3197
I7
sS'E'
p3198
I9
sS'P'
p3199
I5
sS'RP1'
p3200
I6
sS'JP'
p3201
I4
sS'RP_tot'
p3202
I7
sS'TO'
p3203
I10
sS'PA'
p3204
I9
sS'M'
p3205
I8
sS'R'
p3206
I13
sS'TB'
p3207
I6
sS'PL'
p3208
I13
sS'TA'
p3209
I5
ssg125
I0
sg126
I0
sg127
I0
sg128
F16.5
sg129
I0
sg130
F10.741935483870968
sg131
I0
sg141
I0
sg98
(dp3210
g3174
I0
sg3175
I4
sg3176
I0
sg3177
I0
ssg193
I0
sg317
(dp3211
S'A'
p3212
I11
sS'ME'
p3213
I8
sS'RP2'
p3214
I7
sS'E'
p3215
I9
sS'P'
p3216
I5
sS'RP1'
p3217
I6
sS'JP'
p3218
I4
sS'RP_tot'
p3219
I7
sS'TO'
p3220
I10
sS'PA'
p3221
I9
sS'M'
p3222
I8
sS'R'
p3223
I13
sS'TB'
p3224
I6
sS'PL'
p3225
I13
sS'TA'
p3226
I5
ssg122
g3194
sg210
I0
sg154
g32
sg211
I0
sg212
I0
sg213
I0
sg155
I2
sg214
I0
sg143
I0
sg215
I0
sg216
S'S'
p3227
sbssg193
I1
sg317
(dp3228
S'A'
p3229
I11
sS'ME'
p3230
I8
sS'RP2'
p3231
I7
sS'E'
p3232
I9
sS'TO'
p3233
I10
sS'RP1'
p3234
I6
sS'JP'
p3235
I4
sS'RP_tot'
p3236
I7
sS'P'
p3237
I5
sS'PA'
p3238
I9
sS'M'
p3239
I8
sS'R'
p3240
I13
sS'TB'
p3241
I6
sS'PL'
p3242
I13
sS'TA'
p3243
I5
ssg210
I0
sg433
(dp3244
sg211
I0
sg154
g2985
sg212
I0
sg213
I0
sg155
I19
sg214
I0
sg215
I0
sg216
g3034
sbssg94
csip
_unpickle_type
p3245
(S'PyQt4.QtCore'
p3246
S'QString'
p3247
(VS_defaut
p3248
tp3249
tp3250
Rp3251
sS'totaux'
p3252
(dp3253
g19
I0
sg20
I0
sg21
I0
ssS'_compo_defaut_fatigue'
p3254
Nsg105
(dp3255
g4
I0
sg5
I0
sg6
I0
sg7
I0
sg8
I0
sg9
I0
sg10
I0
sg11
I0
sg12
I0
sg13
I0
sg14
I0
sg15
I0
sg16
I0
ssS'joueurs'
p3256
(dp3257
S'n12'
p3258
g436
sS'n13'
p3259
g1738
sS'n10'
p3260
g1406
sS'n11'
p3261
(ijoueur
joueur
p3262
(dp3263
g27
F12.903225806451612
sg28
I1
sg29
F12.870967741935484
sg30
F1.0
sg31
g32
sg33
I0
sg34
F202.51778104425935
sg35
I0
sg36
I0
sg37
g38
(g39
g40
Ntp3264
Rp3265
(dp3266
g44
I5
sg45
S'**'
p3267
sg47
S'seigneur'
p3268
sbsg49
(dp3269
sg51
(dp3270
S'SR'
p3271
I0
sS'CT'
p3272
I1
sS'CR'
p3273
I0
sS'ST'
p3274
I0
ssg57
F12.419354838709678
sg58
I0
sg59
I10
sg60
I0
sg61
(dp3275
S'couleur'
p3276
I3
sS'valeur'
p3277
I12
sS'r_n'
p3278
S'n'
p3279
ssg67
I0
sg68
I0
sg69
I0
sg70
I00
sg71
I6
sg72
I0
sg73
I0
sg74
I0
sg75
I2
sg76
I00
sg77
F19.0
sg78
(dp3280
S'SR'
p3281
I0
sS'ST'
p3282
I0
sS'CR'
p3283
I0
sS'CT'
p3284
I0
ssg98
(dp3285
g3281
I0
sg3282
I0
sg3283
I0
sg3284
I0
ssg85
(dp3286
g3281
I0
sg3282
I0
sg3283
I0
sg3284
I0
ssg87
(dp3287
g3271
I0
sg3272
I41
sg3273
I0
sg3274
I21
ssg89
I0
sg90
(lp3288
S'dummy'
p3289
aI01
aI01
aI00
asg93
I0
sg94
S'Boersd'
p3290
sg96
I5
sg97
I0
sg84
I00
sg100
I99
sg101
S'ALT'
p3291
sg103
I00
sg104
I15
sg105
(dp3292
S'A'
p3293
I17
sS'ME'
p3294
I5
sS'RP2'
p3295
I14
sS'E'
p3296
I11
sS'TO'
p3297
I10
sS'RP1'
p3298
I9
sS'JP'
p3299
I8
sS'RP_tot'
p3300
I15
sS'P'
p3301
I9
sS'PA'
p3302
I9
sS'M'
p3303
I12
sS'R'
p3304
I12
sS'TB'
p3305
I8
sS'PL'
p3306
I14
sS'TA'
p3307
I4
ssg122
(dp3308
g3293
I17
sg3294
I5
sg3295
I14
sg3296
I11
sg3301
I9
sg3298
I9
sg3299
I8
sg3300
I15
sg3297
I10
sg3302
I9
sg3303
I12
sg3304
I12
sg3305
I8
sg3306
I14
sg3307
I4
ssg124
g38
(g39
g40
Ntp3309
Rp3310
(dp3311
g44
I5
sg45
S'**'
p3312
sg47
g3268
sbsg125
I0
sg126
I0
sg127
I0
sg128
I0
sg129
I0
sg130
F13.161290322580646
sg131
I0
sg132
(S'dummy'
p3313
S'AI'
p3314
S'CE'
p3315
g32
tp3316
sg138
(dp3317
g3271
I0
sg3272
I0
sg3273
I0
sg3274
I0
ssg140
F202.51778104425935
sg141
I5
sg142
I0
sg143
I0
sg144
(dp3318
S's13'
p3319
(ijoueur
joueur
p3320
(dp3321
g28
I0
sg30
F1.0
sg126
I0
sg33
I0
sg71
I6
sg35
I0
sg37
g3265
sg51
(dp3322
S'SR'
p3323
I0
sS'CT'
p3324
I0
sS'CR'
p3325
I0
sS'ST'
p3326
I0
ssg138
g3317
sg75
I0
sg154
g32
sg61
(dp3327
S'couleur'
p3328
I1
sS'valeur'
p3329
I1
sS'r_n'
p3330
S'n'
p3331
ssg67
I0
sg72
I7
sg73
I0
sg74
I0
sg132
g3316
sg76
I00
sg124
g3310
sg77
F0.5
sg84
I00
sg85
(dp3332
S'SR'
p3333
I0
sS'CT'
p3334
I0
sS'CR'
p3335
I0
sS'ST'
p3336
I0
ssg87
g3287
sg89
I0
sg90
(lp3337
S'dummy'
p3338
aI01
aI01
aI00
asg78
(dp3339
g3333
I0
sg3334
I12
sg3335
I0
sg3336
I6
ssg94
S'Boersd (13)'
p3340
sg96
I5
sg97
I0
sg104
I15
sg100
I99
sg101
g3291
sg105
(dp3341
S'A'
p3342
I0
sS'ME'
p3343
I0
sS'RP2'
p3344
I0
sS'E'
p3345
I0
sS'P'
p3346
I0
sS'RP1'
p3347
I0
sS'JP'
p3348
I0
sS'RP_tot'
p3349
I0
sS'TO'
p3350
I0
sS'PA'
p3351
I0
sS'M'
p3352
I0
sS'R'
p3353
I0
sS'TB'
p3354
I0
sS'PL'
p3355
I0
sS'TA'
p3356
I0
ssg144
(dp3357
sg125
I0
sg31
g32
sg127
I0
sg128
F19.0
sg129
I0
sg130
F12.419354838709678
sg131
I0
sg141
I0
sg98
(dp3358
g3333
I0
sg3334
I1
sg3335
I0
sg3336
I0
ssg193
I0
sg122
(dp3359
S'A'
p3360
I15
sS'ME'
p3361
I5
sS'RP2'
p3362
I14
sS'E'
p3363
I11
sS'P'
p3364
I9
sS'RP1'
p3365
I9
sS'JP'
p3366
I8
sS'RP_tot'
p3367
I15
sS'TO'
p3368
I10
sS'PA'
p3369
I9
sS'M'
p3370
I10
sS'R'
p3371
I11
sS'TB'
p3372
I9
sS'PL'
p3373
I14
sS'TA'
p3374
I4
ssg210
I0
sg211
I0
sg212
I0
sg213
I0
sg155
I16
sg214
I0
sg143
I0
sg93
I0
sg215
I0
sg216
S'S'
p3375
sbsS's12'
p3376
(ijoueur
joueur
p3377
(dp3378
g27
F12.903225806451612
sg28
I1
sg30
F11.0
sg31
g32
sg33
I0
sg71
I4
sg35
I0
sg37
g38
(g39
g40
Ntp3379
Rp3380
(dp3381
g44
I5
sg45
S'**'
p3382
sg47
S'seigneur'
p3383
sbsg51
(dp3384
S'SR'
p3385
I0
sS'CT'
p3386
I0
sS'CR'
p3387
I0
sS'ST'
p3388
I0
ssg138
(dp3389
g3385
I0
sg3386
I0
sg3387
I0
sg3388
I0
ssg75
I0
sg60
I0
sg61
(dp3390
g3328
I1
sg3329
I1
sg3330
g3331
ssg67
I0
sg68
I0
sg69
I0
sg72
I5
sg73
I0
sg74
I0
sg132
(S'dummy'
p3391
S'AI'
p3392
S'CE'
p3393
g32
tp3394
sg76
I00
sg77
F0.0
sg78
(dp3395
S'SR'
p3396
I0
sS'ST'
p3397
I6
sS'CR'
p3398
I0
sS'CT'
p3399
I14
ssg84
I01
sg85
(dp3400
g3396
I0
sg3397
I0
sg3398
I0
sg3399
I0
ssg87
(dp3401
g3385
I0
sg3386
I29
sg3387
I0
sg3388
I15
ssg89
I0
sg90
(lp3402
g3338
aI01
aI01
aI00
asg93
I0
sg94
S'Boersd (12)'
p3403
sg96
I5
sg97
I0
sg104
I15
sg100
I99
sg101
S'ALT'
p3404
sg105
(dp3405
S'A'
p3406
I15
sS'ME'
p3407
I5
sS'RP2'
p3408
I14
sS'E'
p3409
I11
sS'P'
p3410
I9
sS'RP1'
p3411
I9
sS'JP'
p3412
I8
sS'RP_tot'
p3413
I16
sS'TO'
p3414
I10
sS'PA'
p3415
I10
sS'M'
p3416
I11
sS'R'
p3417
I11
sS'TB'
p3418
I10
sS'PL'
p3419
I14
sS'TA'
p3420
I4
ssg124
g38
(g39
g40
Ntp3421
Rp3422
(dp3423
g44
I5
sg45
S'**'
p3424
sg47
g3383
sbsg125
I10
sg126
I0
sg127
I0
sg128
F20.0
sg129
I0
sg130
F12.870967741935484
sg131
I0
sg141
I0
sg142
I0
sg98
(dp3425
g3396
I0
sg3397
I0
sg3398
I0
sg3399
I0
ssg144
(dp3426
S's11'
p3427
(ijoueur
joueur
p3428
(dp3429
g28
I0
sg33
I0
sg35
I0
sg37
g38
(g39
g40
Ntp3430
Rp3431
(dp3432
g44
I5
sg45
S'**'
p3433
sg47
S'seigneur'
p3434
sbsg51
(dp3435
S'SR'
p3436
I0
sS'CT'
p3437
I0
sS'CR'
p3438
I0
sS'ST'
p3439
I0
ssg138
(dp3440
g3436
I0
sg3437
I0
sg3438
I0
sg3439
I0
ssg60
I0
sg130
F12.903225806451612
sg67
I0
sg68
I0
sg69
I0
sg72
I4
sg73
I0
sg74
I0
sg132
(S'dummy'
p3441
S'AI'
p3442
S'CE'
p3443
g32
tp3444
sg76
I00
sg124
g38
(g39
g40
Ntp3445
Rp3446
(dp3447
g44
I5
sg45
S'**'
p3448
sg47
g3434
sbsg78
(dp3449
g3436
I0
sg3437
I15
sg3438
I0
sg3439
I8
ssg84
I01
sg85
(dp3450
g3436
I0
sg3437
I0
sg3438
I0
sg3439
I0
ssg87
(dp3451
g3436
I0
sg3437
I15
sg3438
I0
sg3439
I8
ssg89
I0
sg93
I0
sg94
S'Boersd'
p3452
sg96
I5
sg97
I0
sg104
I15
sg100
I99
sg101
S'ALT'
p3453
sg105
(dp3454
S'A'
p3455
I17
sS'ME'
p3456
I5
sS'RP2'
p3457
I13
sS'E'
p3458
I11
sS'P'
p3459
I9
sS'RP1'
p3460
I9
sS'JP'
p3461
I8
sS'RP_tot'
p3462
I15
sS'TO'
p3463
I10
sS'PA'
p3464
I10
sS'M'
p3465
I11
sS'R'
p3466
I10
sS'TB'
p3467
I10
sS'PL'
p3468
I13
sS'TA'
p3469
I4
ssg125
I0
sg126
I0
sg127
I0
sg129
I0
sg98
(dp3470
g3436
I0
sg3437
I0
sg3438
I0
sg3439
I0
ssg131
I0
sg142
I0
sg143
I0
sg193
I0
sg317
(dp3471
S'A'
p3472
I17
sS'ME'
p3473
I5
sS'RP2'
p3474
I13
sS'E'
p3475
I11
sS'P'
p3476
I9
sS'RP1'
p3477
I9
sS'JP'
p3478
I8
sS'RP_tot'
p3479
I15
sS'TO'
p3480
I10
sS'PA'
p3481
I10
sS'M'
p3482
I11
sS'R'
p3483
I10
sS'TB'
p3484
I10
sS'PL'
p3485
I13
sS'TA'
p3486
I4
ssg122
g3454
sg210
I0
sg154
g32
sg211
I0
sg212
I0
sg213
I0
sg155
I16
sg214
I20
sg215
I0
sg216
S'S'
p3487
sbssg193
I1
sg317
(dp3488
S'A'
p3489
I17
sS'ME'
p3490
I5
sS'RP2'
p3491
I13
sS'E'
p3492
I11
sS'TO'
p3493
I10
sS'RP1'
p3494
I9
sS'JP'
p3495
I8
sS'RP_tot'
p3496
I15
sS'P'
p3497
I9
sS'PA'
p3498
I10
sS'M'
p3499
I11
sS'R'
p3500
I10
sS'TB'
p3501
I10
sS'PL'
p3502
I13
sS'TA'
p3503
I4
ssg122
g3405
sg210
I1
sg154
g32
sg211
I0
sg212
I0
sg213
I0
sg155
I16
sg214
I25
sg143
I0
sg215
I1
sg216
S'S'
p3504
sbsS's11'
p3505
(ijoueur
joueur
p3506
(dp3507
g28
I0
sg30
F1.0
sg33
I0
sg71
I3
sg35
I0
sg37
g38
(g39
g40
Ntp3508
Rp3509
(dp3510
g44
I5
sg45
S'**'
p3511
sg47
S'seigneur'
p3512
sbsg51
(dp3513
S'SR'
p3514
I0
sS'CT'
p3515
I0
sS'CR'
p3516
I0
sS'ST'
p3517
I0
ssg138
(dp3518
g3514
I0
sg3515
I0
sg3516
I0
sg3517
I0
ssg75
I0
sg60
I0
sg61
(dp3519
g3328
I1
sg3329
I1
sg3330
g3331
ssg67
I0
sg68
I0
sg69
I0
sg72
I4
sg73
I0
sg74
I0
sg132
(S'dummy'
p3520
S'AI'
p3521
S'CE'
p3522
g32
tp3523
sg76
I00
sg77
F23.0
sg78
(dp3524
g3514
I0
sg3515
I15
sg3516
I0
sg3517
I8
ssg84
I01
sg85
(dp3525
g3514
I0
sg3515
I0
sg3516
I0
sg3517
I0
ssg87
(dp3526
g3514
I0
sg3515
I15
sg3516
I0
sg3517
I8
ssg89
I0
sg90
(lp3527
g3338
aI01
aI01
aI00
asg93
I0
sg94
S'Boersd (11)'
p3528
sg96
I5
sg97
I0
sg104
I15
sg100
I99
sg101
S'ALT'
p3529
sg105
(dp3530
S'A'
p3531
I17
sS'ME'
p3532
I5
sS'RP2'
p3533
I13
sS'E'
p3534
I11
sS'P'
p3535
I9
sS'RP1'
p3536
I9
sS'JP'
p3537
I8
sS'RP_tot'
p3538
I15
sS'TO'
p3539
I10
sS'PA'
p3540
I10
sS'M'
p3541
I11
sS'R'
p3542
I10
sS'TB'
p3543
I10
sS'PL'
p3544
I13
sS'TA'
p3545
I4
ssg124
g38
(g39
g40
Ntp3546
Rp3547
(dp3548
g44
I5
sg45
S'**'
p3549
sg47
g3512
sbsg125
I0
sg126
I0
sg127
I0
sg128
F23.0
sg129
I0
sg130
F12.903225806451612
sg131
I0
sg141
I0
sg142
I0
sg98
(dp3550
g3514
I0
sg3515
I0
sg3516
I0
sg3517
I0
ssg193
I0
sg317
(dp3551
S'A'
p3552
I17
sS'ME'
p3553
I5
sS'RP2'
p3554
I13
sS'E'
p3555
I11
sS'P'
p3556
I9
sS'RP1'
p3557
I9
sS'JP'
p3558
I8
sS'RP_tot'
p3559
I15
sS'TO'
p3560
I10
sS'PA'
p3561
I10
sS'M'
p3562
I11
sS'R'
p3563
I10
sS'TB'
p3564
I10
sS'PL'
p3565
I13
sS'TA'
p3566
I4
ssg122
g3530
sg210
I0
sg154
g32
sg211
I0
sg212
I0
sg213
I0
sg155
I16
sg214
I20
sg143
I0
sg215
I0
sg216
S'S'
p3567
sbssg193
I1
sg317
(dp3568
S'A'
p3569
I17
sS'ME'
p3570
I5
sS'RP2'
p3571
I13
sS'E'
p3572
I11
sS'TO'
p3573
I10
sS'RP1'
p3574
I9
sS'JP'
p3575
I8
sS'RP_tot'
p3576
I15
sS'P'
p3577
I9
sS'PA'
p3578
I10
sS'M'
p3579
I11
sS'R'
p3580
I10
sS'TB'
p3581
I10
sS'PL'
p3582
I13
sS'TA'
p3583
I4
ssg210
I0
sg433
(dp3584
sg211
I0
sg154
g32
sg212
I0
sg213
I0
sg155
I16
sg214
I32
sg215
I0
sg216
g3375
sbsS'n16'
p3585
(ijoueur
joueur
p3586
(dp3587
g27
F8.137931034482758
sg28
I0
sg29
F9.310344827586206
sg30
F4.5
sg31
g32
sg33
I0
sg34
F222.5407157784729
sg35
I0
sg36
I0
sg37
g38
(g39
g40
Ntp3588
Rp3589
(dp3590
g44
I4
sg45
S'*'
p3591
sg47
S'heros'
p3592
sbsg49
(dp3593
sg51
(dp3594
S'SR'
p3595
I0
sS'ST'
p3596
I0
sS'CR'
p3597
I0
sS'CT'
p3598
I0
ssg57
F9.655172413793103
sg58
I0
sg59
I10
sg60
I0
sg61
(dp3599
S'couleur'
p3600
I1
sS'valeur'
p3601
I10
sS'r_n'
p3602
S'n'
p3603
ssg67
I0
sg68
I0
sg69
I0
sg70
I01
sg71
I5
sg72
I0
sg73
I0
sg74
I0
sg75
I2
sg76
I00
sg77
F17.0
sg78
(dp3604
S'SR'
p3605
I0
sS'ST'
p3606
I0
sS'CR'
p3607
I0
sS'CT'
p3608
I0
ssg84
I00
sg85
(dp3609
g3605
I0
sg3606
I0
sg3607
I0
sg3608
I0
ssg87
(dp3610
g3595
I10
sg3596
I0
sg3597
I16
sg3598
I14
ssg89
I0
sg90
(lp3611
S'dummy'
p3612
aI01
aI00
aI00
asg93
I0
sg94
S'Jisster'
p3613
sg96
I11
sg97
I0
sg98
(dp3614
g3605
I0
sg3606
I0
sg3607
I0
sg3608
I0
ssg100
I106
sg101
S'KH'
p3615
sg103
I00
sg104
I19
sg105
(dp3616
S'A'
p3617
I12
sS'ME'
p3618
I11
sS'RP2'
p3619
I8
sS'E'
p3620
I10
sS'P'
p3621
I5
sS'RP1'
p3622
I9
sS'JP'
p3623
I4
sS'RP_tot'
p3624
I10
sS'TO'
p3625
I9
sS'PA'
p3626
I9
sS'M'
p3627
I8
sS'R'
p3628
I10
sS'TB'
p3629
I5
sS'PL'
p3630
I10
sS'TA'
p3631
I11
ssg122
(dp3632
g3617
I12
sg3618
I11
sg3619
I8
sg3620
I10
sg3625
I9
sg3622
I9
sg3623
I4
sg3624
I10
sg3621
I5
sg3626
I9
sg3627
I8
sg3628
I10
sg3629
I5
sg3630
I10
sg3631
I11
ssg124
g3589
sg125
I0
sg126
I0
sg127
I0
sg128
I0
sg129
I0
sg130
F10.275862068965518
sg131
I0
sg132
(S'dummy'
p3633
S'TA'
p3634
g32
g32
tp3635
sg138
(dp3636
g3595
I0
sg3596
I0
sg3597
I0
sg3598
I0
ssg140
F222.5407157784729
sg141
I5
sg142
I0
sg143
I0
sg144
(dp3637
S's13'
p3638
(ijoueur
joueur
p3639
(dp3640
g28
I0
sg30
F6.5
sg126
I0
sg33
I0
sg71
I5
sg35
I0
sg37
g3589
sg51
(dp3641
S'SR'
p3642
I0
sS'CT'
p3643
I0
sS'CR'
p3644
I0
sS'ST'
p3645
I0
ssg138
g3636
sg154
S'TA 14'
p3646
sg155
I8
sg61
(dp3647
S'couleur'
p3648
I1
sS'valeur'
p3649
I1
sS'r_n'
p3650
S'n'
p3651
ssg67
I0
sg72
I0
sg73
I0
sg74
I0
sg101
S'TA'
p3652
sg76
I00
sg124
g3589
sg77
F1.0
sg84
I00
sg85
(dp3653
S'SR'
p3654
I0
sS'CT'
p3655
I0
sS'CR'
p3656
I0
sS'ST'
p3657
I0
ssg87
g3610
sg89
I0
sg90
(lp3658
S'dummy'
p3659
aI01
aI00
aI00
asg78
(dp3660
g3654
I6
sg3655
I13
sg3656
I2
sg3657
I0
ssg94
S'Jisster (13)'
p3661
sg96
I11
sg97
I0
sg104
I19
sg100
I106
sg132
g3635
sg105
(dp3662
S'A'
p3663
I0
sS'ME'
p3664
I0
sS'RP2'
p3665
I0
sS'E'
p3666
I0
sS'P'
p3667
I0
sS'RP1'
p3668
I0
sS'JP'
p3669
I0
sS'RP_tot'
p3670
I0
sS'TO'
p3671
I0
sS'PA'
p3672
I0
sS'M'
p3673
I0
sS'R'
p3674
I0
sS'TB'
p3675
I0
sS'PL'
p3676
I0
sS'TA'
p3677
I0
ssg144
(dp3678
sg125
I0
sg31
g32
sg127
I0
sg128
F17.0
sg129
I0
sg130
F9.655172413793103
sg131
I0
sg141
I0
sg98
(dp3679
g3654
I0
sg3655
I0
sg3656
I0
sg3657
I0
ssg193
I0
sg122
(dp3680
S'A'
p3681
I11
sS'ME'
p3682
I9
sS'RP2'
p3683
I8
sS'E'
p3684
I10
sS'P'
p3685
I5
sS'RP1'
p3686
I9
sS'JP'
p3687
I4
sS'RP_tot'
p3688
I10
sS'TO'
p3689
I9
sS'PA'
p3690
I9
sS'M'
p3691
I8
sS'R'
p3692
I9
sS'TB'
p3693
I5
sS'PL'
p3694
I10
sS'TA'
p3695
I10
ssg210
I0
sg211
I0
sg212
I0
sg213
I0
sg75
I0
sg214
I0
sg143
I0
sg93
I0
sg215
I0
sg216
S'S'
p3696
sbsS's12'
p3697
(ijoueur
joueur
p3698
(dp3699
g27
F8.137931034482758
sg28
I0
sg30
F3.5
sg31
g32
sg33
I0
sg71
I3
sg35
I0
sg37
g38
(g39
g40
Ntp3700
Rp3701
(dp3702
g44
I4
sg45
S'*'
p3703
sg47
S'heros'
p3704
sbsg51
(dp3705
S'SR'
p3706
I0
sS'ST'
p3707
I0
sS'CR'
p3708
I0
sS'CT'
p3709
I0
ssg138
(dp3710
g3706
I0
sg3707
I0
sg3708
I0
sg3709
I0
ssg60
I0
sg155
I7
sg61
(dp3711
g3648
I1
sg3649
I1
sg3650
g3651
ssg67
I0
sg68
I0
sg69
I0
sg72
I1
sg73
I0
sg74
I0
sg101
S'TA'
p3712
sg76
I00
sg77
F0.0
sg78
(dp3713
S'SR'
p3714
I3
sS'ST'
p3715
I0
sS'CR'
p3716
I13
sS'CT'
p3717
I1
ssg84
I00
sg85
(dp3718
g3714
I0
sg3715
I0
sg3716
I0
sg3717
I0
ssg87
(dp3719
g3706
I4
sg3707
I0
sg3708
I14
sg3709
I1
ssg89
I0
sg90
(lp3720
g3659
aI01
aI00
aI00
asg93
I0
sg94
S'Jisster (12)'
p3721
sg96
I11
sg97
I0
sg104
I19
sg100
I95
sg132
(S'dummy'
p3722
S'TA'
p3723
g32
g32
tp3724
sg105
(dp3725
S'A'
p3726
I9
sS'ME'
p3727
I9
sS'RP2'
p3728
I8
sS'E'
p3729
I10
sS'TO'
p3730
I9
sS'RP1'
p3731
I9
sS'JP'
p3732
I4
sS'RP_tot'
p3733
I10
sS'P'
p3734
I5
sS'PA'
p3735
I9
sS'M'
p3736
I8
sS'R'
p3737
I8
sS'TB'
p3738
I5
sS'PL'
p3739
I10
sS'TA'
p3740
I10
ssg124
g3701
sg125
I0
sg126
I0
sg127
I0
sg128
F9.0
sg129
I0
sg130
F9.310344827586206
sg131
I0
sg141
I0
sg142
I0
sg98
(dp3741
g3714
I0
sg3715
I0
sg3716
I0
sg3717
I0
ssg144
(dp3742
S's11'
p3743
(ijoueur
joueur
p3744
(dp3745
g28
I0
sg33
I0
sg35
I0
sg37
g38
(g39
g40
Ntp3746
Rp3747
(dp3748
g44
I4
sg45
S'*'
p3749
sg47
S'heros'
p3750
sbsg51
(dp3751
S'SR'
p3752
I0
sS'ST'
p3753
I0
sS'CR'
p3754
I0
sS'CT'
p3755
I0
ssg138
(dp3756
g3752
I0
sg3753
I0
sg3754
I0
sg3755
I0
ssg98
(dp3757
g3752
I0
sg3753
I0
sg3754
I0
sg3755
I0
ssg60
I0
sg67
I0
sg68
I0
sg69
I0
sg72
I0
sg73
I0
sg74
I0
sg132
(S'dummy'
p3758
S'TA'
p3759
g32
g32
tp3760
sg76
I00
sg124
g38
(g39
g40
Ntp3761
Rp3762
(dp3763
g44
I3
sg45
S'^^^'
p3764
sg47
S'rare'
p3765
sbsg78
(dp3766
g3752
I0
sg3753
I0
sg3754
I1
sg3755
I0
ssg84
I00
sg85
(dp3767
g3752
I0
sg3753
I0
sg3754
I0
sg3755
I0
ssg87
(dp3768
g3752
I0
sg3753
I0
sg3754
I1
sg3755
I0
ssg89
I0
sg93
I0
sg94
S'Jisster'
p3769
sg96
I11
sg97
I0
sg104
I19
sg100
I43
sg101
S'TA'
p3770
sg105
(dp3771
S'A'
p3772
I7
sS'ME'
p3773
I9
sS'RP2'
p3774
I6
sS'E'
p3775
I9
sS'TO'
p3776
I7
sS'RP1'
p3777
I8
sS'JP'
p3778
I2
sS'RP_tot'
p3779
I8
sS'P'
p3780
I3
sS'PA'
p3781
I7
sS'M'
p3782
I8
sS'R'
p3783
I8
sS'TB'
p3784
I3
sS'PL'
p3785
I6
sS'TA'
p3786
I10
ssg125
I0
sg126
I0
sg127
I0
sg129
I0
sg130
F8.137931034482758
sg131
I0
sg142
I0
sg143
I0
sg193
I0
sg317
(dp3787
S'A'
p3788
I7
sS'ME'
p3789
I9
sS'RP2'
p3790
I6
sS'E'
p3791
I9
sS'TO'
p3792
I7
sS'RP1'
p3793
I8
sS'JP'
p3794
I2
sS'RP_tot'
p3795
I8
sS'P'
p3796
I3
sS'PA'
p3797
I7
sS'M'
p3798
I8
sS'R'
p3799
I8
sS'TB'
p3800
I3
sS'PL'
p3801
I6
sS'TA'
p3802
I10
ssg122
g3771
sg210
I0
sg154
g32
sg211
I0
sg212
I0
sg213
I0
sg155
I2
sg214
I0
sg215
I0
sg216
S'S'
p3803
sbssg193
I0
sg317
(dp3804
S'A'
p3805
I7
sS'ME'
p3806
I9
sS'RP2'
p3807
I6
sS'E'
p3808
I9
sS'TO'
p3809
I7
sS'RP1'
p3810
I8
sS'JP'
p3811
I2
sS'RP_tot'
p3812
I8
sS'P'
p3813
I3
sS'PA'
p3814
I7
sS'M'
p3815
I8
sS'R'
p3816
I8
sS'TB'
p3817
I3
sS'PL'
p3818
I6
sS'TA'
p3819
I10
ssg122
g3725
sg210
I0
sg154
g32
sg211
I0
sg212
I0
sg213
I0
sg75
I0
sg214
I1
sg143
I0
sg215
I0
sg216
S'S'
p3820
sbsS's11'
p3821
(ijoueur
joueur
p3822
(dp3823
g28
I0
sg30
F0.5
sg33
I0
sg71
I1
sg35
I0
sg37
g38
(g39
g40
Ntp3824
Rp3825
(dp3826
g44
I4
sg45
S'*'
p3827
sg47
S'heros'
p3828
sbsg51
(dp3829
S'SR'
p3830
I0
sS'ST'
p3831
I0
sS'CR'
p3832
I0
sS'CT'
p3833
I0
ssg138
(dp3834
g3830
I0
sg3831
I0
sg3832
I0
sg3833
I0
ssg60
I0
sg155
I2
sg61
(dp3835
g3648
I1
sg3649
I1
sg3650
g3651
ssg67
I0
sg68
I0
sg69
I0
sg72
I0
sg73
I0
sg74
I0
sg101
S'TA'
p3836
sg76
I00
sg77
F0.5
sg78
(dp3837
g3830
I0
sg3831
I0
sg3832
I1
sg3833
I0
ssg84
I00
sg85
(dp3838
g3830
I0
sg3831
I0
sg3832
I0
sg3833
I0
ssg87
(dp3839
g3830
I0
sg3831
I0
sg3832
I1
sg3833
I0
ssg89
I0
sg90
(lp3840
g3659
aI01
aI00
aI00
asg93
I0
sg94
S'Jisster (11)'
p3841
sg96
I11
sg97
I0
sg104
I19
sg100
I43
sg132
(S'dummy'
p3842
S'TA'
p3843
g32
g32
tp3844
sg105
(dp3845
S'A'
p3846
I7
sS'ME'
p3847
I9
sS'RP2'
p3848
I6
sS'E'
p3849
I9
sS'TO'
p3850
I7
sS'RP1'
p3851
I8
sS'JP'
p3852
I2
sS'RP_tot'
p3853
I8
sS'P'
p3854
I3
sS'PA'
p3855
I7
sS'M'
p3856
I8
sS'R'
p3857
I8
sS'TB'
p3858
I3
sS'PL'
p3859
I6
sS'TA'
p3860
I10
ssg124
g38
(g39
g40
Ntp3861
Rp3862
(dp3863
g44
I3
sg45
S'^^^'
p3864
sg47
S'rare'
p3865
sbsg125
I0
sg126
I0
sg127
I0
sg128
F0.5
sg129
I0
sg130
F8.137931034482758
sg131
I0
sg141
I0
sg142
I0
sg98
(dp3866
g3830
I0
sg3831
I0
sg3832
I0
sg3833
I0
ssg193
I0
sg317
(dp3867
S'A'
p3868
I7
sS'ME'
p3869
I9
sS'RP2'
p3870
I6
sS'E'
p3871
I9
sS'TO'
p3872
I7
sS'RP1'
p3873
I8
sS'JP'
p3874
I2
sS'RP_tot'
p3875
I8
sS'P'
p3876
I3
sS'PA'
p3877
I7
sS'M'
p3878
I8
sS'R'
p3879
I8
sS'TB'
p3880
I3
sS'PL'
p3881
I6
sS'TA'
p3882
I10
ssg122
g3845
sg210
I0
sg154
g32
sg211
I0
sg212
I0
sg213
I0
sg75
I0
sg214
I0
sg143
I0
sg215
I0
sg216
S'S'
p3883
sbssg193
I1
sg317
(dp3884
S'A'
p3885
I7
sS'ME'
p3886
I9
sS'RP2'
p3887
I6
sS'E'
p3888
I9
sS'TO'
p3889
I7
sS'RP1'
p3890
I8
sS'JP'
p3891
I2
sS'RP_tot'
p3892
I8
sS'P'
p3893
I3
sS'PA'
p3894
I7
sS'M'
p3895
I8
sS'R'
p3896
I8
sS'TB'
p3897
I3
sS'PL'
p3898
I6
sS'TA'
p3899
I10
ssg210
I0
sg433
(dp3900
sg211
I0
sg154
g3646
sg212
I0
sg213
I0
sg155
I8
sg214
I1
sg215
I0
sg216
g3696
sbsS'n17'
p3901
(ijoueur
joueur
p3902
(dp3903
g27
F9.814814814814815
sg28
I1
sg29
F9.407407407407407
sg30
F0.0
sg31
g32
sg33
I0
sg34
F190.34800205842674
sg35
I0
sg36
I0
sg37
g38
(g39
g40
Ntp3904
Rp3905
(dp3906
g44
I4
sg45
S'*'
p3907
sg47
S'heros'
p3908
sbsg49
(dp3909
sg51
(dp3910
S'SR'
p3911
I8
sS'ST'
p3912
I1
sS'CR'
p3913
I0
sS'CT'
p3914
I0
ssg57
F9.814814814814815
sg58
I0
sg59
I10
sg60
I0
sg61
(dp3915
S'couleur'
p3916
I2
sS'valeur'
p3917
I4
sS'r_n'
p3918
S'r'
p3919
ssg67
I0
sg140
F190.34800205842674
sg70
I00
sg71
I6
sg72
I0
sg73
I0
sg74
I0
sg75
I3
sg76
I00
sg77
F16.0
sg78
(dp3920
S'SR'
p3921
I0
sS'CT'
p3922
I0
sS'CR'
p3923
I0
sS'ST'
p3924
I0
ssg98
(dp3925
g3921
I0
sg3922
I0
sg3923
I0
sg3924
I0
ssg85
(dp3926
g3921
I0
sg3922
I0
sg3923
I0
sg3924
I0
ssg87
(dp3927
g3911
I3
sg3912
I2
sg3913
I17
sg3914
I26
ssg89
I0
sg90
(lp3928
S'dummy'
p3929
aI01
aI01
aI00
asg93
I0
sg94
S'Retohop'
p3930
sg96
I8
sg97
I0
sg84
I00
sg100
I98
sg101
S'DKW'
p3931
sg103
I00
sg104
I18
sg105
(dp3932
S'A'
p3933
I13
sS'ME'
p3934
I12
sS'RP2'
p3935
I9
sS'E'
p3936
I10
sS'P'
p3937
I6
sS'RP1'
p3938
I11
sS'JP'
p3939
I6
sS'RP_tot'
p3940
I12
sS'TO'
p3941
I6
sS'PA'
p3942
I10
sS'M'
p3943
I7
sS'R'
p3944
I7
sS'TB'
p3945
I4
sS'PL'
p3946
I9
sS'TA'
p3947
I9
ssg122
(dp3948
g3933
I13
sg3934
I12
sg3935
I9
sg3936
I10
sg3941
I6
sg3938
I11
sg3939
I6
sg3940
I12
sg3937
I6
sg3942
I10
sg3943
I7
sg3944
I7
sg3945
I4
sg3946
I9
sg3947
I9
ssg124
g38
(g39
g40
Ntp3949
Rp3950
(dp3951
g44
I5
sg45
S'**'
p3952
sg47
S'seigneur'
p3953
sbsg125
I0
sg126
I0
sg127
I1
sg128
I0
sg129
I0
sg130
F9.962962962962964
sg131
I0
sg132
(S'dummy'
p3954
S'PI'
p3955
S'TA'
p3956
g32
tp3957
sg138
(dp3958
g3911
I0
sg3912
I0
sg3913
I0
sg3914
I0
ssg141
I2
sg143
I0
sg144
(dp3959
S's13'
p3960
(ijoueur
joueur
p3961
(dp3962
g28
I0
sg30
F0.0
sg126
I0
sg33
I0
sg71
I6
sg35
I0
sg37
g3905
sg51
(dp3963
S'SR'
p3964
I0
sS'CT'
p3965
I0
sS'CR'
p3966
I0
sS'ST'
p3967
I0
ssg138
g3958
sg75
I0
sg154
S'ED 12'
p3968
sg61
(dp3969
S'couleur'
p3970
I1
sS'valeur'
p3971
I1
sS'r_n'
p3972
S'n'
p3973
ssg67
I0
sg72
I0
sg73
I0
sg74
I0
sg132
g3957
sg76
I00
sg124
g3950
sg77
F0.5
sg84
I00
sg85
(dp3974
S'SR'
p3975
I0
sS'ST'
p3976
I0
sS'CR'
p3977
I0
sS'CT'
p3978
I0
ssg87
g3927
sg89
I0
sg90
(lp3979
S'dummy'
p3980
aI01
aI01
aI00
asg78
(dp3981
g3975
I3
sg3976
I2
sg3977
I1
sg3978
I12
ssg94
S'Retohop (13)'
p3982
sg96
I8
sg97
I0
sg104
I18
sg100
I98
sg101
g3931
sg105
(dp3983
S'A'
p3984
I0
sS'ME'
p3985
I0
sS'RP2'
p3986
I0
sS'E'
p3987
I0
sS'P'
p3988
I0
sS'RP1'
p3989
I0
sS'JP'
p3990
I0
sS'RP_tot'
p3991
I0
sS'TO'
p3992
I0
sS'PA'
p3993
I0
sS'M'
p3994
I0
sS'R'
p3995
I0
sS'TB'
p3996
I0
sS'PL'
p3997
I0
sS'TA'
p3998
I0
ssg144
(dp3999
sg125
I0
sg31
g32
sg127
I0
sg128
F16.0
sg129
I0
sg130
F9.814814814814815
sg131
I0
sg141
I0
sg98
(dp4000
g3975
I0
sg3976
I0
sg3977
I0
sg3978
I0
ssg193
I0
sg122
(dp4001
S'A'
p4002
I13
sS'ME'
p4003
I12
sS'RP2'
p4004
I9
sS'E'
p4005
I9
sS'TO'
p4006
I6
sS'RP1'
p4007
I11
sS'JP'
p4008
I6
sS'RP_tot'
p4009
I12
sS'P'
p4010
I6
sS'PA'
p4011
I10
sS'M'
p4012
I7
sS'R'
p4013
I7
sS'TB'
p4014
I4
sS'PL'
p4015
I9
sS'TA'
p4016
I8
ssg210
I0
sg211
I0
sg212
I0
sg213
I0
sg155
I12
sg214
I0
sg143
I0
sg93
I0
sg215
I0
sg216
S'S'
p4017
sbsS's12'
p4018
(ijoueur
joueur
p4019
(dp4020
g27
F9.814814814814815
sg28
I0
sg30
F7.0
sg31
g32
sg33
I0
sg71
I4
sg35
I0
sg37
g38
(g39
g40
Ntp4021
Rp4022
(dp4023
g44
I4
sg45
S'*'
p4024
sg47
S'heros'
p4025
sbsg51
(dp4026
S'SR'
p4027
I8
sS'ST'
p4028
I1
sS'CR'
p4029
I0
sS'CT'
p4030
I0
ssg138
(dp4031
g4027
I0
sg4028
I0
sg4029
I0
sg4030
I0
ssg75
I0
sg60
I0
sg61
(dp4032
g3970
I1
sg3971
I1
sg3972
g3973
ssg67
I0
sg72
I1
sg73
I0
sg74
I0
sg132
(S'dummy'
p4033
S'PI'
p4034
S'TA'
p4035
g32
tp4036
sg76
I00
sg124
g38
(g39
g40
Ntp4037
Rp4038
(dp4039
g44
I4
sg45
g4024
sg47
g4025
sbsg77
F3.5
sg84
I00
sg85
(dp4040
S'SR'
p4041
I0
sS'CT'
p4042
I0
sS'CR'
p4043
I0
sS'ST'
p4044
I0
ssg87
(dp4045
g4027
I0
sg4028
I0
sg4029
I16
sg4030
I14
ssg89
I0
sg90
(lp4046
g3980
aI01
aI01
aI00
asg78
(dp4047
g4041
I0
sg4042
I10
sg4043
I5
sg4044
I0
ssg94
S'Retohop (12)'
p4048
sg96
I8
sg97
I0
sg104
I18
sg100
I78
sg101
S'DKW'
p4049
sg105
(dp4050
S'A'
p4051
I12
sS'ME'
p4052
I12
sS'RP2'
p4053
I8
sS'E'
p4054
I8
sS'TO'
p4055
I5
sS'RP1'
p4056
I11
sS'JP'
p4057
I5
sS'RP_tot'
p4058
I12
sS'P'
p4059
I5
sS'PA'
p4060
I9
sS'M'
p4061
I7
sS'R'
p4062
I7
sS'TB'
p4063
I3
sS'PL'
p4064
I8
sS'TA'
p4065
I8
ssg144
(dp4066
S's11'
p4067
(ijoueur
joueur
p4068
(dp4069
g28
I0
sg33
I0
sg35
I0
sg37
g38
(g39
g40
Ntp4070
Rp4071
(dp4072
g44
I4
sg45
S'*'
p4073
sg47
S'heros'
p4074
sbsg51
(dp4075
S'SR'
p4076
I8
sS'CT'
p4077
I0
sS'CR'
p4078
I0
sS'ST'
p4079
I1
ssg138
(dp4080
g4076
I0
sg4077
I0
sg4078
I0
sg4079
I0
ssg60
I0
sg67
I0
sg84
I00
sg72
I2
sg73
I0
sg74
I0
sg132
(S'dummy'
p4081
S'PI'
p4082
S'TA'
p4083
g32
tp4084
sg76
I01
sg124
g38
(g39
g40
Ntp4085
Rp4086
(dp4087
g44
I4
sg45
g4073
sg47
g4074
sbsg78
(dp4088
g4076
I0
sg4077
I4
sg4078
I11
sg4079
I0
ssg98
(dp4089
g4076
I8
sg4077
I0
sg4078
I0
sg4079
I1
ssg85
(dp4090
g4076
I0
sg4077
I0
sg4078
I0
sg4079
I0
ssg87
(dp4091
g4076
I0
sg4077
I4
sg4078
I11
sg4079
I0
ssg89
I0
sg93
I0
sg94
S'Retohop'
p4092
sg96
I8
sg97
I0
sg104
I18
sg100
I70
sg101
S'ED'
p4093
sg105
(dp4094
S'A'
p4095
I12
sS'ME'
p4096
I11
sS'RP2'
p4097
I8
sS'E'
p4098
I9
sS'P'
p4099
I5
sS'RP1'
p4100
I11
sS'JP'
p4101
I5
sS'RP_tot'
p4102
I12
sS'TO'
p4103
I5
sS'PA'
p4104
I9
sS'M'
p4105
I7
sS'R'
p4106
I9
sS'TB'
p4107
I3
sS'PL'
p4108
I8
sS'TA'
p4109
I9
ssg125
I0
sg126
I0
sg127
I1
sg129
I0
sg130
F9.814814814814815
sg131
I0
sg143
I1
sg193
I0
sg317
(dp4110
S'A'
p4111
I12
sS'ME'
p4112
I11
sS'RP2'
p4113
I8
sS'E'
p4114
I9
sS'P'
p4115
I5
sS'RP1'
p4116
I11
sS'JP'
p4117
I5
sS'RP_tot'
p4118
I12
sS'TO'
p4119
I5
sS'PA'
p4120
I9
sS'M'
p4121
I7
sS'R'
p4122
I9
sS'TB'
p4123
I3
sS'PL'
p4124
I8
sS'TA'
p4125
I9
ssg122
g4094
sg210
I0
sg154
g32
sg211
I0
sg212
I0
sg213
I0
sg155
I7
sg214
I2
sg215
I0
sg216
S'S'
p4126
sbssg125
I0
sg126
I0
sg127
I1
sg128
F12.5
sg129
I0
sg130
F9.407407407407407
sg131
I0
sg141
I0
sg98
(dp4127
g4041
I0
sg4042
I0
sg4043
I0
sg4044
I0
ssg193
I0
sg317
(dp4128
S'A'
p4129
I12
sS'ME'
p4130
I11
sS'RP2'
p4131
I8
sS'E'
p4132
I9
sS'TO'
p4133
I5
sS'RP1'
p4134
I11
sS'JP'
p4135
I5
sS'RP_tot'
p4136
I12
sS'P'
p4137
I5
sS'PA'
p4138
I9
sS'M'
p4139
I7
sS'R'
p4140
I9
sS'TB'
p4141
I3
sS'PL'
p4142
I8
sS'TA'
p4143
I9
ssg122
g4050
sg210
I0
sg154
S'ED 12'
p4144
sg211
I0
sg212
I0
sg213
I0
sg155
I10
sg214
I3
sg143
I0
sg93
I0
sg215
I0
sg216
S'S'
p4145
sbsS's11'
p4146
(ijoueur
joueur
p4147
(dp4148
g28
I0
sg30
F1.5
sg33
I0
sg71
I3
sg35
I0
sg37
g38
(g39
g40
Ntp4149
Rp4150
(dp4151
g44
I4
sg45
S'*'
p4152
sg47
S'heros'
p4153
sbsg51
(dp4154
S'SR'
p4155
I8
sS'CT'
p4156
I0
sS'CR'
p4157
I0
sS'ST'
p4158
I1
ssg138
(dp4159
g4155
I0
sg4156
I0
sg4157
I0
sg4158
I0
ssg75
I0
sg60
I0
sg61
(dp4160
g3970
I1
sg3971
I1
sg3972
g3973
ssg67
I0
sg72
I2
sg73
I0
sg74
I0
sg132
(S'dummy'
p4161
S'PI'
p4162
S'TA'
p4163
g32
tp4164
sg76
I01
sg124
g38
(g39
g40
Ntp4165
Rp4166
(dp4167
g44
I4
sg45
g4152
sg47
g4153
sbsg77
F14.5
sg84
I00
sg85
(dp4168
g4155
I0
sg4156
I0
sg4157
I0
sg4158
I0
ssg87
(dp4169
g4155
I0
sg4156
I4
sg4157
I11
sg4158
I0
ssg89
I0
sg90
(lp4170
g3980
aI01
aI01
aI00
asg93
I0
sg94
S'Retohop (11)'
p4171
sg96
I8
sg97
I0
sg104
I18
sg100
I70
sg101
S'ED'
p4172
sg78
(dp4173
g4155
I0
sg4156
I4
sg4157
I11
sg4158
I0
ssg105
(dp4174
S'A'
p4175
I12
sS'ME'
p4176
I11
sS'RP2'
p4177
I8
sS'E'
p4178
I9
sS'P'
p4179
I5
sS'RP1'
p4180
I11
sS'JP'
p4181
I5
sS'RP_tot'
p4182
I12
sS'TO'
p4183
I5
sS'PA'
p4184
I9
sS'M'
p4185
I7
sS'R'
p4186
I9
sS'TB'
p4187
I3
sS'PL'
p4188
I8
sS'TA'
p4189
I9
ssg125
I0
sg126
I0
sg127
I1
sg128
F14.5
sg129
I0
sg130
F9.814814814814815
sg131
I0
sg141
I0
sg98
(dp4190
g4155
I8
sg4156
I0
sg4157
I0
sg4158
I1
ssg193
I0
sg317
(dp4191
S'A'
p4192
I12
sS'ME'
p4193
I11
sS'RP2'
p4194
I8
sS'E'
p4195
I9
sS'P'
p4196
I5
sS'RP1'
p4197
I11
sS'JP'
p4198
I5
sS'RP_tot'
p4199
I12
sS'TO'
p4200
I5
sS'PA'
p4201
I9
sS'M'
p4202
I7
sS'R'
p4203
I9
sS'TB'
p4204
I3
sS'PL'
p4205
I8
sS'TA'
p4206
I9
ssg122
g4174
sg210
I0
sg154
g32
sg211
I0
sg212
I0
sg213
I0
sg155
I7
sg214
I2
sg143
I1
sg215
I0
sg216
S'S'
p4207
sbssg193
I1
sg317
(dp4208
S'A'
p4209
I12
sS'ME'
p4210
I11
sS'RP2'
p4211
I8
sS'E'
p4212
I9
sS'TO'
p4213
I5
sS'RP1'
p4214
I11
sS'JP'
p4215
I5
sS'RP_tot'
p4216
I12
sS'P'
p4217
I5
sS'PA'
p4218
I9
sS'M'
p4219
I7
sS'R'
p4220
I9
sS'TB'
p4221
I3
sS'PL'
p4222
I8
sS'TA'
p4223
I9
ssg210
I0
sg433
(dp4224
sg211
I0
sg154
g3968
sg212
I0
sg213
I0
sg155
I12
sg214
I3
sg215
I0
sg216
g4017
sbsS'n14'
p4225
(ijoueur
joueur
p4226
(dp4227
g27
F13.838709677419354
sg28
I1
sg29
F13.64516129032258
sg30
F14.0
sg31
g32
sg33
I0
sg34
F211.46046041977232
sg35
I0
sg36
I0
sg37
g38
(g39
g40
Ntp4228
Rp4229
(dp4230
g44
I5
sg45
S'xx'
p4231
sg47
S'seigneur'
p4232
sbsg49
(dp4233
sg51
(dp4234
S'SR'
p4235
I0
sS'ST'
p4236
I0
sS'CR'
p4237
I0
sS'CT'
p4238
I0
ssg57
F13.451612903225806
sg58
I0
sg59
I10
sg60
I0
sg61
(dp4239
S'couleur'
p4240
I4
sS'valeur'
p4241
I7
sS'r_n'
p4242
S'r'
p4243
ssg67
I0
sg140
F211.46046041977232
sg70
I00
sg71
I6
sg72
I0
sg73
I0
sg74
I0
sg75
I2
sg76
I00
sg77
F20.0
sg78
(dp4244
S'SR'
p4245
I0
sS'ST'
p4246
I0
sS'CR'
p4247
I0
sS'CT'
p4248
I0
ssg98
(dp4249
g4245
I0
sg4246
I0
sg4247
I0
sg4248
I0
ssg85
(dp4250
g4245
I0
sg4246
I0
sg4247
I0
sg4248
I0
ssg87
(dp4251
g4235
I0
sg4236
I19
sg4237
I0
sg4238
I43
ssg89
I0
sg90
(lp4252
S'dummy'
p4253
aI01
aI01
aI01
asg93
I0
sg94
S'Drask'
p4254
sg96
I7
sg97
I0
sg84
I00
sg100
I3519
sg101
S'KHR'
p4255
sg103
I00
sg104
I17
sg105
(dp4256
S'A'
p4257
I15
sS'ME'
p4258
I6
sS'RP2'
p4259
I11
sS'E'
p4260
I13
sS'P'
p4261
I9
sS'RP1'
p4262
I11
sS'JP'
p4263
I8
sS'RP_tot'
p4264
I14
sS'TO'
p4265
I10
sS'PA'
p4266
I13
sS'M'
p4267
I14
sS'R'
p4268
I9
sS'TB'
p4269
I8
sS'PL'
p4270
I14
sS'TA'
p4271
I8
ssg122
(dp4272
g4257
I15
sg4258
I6
sg4259
I11
sg4260
I13
sg4265
I10
sg4262
I11
sg4263
I8
sg4264
I14
sg4261
I9
sg4266
I13
sg4267
I14
sg4268
I9
sg4269
I8
sg4270
I14
sg4271
I8
ssg124
g38
(g39
g40
Ntp4273
Rp4274
(dp4275
g44
I5
sg45
S'xx'
p4276
sg47
g4232
sbsg125
I0
sg126
I0
sg127
I0
sg128
I0
sg129
I0
sg130
F13.451612903225806
sg131
I0
sg132
(S'dummy'
p4277
S'AI'
p4278
S'CE'
p4279
S'AR'
p4280
tp4281
sg138
(dp4282
g4235
I0
sg4236
I0
sg4237
I0
sg4238
I0
ssg141
I0
sg143
I0
sg144
(dp4283
S's13'
p4284
(ijoueur
joueur
p4285
(dp4286
g28
I0
sg30
F14.0
sg126
I0
sg33
I0
sg71
I6
sg35
I0
sg37
g4229
sg51
(dp4287
S'SR'
p4288
I0
sS'ST'
p4289
I0
sS'CR'
p4290
I0
sS'CT'
p4291
I0
ssg138
g4282
sg154
S'TA 9;SN 13'
p4292
sg155
I112
sg61
(dp4293
S'couleur'
p4294
I1
sS'valeur'
p4295
I1
sS'r_n'
p4296
S'n'
p4297
ssg67
I0
sg72
I4
sg73
I0
sg74
I0
sg101
g4255
sg76
I00
sg124
g4274
sg77
F2.5
sg84
I00
sg85
(dp4298
S'SR'
p4299
I0
sS'CT'
p4300
I0
sS'CR'
p4301
I0
sS'ST'
p4302
I0
ssg87
g4251
sg89
I0
sg90
(lp4303
S'dummy'
p4304
aI01
aI01
aI01
asg78
(dp4305
g4299
I0
sg4300
I15
sg4301
I0
sg4302
I5
ssg94
S'Drask (13)'
p4306
sg96
I7
sg97
I0
sg104
I17
sg100
I3519
sg132
g4281
sg105
(dp4307
S'A'
p4308
I0
sS'ME'
p4309
I0
sS'RP2'
p4310
I0
sS'E'
p4311
I0
sS'TO'
p4312
I0
sS'RP1'
p4313
I0
sS'JP'
p4314
I0
sS'RP_tot'
p4315
I0
sS'P'
p4316
I0
sS'PA'
p4317
I0
sS'M'
p4318
I0
sS'R'
p4319
I0
sS'TB'
p4320
I0
sS'PL'
p4321
I0
sS'TA'
p4322
I0
ssg144
(dp4323
sg125
I0
sg31
g32
sg127
I0
sg128
F20.0
sg129
I0
sg130
F13.451612903225806
sg131
I0
sg141
I0
sg98
(dp4324
g4299
I0
sg4300
I0
sg4301
I0
sg4302
I0
ssg193
I0
sg122
(dp4325
S'A'
p4326
I15
sS'ME'
p4327
I6
sS'RP2'
p4328
I11
sS'E'
p4329
I13
sS'P'
p4330
I9
sS'RP1'
p4331
I11
sS'JP'
p4332
I8
sS'RP_tot'
p4333
I14
sS'TO'
p4334
I10
sS'PA'
p4335
I13
sS'M'
p4336
I14
sS'R'
p4337
I9
sS'TB'
p4338
I7
sS'PL'
p4339
I14
sS'TA'
p4340
I8
ssg210
I0
sg211
I0
sg212
I0
sg213
I0
sg75
I0
sg214
I0
sg143
I0
sg93
I0
sg215
I0
sg216
S'S'
p4341
sbsS's12'
p4342
(ijoueur
joueur
p4343
(dp4344
g27
F13.838709677419354
sg28
I1
sg30
F5.0
sg31
g32
sg33
I0
sg71
I5
sg35
I0
sg37
g38
(g39
g40
Ntp4345
Rp4346
(dp4347
g44
I5
sg45
S'xx'
p4348
sg47
S'seigneur'
p4349
sbsg51
(dp4350
S'SR'
p4351
I0
sS'ST'
p4352
I0
sS'CR'
p4353
I0
sS'CT'
p4354
I0
ssg138
(dp4355
g4351
I0
sg4352
I0
sg4353
I0
sg4354
I0
ssg60
I0
sg155
I174
sg61
(dp4356
g4294
I1
sg4295
I1
sg4296
g4297
ssg67
I0
sg72
I1
sg73
I0
sg74
I0
sg101
S'SN'
p4357
sg76
I01
sg124
g38
(g39
g40
Ntp4358
Rp4359
(dp4360
g44
I5
sg45
S'xx'
p4361
sg47
g4349
sbsg77
F18.0
sg84
I00
sg85
(dp4362
S'SR'
p4363
I0
sS'CT'
p4364
I0
sS'CR'
p4365
I0
sS'ST'
p4366
I0
ssg87
(dp4367
g4351
I0
sg4352
I14
sg4353
I0
sg4354
I28
ssg89
I0
sg90
(lp4368
g4304
aI01
aI01
aI01
asg78
(dp4369
g4363
I0
sg4364
I14
sg4365
I0
sg4366
I5
ssg94
S'Drask (12)'
p4370
sg96
I7
sg97
I0
sg104
I17
sg100
I1564
sg132
(S'dummy'
p4371
S'AI'
p4372
S'CE'
p4373
S'AR'
p4374
tp4375
sg105
(dp4376
S'A'
p4377
I15
sS'ME'
p4378
I6
sS'RP2'
p4379
I11
sS'E'
p4380
I13
sS'TO'
p4381
I10
sS'RP1'
p4382
I11
sS'JP'
p4383
I8
sS'RP_tot'
p4384
I15
sS'P'
p4385
I9
sS'PA'
p4386
I13
sS'M'
p4387
I14
sS'R'
p4388
I9
sS'TB'
p4389
I8
sS'PL'
p4390
I14
sS'TA'
p4391
I8
ssg144
(dp4392
S's11'
p4393
(ijoueur
joueur
p4394
(dp4395
g28
I0
sg33
I0
sg35
I0
sg37
g38
(g39
g40
Ntp4396
Rp4397
(dp4398
g44
I5
sg45
S'xx'
p4399
sg47
S'seigneur'
p4400
sbsg51
(dp4401
S'SR'
p4402
I0
sS'CT'
p4403
I0
sS'CR'
p4404
I0
sS'ST'
p4405
I0
ssg138
(dp4406
g4402
I0
sg4403
I0
sg4404
I0
sg4405
I0
ssg60
I0
sg67
I0
sg84
I00
sg72
I5
sg73
I0
sg74
I0
sg132
(S'dummy'
p4407
S'AI'
p4408
S'CE'
p4409
S'AR'
p4410
tp4411
sg76
I00
sg124
g38
(g39
g40
Ntp4412
Rp4413
(dp4414
g44
I5
sg45
S'xx'
p4415
sg47
g4400
sbsg78
(dp4416
g4402
I0
sg4403
I14
sg4404
I0
sg4405
I8
ssg98
(dp4417
g4402
I0
sg4403
I0
sg4404
I0
sg4405
I0
ssg85
(dp4418
g4402
I0
sg4403
I0
sg4404
I0
sg4405
I0
ssg87
(dp4419
g4402
I0
sg4403
I14
sg4404
I0
sg4405
I8
ssg89
I0
sg93
I0
sg94
S'Drask'
p4420
sg96
I7
sg97
I0
sg104
I17
sg100
I1564
sg101
S'SN'
p4421
sg105
(dp4422
S'A'
p4423
I16
sS'ME'
p4424
I6
sS'RP2'
p4425
I11
sS'E'
p4426
I13
sS'P'
p4427
I9
sS'RP1'
p4428
I11
sS'JP'
p4429
I8
sS'RP_tot'
p4430
I15
sS'TO'
p4431
I10
sS'PA'
p4432
I13
sS'M'
p4433
I14
sS'R'
p4434
I9
sS'TB'
p4435
I9
sS'PL'
p4436
I14
sS'TA'
p4437
I8
ssg125
I0
sg126
I0
sg127
I0
sg129
I0
sg130
F13.838709677419354
sg131
I0
sg143
I0
sg193
I0
sg317
(dp4438
S'A'
p4439
I16
sS'ME'
p4440
I6
sS'RP2'
p4441
I11
sS'E'
p4442
I13
sS'P'
p4443
I9
sS'RP1'
p4444
I11
sS'JP'
p4445
I8
sS'RP_tot'
p4446
I15
sS'TO'
p4447
I10
sS'PA'
p4448
I13
sS'M'
p4449
I14
sS'R'
p4450
I9
sS'TB'
p4451
I9
sS'PL'
p4452
I14
sS'TA'
p4453
I8
ssg122
g4422
sg210
I0
sg154
S'TA 9'
p4454
sg211
I0
sg212
I0
sg213
I0
sg155
I174
sg214
I20
sg215
I0
sg216
S'S'
p4455
sbssg125
I12
sg126
I0
sg127
I0
sg128
F19.0
sg129
I0
sg130
F13.64516129032258
sg131
I0
sg141
I0
sg98
(dp4456
g4363
I0
sg4364
I0
sg4365
I0
sg4366
I0
ssg193
I0
sg317
(dp4457
S'A'
p4458
I16
sS'ME'
p4459
I6
sS'RP2'
p4460
I11
sS'E'
p4461
I13
sS'P'
p4462
I9
sS'RP1'
p4463
I11
sS'JP'
p4464
I8
sS'RP_tot'
p4465
I15
sS'TO'
p4466
I10
sS'PA'
p4467
I13
sS'M'
p4468
I14
sS'R'
p4469
I9
sS'TB'
p4470
I9
sS'PL'
p4471
I14
sS'TA'
p4472
I8
ssg122
g4376
sg210
I1
sg154
S'TA 9'
p4473
sg211
I0
sg212
I0
sg213
I0
sg75
I0
sg214
I21
sg143
I0
sg93
I0
sg215
I0
sg216
S'S'
p4474
sbsS's11'
p4475
(ijoueur
joueur
p4476
(dp4477
g28
I0
sg30
F6.0
sg33
I0
sg71
I3
sg35
I0
sg37
g38
(g39
g40
Ntp4478
Rp4479
(dp4480
g44
I5
sg45
S'xx'
p4481
sg47
S'seigneur'
p4482
sbsg51
(dp4483
S'SR'
p4484
I0
sS'CT'
p4485
I0
sS'CR'
p4486
I0
sS'ST'
p4487
I0
ssg138
(dp4488
g4484
I0
sg4485
I0
sg4486
I0
sg4487
I0
ssg60
I0
sg155
I174
sg61
(dp4489
g4294
I1
sg4295
I1
sg4296
g4297
ssg67
I0
sg72
I5
sg73
I0
sg74
I0
sg101
S'SN'
p4490
sg76
I00
sg124
g38
(g39
g40
Ntp4491
Rp4492
(dp4493
g44
I5
sg45
S'xx'
p4494
sg47
g4482
sbsg77
F22.0
sg84
I00
sg85
(dp4495
g4484
I0
sg4485
I0
sg4486
I0
sg4487
I0
ssg87
(dp4496
g4484
I0
sg4485
I14
sg4486
I0
sg4487
I8
ssg89
I0
sg90
(lp4497
g4304
aI01
aI01
aI01
asg93
I0
sg94
S'Drask (11)'
p4498
sg96
I7
sg97
I0
sg104
I17
sg100
I1564
sg132
(S'dummy'
p4499
S'AI'
p4500
S'CE'
p4501
S'AR'
p4502
tp4503
sg78
(dp4504
g4484
I0
sg4485
I14
sg4486
I0
sg4487
I8
ssg105
(dp4505
S'A'
p4506
I16
sS'ME'
p4507
I6
sS'RP2'
p4508
I11
sS'E'
p4509
I13
sS'P'
p4510
I9
sS'RP1'
p4511
I11
sS'JP'
p4512
I8
sS'RP_tot'
p4513
I15
sS'TO'
p4514
I10
sS'PA'
p4515
I13
sS'M'
p4516
I14
sS'R'
p4517
I9
sS'TB'
p4518
I9
sS'PL'
p4519
I14
sS'TA'
p4520
I8
ssg125
I0
sg126
I0
sg127
I0
sg128
F22.0
sg129
I0
sg130
F13.838709677419354
sg131
I0
sg141
I0
sg98
(dp4521
g4484
I0
sg4485
I0
sg4486
I0
sg4487
I0
ssg193
I0
sg317
(dp4522
S'A'
p4523
I16
sS'ME'
p4524
I6
sS'RP2'
p4525
I11
sS'E'
p4526
I13
sS'P'
p4527
I9
sS'RP1'
p4528
I11
sS'JP'
p4529
I8
sS'RP_tot'
p4530
I15
sS'TO'
p4531
I10
sS'PA'
p4532
I13
sS'M'
p4533
I14
sS'R'
p4534
I9
sS'TB'
p4535
I9
sS'PL'
p4536
I14
sS'TA'
p4537
I8
ssg122
g4505
sg210
I0
sg154
S'TA 9'
p4538
sg211
I0
sg212
I0
sg213
I0
sg75
I0
sg214
I20
sg143
I0
sg215
I0
sg216
S'S'
p4539
sbssg193
I3
sg317
(dp4540
S'A'
p4541
I16
sS'ME'
p4542
I6
sS'RP2'
p4543
I11
sS'E'
p4544
I13
sS'P'
p4545
I9
sS'RP1'
p4546
I11
sS'JP'
p4547
I8
sS'RP_tot'
p4548
I15
sS'TO'
p4549
I10
sS'PA'
p4550
I13
sS'M'
p4551
I14
sS'R'
p4552
I9
sS'TB'
p4553
I9
sS'PL'
p4554
I14
sS'TA'
p4555
I8
ssg210
I0
sg433
(dp4556
sg211
I0
sg154
g4292
sg212
I0
sg213
I0
sg155
I112
sg214
I25
sg215
I0
sg216
g4341
sbsS'n15'
p4557
g2590
sS'n18'
p4558
(ijoueur
joueur
p4559
(dp4560
g27
F8.735294117647058
sg28
I2
sg29
F10.058823529411764
sg30
F8.5
sg31
g32
sg33
I0
sg34
F168.64522265360273
sg35
I0
sg36
I0
sg37
g38
(g39
g40
Ntp4561
Rp4562
(dp4563
g44
I5
sg45
S'**'
p4564
sg47
g1744
sbsg49
(dp4565
sg51
(dp4566
g1747
I0
sg1748
I0
sg1749
I0
sg1750
I0
ssg57
F10.382352941176471
sg58
I0
sg59
I10
sg60
I0
sg61
(dp4567
g1752
I4
sg1753
I10
sg1754
g1755
ssg67
I0
sg140
F168.64522265360273
sg70
I00
sg71
I5
sg72
I0
sg73
I0
sg74
I0
sg75
I2
sg76
I00
sg77
F13.0
sg78
(dp4568
g1757
I0
sg1758
I0
sg1759
I0
sg1760
I0
ssg98
(dp4569
g1757
I0
sg1758
I0
sg1759
I0
sg1760
I0
ssg85
(dp4570
g1757
I0
sg1758
I0
sg1759
I0
sg1760
I0
ssg87
(dp4571
g1747
I9
sg1748
I18
sg1749
I13
sg1750
I1
ssg89
I0
sg90
(lp4572
g1765
aI01
aI00
aI00
asg93
I0
sg94
S'Fafert'
p4573
sg96
I10
sg97
I0
sg84
I00
sg100
I94
sg101
g1767
sg103
I00
sg104
I23
sg105
(dp4574
g1769
I9
sg1770
I7
sg1771
I8
sg1772
I10
sg1773
I12
sg1774
I9
sg1775
I6
sg1776
I10
sg1777
I6
sg1778
I10
sg1779
I10
sg1780
I11
sg1781
I4
sg1782
I11
sg1783
I5
ssg122
(dp4575
g1769
I9
sg1770
I7
sg1771
I8
sg1772
I10
sg1777
I6
sg1774
I9
sg1775
I6
sg1776
I10
sg1773
I12
sg1778
I10
sg1779
I10
sg1780
I11
sg1781
I4
sg1782
I11
sg1783
I5
ssg124
g4562
sg125
I0
sg126
I0
sg127
I0
sg128
I0
sg129
I0
sg130
F10.323529411764707
sg131
I0
sg132
(g1789
S'DL'
p4576
g32
g32
tp4577
sg138
(dp4578
g1747
I0
sg1748
I0
sg1749
I0
sg1750
I0
ssg141
I-1
sg143
I0
sg144
(dp4579
S's13'
p4580
(ijoueur
joueur
p4581
(dp4582
g28
I0
sg30
F8.5
sg126
I0
sg33
I0
sg71
I5
sg35
I0
sg37
g4562
sg51
(dp4583
g1800
I0
sg1801
I0
sg1802
I0
sg1803
I0
ssg138
g4578
sg75
I0
sg154
g32
sg61
(dp4584
g1805
I1
sg1806
I1
sg1807
g1808
ssg67
I0
sg72
I4
sg73
I0
sg74
I0
sg132
g4577
sg76
I00
sg124
g4562
sg77
F1.0
sg84
I00
sg85
(dp4585
g1810
I0
sg1811
I0
sg1812
I0
sg1813
I0
ssg87
g4571
sg89
I0
sg90
(lp4586
g1815
aI01
aI00
aI00
asg78
(dp4587
g1810
I3
sg1811
I0
sg1812
I3
sg1813
I10
ssg94
S'Fafert (13)'
p4588
sg96
I10
sg97
I0
sg104
I23
sg100
I94
sg101
g1767
sg105
(dp4589
g1819
I0
sg1820
I0
sg1821
I0
sg1822
I0
sg1823
I0
sg1824
I0
sg1825
I0
sg1826
I0
sg1827
I0
sg1828
I0
sg1829
I0
sg1830
I0
sg1831
I0
sg1832
I0
sg1833
I0
ssg144
(dp4590
sg125
I0
sg31
g32
sg127
I0
sg128
F13.0
sg129
I0
sg130
F10.382352941176471
sg131
I0
sg141
I0
sg98
(dp4591
g1810
I0
sg1811
I0
sg1812
I0
sg1813
I0
ssg193
I0
sg122
(dp4592
g1837
I10
sg1838
I7
sg1839
I8
sg1840
I10
sg1841
I12
sg1842
I9
sg1843
I6
sg1844
I10
sg1845
I6
sg1846
I10
sg1847
I10
sg1848
I11
sg1849
I4
sg1850
I11
sg1851
I5
ssg210
I0
sg211
I0
sg212
I0
sg213
I0
sg155
I9
sg214
I0
sg143
I0
sg93
I0
sg215
I0
sg216
g1852
sbsg1853
(ijoueur
joueur
p4593
(dp4594
g27
F8.735294117647058
sg28
I1
sg30
F2.5
sg31
g32
sg33
I0
sg71
I4
sg35
I0
sg37
g38
(g39
g40
Ntp4595
Rp4596
(dp4597
g44
I5
sg45
S'**'
p4598
sg47
g1860
sbsg51
(dp4599
g1862
I0
sg1863
I0
sg1864
I0
sg1865
I0
ssg138
(dp4600
g1862
I0
sg1863
I0
sg1864
I0
sg1865
I0
ssg75
I0
sg60
I0
sg61
(dp4601
g1805
I1
sg1806
I1
sg1807
g1808
ssg67
I0
sg72
I0
sg73
I0
sg74
I0
sg132
(g1868
S'DL'
p4602
g32
g32
tp4603
sg76
I00
sg124
g4596
sg77
F4.0
sg84
I01
sg85
(dp4604
g1878
I0
sg1879
I0
sg1880
I0
sg1881
I0
ssg87
(dp4605
g1862
I6
sg1863
I8
sg1864
I10
sg1865
I1
ssg89
I0
sg90
(lp4606
g1815
aI01
aI00
aI00
asg78
(dp4607
g1878
I5
sg1879
I1
sg1880
I9
sg1881
I5
ssg94
S'Fafert (12)'
p4608
sg96
I10
sg97
I0
sg104
I23
sg100
I94
sg101
g1886
sg105
(dp4609
g1888
I10
sg1889
I6
sg1890
I8
sg1891
I10
sg1892
I6
sg1893
I9
sg1894
I6
sg1895
I10
sg1896
I12
sg1897
I10
sg1898
I10
sg1899
I10
sg1900
I4
sg1901
I11
sg1902
I5
ssg144
(dp4610
g1904
(ijoueur
joueur
p4611
(dp4612
g28
I0
sg33
I0
sg35
I0
sg37
g38
(g39
g40
Ntp4613
Rp4614
(dp4615
g44
I5
sg45
S'**'
p4616
sg47
S'seigneur'
p4617
sbsg51
(dp4618
S'SR'
p4619
I0
sS'CT'
p4620
I0
sS'CR'
p4621
I0
sS'ST'
p4622
I0
ssg138
(dp4623
g4619
I0
sg4620
I0
sg4621
I0
sg4622
I0
ssg60
I0
sg67
I0
sg84
I00
sg72
I0
sg73
I0
sg74
I0
sg132
(S'dummy'
p4624
S'DL'
p4625
g32
g32
tp4626
sg76
I00
sg124
g38
(g39
g40
Ntp4627
Rp4628
(dp4629
g44
I3
sg45
S'^^^'
p4630
sg47
S'rare'
p4631
sbsg78
(dp4632
g4619
I0
sg4620
I3
sg4621
I1
sg4622
I0
ssg98
(dp4633
g4619
I0
sg4620
I0
sg4621
I0
sg4622
I0
ssg85
(dp4634
g4619
I0
sg4620
I0
sg4621
I0
sg4622
I0
ssg87
(dp4635
g4619
I0
sg4620
I3
sg4621
I1
sg4622
I0
ssg89
I0
sg93
I0
sg94
S'Fafert'
p4636
sg96
I10
sg97
I0
sg104
I23
sg100
I22
sg101
S'ED'
p4637
sg105
(dp4638
S'A'
p4639
I8
sS'ME'
p4640
I7
sS'RP2'
p4641
I6
sS'E'
p4642
I8
sS'P'
p4643
I4
sS'RP1'
p4644
I8
sS'JP'
p4645
I3
sS'RP_tot'
p4646
I8
sS'TO'
p4647
I10
sS'PA'
p4648
I7
sS'M'
p4649
I10
sS'R'
p4650
I10
sS'TB'
p4651
I1
sS'PL'
p4652
I8
sS'TA'
p4653
I5
ssg125
I0
sg126
I0
sg127
I0
sg129
I0
sg130
F8.735294117647058
sg131
I0
sg143
I0
sg193
I0
sg317
(dp4654
S'A'
p4655
I8
sS'ME'
p4656
I7
sS'RP2'
p4657
I6
sS'E'
p4658
I8
sS'P'
p4659
I4
sS'RP1'
p4660
I8
sS'JP'
p4661
I3
sS'RP_tot'
p4662
I8
sS'TO'
p4663
I10
sS'PA'
p4664
I7
sS'M'
p4665
I10
sS'R'
p4666
I10
sS'TB'
p4667
I1
sS'PL'
p4668
I8
sS'TA'
p4669
I5
ssg122
g4638
sg210
I0
sg154
g32
sg211
I0
sg212
I0
sg213
I0
sg155
I2
sg214
I0
sg215
I0
sg216
S'S'
p4670
sbssg125
I0
sg126
I0
sg127
I0
sg128
F13.0
sg129
I0
sg130
F10.058823529411764
sg131
I0
sg141
I0
sg98
(dp4671
g1878
I0
sg1879
I0
sg1880
I0
sg1881
I0
ssg193
I0
sg317
(dp4672
g1968
I8
sg1969
I7
sg1970
I6
sg1971
I8
sg1972
I4
sg1973
I8
sg1974
I3
sg1975
I8
sg1976
I10
sg1977
I7
sg1978
I10
sg1979
I10
sg1980
I1
sg1981
I8
sg1982
I5
ssg122
g4609
sg210
I1
sg154
g32
sg211
I0
sg212
I0
sg213
I0
sg155
I9
sg214
I0
sg143
I0
sg93
I0
sg215
I0
sg216
g1983
sbsg1984
(ijoueur
joueur
p4673
(dp4674
g28
I0
sg30
F0.5
sg33
I0
sg71
I2
sg35
I0
sg37
g38
(g39
g40
Ntp4675
Rp4676
(dp4677
g44
I5
sg45
S'**'
p4678
sg47
S'seigneur'
p4679
sbsg51
(dp4680
S'SR'
p4681
I0
sS'CT'
p4682
I0
sS'CR'
p4683
I0
sS'ST'
p4684
I0
ssg138
(dp4685
g4681
I0
sg4682
I0
sg4683
I0
sg4684
I0
ssg75
I0
sg60
I0
sg61
(dp4686
g1805
I1
sg1806
I1
sg1807
g1808
ssg67
I0
sg72
I0
sg73
I0
sg74
I0
sg132
(S'dummy'
p4687
S'DL'
p4688
g32
g32
tp4689
sg76
I00
sg124
g38
(g39
g40
Ntp4690
Rp4691
(dp4692
g44
I3
sg45
S'^^^'
p4693
sg47
S'rare'
p4694
sbsg77
F3.5
sg84
I00
sg85
(dp4695
g4681
I0
sg4682
I0
sg4683
I0
sg4684
I0
ssg87
(dp4696
g4681
I0
sg4682
I3
sg4683
I1
sg4684
I0
ssg89
I0
sg90
(lp4697
g1815
aI01
aI00
aI00
asg93
I0
sg94
S'Fafert (11)'
p4698
sg96
I10
sg97
I0
sg104
I23
sg100
I22
sg101
S'ED'
p4699
sg78
(dp4700
g4681
I0
sg4682
I3
sg4683
I1
sg4684
I0
ssg105
(dp4701
S'A'
p4702
I8
sS'ME'
p4703
I7
sS'RP2'
p4704
I6
sS'E'
p4705
I8
sS'P'
p4706
I4
sS'RP1'
p4707
I8
sS'JP'
p4708
I3
sS'RP_tot'
p4709
I8
sS'TO'
p4710
I10
sS'PA'
p4711
I7
sS'M'
p4712
I10
sS'R'
p4713
I10
sS'TB'
p4714
I1
sS'PL'
p4715
I8
sS'TA'
p4716
I5
ssg125
I0
sg126
I0
sg127
I0
sg128
F3.5
sg129
I0
sg130
F8.735294117647058
sg131
I0
sg141
I0
sg98
(dp4717
g4681
I0
sg4682
I0
sg4683
I0
sg4684
I0
ssg193
I0
sg317
(dp4718
S'A'
p4719
I8
sS'ME'
p4720
I7
sS'RP2'
p4721
I6
sS'E'
p4722
I8
sS'P'
p4723
I4
sS'RP1'
p4724
I8
sS'JP'
p4725
I3
sS'RP_tot'
p4726
I8
sS'TO'
p4727
I10
sS'PA'
p4728
I7
sS'M'
p4729
I10
sS'R'
p4730
I10
sS'TB'
p4731
I1
sS'PL'
p4732
I8
sS'TA'
p4733
I5
ssg122
g4701
sg210
I0
sg154
g32
sg211
I0
sg212
I0
sg213
I0
sg155
I2
sg214
I0
sg143
I0
sg215
I0
sg216
S'S'
p4734
sbssg193
I0
sg317
(dp4735
g2049
I8
sg2050
I7
sg2051
I6
sg2052
I8
sg2053
I4
sg2054
I8
sg2055
I3
sg2056
I8
sg2057
I10
sg2058
I7
sg2059
I10
sg2060
I10
sg2061
I1
sg2062
I8
sg2063
I5
ssg210
I0
sg433
(dp4736
sg211
I0
sg154
g32
sg212
I0
sg213
I0
sg155
I9
sg214
I4
sg215
I0
sg216
g1852
sbsS'n19'
p4737
(ijoueur
joueur
p4738
(dp4739
g27
F9.894736842105264
sg28
I0
sg29
F10.236842105263158
sg30
F11.0
sg31
g32
sg33
I0
sg34
F135.75848762567207
sg35
I0
sg36
I0
sg37
g38
(g39
g40
Ntp4740
Rp4741
(dp4742
g44
I4
sg45
S'*'
p4743
sg47
S'heros'
p4744
sbsg49
(dp4745
sg51
(dp4746
S'SR'
p4747
I0
sS'ST'
p4748
I0
sS'CR'
p4749
I0
sS'CT'
p4750
I0
ssg57
F10.236842105263158
sg58
I0
sg59
I10
sg60
I0
sg61
(dp4751
S'couleur'
p4752
I3
sS'valeur'
p4753
I10
sS'r_n'
p4754
S'n'
p4755
ssg67
I0
sg68
I0
sg69
I0
sg70
I00
sg71
I2
sg72
I0
sg73
I0
sg74
I0
sg75
I0
sg76
I00
sg77
F9.5
sg78
(dp4756
S'SR'
p4757
I0
sS'ST'
p4758
I0
sS'CR'
p4759
I0
sS'CT'
p4760
I0
ssg98
(dp4761
g4757
I0
sg4758
I0
sg4759
I0
sg4760
I0
ssg85
(dp4762
g4757
I0
sg4758
I0
sg4759
I0
sg4760
I0
ssg87
(dp4763
g4747
I12
sg4748
I0
sg4749
I15
sg4750
I16
ssg89
I0
sg90
(lp4764
S'dummy'
p4765
aI01
aI00
aI00
asg93
I0
sg94
S'Prateps'
p4766
sg96
I3
sg97
I0
sg84
I00
sg100
I159
sg101
S'CAT'
p4767
sg103
I00
sg104
I16
sg105
(dp4768
S'A'
p4769
I13
sS'ME'
p4770
I8
sS'RP2'
p4771
I9
sS'E'
p4772
I10
sS'P'
p4773
I6
sS'RP1'
p4774
I8
sS'JP'
p4775
I6
sS'RP_tot'
p4776
I10
sS'TO'
p4777
I11
sS'PA'
p4778
I11
sS'M'
p4779
I9
sS'R'
p4780
I12
sS'TB'
p4781
I5
sS'PL'
p4782
I9
sS'TA'
p4783
I7
ssg122
(dp4784
g4769
I13
sg4770
I8
sg4771
I9
sg4772
I10
sg4777
I11
sg4774
I8
sg4775
I6
sg4776
I10
sg4773
I6
sg4778
I11
sg4779
I9
sg4780
I12
sg4781
I5
sg4782
I9
sg4783
I7
ssg124
g38
(g39
g40
Ntp4785
Rp4786
(dp4787
g44
I4
sg45
g4743
sg47
g4744
sbsg125
I0
sg126
I0
sg127
I1
sg128
I0
sg129
I0
sg130
F10.605263157894736
sg131
I0
sg132
(S'dummy'
p4788
S'TL'
p4789
g32
g32
tp4790
sg138
(dp4791
g4747
I0
sg4748
I0
sg4749
I0
sg4750
I0
ssg140
F135.75848762567207
sg141
I3
sg142
I0
sg143
I0
sg144
(dp4792
S's13'
p4793
(ijoueur
joueur
p4794
(dp4795
g28
I0
sg30
F11.0
sg126
I0
sg33
I0
sg71
I2
sg35
I0
sg37
g4741
sg51
(dp4796
S'SR'
p4797
I0
sS'CT'
p4798
I0
sS'CR'
p4799
I0
sS'ST'
p4800
I0
ssg138
g4791
sg154
S'ED 9;MRB 14'
p4801
sg155
I15
sg61
(dp4802
S'couleur'
p4803
I1
sS'valeur'
p4804
I1
sS'r_n'
p4805
S'n'
p4806
ssg67
I0
sg72
I0
sg73
I0
sg74
I0
sg101
S'MRB'
p4807
sg76
I00
sg124
g4786
sg77
F17.5
sg84
I00
sg85
(dp4808
S'SR'
p4809
I0
sS'CT'
p4810
I0
sS'CR'
p4811
I0
sS'ST'
p4812
I0
ssg87
g4763
sg89
I0
sg90
(lp4813
S'dummy'
p4814
aI01
aI00
aI00
asg78
(dp4815
g4809
I5
sg4810
I6
sg4811
I2
sg4812
I0
ssg94
g4766
sg96
I3
sg97
I0
sg104
I16
sg100
I159
sg132
g4790
sg105
(dp4816
S'A'
p4817
I0
sS'ME'
p4818
I0
sS'RP2'
p4819
I0
sS'E'
p4820
I0
sS'P'
p4821
I0
sS'RP1'
p4822
I0
sS'JP'
p4823
I0
sS'RP_tot'
p4824
I0
sS'TO'
p4825
I0
sS'PA'
p4826
I0
sS'M'
p4827
I0
sS'R'
p4828
I0
sS'TB'
p4829
I0
sS'PL'
p4830
I0
sS'TA'
p4831
I0
ssg144
(dp4832
sg125
I0
sg31
g32
sg127
I0
sg128
F9.5
sg129
I0
sg130
F10.236842105263158
sg131
I0
sg141
I0
sg98
(dp4833
g4809
I0
sg4810
I0
sg4811
I0
sg4812
I0
ssg193
I0
sg122
(dp4834
S'A'
p4835
I12
sS'ME'
p4836
I8
sS'RP2'
p4837
I9
sS'E'
p4838
I10
sS'P'
p4839
I6
sS'RP1'
p4840
I8
sS'JP'
p4841
I6
sS'RP_tot'
p4842
I10
sS'TO'
p4843
I11
sS'PA'
p4844
I11
sS'M'
p4845
I8
sS'R'
p4846
I11
sS'TB'
p4847
I5
sS'PL'
p4848
I9
sS'TA'
p4849
I7
ssg210
I0
sg211
I0
sg212
I0
sg213
I0
sg75
I0
sg214
I0
sg143
I0
sg93
I0
sg215
I0
sg216
S'S'
p4850
sbsS's12'
p4851
(ijoueur
joueur
p4852
(dp4853
g27
F9.894736842105264
sg28
I0
sg30
F1.5
sg31
g32
sg33
I0
sg71
I2
sg35
I0
sg37
g38
(g39
g40
Ntp4854
Rp4855
(dp4856
g44
I4
sg45
S'*'
p4857
sg47
S'heros'
p4858
sbsg51
(dp4859
S'SR'
p4860
I0
sS'ST'
p4861
I0
sS'CR'
p4862
I0
sS'CT'
p4863
I0
ssg138
(dp4864
g4860
I0
sg4861
I0
sg4862
I0
sg4863
I0
ssg60
I0
sg155
I10
sg61
(dp4865
g4803
I1
sg4804
I1
sg4805
g4806
ssg67
I0
sg68
I0
sg69
I0
sg72
I1
sg73
I0
sg74
I0
sg101
S'MRB'
p4866
sg76
I00
sg77
F0.0
sg78
(dp4867
S'SR'
p4868
I6
sS'CT'
p4869
I6
sS'CR'
p4870
I3
sS'ST'
p4871
I0
ssg84
I00
sg85
(dp4872
g4868
I0
sg4869
I0
sg4870
I0
sg4871
I0
ssg87
(dp4873
g4860
I7
sg4861
I0
sg4862
I13
sg4863
I10
ssg89
I0
sg90
(lp4874
g4814
aI01
aI00
aI00
asg93
I0
sg94
S'Prateps'
p4875
sg96
I3
sg97
I0
sg104
I16
sg100
I112
sg132
(S'dummy'
p4876
S'TL'
p4877
g32
g32
tp4878
sg105
(dp4879
S'A'
p4880
I12
sS'ME'
p4881
I8
sS'RP2'
p4882
I9
sS'E'
p4883
I10
sS'TO'
p4884
I11
sS'RP1'
p4885
I8
sS'JP'
p4886
I6
sS'RP_tot'
p4887
I10
sS'P'
p4888
I6
sS'PA'
p4889
I11
sS'M'
p4890
I8
sS'R'
p4891
I11
sS'TB'
p4892
I5
sS'PL'
p4893
I9
sS'TA'
p4894
I7
ssg124
g38
(g39
g40
Ntp4895
Rp4896
(dp4897
g44
I4
sg45
g4857
sg47
g4858
sbsg125
I3
sg126
I0
sg127
I0
sg128
F10.5
sg129
I0
sg130
F10.236842105263158
sg131
I0
sg141
I0
sg142
I0
sg98
(dp4898
g4868
I0
sg4869
I0
sg4870
I0
sg4871
I0
ssg144
(dp4899
S's11'
p4900
(ijoueur
joueur
p4901
(dp4902
g28
I0
sg33
I0
sg35
I0
sg37
g38
(g39
g40
Ntp4903
Rp4904
(dp4905
g44
I4
sg45
S'*'
p4906
sg47
S'heros'
p4907
sbsg51
(dp4908
S'SR'
p4909
I0
sS'CT'
p4910
I0
sS'CR'
p4911
I0
sS'ST'
p4912
I0
ssg138
(dp4913
g4909
I0
sg4910
I0
sg4911
I0
sg4912
I0
ssg98
(dp4914
g4909
I0
sg4910
I0
sg4911
I0
sg4912
I0
ssg60
I0
sg67
I0
sg68
I0
sg69
I0
sg72
I0
sg73
I0
sg74
I0
sg132
(S'dummy'
p4915
S'TL'
p4916
g32
g32
tp4917
sg76
I00
sg124
g38
(g39
g40
Ntp4918
Rp4919
(dp4920
g44
I4
sg45
g4906
sg47
g4907
sbsg78
(dp4921
g4909
I0
sg4910
I4
sg4911
I10
sg4912
I0
ssg84
I00
sg85
(dp4922
g4909
I0
sg4910
I0
sg4911
I0
sg4912
I0
ssg87
(dp4923
g4909
I0
sg4910
I4
sg4911
I10
sg4912
I0
ssg89
I0
sg93
I0
sg94
S'Prateps'
p4924
sg96
I3
sg97
I0
sg104
I16
sg100
I112
sg101
S'MRB'
p4925
sg105
(dp4926
S'A'
p4927
I12
sS'ME'
p4928
I9
sS'RP2'
p4929
I8
sS'E'
p4930
I10
sS'P'
p4931
I6
sS'RP1'
p4932
I8
sS'JP'
p4933
I6
sS'RP_tot'
p4934
I9
sS'TO'
p4935
I10
sS'PA'
p4936
I11
sS'M'
p4937
I9
sS'R'
p4938
I11
sS'TB'
p4939
I5
sS'PL'
p4940
I8
sS'TA'
p4941
I7
ssg125
I0
sg126
I0
sg127
I0
sg129
I0
sg130
F9.894736842105264
sg131
I0
sg142
I0
sg143
I0
sg193
I0
sg317
(dp4942
S'A'
p4943
I12
sS'ME'
p4944
I9
sS'RP2'
p4945
I8
sS'E'
p4946
I10
sS'P'
p4947
I6
sS'RP1'
p4948
I8
sS'JP'
p4949
I6
sS'RP_tot'
p4950
I9
sS'TO'
p4951
I10
sS'PA'
p4952
I11
sS'M'
p4953
I9
sS'R'
p4954
I11
sS'TB'
p4955
I5
sS'PL'
p4956
I8
sS'TA'
p4957
I7
ssg122
g4926
sg210
I0
sg154
S'ED 9'
p4958
sg211
I0
sg212
I0
sg213
I0
sg155
I10
sg214
I2
sg215
I0
sg216
S'S'
p4959
sbssg193
I0
sg317
(dp4960
S'A'
p4961
I12
sS'ME'
p4962
I9
sS'RP2'
p4963
I8
sS'E'
p4964
I10
sS'TO'
p4965
I10
sS'RP1'
p4966
I8
sS'JP'
p4967
I6
sS'RP_tot'
p4968
I9
sS'P'
p4969
I6
sS'PA'
p4970
I11
sS'M'
p4971
I9
sS'R'
p4972
I11
sS'TB'
p4973
I5
sS'PL'
p4974
I8
sS'TA'
p4975
I7
ssg122
g4879
sg210
I0
sg154
S'ED 9'
p4976
sg211
I0
sg212
I0
sg213
I0
sg75
I0
sg214
I3
sg143
I0
sg215
I0
sg216
S'S'
p4977
sbsS's11'
p4978
(ijoueur
joueur
p4979
(dp4980
g28
I0
sg30
F1.0
sg33
I0
sg71
I1
sg35
I0
sg37
g38
(g39
g40
Ntp4981
Rp4982
(dp4983
g44
I4
sg45
S'*'
p4984
sg47
S'heros'
p4985
sbsg51
(dp4986
S'SR'
p4987
I0
sS'CT'
p4988
I0
sS'CR'
p4989
I0
sS'ST'
p4990
I0
ssg138
(dp4991
g4987
I0
sg4988
I0
sg4989
I0
sg4990
I0
ssg60
I0
sg155
I10
sg61
(dp4992
g4803
I1
sg4804
I1
sg4805
g4806
ssg67
I0
sg68
I0
sg69
I0
sg72
I0
sg73
I0
sg74
I0
sg101
S'MRB'
p4993
sg76
I00
sg77
F9.0
sg78
(dp4994
g4987
I0
sg4988
I4
sg4989
I10
sg4990
I0
ssg84
I00
sg85
(dp4995
g4987
I0
sg4988
I0
sg4989
I0
sg4990
I0
ssg87
(dp4996
g4987
I0
sg4988
I4
sg4989
I10
sg4990
I0
ssg89
I0
sg90
(lp4997
g4814
aI01
aI00
aI00
asg93
I0
sg94
S'Prateps'
p4998
sg96
I3
sg97
I0
sg104
I16
sg100
I112
sg132
(S'dummy'
p4999
S'TL'
p5000
g32
g32
tp5001
sg105
(dp5002
S'A'
p5003
I12
sS'ME'
p5004
I9
sS'RP2'
p5005
I8
sS'E'
p5006
I10
sS'P'
p5007
I6
sS'RP1'
p5008
I8
sS'JP'
p5009
I6
sS'RP_tot'
p5010
I9
sS'TO'
p5011
I10
sS'PA'
p5012
I11
sS'M'
p5013
I9
sS'R'
p5014
I11
sS'TB'
p5015
I5
sS'PL'
p5016
I8
sS'TA'
p5017
I7
ssg124
g38
(g39
g40
Ntp5018
Rp5019
(dp5020
g44
I4
sg45
g4984
sg47
g4985
sbsg125
I0
sg126
I0
sg127
I0
sg128
F9.0
sg129
I0
sg130
F9.894736842105264
sg131
I0
sg141
I0
sg142
I0
sg98
(dp5021
g4987
I0
sg4988
I0
sg4989
I0
sg4990
I0
ssg193
I0
sg317
(dp5022
S'A'
p5023
I12
sS'ME'
p5024
I9
sS'RP2'
p5025
I8
sS'E'
p5026
I10
sS'P'
p5027
I6
sS'RP1'
p5028
I8
sS'JP'
p5029
I6
sS'RP_tot'
p5030
I9
sS'TO'
p5031
I10
sS'PA'
p5032
I11
sS'M'
p5033
I9
sS'R'
p5034
I11
sS'TB'
p5035
I5
sS'PL'
p5036
I8
sS'TA'
p5037
I7
ssg122
g5002
sg210
I0
sg154
S'ED 9'
p5038
sg211
I0
sg212
I0
sg213
I0
sg75
I0
sg214
I2
sg143
I0
sg215
I0
sg216
S'S'
p5039
sbssg193
I0
sg317
(dp5040
S'A'
p5041
I12
sS'ME'
p5042
I9
sS'RP2'
p5043
I8
sS'E'
p5044
I10
sS'TO'
p5045
I10
sS'RP1'
p5046
I8
sS'JP'
p5047
I6
sS'RP_tot'
p5048
I9
sS'P'
p5049
I6
sS'PA'
p5050
I11
sS'M'
p5051
I9
sS'R'
p5052
I11
sS'TB'
p5053
I5
sS'PL'
p5054
I8
sS'TA'
p5055
I7
ssg210
I0
sg433
(dp5056
sg211
I0
sg154
g4801
sg212
I0
sg213
I0
sg155
I15
sg214
I3
sg215
I0
sg216
g4850
sbsS'n22'
p5057
(ijoueur
joueur
p5058
(dp5059
g27
F11.793103448275861
sg28
I0
sg29
F11.793103448275861
sg30
F14.0
sg31
g32
sg33
I0
sg34
F214.83581240438988
sg35
I0
sg36
I0
sg37
g38
(g39
g40
Ntp5060
Rp5061
(dp5062
g44
I5
sg45
S'xx'
p5063
sg47
S'seigneur'
p5064
sbsg49
(dp5065
sg51
(dp5066
S'SR'
p5067
I5
sS'ST'
p5068
I0
sS'CR'
p5069
I0
sS'CT'
p5070
I0
ssg57
F11.310344827586206
sg58
I0
sg59
I10
sg60
I0
sg61
(dp5071
S'couleur'
p5072
I1
sS'valeur'
p5073
I7
sS'r_n'
p5074
S'n'
p5075
ssg67
I0
sg140
F214.83581240438988
sg70
I00
sg71
I4
sg72
I0
sg73
I0
sg74
I0
sg75
I2
sg76
I00
sg77
F17.5
sg78
(dp5076
S'SR'
p5077
I0
sS'ST'
p5078
I0
sS'CR'
p5079
I0
sS'CT'
p5080
I0
ssg98
(dp5081
g5077
I0
sg5078
I0
sg5079
I0
sg5080
I0
ssg85
(dp5082
g5077
I0
sg5078
I0
sg5079
I0
sg5080
I0
ssg87
(dp5083
g5067
I7
sg5068
I3
sg5069
I0
sg5070
I10
ssg89
I0
sg90
(lp5084
S'dummy'
p5085
aI01
aI01
aI01
asg93
I0
sg94
S'Skergn'
p5086
sg96
I3
sg97
I0
sg84
I00
sg100
I1603
sg101
S'HTH'
p5087
sg103
I00
sg104
I15
sg105
(dp5088
S'A'
p5089
I16
sS'ME'
p5090
I6
sS'RP2'
p5091
I15
sS'E'
p5092
I10
sS'P'
p5093
I9
sS'RP1'
p5094
I6
sS'JP'
p5095
I4
sS'RP_tot'
p5096
I15
sS'TO'
p5097
I11
sS'PA'
p5098
I13
sS'M'
p5099
I11
sS'R'
p5100
I10
sS'TB'
p5101
I4
sS'PL'
p5102
I10
sS'TA'
p5103
I8
ssg122
(dp5104
g5089
I16
sg5090
I6
sg5091
I15
sg5092
I10
sg5097
I11
sg5094
I6
sg5095
I4
sg5096
I15
sg5093
I9
sg5098
I13
sg5099
I11
sg5100
I10
sg5101
I4
sg5102
I10
sg5103
I8
ssg124
g38
(g39
g40
Ntp5105
Rp5106
(dp5107
g44
I5
sg45
S'xx'
p5108
sg47
g5064
sbsg125
I0
sg126
I0
sg127
I0
sg128
I0
sg129
I0
sg130
F11.96551724137931
sg131
I0
sg132
(S'dummy'
p5109
S'C2'
p5110
S'AR'
p5111
S'AI'
p5112
tp5113
sg138
(dp5114
g5067
I5
sg5068
I2
sg5069
I0
sg5070
I32
ssg141
I4
sg143
I0
sg144
(dp5115
S's13'
p5116
(ijoueur
joueur
p5117
(dp5118
g28
I0
sg30
F14.0
sg126
I0
sg33
I0
sg71
I4
sg35
I0
sg37
g5061
sg51
(dp5119
S'SR'
p5120
I0
sS'ST'
p5121
I0
sS'CR'
p5122
I0
sS'CT'
p5123
I0
ssg138
g5114
sg154
S'SN 11'
p5124
sg155
I155
sg61
(dp5125
S'couleur'
p5126
I1
sS'valeur'
p5127
I1
sS'r_n'
p5128
S'n'
p5129
ssg67
I0
sg72
I0
sg73
I0
sg74
I0
sg101
g5087
sg76
I00
sg124
g5106
sg77
F0.0
sg84
I00
sg85
(dp5130
S'SR'
p5131
I3
sS'ST'
p5132
I1
sS'CR'
p5133
I0
sS'CT'
p5134
I14
ssg87
g5083
sg89
I0
sg90
(lp5135
S'dummy'
p5136
aI01
aI01
aI01
asg78
(dp5137
g5131
I0
sg5132
I0
sg5133
I0
sg5134
I0
ssg94
S'Skergn (13)'
p5138
sg96
I3
sg97
I0
sg104
I15
sg100
I1603
sg132
g5113
sg105
(dp5139
S'A'
p5140
I0
sS'ME'
p5141
I0
sS'RP2'
p5142
I0
sS'E'
p5143
I0
sS'TO'
p5144
I0
sS'RP1'
p5145
I0
sS'JP'
p5146
I0
sS'RP_tot'
p5147
I0
sS'P'
p5148
I0
sS'PA'
p5149
I0
sS'M'
p5150
I0
sS'R'
p5151
I0
sS'TB'
p5152
I0
sS'PL'
p5153
I0
sS'TA'
p5154
I0
ssg144
(dp5155
sg125
I0
sg31
g32
sg127
I0
sg128
F17.5
sg129
I0
sg130
F11.310344827586206
sg131
I0
sg141
I0
sg98
(dp5156
g5131
I2
sg5132
I0
sg5133
I0
sg5134
I0
ssg193
I0
sg122
(dp5157
S'A'
p5158
I15
sS'ME'
p5159
I6
sS'RP2'
p5160
I14
sS'E'
p5161
I10
sS'P'
p5162
I9
sS'RP1'
p5163
I6
sS'JP'
p5164
I4
sS'RP_tot'
p5165
I14
sS'TO'
p5166
I11
sS'PA'
p5167
I13
sS'M'
p5168
I11
sS'R'
p5169
I10
sS'TB'
p5170
I4
sS'PL'
p5171
I8
sS'TA'
p5172
I8
ssg210
I0
sg211
I0
sg212
I0
sg213
I0
sg75
I0
sg214
I0
sg143
I0
sg93
I0
sg215
I0
sg216
S'S'
p5173
sbsS's12'
p5174
(ijoueur
joueur
p5175
(dp5176
g27
F11.793103448275861
sg28
I0
sg30
F9.5
sg31
g32
sg33
I0
sg71
I3
sg35
I0
sg37
g38
(g39
g40
Ntp5177
Rp5178
(dp5179
g44
I5
sg45
S'xx'
p5180
sg47
S'seigneur'
p5181
sbsg51
(dp5182
S'SR'
p5183
I3
sS'ST'
p5184
I0
sS'CR'
p5185
I0
sS'CT'
p5186
I0
ssg138
(dp5187
g5183
I2
sg5184
I1
sg5185
I0
sg5186
I18
ssg60
I0
sg155
I155
sg61
(dp5188
g5126
I1
sg5127
I1
sg5128
g5129
ssg67
I0
sg72
I7
sg73
I0
sg74
I0
sg101
S'HTH'
p5189
sg76
I00
sg124
g38
(g39
g40
Ntp5190
Rp5191
(dp5192
g44
I5
sg45
S'xx'
p5193
sg47
g5181
sbsg77
F2.5
sg84
I00
sg85
(dp5194
S'SR'
p5195
I2
sS'ST'
p5196
I1
sS'CR'
p5197
I0
sS'CT'
p5198
I6
ssg87
(dp5199
g5183
I7
sg5184
I3
sg5185
I0
sg5186
I10
ssg89
I0
sg90
(lp5200
g5136
aI01
aI01
aI01
asg78
(dp5201
g5195
I0
sg5196
I1
sg5197
I0
sg5198
I8
ssg94
S'Skergn (12)'
p5202
sg96
I3
sg97
I0
sg104
I15
sg100
I1603
sg132
(S'dummy'
p5203
S'C2'
p5204
S'AR'
p5205
S'AI'
p5206
tp5207
sg105
(dp5208
S'A'
p5209
I15
sS'ME'
p5210
I6
sS'RP2'
p5211
I14
sS'E'
p5212
I10
sS'TO'
p5213
I11
sS'RP1'
p5214
I6
sS'JP'
p5215
I4
sS'RP_tot'
p5216
I14
sS'P'
p5217
I9
sS'PA'
p5218
I14
sS'M'
p5219
I11
sS'R'
p5220
I10
sS'TB'
p5221
I4
sS'PL'
p5222
I10
sS'TA'
p5223
I8
ssg144
(dp5224
S's11'
p5225
(ijoueur
joueur
p5226
(dp5227
g28
I0
sg33
I0
sg35
I0
sg37
g38
(g39
g40
Ntp5228
Rp5229
(dp5230
g44
I5
sg45
S'xx'
p5231
sg47
S'seigneur'
p5232
sbsg51
(dp5233
S'SR'
p5234
I0
sS'ST'
p5235
I0
sS'CR'
p5236
I0
sS'CT'
p5237
I0
ssg138
(dp5238
g5234
I0
sg5235
I0
sg5236
I0
sg5237
I12
ssg60
I0
sg67
I0
sg84
I00
sg72
I0
sg73
I0
sg74
I0
sg132
(S'dummy'
p5239
S'C2'
p5240
S'AR'
p5241
S'AI'
p5242
tp5243
sg76
I00
sg124
g38
(g39
g40
Ntp5244
Rp5245
(dp5246
g44
I5
sg45
S'xx'
p5247
sg47
g5232
sbsg78
(dp5248
g5234
I7
sg5235
I2
sg5236
I0
sg5237
I2
ssg98
(dp5249
g5234
I0
sg5235
I0
sg5236
I0
sg5237
I0
ssg85
(dp5250
g5234
I0
sg5235
I0
sg5236
I0
sg5237
I12
ssg87
(dp5251
g5234
I7
sg5235
I2
sg5236
I0
sg5237
I2
ssg89
I0
sg93
I0
sg94
S'Skergn'
p5252
sg96
I3
sg97
I0
sg104
I15
sg100
I1603
sg101
S'HTH'
p5253
sg105
(dp5254
S'A'
p5255
I15
sS'ME'
p5256
I6
sS'RP2'
p5257
I14
sS'E'
p5258
I10
sS'TO'
p5259
I11
sS'RP1'
p5260
I6
sS'JP'
p5261
I4
sS'RP_tot'
p5262
I14
sS'P'
p5263
I9
sS'PA'
p5264
I14
sS'M'
p5265
I11
sS'R'
p5266
I10
sS'TB'
p5267
I4
sS'PL'
p5268
I10
sS'TA'
p5269
I8
ssg125
I0
sg126
I0
sg127
I0
sg129
I0
sg130
F11.793103448275861
sg131
I0
sg143
I0
sg193
I1
sg317
(dp5270
S'A'
p5271
I15
sS'ME'
p5272
I6
sS'RP2'
p5273
I14
sS'E'
p5274
I10
sS'TO'
p5275
I11
sS'RP1'
p5276
I6
sS'JP'
p5277
I4
sS'RP_tot'
p5278
I14
sS'P'
p5279
I9
sS'PA'
p5280
I14
sS'M'
p5281
I11
sS'R'
p5282
I10
sS'TB'
p5283
I4
sS'PL'
p5284
I10
sS'TA'
p5285
I8
ssg122
g5254
sg210
I0
sg154
S'SN 11'
p5286
sg211
I0
sg212
I0
sg213
I0
sg155
I155
sg214
I46
sg215
I1
sg216
S'S'
p5287
sbssg125
I6
sg126
I0
sg127
I0
sg128
F18.0
sg129
I0
sg130
F11.793103448275861
sg131
I0
sg141
I0
sg98
(dp5288
g5195
I2
sg5196
I0
sg5197
I0
sg5198
I0
ssg193
I1
sg317
(dp5289
S'A'
p5290
I15
sS'ME'
p5291
I6
sS'RP2'
p5292
I14
sS'E'
p5293
I10
sS'P'
p5294
I9
sS'RP1'
p5295
I6
sS'JP'
p5296
I4
sS'RP_tot'
p5297
I14
sS'TO'
p5298
I11
sS'PA'
p5299
I14
sS'M'
p5300
I11
sS'R'
p5301
I10
sS'TB'
p5302
I4
sS'PL'
p5303
I10
sS'TA'
p5304
I8
ssg122
g5208
sg210
I0
sg154
S'SN 11'
p5305
sg211
I0
sg212
I0
sg213
I0
sg75
I0
sg214
I53
sg143
I0
sg93
I0
sg215
I0
sg216
S'S'
p5306
sbsS's11'
p5307
(ijoueur
joueur
p5308
(dp5309
g28
I0
sg30
F2.5
sg33
I0
sg71
I2
sg35
I0
sg37
g38
(g39
g40
Ntp5310
Rp5311
(dp5312
g44
I5
sg45
S'xx'
p5313
sg47
S'seigneur'
p5314
sbsg51
(dp5315
S'SR'
p5316
I0
sS'ST'
p5317
I0
sS'CR'
p5318
I0
sS'CT'
p5319
I0
ssg138
(dp5320
g5316
I0
sg5317
I0
sg5318
I0
sg5319
I12
ssg60
I0
sg155
I155
sg61
(dp5321
g5126
I1
sg5127
I1
sg5128
g5129
ssg67
I0
sg72
I0
sg73
I0
sg74
I0
sg101
S'HTH'
p5322
sg76
I00
sg124
g38
(g39
g40
Ntp5323
Rp5324
(dp5325
g44
I5
sg45
S'xx'
p5326
sg47
g5314
sbsg77
F19.5
sg84
I00
sg85
(dp5327
g5316
I0
sg5317
I0
sg5318
I0
sg5319
I12
ssg87
(dp5328
g5316
I7
sg5317
I2
sg5318
I0
sg5319
I2
ssg89
I0
sg90
(lp5329
g5136
aI01
aI01
aI01
asg93
I0
sg94
S'Skergn (11)'
p5330
sg96
I3
sg97
I0
sg104
I15
sg100
I1603
sg132
(S'dummy'
p5331
S'C2'
p5332
S'AR'
p5333
S'AI'
p5334
tp5335
sg78
(dp5336
g5316
I7
sg5317
I2
sg5318
I0
sg5319
I2
ssg105
(dp5337
S'A'
p5338
I15
sS'ME'
p5339
I6
sS'RP2'
p5340
I14
sS'E'
p5341
I10
sS'TO'
p5342
I11
sS'RP1'
p5343
I6
sS'JP'
p5344
I4
sS'RP_tot'
p5345
I14
sS'P'
p5346
I9
sS'PA'
p5347
I14
sS'M'
p5348
I11
sS'R'
p5349
I10
sS'TB'
p5350
I4
sS'PL'
p5351
I10
sS'TA'
p5352
I8
ssg125
I0
sg126
I0
sg127
I0
sg128
F19.5
sg129
I0
sg130
F11.793103448275861
sg131
I0
sg141
I0
sg98
(dp5353
g5316
I0
sg5317
I0
sg5318
I0
sg5319
I0
ssg193
I1
sg317
(dp5354
S'A'
p5355
I15
sS'ME'
p5356
I6
sS'RP2'
p5357
I14
sS'E'
p5358
I10
sS'TO'
p5359
I11
sS'RP1'
p5360
I6
sS'JP'
p5361
I4
sS'RP_tot'
p5362
I14
sS'P'
p5363
I9
sS'PA'
p5364
I14
sS'M'
p5365
I11
sS'R'
p5366
I10
sS'TB'
p5367
I4
sS'PL'
p5368
I10
sS'TA'
p5369
I8
ssg122
g5337
sg210
I0
sg154
S'SN 11'
p5370
sg211
I0
sg212
I0
sg213
I0
sg75
I0
sg214
I46
sg143
I0
sg215
I1
sg216
S'S'
p5371
sbssg193
I3
sg317
(dp5372
S'A'
p5373
I15
sS'ME'
p5374
I6
sS'RP2'
p5375
I14
sS'E'
p5376
I10
sS'P'
p5377
I9
sS'RP1'
p5378
I6
sS'JP'
p5379
I4
sS'RP_tot'
p5380
I14
sS'TO'
p5381
I11
sS'PA'
p5382
I14
sS'M'
p5383
I11
sS'R'
p5384
I10
sS'TB'
p5385
I4
sS'PL'
p5386
I10
sS'TA'
p5387
I8
ssg210
I0
sg433
(dp5388
sg211
I0
sg154
g5124
sg212
I0
sg213
I0
sg155
I155
sg214
I53
sg215
I0
sg216
g5173
sbsS'n21'
p5389
(ijoueur
joueur
p5390
(dp5391
g27
F12.0
sg28
I0
sg29
F11.606060606060606
sg30
F5.5
sg31
g32
sg33
I3
sg34
F148.37645264669789
sg35
I0
sg36
I0
sg37
g38
(g39
g40
Ntp5392
Rp5393
(dp5394
g44
I6
sg45
S'***'
p5395
sg47
S'personnage'
p5396
sbsg49
(dp5397
sg51
(dp5398
g445
I1
sg446
I0
sg447
I0
sg448
I0
ssg57
F11.303030303030303
sg58
I0
sg59
I10
sg60
I0
sg61
(dp5399
g450
I3
sg451
I7
sg452
g453
ssg67
I0
sg140
F148.37645264669789
sg70
I00
sg71
I6
sg72
I0
sg73
I0
sg74
I0
sg75
I1
sg76
I00
sg77
F13.5
sg78
(dp5400
g455
I0
sg456
I0
sg457
I0
sg458
I0
ssg98
(dp5401
g455
I0
sg456
I0
sg457
I0
sg458
I0
ssg85
(dp5402
g455
I0
sg456
I0
sg457
I0
sg458
I0
ssg87
(dp5403
g445
I4
sg446
I15
sg447
I1
sg448
I9
ssg89
I0
sg90
(lp5404
g463
aI01
aI01
aI01
asg93
I0
sg94
S'Snikch'
p5405
sg96
I7
sg97
I0
sg84
I00
sg100
I576
sg101
g465
sg103
I00
sg104
I20
sg105
(dp5406
g467
I13
sg468
I6
sg469
I14
sg470
I8
sg471
I13
sg472
I7
sg473
I9
sg474
I14
sg475
I9
sg476
I13
sg477
I11
sg478
I9
sg479
I10
sg480
I13
sg481
I5
ssg122
(dp5407
g467
I13
sg468
I6
sg469
I14
sg470
I8
sg475
I9
sg472
I7
sg473
I9
sg474
I14
sg471
I13
sg476
I13
sg477
I11
sg478
I9
sg479
I10
sg480
I13
sg481
I5
ssg124
g38
(g39
g40
Ntp5408
Rp5409
(dp5410
g44
I6
sg45
S'***'
p5411
sg47
g5396
sbsg125
I0
sg126
I0
sg127
I1
sg128
I0
sg129
I0
sg130
F11.696969696969697
sg131
I0
sg132
(g487
S'AR'
p5412
S'CE'
p5413
S'AI'
p5414
tp5415
sg138
(dp5416
g445
I2
sg446
I25
sg447
I0
sg448
I0
ssg141
I3
sg143
I0
sg144
(dp5417
S's13'
p5418
(ijoueur
joueur
p5419
(dp5420
g28
I0
sg30
F5.5
sg126
I0
sg33
I0
sg71
I6
sg35
I0
sg37
g5393
sg51
(dp5421
g497
I0
sg498
I0
sg499
I0
sg500
I0
ssg138
g5416
sg154
g32
sg155
I106
sg61
(dp5422
g502
I1
sg503
I1
sg504
g505
ssg67
I0
sg72
I3
sg73
I0
sg74
I0
sg101
g465
sg76
I00
sg124
g5409
sg77
F10.5
sg84
I00
sg85
(dp5423
g507
I1
sg508
I0
sg509
I0
sg510
I12
ssg87
g5403
sg89
I0
sg90
(lp5424
g512
aI01
aI01
aI01
asg78
(dp5425
g507
I0
sg508
I1
sg509
I0
sg510
I0
ssg94
S'Snikch (13)'
p5426
sg96
I7
sg97
I0
sg104
I20
sg100
I576
sg132
g5415
sg105
(dp5427
g516
I0
sg517
I0
sg518
I0
sg519
I0
sg520
I0
sg521
I0
sg522
I0
sg523
I0
sg524
I0
sg525
I0
sg526
I0
sg527
I0
sg528
I0
sg529
I0
sg530
I0
ssg144
(dp5428
sg125
I0
sg31
g32
sg127
I0
sg128
F13.5
sg129
I0
sg130
F11.303030303030303
sg131
I0
sg141
I0
sg98
(dp5429
g507
I0
sg508
I0
sg509
I0
sg510
I0
ssg193
I0
sg122
(dp5430
g534
I12
sg535
I6
sg536
I14
sg537
I8
sg538
I9
sg539
I7
sg540
I9
sg541
I14
sg542
I13
sg543
I12
sg544
I10
sg545
I9
sg546
I9
sg547
I13
sg548
I5
ssg210
I0
sg211
I0
sg212
I0
sg213
I0
sg75
I0
sg214
I0
sg143
I0
sg93
I0
sg215
I0
sg216
g549
sbsg550
(ijoueur
joueur
p5431
(dp5432
g27
F12.0
sg28
I0
sg30
F3.0
sg31
g32
sg33
I3
sg71
I5
sg35
I0
sg37
g38
(g39
g40
Ntp5433
Rp5434
(dp5435
g44
I6
sg45
S'***'
p5436
sg47
S'personnage'
p5437
sbsg51
(dp5438
g559
I1
sg560
I0
sg561
I0
sg562
I0
ssg138
(dp5439
g559
I1
sg560
I13
sg561
I0
sg562
I0
ssg60
I0
sg155
I106
sg61
(dp5440
g502
I1
sg503
I1
sg504
g505
ssg67
I0
sg72
I4
sg73
I0
sg74
I0
sg101
g565
sg76
I00
sg124
g38
(g39
g40
Ntp5441
Rp5442
(dp5443
g44
I6
sg45
S'***'
p5444
sg47
g5437
sbsg77
F18.0
sg84
I00
sg85
(dp5445
g571
I0
sg572
I0
sg573
I0
sg574
I13
ssg87
(dp5446
g559
I4
sg560
I15
sg561
I1
sg562
I8
ssg89
I0
sg90
(lp5447
g512
aI01
aI01
aI01
asg78
(dp5448
g571
I3
sg572
I1
sg573
I1
sg574
I1
ssg94
S'Snikch (12)'
p5449
sg96
I7
sg97
I0
sg104
I20
sg100
I576
sg132
(g579
S'AR'
p5450
S'CE'
p5451
S'AI'
p5452
tp5453
sg105
(dp5454
g584
I12
sg585
I6
sg586
I14
sg587
I8
sg588
I9
sg589
I7
sg590
I9
sg591
I14
sg592
I13
sg593
I12
sg594
I11
sg595
I9
sg596
I9
sg597
I14
sg598
I5
ssg144
(dp5455
g600
(ijoueur
joueur
p5456
(dp5457
g28
I0
sg33
I3
sg35
I0
sg37
g38
(g39
g40
Ntp5458
Rp5459
(dp5460
g44
I6
sg45
S'***'
p5461
sg47
S'personnage'
p5462
sbsg51
(dp5463
S'SR'
p5464
I0
sS'ST'
p5465
I0
sS'CR'
p5466
I0
sS'CT'
p5467
I0
ssg138
(dp5468
g5464
I1
sg5465
I0
sg5466
I0
sg5467
I0
ssg60
I0
sg67
I0
sg84
I00
sg72
I1
sg73
I0
sg74
I0
sg132
(S'dummy'
p5469
S'AR'
p5470
S'CE'
p5471
S'AI'
p5472
tp5473
sg76
I00
sg124
g38
(g39
g40
Ntp5474
Rp5475
(dp5476
g44
I6
sg45
S'***'
p5477
sg47
g5462
sbsg78
(dp5478
g5464
I0
sg5465
I7
sg5466
I0
sg5467
I14
ssg98
(dp5479
g5464
I0
sg5465
I0
sg5466
I0
sg5467
I0
ssg85
(dp5480
g5464
I1
sg5465
I0
sg5466
I0
sg5467
I0
ssg87
(dp5481
g5464
I0
sg5465
I7
sg5466
I0
sg5467
I14
ssg89
I0
sg93
I0
sg94
S'Snikch'
p5482
sg96
I7
sg97
I0
sg104
I20
sg100
I576
sg101
S'SN'
p5483
sg105
(dp5484
S'A'
p5485
I13
sS'ME'
p5486
I6
sS'RP2'
p5487
I14
sS'E'
p5488
I8
sS'TO'
p5489
I13
sS'RP1'
p5490
I7
sS'JP'
p5491
I9
sS'RP_tot'
p5492
I14
sS'P'
p5493
I9
sS'PA'
p5494
I13
sS'M'
p5495
I12
sS'R'
p5496
I9
sS'TB'
p5497
I10
sS'PL'
p5498
I14
sS'TA'
p5499
I5
ssg125
I0
sg126
I0
sg127
I0
sg129
I0
sg130
F12.0
sg131
I0
sg143
I0
sg193
I0
sg317
(dp5500
S'A'
p5501
I13
sS'ME'
p5502
I6
sS'RP2'
p5503
I14
sS'E'
p5504
I8
sS'TO'
p5505
I13
sS'RP1'
p5506
I7
sS'JP'
p5507
I9
sS'RP_tot'
p5508
I14
sS'P'
p5509
I9
sS'PA'
p5510
I13
sS'M'
p5511
I12
sS'R'
p5512
I9
sS'TB'
p5513
I10
sS'PL'
p5514
I14
sS'TA'
p5515
I5
ssg122
g5484
sg210
I0
sg154
g32
sg211
I0
sg212
I0
sg213
I0
sg155
I106
sg214
I28
sg215
I0
sg216
S'S'
p5516
sbssg125
I3
sg126
I0
sg127
I0
sg128
F17.5
sg129
I0
sg130
F11.606060606060606
sg131
I0
sg141
I0
sg98
(dp5517
g571
I1
sg572
I0
sg573
I0
sg574
I0
ssg193
I0
sg317
(dp5518
g663
I13
sg664
I6
sg665
I14
sg666
I8
sg667
I13
sg668
I7
sg669
I9
sg670
I14
sg671
I9
sg672
I13
sg673
I12
sg674
I9
sg675
I10
sg676
I14
sg677
I5
ssg122
g5454
sg210
I0
sg154
g32
sg211
I0
sg212
I0
sg213
I0
sg75
I0
sg214
I32
sg143
I0
sg93
I0
sg215
I0
sg216
g678
sbsg679
(ijoueur
joueur
p5519
(dp5520
g28
I0
sg30
F5.5
sg33
I3
sg71
I3
sg35
I0
sg37
g38
(g39
g40
Ntp5521
Rp5522
(dp5523
g44
I6
sg45
S'***'
p5524
sg47
S'personnage'
p5525
sbsg51
(dp5526
S'SR'
p5527
I0
sS'ST'
p5528
I0
sS'CR'
p5529
I0
sS'CT'
p5530
I0
ssg138
(dp5531
g5527
I1
sg5528
I0
sg5529
I0
sg5530
I0
ssg60
I0
sg155
I106
sg61
(dp5532
g502
I1
sg503
I1
sg504
g505
ssg67
I0
sg72
I1
sg73
I0
sg74
I0
sg101
S'SN'
p5533
sg76
I00
sg124
g38
(g39
g40
Ntp5534
Rp5535
(dp5536
g44
I6
sg45
S'***'
p5537
sg47
g5525
sbsg77
F21.5
sg84
I00
sg85
(dp5538
g5527
I1
sg5528
I0
sg5529
I0
sg5530
I0
ssg87
(dp5539
g5527
I0
sg5528
I7
sg5529
I0
sg5530
I14
ssg89
I0
sg90
(lp5540
g512
aI01
aI01
aI01
asg93
I0
sg94
S'Snikch (11)'
p5541
sg96
I7
sg97
I0
sg104
I20
sg100
I576
sg132
(S'dummy'
p5542
S'AR'
p5543
S'CE'
p5544
S'AI'
p5545
tp5546
sg78
(dp5547
g5527
I0
sg5528
I7
sg5529
I0
sg5530
I14
ssg105
(dp5548
S'A'
p5549
I13
sS'ME'
p5550
I6
sS'RP2'
p5551
I14
sS'E'
p5552
I8
sS'TO'
p5553
I13
sS'RP1'
p5554
I7
sS'JP'
p5555
I9
sS'RP_tot'
p5556
I14
sS'P'
p5557
I9
sS'PA'
p5558
I13
sS'M'
p5559
I12
sS'R'
p5560
I9
sS'TB'
p5561
I10
sS'PL'
p5562
I14
sS'TA'
p5563
I5
ssg125
I0
sg126
I0
sg127
I0
sg128
F21.5
sg129
I0
sg130
F12.0
sg131
I0
sg141
I0
sg98
(dp5564
g5527
I0
sg5528
I0
sg5529
I0
sg5530
I0
ssg193
I0
sg317
(dp5565
S'A'
p5566
I13
sS'ME'
p5567
I6
sS'RP2'
p5568
I14
sS'E'
p5569
I8
sS'TO'
p5570
I13
sS'RP1'
p5571
I7
sS'JP'
p5572
I9
sS'RP_tot'
p5573
I14
sS'P'
p5574
I9
sS'PA'
p5575
I13
sS'M'
p5576
I12
sS'R'
p5577
I9
sS'TB'
p5578
I10
sS'PL'
p5579
I14
sS'TA'
p5580
I5
ssg122
g5548
sg210
I0
sg154
g32
sg211
I0
sg212
I0
sg213
I0
sg75
I0
sg214
I28
sg143
I0
sg215
I0
sg216
S'S'
p5581
sbssg193
I1
sg317
(dp5582
g743
I13
sg744
I6
sg745
I14
sg746
I8
sg747
I13
sg748
I7
sg749
I9
sg750
I14
sg751
I9
sg752
I13
sg753
I12
sg754
I9
sg755
I10
sg756
I14
sg757
I5
ssg210
I0
sg433
(dp5583
sg211
I0
sg154
g32
sg212
I0
sg213
I0
sg155
I106
sg214
I35
sg215
I0
sg216
g549
sbsS'n20'
p5584
(ijoueur
joueur
p5585
(dp5586
g27
F11.133333333333333
sg28
I0
sg29
F11.066666666666666
sg30
F1.0
sg31
g32
sg33
I1
sg34
F147.1655329615294
sg35
I0
sg36
I0
sg37
g38
(g39
g40
Ntp5587
Rp5588
(dp5589
g44
I5
sg45
S'**'
p5590
sg47
S'seigneur'
p5591
sbsg49
(dp5592
sg51
(dp5593
S'SR'
p5594
I0
sS'ST'
p5595
I0
sS'CR'
p5596
I0
sS'CT'
p5597
I15
ssg57
F11.066666666666666
sg58
I0
sg59
I10
sg60
I0
sg61
(dp5598
g3276
I3
sg3277
I7
sg3278
g3279
ssg67
I0
sg140
F147.1655329615294
sg70
I00
sg71
I6
sg72
I0
sg73
I0
sg74
I0
sg75
I1
sg76
I00
sg77
F13.5
sg78
(dp5599
g3281
I0
sg3282
I0
sg3283
I0
sg3284
I0
ssg98
(dp5600
g3281
I0
sg3282
I0
sg3283
I0
sg3284
I0
ssg85
(dp5601
g3281
I0
sg3282
I0
sg3283
I0
sg3284
I0
ssg87
(dp5602
g5594
I0
sg5595
I0
sg5596
I0
sg5597
I24
ssg89
I67
sg90
(lp5603
g3289
aI01
aI01
aI01
asg93
I0
sg94
S'Pfessyr'
p5604
sg96
I8
sg97
I39
sg84
I00
sg100
I200
sg101
g3291
sg103
I00
sg104
I22
sg105
(dp5605
S'A'
p5606
I10
sS'ME'
p5607
I4
sS'RP2'
p5608
I9
sS'E'
p5609
I11
sS'P'
p5610
I10
sS'RP1'
p5611
I8
sS'JP'
p5612
I10
sS'RP_tot'
p5613
I10
sS'TO'
p5614
I7
sS'PA'
p5615
I14
sS'M'
p5616
I8
sS'R'
p5617
I8
sS'TB'
p5618
I9
sS'PL'
p5619
I16
sS'TA'
p5620
I6
ssg122
(dp5621
g5606
I10
sg5607
I4
sg5608
I9
sg5609
I11
sg5614
I7
sg5611
I8
sg5612
I10
sg5613
I10
sg5610
I10
sg5615
I14
sg5616
I8
sg5617
I8
sg5618
I9
sg5619
I16
sg5620
I6
ssg124
g38
(g39
g40
Ntp5622
Rp5623
(dp5624
g44
I5
sg45
S'**'
p5625
sg47
g5591
sbsg125
I0
sg126
I0
sg127
I0
sg128
I0
sg129
I0
sg130
F11.333333333333334
sg131
I0
sg132
(S'dummy'
p5626
S'C1'
p5627
S'AR'
p5628
S'DO'
p5629
tp5630
sg138
(dp5631
g5594
I9
sg5595
I0
sg5596
I1
sg5597
I0
ssg141
I3
sg143
I0
sg144
(dp5632
S's13'
p5633
(ijoueur
joueur
p5634
(dp5635
g28
I0
sg30
F1.0
sg126
I0
sg33
I0
sg71
I6
sg35
I0
sg37
g5588
sg51
(dp5636
g3323
I0
sg3324
I0
sg3325
I0
sg3326
I0
ssg138
g5631
sg75
I0
sg154
S'KH 12'
p5637
sg61
(dp5638
g3328
I1
sg3329
I1
sg3330
g3331
ssg67
I0
sg72
I3
sg73
I0
sg74
I0
sg132
g5630
sg76
I00
sg124
g5623
sg77
F0.5
sg84
I00
sg85
(dp5639
g3333
I1
sg3334
I0
sg3335
I0
sg3336
I0
ssg87
g5602
sg89
I0
sg90
(lp5640
g3338
aI01
aI01
aI01
asg78
(dp5641
g3333
I0
sg3334
I12
sg3335
I0
sg3336
I0
ssg94
S'Pfessyr (13)'
p5642
sg96
I8
sg97
I0
sg104
I22
sg100
I200
sg101
g3291
sg105
(dp5643
g3342
I0
sg3343
I0
sg3344
I0
sg3345
I0
sg3346
I0
sg3347
I0
sg3348
I0
sg3349
I0
sg3350
I0
sg3351
I0
sg3352
I0
sg3353
I0
sg3354
I0
sg3355
I0
sg3356
I0
ssg144
(dp5644
sg125
I0
sg31
g32
sg127
I0
sg128
F13.5
sg129
I0
sg130
F11.066666666666666
sg131
I0
sg141
I0
sg98
(dp5645
g3333
I0
sg3334
I1
sg3335
I0
sg3336
I0
ssg193
I0
sg122
(dp5646
g3360
I10
sg3361
I4
sg3362
I9
sg3363
I11
sg3364
I9
sg3365
I8
sg3366
I9
sg3367
I10
sg3368
I7
sg3369
I13
sg3370
I8
sg3371
I8
sg3372
I9
sg3373
I16
sg3374
I6
ssg210
I0
sg211
I0
sg212
I0
sg213
I0
sg155
I35
sg214
I0
sg143
I0
sg93
I0
sg215
I0
sg216
S'S'
p5647
sbsg3376
(ijoueur
joueur
p5648
(dp5649
g27
F11.133333333333333
sg28
I0
sg30
F10.5
sg31
g32
sg33
I1
sg71
I4
sg35
I0
sg37
g38
(g39
g40
Ntp5650
Rp5651
(dp5652
g44
I5
sg45
S'**'
p5653
sg47
S'seigneur'
p5654
sbsg51
(dp5655
S'SR'
p5656
I0
sS'ST'
p5657
I0
sS'CR'
p5658
I0
sS'CT'
p5659
I14
ssg138
(dp5660
g5656
I8
sg5657
I0
sg5658
I1
sg5659
I0
ssg75
I0
sg60
I0
sg61
(dp5661
g3328
I1
sg3329
I1
sg3330
g3331
ssg67
I0
sg72
I0
sg73
I0
sg74
I0
sg132
(S'dummy'
p5662
S'C1'
p5663
S'AR'
p5664
S'DO'
p5665
tp5666
sg76
I00
sg124
g38
(g39
g40
Ntp5667
Rp5668
(dp5669
g44
I5
sg45
S'**'
p5670
sg47
g5654
sbsg77
F0.0
sg84
I00
sg85
(dp5671
g3396
I0
sg3397
I0
sg3398
I1
sg3399
I0
ssg87
(dp5672
g5656
I0
sg5657
I0
sg5658
I0
sg5659
I12
ssg89
I67
sg90
(lp5673
g3338
aI01
aI01
aI01
asg78
(dp5674
g3396
I0
sg3397
I0
sg3398
I0
sg3399
I12
ssg94
S'Pfessyr (12)'
p5675
sg96
I8
sg97
I39
sg104
I22
sg100
I200
sg101
g3404
sg105
(dp5676
S'A'
p5677
I10
sS'ME'
p5678
I4
sS'RP2'
p5679
I9
sS'E'
p5680
I11
sS'TO'
p5681
I7
sS'RP1'
p5682
I8
sS'JP'
p5683
I9
sS'RP_tot'
p5684
I10
sS'P'
p5685
I9
sS'PA'
p5686
I13
sS'M'
p5687
I8
sS'R'
p5688
I8
sS'TB'
p5689
I9
sS'PL'
p5690
I16
sS'TA'
p5691
I6
ssg144
(dp5692
g3427
(ijoueur
joueur
p5693
(dp5694
g28
I0
sg33
I1
sg35
I0
sg37
g38
(g39
g40
Ntp5695
Rp5696
(dp5697
g44
I5
sg45
S'**'
p5698
sg47
S'seigneur'
p5699
sbsg51
(dp5700
S'SR'
p5701
I0
sS'ST'
p5702
I0
sS'CR'
p5703
I0
sS'CT'
p5704
I14
ssg138
(dp5705
g5701
I8
sg5702
I0
sg5703
I0
sg5704
I0
ssg60
I0
sg67
I0
sg84
I01
sg72
I1
sg73
I0
sg74
I0
sg132
(S'dummy'
p5706
S'C1'
p5707
S'AR'
p5708
S'DO'
p5709
tp5710
sg76
I01
sg124
g38
(g39
g40
Ntp5711
Rp5712
(dp5713
g44
I5
sg45
S'**'
p5714
sg47
g5699
sbsg78
(dp5715
g5701
I0
sg5702
I0
sg5703
I0
sg5704
I0
ssg98
(dp5716
g5701
I0
sg5702
I0
sg5703
I0
sg5704
I14
ssg85
(dp5717
g5701
I8
sg5702
I0
sg5703
I0
sg5704
I0
ssg87
(dp5718
g5701
I0
sg5702
I0
sg5703
I0
sg5704
I0
ssg89
I67
sg93
I0
sg94
S'Pfessyr'
p5719
sg96
I8
sg97
I39
sg104
I22
sg100
I90
sg101
S'KH'
p5720
sg105
(dp5721
S'A'
p5722
I11
sS'ME'
p5723
I4
sS'RP2'
p5724
I9
sS'E'
p5725
I11
sS'TO'
p5726
I7
sS'RP1'
p5727
I8
sS'JP'
p5728
I9
sS'RP_tot'
p5729
I10
sS'P'
p5730
I10
sS'PA'
p5731
I12
sS'M'
p5732
I8
sS'R'
p5733
I8
sS'TB'
p5734
I8
sS'PL'
p5735
I16
sS'TA'
p5736
I6
ssg125
I0
sg126
I0
sg127
I0
sg129
I0
sg130
F11.133333333333333
sg131
I0
sg143
I0
sg193
I0
sg317
(dp5737
S'A'
p5738
I11
sS'ME'
p5739
I4
sS'RP2'
p5740
I9
sS'E'
p5741
I11
sS'TO'
p5742
I7
sS'RP1'
p5743
I8
sS'JP'
p5744
I9
sS'RP_tot'
p5745
I10
sS'P'
p5746
I10
sS'PA'
p5747
I12
sS'M'
p5748
I8
sS'R'
p5749
I8
sS'TB'
p5750
I8
sS'PL'
p5751
I16
sS'TA'
p5752
I6
ssg122
g5721
sg210
I0
sg154
g32
sg211
I0
sg212
I0
sg213
I0
sg155
I9
sg214
I3
sg215
I0
sg216
S'S'
p5753
sbssg125
I0
sg126
I0
sg127
I0
sg128
F12.5
sg129
I0
sg130
F11.066666666666666
sg131
I0
sg141
I0
sg98
(dp5754
g3396
I0
sg3397
I0
sg3398
I0
sg3399
I0
ssg193
I0
sg317
(dp5755
S'A'
p5756
I11
sS'ME'
p5757
I4
sS'RP2'
p5758
I9
sS'E'
p5759
I11
sS'P'
p5760
I10
sS'RP1'
p5761
I8
sS'JP'
p5762
I9
sS'RP_tot'
p5763
I10
sS'TO'
p5764
I7
sS'PA'
p5765
I12
sS'M'
p5766
I8
sS'R'
p5767
I8
sS'TB'
p5768
I8
sS'PL'
p5769
I16
sS'TA'
p5770
I6
ssg122
g5676
sg210
I0
sg154
S'KH 12'
p5771
sg211
I0
sg212
I0
sg213
I0
sg155
I35
sg214
I3
sg143
I0
sg93
I0
sg215
I0
sg216
S'S'
p5772
sbsg3505
(ijoueur
joueur
p5773
(dp5774
g28
I0
sg30
F5.0
sg33
I1
sg71
I3
sg35
I0
sg37
g38
(g39
g40
Ntp5775
Rp5776
(dp5777
g44
I5
sg45
S'**'
p5778
sg47
S'seigneur'
p5779
sbsg51
(dp5780
S'SR'
p5781
I0
sS'ST'
p5782
I0
sS'CR'
p5783
I0
sS'CT'
p5784
I14
ssg138
(dp5785
g5781
I8
sg5782
I0
sg5783
I0
sg5784
I0
ssg75
I0
sg60
I0
sg61
(dp5786
g3328
I1
sg3329
I1
sg3330
g3331
ssg67
I0
sg72
I1
sg73
I0
sg74
I0
sg132
(S'dummy'
p5787
S'C1'
p5788
S'AR'
p5789
S'DO'
p5790
tp5791
sg76
I01
sg124
g38
(g39
g40
Ntp5792
Rp5793
(dp5794
g44
I5
sg45
S'**'
p5795
sg47
g5779
sbsg77
F18.0
sg84
I01
sg85
(dp5796
g5781
I8
sg5782
I0
sg5783
I0
sg5784
I0
ssg87
(dp5797
g5781
I0
sg5782
I0
sg5783
I0
sg5784
I0
ssg89
I67
sg90
(lp5798
g3338
aI01
aI01
aI01
asg93
I0
sg94
S'Pfessyr (11)'
p5799
sg96
I8
sg97
I39
sg104
I22
sg100
I90
sg101
S'KH'
p5800
sg78
(dp5801
g5781
I0
sg5782
I0
sg5783
I0
sg5784
I0
ssg105
(dp5802
S'A'
p5803
I11
sS'ME'
p5804
I4
sS'RP2'
p5805
I9
sS'E'
p5806
I11
sS'TO'
p5807
I7
sS'RP1'
p5808
I8
sS'JP'
p5809
I9
sS'RP_tot'
p5810
I10
sS'P'
p5811
I10
sS'PA'
p5812
I12
sS'M'
p5813
I8
sS'R'
p5814
I8
sS'TB'
p5815
I8
sS'PL'
p5816
I16
sS'TA'
p5817
I6
ssg125
I0
sg126
I0
sg127
I0
sg128
F18.0
sg129
I0
sg130
F11.133333333333333
sg131
I0
sg141
I0
sg98
(dp5818
g5781
I0
sg5782
I0
sg5783
I0
sg5784
I14
ssg193
I0
sg317
(dp5819
S'A'
p5820
I11
sS'ME'
p5821
I4
sS'RP2'
p5822
I9
sS'E'
p5823
I11
sS'TO'
p5824
I7
sS'RP1'
p5825
I8
sS'JP'
p5826
I9
sS'RP_tot'
p5827
I10
sS'P'
p5828
I10
sS'PA'
p5829
I12
sS'M'
p5830
I8
sS'R'
p5831
I8
sS'TB'
p5832
I8
sS'PL'
p5833
I16
sS'TA'
p5834
I6
ssg122
g5802
sg210
I0
sg154
g32
sg211
I0
sg212
I0
sg213
I0
sg155
I9
sg214
I3
sg143
I0
sg215
I0
sg216
S'S'
p5835
sbssg193
I1
sg317
(dp5836
S'A'
p5837
I11
sS'ME'
p5838
I4
sS'RP2'
p5839
I9
sS'E'
p5840
I11
sS'P'
p5841
I10
sS'RP1'
p5842
I8
sS'JP'
p5843
I9
sS'RP_tot'
p5844
I10
sS'TO'
p5845
I7
sS'PA'
p5846
I12
sS'M'
p5847
I8
sS'R'
p5848
I8
sS'TB'
p5849
I8
sS'PL'
p5850
I16
sS'TA'
p5851
I6
ssg210
I0
sg433
(dp5852
sg211
I0
sg154
g5637
sg212
I0
sg213
I0
sg155
I35
sg214
I6
sg215
I0
sg216
g5647
sbsS'n8'
p5853
g25
sS'n9'
p5854
(ijoueur
joueur
p5855
(dp5856
g27
F8.448275862068966
sg28
I0
sg29
F9.310344827586206
sg30
F1.5
sg31
g32
sg33
I0
sg34
F192.41422210444253
sg35
I0
sg36
I0
sg37
g38
(g39
g40
Ntp5857
Rp5858
(dp5859
g44
I4
sg45
S'*'
p5860
sg47
S'heros'
p5861
sbsg49
(dp5862
sg51
(dp5863
g1747
I0
sg1748
I0
sg1749
I0
sg1750
I0
ssg57
F10.586206896551724
sg58
I0
sg59
I10
sg60
I0
sg61
(dp5864
g1752
I3
sg1753
I5
sg1754
g2079
ssg67
I0
sg140
F192.41422210444253
sg70
I01
sg71
I6
sg72
I0
sg73
I0
sg74
I0
sg75
I2
sg76
I00
sg77
F18.0
sg78
(dp5865
g1757
I0
sg1758
I0
sg1759
I0
sg1760
I0
ssg98
(dp5866
g1757
I0
sg1758
I0
sg1759
I0
sg1760
I0
ssg85
(dp5867
g1757
I0
sg1758
I0
sg1759
I0
sg1760
I0
ssg87
(dp5868
g1747
I0
sg1748
I17
sg1749
I13
sg1750
I5
ssg89
I5
sg90
(lp5869
g1765
aI01
aI00
aI00
asg93
I0
sg94
S'Wiz'
p5870
sg96
I11
sg97
I1
sg84
I00
sg100
I77
sg101
g1767
sg103
I00
sg104
I26
sg105
(dp5871
g1769
I10
sg1770
I6
sg1771
I11
sg1772
I11
sg1773
I6
sg1774
I7
sg1775
I9
sg1776
I11
sg1777
I10
sg1778
I14
sg1779
I12
sg1780
I8
sg1781
I10
sg1782
I10
sg1783
I5
ssg122
(dp5872
g1769
I10
sg1770
I6
sg1771
I11
sg1772
I11
sg1777
I10
sg1774
I7
sg1775
I9
sg1776
I11
sg1773
I6
sg1778
I14
sg1779
I12
sg1780
I8
sg1781
I10
sg1782
I10
sg1783
I5
ssg124
g5858
sg125
I0
sg126
I0
sg127
I1
sg128
I0
sg129
I0
sg130
F11.10344827586207
sg131
I0
sg132
(g1789
S'DM'
p5873
g32
g32
tp5874
sg138
(dp5875
g1747
I0
sg1748
I0
sg1749
I0
sg1750
I0
ssg141
I4
sg143
I0
sg144
(dp5876
S's13'
p5877
(ijoueur
joueur
p5878
(dp5879
g28
I0
sg30
F3.5
sg126
I0
sg33
I0
sg71
I6
sg35
I0
sg37
g5858
sg51
(dp5880
g1800
I0
sg1801
I0
sg1802
I0
sg1803
I0
ssg138
g5875
sg75
I0
sg154
g32
sg61
(dp5881
g1805
I1
sg1806
I1
sg1807
g1808
ssg67
I0
sg72
I3
sg73
I0
sg74
I1
sg132
g5874
sg76
I00
sg124
g5858
sg77
F1.0
sg84
I00
sg85
(dp5882
g1810
I0
sg1811
I0
sg1812
I0
sg1813
I0
ssg87
g5868
sg89
I0
sg90
(lp5883
g1815
aI01
aI00
aI00
asg78
(dp5884
g1810
I0
sg1811
I5
sg1812
I0
sg1813
I13
ssg94
S'Wiz (13)'
p5885
sg96
I11
sg97
I0
sg104
I26
sg100
I77
sg101
g1767
sg105
(dp5886
g1819
I0
sg1820
I0
sg1821
I0
sg1822
I0
sg1823
I0
sg1824
I0
sg1825
I0
sg1826
I0
sg1827
I0
sg1828
I0
sg1829
I0
sg1830
I0
sg1831
I0
sg1832
I0
sg1833
I0
ssg144
(dp5887
sg125
I0
sg31
g32
sg127
I0
sg128
F18.0
sg129
I0
sg130
F10.586206896551724
sg131
I0
sg141
I0
sg98
(dp5888
g1810
I0
sg1811
I0
sg1812
I0
sg1813
I0
ssg193
I0
sg122
(dp5889
g1837
I10
sg1838
I6
sg1839
I11
sg1840
I11
sg1841
I6
sg1842
I7
sg1843
I9
sg1844
I11
sg1845
I9
sg1846
I13
sg1847
I10
sg1848
I8
sg1849
I10
sg1850
I10
sg1851
I5
ssg210
I0
sg211
I0
sg212
I0
sg213
I0
sg155
I6
sg214
I0
sg143
I0
sg93
I5
sg215
I0
sg216
g1852
sbsg1853
(ijoueur
joueur
p5890
(dp5891
g27
F8.448275862068966
sg28
I0
sg30
F2.5
sg31
g32
sg33
I0
sg71
I4
sg35
I0
sg37
g38
(g39
g40
Ntp5892
Rp5893
(dp5894
g44
I4
sg45
S'*'
p5895
sg47
S'heros'
p5896
sbsg51
(dp5897
g1862
I0
sg1863
I0
sg1864
I0
sg1865
I0
ssg138
(dp5898
g1862
I0
sg1863
I0
sg1864
I0
sg1865
I0
ssg75
I0
sg60
I0
sg61
(dp5899
g1805
I1
sg1806
I1
sg1807
g1808
ssg67
I0
sg72
I0
sg73
I0
sg74
I0
sg132
(g1868
S'DM'
p5900
g32
g32
tp5901
sg76
I00
sg124
g38
(g39
g40
Ntp5902
Rp5903
(dp5904
g44
I3
sg45
S'^^^'
p5905
sg47
S'rare'
p5906
sbsg77
F3.0
sg84
I01
sg85
(dp5907
g1878
I0
sg1879
I0
sg1880
I0
sg1881
I0
ssg87
(dp5908
g1862
I0
sg1863
I4
sg1864
I13
sg1865
I0
ssg89
I0
sg90
(lp5909
g1815
aI01
aI00
aI00
asg78
(dp5910
g1878
I0
sg1879
I0
sg1880
I1
sg1881
I1
ssg94
S'Wiz (12)'
p5911
sg96
I11
sg97
I0
sg104
I26
sg100
I25
sg101
g1886
sg105
(dp5912
g1888
I9
sg1889
I6
sg1890
I9
sg1891
I10
sg1892
I8
sg1893
I6
sg1894
I8
sg1895
I9
sg1896
I4
sg1897
I11
sg1898
I10
sg1899
I8
sg1900
I7
sg1901
I8
sg1902
I5
ssg144
(dp5913
g1904
(ijoueur
joueur
p5914
(dp5915
g28
I0
sg33
I0
sg35
I0
sg37
g38
(g39
g40
Ntp5916
Rp5917
(dp5918
g44
I4
sg45
S'*'
p5919
sg47
S'heros'
p5920
sbsg51
(dp5921
S'SR'
p5922
I0
sS'CT'
p5923
I0
sS'CR'
p5924
I0
sS'ST'
p5925
I0
ssg138
(dp5926
g5922
I0
sg5923
I0
sg5924
I0
sg5925
I0
ssg60
I0
sg67
I0
sg84
I01
sg72
I1
sg73
I0
sg74
I0
sg132
(S'dummy'
p5927
S'DM'
p5928
g32
g32
tp5929
sg76
I00
sg124
g38
(g39
g40
Ntp5930
Rp5931
(dp5932
g44
I1
sg45
S'^'
p5933
sg47
S'base'
p5934
sbsg78
(dp5935
g5922
I0
sg5923
I3
sg5924
I12
sg5925
I0
ssg98
(dp5936
g5922
I0
sg5923
I0
sg5924
I0
sg5925
I0
ssg85
(dp5937
g5922
I0
sg5923
I0
sg5924
I0
sg5925
I0
ssg87
(dp5938
g5922
I0
sg5923
I3
sg5924
I12
sg5925
I0
ssg89
I0
sg93
I0
sg94
S'Wiz'
p5939
sg96
I11
sg97
I0
sg104
I26
sg100
I12
sg101
S'ED'
p5940
sg105
(dp5941
S'A'
p5942
I8
sS'ME'
p5943
I5
sS'RP2'
p5944
I9
sS'E'
p5945
I8
sS'P'
p5946
I8
sS'RP1'
p5947
I6
sS'JP'
p5948
I7
sS'RP_tot'
p5949
I9
sS'TO'
p5950
I3
sS'PA'
p5951
I10
sS'M'
p5952
I11
sS'R'
p5953
I6
sS'TB'
p5954
I6
sS'PL'
p5955
I6
sS'TA'
p5956
I4
ssg125
I0
sg126
I0
sg127
I0
sg129
I0
sg130
F8.448275862068966
sg131
I0
sg143
I0
sg193
I0
sg317
(dp5957
S'A'
p5958
I8
sS'ME'
p5959
I5
sS'RP2'
p5960
I9
sS'E'
p5961
I8
sS'P'
p5962
I8
sS'RP1'
p5963
I6
sS'JP'
p5964
I7
sS'RP_tot'
p5965
I9
sS'TO'
p5966
I3
sS'PA'
p5967
I10
sS'M'
p5968
I11
sS'R'
p5969
I6
sS'TB'
p5970
I6
sS'PL'
p5971
I6
sS'TA'
p5972
I4
ssg122
g5941
sg210
I0
sg154
g32
sg211
I0
sg212
I0
sg213
I0
sg155
I1
sg214
I1
sg215
I0
sg216
S'S'
p5973
sbssg125
I0
sg126
I0
sg127
I0
sg128
F1.5
sg129
I0
sg130
F9.310344827586206
sg131
I0
sg141
I0
sg98
(dp5974
g1878
I0
sg1879
I0
sg1880
I0
sg1881
I0
ssg193
I0
sg317
(dp5975
g1968
I8
sg1969
I5
sg1970
I9
sg1971
I8
sg1972
I8
sg1973
I6
sg1974
I7
sg1975
I9
sg1976
I3
sg1977
I10
sg1978
I11
sg1979
I6
sg1980
I6
sg1981
I6
sg1982
I4
ssg122
g5912
sg210
I0
sg154
g32
sg211
I0
sg212
I0
sg213
I0
sg155
I1
sg214
I1
sg143
I0
sg93
I0
sg215
I0
sg216
g1983
sbsg1984
(ijoueur
joueur
p5976
(dp5977
g28
I0
sg30
F5.0
sg33
I0
sg71
I3
sg35
I0
sg37
g38
(g39
g40
Ntp5978
Rp5979
(dp5980
g44
I4
sg45
S'*'
p5981
sg47
S'heros'
p5982
sbsg51
(dp5983
S'SR'
p5984
I0
sS'CT'
p5985
I0
sS'CR'
p5986
I0
sS'ST'
p5987
I0
ssg138
(dp5988
g5984
I0
sg5985
I0
sg5986
I0
sg5987
I0
ssg75
I0
sg60
I0
sg61
(dp5989
g1805
I1
sg1806
I1
sg1807
g1808
ssg67
I0
sg72
I1
sg73
I0
sg74
I0
sg132
(S'dummy'
p5990
S'DM'
p5991
g32
g32
tp5992
sg76
I00
sg124
g38
(g39
g40
Ntp5993
Rp5994
(dp5995
g44
I1
sg45
S'^'
p5996
sg47
S'base'
p5997
sbsg77
F9.0
sg84
I01
sg85
(dp5998
g5984
I0
sg5985
I0
sg5986
I0
sg5987
I0
ssg87
(dp5999
g5984
I0
sg5985
I3
sg5986
I12
sg5987
I0
ssg89
I0
sg90
(lp6000
g1815
aI01
aI00
aI00
asg93
I0
sg94
S'Wiz (11)'
p6001
sg96
I11
sg97
I0
sg104
I26
sg100
I12
sg101
S'ED'
p6002
sg78
(dp6003
g5984
I0
sg5985
I3
sg5986
I12
sg5987
I0
ssg105
(dp6004
S'A'
p6005
I8
sS'ME'
p6006
I5
sS'RP2'
p6007
I9
sS'E'
p6008
I8
sS'P'
p6009
I8
sS'RP1'
p6010
I6
sS'JP'
p6011
I7
sS'RP_tot'
p6012
I9
sS'TO'
p6013
I3
sS'PA'
p6014
I10
sS'M'
p6015
I11
sS'R'
p6016
I6
sS'TB'
p6017
I6
sS'PL'
p6018
I6
sS'TA'
p6019
I4
ssg125
I0
sg126
I0
sg127
I0
sg128
F9.0
sg129
I0
sg130
F8.448275862068966
sg131
I0
sg141
I0
sg98
(dp6020
g5984
I0
sg5985
I0
sg5986
I0
sg5987
I0
ssg193
I0
sg317
(dp6021
S'A'
p6022
I8
sS'ME'
p6023
I5
sS'RP2'
p6024
I9
sS'E'
p6025
I8
sS'P'
p6026
I8
sS'RP1'
p6027
I6
sS'JP'
p6028
I7
sS'RP_tot'
p6029
I9
sS'TO'
p6030
I3
sS'PA'
p6031
I10
sS'M'
p6032
I11
sS'R'
p6033
I6
sS'TB'
p6034
I6
sS'PL'
p6035
I6
sS'TA'
p6036
I4
ssg122
g6004
sg210
I0
sg154
g32
sg211
I0
sg212
I0
sg213
I0
sg155
I1
sg214
I1
sg143
I0
sg215
I0
sg216
S'S'
p6037
sbssg193
I0
sg317
(dp6038
g2049
I8
sg2050
I5
sg2051
I9
sg2052
I8
sg2053
I8
sg2054
I6
sg2055
I7
sg2056
I9
sg2057
I3
sg2058
I10
sg2059
I11
sg2060
I6
sg2061
I6
sg2062
I6
sg2063
I4
ssg210
I0
sg433
(dp6039
sg211
I0
sg154
g32
sg212
I0
sg213
I0
sg155
I6
sg214
I4
sg215
I0
sg216
g1852
sbsS'n1'
p6040
(ijoueur
joueur
p6041
(dp6042
g27
F11.037037037037036
sg28
I1
sg29
F11.407407407407407
sg30
F12.5
sg31
g32
sg33
I0
sg34
F203.0376028238849
sg35
I0
sg36
I0
sg37
g38
(g39
g40
Ntp6043
Rp6044
(dp6045
g44
I5
sg45
S'**'
p6046
sg47
S'seigneur'
p6047
sbsg49
(dp6048
sg51
(dp6049
S'SR'
p6050
I0
sS'ST'
p6051
I0
sS'CR'
p6052
I0
sS'CT'
p6053
I0
ssg57
F11.444444444444445
sg58
I0
sg59
I10
sg60
I0
sg61
(dp6054
S'couleur'
p6055
I2
sS'valeur'
p6056
I6
sS'r_n'
p6057
S'r'
p6058
ssg67
I0
sg140
F203.0376028238849
sg70
I00
sg71
I7
sg72
I0
sg73
I0
sg74
I0
sg75
I3
sg76
I00
sg77
F18.5
sg78
(dp6059
S'SR'
p6060
I0
sS'ST'
p6061
I0
sS'CR'
p6062
I0
sS'CT'
p6063
I0
ssg98
(dp6064
g6060
I0
sg6061
I0
sg6062
I0
sg6063
I0
ssg85
(dp6065
g6060
I0
sg6061
I0
sg6062
I0
sg6063
I0
ssg87
(dp6066
g6050
I1
sg6051
I19
sg6052
I2
sg6053
I40
ssg89
I0
sg90
(lp6067
S'dummy'
p6068
aI01
aI00
aI00
asg93
I0
sg94
S'Chotc'
p6069
sg96
I9
sg97
I0
sg84
I00
sg100
I220
sg101
S'BRB'
p6070
sg103
I00
sg104
I24
sg105
(dp6071
S'A'
p6072
I12
sS'ME'
p6073
I16
sS'RP2'
p6074
I9
sS'E'
p6075
I11
sS'P'
p6076
I7
sS'RP1'
p6077
I10
sS'JP'
p6078
I9
sS'RP_tot'
p6079
I11
sS'TO'
p6080
I10
sS'PA'
p6081
I11
sS'M'
p6082
I11
sS'R'
p6083
I10
sS'TB'
p6084
I6
sS'PL'
p6085
I10
sS'TA'
p6086
I7
ssg122
(dp6087
g6072
I12
sg6073
I16
sg6074
I9
sg6075
I11
sg6080
I10
sg6077
I10
sg6078
I9
sg6079
I11
sg6076
I7
sg6081
I11
sg6082
I11
sg6083
I10
sg6084
I6
sg6085
I10
sg6086
I7
ssg124
g6044
sg125
I0
sg126
I0
sg127
I0
sg128
I0
sg129
I0
sg130
F11.62962962962963
sg131
I0
sg132
(S'dummy'
p6088
S'PI'
p6089
g32
g32
tp6090
sg138
(dp6091
g6050
I0
sg6051
I0
sg6052
I0
sg6053
I0
ssg141
I1
sg143
I0
sg144
(dp6092
S's13'
p6093
(ijoueur
joueur
p6094
(dp6095
g28
I0
sg30
F12.5
sg126
I0
sg33
I0
sg71
I7
sg35
I0
sg37
g6044
sg51
(dp6096
S'SR'
p6097
I0
sS'CT'
p6098
I0
sS'CR'
p6099
I0
sS'ST'
p6100
I0
ssg138
g6091
sg154
S'ED 12'
p6101
sg155
I26
sg61
(dp6102
S'couleur'
p6103
I1
sS'valeur'
p6104
I1
sS'r_n'
p6105
S'n'
p6106
ssg67
I0
sg72
I2
sg73
I0
sg74
I0
sg101
g6070
sg76
I00
sg124
g6044
sg77
F20.5
sg84
I00
sg85
(dp6107
S'SR'
p6108
I0
sS'ST'
p6109
I0
sS'CR'
p6110
I0
sS'CT'
p6111
I0
ssg87
g6066
sg89
I0
sg90
(lp6112
S'dummy'
p6113
aI01
aI00
aI00
asg78
(dp6114
g6108
I0
sg6109
I4
sg6110
I1
sg6111
I14
ssg94
S'Chotc (13)'
p6115
sg96
I9
sg97
I0
sg104
I24
sg100
I220
sg132
g6090
sg105
(dp6116
S'A'
p6117
I0
sS'ME'
p6118
I0
sS'RP2'
p6119
I0
sS'E'
p6120
I0
sS'P'
p6121
I0
sS'RP1'
p6122
I0
sS'JP'
p6123
I0
sS'RP_tot'
p6124
I0
sS'TO'
p6125
I0
sS'PA'
p6126
I0
sS'M'
p6127
I0
sS'R'
p6128
I0
sS'TB'
p6129
I0
sS'PL'
p6130
I0
sS'TA'
p6131
I0
ssg144
(dp6132
sg125
I0
sg31
g32
sg127
I0
sg128
F18.5
sg129
I0
sg130
F11.444444444444445
sg131
I0
sg141
I0
sg98
(dp6133
g6108
I0
sg6109
I0
sg6110
I0
sg6111
I0
ssg193
I0
sg122
(dp6134
S'A'
p6135
I12
sS'ME'
p6136
I15
sS'RP2'
p6137
I9
sS'E'
p6138
I11
sS'P'
p6139
I7
sS'RP1'
p6140
I10
sS'JP'
p6141
I10
sS'RP_tot'
p6142
I11
sS'TO'
p6143
I10
sS'PA'
p6144
I11
sS'M'
p6145
I11
sS'R'
p6146
I10
sS'TB'
p6147
I6
sS'PL'
p6148
I10
sS'TA'
p6149
I7
ssg210
I0
sg211
I0
sg212
I0
sg213
I0
sg75
I0
sg214
I0
sg143
I0
sg93
I0
sg215
I0
sg216
S'S'
p6150
sbsS's12'
p6151
(ijoueur
joueur
p6152
(dp6153
g27
F11.037037037037036
sg28
I0
sg30
F4.0
sg31
g32
sg33
I0
sg71
I6
sg35
I0
sg37
g38
(g39
g40
Ntp6154
Rp6155
(dp6156
g44
I5
sg45
S'**'
p6157
sg47
S'seigneur'
p6158
sbsg51
(dp6159
S'SR'
p6160
I0
sS'ST'
p6161
I0
sS'CR'
p6162
I0
sS'CT'
p6163
I0
ssg138
(dp6164
g6160
I0
sg6161
I0
sg6162
I0
sg6163
I0
ssg60
I0
sg155
I26
sg61
(dp6165
g6103
I1
sg6104
I1
sg6105
g6106
ssg67
I0
sg72
I0
sg73
I0
sg74
I0
sg101
S'BRB'
p6166
sg76
I00
sg124
g6155
sg77
F1.5
sg84
I00
sg85
(dp6167
S'SR'
p6168
I0
sS'CT'
p6169
I0
sS'CR'
p6170
I0
sS'ST'
p6171
I0
ssg87
(dp6172
g6160
I1
sg6161
I15
sg6162
I1
sg6163
I26
ssg89
I0
sg90
(lp6173
g6113
aI01
aI00
aI00
asg78
(dp6174
g6168
I0
sg6169
I13
sg6170
I1
sg6171
I6
ssg94
S'Chotc (12)'
p6175
sg96
I9
sg97
I0
sg104
I24
sg100
I220
sg132
(S'dummy'
p6176
S'PI'
p6177
g32
g32
tp6178
sg105
(dp6179
S'A'
p6180
I12
sS'ME'
p6181
I14
sS'RP2'
p6182
I9
sS'E'
p6183
I11
sS'TO'
p6184
I10
sS'RP1'
p6185
I10
sS'JP'
p6186
I9
sS'RP_tot'
p6187
I12
sS'P'
p6188
I7
sS'PA'
p6189
I11
sS'M'
p6190
I11
sS'R'
p6191
I10
sS'TB'
p6192
I6
sS'PL'
p6193
I10
sS'TA'
p6194
I7
ssg144
(dp6195
S's11'
p6196
(ijoueur
joueur
p6197
(dp6198
g28
I0
sg33
I0
sg35
I0
sg37
g38
(g39
g40
Ntp6199
Rp6200
(dp6201
g44
I5
sg45
S'**'
p6202
sg47
S'seigneur'
p6203
sbsg51
(dp6204
S'SR'
p6205
I0
sS'CT'
p6206
I0
sS'CR'
p6207
I0
sS'ST'
p6208
I0
ssg138
(dp6209
g6205
I0
sg6206
I0
sg6207
I0
sg6208
I0
ssg60
I0
sg67
I0
sg84
I01
sg72
I0
sg73
I0
sg74
I0
sg132
(S'dummy'
p6210
S'PI'
p6211
g32
g32
tp6212
sg76
I01
sg124
g38
(g39
g40
Ntp6213
Rp6214
(dp6215
g44
I4
sg45
S'*'
p6216
sg47
S'heros'
p6217
sbsg78
(dp6218
g6205
I1
sg6206
I13
sg6207
I0
sg6208
I8
ssg98
(dp6219
g6205
I0
sg6206
I0
sg6207
I0
sg6208
I0
ssg85
(dp6220
g6205
I0
sg6206
I0
sg6207
I0
sg6208
I0
ssg87
(dp6221
g6205
I1
sg6206
I13
sg6207
I0
sg6208
I8
ssg89
I0
sg93
I0
sg94
S'Chotc'
p6222
sg96
I9
sg97
I0
sg104
I24
sg100
I88
sg101
S'ED'
p6223
sg105
(dp6224
S'A'
p6225
I10
sS'ME'
p6226
I13
sS'RP2'
p6227
I8
sS'E'
p6228
I11
sS'P'
p6229
I6
sS'RP1'
p6230
I10
sS'JP'
p6231
I7
sS'RP_tot'
p6232
I11
sS'TO'
p6233
I9
sS'PA'
p6234
I10
sS'M'
p6235
I11
sS'R'
p6236
I10
sS'TB'
p6237
I5
sS'PL'
p6238
I11
sS'TA'
p6239
I7
ssg125
I0
sg126
I0
sg127
I0
sg129
I0
sg130
F11.037037037037036
sg131
I0
sg143
I0
sg193
I0
sg317
(dp6240
S'A'
p6241
I10
sS'ME'
p6242
I13
sS'RP2'
p6243
I8
sS'E'
p6244
I11
sS'P'
p6245
I6
sS'RP1'
p6246
I10
sS'JP'
p6247
I7
sS'RP_tot'
p6248
I11
sS'TO'
p6249
I9
sS'PA'
p6250
I10
sS'M'
p6251
I11
sS'R'
p6252
I10
sS'TB'
p6253
I5
sS'PL'
p6254
I11
sS'TA'
p6255
I7
ssg122
g6224
sg210
I0
sg154
g32
sg211
I0
sg212
I0
sg213
I0
sg155
I7
sg214
I0
sg215
I0
sg216
S'S'
p6256
sbssg125
I14
sg126
I0
sg127
I0
sg128
F19.5
sg129
I0
sg130
F11.407407407407407
sg131
I0
sg141
I0
sg98
(dp6257
g6168
I0
sg6169
I0
sg6170
I0
sg6171
I0
ssg193
I0
sg317
(dp6258
S'A'
p6259
I10
sS'ME'
p6260
I13
sS'RP2'
p6261
I8
sS'E'
p6262
I11
sS'P'
p6263
I6
sS'RP1'
p6264
I10
sS'JP'
p6265
I7
sS'RP_tot'
p6266
I11
sS'TO'
p6267
I9
sS'PA'
p6268
I10
sS'M'
p6269
I11
sS'R'
p6270
I10
sS'TB'
p6271
I5
sS'PL'
p6272
I11
sS'TA'
p6273
I7
ssg122
g6179
sg210
I0
sg154
S'ED 12'
p6274
sg211
I0
sg212
I0
sg213
I0
sg75
I0
sg214
I0
sg143
I0
sg93
I0
sg215
I0
sg216
S'S'
p6275
sbsS's11'
p6276
(ijoueur
joueur
p6277
(dp6278
g28
I0
sg30
F3.5
sg33
I0
sg71
I4
sg35
I0
sg37
g38
(g39
g40
Ntp6279
Rp6280
(dp6281
g44
I5
sg45
S'**'
p6282
sg47
S'seigneur'
p6283
sbsg51
(dp6284
S'SR'
p6285
I0
sS'CT'
p6286
I0
sS'CR'
p6287
I0
sS'ST'
p6288
I0
ssg138
(dp6289
g6285
I0
sg6286
I0
sg6287
I0
sg6288
I0
ssg60
I0
sg155
I7
sg61
(dp6290
g6103
I1
sg6104
I1
sg6105
g6106
ssg67
I0
sg72
I0
sg73
I0
sg74
I0
sg101
S'ED'
p6291
sg76
I01
sg124
g38
(g39
g40
Ntp6292
Rp6293
(dp6294
g44
I4
sg45
S'*'
p6295
sg47
S'heros'
p6296
sbsg77
F21.5
sg84
I01
sg85
(dp6297
g6285
I0
sg6286
I0
sg6287
I0
sg6288
I0
ssg87
(dp6298
g6285
I1
sg6286
I13
sg6287
I0
sg6288
I8
ssg89
I0
sg90
(lp6299
g6113
aI01
aI00
aI00
asg93
I0
sg94
S'Chotc (11)'
p6300
sg96
I9
sg97
I0
sg104
I24
sg100
I88
sg132
(S'dummy'
p6301
S'PI'
p6302
g32
g32
tp6303
sg78
(dp6304
g6285
I1
sg6286
I13
sg6287
I0
sg6288
I8
ssg105
(dp6305
S'A'
p6306
I10
sS'ME'
p6307
I13
sS'RP2'
p6308
I8
sS'E'
p6309
I11
sS'P'
p6310
I6
sS'RP1'
p6311
I10
sS'JP'
p6312
I7
sS'RP_tot'
p6313
I11
sS'TO'
p6314
I9
sS'PA'
p6315
I10
sS'M'
p6316
I11
sS'R'
p6317
I10
sS'TB'
p6318
I5
sS'PL'
p6319
I11
sS'TA'
p6320
I7
ssg125
I0
sg126
I0
sg127
I0
sg128
F21.5
sg129
I0
sg130
F11.037037037037036
sg131
I0
sg141
I0
sg98
(dp6321
g6285
I0
sg6286
I0
sg6287
I0
sg6288
I0
ssg193
I0
sg317
(dp6322
S'A'
p6323
I10
sS'ME'
p6324
I13
sS'RP2'
p6325
I8
sS'E'
p6326
I11
sS'P'
p6327
I6
sS'RP1'
p6328
I10
sS'JP'
p6329
I7
sS'RP_tot'
p6330
I11
sS'TO'
p6331
I9
sS'PA'
p6332
I10
sS'M'
p6333
I11
sS'R'
p6334
I10
sS'TB'
p6335
I5
sS'PL'
p6336
I11
sS'TA'
p6337
I7
ssg122
g6305
sg210
I0
sg154
g32
sg211
I0
sg212
I0
sg213
I0
sg75
I0
sg214
I0
sg143
I0
sg215
I0
sg216
S'S'
p6338
sbssg193
I1
sg317
(dp6339
S'A'
p6340
I10
sS'ME'
p6341
I13
sS'RP2'
p6342
I8
sS'E'
p6343
I11
sS'P'
p6344
I6
sS'RP1'
p6345
I10
sS'JP'
p6346
I7
sS'RP_tot'
p6347
I11
sS'TO'
p6348
I9
sS'PA'
p6349
I10
sS'M'
p6350
I11
sS'R'
p6351
I10
sS'TB'
p6352
I5
sS'PL'
p6353
I11
sS'TA'
p6354
I7
ssg210
I0
sg433
(dp6355
sg211
I0
sg154
g6101
sg212
I0
sg213
I0
sg155
I26
sg214
I2
sg215
I0
sg216
g6150
sbsS'n2'
p6356
g760
sS'n3'
p6357
g2257
sS'n4'
p6358
g1086
sS'n5'
p6359
g2070
sS'n6'
p6360
g2920
sS'n7'
p6361
(ijoueur
joueur
p6362
(dp6363
g27
F11.078947368421053
sg28
I0
sg29
F11.078947368421053
sg30
F8.0
sg31
g32
sg33
I0
sg34
F223.08877713636244
sg35
I0
sg36
I0
sg37
g38
(g39
g40
Ntp6364
Rp6365
(dp6366
g44
I4
sg45
S'*'
p6367
sg47
S'heros'
p6368
sbsg49
(dp6369
sg51
(dp6370
S'SR'
p6371
I0
sS'CT'
p6372
I0
sS'CR'
p6373
I1
sS'ST'
p6374
I0
ssg57
F11.052631578947368
sg58
I0
sg2270
I10
sg60
I0
sg61
(dp6375
g1752
I2
sg1753
I11
sg1754
g1755
ssg67
I0
sg68
I0
sg69
I0
sg70
I00
sg71
I5
sg72
I0
sg73
I0
sg74
I0
sg75
I2
sg76
I00
sg77
F16.0
sg78
(dp6376
g1757
I0
sg1758
I0
sg1759
I0
sg1760
I0
ssg84
I00
sg85
(dp6377
g1757
I0
sg1758
I0
sg1759
I0
sg1760
I0
ssg87
(dp6378
g6371
I0
sg6372
I33
sg6373
I9
sg6374
I22
ssg89
I0
sg90
(lp6379
g1765
aI01
aI01
aI00
asg93
I0
sg94
S'Roets'
p6380
sg96
I4
sg97
I0
sg104
I14
sg100
I200
sg101
g1767
sg103
I00
sg105
(dp6381
S'A'
p6382
I8
sS'ME'
p6383
I10
sS'RP2'
p6384
I8
sS'E'
p6385
I11
sS'TO'
p6386
I12
sS'RP1'
p6387
I7
sS'JP'
p6388
I4
sS'RP_tot'
p6389
I9
sS'P'
p6390
I9
sS'PA'
p6391
I9
sS'M'
p6392
I10
sS'R'
p6393
I10
sS'TB'
p6394
I5
sS'PL'
p6395
I15
sS'TA'
p6396
I5
ssg122
(dp6397
g6382
I8
sg6383
I10
sg6384
I8
sg6385
I11
sg6390
I9
sg6387
I7
sg6388
I4
sg6389
I9
sg6386
I12
sg6391
I9
sg6392
I10
sg6393
I10
sg6394
I5
sg6395
I15
sg6396
I5
ssg124
g38
(g39
g40
Ntp6398
Rp6399
(dp6400
g44
I4
sg45
g6367
sg47
g6368
sbsg125
I0
sg126
I0
sg127
I0
sg128
I0
sg129
I0
sg130
F10.973684210526315
sg131
I0
sg132
(S'dummy'
p6401
S'TL'
p6402
S'DL'
p6403
g32
tp6404
sg138
(dp6405
g6371
I0
sg6372
I0
sg6373
I0
sg6374
I0
ssg140
F223.08877713636244
sg141
I-1
sg142
I0
sg98
(dp6406
g1757
I0
sg1758
I0
sg1759
I0
sg1760
I0
ssg144
(dp6407
S's13'
p6408
(ijoueur
joueur
p6409
(dp6410
g28
I0
sg30
F8.0
sg126
I0
sg33
I0
sg71
I5
sg35
I0
sg37
g6365
sg51
(dp6411
S'SR'
p6412
I0
sS'ST'
p6413
I0
sS'CR'
p6414
I0
sS'CT'
p6415
I0
ssg138
g6405
sg75
I0
sg154
S'TA 14'
p6416
sg61
(dp6417
g1805
I1
sg1806
I1
sg1807
g1808
ssg67
I0
sg72
I0
sg73
I0
sg74
I0
sg132
g6404
sg76
I00
sg124
g6399
sg77
F1.0
sg84
I00
sg85
(dp6418
S'SR'
p6419
I0
sS'ST'
p6420
I0
sS'CR'
p6421
I0
sS'CT'
p6422
I0
ssg87
g6378
sg89
I0
sg90
(lp6423
g1815
aI01
aI01
aI00
asg78
(dp6424
g6419
I0
sg6420
I6
sg6421
I9
sg6422
I5
ssg94
S'Roets (13)'
p6425
sg96
I4
sg97
I0
sg104
I14
sg100
I200
sg101
S'TA'
p6426
sg105
(dp6427
S'A'
p6428
I0
sS'ME'
p6429
I0
sS'RP2'
p6430
I0
sS'E'
p6431
I0
sS'TO'
p6432
I0
sS'RP1'
p6433
I0
sS'JP'
p6434
I0
sS'RP_tot'
p6435
I0
sS'P'
p6436
I0
sS'PA'
p6437
I0
sS'M'
p6438
I0
sS'R'
p6439
I0
sS'TB'
p6440
I0
sS'PL'
p6441
I0
sS'TA'
p6442
I0
ssg144
(dp6443
sg125
I0
sg31
g32
sg127
I0
sg128
F16.0
sg129
I0
sg130
F11.052631578947368
sg131
I0
sg141
I0
sg98
(dp6444
g6419
I0
sg6420
I0
sg6421
I1
sg6422
I0
ssg193
I0
sg122
(dp6445
g1837
I9
sg1838
I10
sg1839
I8
sg1840
I11
sg1841
I12
sg1842
I7
sg1843
I4
sg1844
I9
sg1845
I8
sg1846
I9
sg1847
I10
sg1848
I10
sg1849
I5
sg1850
I15
sg1851
I5
ssg210
I0
sg211
I0
sg212
I0
sg213
I0
sg155
I37
sg214
I0
sg143
I0
sg93
I0
sg215
I0
sg216
S'S'
p6446
sbsS's12'
p6447
(ijoueur
joueur
p6448
(dp6449
g27
F11.078947368421053
sg28
I0
sg30
F5.0
sg31
g32
sg33
I0
sg71
I4
sg35
I0
sg37
g38
(g39
g40
Ntp6450
Rp6451
(dp6452
g44
I4
sg45
S'*'
p6453
sg47
S'heros'
p6454
sbsg51
(dp6455
S'SR'
p6456
I0
sS'CT'
p6457
I0
sS'CR'
p6458
I0
sS'ST'
p6459
I0
ssg138
(dp6460
g6456
I0
sg6457
I0
sg6458
I0
sg6459
I0
ssg75
I0
sg60
I0
sg61
(dp6461
g1805
I1
sg1806
I1
sg1807
g1808
ssg67
I0
sg68
I0
sg69
I0
sg72
I1
sg73
I0
sg74
I0
sg132
(S'dummy'
p6462
S'TL'
p6463
S'DL'
p6464
g32
tp6465
sg76
I00
sg77
F0.0
sg78
(dp6466
S'SR'
p6467
I0
sS'CT'
p6468
I13
sS'CR'
p6469
I0
sS'ST'
p6470
I6
ssg84
I00
sg85
(dp6471
g6467
I0
sg6468
I0
sg6469
I0
sg6470
I0
ssg87
(dp6472
g6456
I0
sg6457
I28
sg6458
I0
sg6459
I16
ssg89
I0
sg90
(lp6473
g1815
aI01
aI01
aI00
asg93
I0
sg94
S'Roets (12)'
p6474
sg96
I4
sg97
I0
sg104
I14
sg100
I70
sg101
S'TA'
p6475
sg105
(dp6476
S'A'
p6477
I10
sS'ME'
p6478
I10
sS'RP2'
p6479
I8
sS'E'
p6480
I11
sS'P'
p6481
I8
sS'RP1'
p6482
I7
sS'JP'
p6483
I4
sS'RP_tot'
p6484
I8
sS'TO'
p6485
I12
sS'PA'
p6486
I9
sS'M'
p6487
I11
sS'R'
p6488
I10
sS'TB'
p6489
I5
sS'PL'
p6490
I15
sS'TA'
p6491
I5
ssg124
g38
(g39
g40
Ntp6492
Rp6493
(dp6494
g44
I4
sg45
g6453
sg47
g6454
sbsg125
I11
sg126
I0
sg127
I0
sg128
F19.0
sg129
I0
sg130
F11.078947368421053
sg131
I0
sg141
I0
sg142
I0
sg98
(dp6495
g6467
I0
sg6468
I0
sg6469
I0
sg6470
I0
ssg144
(dp6496
S's11'
p6497
(ijoueur
joueur
p6498
(dp6499
g28
I0
sg33
I0
sg35
I0
sg37
g38
(g39
g40
Ntp6500
Rp6501
(dp6502
g44
I4
sg45
S'*'
p6503
sg47
S'heros'
p6504
sbsg51
(dp6505
S'SR'
p6506
I0
sS'CT'
p6507
I0
sS'CR'
p6508
I0
sS'ST'
p6509
I0
ssg138
(dp6510
g6506
I0
sg6507
I0
sg6508
I0
sg6509
I0
ssg60
I0
sg130
F11.078947368421053
sg67
I0
sg68
I0
sg69
I0
sg72
I0
sg73
I0
sg74
I0
sg132
(S'dummy'
p6511
S'TL'
p6512
S'DL'
p6513
g32
tp6514
sg76
I01
sg124
g38
(g39
g40
Ntp6515
Rp6516
(dp6517
g44
I4
sg45
g6503
sg47
g6504
sbsg78
(dp6518
g6506
I0
sg6507
I15
sg6508
I0
sg6509
I9
ssg84
I01
sg85
(dp6519
g6506
I0
sg6507
I0
sg6508
I0
sg6509
I0
ssg87
(dp6520
g6506
I0
sg6507
I15
sg6508
I0
sg6509
I9
ssg89
I0
sg93
I0
sg94
S'Roets'
p6521
sg96
I4
sg97
I0
sg104
I14
sg100
I70
sg101
S'TA'
p6522
sg105
(dp6523
S'A'
p6524
I10
sS'ME'
p6525
I10
sS'RP2'
p6526
I8
sS'E'
p6527
I11
sS'P'
p6528
I7
sS'RP1'
p6529
I7
sS'JP'
p6530
I4
sS'RP_tot'
p6531
I8
sS'TO'
p6532
I12
sS'PA'
p6533
I9
sS'M'
p6534
I11
sS'R'
p6535
I10
sS'TB'
p6536
I5
sS'PL'
p6537
I15
sS'TA'
p6538
I5
ssg125
I0
sg126
I0
sg127
I0
sg129
I0
sg98
(dp6539
g6506
I0
sg6507
I0
sg6508
I0
sg6509
I0
ssg131
I0
sg142
I0
sg143
I0
sg193
I0
sg317
(dp6540
S'A'
p6541
I10
sS'ME'
p6542
I10
sS'RP2'
p6543
I8
sS'E'
p6544
I11
sS'P'
p6545
I7
sS'RP1'
p6546
I7
sS'JP'
p6547
I4
sS'RP_tot'
p6548
I8
sS'TO'
p6549
I12
sS'PA'
p6550
I9
sS'M'
p6551
I11
sS'R'
p6552
I10
sS'TB'
p6553
I5
sS'PL'
p6554
I15
sS'TA'
p6555
I5
ssg122
g6523
sg210
I0
sg154
g32
sg211
I0
sg212
I0
sg213
I0
sg155
I7
sg214
I3
sg215
I0
sg216
S'S'
p6556
sbssg193
I4
sg317
(dp6557
S'A'
p6558
I10
sS'ME'
p6559
I10
sS'RP2'
p6560
I8
sS'E'
p6561
I11
sS'P'
p6562
I7
sS'RP1'
p6563
I7
sS'JP'
p6564
I4
sS'RP_tot'
p6565
I8
sS'TO'
p6566
I12
sS'PA'
p6567
I9
sS'M'
p6568
I11
sS'R'
p6569
I10
sS'TB'
p6570
I5
sS'PL'
p6571
I15
sS'TA'
p6572
I5
ssg122
g6476
sg210
I0
sg154
g32
sg211
I0
sg212
I0
sg213
I0
sg155
I40
sg214
I4
sg143
I0
sg215
I4
sg216
S'S'
p6573
sbsS's11'
p6574
(ijoueur
joueur
p6575
(dp6576
g28
I0
sg30
F9.0
sg33
I0
sg71
I2
sg35
I0
sg37
g38
(g39
g40
Ntp6577
Rp6578
(dp6579
g44
I4
sg45
S'*'
p6580
sg47
S'heros'
p6581
sbsg51
(dp6582
S'SR'
p6583
I0
sS'CT'
p6584
I0
sS'CR'
p6585
I0
sS'ST'
p6586
I0
ssg138
(dp6587
g6583
I0
sg6584
I0
sg6585
I0
sg6586
I0
ssg75
I0
sg60
I0
sg61
(dp6588
g1805
I1
sg1806
I1
sg1807
g1808
ssg67
I0
sg68
I0
sg69
I0
sg72
I0
sg73
I0
sg74
I0
sg132
(S'dummy'
p6589
S'TL'
p6590
S'DL'
p6591
g32
tp6592
sg76
I01
sg77
F24.0
sg78
(dp6593
g6583
I0
sg6584
I15
sg6585
I0
sg6586
I9
ssg84
I01
sg85
(dp6594
g6583
I0
sg6584
I0
sg6585
I0
sg6586
I0
ssg87
(dp6595
g6583
I0
sg6584
I15
sg6585
I0
sg6586
I9
ssg89
I0
sg90
(lp6596
g1815
aI01
aI01
aI00
asg93
I0
sg94
S'Roets (11)'
p6597
sg96
I4
sg97
I0
sg104
I14
sg100
I70
sg101
S'TA'
p6598
sg105
(dp6599
S'A'
p6600
I10
sS'ME'
p6601
I10
sS'RP2'
p6602
I8
sS'E'
p6603
I11
sS'P'
p6604
I7
sS'RP1'
p6605
I7
sS'JP'
p6606
I4
sS'RP_tot'
p6607
I8
sS'TO'
p6608
I12
sS'PA'
p6609
I9
sS'M'
p6610
I11
sS'R'
p6611
I10
sS'TB'
p6612
I5
sS'PL'
p6613
I15
sS'TA'
p6614
I5
ssg124
g38
(g39
g40
Ntp6615
Rp6616
(dp6617
g44
I4
sg45
g6580
sg47
g6581
sbsg125
I0
sg126
I0
sg127
I0
sg128
F24.0
sg129
I0
sg130
F11.078947368421053
sg131
I0
sg141
I0
sg142
I0
sg98
(dp6618
g6583
I0
sg6584
I0
sg6585
I0
sg6586
I0
ssg193
I0
sg317
(dp6619
S'A'
p6620
I10
sS'ME'
p6621
I10
sS'RP2'
p6622
I8
sS'E'
p6623
I11
sS'P'
p6624
I7
sS'RP1'
p6625
I7
sS'JP'
p6626
I4
sS'RP_tot'
p6627
I8
sS'TO'
p6628
I12
sS'PA'
p6629
I9
sS'M'
p6630
I11
sS'R'
p6631
I10
sS'TB'
p6632
I5
sS'PL'
p6633
I15
sS'TA'
p6634
I5
ssg122
g6599
sg210
I0
sg154
g32
sg211
I0
sg212
I0
sg213
I0
sg155
I7
sg214
I3
sg143
I0
sg215
I0
sg216
S'S'
p6635
sbssg193
I4
sg317
(dp6636
S'A'
p6637
I10
sS'ME'
p6638
I10
sS'RP2'
p6639
I8
sS'E'
p6640
I11
sS'P'
p6641
I7
sS'RP1'
p6642
I7
sS'JP'
p6643
I4
sS'RP_tot'
p6644
I8
sS'TO'
p6645
I12
sS'PA'
p6646
I9
sS'M'
p6647
I11
sS'R'
p6648
I10
sS'TB'
p6649
I5
sS'PL'
p6650
I15
sS'TA'
p6651
I5
ssg210
I0
sg433
(dp6652
sg211
I0
sg154
g6416
sg212
I0
sg213
I0
sg155
I37
sg214
I4
sg143
I0
sg215
I0
sg216
g6446
sbssS'remplacements'
p6653
(dp6654
g3585
S'n0'
p6655
sg3901
g6655
sg4558
g6655
sg4737
g6655
sg5057
g6655
sg5389
g6655
sg5584
g6655
ssb.