(iclub
compo
p0
(dp1
S'caracs_old'
p2
(dp3
S'A'
p4
F159.5
sS'ME'
p5
F119.0
sS'E'
p6
I223
sS'OplusAV'
p7
F81.0
sS'TO_off'
p8
F106.0
sS'OplusAR'
p9
F117.0
sS'M'
p10
F58.5
sS'JP'
p11
F100.5
sS'OmoinsAR'
p12
F78.0
sS'PA'
p13
F121.0
sS'TO_def'
p14
F97.5
sS'OmoinsAV'
p15
F63.5
sS'R'
p16
F190.0
ssS'totaux_old'
p17
(dp18
S'T2'
p19
F190.5
sS'T3'
p20
F111.5
sS'T1'
p21
F205.375
ssS'roles'
p22
(dp23
S'drop1'
p24
(ijoueur
joueur
p25
(dp26
S'rouges_total'
p27
I0
sS'drops_total'
p28
I13
sS'blessure'
p29
I0
sS'RG_max'
p30
(ijoueur
rang
p31
(dp32
S'type_nb'
p33
I5
sS'rang'
p34
S'**'
p35
sS'type'
p36
S'seigneur'
p37
sbsS'MJ2_total'
p38
(dp39
S'SR'
p40
I0
sS'CT'
p41
I1
sS'CR'
p42
I0
sS'ST'
p43
I0
ssS'MJ3_total'
p44
(dp45
g40
I0
sg41
I0
sg42
I0
sg43
I0
ssS'drop_rates_total'
p46
I0
sS'drop_rates_saison'
p47
I0
sS'essais_saison'
p48
I0
sS'penalite_ratees_saison'
p49
I0
sS'transformations_saison'
p50
I0
sS'postes'
p51
(S'dummy'
p52
S'DO'
p53
S'DM'
p54
S''
p55
tp56
sS'RG'
p57
(ijoueur
rang
p58
(dp59
g33
I5
sg34
S'**'
p60
sg36
g37
sbsS'MJ1'
p61
(dp62
g40
I0
sg41
I0
sg42
I0
sg43
I0
ssS'MJ2'
p63
(dp64
g40
I0
sg41
I1
sg42
I0
sg43
I0
ssS'MJ3'
p65
(dp66
g40
I0
sg41
I0
sg42
I0
sg43
I0
ssS'MJ1_total'
p67
(dp68
g40
I0
sg41
I0
sg42
I0
sg43
I0
ssS'penalites_total'
p69
I142
sS'penalites_saison'
p70
I0
sS'nom'
p71
S'Tenmonael'
p72
sS'C'
p73
I6
sS'transformations_total'
p74
I88
sS'D'
p75
I13
sS'VAL'
p76
I298
sS'club'
p77
S'MDL'
p78
sS'caracs'
p79
(dp80
S'A'
p81
I11
sS'ME'
p82
I3
sS'RP2'
p83
I10
sS'E'
p84
I11
sS'P'
p85
I13
sS'RP1'
p86
I7
sS'JP'
p87
I11
sS'RP_tot'
p88
I10
sS'TO'
p89
I8
sS'PA'
p90
I14
sS'M'
p91
I8
sS'R'
p92
I6
sS'TB'
p93
I9
sS'PL'
p94
I11
sS'TA'
p95
I2
ssS'fatigue'
p96
I3
sS'drop_ratees_total'
p97
I0
sS'blessures_total'
p98
I0
sS'XP'
p99
I0
sS'EV'
p100
F11.242424242424242
sS'penalite_ratees_total'
p101
I0
sS'blessures_saison'
p102
I0
sS'jaunes_total'
p103
I0
sS'caracs_sans_fatigue'
p104
g80
sS'rouges_saison'
p105
I0
sS'anciens_clubs'
p106
S'KHR11'
p107
sS'transformation_ratees_total'
p108
I0
sS'drops_saison'
p109
I0
sS'transformation_ratees_saison'
p110
I0
sS'MS'
p111
I46
sS'essais_total'
p112
I7
sS'jaunes_saison'
p113
I0
sS'ARM'
p114
S'ES'
p115
sbsS'SA_scd'
p116
(ijoueur
joueur
p117
(dp118
g27
I0
sg28
I0
sg29
I0
sg30
(ijoueur
rang
p119
(dp120
g33
I6
sg34
S'***'
p121
sg36
S'personnage'
p122
sbsg38
(dp123
g40
I0
sg41
I0
sg42
I0
sg43
I0
ssg44
(dp124
g40
I0
sg41
I0
sg42
I0
sg43
I0
ssg46
I0
sg47
I0
sg48
I0
sg49
I0
sg50
I0
sg51
(g52
S'TL'
p125
S'N8'
p126
g55
tp127
sg57
(ijoueur
rang
p128
(dp129
g33
I6
sg34
S'***'
p130
sg36
g122
sbsg61
(dp131
g40
I0
sg41
I1
sg42
I0
sg43
I0
ssg63
(dp132
g40
I0
sg41
I0
sg42
I0
sg43
I0
ssg65
(dp133
g40
I0
sg41
I0
sg42
I0
sg43
I0
ssg67
(dp134
g40
I0
sg41
I1
sg42
I0
sg43
I0
ssg69
I0
sg70
I0
sg71
S'Manfred Von Carstein'
p135
sg73
I9
sg74
I0
sg75
I18
sg76
I2354
sg77
g78
sg79
(dp136
g81
I12
sg82
I9
sg83
I10
sg84
I12
sg85
I6
sg86
I10
sg87
I3
sg88
I13
sg89
I10
sg90
I10
sg91
I10
sg92
I12
sg93
I5
sg94
I13
sg95
I7
ssg96
I2
sg97
I0
sg98
I0
sg99
I0
sg100
F11.935483870967742
sg101
I0
sg102
I0
sg103
I0
sg104
g136
sg105
I0
sg106
S'KHR11'
p137
sg108
I0
sg109
I0
sg110
I0
sg111
I160
sg112
I2
sg113
I0
sg114
S'CV'
p138
sbsS'RJL'
p139
(ijoueur
joueur
p140
(dp141
g27
I0
sg28
I4
sg29
I0
sg30
(ijoueur
rang
p142
(dp143
g33
I6
sg34
S'***'
p144
sg36
g122
sbsg38
(dp145
g40
I0
sg41
I0
sg42
I0
sg43
I0
ssg44
(dp146
g40
I0
sg41
I0
sg42
I0
sg43
I0
ssg46
I0
sg47
I0
sg48
I0
sg49
I0
sg50
I0
sg51
(g52
S'DO'
p147
S'CE'
p148
g55
tp149
sg57
(ijoueur
rang
p150
(dp151
g33
I6
sg34
S'***'
p152
sg36
g122
sbsg61
(dp153
g40
I0
sg41
I1
sg42
I0
sg43
I0
ssg63
(dp154
g40
I0
sg41
I0
sg42
I0
sg43
I0
ssg65
(dp155
g40
I0
sg41
I0
sg42
I0
sg43
I0
ssg67
(dp156
g40
I0
sg41
I1
sg42
I0
sg43
I0
ssg69
I0
sg70
I0
sg71
S'Sigvald'
p157
sg73
I9
sg74
I0
sg75
I18
sg76
I377
sg77
g78
sg79
(dp158
g81
I14
sg82
I6
sg83
I12
sg84
I14
sg85
I13
sg86
I11
sg87
I10
sg88
I16
sg89
I8
sg90
I14
sg91
I9
sg92
I6
sg93
I7
sg94
I12
sg95
I7
ssg96
I3
sg97
I0
sg98
I0
sg99
I0
sg100
F12.484848484848484
sg101
I0
sg102
I0
sg103
I0
sg104
g158
sg105
I0
sg106
g55
sg108
I0
sg109
I1
sg110
I0
sg111
I49
sg112
I2
sg113
I0
sg114
S'CHS'
p159
sbsS'cap'
p160
g140
sS'B4'
p161
g25
sS'RJC'
p162
g25
sS'B1'
p163
(ijoueur
joueur
p164
(dp165
g27
I0
sg28
I1
sg29
I0
sg30
(ijoueur
rang
p166
(dp167
g33
I4
sg34
S'x'
p168
sg36
S'heros'
p169
sbsg38
(dp170
g40
I0
sg41
I0
sg42
I0
sg43
I0
ssg44
(dp171
g40
I0
sg41
I0
sg42
I0
sg43
I0
ssg46
I0
sg47
I0
sg48
I0
sg49
I0
sg50
I1
sg51
(g52
S'C1'
p172
S'AR'
p173
S'DO'
p174
tp175
sg57
(ijoueur
rang
p176
(dp177
g33
I4
sg34
g168
sg36
g169
sbsg61
(dp178
g40
I0
sg41
I1
sg42
I0
sg43
I0
ssg63
(dp179
g40
I0
sg41
I0
sg42
I0
sg43
I0
ssg65
(dp180
g40
I0
sg41
I0
sg42
I0
sg43
I0
ssg67
(dp181
g40
I0
sg41
I1
sg42
I0
sg43
I0
ssg69
I27
sg70
I4
sg71
S'Rozengh'
p182
sg73
I1
sg74
I33
sg75
I11
sg76
I140
sg77
g78
sg79
(dp183
g81
I9
sg82
I6
sg83
I10
sg84
I13
sg85
I9
sg86
I9
sg87
I8
sg88
I12
sg89
I3
sg90
I8
sg91
I13
sg92
I7
sg93
I10
sg94
I10
sg95
I7
ssg96
I4
sg97
I0
sg98
I0
sg99
I0
sg100
F10.166666666666666
sg101
I0
sg102
I0
sg103
I0
sg104
g183
sg105
I0
sg106
g55
sg108
I0
sg109
I0
sg110
I0
sg111
I15
sg112
I10
sg113
I0
sg114
S'OG'
p184
sbsS'B2'
p185
g164
sS'B3'
p186
g25
sS'SA_pcp2'
p187
(ijoueur
joueur
p188
(dp189
g27
I0
sg28
I0
sg29
I0
sg30
(ijoueur
rang
p190
(dp191
g33
I5
sg34
S'**'
p192
sg36
g37
sbsg38
(dp193
g40
I0
sg41
I1
sg42
I0
sg43
I0
ssg44
(dp194
g40
I0
sg41
I0
sg42
I0
sg43
I0
ssg46
I0
sg47
I0
sg48
I0
sg49
I0
sg50
I0
sg51
(g52
S'DL'
p195
S'PI'
p196
g55
tp197
sg57
(ijoueur
rang
p198
(dp199
g33
I5
sg34
S'**'
p200
sg36
g37
sbsg61
(dp201
g40
I0
sg41
I0
sg42
I0
sg43
I0
ssg63
(dp202
g40
I0
sg41
I1
sg42
I0
sg43
I0
ssg65
(dp203
g40
I0
sg41
I0
sg42
I0
sg43
I0
ssg67
(dp204
g40
I0
sg41
I0
sg42
I0
sg43
I0
ssg69
I0
sg70
I0
sg71
S'Petod'
p205
sg73
I6
sg74
I0
sg75
I15
sg76
I200
sg77
g78
sg79
(dp206
g81
I10
sg82
I16
sg83
I8
sg84
I10
sg85
I4
sg86
I14
sg87
I3
sg88
I15
sg89
I11
sg90
I7
sg91
I9
sg92
I11
sg93
I3
sg94
I11
sg95
I7
ssg96
I4
sg97
I0
sg98
I0
sg99
I0
sg100
F11.88888888888889
sg101
I0
sg102
I0
sg103
I0
sg104
g206
sg105
I0
sg106
g55
sg108
I0
sg109
I0
sg110
I0
sg111
I38
sg112
I14
sg113
I0
sg114
S'OG'
p207
sbsS'SA_pcp1'
p208
(ijoueur
joueur
p209
(dp210
g27
I0
sg28
I4
sg29
I0
sg30
(ijoueur
rang
p211
(dp212
g33
I5
sg34
S'**'
p213
sg36
g37
sbsg38
(dp214
g40
I0
sg41
I0
sg42
I0
sg43
I0
ssg44
(dp215
g40
I0
sg41
I0
sg42
I0
sg43
I0
ssg46
I0
sg47
I0
sg48
I0
sg49
I0
sg50
I0
sg51
(g52
S'DL'
p216
g55
g55
tp217
sg57
(ijoueur
rang
p218
(dp219
g33
I5
sg34
S'**'
p220
sg36
g37
sbsg61
(dp221
g40
I0
sg41
I1
sg42
I0
sg43
I0
ssg63
(dp222
g40
I0
sg41
I0
sg42
I0
sg43
I0
ssg65
(dp223
g40
I0
sg41
I0
sg42
I0
sg43
I0
ssg67
(dp224
g40
I0
sg41
I1
sg42
I0
sg43
I0
ssg69
I0
sg70
I0
sg71
S'Jexath'
p225
sg73
I8
sg74
I0
sg75
I18
sg76
I284
sg77
g78
sg79
(dp226
g81
I12
sg82
I12
sg83
I9
sg84
I12
sg85
I10
sg86
I8
sg87
I9
sg88
I10
sg89
I14
sg90
I12
sg91
I8
sg92
I8
sg93
I6
sg94
I10
sg95
I5
ssg96
I6
sg97
I0
sg98
I0
sg99
I0
sg100
F11.0
sg101
I0
sg102
I0
sg103
I0
sg104
g226
sg105
I0
sg106
g55
sg108
I0
sg109
I0
sg110
I0
sg111
I18
sg112
I3
sg113
I0
sg114
S'ES'
p227
sbsS'drop3'
p228
(ijoueur
joueur
p229
(dp230
g27
I0
sg28
I7
sg29
I0
sg30
(ijoueur
rang
p231
(dp232
g33
I5
sg34
S'**'
p233
sg36
g37
sbsg38
(dp234
g40
I0
sg41
I0
sg42
I0
sg43
I0
ssg44
(dp235
g40
I0
sg41
I0
sg42
I0
sg43
I0
ssg46
I0
sg47
I0
sg48
I1
sg49
I0
sg50
I0
sg51
(g52
S'AR'
p236
S'CE'
p237
S'AI'
p238
tp239
sg57
(ijoueur
rang
p240
(dp241
g33
I5
sg34
S'**'
p242
sg36
g37
sbsg61
(dp243
g40
I0
sg41
I1
sg42
I0
sg43
I0
ssg63
(dp244
g40
I0
sg41
I0
sg42
I0
sg43
I0
ssg65
(dp245
g40
I0
sg41
I0
sg42
I0
sg43
I0
ssg67
(dp246
g40
I0
sg41
I1
sg42
I0
sg43
I0
ssg69
I13
sg70
I0
sg71
S'Lumean'
p247
sg73
I7
sg74
I15
sg75
I19
sg76
I612
sg77
g78
sg79
(dp248
g81
I14
sg82
I3
sg83
I13
sg84
I10
sg85
I9
sg86
I7
sg87
I10
sg88
I13
sg89
I8
sg90
I14
sg91
I11
sg92
I11
sg93
I9
sg94
I11
sg95
I7
ssg96
I5
sg97
I0
sg98
I0
sg99
I0
sg100
F11.818181818181818
sg101
I0
sg102
I0
sg103
I0
sg104
g248
sg105
I0
sg106
S'MRB10'
p249
sg108
I0
sg109
I0
sg110
I0
sg111
I43
sg112
I19
sg113
I0
sg114
S'HE'
p250
sbsS'SA_remp1'
p251
(ijoueur
joueur
p252
(dp253
g27
I0
sg28
I0
sg29
I0
sg30
(ijoueur
rang
p254
(dp255
g33
I5
sg34
S'**'
p256
sg36
g37
sbsg38
(dp257
g40
I0
sg41
I0
sg42
I0
sg43
I0
ssg44
(dp258
g40
I0
sg41
I0
sg42
I0
sg43
I0
ssg46
I0
sg47
I0
sg48
I0
sg49
I0
sg50
I0
sg51
(g52
S'DL'
p259
S'PI'
p260
g55
tp261
sg57
(ijoueur
rang
p262
(dp263
g33
I5
sg34
S'**'
p264
sg36
g37
sbsg61
(dp265
g40
I0
sg41
I1
sg42
I0
sg43
I0
ssg63
(dp266
g40
I0
sg41
I0
sg42
I0
sg43
I0
ssg65
(dp267
g40
I0
sg41
I0
sg42
I0
sg43
I0
ssg67
(dp268
g40
I0
sg41
I1
sg42
I0
sg43
I0
ssg69
I0
sg70
I0
sg71
S'Fregort'
p269
sg73
I2
sg74
I0
sg75
I12
sg76
I200
sg77
g78
sg79
(dp270
g81
I9
sg82
I13
sg83
I7
sg84
I11
sg85
I6
sg86
I12
sg87
I5
sg88
I12
sg89
I10
sg90
I7
sg91
I8
sg92
I10
sg93
I5
sg94
I10
sg95
I8
ssg96
I2
sg97
I0
sg98
I0
sg99
I0
sg100
F10.62962962962963
sg101
I0
sg102
I0
sg103
I0
sg104
g270
sg105
I0
sg106
g55
sg108
I0
sg109
I0
sg110
I0
sg111
I20
sg112
I7
sg113
I0
sg114
S'OG'
p271
sbsS'drop2'
p272
g25
sS'SA_remp2'
p273
(ijoueur
joueur
p274
(dp275
g27
I0
sg28
I0
sg29
I0
sg30
(ijoueur
rang
p276
(dp277
g33
I5
sg34
S'**'
p278
sg36
g37
sbsg38
(dp279
g40
I0
sg41
I0
sg42
I0
sg43
I0
ssg44
(dp280
g40
I0
sg41
I0
sg42
I0
sg43
I0
ssg46
I0
sg47
I0
sg48
I0
sg49
I0
sg50
I0
sg51
(g52
S'TL'
p281
g55
g55
tp282
sg57
(ijoueur
rang
p283
(dp284
g33
I5
sg34
S'**'
p285
sg36
g37
sbsg61
(dp286
g40
I0
sg41
I0
sg42
I1
sg43
I0
ssg63
(dp287
g40
I0
sg41
I0
sg42
I0
sg43
I0
ssg65
(dp288
g40
I0
sg41
I0
sg42
I0
sg43
I0
ssg67
(dp289
g40
I0
sg41
I0
sg42
I1
sg43
I0
ssg69
I0
sg70
I0
sg71
S'Vkohar'
p290
sg73
I-1
sg74
I0
sg75
I12
sg76
I100
sg77
g78
sg79
(dp291
g81
I10
sg82
I11
sg83
I8
sg84
I12
sg85
I4
sg86
I9
sg87
I3
sg88
I10
sg89
I10
sg90
I9
sg91
I9
sg92
I8
sg93
I5
sg94
I12
sg95
I4
ssg96
I2
sg97
I0
sg98
I0
sg99
I0
sg100
F10.03225806451613
sg101
I0
sg102
I0
sg103
I0
sg104
g291
sg105
I0
sg106
S'MRB9'
p292
sg108
I0
sg109
I0
sg110
I0
sg111
I13
sg112
I11
sg113
I0
sg114
S'HB'
p293
sbssS'totaux'
p294
(dp295
g19
I0
sg20
I0
sg21
I0
ssS'_compo_defaut_fatigue'
p296
Nsg79
(dp297
g4
I0
sg5
I0
sg6
I0
sg7
I0
sg8
I0
sg9
I0
sg10
I0
sg11
I0
sg12
I0
sg13
I0
sg14
I0
sg15
I0
sg16
I0
ssS'joueurs'
p298
(dp299
S'n12'
p300
g164
sS'n13'
p301
(ijoueur
joueur
p302
(dp303
g27
I0
sg28
I4
sg29
I0
sg30
(ijoueur
rang
p304
(dp305
g33
I6
sg34
S'***'
p306
sg36
g122
sbsg38
(dp307
g40
I0
sg41
I0
sg42
I0
sg43
I0
ssg44
(dp308
g40
I0
sg41
I0
sg42
I0
sg43
I0
ssg46
I0
sg47
I0
sg48
I0
sg49
I0
sg50
I0
sg51
(g52
S'C1'
p309
S'AR'
p310
S'AI'
p311
tp312
sg57
(ijoueur
rang
p313
(dp314
g33
I6
sg34
S'***'
p315
sg36
g122
sbsg61
(dp316
g40
I0
sg41
I1
sg42
I0
sg43
I0
ssg63
(dp317
g40
I0
sg41
I0
sg42
I0
sg43
I0
ssg65
(dp318
g40
I0
sg41
I0
sg42
I0
sg43
I0
ssg67
(dp319
g40
I0
sg41
I1
sg42
I0
sg43
I0
ssg69
I0
sg70
I0
sg71
S'Orion'
p320
sg73
I5
sg74
I0
sg75
I17
sg76
I886
sg77
g78
sg79
(dp321
g81
I12
sg82
I7
sg83
I8
sg84
I10
sg85
I8
sg86
I12
sg87
I9
sg88
I13
sg89
I9
sg90
I14
sg91
I12
sg92
I11
sg93
I6
sg94
I10
sg95
I5
ssg96
I4
sg97
I0
sg98
I0
sg99
I0
sg100
F11.266666666666667
sg101
I0
sg102
I0
sg103
I0
sg104
g321
sg105
I0
sg106
S'KAK8'
p322
sg108
I0
sg109
I0
sg110
I0
sg111
I327
sg112
I18
sg113
I0
sg114
S'ES'
p323
sbsS'n10'
p324
g140
sS'n11'
p325
(ijoueur
joueur
p326
(dp327
g27
I0
sg28
I0
sg29
I0
sg30
(ijoueur
rang
p328
(dp329
g33
I4
sg34
S'*'
p330
sg36
g169
sbsg38
(dp331
g40
I0
sg41
I0
sg42
I0
sg43
I0
ssg44
(dp332
g40
I0
sg41
I0
sg42
I0
sg43
I0
ssg46
I0
sg47
I0
sg48
I0
sg49
I0
sg50
I0
sg51
(g52
S'AI'
p333
S'AR'
p334
S'CE'
p335
tp336
sg57
(ijoueur
rang
p337
(dp338
g33
I5
sg34
S'**'
p339
sg36
g37
sbsg61
(dp340
g40
I0
sg41
I1
sg42
I0
sg43
I0
ssg63
(dp341
g40
I0
sg41
I0
sg42
I0
sg43
I0
ssg65
(dp342
g40
I0
sg41
I0
sg42
I0
sg43
I0
ssg67
(dp343
g40
I0
sg41
I1
sg42
I0
sg43
I0
ssg69
I0
sg70
I0
sg71
S'Tralov'
p344
sg73
I9
sg74
I0
sg75
I22
sg76
I768
sg77
g78
sg79
(dp345
g81
I12
sg82
I5
sg83
I7
sg84
I12
sg85
I9
sg86
I13
sg87
I9
sg88
I13
sg89
I11
sg90
I12
sg91
I8
sg92
I9
sg93
I6
sg94
I14
sg95
I6
ssg96
I3
sg97
I0
sg98
I0
sg99
I0
sg100
F11.516129032258064
sg101
I0
sg102
I0
sg103
I0
sg104
g345
sg105
I0
sg106
S'PRG11'
p346
sg108
I0
sg109
I0
sg110
I0
sg111
I40
sg112
I0
sg113
I0
sg114
S'CHS'
p347
sbsS'n16'
p348
(ijoueur
joueur
p349
(dp350
g27
I0
sg28
I0
sg29
I0
sg30
(ijoueur
rang
p351
(dp352
g33
I2
sg34
S'^^'
p353
sg36
S'special'
p354
sbsg38
(dp355
g40
I0
sg41
I0
sg42
I0
sg43
I0
ssg44
(dp356
g40
I0
sg41
I0
sg42
I0
sg43
I0
ssg46
I0
sg47
I0
sg48
I0
sg49
I0
sg50
I0
sg51
(g52
S'TA'
p357
g55
g55
tp358
sg57
(ijoueur
rang
p359
(dp360
g33
I2
sg34
S'^^'
p361
sg36
g354
sbsg61
(dp362
g40
I0
sg41
I0
sg42
I0
sg43
I0
ssg63
(dp363
g40
I0
sg41
I0
sg42
I0
sg43
I0
ssg65
(dp364
g40
I0
sg41
I0
sg42
I0
sg43
I0
ssg67
(dp365
g40
I0
sg41
I0
sg42
I0
sg43
I0
ssg69
I0
sg70
I0
sg71
S'Detoyr'
p366
sg73
I5
sg74
I0
sg75
I13
sg76
I55
sg77
g78
sg79
(dp367
g81
I8
sg82
I6
sg83
I6
sg84
I9
sg85
I4
sg86
I6
sg87
I2
sg88
I6
sg89
I8
sg90
I9
sg91
I9
sg92
I7
sg93
I3
sg94
I8
sg95
I10
ssg96
I0
sg97
I0
sg98
I0
sg99
I0
sg100
F7.793103448275862
sg101
I0
sg102
I0
sg103
I0
sg104
g367
sg105
I0
sg106
g55
sg108
I0
sg109
I0
sg110
I0
sg111
I6
sg112
I0
sg113
I0
sg114
S'B'
p368
sbsS'n17'
p369
(ijoueur
joueur
p370
(dp371
g27
I0
sg28
I0
sg29
I0
sg30
(ijoueur
rang
p372
(dp373
g33
I1
sg34
S'^'
p374
sg36
S'base'
p375
sbsg38
(dp376
g40
I0
sg41
I0
sg42
I0
sg43
I0
ssg44
(dp377
g40
I0
sg41
I0
sg42
I0
sg43
I0
ssg46
I0
sg47
I0
sg48
I0
sg49
I0
sg50
I0
sg51
(g52
S'PI'
p378
g55
g55
tp379
sg57
(ijoueur
rang
p380
(dp381
g33
I1
sg34
g374
sg36
g375
sbsg61
(dp382
g40
I0
sg41
I0
sg42
I0
sg43
I0
ssg63
(dp383
g40
I0
sg41
I0
sg42
I0
sg43
I0
ssg65
(dp384
g40
I0
sg41
I0
sg42
I0
sg43
I0
ssg67
(dp385
g40
I0
sg41
I0
sg42
I0
sg43
I0
ssg69
I0
sg70
I0
sg71
S'Van Vhyr'
p386
sg73
I3
sg74
I0
sg75
I10
sg76
I10
sg77
g78
sg79
(dp387
g81
I9
sg82
I9
sg83
I8
sg84
I8
sg85
I1
sg86
I9
sg87
I2
sg88
I10
sg89
I3
sg90
I6
sg91
I7
sg92
I9
sg93
I1
sg94
I9
sg95
I7
ssg96
I0
sg97
I0
sg98
I0
sg99
I0
sg100
F8.814814814814815
sg101
I0
sg102
I0
sg103
I0
sg104
g387
sg105
I0
sg106
S'DKF9'
p388
sg108
I0
sg109
I0
sg110
I0
sg111
I2
sg112
I1
sg113
I0
sg114
S'CV'
p389
sbsS'n14'
p390
(ijoueur
joueur
p391
(dp392
g27
I0
sg28
I0
sg29
I0
sg30
(ijoueur
rang
p393
(dp394
g33
I3
sg34
S'^^^'
p395
sg36
S'rare'
p396
sbsg38
(dp397
g40
I0
sg41
I1
sg42
I0
sg43
I0
ssg44
(dp398
g40
I0
sg41
I0
sg42
I0
sg43
I0
ssg46
I0
sg47
I0
sg48
I0
sg49
I0
sg50
I0
sg51
(g52
S'AR'
p399
S'AI'
p400
S'CE'
p401
tp402
sg57
(ijoueur
rang
p403
(dp404
g33
I3
sg34
S'^^^'
p405
sg36
g396
sbsg61
(dp406
g40
I0
sg41
I0
sg42
I0
sg43
I0
ssg63
(dp407
g40
I0
sg41
I1
sg42
I0
sg43
I0
ssg65
(dp408
g40
I0
sg41
I0
sg42
I0
sg43
I0
ssg67
(dp409
g40
I0
sg41
I0
sg42
I0
sg43
I0
ssg69
I0
sg70
I0
sg71
S'Mentre'
p410
sg73
I8
sg74
I0
sg75
I18
sg76
I136
sg77
g78
sg79
(dp411
g81
I10
sg82
I7
sg83
I11
sg84
I10
sg85
I7
sg86
I10
sg87
I10
sg88
I14
sg89
I2
sg90
I7
sg91
I12
sg92
I9
sg93
I7
sg94
I12
sg95
I5
ssg96
I3
sg97
I0
sg98
I0
sg99
I0
sg100
F10.727272727272727
sg101
I0
sg102
I0
sg103
I0
sg104
g411
sg105
I0
sg106
g55
sg108
I0
sg109
I0
sg110
I0
sg111
I18
sg112
I5
sg113
I0
sg114
S'OG'
p412
sbsS'n15'
p413
g229
sS'n18'
p414
(ijoueur
joueur
p415
(dp416
g27
I0
sg28
I0
sg29
I0
sg30
(ijoueur
rang
p417
(dp418
g33
I2
sg34
S'<<'
p419
sg36
g354
sbsg38
(dp420
g40
I0
sg41
I0
sg42
I0
sg43
I0
ssg44
(dp421
g40
I0
sg41
I0
sg42
I0
sg43
I0
ssg46
I0
sg47
I0
sg48
I0
sg49
I0
sg50
I0
sg51
(g52
S'DL'
p422
S'TL'
p423
g55
tp424
sg57
(ijoueur
rang
p425
(dp426
g33
I2
sg34
S'<<'
p427
sg36
g354
sbsg61
(dp428
g40
I0
sg41
I0
sg42
I0
sg43
I0
ssg63
(dp429
g40
I0
sg41
I0
sg42
I0
sg43
I0
ssg65
(dp430
g40
I0
sg41
I0
sg42
I0
sg43
I0
ssg67
(dp431
g40
I0
sg41
I0
sg42
I0
sg43
I0
ssg69
I0
sg70
I0
sg71
S'Roberdt'
p432
sg73
I1
sg74
I0
sg75
I12
sg76
I34
sg77
g78
sg79
(dp433
g81
I10
sg82
I8
sg83
I6
sg84
I8
sg85
I6
sg86
I6
sg87
I6
sg88
I6
sg89
I8
sg90
I7
sg91
I7
sg92
I9
sg93
I5
sg94
I7
sg95
I4
ssg96
I0
sg97
I0
sg98
I0
sg99
I0
sg100
F7.911764705882353
sg101
I0
sg102
I0
sg103
I0
sg104
g433
sg105
I0
sg106
S'ALT8'
p434
sg108
I0
sg109
I0
sg110
I0
sg111
I4
sg112
I1
sg113
I0
sg114
S'EMP'
p435
sbsS'n19'
p436
g274
sS'n22'
p437
(ijoueur
joueur
p438
(dp439
g27
I0
sg28
I0
sg29
I0
sg30
(ijoueur
rang
p440
(dp441
g33
I4
sg34
g330
sg36
g169
sbsg38
(dp442
g40
I0
sg41
I0
sg42
I0
sg43
I0
ssg44
(dp443
g40
I0
sg41
I0
sg42
I1
sg43
I0
ssg46
I0
sg47
I0
sg48
I0
sg49
I0
sg50
I0
sg51
(g52
S'AR'
p444
S'CE'
p445
S'AI'
p446
tp447
sg57
(ijoueur
rang
p448
(dp449
g33
I4
sg34
g330
sg36
g169
sbsg61
(dp450
g40
I0
sg41
I0
sg42
I0
sg43
I0
ssg63
(dp451
g40
I0
sg41
I0
sg42
I0
sg43
I0
ssg65
(dp452
g40
I0
sg41
I0
sg42
I1
sg43
I0
ssg67
(dp453
g40
I0
sg41
I0
sg42
I0
sg43
I0
ssg69
I2
sg70
I0
sg71
S'Marodard'
p454
sg73
I2
sg74
I1
sg75
I9
sg76
I40
sg77
g78
sg79
(dp455
g81
I9
sg82
I7
sg83
I10
sg84
I10
sg85
I9
sg86
I9
sg87
I8
sg88
I12
sg89
I4
sg90
I8
sg91
I8
sg92
I8
sg93
I8
sg94
I10
sg95
I5
ssg96
I2
sg97
I0
sg98
I0
sg99
I0
sg100
F9.454545454545455
sg101
I0
sg102
I0
sg103
I0
sg104
g455
sg105
I0
sg106
g55
sg108
I0
sg109
I0
sg110
I0
sg111
I5
sg112
I19
sg113
I0
sg114
S'EMP'
p456
sbsS'n21'
p457
(ijoueur
joueur
p458
(dp459
g27
I0
sg28
I0
sg29
I0
sg30
(ijoueur
rang
p460
(dp461
g33
I1
sg34
g374
sg36
g375
sbsg38
(dp462
g40
I0
sg41
I0
sg42
I0
sg43
I0
ssg44
(dp463
g40
I0
sg41
I0
sg42
I0
sg43
I0
ssg46
I0
sg47
I0
sg48
I0
sg49
I0
sg50
I0
sg51
(g52
S'C2'
p464
g55
g55
tp465
sg57
(ijoueur
rang
p466
(dp467
g33
I1
sg34
g374
sg36
g375
sbsg61
(dp468
g40
I0
sg41
I0
sg42
I1
sg43
I0
ssg63
(dp469
g40
I0
sg41
I0
sg42
I0
sg43
I0
ssg65
(dp470
g40
I0
sg41
I0
sg42
I0
sg43
I0
ssg67
(dp471
g40
I0
sg41
I0
sg42
I1
sg43
I0
ssg69
I0
sg70
I0
sg71
S'Hobeled'
p472
sg73
I9
sg74
I0
sg75
I20
sg76
I58
sg77
g78
sg79
(dp473
g81
I7
sg82
I5
sg83
I10
sg84
I11
sg85
I6
sg86
I10
sg87
I8
sg88
I13
sg89
I2
sg90
I9
sg91
I11
sg92
I8
sg93
I6
sg94
I9
sg95
I7
ssg96
I2
sg97
I0
sg98
I0
sg99
I0
sg100
F9.689655172413794
sg101
I0
sg102
I0
sg103
I0
sg104
g473
sg105
I0
sg106
g55
sg108
I0
sg109
I0
sg110
I0
sg111
I6
sg112
I2
sg113
I0
sg114
S'OG'
p474
sbsS'n20'
p475
(ijoueur
joueur
p476
(dp477
g27
I0
sg28
I0
sg29
I0
sg30
(ijoueur
rang
p478
(dp479
g33
I4
sg34
g330
sg36
g169
sbsg38
(dp480
g40
I0
sg41
I0
sg42
I0
sg43
I0
ssg44
(dp481
g40
I0
sg41
I0
sg42
I0
sg43
I0
ssg46
I0
sg47
I0
sg48
I0
sg49
I0
sg50
I0
sg51
(g52
S'DM'
p482
S'AI'
p483
S'CE'
p484
tp485
sg57
(ijoueur
rang
p486
(dp487
g33
I4
sg34
g330
sg36
g169
sbsg61
(dp488
g40
I0
sg41
I0
sg42
I1
sg43
I0
ssg63
(dp489
g40
I0
sg41
I0
sg42
I0
sg43
I0
ssg65
(dp490
g40
I0
sg41
I0
sg42
I0
sg43
I0
ssg67
(dp491
g40
I0
sg41
I0
sg42
I1
sg43
I0
ssg69
I0
sg70
I0
sg71
S'Popolat'
p492
sg73
I6
sg74
I0
sg75
I19
sg76
I130
sg77
g78
sg79
(dp493
g81
I8
sg82
I7
sg83
I8
sg84
I9
sg85
I7
sg86
I10
sg87
I7
sg88
I11
sg89
I3
sg90
I10
sg91
I10
sg92
I11
sg93
I10
sg94
I10
sg95
I4
ssg96
I1
sg97
I0
sg98
I0
sg99
I0
sg100
F9.225806451612904
sg101
I0
sg102
I0
sg103
I0
sg104
g493
sg105
I0
sg106
g55
sg108
I0
sg109
I0
sg110
I0
sg111
I18
sg112
I10
sg113
I0
sg114
S'OG'
p494
sbsS'n8'
p495
(ijoueur
joueur
p496
(dp497
g27
I0
sg28
I0
sg29
I0
sg30
(ijoueur
rang
p498
(dp499
g33
I3
sg34
S'<<<'
p500
sg36
g396
sbsg38
(dp501
g40
I0
sg41
I1
sg42
I0
sg43
I0
ssg44
(dp502
g40
I0
sg41
I0
sg42
I0
sg43
I0
ssg46
I0
sg47
I0
sg48
I0
sg49
I0
sg50
I0
sg51
(g52
S'TL'
p503
S'N8'
p504
g55
tp505
sg57
(ijoueur
rang
p506
(dp507
g33
I3
sg34
S'<<<'
p508
sg36
g396
sbsg61
(dp509
g40
I0
sg41
I0
sg42
I0
sg43
I0
ssg63
(dp510
g40
I0
sg41
I1
sg42
I0
sg43
I0
ssg65
(dp511
g40
I0
sg41
I0
sg42
I0
sg43
I0
ssg67
(dp512
g40
I0
sg41
I0
sg42
I0
sg43
I0
ssg69
I0
sg70
I0
sg71
S'Jgadzarh'
p513
sg73
I7
sg74
I0
sg75
I20
sg76
I104
sg77
g78
sg79
(dp514
g81
I6
sg82
I12
sg83
I8
sg84
I11
sg85
I4
sg86
I12
sg87
I4
sg88
I13
sg89
I6
sg90
I5
sg91
I9
sg92
I12
sg93
I3
sg94
I9
sg95
I7
ssg96
I3
sg97
I0
sg98
I0
sg99
I0
sg100
F10.419354838709678
sg101
I0
sg102
I0
sg103
I0
sg104
g514
sg105
I0
sg106
g55
sg108
I0
sg109
I0
sg110
I0
sg111
I11
sg112
I0
sg113
I0
sg114
S'HB'
p515
sbsS'n9'
p516
g25
sS'n1'
p517
g188
sS'n2'
p518
(ijoueur
joueur
p519
(dp520
g27
I0
sg28
I0
sg29
I0
sg30
(ijoueur
rang
p521
(dp522
g33
I4
sg34
g330
sg36
g169
sbsg38
(dp523
g40
I0
sg41
I0
sg42
I0
sg43
I0
ssg44
(dp524
g40
I0
sg41
I0
sg42
I0
sg43
I0
ssg46
I0
sg47
I0
sg48
I0
sg49
I0
sg50
I0
sg51
(g52
S'TA'
p525
S'PI'
p526
g55
tp527
sg57
(ijoueur
rang
p528
(dp529
g33
I4
sg34
g330
sg36
g169
sbsg61
(dp530
g40
I0
sg41
I1
sg42
I0
sg43
I0
ssg63
(dp531
g40
I0
sg41
I0
sg42
I0
sg43
I0
ssg65
(dp532
g40
I0
sg41
I0
sg42
I0
sg43
I0
ssg67
(dp533
g40
I0
sg41
I1
sg42
I0
sg43
I0
ssg69
I0
sg70
I0
sg71
S'Vettl'
p534
sg73
I9
sg74
I0
sg75
I19
sg76
I183
sg77
g78
sg79
(dp535
g81
I5
sg82
I8
sg83
I7
sg84
I9
sg85
I4
sg86
I11
sg87
I5
sg88
I11
sg89
I4
sg90
I7
sg91
I9
sg92
I8
sg93
I4
sg94
I9
sg95
I11
ssg96
I3
sg97
I0
sg98
I0
sg99
I0
sg100
F8.89655172413793
sg101
I0
sg102
I0
sg103
I0
sg104
g535
sg105
I0
sg106
g55
sg108
I0
sg109
I0
sg110
I0
sg111
I14
sg112
I1
sg113
I0
sg114
S'OG'
p536
sbsS'n3'
p537
(ijoueur
joueur
p538
(dp539
g27
I0
sg28
I0
sg29
I0
sg30
(ijoueur
rang
p540
(dp541
g33
I2
sg34
S'<<'
p542
sg36
g354
sbsg38
(dp543
g40
I0
sg41
I0
sg42
I0
sg43
I0
ssg44
(dp544
g40
I0
sg41
I0
sg42
I0
sg43
I0
ssg46
I0
sg47
I0
sg48
I0
sg49
I0
sg50
I0
sg51
(g52
S'PI'
p545
g55
g55
tp546
sg57
(ijoueur
rang
p547
(dp548
g33
I2
sg34
S'<<'
p549
sg36
g354
sbsg61
(dp550
g40
I0
sg41
I1
sg42
I0
sg43
I0
ssg63
(dp551
g40
I0
sg41
I0
sg42
I0
sg43
I0
ssg65
(dp552
g40
I0
sg41
I0
sg42
I0
sg43
I0
ssg67
(dp553
g40
I0
sg41
I1
sg42
I0
sg43
I0
ssg69
I0
sg70
I0
sg71
S'Soryel'
p554
sg73
I6
sg74
I0
sg75
I20
sg76
I100
sg77
g78
sg79
(dp555
g81
I7
sg82
I11
sg83
I8
sg84
I11
sg85
I4
sg86
I10
sg87
I2
sg88
I11
sg89
I8
sg90
I9
sg91
I7
sg92
I9
sg93
I4
sg94
I9
sg95
I8
ssg96
I1
sg97
I0
sg98
I0
sg99
I0
sg100
F9.74074074074074
sg101
I0
sg102
I0
sg103
I0
sg104
g555
sg105
I0
sg106
S'TA11'
p556
sg108
I0
sg109
I0
sg110
I0
sg111
I13
sg112
I15
sg113
I0
sg114
S'CHS'
p557
sbsS'n4'
p558
g252
sS'n5'
p559
g209
sS'n6'
p560
(ijoueur
joueur
p561
(dp562
g27
I0
sg28
I0
sg29
I0
sg30
(ijoueur
rang
p563
(dp564
g33
I3
sg34
S'^^^'
p565
sg36
g396
sbsg38
(dp566
g40
I0
sg41
I0
sg42
I0
sg43
I0
ssg44
(dp567
g40
I0
sg41
I0
sg42
I0
sg43
I0
ssg46
I0
sg47
I0
sg48
I0
sg49
I0
sg50
I0
sg51
(g52
S'TL'
p568
g55
g55
tp569
sg57
(ijoueur
rang
p570
(dp571
g33
I3
sg34
S'^^^'
p572
sg36
g396
sbsg61
(dp573
g40
I0
sg41
I1
sg42
I0
sg43
I0
ssg63
(dp574
g40
I0
sg41
I0
sg42
I0
sg43
I0
ssg65
(dp575
g40
I0
sg41
I0
sg42
I0
sg43
I0
ssg67
(dp576
g40
I0
sg41
I1
sg42
I0
sg43
I0
ssg69
I0
sg70
I0
sg71
S'Houg'
p577
sg73
I6
sg74
I0
sg75
I19
sg76
I80
sg77
g78
sg79
(dp578
g81
I9
sg82
I11
sg83
I7
sg84
I10
sg85
I1
sg86
I10
sg87
I3
sg88
I10
sg89
I8
sg90
I7
sg91
I10
sg92
I11
sg93
I2
sg94
I10
sg95
I5
ssg96
I2
sg97
I0
sg98
I0
sg99
I0
sg100
F10.161290322580646
sg101
I0
sg102
I0
sg103
I0
sg104
g578
sg105
I0
sg106
g55
sg108
I0
sg109
I0
sg110
I0
sg111
I18
sg112
I3
sg113
I0
sg114
S'OG'
p579
sbsS'n7'
p580
g117
ssS'remplacements'
p581
(dp582
g348
S'n0'
p583
sg369
g583
sg414
g583
sg436
g583
sg437
g583
sg457
g583
sg475
g583
ssb.