(iclub
compo
p0
(dp1
S'caracs_old'
p2
(dp3
S'A'
p4
F158.5
sS'ME'
p5
F122.0
sS'E'
p6
I226
sS'OplusAV'
p7
F84.0
sS'TO_off'
p8
F106.0
sS'OplusAR'
p9
F117.0
sS'M'
p10
F58.5
sS'JP'
p11
F100.5
sS'OmoinsAR'
p12
F78.0
sS'PA'
p13
F121.0
sS'TO_def'
p14
F97.5
sS'OmoinsAV'
p15
F64.0
sS'R'
p16
F191.5
ssS'totaux_old'
p17
(dp18
S'T2'
p19
F190.0
sS'T3'
p20
F113.0
sS'T1'
p21
F207.625
ssS'roles'
p22
(dp23
S'drop1'
p24
(ijoueur
joueur
p25
(dp26
S'rouges_total'
p27
I0
sS'drops_total'
p28
I13
sS'blessure'
p29
I0
sS'RG_max'
p30
(ijoueur
rang
p31
(dp32
S'type_nb'
p33
I5
sS'rang'
p34
S'**'
p35
sS'type'
p36
S'seigneur'
p37
sbsS'MJ2_total'
p38
(dp39
S'SR'
p40
I0
sS'ST'
p41
I0
sS'CR'
p42
I0
sS'CT'
p43
I6
ssS'MJ3_total'
p44
(dp45
g40
I0
sg41
I0
sg42
I0
sg43
I0
ssS'drop_rates_total'
p46
I0
sS'drop_rates_saison'
p47
I0
sS'essais_saison'
p48
I0
sS'penalite_ratees_saison'
p49
I0
sS'transformations_saison'
p50
I3
sS'postes'
p51
(S'dummy'
p52
S'DO'
p53
S'DM'
p54
S''
p55
tp56
sS'RG'
p57
(ijoueur
rang
p58
(dp59
g33
I5
sg34
S'**'
p60
sg36
g37
sbsS'MJ1'
p61
(dp62
g40
I0
sg41
I0
sg42
I0
sg43
I0
ssS'MJ2'
p63
(dp64
g40
I0
sg41
I0
sg42
I0
sg43
I6
ssS'MJ3'
p65
(dp66
g40
I0
sg41
I0
sg42
I0
sg43
I0
ssS'MJ1_total'
p67
(dp68
g40
I0
sg41
I0
sg42
I0
sg43
I0
ssS'penalites_total'
p69
I142
sS'penalites_saison'
p70
I0
sS'nom'
p71
S'Tenmonael'
p72
sS'C'
p73
I6
sS'transformations_total'
p74
I91
sS'D'
p75
I13
sS'VAL'
p76
I298
sS'club'
p77
S'MDL'
p78
sS'caracs'
p79
(dp80
S'A'
p81
I11
sS'ME'
p82
I3
sS'RP2'
p83
I10
sS'E'
p84
I11
sS'TO'
p85
I8
sS'RP1'
p86
I7
sS'JP'
p87
I11
sS'RP_tot'
p88
I10
sS'P'
p89
I13
sS'PA'
p90
I14
sS'M'
p91
I8
sS'R'
p92
I6
sS'TB'
p93
I9
sS'PL'
p94
I11
sS'TA'
p95
I2
ssS'fatigue'
p96
I15
sS'drop_ratees_total'
p97
I0
sS'blessures_total'
p98
I0
sS'XP'
p99
I0
sS'EV'
p100
F11.242424242424242
sS'penalite_ratees_total'
p101
I0
sS'blessures_saison'
p102
I0
sS'jaunes_total'
p103
I0
sS'caracs_sans_fatigue'
p104
g80
sS'rouges_saison'
p105
I0
sS'anciens_clubs'
p106
S'KHR11'
p107
sS'transformation_ratees_total'
p108
I0
sS'drops_saison'
p109
I0
sS'transformation_ratees_saison'
p110
I0
sS'MS'
p111
I46
sS'essais_total'
p112
I7
sS'jaunes_saison'
p113
I0
sS'ARM'
p114
S'ES'
p115
sbsS'SA_scd'
p116
(ijoueur
joueur
p117
(dp118
g27
I0
sg28
I0
sg29
I0
sg30
(ijoueur
rang
p119
(dp120
g33
I6
sg34
S'***'
p121
sg36
S'personnage'
p122
sbsg38
(dp123
g40
I0
sg41
I0
sg42
I0
sg43
I1
ssg44
(dp124
g40
I0
sg41
I0
sg42
I0
sg43
I0
ssg46
I0
sg47
I0
sg48
I0
sg49
I0
sg50
I0
sg51
(g52
S'TL'
p125
S'N8'
p126
g55
tp127
sg57
(ijoueur
rang
p128
(dp129
g33
I6
sg34
S'***'
p130
sg36
g122
sbsg61
(dp131
g40
I0
sg41
I0
sg42
I0
sg43
I5
ssg63
(dp132
g40
I0
sg41
I0
sg42
I0
sg43
I1
ssg65
(dp133
g40
I0
sg41
I0
sg42
I0
sg43
I0
ssg67
(dp134
g40
I0
sg41
I0
sg42
I0
sg43
I5
ssg69
I0
sg70
I0
sg71
S'Manfred Von Carstein'
p135
sg73
I9
sg74
I0
sg75
I18
sg76
I2354
sg77
g78
sg79
(dp136
g81
I12
sg82
I9
sg83
I10
sg84
I12
sg85
I10
sg86
I10
sg87
I3
sg88
I13
sg89
I6
sg90
I10
sg91
I10
sg92
I12
sg93
I5
sg94
I13
sg95
I7
ssg96
I12
sg97
I0
sg98
I0
sg99
I0
sg100
F11.935483870967742
sg101
I0
sg102
I0
sg103
I0
sg104
g136
sg105
I0
sg106
S'KHR11'
p137
sg108
I0
sg109
I0
sg110
I0
sg111
I160
sg112
I2
sg113
I0
sg114
S'CV'
p138
sbsS'RJL'
p139
(ijoueur
joueur
p140
(dp141
g27
I0
sg28
I5
sg29
I0
sg30
(ijoueur
rang
p142
(dp143
g33
I6
sg34
S'***'
p144
sg36
g122
sbsg38
(dp145
g40
I0
sg41
I0
sg42
I0
sg43
I0
ssg44
(dp146
g40
I0
sg41
I0
sg42
I0
sg43
I0
ssg46
I0
sg47
I0
sg48
I0
sg49
I0
sg50
I0
sg51
(g52
S'DO'
p147
S'CE'
p148
g55
tp149
sg57
(ijoueur
rang
p150
(dp151
g33
I6
sg34
S'***'
p152
sg36
g122
sbsg61
(dp153
g40
I0
sg41
I0
sg42
I0
sg43
I6
ssg63
(dp154
g40
I0
sg41
I0
sg42
I0
sg43
I0
ssg65
(dp155
g40
I0
sg41
I0
sg42
I0
sg43
I0
ssg67
(dp156
g40
I0
sg41
I0
sg42
I0
sg43
I6
ssg69
I0
sg70
I0
sg71
S'Sigvald'
p157
sg73
I9
sg74
I0
sg75
I18
sg76
I377
sg77
g78
sg79
(dp158
g81
I14
sg82
I6
sg83
I12
sg84
I14
sg85
I8
sg86
I11
sg87
I10
sg88
I16
sg89
I13
sg90
I14
sg91
I9
sg92
I6
sg93
I7
sg94
I12
sg95
I7
ssg96
I18
sg97
I0
sg98
I0
sg99
I0
sg100
F12.484848484848484
sg101
I0
sg102
I0
sg103
I0
sg104
g158
sg105
I0
sg106
g55
sg108
I0
sg109
I2
sg110
I0
sg111
I49
sg112
I2
sg113
I0
sg114
S'CHS'
p159
sbsS'cap'
p160
g140
sS'B4'
p161
g25
sS'RJC'
p162
g25
sS'B1'
p163
(ijoueur
joueur
p164
(dp165
g27
I0
sg28
I1
sg29
I0
sg30
(ijoueur
rang
p166
(dp167
g33
I4
sg34
S'x'
p168
sg36
S'heros'
p169
sbsg38
(dp170
g40
I0
sg41
I0
sg42
I0
sg43
I0
ssg44
(dp171
g40
I0
sg41
I0
sg42
I0
sg43
I0
ssg46
I0
sg47
I0
sg48
I0
sg49
I0
sg50
I5
sg51
(g52
S'C1'
p172
S'AR'
p173
S'DO'
p174
tp175
sg57
(ijoueur
rang
p176
(dp177
g33
I4
sg34
g168
sg36
g169
sbsg61
(dp178
g40
I0
sg41
I0
sg42
I0
sg43
I5
ssg63
(dp179
g40
I0
sg41
I0
sg42
I0
sg43
I0
ssg65
(dp180
g40
I0
sg41
I0
sg42
I0
sg43
I0
ssg67
(dp181
g40
I0
sg41
I0
sg42
I0
sg43
I5
ssg69
I36
sg70
I13
sg71
S'Rozengh'
p182
sg73
I1
sg74
I37
sg75
I11
sg76
I140
sg77
g78
sg79
(dp183
g81
I9
sg82
I6
sg83
I10
sg84
I13
sg85
I3
sg86
I9
sg87
I8
sg88
I12
sg89
I9
sg90
I8
sg91
I13
sg92
I7
sg93
I10
sg94
I10
sg95
I7
ssg96
I8
sg97
I0
sg98
I0
sg99
I0
sg100
F10.166666666666666
sg101
I0
sg102
I0
sg103
I0
sg104
g183
sg105
I0
sg106
g55
sg108
I1
sg109
I0
sg110
I1
sg111
I15
sg112
I10
sg113
I0
sg114
S'OG'
p184
sbsS'B2'
p185
g164
sS'B3'
p186
g25
sS'SA_pcp2'
p187
(ijoueur
joueur
p188
(dp189
g27
I0
sg28
I0
sg29
I0
sg30
(ijoueur
rang
p190
(dp191
g33
I5
sg34
S'**'
p192
sg36
g37
sbsg38
(dp193
g40
I0
sg41
I0
sg42
I0
sg43
I5
ssg44
(dp194
g40
I0
sg41
I0
sg42
I0
sg43
I0
ssg46
I0
sg47
I0
sg48
I0
sg49
I0
sg50
I0
sg51
(g52
S'DL'
p195
S'PI'
p196
g55
tp197
sg57
(ijoueur
rang
p198
(dp199
g33
I5
sg34
S'**'
p200
sg36
g37
sbsg61
(dp201
g40
I0
sg41
I0
sg42
I0
sg43
I0
ssg63
(dp202
g40
I0
sg41
I0
sg42
I0
sg43
I5
ssg65
(dp203
g40
I0
sg41
I0
sg42
I0
sg43
I0
ssg67
(dp204
g40
I0
sg41
I0
sg42
I0
sg43
I0
ssg69
I0
sg70
I0
sg71
S'Petod'
p205
sg73
I6
sg74
I0
sg75
I15
sg76
I200
sg77
g78
sg79
(dp206
g81
I10
sg82
I16
sg83
I8
sg84
I10
sg85
I11
sg86
I14
sg87
I3
sg88
I15
sg89
I4
sg90
I7
sg91
I9
sg92
I11
sg93
I3
sg94
I11
sg95
I7
ssg96
I6
sg97
I0
sg98
I0
sg99
I0
sg100
F11.88888888888889
sg101
I0
sg102
I0
sg103
I0
sg104
g206
sg105
I0
sg106
g55
sg108
I0
sg109
I0
sg110
I0
sg111
I38
sg112
I14
sg113
I0
sg114
S'OG'
p207
sbsS'SA_pcp1'
p208
(ijoueur
joueur
p209
(dp210
g27
I0
sg28
I4
sg29
I0
sg30
(ijoueur
rang
p211
(dp212
g33
I5
sg34
S'**'
p213
sg36
g37
sbsg38
(dp214
g40
I0
sg41
I0
sg42
I0
sg43
I0
ssg44
(dp215
g40
I0
sg41
I0
sg42
I0
sg43
I0
ssg46
I0
sg47
I0
sg48
I1
sg49
I0
sg50
I0
sg51
(g52
S'DL'
p216
g55
g55
tp217
sg57
(ijoueur
rang
p218
(dp219
g33
I5
sg34
S'**'
p220
sg36
g37
sbsg61
(dp221
g40
I0
sg41
I0
sg42
I0
sg43
I5
ssg63
(dp222
g40
I0
sg41
I0
sg42
I0
sg43
I0
ssg65
(dp223
g40
I0
sg41
I0
sg42
I0
sg43
I0
ssg67
(dp224
g40
I0
sg41
I0
sg42
I0
sg43
I5
ssg69
I0
sg70
I0
sg71
S'Jexath'
p225
sg73
I8
sg74
I0
sg75
I18
sg76
I284
sg77
g78
sg79
(dp226
g81
I12
sg82
I12
sg83
I9
sg84
I12
sg85
I14
sg86
I8
sg87
I9
sg88
I10
sg89
I10
sg90
I12
sg91
I8
sg92
I8
sg93
I6
sg94
I10
sg95
I5
ssg96
I9
sg97
I0
sg98
I0
sg99
I0
sg100
F11.0
sg101
I0
sg102
I0
sg103
I0
sg104
g226
sg105
I0
sg106
g55
sg108
I0
sg109
I0
sg110
I0
sg111
I18
sg112
I4
sg113
I0
sg114
S'ES'
p227
sbsS'drop3'
p228
(ijoueur
joueur
p229
(dp230
g27
I0
sg28
I7
sg29
I0
sg30
(ijoueur
rang
p231
(dp232
g33
I5
sg34
S'**'
p233
sg36
g37
sbsg38
(dp234
g40
I0
sg41
I0
sg42
I0
sg43
I1
ssg44
(dp235
g40
I0
sg41
I0
sg42
I0
sg43
I0
ssg46
I0
sg47
I0
sg48
I1
sg49
I0
sg50
I0
sg51
(g52
S'AR'
p236
S'CE'
p237
S'AI'
p238
tp239
sg57
(ijoueur
rang
p240
(dp241
g33
I5
sg34
S'**'
p242
sg36
g37
sbsg61
(dp243
g40
I0
sg41
I0
sg42
I0
sg43
I5
ssg63
(dp244
g40
I0
sg41
I0
sg42
I0
sg43
I1
ssg65
(dp245
g40
I0
sg41
I0
sg42
I0
sg43
I0
ssg67
(dp246
g40
I0
sg41
I0
sg42
I0
sg43
I5
ssg69
I13
sg70
I0
sg71
S'Lumean'
p247
sg73
I7
sg74
I15
sg75
I19
sg76
I612
sg77
g78
sg79
(dp248
g81
I14
sg82
I3
sg83
I13
sg84
I10
sg85
I8
sg86
I7
sg87
I10
sg88
I13
sg89
I9
sg90
I14
sg91
I11
sg92
I11
sg93
I9
sg94
I11
sg95
I7
ssg96
I19
sg97
I0
sg98
I0
sg99
I0
sg100
F11.818181818181818
sg101
I0
sg102
I0
sg103
I0
sg104
g248
sg105
I0
sg106
S'MRB10'
p249
sg108
I0
sg109
I0
sg110
I0
sg111
I43
sg112
I19
sg113
I0
sg114
S'HE'
p250
sbsS'SA_remp1'
p251
(ijoueur
joueur
p252
(dp253
g27
I0
sg28
I0
sg29
I0
sg30
(ijoueur
rang
p254
(dp255
g33
I5
sg34
S'**'
p256
sg36
g37
sbsg38
(dp257
g40
I0
sg41
I0
sg42
I0
sg43
I0
ssg44
(dp258
g40
I0
sg41
I0
sg42
I0
sg43
I0
ssg46
I0
sg47
I0
sg48
I2
sg49
I0
sg50
I0
sg51
(g52
S'DL'
p259
S'PI'
p260
g55
tp261
sg57
(ijoueur
rang
p262
(dp263
g33
I5
sg34
S'**'
p264
sg36
g37
sbsg61
(dp265
g40
I0
sg41
I0
sg42
I0
sg43
I6
ssg63
(dp266
g40
I0
sg41
I0
sg42
I0
sg43
I0
ssg65
(dp267
g40
I0
sg41
I0
sg42
I0
sg43
I0
ssg67
(dp268
g40
I0
sg41
I0
sg42
I0
sg43
I6
ssg69
I0
sg70
I0
sg71
S'Fregort'
p269
sg73
I2
sg74
I0
sg75
I12
sg76
I200
sg77
g78
sg79
(dp270
g81
I9
sg82
I13
sg83
I7
sg84
I11
sg85
I10
sg86
I12
sg87
I5
sg88
I12
sg89
I6
sg90
I7
sg91
I8
sg92
I10
sg93
I5
sg94
I10
sg95
I8
ssg96
I10
sg97
I0
sg98
I0
sg99
I0
sg100
F10.62962962962963
sg101
I0
sg102
I0
sg103
I0
sg104
g270
sg105
I0
sg106
g55
sg108
I0
sg109
I0
sg110
I0
sg111
I20
sg112
I9
sg113
I0
sg114
S'OG'
p271
sbsS'drop2'
p272
g25
sS'SA_remp2'
p273
(ijoueur
joueur
p274
(dp275
g27
I0
sg28
I0
sg29
I0
sg30
(ijoueur
rang
p276
(dp277
g33
I5
sg34
S'**'
p278
sg36
g37
sbsg38
(dp279
g40
I0
sg41
I0
sg42
I0
sg43
I0
ssg44
(dp280
g40
I0
sg41
I0
sg42
I0
sg43
I0
ssg46
I0
sg47
I0
sg48
I0
sg49
I0
sg50
I0
sg51
(g52
S'TL'
p281
g55
g55
tp282
sg57
(ijoueur
rang
p283
(dp284
g33
I5
sg34
S'**'
p285
sg36
g37
sbsg61
(dp286
g40
I0
sg41
I0
sg42
I4
sg43
I2
ssg63
(dp287
g40
I0
sg41
I0
sg42
I0
sg43
I0
ssg65
(dp288
g40
I0
sg41
I0
sg42
I0
sg43
I0
ssg67
(dp289
g40
I0
sg41
I0
sg42
I4
sg43
I2
ssg69
I0
sg70
I0
sg71
S'Vkohar'
p290
sg73
I-1
sg74
I0
sg75
I12
sg76
I100
sg77
g78
sg79
(dp291
g81
I10
sg82
I11
sg83
I8
sg84
I12
sg85
I10
sg86
I9
sg87
I3
sg88
I10
sg89
I4
sg90
I9
sg91
I9
sg92
I8
sg93
I5
sg94
I12
sg95
I4
ssg96
I8
sg97
I0
sg98
I0
sg99
I0
sg100
F10.03225806451613
sg101
I0
sg102
I0
sg103
I0
sg104
g291
sg105
I0
sg106
S'MRB9'
p292
sg108
I0
sg109
I0
sg110
I0
sg111
I13
sg112
I11
sg113
I0
sg114
S'HB'
p293
sbssS'totaux'
p294
(dp295
g19
I0
sg20
I0
sg21
I0
ssS'_compo_defaut_fatigue'
p296
Nsg79
(dp297
g4
I0
sg5
I0
sg6
I0
sg7
I0
sg8
I0
sg9
I0
sg10
I0
sg11
I0
sg12
I0
sg13
I0
sg14
I0
sg15
I0
sg16
I0
ssS'joueurs'
p298
(dp299
S'n12'
p300
g164
sS'n13'
p301
(ijoueur
joueur
p302
(dp303
g27
I0
sg28
I4
sg29
I0
sg30
(ijoueur
rang
p304
(dp305
g33
I6
sg34
S'***'
p306
sg36
g122
sbsg38
(dp307
g40
I0
sg41
I0
sg42
I0
sg43
I0
ssg44
(dp308
g40
I0
sg41
I0
sg42
I0
sg43
I0
ssg46
I0
sg47
I0
sg48
I0
sg49
I0
sg50
I0
sg51
(g52
S'C1'
p309
S'AR'
p310
S'AI'
p311
tp312
sg57
(ijoueur
rang
p313
(dp314
g33
I6
sg34
S'***'
p315
sg36
g122
sbsg61
(dp316
g40
I0
sg41
I0
sg42
I1
sg43
I5
ssg63
(dp317
g40
I0
sg41
I0
sg42
I0
sg43
I0
ssg65
(dp318
g40
I0
sg41
I0
sg42
I0
sg43
I0
ssg67
(dp319
g40
I0
sg41
I0
sg42
I1
sg43
I5
ssg69
I0
sg70
I0
sg71
S'Orion'
p320
sg73
I5
sg74
I0
sg75
I17
sg76
I886
sg77
g78
sg79
(dp321
g81
I12
sg82
I7
sg83
I8
sg84
I10
sg85
I9
sg86
I12
sg87
I9
sg88
I13
sg89
I8
sg90
I14
sg91
I12
sg92
I11
sg93
I6
sg94
I10
sg95
I5
ssg96
I11
sg97
I0
sg98
I0
sg99
I0
sg100
F11.266666666666667
sg101
I0
sg102
I0
sg103
I0
sg104
g321
sg105
I0
sg106
S'KAK8'
p322
sg108
I0
sg109
I0
sg110
I0
sg111
I327
sg112
I18
sg113
I0
sg114
S'ES'
p323
sbsS'n10'
p324
g140
sS'n11'
p325
(ijoueur
joueur
p326
(dp327
g27
I0
sg28
I0
sg29
I0
sg30
(ijoueur
rang
p328
(dp329
g33
I4
sg34
S'*'
p330
sg36
g169
sbsg38
(dp331
g40
I0
sg41
I0
sg42
I0
sg43
I0
ssg44
(dp332
g40
I0
sg41
I0
sg42
I0
sg43
I0
ssg46
I0
sg47
I0
sg48
I0
sg49
I0
sg50
I0
sg51
(g52
S'AI'
p333
S'AR'
p334
S'CE'
p335
tp336
sg57
(ijoueur
rang
p337
(dp338
g33
I5
sg34
S'**'
p339
sg36
g37
sbsg61
(dp340
g40
I0
sg41
I0
sg42
I0
sg43
I6
ssg63
(dp341
g40
I0
sg41
I0
sg42
I0
sg43
I0
ssg65
(dp342
g40
I0
sg41
I0
sg42
I0
sg43
I0
ssg67
(dp343
g40
I0
sg41
I0
sg42
I0
sg43
I6
ssg69
I0
sg70
I0
sg71
S'Tralov'
p344
sg73
I9
sg74
I0
sg75
I22
sg76
I768
sg77
g78
sg79
(dp345
g81
I12
sg82
I5
sg83
I7
sg84
I12
sg85
I11
sg86
I13
sg87
I9
sg88
I13
sg89
I9
sg90
I12
sg91
I8
sg92
I9
sg93
I6
sg94
I14
sg95
I6
ssg96
I15
sg97
I0
sg98
I0
sg99
I0
sg100
F11.516129032258064
sg101
I0
sg102
I0
sg103
I0
sg104
g345
sg105
I0
sg106
S'PRG11'
p346
sg108
I0
sg109
I0
sg110
I0
sg111
I40
sg112
I0
sg113
I0
sg114
S'CHS'
p347
sbsS'n16'
p348
(ijoueur
joueur
p349
(dp350
g27
I0
sg28
I0
sg29
I0
sg30
(ijoueur
rang
p351
(dp352
g33
I1
sg34
S'<'
p353
sg36
S'base'
p354
sbsg38
(dp355
g40
I0
sg41
I0
sg42
I3
sg43
I1
ssg44
(dp356
g40
I0
sg41
I0
sg42
I0
sg43
I0
ssg46
I0
sg47
I0
sg48
I0
sg49
I0
sg50
I0
sg51
(g52
S'PI'
p357
S'TA'
p358
g55
tp359
sg57
(ijoueur
rang
p360
(dp361
g33
I1
sg34
g353
sg36
g354
sbsg61
(dp362
g40
I0
sg41
I0
sg42
I0
sg43
I0
ssg63
(dp363
g40
I0
sg41
I0
sg42
I3
sg43
I1
ssg65
(dp364
g40
I0
sg41
I0
sg42
I0
sg43
I0
ssg67
(dp365
g40
I0
sg41
I0
sg42
I0
sg43
I0
ssg69
I0
sg70
I0
sg71
S'Bonod'
p366
sg73
I1
sg74
I0
sg75
I12
sg76
I35
sg77
g78
sg79
(dp367
g81
I7
sg82
I9
sg83
I7
sg84
I8
sg85
I5
sg86
I10
sg87
I1
sg88
I10
sg89
I2
sg90
I5
sg91
I9
sg92
I10
sg93
I2
sg94
I7
sg95
I10
ssg96
I2
sg97
I0
sg98
I0
sg99
I0
sg100
F8.724137931034482
sg101
I0
sg102
I0
sg103
I0
sg104
g367
sg105
I0
sg106
g55
sg108
I0
sg109
I0
sg110
I0
sg111
I4
sg112
I0
sg113
I0
sg114
S'OG'
p368
sbsS'n17'
p369
(ijoueur
joueur
p370
(dp371
g27
I0
sg28
I0
sg29
I0
sg30
(ijoueur
rang
p372
(dp373
g33
I1
sg34
S'^'
p374
sg36
g354
sbsg38
(dp375
g40
I0
sg41
I0
sg42
I0
sg43
I0
ssg44
(dp376
g40
I0
sg41
I0
sg42
I0
sg43
I0
ssg46
I0
sg47
I0
sg48
I0
sg49
I0
sg50
I0
sg51
(g52
S'PI'
p377
g55
g55
tp378
sg57
(ijoueur
rang
p379
(dp380
g33
I1
sg34
g374
sg36
g354
sbsg61
(dp381
g40
I0
sg41
I0
sg42
I4
sg43
I0
ssg63
(dp382
g40
I0
sg41
I0
sg42
I0
sg43
I0
ssg65
(dp383
g40
I0
sg41
I0
sg42
I0
sg43
I0
ssg67
(dp384
g40
I0
sg41
I0
sg42
I4
sg43
I0
ssg69
I0
sg70
I0
sg71
S'Van Vhyr'
p385
sg73
I3
sg74
I0
sg75
I10
sg76
I10
sg77
g78
sg79
(dp386
g81
I9
sg82
I9
sg83
I8
sg84
I8
sg85
I3
sg86
I9
sg87
I2
sg88
I10
sg89
I1
sg90
I6
sg91
I7
sg92
I9
sg93
I1
sg94
I9
sg95
I7
ssg96
I0
sg97
I0
sg98
I0
sg99
I0
sg100
F8.814814814814815
sg101
I0
sg102
I0
sg103
I0
sg104
g386
sg105
I0
sg106
S'DKF9'
p387
sg108
I0
sg109
I0
sg110
I0
sg111
I2
sg112
I1
sg113
I0
sg114
S'CV'
p388
sbsS'n14'
p389
(ijoueur
joueur
p390
(dp391
g27
I0
sg28
I0
sg29
I0
sg30
(ijoueur
rang
p392
(dp393
g33
I3
sg34
S'^^^'
p394
sg36
S'rare'
p395
sbsg38
(dp396
g40
I0
sg41
I0
sg42
I0
sg43
I5
ssg44
(dp397
g40
I0
sg41
I0
sg42
I0
sg43
I0
ssg46
I0
sg47
I0
sg48
I2
sg49
I0
sg50
I0
sg51
(g52
S'AR'
p398
S'AI'
p399
S'CE'
p400
tp401
sg57
(ijoueur
rang
p402
(dp403
g33
I3
sg34
S'^^^'
p404
sg36
g395
sbsg61
(dp405
g40
I0
sg41
I0
sg42
I0
sg43
I1
ssg63
(dp406
g40
I0
sg41
I0
sg42
I0
sg43
I5
ssg65
(dp407
g40
I0
sg41
I0
sg42
I0
sg43
I0
ssg67
(dp408
g40
I0
sg41
I0
sg42
I0
sg43
I1
ssg69
I0
sg70
I0
sg71
S'Mentre'
p409
sg73
I8
sg74
I0
sg75
I18
sg76
I136
sg77
g78
sg79
(dp410
g81
I10
sg82
I7
sg83
I11
sg84
I10
sg85
I2
sg86
I10
sg87
I10
sg88
I14
sg89
I7
sg90
I7
sg91
I12
sg92
I9
sg93
I7
sg94
I12
sg95
I5
ssg96
I13
sg97
I0
sg98
I0
sg99
I0
sg100
F10.727272727272727
sg101
I0
sg102
I0
sg103
I0
sg104
g410
sg105
I0
sg106
g55
sg108
I0
sg109
I0
sg110
I0
sg111
I18
sg112
I7
sg113
I0
sg114
S'OG'
p411
sbsS'n15'
p412
g229
sS'n18'
p413
(ijoueur
joueur
p414
(dp415
g27
I0
sg28
I0
sg29
I0
sg30
(ijoueur
rang
p416
(dp417
g33
I2
sg34
S'<<'
p418
sg36
S'special'
p419
sbsg38
(dp420
g40
I0
sg41
I0
sg42
I2
sg43
I1
ssg44
(dp421
g40
I0
sg41
I0
sg42
I0
sg43
I0
ssg46
I0
sg47
I0
sg48
I0
sg49
I0
sg50
I0
sg51
(g52
S'TA'
p422
S'DL'
p423
S'TL'
p424
tp425
sg57
(ijoueur
rang
p426
(dp427
g33
I2
sg34
S'<<'
p428
sg36
g419
sbsg61
(dp429
g40
I0
sg41
I0
sg42
I0
sg43
I0
ssg63
(dp430
g40
I0
sg41
I0
sg42
I2
sg43
I1
ssg65
(dp431
g40
I0
sg41
I0
sg42
I0
sg43
I0
ssg67
(dp432
g40
I0
sg41
I0
sg42
I0
sg43
I0
ssg69
I0
sg70
I0
sg71
S'Hoegh'
p433
sg73
I-2
sg74
I0
sg75
I12
sg76
I20
sg77
g78
sg79
(dp434
g81
I9
sg82
I8
sg83
I5
sg84
I12
sg85
I8
sg86
I6
sg87
I1
sg88
I6
sg89
I5
sg90
I10
sg91
I8
sg92
I8
sg93
I5
sg94
I9
sg95
I9
ssg96
I2
sg97
I0
sg98
I0
sg99
I0
sg100
F8.689655172413794
sg101
I0
sg102
I0
sg103
I0
sg104
g434
sg105
I0
sg106
S'MRB10'
p435
sg108
I0
sg109
I0
sg110
I0
sg111
I2
sg112
I1
sg113
I0
sg114
S'EN'
p436
sbsS'n19'
p437
g274
sS'n22'
p438
(ijoueur
joueur
p439
(dp440
g27
I0
sg28
I0
sg29
I0
sg30
(ijoueur
rang
p441
(dp442
g33
I4
sg34
g330
sg36
g169
sbsg38
(dp443
g40
I0
sg41
I0
sg42
I0
sg43
I0
ssg44
(dp444
g40
I0
sg41
I0
sg42
I2
sg43
I0
ssg46
I0
sg47
I0
sg48
I0
sg49
I0
sg50
I0
sg51
(g52
S'AR'
p445
S'CE'
p446
S'AI'
p447
tp448
sg57
(ijoueur
rang
p449
(dp450
g33
I4
sg34
g330
sg36
g169
sbsg61
(dp451
g40
I0
sg41
I0
sg42
I3
sg43
I0
ssg63
(dp452
g40
I0
sg41
I0
sg42
I0
sg43
I0
ssg65
(dp453
g40
I0
sg41
I0
sg42
I2
sg43
I0
ssg67
(dp454
g40
I0
sg41
I0
sg42
I3
sg43
I0
ssg69
I2
sg70
I0
sg71
S'Marodard'
p455
sg73
I2
sg74
I1
sg75
I9
sg76
I40
sg77
g78
sg79
(dp456
g81
I9
sg82
I7
sg83
I10
sg84
I10
sg85
I4
sg86
I9
sg87
I8
sg88
I12
sg89
I9
sg90
I8
sg91
I8
sg92
I8
sg93
I8
sg94
I10
sg95
I5
ssg96
I0
sg97
I0
sg98
I0
sg99
I0
sg100
F9.454545454545455
sg101
I0
sg102
I0
sg103
I0
sg104
g456
sg105
I0
sg106
g55
sg108
I0
sg109
I0
sg110
I0
sg111
I5
sg112
I19
sg113
I0
sg114
S'EMP'
p457
sbsS'n21'
p458
(ijoueur
joueur
p459
(dp460
g27
I0
sg28
I0
sg29
I0
sg30
(ijoueur
rang
p461
(dp462
g33
I1
sg34
g374
sg36
g354
sbsg38
(dp463
g40
I0
sg41
I0
sg42
I0
sg43
I0
ssg44
(dp464
g40
I0
sg41
I0
sg42
I0
sg43
I0
ssg46
I0
sg47
I0
sg48
I0
sg49
I0
sg50
I0
sg51
(g52
S'C2'
p465
g55
g55
tp466
sg57
(ijoueur
rang
p467
(dp468
g33
I1
sg34
g374
sg36
g354
sbsg61
(dp469
g40
I0
sg41
I0
sg42
I5
sg43
I1
ssg63
(dp470
g40
I0
sg41
I0
sg42
I0
sg43
I0
ssg65
(dp471
g40
I0
sg41
I0
sg42
I0
sg43
I0
ssg67
(dp472
g40
I0
sg41
I0
sg42
I5
sg43
I1
ssg69
I0
sg70
I0
sg71
S'Hobeled'
p473
sg73
I9
sg74
I0
sg75
I20
sg76
I58
sg77
g78
sg79
(dp474
g81
I7
sg82
I5
sg83
I10
sg84
I11
sg85
I2
sg86
I10
sg87
I8
sg88
I13
sg89
I6
sg90
I9
sg91
I11
sg92
I8
sg93
I6
sg94
I9
sg95
I7
ssg96
I5
sg97
I0
sg98
I0
sg99
I0
sg100
F9.689655172413794
sg101
I0
sg102
I0
sg103
I0
sg104
g474
sg105
I0
sg106
g55
sg108
I0
sg109
I0
sg110
I0
sg111
I6
sg112
I2
sg113
I0
sg114
S'OG'
p475
sbsS'n20'
p476
(ijoueur
joueur
p477
(dp478
g27
I0
sg28
I0
sg29
I0
sg30
(ijoueur
rang
p479
(dp480
g33
I4
sg34
g330
sg36
g169
sbsg38
(dp481
g40
I0
sg41
I0
sg42
I1
sg43
I1
ssg44
(dp482
g40
I0
sg41
I0
sg42
I0
sg43
I0
ssg46
I0
sg47
I0
sg48
I1
sg49
I0
sg50
I0
sg51
(g52
S'DM'
p483
S'AI'
p484
S'CE'
p485
tp486
sg57
(ijoueur
rang
p487
(dp488
g33
I4
sg34
g330
sg36
g169
sbsg61
(dp489
g40
I0
sg41
I0
sg42
I3
sg43
I0
ssg63
(dp490
g40
I0
sg41
I0
sg42
I1
sg43
I1
ssg65
(dp491
g40
I0
sg41
I0
sg42
I0
sg43
I0
ssg67
(dp492
g40
I0
sg41
I0
sg42
I3
sg43
I0
ssg69
I0
sg70
I0
sg71
S'Popolat'
p493
sg73
I6
sg74
I0
sg75
I19
sg76
I130
sg77
g78
sg79
(dp494
g81
I8
sg82
I7
sg83
I8
sg84
I9
sg85
I3
sg86
I10
sg87
I7
sg88
I11
sg89
I7
sg90
I10
sg91
I10
sg92
I11
sg93
I10
sg94
I10
sg95
I4
ssg96
I1
sg97
I0
sg98
I0
sg99
I0
sg100
F9.225806451612904
sg101
I0
sg102
I0
sg103
I0
sg104
g494
sg105
I0
sg106
g55
sg108
I0
sg109
I0
sg110
I0
sg111
I18
sg112
I11
sg113
I0
sg114
S'OG'
p495
sbsS'n8'
p496
(ijoueur
joueur
p497
(dp498
g27
I0
sg28
I0
sg29
I0
sg30
(ijoueur
rang
p499
(dp500
g33
I3
sg34
S'<<<'
p501
sg36
g395
sbsg38
(dp502
g40
I0
sg41
I0
sg42
I0
sg43
I5
ssg44
(dp503
g40
I0
sg41
I0
sg42
I0
sg43
I0
ssg46
I0
sg47
I0
sg48
I1
sg49
I0
sg50
I0
sg51
(g52
S'TL'
p504
S'N8'
p505
g55
tp506
sg57
(ijoueur
rang
p507
(dp508
g33
I3
sg34
S'<<<'
p509
sg36
g395
sbsg61
(dp510
g40
I0
sg41
I0
sg42
I1
sg43
I0
ssg63
(dp511
g40
I0
sg41
I0
sg42
I0
sg43
I5
ssg65
(dp512
g40
I0
sg41
I0
sg42
I0
sg43
I0
ssg67
(dp513
g40
I0
sg41
I0
sg42
I1
sg43
I0
ssg69
I0
sg70
I0
sg71
S'Jgadzarh'
p514
sg73
I7
sg74
I0
sg75
I20
sg76
I104
sg77
g78
sg79
(dp515
g81
I6
sg82
I12
sg83
I8
sg84
I11
sg85
I6
sg86
I12
sg87
I4
sg88
I13
sg89
I4
sg90
I5
sg91
I9
sg92
I12
sg93
I3
sg94
I9
sg95
I7
ssg96
I14
sg97
I0
sg98
I0
sg99
I0
sg100
F10.419354838709678
sg101
I0
sg102
I0
sg103
I2
sg104
g515
sg105
I0
sg106
g55
sg108
I0
sg109
I0
sg110
I0
sg111
I11
sg112
I1
sg113
I2
sg114
S'HB'
p516
sbsS'n9'
p517
g25
sS'n1'
p518
g188
sS'n2'
p519
(ijoueur
joueur
p520
(dp521
g27
I0
sg28
I0
sg29
I0
sg30
(ijoueur
rang
p522
(dp523
g33
I4
sg34
g330
sg36
g169
sbsg38
(dp524
g40
I0
sg41
I0
sg42
I0
sg43
I0
ssg44
(dp525
g40
I0
sg41
I0
sg42
I0
sg43
I0
ssg46
I0
sg47
I0
sg48
I0
sg49
I0
sg50
I0
sg51
(g52
S'TA'
p526
S'PI'
p527
g55
tp528
sg57
(ijoueur
rang
p529
(dp530
g33
I4
sg34
g330
sg36
g169
sbsg61
(dp531
g40
I0
sg41
I0
sg42
I0
sg43
I5
ssg63
(dp532
g40
I0
sg41
I0
sg42
I0
sg43
I0
ssg65
(dp533
g40
I0
sg41
I0
sg42
I0
sg43
I0
ssg67
(dp534
g40
I0
sg41
I0
sg42
I0
sg43
I5
ssg69
I0
sg70
I0
sg71
S'Vettl'
p535
sg73
I9
sg74
I0
sg75
I19
sg76
I183
sg77
g78
sg79
(dp536
g81
I5
sg82
I8
sg83
I7
sg84
I9
sg85
I4
sg86
I11
sg87
I5
sg88
I11
sg89
I4
sg90
I7
sg91
I9
sg92
I8
sg93
I4
sg94
I9
sg95
I11
ssg96
I9
sg97
I0
sg98
I0
sg99
I0
sg100
F8.89655172413793
sg101
I0
sg102
I0
sg103
I0
sg104
g536
sg105
I0
sg106
g55
sg108
I0
sg109
I0
sg110
I0
sg111
I14
sg112
I1
sg113
I0
sg114
S'OG'
p537
sbsS'n3'
p538
(ijoueur
joueur
p539
(dp540
g27
I0
sg28
I0
sg29
I0
sg30
(ijoueur
rang
p541
(dp542
g33
I2
sg34
S'<<'
p543
sg36
g419
sbsg38
(dp544
g40
I0
sg41
I0
sg42
I0
sg43
I0
ssg44
(dp545
g40
I0
sg41
I0
sg42
I0
sg43
I0
ssg46
I0
sg47
I0
sg48
I1
sg49
I0
sg50
I0
sg51
(g52
S'PI'
p546
g55
g55
tp547
sg57
(ijoueur
rang
p548
(dp549
g33
I2
sg34
S'<<'
p550
sg36
g419
sbsg61
(dp551
g40
I0
sg41
I0
sg42
I0
sg43
I5
ssg63
(dp552
g40
I0
sg41
I0
sg42
I0
sg43
I0
ssg65
(dp553
g40
I0
sg41
I0
sg42
I0
sg43
I0
ssg67
(dp554
g40
I0
sg41
I0
sg42
I0
sg43
I5
ssg69
I0
sg70
I0
sg71
S'Soryel'
p555
sg73
I6
sg74
I0
sg75
I20
sg76
I100
sg77
g78
sg79
(dp556
g81
I7
sg82
I11
sg83
I8
sg84
I11
sg85
I8
sg86
I10
sg87
I2
sg88
I11
sg89
I4
sg90
I9
sg91
I7
sg92
I9
sg93
I4
sg94
I9
sg95
I8
ssg96
I2
sg97
I0
sg98
I0
sg99
I0
sg100
F9.74074074074074
sg101
I0
sg102
I0
sg103
I0
sg104
g556
sg105
I0
sg106
S'TA11'
p557
sg108
I0
sg109
I0
sg110
I0
sg111
I13
sg112
I16
sg113
I0
sg114
S'CHS'
p558
sbsS'n4'
p559
g252
sS'n5'
p560
g209
sS'n6'
p561
(ijoueur
joueur
p562
(dp563
g27
I0
sg28
I0
sg29
I0
sg30
(ijoueur
rang
p564
(dp565
g33
I3
sg34
S'^^^'
p566
sg36
g395
sbsg38
(dp567
g40
I0
sg41
I0
sg42
I0
sg43
I0
ssg44
(dp568
g40
I0
sg41
I0
sg42
I0
sg43
I0
ssg46
I0
sg47
I0
sg48
I0
sg49
I0
sg50
I0
sg51
(g52
S'TL'
p569
g55
g55
tp570
sg57
(ijoueur
rang
p571
(dp572
g33
I3
sg34
S'^^^'
p573
sg36
g395
sbsg61
(dp574
g40
I0
sg41
I0
sg42
I0
sg43
I5
ssg63
(dp575
g40
I0
sg41
I0
sg42
I0
sg43
I0
ssg65
(dp576
g40
I0
sg41
I0
sg42
I0
sg43
I0
ssg67
(dp577
g40
I0
sg41
I0
sg42
I0
sg43
I5
ssg69
I0
sg70
I0
sg71
S'Houg'
p578
sg73
I6
sg74
I0
sg75
I19
sg76
I80
sg77
g78
sg79
(dp579
g81
I9
sg82
I11
sg83
I7
sg84
I10
sg85
I8
sg86
I10
sg87
I3
sg88
I10
sg89
I1
sg90
I7
sg91
I10
sg92
I11
sg93
I2
sg94
I10
sg95
I5
ssg96
I6
sg97
I0
sg98
I0
sg99
I0
sg100
F10.161290322580646
sg101
I0
sg102
I0
sg103
I0
sg104
g579
sg105
I0
sg106
g55
sg108
I0
sg109
I0
sg110
I0
sg111
I18
sg112
I3
sg113
I0
sg114
S'OG'
p580
sbsS'n7'
p581
g117
ssS'remplacements'
p582
(dp583
g348
S'n0'
p584
sg369
g584
sg413
g584
sg437
g584
sg438
g584
sg458
g584
sg476
g584
ssb.