(iclub
compo
p0
(dp1
S'caracs_old'
p2
(dp3
S'A'
p4
F158.25
sS'ME'
p5
F107.5
sS'E'
p6
F202.5
sS'OplusAV'
p7
F98.25
sS'TO_off'
p8
F133.25
sS'OplusAR'
p9
F122.0
sS'M'
p10
F103.0
sS'JP'
p11
F98.5
sS'OmoinsAR'
p12
F108.75
sS'PA'
p13
F114.0
sS'TO_def'
p14
F122.0
sS'OmoinsAV'
p15
F112.0
sS'R'
p16
F188.0
ssS'totaux_old'
p17
(dp18
S'T2'
p19
F185.5
sS'T3'
p20
F101.25
sS'T1'
p21
F211.5
ssS'roles'
p22
(dp23
S'drop1'
p24
(ijoueur
joueur
p25
(dp26
S'EV_saison_11'
p27
F11.10344827586207
sS'rouges_total'
p28
I2
sS'EV_saison_12'
p29
F11.620689655172415
sS'changements_postes'
p30
S''
p31
sS'drops_total'
p32
I3
sS'xp_total'
p33
F93.55102650750894
sS'blessure'
p34
I0
sS'RG_max'
p35
ccopy_reg
_reconstructor
p36
(cjoueur
rang_new
p37
c__builtin__
object
p38
Ntp39
Rp40
(dp41
S'type_nb'
p42
I6
sS'rang'
p43
S'***'
p44
sS'type'
p45
S'personnage'
p46
sbsS'MJ2_total'
p47
(dp48
S'SR'
p49
I0
sS'CT'
p50
I0
sS'CR'
p51
I0
sS'ST'
p52
I0
ssS'MJ3_total'
p53
(dp54
g49
I0
sg50
I0
sg51
I0
sg52
I0
ssS'xp'
p55
I0
sS'drop_rates_total'
p56
I0
sS'drop_rates_saison'
p57
I0
sS'xp_saison'
p58
F93.55102650750894
sS'MS_probleme'
p59
I00
sS'essais_saison'
p60
I0
sS'penalite_ratees_saison'
p61
I0
sS'transformations_saison'
p62
I0
sS'postes'
p63
(S'dummy'
p64
S'DM'
p65
S'DO'
p66
S'AR'
p67
tp68
sS'veut_partir'
p69
I00
sS'RG'
p70
g36
(g37
g38
Ntp71
Rp72
(dp73
g42
I6
sg43
S'***'
p74
sg45
g46
sbsS'MJ1'
p75
(dp76
S'SR'
p77
I0
sS'CT'
p78
I9
sS'CR'
p79
I0
sS'ST'
p80
I0
ssS'MJ2'
p81
(dp82
g77
I0
sg78
I0
sg79
I0
sg80
I0
ssS'MJ3'
p83
(dp84
g77
I0
sg78
I0
sg79
I0
sg80
I0
ssS'MJ1_total'
p85
(dp86
g49
I0
sg50
I36
sg51
I0
sg52
I14
ssS'penalites_total'
p87
I0
sS'penalites_saison'
p88
I0
sS'nom'
p89
S'Eltharion'
p90
sS'C'
p91
I8
sS'transformations_total'
p92
I0
sS'D'
p93
I15
sS'VAL'
p94
I587
sS'club'
p95
S'KHR'
p96
sS'caracs'
p97
(dp98
S'A'
p99
I14
sS'ME'
p100
I5
sS'RP2'
p101
I9
sS'E'
p102
I12
sS'TO'
p103
I7
sS'RP1'
p104
I7
sS'JP'
p105
I11
sS'RP_tot'
p106
I9
sS'P'
p107
I11
sS'PA'
p108
I14
sS'M'
p109
I8
sS'R'
p110
I7
sS'TB'
p111
I8
sS'PL'
p112
I11
sS'TA'
p113
I7
ssS'jj_passe'
p114
(dp115
S's12'
p116
(ijoueur
joueur
p117
(dp118
g27
F11.10344827586207
sg28
I2
sg30
g31
sg32
I0
sg34
I0
sg35
g36
(g37
g38
Ntp119
Rp120
(dp121
g42
I6
sg43
S'***'
p122
sg45
S'personnage'
p123
sbsg47
(dp124
S'SR'
p125
I0
sS'CT'
p126
I0
sS'CR'
p127
I0
sS'ST'
p128
I0
ssg53
(dp129
g125
I0
sg126
I0
sg127
I0
sg128
I0
ssg81
(dp130
S'SR'
p131
I0
sS'ST'
p132
I0
sS'CR'
p133
I0
sS'CT'
p134
I0
ssg56
I0
sg57
I0
sg60
I0
sg61
I0
sg62
I0
sg63
(S'dummy'
p135
S'DM'
p136
S'DO'
p137
S'AR'
p138
tp139
sg69
I00
sg70
g36
(g37
g38
Ntp140
Rp141
(dp142
g42
I6
sg43
S'***'
p143
sg45
g123
sbsg75
(dp144
g131
I0
sg132
I7
sg133
I0
sg134
I14
ssg59
I00
sg83
(dp145
g131
I0
sg132
I0
sg133
I0
sg134
I0
ssg85
(dp146
g125
I0
sg126
I27
sg127
I0
sg128
I14
ssg87
I0
sg88
I0
sg89
S'Eltharion'
p147
sg91
I8
sg92
I0
sg93
I15
sg94
I587
sg95
S'KHR'
p148
sg97
(dp149
S'A'
p150
I14
sS'ME'
p151
I5
sS'RP2'
p152
I9
sS'E'
p153
I12
sS'P'
p154
I11
sS'RP1'
p155
I7
sS'JP'
p156
I11
sS'RP_tot'
p157
I9
sS'TO'
p158
I7
sS'PA'
p159
I15
sS'M'
p160
I8
sS'R'
p161
I7
sS'TB'
p162
I8
sS'PL'
p163
I11
sS'TA'
p164
I7
ssg114
(dp165
S's11'
p166
(ijoueur
joueur
p167
(dp168
g28
I0
sg32
I0
sg34
I0
sg35
g36
(g37
g38
Ntp169
Rp170
(dp171
g42
I6
sg43
S'***'
p172
sg45
S'personnage'
p173
sbsg47
(dp174
S'SR'
p175
I0
sS'CT'
p176
I0
sS'CR'
p177
I0
sS'ST'
p178
I0
ssg53
(dp179
g175
I0
sg176
I0
sg177
I0
sg178
I0
ssg56
I0
sg57
I0
sg59
I00
sg60
I0
sg61
I0
sg62
I0
sg63
(S'dummy'
p180
S'DM'
p181
S'DO'
p182
S'AR'
p183
tp184
sg69
I00
sg70
g36
(g37
g38
Ntp185
Rp186
(dp187
g42
I6
sg43
S'***'
p188
sg45
g173
sbsg75
(dp189
g175
I0
sg176
I13
sg177
I0
sg178
I7
ssg81
(dp190
g175
I0
sg176
I0
sg177
I0
sg178
I0
ssg83
(dp191
g175
I0
sg176
I0
sg177
I0
sg178
I0
ssg85
(dp192
g175
I0
sg176
I13
sg177
I0
sg178
I7
ssg87
I0
sg88
I0
sg89
S'Eltharion'
p193
sg91
I8
sg92
I0
sg93
I15
sg94
I587
sg95
S'KHR'
p194
sg97
(dp195
S'A'
p196
I14
sS'ME'
p197
I5
sS'RP2'
p198
I9
sS'E'
p199
I12
sS'P'
p200
I10
sS'RP1'
p201
I7
sS'JP'
p202
I9
sS'RP_tot'
p203
I9
sS'TO'
p204
I7
sS'PA'
p205
I14
sS'M'
p206
I8
sS'R'
p207
I7
sS'TB'
p208
I8
sS'PL'
p209
I11
sS'TA'
p210
I7
ssS'fatigue'
p211
I0
sS'drop_ratees_total'
p212
I0
sS'blessures_total'
p213
I0
sS'XP'
p214
I0
sS'EV'
p215
F11.10344827586207
sS'penalite_ratees_total'
p216
I0
sS'blessures_saison'
p217
I0
sS'jaunes_total'
p218
I0
sS'caracs_saison_11'
p219
(dp220
S'A'
p221
I14
sS'ME'
p222
I5
sS'RP2'
p223
I9
sS'E'
p224
I12
sS'P'
p225
I10
sS'RP1'
p226
I7
sS'JP'
p227
I9
sS'RP_tot'
p228
I9
sS'TO'
p229
I7
sS'PA'
p230
I14
sS'M'
p231
I8
sS'R'
p232
I7
sS'TB'
p233
I8
sS'PL'
p234
I11
sS'TA'
p235
I7
ssS'caracs_sans_fatigue'
p236
g195
sS'rouges_saison'
p237
I0
sS'anciens_clubs'
p238
g31
sS'transformation_ratees_total'
p239
I0
sS'drops_saison'
p240
I0
sS'transformation_ratees_saison'
p241
I0
sS'MS'
p242
I59
sS'essais_total'
p243
I4
sS'jaunes_saison'
p244
I0
sS'ARM'
p245
S'HE'
p246
sbssg211
I13
sg212
I0
sg213
I0
sg214
I0
sg215
F11.620689655172415
sg216
I0
sg217
I0
sg218
I1
sg219
(dp247
S'A'
p248
I14
sS'ME'
p249
I5
sS'RP2'
p250
I9
sS'E'
p251
I12
sS'TO'
p252
I7
sS'RP1'
p253
I7
sS'JP'
p254
I9
sS'RP_tot'
p255
I9
sS'P'
p256
I10
sS'PA'
p257
I14
sS'M'
p258
I8
sS'R'
p259
I7
sS'TB'
p260
I8
sS'PL'
p261
I11
sS'TA'
p262
I7
ssg236
g149
sg237
I2
sg238
g31
sg239
I0
sg240
I0
sg241
I0
sg242
I59
sg243
I4
sg244
I1
sg245
S'HE'
p263
sbsS's11'
p264
(ijoueur
joueur
p265
(dp266
g28
I0
sg32
I0
sg34
I0
sg35
g36
(g37
g38
Ntp267
Rp268
(dp269
g42
I6
sg43
S'***'
p270
sg45
S'personnage'
p271
sbsg47
(dp272
S'SR'
p273
I0
sS'CT'
p274
I0
sS'CR'
p275
I0
sS'ST'
p276
I0
ssg53
(dp277
g273
I0
sg274
I0
sg275
I0
sg276
I0
ssg56
I0
sg57
I0
sg59
I00
sg60
I0
sg61
I0
sg62
I0
sg63
(S'dummy'
p278
S'DM'
p279
S'DO'
p280
S'AR'
p281
tp282
sg69
I00
sg70
g36
(g37
g38
Ntp283
Rp284
(dp285
g42
I6
sg43
S'***'
p286
sg45
g271
sbsg75
(dp287
g273
I0
sg274
I13
sg275
I0
sg276
I7
ssg81
(dp288
g273
I0
sg274
I0
sg275
I0
sg276
I0
ssg83
(dp289
g273
I0
sg274
I0
sg275
I0
sg276
I0
ssg85
(dp290
g273
I0
sg274
I13
sg275
I0
sg276
I7
ssg87
I0
sg88
I0
sg89
S'Eltharion'
p291
sg91
I8
sg92
I0
sg93
I15
sg94
I587
sg95
S'KHR'
p292
sg97
(dp293
S'A'
p294
I14
sS'ME'
p295
I5
sS'RP2'
p296
I9
sS'E'
p297
I12
sS'P'
p298
I10
sS'RP1'
p299
I7
sS'JP'
p300
I9
sS'RP_tot'
p301
I9
sS'TO'
p302
I7
sS'PA'
p303
I14
sS'M'
p304
I8
sS'R'
p305
I7
sS'TB'
p306
I8
sS'PL'
p307
I11
sS'TA'
p308
I7
ssg211
I0
sg212
I0
sg213
I0
sg214
I0
sg215
F11.10344827586207
sg216
I0
sg217
I0
sg218
I0
sg219
(dp309
S'A'
p310
I14
sS'ME'
p311
I5
sS'RP2'
p312
I9
sS'E'
p313
I12
sS'P'
p314
I10
sS'RP1'
p315
I7
sS'JP'
p316
I9
sS'RP_tot'
p317
I9
sS'TO'
p318
I7
sS'PA'
p319
I14
sS'M'
p320
I8
sS'R'
p321
I7
sS'TB'
p322
I8
sS'PL'
p323
I11
sS'TA'
p324
I7
ssg236
g293
sg237
I0
sg238
g31
sg239
I0
sg240
I0
sg241
I0
sg242
I59
sg243
I4
sg244
I0
sg245
S'HE'
p325
sbssg211
I6
sg212
I0
sg213
I0
sg214
I0
sg215
F11.413793103448276
sg216
I0
sg217
I0
sg218
I1
sg219
(dp326
S'A'
p327
I14
sS'ME'
p328
I5
sS'RP2'
p329
I9
sS'E'
p330
I12
sS'TO'
p331
I7
sS'RP1'
p332
I7
sS'JP'
p333
I9
sS'RP_tot'
p334
I9
sS'P'
p335
I10
sS'PA'
p336
I14
sS'M'
p337
I8
sS'R'
p338
I7
sS'TB'
p339
I8
sS'PL'
p340
I11
sS'TA'
p341
I7
ssg236
(dp342
g99
I14
sg100
I5
sg101
I9
sg102
I12
sg107
I11
sg104
I7
sg105
I11
sg106
I9
sg103
I7
sg108
I14
sg109
I8
sg110
I7
sg111
I8
sg112
I11
sg113
I7
ssg237
I0
sS'caracs_saison_12'
p343
(dp344
sg239
I0
sg238
g31
sg240
I3
sg241
I0
sg242
I59
sg243
I4
sg244
I0
sg245
S'HE'
p345
sbsS'SA_scd'
p346
(ijoueur
joueur
p347
(dp348
g27
F11.578947368421053
sg28
I1
sg29
F11.236842105263158
sg30
g31
sg32
I0
sg33
F93.32122594266806
sg34
I0
sg35
g36
(g37
g38
Ntp349
Rp350
(dp351
g42
I2
sg43
S'^^'
p352
sg45
S'special'
p353
sbsg47
(dp354
g49
I0
sg50
I0
sg51
I0
sg52
I7
ssg53
(dp355
g49
I0
sg50
I0
sg51
I0
sg52
I0
ssg55
I0
sg56
I0
sg57
I0
sg58
F93.32122594266806
sg59
I00
sg60
I0
sg61
I0
sg62
I0
sg63
(g64
S'TL'
p356
S'DL'
p357
g31
tp358
sg69
I00
sg70
g36
(g37
g38
Ntp359
Rp360
(dp361
g42
I2
sg43
S'^^'
p362
sg45
g353
sbsg75
(dp363
g77
I0
sg78
I9
sg79
I0
sg80
I0
ssg81
(dp364
g77
I0
sg78
I0
sg79
I0
sg80
I0
ssg83
(dp365
g77
I0
sg78
I0
sg79
I0
sg80
I0
ssg85
(dp366
g49
I2
sg50
I35
sg51
I0
sg52
I1
ssg87
I0
sg88
I0
sg89
S'Filodil'
p367
sg91
I3
sg92
I0
sg93
I13
sg94
I100
sg95
g96
sg97
(dp368
g99
I6
sg100
I9
sg101
I7
sg102
I10
sg103
I13
sg104
I6
sg105
I3
sg106
I7
sg107
I7
sg108
I9
sg109
I8
sg110
I13
sg111
I5
sg112
I13
sg113
I3
ssg114
(dp369
g116
(ijoueur
joueur
p370
(dp371
g27
F11.578947368421053
sg28
I1
sg30
g31
sg32
I0
sg34
I0
sg35
g36
(g37
g38
Ntp372
Rp373
(dp374
g42
I2
sg43
S'^^'
p375
sg45
S'special'
p376
sbsg47
(dp377
g125
I0
sg126
I0
sg127
I0
sg128
I7
ssg53
(dp378
g125
I0
sg126
I0
sg127
I0
sg128
I0
ssg81
(dp379
g131
I0
sg132
I0
sg133
I0
sg134
I0
ssg56
I0
sg57
I0
sg60
I0
sg61
I0
sg62
I0
sg63
(g135
S'TL'
p380
S'DL'
p381
g31
tp382
sg69
I00
sg70
g36
(g37
g38
Ntp383
Rp384
(dp385
g42
I2
sg43
S'^^'
p386
sg45
g376
sbsg75
(dp387
g131
I1
sg132
I0
sg133
I0
sg134
I14
ssg59
I01
sg83
(dp388
g131
I0
sg132
I0
sg133
I0
sg134
I0
ssg85
(dp389
g125
I2
sg126
I26
sg127
I0
sg128
I1
ssg87
I0
sg88
I0
sg89
S'Filodil'
p390
sg91
I3
sg92
I0
sg93
I13
sg94
I100
sg95
g148
sg97
(dp391
g150
I6
sg151
I9
sg152
I7
sg153
I11
sg154
I7
sg155
I6
sg156
I3
sg157
I7
sg158
I13
sg159
I9
sg160
I9
sg161
I13
sg162
I5
sg163
I14
sg164
I3
ssg114
(dp392
g166
(ijoueur
joueur
p393
(dp394
g28
I0
sg32
I0
sg34
I0
sg35
g36
(g37
g38
Ntp395
Rp396
(dp397
g42
I2
sg43
S'^^'
p398
sg45
S'special'
p399
sbsg47
(dp400
S'SR'
p401
I0
sS'CT'
p402
I0
sS'CR'
p403
I0
sS'ST'
p404
I7
ssg53
(dp405
g401
I0
sg402
I0
sg403
I0
sg404
I0
ssg56
I0
sg57
I0
sg59
I01
sg60
I0
sg61
I0
sg62
I0
sg63
(S'dummy'
p406
S'TL'
p407
S'DL'
p408
g31
tp409
sg69
I01
sg70
g36
(g37
g38
Ntp410
Rp411
(dp412
g42
I2
sg43
S'^^'
p413
sg45
g399
sbsg75
(dp414
g401
I1
sg402
I12
sg403
I0
sg404
I1
ssg81
(dp415
g401
I0
sg402
I0
sg403
I0
sg404
I7
ssg83
(dp416
g401
I0
sg402
I0
sg403
I0
sg404
I0
ssg85
(dp417
g401
I1
sg402
I12
sg403
I0
sg404
I1
ssg87
I0
sg88
I0
sg89
S'Filodil'
p418
sg91
I3
sg92
I0
sg93
I13
sg94
I100
sg95
S'KHR'
p419
sg97
(dp420
S'A'
p421
I7
sS'ME'
p422
I9
sS'RP2'
p423
I7
sS'E'
p424
I10
sS'P'
p425
I7
sS'RP1'
p426
I6
sS'JP'
p427
I3
sS'RP_tot'
p428
I7
sS'TO'
p429
I14
sS'PA'
p430
I9
sS'M'
p431
I8
sS'R'
p432
I14
sS'TB'
p433
I5
sS'PL'
p434
I14
sS'TA'
p435
I3
ssg211
I0
sg212
I0
sg213
I0
sg214
I0
sg215
F11.578947368421053
sg216
I0
sg217
I0
sg218
I0
sg219
(dp436
S'A'
p437
I7
sS'ME'
p438
I9
sS'RP2'
p439
I7
sS'E'
p440
I10
sS'P'
p441
I7
sS'RP1'
p442
I6
sS'JP'
p443
I3
sS'RP_tot'
p444
I7
sS'TO'
p445
I14
sS'PA'
p446
I9
sS'M'
p447
I8
sS'R'
p448
I14
sS'TB'
p449
I5
sS'PL'
p450
I14
sS'TA'
p451
I3
ssg236
g420
sg237
I0
sg238
S'DKF 11'
p452
sg239
I0
sg240
I0
sg241
I0
sg242
I10
sg243
I0
sg244
I0
sg245
S'ES'
p453
sbssg211
I0
sg212
I0
sg213
I0
sg214
I0
sg215
F11.236842105263158
sg216
I0
sg217
I0
sg218
I0
sg219
(dp454
g248
I7
sg249
I9
sg250
I7
sg251
I10
sg252
I14
sg253
I6
sg254
I3
sg255
I7
sg256
I7
sg257
I9
sg258
I8
sg259
I14
sg260
I5
sg261
I14
sg262
I3
ssg236
g391
sg237
I1
sg238
S'DKF 11'
p455
sg239
I0
sg240
I0
sg241
I0
sg242
I10
sg243
I0
sg244
I0
sg245
S'ES'
p456
sbsg264
(ijoueur
joueur
p457
(dp458
g28
I0
sg32
I0
sg34
I0
sg35
g36
(g37
g38
Ntp459
Rp460
(dp461
g42
I2
sg43
S'^^'
p462
sg45
S'special'
p463
sbsg47
(dp464
S'SR'
p465
I0
sS'CT'
p466
I0
sS'CR'
p467
I0
sS'ST'
p468
I7
ssg53
(dp469
g465
I0
sg466
I0
sg467
I0
sg468
I0
ssg56
I0
sg57
I0
sg59
I01
sg60
I0
sg61
I0
sg62
I0
sg63
(S'dummy'
p470
S'TL'
p471
S'DL'
p472
g31
tp473
sg69
I01
sg70
g36
(g37
g38
Ntp474
Rp475
(dp476
g42
I2
sg43
S'^^'
p477
sg45
g463
sbsg75
(dp478
g465
I1
sg466
I12
sg467
I0
sg468
I1
ssg81
(dp479
g465
I0
sg466
I0
sg467
I0
sg468
I7
ssg83
(dp480
g465
I0
sg466
I0
sg467
I0
sg468
I0
ssg85
(dp481
g465
I1
sg466
I12
sg467
I0
sg468
I1
ssg87
I0
sg88
I0
sg89
S'Filodil'
p482
sg91
I3
sg92
I0
sg93
I13
sg94
I100
sg95
S'KHR'
p483
sg97
(dp484
S'A'
p485
I7
sS'ME'
p486
I9
sS'RP2'
p487
I7
sS'E'
p488
I10
sS'P'
p489
I7
sS'RP1'
p490
I6
sS'JP'
p491
I3
sS'RP_tot'
p492
I7
sS'TO'
p493
I14
sS'PA'
p494
I9
sS'M'
p495
I8
sS'R'
p496
I14
sS'TB'
p497
I5
sS'PL'
p498
I14
sS'TA'
p499
I3
ssg211
I0
sg212
I0
sg213
I0
sg214
I0
sg215
F11.578947368421053
sg216
I0
sg217
I0
sg218
I0
sg219
(dp500
S'A'
p501
I7
sS'ME'
p502
I9
sS'RP2'
p503
I7
sS'E'
p504
I10
sS'P'
p505
I7
sS'RP1'
p506
I6
sS'JP'
p507
I3
sS'RP_tot'
p508
I7
sS'TO'
p509
I14
sS'PA'
p510
I9
sS'M'
p511
I8
sS'R'
p512
I14
sS'TB'
p513
I5
sS'PL'
p514
I14
sS'TA'
p515
I3
ssg236
g484
sg237
I0
sg238
S'DKF 11'
p516
sg239
I0
sg240
I0
sg241
I0
sg242
I10
sg243
I0
sg244
I0
sg245
S'ES'
p517
sbssg211
I4
sg212
I0
sg213
I1
sg214
I0
sg215
F10.921052631578947
sg216
I0
sg217
I1
sg218
I0
sg219
(dp518
g327
I7
sg328
I9
sg329
I7
sg330
I10
sg331
I14
sg332
I6
sg333
I3
sg334
I7
sg335
I7
sg336
I9
sg337
I8
sg338
I14
sg339
I5
sg340
I14
sg341
I3
ssg236
(dp519
g99
I6
sg100
I9
sg101
I7
sg102
I10
sg107
I7
sg104
I6
sg105
I3
sg106
I7
sg103
I13
sg108
I9
sg109
I8
sg110
I13
sg111
I5
sg112
I13
sg113
I3
ssg237
I0
sg343
(dp520
sg239
I0
sg238
S'DKF 11'
p521
sg240
I0
sg241
I0
sg242
I10
sg243
I0
sg244
I0
sg245
S'ES'
p522
sbsS'RJL'
p523
(ijoueur
joueur
p524
(dp525
g27
F11.454545454545455
sg28
I1
sg29
F11.969696969696969
sg30
g31
sg32
I29
sg33
F93.55102650750894
sg34
I0
sg35
g36
(g37
g38
Ntp526
Rp527
(dp528
g42
I5
sg43
S'**'
p529
sg45
S'seigneur'
p530
sbsg47
(dp531
g49
I0
sg50
I0
sg51
I0
sg52
I0
ssg53
(dp532
g49
I0
sg50
I0
sg51
I0
sg52
I0
ssg55
I0
sg56
I0
sg57
I1
sg58
F93.55102650750894
sg59
I00
sg60
I2
sg61
I0
sg62
I0
sg63
(g64
S'DO'
p533
S'CE'
p534
S'AR'
p535
tp536
sg69
I00
sg70
g36
(g37
g38
Ntp537
Rp538
(dp539
g42
I5
sg43
S'**'
p540
sg45
g530
sbsg75
(dp541
g77
I0
sg78
I9
sg79
I0
sg80
I0
ssg81
(dp542
g77
I0
sg78
I0
sg79
I0
sg80
I0
ssg83
(dp543
g77
I0
sg78
I0
sg79
I0
sg80
I0
ssg85
(dp544
g49
I0
sg50
I37
sg51
I0
sg52
I12
ssg87
I16
sg88
I0
sg89
S'Rotovlav'
p545
sg91
I1
sg92
I0
sg93
I18
sg94
I477
sg95
g96
sg97
(dp546
g99
I10
sg100
I6
sg101
I10
sg102
I11
sg103
I7
sg104
I7
sg105
I13
sg106
I10
sg107
I11
sg108
I11
sg109
I12
sg110
I7
sg111
I9
sg112
I12
sg113
I6
ssg114
(dp547
g116
(ijoueur
joueur
p548
(dp549
g27
F11.454545454545455
sg28
I0
sg30
g31
sg32
I26
sg34
I0
sg35
g36
(g37
g38
Ntp550
Rp551
(dp552
g42
I5
sg43
S'**'
p553
sg45
S'seigneur'
p554
sbsg47
(dp555
g125
I0
sg126
I0
sg127
I0
sg128
I0
ssg53
(dp556
g125
I0
sg126
I0
sg127
I0
sg128
I0
ssg81
(dp557
g131
I0
sg132
I0
sg133
I0
sg134
I0
ssg56
I0
sg57
I0
sg60
I3
sg61
I3
sg62
I0
sg63
(g135
S'DO'
p558
S'CE'
p559
S'AR'
p560
tp561
sg69
I00
sg70
g36
(g37
g38
Ntp562
Rp563
(dp564
g42
I5
sg43
S'**'
p565
sg45
g554
sbsg75
(dp566
g131
I0
sg132
I5
sg133
I0
sg134
I14
ssg59
I00
sg83
(dp567
g131
I0
sg132
I0
sg133
I0
sg134
I0
ssg85
(dp568
g125
I0
sg126
I28
sg127
I0
sg128
I12
ssg87
I16
sg88
I9
sg89
S'Rotovlav'
p569
sg91
I1
sg92
I0
sg93
I18
sg94
I477
sg95
g148
sg97
(dp570
g150
I12
sg151
I6
sg152
I10
sg153
I12
sg154
I12
sg155
I7
sg156
I14
sg157
I10
sg158
I7
sg159
I11
sg160
I12
sg161
I8
sg162
I9
sg163
I13
sg164
I6
ssg114
(dp571
g166
(ijoueur
joueur
p572
(dp573
g28
I0
sg32
I24
sg34
I0
sg35
g36
(g37
g38
Ntp574
Rp575
(dp576
g42
I5
sg43
S'**'
p577
sg45
S'seigneur'
p578
sbsg47
(dp579
S'SR'
p580
I0
sS'CT'
p581
I0
sS'CR'
p582
I0
sS'ST'
p583
I0
ssg53
(dp584
g580
I0
sg581
I0
sg582
I0
sg583
I0
ssg56
I0
sg57
I0
sg59
I00
sg60
I1
sg61
I0
sg62
I0
sg63
(S'dummy'
p585
S'DO'
p586
S'CE'
p587
S'AR'
p588
tp589
sg69
I00
sg70
g36
(g37
g38
Ntp590
Rp591
(dp592
g42
I5
sg43
S'**'
p593
sg45
g578
sbsg75
(dp594
g580
I0
sg581
I14
sg582
I0
sg583
I6
ssg81
(dp595
g580
I0
sg581
I0
sg582
I0
sg583
I0
ssg83
(dp596
g580
I0
sg581
I0
sg582
I0
sg583
I0
ssg85
(dp597
g580
I0
sg581
I14
sg582
I0
sg583
I6
ssg87
I7
sg88
I0
sg89
S'Rotovlav'
p598
sg91
I1
sg92
I0
sg93
I18
sg94
I477
sg95
S'KHR'
p599
sg97
(dp600
S'A'
p601
I12
sS'ME'
p602
I6
sS'RP2'
p603
I10
sS'E'
p604
I11
sS'P'
p605
I12
sS'RP1'
p606
I7
sS'JP'
p607
I13
sS'RP_tot'
p608
I10
sS'TO'
p609
I7
sS'PA'
p610
I11
sS'M'
p611
I12
sS'R'
p612
I8
sS'TB'
p613
I8
sS'PL'
p614
I11
sS'TA'
p615
I6
ssg211
I0
sg212
I0
sg213
I0
sg214
I0
sg215
F11.454545454545455
sg216
I0
sg217
I0
sg218
I0
sg219
(dp616
S'A'
p617
I12
sS'ME'
p618
I6
sS'RP2'
p619
I10
sS'E'
p620
I11
sS'P'
p621
I12
sS'RP1'
p622
I7
sS'JP'
p623
I13
sS'RP_tot'
p624
I10
sS'TO'
p625
I7
sS'PA'
p626
I11
sS'M'
p627
I12
sS'R'
p628
I8
sS'TB'
p629
I8
sS'PL'
p630
I11
sS'TA'
p631
I6
ssg236
g600
sg237
I0
sg238
S'KH 11'
p632
sg239
I0
sg240
I7
sg241
I0
sg242
I42
sg243
I4
sg244
I0
sg245
S'CV'
p633
sbssg211
I9
sg212
I0
sg213
I1
sg214
I0
sg215
F11.969696969696969
sg216
I3
sg217
I1
sg218
I0
sg219
(dp634
g248
I12
sg249
I6
sg250
I10
sg251
I11
sg252
I7
sg253
I7
sg254
I13
sg255
I10
sg256
I12
sg257
I11
sg258
I12
sg259
I8
sg260
I8
sg261
I11
sg262
I6
ssg236
g570
sg237
I0
sg238
S'KH 11'
p635
sg239
I0
sg240
I2
sg241
I0
sg242
I42
sg243
I7
sg244
I0
sg245
S'CV'
p636
sbsg264
(ijoueur
joueur
p637
(dp638
g28
I0
sg32
I24
sg34
I0
sg35
g36
(g37
g38
Ntp639
Rp640
(dp641
g42
I5
sg43
S'**'
p642
sg45
S'seigneur'
p643
sbsg47
(dp644
S'SR'
p645
I0
sS'CT'
p646
I0
sS'CR'
p647
I0
sS'ST'
p648
I0
ssg53
(dp649
g645
I0
sg646
I0
sg647
I0
sg648
I0
ssg56
I0
sg57
I0
sg59
I00
sg60
I1
sg61
I0
sg62
I0
sg63
(S'dummy'
p650
S'DO'
p651
S'CE'
p652
S'AR'
p653
tp654
sg69
I00
sg70
g36
(g37
g38
Ntp655
Rp656
(dp657
g42
I5
sg43
S'**'
p658
sg45
g643
sbsg75
(dp659
g645
I0
sg646
I14
sg647
I0
sg648
I6
ssg81
(dp660
g645
I0
sg646
I0
sg647
I0
sg648
I0
ssg83
(dp661
g645
I0
sg646
I0
sg647
I0
sg648
I0
ssg85
(dp662
g645
I0
sg646
I14
sg647
I0
sg648
I6
ssg87
I7
sg88
I0
sg89
S'Rotovlav'
p663
sg91
I1
sg92
I0
sg93
I18
sg94
I477
sg95
S'KHR'
p664
sg97
(dp665
S'A'
p666
I12
sS'ME'
p667
I6
sS'RP2'
p668
I10
sS'E'
p669
I11
sS'P'
p670
I12
sS'RP1'
p671
I7
sS'JP'
p672
I13
sS'RP_tot'
p673
I10
sS'TO'
p674
I7
sS'PA'
p675
I11
sS'M'
p676
I12
sS'R'
p677
I8
sS'TB'
p678
I8
sS'PL'
p679
I11
sS'TA'
p680
I6
ssg211
I0
sg212
I0
sg213
I0
sg214
I0
sg215
F11.454545454545455
sg216
I0
sg217
I0
sg218
I0
sg219
(dp681
S'A'
p682
I12
sS'ME'
p683
I6
sS'RP2'
p684
I10
sS'E'
p685
I11
sS'P'
p686
I12
sS'RP1'
p687
I7
sS'JP'
p688
I13
sS'RP_tot'
p689
I10
sS'TO'
p690
I7
sS'PA'
p691
I11
sS'M'
p692
I12
sS'R'
p693
I8
sS'TB'
p694
I8
sS'PL'
p695
I11
sS'TA'
p696
I6
ssg236
g665
sg237
I0
sg238
S'KH 11'
p697
sg239
I0
sg240
I7
sg241
I0
sg242
I42
sg243
I4
sg244
I0
sg245
S'CV'
p698
sbssg211
I10
sg212
I1
sg213
I1
sg214
I0
sg215
F11.454545454545455
sg216
I3
sg217
I0
sg218
I0
sg219
(dp699
g327
I12
sg328
I6
sg329
I10
sg330
I11
sg331
I7
sg332
I7
sg333
I13
sg334
I10
sg335
I12
sg336
I11
sg337
I12
sg338
I8
sg339
I8
sg340
I11
sg341
I6
ssg236
(dp700
g99
I11
sg100
I6
sg101
I10
sg102
I11
sg107
I11
sg104
I7
sg105
I13
sg106
I10
sg103
I7
sg108
I11
sg109
I12
sg110
I8
sg111
I9
sg112
I13
sg113
I6
ssg237
I1
sg343
(dp701
sg239
I0
sg238
S'KH 11'
p702
sg240
I3
sg241
I0
sg242
I42
sg243
I9
sg244
I0
sg245
S'CV'
p703
sbsS'cap'
p704
(ijoueur
joueur
p705
(dp706
g27
F10.518518518518519
sg28
I0
sg29
F11.296296296296296
sg30
g31
sg32
I0
sg33
F102.97726440359185
sg34
I0
sg35
g36
(g37
g38
Ntp707
Rp708
(dp709
g42
I4
sg43
S'*'
p710
sg45
S'heros'
p711
sbsg47
(dp712
g49
I0
sg50
I0
sg51
I0
sg52
I0
ssg53
(dp713
g49
I0
sg50
I0
sg51
I0
sg52
I0
ssg55
I0
sg56
I0
sg57
I0
sg58
F102.97726440359185
sg59
I00
sg60
I1
sg61
I1
sg62
I7
sg63
(g64
S'PI'
p714
g31
g31
tp715
sg69
I00
sg70
g36
(g37
g38
Ntp716
Rp717
(dp718
g42
I5
sg43
S'**'
p719
sg45
S'seigneur'
p720
sbsg75
(dp721
g77
I0
sg78
I10
sg79
I0
sg80
I0
ssg81
(dp722
g77
I0
sg78
I0
sg79
I0
sg80
I0
ssg83
(dp723
g77
I0
sg78
I0
sg79
I0
sg80
I0
ssg85
(dp724
g49
I0
sg50
I37
sg51
I0
sg52
I16
ssg87
I5
sg88
I5
sg89
S'Stavaer'
p725
sg91
I5
sg92
I8
sg93
I15
sg94
I233
sg95
g96
sg97
(dp726
g99
I11
sg100
I11
sg101
I9
sg102
I12
sg103
I8
sg104
I11
sg105
I7
sg106
I12
sg107
I9
sg108
I11
sg109
I7
sg110
I10
sg111
I10
sg112
I12
sg113
I7
ssg114
(dp727
g116
(ijoueur
joueur
p728
(dp729
g27
F10.518518518518519
sg28
I0
sg30
g31
sg32
I0
sg34
I0
sg35
g36
(g37
g38
Ntp730
Rp731
(dp732
g42
I4
sg43
S'*'
p733
sg45
S'heros'
p734
sbsg47
(dp735
g125
I0
sg126
I0
sg127
I0
sg128
I0
ssg53
(dp736
g125
I0
sg126
I0
sg127
I0
sg128
I0
ssg81
(dp737
g131
I0
sg132
I0
sg133
I0
sg134
I0
ssg56
I0
sg57
I0
sg60
I0
sg61
I0
sg62
I0
sg63
(g135
S'PI'
p738
g31
g31
tp739
sg69
I00
sg70
g36
(g37
g38
Ntp740
Rp741
(dp742
g42
I5
sg43
S'**'
p743
sg45
S'seigneur'
p744
sbsg75
(dp745
g131
I0
sg132
I7
sg133
I0
sg134
I14
ssg59
I01
sg83
(dp746
g131
I0
sg132
I0
sg133
I0
sg134
I0
ssg85
(dp747
g125
I0
sg126
I27
sg127
I0
sg128
I16
ssg87
I0
sg88
I0
sg89
S'Stavaer'
p748
sg91
I5
sg92
I1
sg93
I15
sg94
I233
sg95
g148
sg97
(dp749
g150
I12
sg151
I9
sg152
I9
sg153
I12
sg154
I10
sg155
I11
sg156
I8
sg157
I13
sg158
I8
sg159
I11
sg160
I7
sg161
I11
sg162
I11
sg163
I13
sg164
I7
ssg114
(dp750
g166
(ijoueur
joueur
p751
(dp752
g28
I0
sg32
I0
sg34
I0
sg35
g36
(g37
g38
Ntp753
Rp754
(dp755
g42
I4
sg43
S'*'
p756
sg45
S'heros'
p757
sbsg47
(dp758
S'SR'
p759
I0
sS'CT'
p760
I0
sS'CR'
p761
I0
sS'ST'
p762
I0
ssg53
(dp763
g759
I0
sg760
I0
sg761
I0
sg762
I0
ssg56
I0
sg57
I0
sg59
I01
sg60
I3
sg61
I0
sg62
I1
sg63
(S'dummy'
p764
S'PI'
p765
g31
g31
tp766
sg69
I01
sg70
g36
(g37
g38
Ntp767
Rp768
(dp769
g42
I4
sg43
g756
sg45
g757
sbsg75
(dp770
g759
I0
sg760
I13
sg761
I0
sg762
I9
ssg81
(dp771
g759
I0
sg760
I0
sg761
I0
sg762
I0
ssg83
(dp772
g759
I0
sg760
I0
sg761
I0
sg762
I0
ssg85
(dp773
g759
I0
sg760
I13
sg761
I0
sg762
I9
ssg87
I0
sg88
I0
sg89
S'Stavaer'
p774
sg91
I5
sg92
I1
sg93
I15
sg94
I168
sg95
S'KHR'
p775
sg97
(dp776
S'A'
p777
I11
sS'ME'
p778
I9
sS'RP2'
p779
I8
sS'E'
p780
I11
sS'P'
p781
I8
sS'RP1'
p782
I11
sS'JP'
p783
I6
sS'RP_tot'
p784
I12
sS'TO'
p785
I7
sS'PA'
p786
I10
sS'M'
p787
I7
sS'R'
p788
I10
sS'TB'
p789
I9
sS'PL'
p790
I12
sS'TA'
p791
I7
ssg211
I0
sg212
I0
sg213
I0
sg214
I0
sg215
F10.518518518518519
sg216
I0
sg217
I0
sg218
I1
sg219
(dp792
S'A'
p793
I11
sS'ME'
p794
I9
sS'RP2'
p795
I8
sS'E'
p796
I11
sS'P'
p797
I8
sS'RP1'
p798
I11
sS'JP'
p799
I6
sS'RP_tot'
p800
I12
sS'TO'
p801
I7
sS'PA'
p802
I10
sS'M'
p803
I7
sS'R'
p804
I10
sS'TB'
p805
I9
sS'PL'
p806
I12
sS'TA'
p807
I7
ssg236
g776
sg237
I0
sg238
S'AL 11'
p808
sg239
I0
sg240
I0
sg241
I0
sg242
I7
sg243
I6
sg244
I1
sg245
S'ES'
p809
sbssg211
I3
sg212
I0
sg213
I0
sg214
I0
sg215
F11.296296296296296
sg216
I0
sg217
I0
sg218
I1
sg219
(dp810
g248
I11
sg249
I9
sg250
I8
sg251
I11
sg252
I7
sg253
I11
sg254
I6
sg255
I12
sg256
I8
sg257
I10
sg258
I7
sg259
I10
sg260
I9
sg261
I12
sg262
I7
ssg236
g749
sg237
I0
sg238
S'AL 11'
p811
sg239
I0
sg240
I0
sg241
I0
sg242
I13
sg243
I6
sg244
I0
sg245
S'ES'
p812
sbsg264
(ijoueur
joueur
p813
(dp814
g28
I0
sg32
I0
sg34
I0
sg35
g36
(g37
g38
Ntp815
Rp816
(dp817
g42
I4
sg43
S'*'
p818
sg45
S'heros'
p819
sbsg47
(dp820
S'SR'
p821
I0
sS'CT'
p822
I0
sS'CR'
p823
I0
sS'ST'
p824
I0
ssg53
(dp825
g821
I0
sg822
I0
sg823
I0
sg824
I0
ssg56
I0
sg57
I0
sg59
I01
sg60
I3
sg61
I0
sg62
I1
sg63
(S'dummy'
p826
S'PI'
p827
g31
g31
tp828
sg69
I01
sg70
g36
(g37
g38
Ntp829
Rp830
(dp831
g42
I4
sg43
g818
sg45
g819
sbsg75
(dp832
g821
I0
sg822
I13
sg823
I0
sg824
I9
ssg81
(dp833
g821
I0
sg822
I0
sg823
I0
sg824
I0
ssg83
(dp834
g821
I0
sg822
I0
sg823
I0
sg824
I0
ssg85
(dp835
g821
I0
sg822
I13
sg823
I0
sg824
I9
ssg87
I0
sg88
I0
sg89
S'Stavaer'
p836
sg91
I5
sg92
I1
sg93
I15
sg94
I168
sg95
S'KHR'
p837
sg97
(dp838
S'A'
p839
I11
sS'ME'
p840
I9
sS'RP2'
p841
I8
sS'E'
p842
I11
sS'P'
p843
I8
sS'RP1'
p844
I11
sS'JP'
p845
I6
sS'RP_tot'
p846
I12
sS'TO'
p847
I7
sS'PA'
p848
I10
sS'M'
p849
I7
sS'R'
p850
I10
sS'TB'
p851
I9
sS'PL'
p852
I12
sS'TA'
p853
I7
ssg211
I0
sg212
I0
sg213
I0
sg214
I0
sg215
F10.518518518518519
sg216
I0
sg217
I0
sg218
I1
sg219
(dp854
S'A'
p855
I11
sS'ME'
p856
I9
sS'RP2'
p857
I8
sS'E'
p858
I11
sS'P'
p859
I8
sS'RP1'
p860
I11
sS'JP'
p861
I6
sS'RP_tot'
p862
I12
sS'TO'
p863
I7
sS'PA'
p864
I10
sS'M'
p865
I7
sS'R'
p866
I10
sS'TB'
p867
I9
sS'PL'
p868
I12
sS'TA'
p869
I7
ssg236
g838
sg237
I0
sg238
S'AL 11'
p870
sg239
I0
sg240
I0
sg241
I0
sg242
I7
sg243
I6
sg244
I1
sg245
S'ES'
p871
sbssg211
I11
sg212
I0
sg213
I0
sg214
I0
sg215
F11.518518518518519
sg216
I1
sg217
I0
sg218
I1
sg219
(dp872
g327
I11
sg328
I9
sg329
I8
sg330
I11
sg331
I7
sg332
I11
sg333
I6
sg334
I12
sg335
I8
sg336
I10
sg337
I7
sg338
I10
sg339
I9
sg340
I12
sg341
I7
ssg236
(dp873
g99
I12
sg100
I11
sg101
I9
sg102
I12
sg107
I9
sg104
I11
sg105
I7
sg106
I12
sg103
I8
sg108
I11
sg109
I7
sg110
I11
sg111
I10
sg112
I13
sg113
I7
ssg237
I0
sg343
(dp874
sg239
I0
sg238
S'AL 11'
p875
sg240
I0
sg241
I0
sg242
I13
sg243
I7
sg244
I0
sg245
S'ES'
p876
sbsS'B4'
p877
(ijoueur
joueur
p878
(dp879
g27
F11.066666666666666
sg28
I2
sg29
F11.4
sg30
g31
sg32
I0
sg33
F103.20706496843272
sg34
I0
sg35
g36
(g37
g38
Ntp880
Rp881
(dp882
g42
I5
sg43
S'**'
p883
sg45
S'seigneur'
p884
sbsg47
(dp885
S'SR'
p886
I0
sS'CT'
p887
I25
sS'CR'
p888
I0
sS'ST'
p889
I11
ssg53
(dp890
g886
I0
sg887
I1
sg888
I0
sg889
I0
ssg55
I0
sg56
I0
sg215
F11.033333333333333
sg57
I0
sS'transformations'
p891
I0
sS'penalites'
p892
I0
sg60
I0
sg61
I3
sg62
I12
sg63
(S'dummy'
p893
S'C1'
p894
S'AR'
p895
S'AI'
p896
tp897
sg69
I00
sg70
g36
(g37
g38
Ntp898
Rp899
(dp900
g42
I5
sg43
S'**'
p901
sg45
g884
sbsg75
(dp902
g77
I0
sg78
I0
sg79
I1
sg80
I0
ssg59
I00
sg83
(dp903
g77
I0
sg78
I0
sg79
I0
sg80
I0
ssg85
(dp904
g886
I0
sg887
I13
sg888
I1
sg889
I1
ssg87
I78
sg88
I28
sg89
S'Matafierd'
p905
sg91
I8
sg92
I50
sg93
I20
sg94
I247
sg95
g96
sg97
(dp906
S'A'
p907
I14
sS'ME'
p908
I7
sS'RP2'
p909
I11
sS'E'
p910
I11
sS'TO'
p911
I6
sS'RP1'
p912
I10
sS'JP'
p913
I7
sS'RP_tot'
p914
I13
sS'P'
p915
I9
sS'PA'
p916
I9
sS'M'
p917
I10
sS'R'
p918
I8
sS'TB'
p919
I11
sS'PL'
p920
I13
sS'TA'
p921
I4
ssg114
(dp922
g116
(ijoueur
joueur
p923
(dp924
g27
F11.066666666666666
sg28
I1
sg30
g31
sg32
I0
sg34
I0
sg35
g36
(g37
g38
Ntp925
Rp926
(dp927
g42
I5
sg43
S'**'
p928
sg45
S'seigneur'
p929
sbsg47
(dp930
S'SR'
p931
I0
sS'CT'
p932
I16
sS'CR'
p933
I0
sS'ST'
p934
I11
ssg53
(dp935
g931
I0
sg932
I1
sg933
I0
sg934
I0
ssg56
I0
sg57
I0
sg891
I0
sg892
I0
sg59
I00
sg60
I5
sg61
I10
sg62
I38
sg63
(S'dummy'
p936
S'C1'
p937
S'AR'
p938
S'AI'
p939
tp940
sg69
I00
sg70
g36
(g37
g38
Ntp941
Rp942
(dp943
g42
I5
sg43
S'**'
p944
sg45
g929
sbsg75
(dp945
g131
I0
sg132
I1
sg133
I0
sg134
I13
ssg81
(dp946
g131
I0
sg132
I6
sg133
I0
sg134
I1
ssg83
(dp947
g131
I0
sg132
I0
sg133
I0
sg134
I1
ssg85
(dp948
g931
I0
sg932
I13
sg933
I0
sg934
I1
ssg87
I50
sg88
I50
sg89
S'Matafierd'
p949
sg91
I8
sg92
I38
sg93
I20
sg94
I247
sg95
g148
sg97
(dp950
S'A'
p951
I14
sS'ME'
p952
I7
sS'RP2'
p953
I11
sS'E'
p954
I11
sS'P'
p955
I10
sS'RP1'
p956
I10
sS'JP'
p957
I7
sS'RP_tot'
p958
I14
sS'TO'
p959
I6
sS'PA'
p960
I9
sS'M'
p961
I10
sS'R'
p962
I8
sS'TB'
p963
I10
sS'PL'
p964
I14
sS'TA'
p965
I4
ssg114
(dp966
g166
(ijoueur
joueur
p967
(dp968
g28
I0
sg32
I0
sg34
I0
sg35
g36
(g37
g38
Ntp969
Rp970
(dp971
g42
I5
sg43
S'**'
p972
sg45
S'seigneur'
p973
sbsg47
(dp974
S'SR'
p975
I0
sS'CT'
p976
I15
sS'CR'
p977
I0
sS'ST'
p978
I5
ssg53
(dp979
g975
I0
sg976
I0
sg977
I0
sg978
I0
ssg56
I0
sg215
F11.066666666666666
sg57
I0
sg891
I0
sg892
I0
sg60
I1
sg61
I0
sg62
I0
sg63
(S'dummy'
p980
S'C1'
p981
S'AR'
p982
S'AI'
p983
tp984
sg69
I01
sg70
g36
(g37
g38
Ntp985
Rp986
(dp987
g42
I5
sg43
S'**'
p988
sg45
g973
sbsg75
(dp989
g975
I0
sg976
I0
sg977
I0
sg978
I0
ssg59
I01
sg83
(dp990
g975
I0
sg976
I0
sg977
I0
sg978
I0
ssg85
(dp991
g975
I0
sg976
I0
sg977
I0
sg978
I0
ssg87
I0
sg88
I0
sg89
S'Matafierd'
p992
sg91
I8
sg92
I0
sg93
I20
sg94
I110
sg95
S'MSL'
p993
sg97
(dp994
S'A'
p995
I13
sS'ME'
p996
I7
sS'RP2'
p997
I11
sS'E'
p998
I11
sS'P'
p999
I9
sS'RP1'
p1000
I9
sS'JP'
p1001
I7
sS'RP_tot'
p1002
I13
sS'TO'
p1003
I6
sS'PA'
p1004
I9
sS'M'
p1005
I10
sS'R'
p1006
I8
sS'TB'
p1007
I9
sS'PL'
p1008
I14
sS'TA'
p1009
I4
ssg211
I0
sg212
I0
sg213
I0
sg214
I0
sg81
(dp1010
g975
I0
sg976
I15
sg977
I0
sg978
I5
ssg216
I0
sS'drops'
p1011
I0
sg217
I0
sg218
I0
sg219
(dp1012
S'A'
p1013
I13
sS'ME'
p1014
I7
sS'RP2'
p1015
I11
sS'E'
p1016
I11
sS'P'
p1017
I9
sS'RP1'
p1018
I9
sS'JP'
p1019
I7
sS'RP_tot'
p1020
I13
sS'TO'
p1021
I6
sS'PA'
p1022
I9
sS'M'
p1023
I10
sS'R'
p1024
I8
sS'TB'
p1025
I9
sS'PL'
p1026
I14
sS'TA'
p1027
I4
ssg236
g994
sg237
I0
sg238
g31
sg239
I0
sg240
I0
sg241
I0
sg242
I11
sg243
I10
sg244
I0
sg245
S'B'
p1028
sbssg211
I15
sg212
I0
sg213
I0
sg214
I0
sg215
F11.4
sg216
I10
sg1011
I0
sg217
I0
sg218
I0
sg219
(dp1029
S'A'
p1030
I13
sS'ME'
p1031
I7
sS'RP2'
p1032
I11
sS'E'
p1033
I11
sS'TO'
p1034
I6
sS'RP1'
p1035
I9
sS'JP'
p1036
I7
sS'RP_tot'
p1037
I13
sS'P'
p1038
I9
sS'PA'
p1039
I9
sS'M'
p1040
I10
sS'R'
p1041
I8
sS'TB'
p1042
I9
sS'PL'
p1043
I14
sS'TA'
p1044
I4
ssg236
g950
sg237
I1
sg238
S'MSL 12'
p1045
sg239
I4
sg240
I0
sg241
I4
sg242
I35
sg243
I15
sg244
I0
sg245
S'B'
p1046
sbsg264
(ijoueur
joueur
p1047
(dp1048
g28
I0
sg32
I0
sg34
I0
sg35
g36
(g37
g38
Ntp1049
Rp1050
(dp1051
g42
I5
sg43
S'**'
p1052
sg45
S'seigneur'
p1053
sbsg47
(dp1054
S'SR'
p1055
I0
sS'CT'
p1056
I15
sS'CR'
p1057
I0
sS'ST'
p1058
I5
ssg53
(dp1059
g1055
I0
sg1056
I0
sg1057
I0
sg1058
I0
ssg56
I0
sg215
F11.066666666666666
sg57
I0
sg891
I0
sg892
I0
sg60
I1
sg61
I0
sg62
I0
sg63
(S'dummy'
p1060
S'C1'
p1061
S'AR'
p1062
S'AI'
p1063
tp1064
sg69
I01
sg70
g36
(g37
g38
Ntp1065
Rp1066
(dp1067
g42
I5
sg43
S'**'
p1068
sg45
g1053
sbsg75
(dp1069
g1055
I0
sg1056
I0
sg1057
I0
sg1058
I0
ssg59
I01
sg83
(dp1070
g1055
I0
sg1056
I0
sg1057
I0
sg1058
I0
ssg85
(dp1071
g1055
I0
sg1056
I0
sg1057
I0
sg1058
I0
ssg87
I0
sg88
I0
sg89
S'Matafierd'
p1072
sg91
I8
sg92
I0
sg93
I20
sg94
I110
sg95
S'MSL'
p1073
sg97
(dp1074
S'A'
p1075
I13
sS'ME'
p1076
I7
sS'RP2'
p1077
I11
sS'E'
p1078
I11
sS'P'
p1079
I9
sS'RP1'
p1080
I9
sS'JP'
p1081
I7
sS'RP_tot'
p1082
I13
sS'TO'
p1083
I6
sS'PA'
p1084
I9
sS'M'
p1085
I10
sS'R'
p1086
I8
sS'TB'
p1087
I9
sS'PL'
p1088
I14
sS'TA'
p1089
I4
ssg211
I0
sg212
I0
sg213
I0
sg214
I0
sg81
(dp1090
g1055
I0
sg1056
I15
sg1057
I0
sg1058
I5
ssg216
I0
sg1011
I0
sg217
I0
sg218
I0
sg219
(dp1091
S'A'
p1092
I13
sS'ME'
p1093
I7
sS'RP2'
p1094
I11
sS'E'
p1095
I11
sS'P'
p1096
I9
sS'RP1'
p1097
I9
sS'JP'
p1098
I7
sS'RP_tot'
p1099
I13
sS'TO'
p1100
I6
sS'PA'
p1101
I9
sS'M'
p1102
I10
sS'R'
p1103
I8
sS'TB'
p1104
I9
sS'PL'
p1105
I14
sS'TA'
p1106
I4
ssg236
g1074
sg237
I0
sg238
g31
sg239
I0
sg240
I0
sg241
I0
sg242
I11
sg243
I10
sg244
I0
sg245
S'B'
p1107
sbssg211
I6
sg212
I0
sg213
I0
sg214
I0
sg81
(dp1108
g77
I0
sg78
I9
sg79
I0
sg80
I0
ssg216
I13
sg58
F103.20706496843272
sg1011
I0
sg217
I0
sg218
I0
sg219
(dp1109
S'A'
p1110
I13
sS'ME'
p1111
I7
sS'RP2'
p1112
I11
sS'E'
p1113
I11
sS'TO'
p1114
I6
sS'RP1'
p1115
I9
sS'JP'
p1116
I7
sS'RP_tot'
p1117
I13
sS'P'
p1118
I9
sS'PA'
p1119
I9
sS'M'
p1120
I10
sS'R'
p1121
I8
sS'TB'
p1122
I9
sS'PL'
p1123
I14
sS'TA'
p1124
I4
ssg236
(dp1125
g907
I14
sg908
I7
sg909
I11
sg910
I11
sg915
I9
sg912
I10
sg913
I7
sg914
I13
sg911
I6
sg916
I9
sg917
I10
sg918
I8
sg919
I11
sg920
I13
sg921
I4
ssg237
I1
sg343
(dp1126
sg239
I6
sg238
S'MSL 12'
p1127
sg240
I0
sg241
I2
sg242
I35
sg243
I15
sg244
I0
sg245
S'B'
p1128
sbsS'RJC'
p1129
g524
sS'B1'
p1130
g878
sS'B2'
p1131
g878
sS'B3'
p1132
g878
sS'SA_pcp2'
p1133
(ijoueur
joueur
p1134
(dp1135
g27
F9.526315789473685
sg28
I1
sg29
F11.210526315789474
sg30
g31
sg32
I0
sg33
F93.55102650750894
sS'poste3'
p1136
g31
sg34
I0
sS'poste1'
p1137
g31
sg35
g36
(g37
g38
Ntp1138
Rp1139
(dp1140
g42
I3
sg43
S'^^^'
p1141
sg45
S'rare'
p1142
sbsg47
(dp1143
S'SR'
p1144
I0
sS'ST'
p1145
I0
sS'CR'
p1146
I0
sS'CT'
p1147
I1
ssg53
(dp1148
g1144
I0
sg1145
I0
sg1146
I0
sg1147
I1
ssg55
I0
sg238
S'vide 12'
p1149
sg57
I0
sg58
F93.55102650750894
sg59
I00
sg60
I3
sg61
I0
sg62
I0
sg95
g96
sg69
I00
sg70
g1139
sg75
(dp1150
g77
I0
sg78
I8
sg79
I0
sg80
I0
ssg81
(dp1151
g77
I0
sg78
I1
sg79
I0
sg80
I0
ssg83
(dp1152
g77
I0
sg78
I0
sg79
I0
sg80
I0
ssg85
(dp1153
g1144
I0
sg1145
I9
sg1146
I0
sg1147
I21
ssg87
I0
sg88
I0
sg89
S'Areniev'
p1154
sg91
I6
sg92
I0
sg93
I15
sg94
I50
sg63
(S'dummy'
p1155
S'TL'
p1156
S'CE'
p1157
S'AR'
p1158
tp1159
sS'poste2'
p1160
g31
sg97
(dp1161
S'RP1'
p1162
I7
sS'ME'
p1163
I7
sS'RP2'
p1164
I5
sS'E'
p1165
I9
sS'P'
p1166
I5
sS'JP'
p1167
I4
sS'M'
p1168
I9
sS'RP_tot'
p1169
I7
sS'TO'
p1170
I13
sS'PA'
p1171
I8
sS'A'
p1172
I9
sS'R'
p1173
I13
sS'TB'
p1174
I4
sS'PL'
p1175
I14
sS'TA'
p1176
I3
ssg114
(dp1177
g116
(ijoueur
joueur
p1178
(dp1179
g27
F9.526315789473685
sg28
I1
sg30
g31
sg32
I0
sg1136
g31
sg34
I0
sg1137
g31
sg35
g36
(g37
g38
Ntp1180
Rp1181
(dp1182
g42
I3
sg43
S'^^^'
p1183
sg45
S'rare'
p1184
sbsg47
(dp1185
S'SR'
p1186
I0
sS'ST'
p1187
I0
sS'CR'
p1188
I0
sS'CT'
p1189
I0
ssg53
(dp1190
g1186
I0
sg1187
I0
sg1188
I0
sg1189
I1
ssg81
(dp1191
g131
I0
sg132
I0
sg133
I0
sg134
I0
ssg238
S'vide 12'
p1192
sg57
I0
sg60
I0
sg61
I0
sg62
I0
sg95
g148
sg69
I00
sg70
g1181
sg75
(dp1193
g131
I0
sg132
I6
sg133
I0
sg134
I13
ssg59
I01
sg83
(dp1194
g131
I0
sg132
I0
sg133
I0
sg134
I1
ssg85
(dp1195
g1186
I0
sg1187
I9
sg1188
I0
sg1189
I13
ssg87
I0
sg88
I0
sg89
S'Areniev'
p1196
sg91
I6
sg92
I0
sg93
I15
sg94
I50
sg63
(S'dummy'
p1197
S'TL'
p1198
S'CE'
p1199
S'AR'
p1200
tp1201
sg1160
g31
sg97
(dp1202
S'RP1'
p1203
I7
sS'ME'
p1204
I7
sS'RP2'
p1205
I6
sS'E'
p1206
I9
sS'TO'
p1207
I13
sS'M'
p1208
I9
sS'JP'
p1209
I4
sS'RP_tot'
p1210
I7
sS'P'
p1211
I5
sS'PA'
p1212
I8
sS'A'
p1213
I10
sS'R'
p1214
I13
sS'TB'
p1215
I4
sS'PL'
p1216
I14
sS'TA'
p1217
I3
ssg114
(dp1218
g166
(ijoueur
joueur
p1219
(dp1220
g28
I0
sg32
I0
sg1136
g31
sg34
I0
sg1137
g31
sg35
g36
(g37
g38
Ntp1221
Rp1222
(dp1223
g42
I3
sg43
S'^^^'
p1224
sg45
S'rare'
p1225
sbsg47
(dp1226
S'SR'
p1227
I0
sS'ST'
p1228
I0
sS'CR'
p1229
I0
sS'CT'
p1230
I0
ssg53
(dp1231
g1227
I0
sg1228
I0
sg1229
I0
sg1230
I0
ssg238
g31
sg57
I0
sg59
I01
sg60
I0
sg61
I0
sg62
I0
sg95
S'vide'
p1232
sg69
I01
sg70
g1222
sg75
(dp1233
g1227
I0
sg1228
I3
sg1229
I0
sg1230
I0
ssg81
(dp1234
g1227
I0
sg1228
I0
sg1229
I0
sg1230
I0
ssg83
(dp1235
g1227
I0
sg1228
I0
sg1229
I0
sg1230
I0
ssg85
(dp1236
g1227
I0
sg1228
I3
sg1229
I0
sg1230
I0
ssg87
I0
sg88
I0
sg89
S'Areniev'
p1237
sg91
I6
sg92
I0
sg93
I15
sg94
I13
sg63
(S'dummy'
p1238
S'TL'
p1239
S'CE'
p1240
S'AR'
p1241
tp1242
sg1160
g31
sg97
(dp1243
S'RP1'
p1244
I7
sS'ME'
p1245
I7
sS'RP2'
p1246
I6
sS'E'
p1247
I9
sS'TO'
p1248
I11
sS'M'
p1249
I8
sS'JP'
p1250
I4
sS'RP_tot'
p1251
I7
sS'P'
p1252
I5
sS'PA'
p1253
I8
sS'A'
p1254
I10
sS'R'
p1255
I9
sS'TB'
p1256
I4
sS'PL'
p1257
I12
sS'TA'
p1258
I3
ssg211
I0
sg212
I0
sg213
I0
sg214
I0
sg215
F9.526315789473685
sg216
I0
sg217
I0
sg218
I0
sg219
(dp1259
S'RP1'
p1260
I7
sS'ME'
p1261
I7
sS'RP2'
p1262
I6
sS'E'
p1263
I9
sS'TO'
p1264
I11
sS'M'
p1265
I8
sS'JP'
p1266
I4
sS'RP_tot'
p1267
I7
sS'P'
p1268
I5
sS'PA'
p1269
I8
sS'A'
p1270
I10
sS'R'
p1271
I9
sS'TB'
p1272
I4
sS'PL'
p1273
I12
sS'TA'
p1274
I3
ssg236
g1243
sg237
I0
sg239
I0
sg240
I0
sg241
I0
sg242
I1
sg243
I0
sg244
I0
sg245
S'K'
p1275
sbssg211
I13
sg212
I0
sg213
I1
sg214
I0
sg215
F11.210526315789474
sg216
I0
sg217
I1
sg218
I0
sg219
(dp1276
S'RP1'
p1277
I7
sS'ME'
p1278
I7
sS'RP2'
p1279
I6
sS'E'
p1280
I9
sS'TO'
p1281
I11
sS'M'
p1282
I8
sS'JP'
p1283
I4
sS'RP_tot'
p1284
I7
sS'P'
p1285
I5
sS'PA'
p1286
I8
sS'A'
p1287
I10
sS'R'
p1288
I9
sS'TB'
p1289
I4
sS'PL'
p1290
I12
sS'TA'
p1291
I3
ssg236
g1202
sg237
I1
sg239
I0
sg240
I0
sg241
I0
sg242
I9
sg243
I0
sg244
I0
sg245
S'K'
p1292
sbsg264
(ijoueur
joueur
p1293
(dp1294
g28
I0
sg32
I0
sg1136
g31
sg34
I0
sg1137
g31
sg35
g36
(g37
g38
Ntp1295
Rp1296
(dp1297
g42
I3
sg43
S'^^^'
p1298
sg45
S'rare'
p1299
sbsg47
(dp1300
S'SR'
p1301
I0
sS'ST'
p1302
I0
sS'CR'
p1303
I0
sS'CT'
p1304
I0
ssg53
(dp1305
g1301
I0
sg1302
I0
sg1303
I0
sg1304
I0
ssg238
g31
sg57
I0
sg59
I01
sg60
I0
sg61
I0
sg62
I0
sg95
S'vide'
p1306
sg69
I01
sg70
g1296
sg75
(dp1307
g1301
I0
sg1302
I3
sg1303
I0
sg1304
I0
ssg81
(dp1308
g1301
I0
sg1302
I0
sg1303
I0
sg1304
I0
ssg83
(dp1309
g1301
I0
sg1302
I0
sg1303
I0
sg1304
I0
ssg85
(dp1310
g1301
I0
sg1302
I3
sg1303
I0
sg1304
I0
ssg87
I0
sg88
I0
sg89
S'Areniev'
p1311
sg91
I6
sg92
I0
sg93
I15
sg94
I13
sg63
(S'dummy'
p1312
S'TL'
p1313
S'CE'
p1314
S'AR'
p1315
tp1316
sg1160
g31
sg97
(dp1317
S'RP1'
p1318
I7
sS'ME'
p1319
I7
sS'RP2'
p1320
I6
sS'E'
p1321
I9
sS'TO'
p1322
I11
sS'M'
p1323
I8
sS'JP'
p1324
I4
sS'RP_tot'
p1325
I7
sS'P'
p1326
I5
sS'PA'
p1327
I8
sS'A'
p1328
I10
sS'R'
p1329
I9
sS'TB'
p1330
I4
sS'PL'
p1331
I12
sS'TA'
p1332
I3
ssg211
I0
sg212
I0
sg213
I0
sg214
I0
sg215
F9.526315789473685
sg216
I0
sg217
I0
sg218
I0
sg219
(dp1333
S'RP1'
p1334
I7
sS'ME'
p1335
I7
sS'RP2'
p1336
I6
sS'E'
p1337
I9
sS'TO'
p1338
I11
sS'M'
p1339
I8
sS'JP'
p1340
I4
sS'RP_tot'
p1341
I7
sS'P'
p1342
I5
sS'PA'
p1343
I8
sS'A'
p1344
I10
sS'R'
p1345
I9
sS'TB'
p1346
I4
sS'PL'
p1347
I12
sS'TA'
p1348
I3
ssg236
g1317
sg237
I0
sg239
I0
sg240
I0
sg241
I0
sg242
I1
sg243
I0
sg244
I0
sg245
S'K'
p1349
sbssg211
I6
sg212
I0
sg213
I2
sg214
I0
sg215
F11.131578947368421
sg216
I0
sg217
I1
sg218
I0
sg219
(dp1350
S'RP1'
p1351
I7
sS'ME'
p1352
I7
sS'RP2'
p1353
I6
sS'E'
p1354
I9
sS'TO'
p1355
I11
sS'M'
p1356
I8
sS'JP'
p1357
I4
sS'RP_tot'
p1358
I7
sS'P'
p1359
I5
sS'PA'
p1360
I8
sS'A'
p1361
I10
sS'R'
p1362
I9
sS'TB'
p1363
I4
sS'PL'
p1364
I12
sS'TA'
p1365
I3
ssg236
(dp1366
g1162
I7
sg1163
I7
sg1164
I5
sg1165
I9
sg1170
I13
sg1168
I9
sg1167
I4
sg1169
I7
sg1166
I5
sg1171
I8
sg1172
I9
sg1173
I13
sg1174
I4
sg1175
I14
sg1176
I3
ssg237
I0
sg343
(dp1367
sg239
I0
sg240
I0
sg241
I0
sg242
I9
sg243
I3
sg244
I0
sg245
S'K'
p1368
sbsS'SA_pcp1'
p1369
(ijoueur
joueur
p1370
(dp1371
g27
F11.0
sg28
I0
sg29
F11.205882352941176
sg30
g31
sg32
I0
sg33
F93.55102650750894
sg34
I0
sg35
g36
(g37
g38
Ntp1372
Rp1373
(dp1374
g42
I4
sg43
g710
sg45
g711
sbsg47
(dp1375
g49
I0
sg50
I2
sg51
I0
sg52
I0
ssg53
(dp1376
g49
I0
sg50
I0
sg51
I0
sg52
I0
ssg55
I0
sg56
I0
sg57
I0
sg58
F93.55102650750894
sg59
I00
sg60
I0
sg61
I0
sg62
I0
sg63
(g64
S'DL'
p1377
S'N8'
p1378
g31
tp1379
sg69
I00
sg70
g36
(g37
g38
Ntp1380
Rp1381
(dp1382
g42
I4
sg43
g710
sg45
g711
sbsg75
(dp1383
g77
I0
sg78
I8
sg79
I1
sg80
I0
ssg81
(dp1384
g77
I0
sg78
I0
sg79
I0
sg80
I0
ssg83
(dp1385
g77
I0
sg78
I0
sg79
I0
sg80
I0
ssg85
(dp1386
g49
I2
sg50
I34
sg51
I1
sg52
I3
ssg87
I0
sg88
I0
sg89
S'Vyenzhol'
p1387
sg91
I7
sg92
I0
sg93
I14
sg94
I152
sg95
g96
sg97
(dp1388
g99
I10
sg100
I13
sg101
I6
sg102
I9
sg103
I14
sg104
I11
sg105
I4
sg106
I11
sg107
I3
sg108
I10
sg109
I9
sg110
I8
sg111
I2
sg112
I9
sg113
I6
ssg114
(dp1389
g116
(ijoueur
joueur
p1390
(dp1391
g27
F11.0
sg28
I0
sg30
g31
sg32
I0
sg34
I0
sg35
g36
(g37
g38
Ntp1392
Rp1393
(dp1394
g42
I4
sg43
g733
sg45
g734
sbsg47
(dp1395
g125
I0
sg126
I2
sg127
I0
sg128
I0
ssg53
(dp1396
g125
I0
sg126
I0
sg127
I0
sg128
I0
ssg81
(dp1397
g131
I0
sg132
I0
sg133
I0
sg134
I1
ssg56
I0
sg57
I0
sg60
I0
sg61
I0
sg62
I0
sg63
(g135
S'DL'
p1398
S'N8'
p1399
g31
tp1400
sg69
I00
sg70
g36
(g37
g38
Ntp1401
Rp1402
(dp1403
g42
I4
sg43
g733
sg45
g734
sbsg75
(dp1404
g131
I1
sg132
I2
sg133
I0
sg134
I13
ssg59
I01
sg83
(dp1405
g131
I0
sg132
I0
sg133
I0
sg134
I0
ssg85
(dp1406
g125
I2
sg126
I26
sg127
I0
sg128
I3
ssg87
I0
sg88
I0
sg89
S'Vyenzhol'
p1407
sg91
I7
sg92
I0
sg93
I14
sg94
I152
sg95
g148
sg97
(dp1408
g150
I11
sg151
I13
sg152
I6
sg153
I9
sg154
I3
sg155
I11
sg156
I4
sg157
I11
sg158
I14
sg159
I10
sg160
I9
sg161
I10
sg162
I2
sg163
I10
sg164
I6
ssg114
(dp1409
g166
(ijoueur
joueur
p1410
(dp1411
g28
I0
sg32
I0
sg34
I0
sg35
g36
(g37
g38
Ntp1412
Rp1413
(dp1414
g42
I4
sg43
S'*'
p1415
sg45
S'heros'
p1416
sbsg47
(dp1417
S'SR'
p1418
I0
sS'CT'
p1419
I1
sS'CR'
p1420
I0
sS'ST'
p1421
I0
ssg53
(dp1422
g1418
I0
sg1419
I0
sg1420
I0
sg1421
I0
ssg56
I0
sg57
I0
sg59
I01
sg60
I1
sg61
I0
sg62
I0
sg63
(S'dummy'
p1423
S'DL'
p1424
S'N8'
p1425
g31
tp1426
sg69
I00
sg70
g36
(g37
g38
Ntp1427
Rp1428
(dp1429
g42
I4
sg43
g1415
sg45
g1416
sbsg75
(dp1430
g1418
I1
sg1419
I13
sg1420
I0
sg1421
I1
ssg81
(dp1431
g1418
I0
sg1419
I1
sg1420
I0
sg1421
I0
ssg83
(dp1432
g1418
I0
sg1419
I0
sg1420
I0
sg1421
I0
ssg85
(dp1433
g1418
I1
sg1419
I13
sg1420
I0
sg1421
I1
ssg87
I0
sg88
I0
sg89
S'Vyenzhol'
p1434
sg91
I7
sg92
I0
sg93
I14
sg94
I152
sg95
S'KHR'
p1435
sg97
(dp1436
S'A'
p1437
I11
sS'ME'
p1438
I13
sS'RP2'
p1439
I6
sS'E'
p1440
I9
sS'P'
p1441
I3
sS'RP1'
p1442
I11
sS'JP'
p1443
I4
sS'RP_tot'
p1444
I11
sS'TO'
p1445
I14
sS'PA'
p1446
I10
sS'M'
p1447
I9
sS'R'
p1448
I9
sS'TB'
p1449
I2
sS'PL'
p1450
I10
sS'TA'
p1451
I6
ssg211
I0
sg212
I0
sg213
I0
sg214
I0
sg215
F11.0
sg216
I0
sg217
I0
sg218
I0
sg219
(dp1452
S'A'
p1453
I11
sS'ME'
p1454
I13
sS'RP2'
p1455
I6
sS'E'
p1456
I9
sS'P'
p1457
I3
sS'RP1'
p1458
I11
sS'JP'
p1459
I4
sS'RP_tot'
p1460
I11
sS'TO'
p1461
I14
sS'PA'
p1462
I10
sS'M'
p1463
I9
sS'R'
p1464
I9
sS'TB'
p1465
I2
sS'PL'
p1466
I10
sS'TA'
p1467
I6
ssg236
g1436
sg237
I0
sg238
g31
sg239
I0
sg240
I0
sg241
I0
sg242
I15
sg243
I6
sg244
I0
sg245
S'CHS'
p1468
sbssg211
I0
sg212
I0
sg213
I0
sg214
I0
sg215
F11.205882352941176
sg216
I0
sg217
I0
sg218
I1
sg219
(dp1469
g248
I11
sg249
I13
sg250
I6
sg251
I9
sg252
I14
sg253
I11
sg254
I4
sg255
I11
sg256
I3
sg257
I10
sg258
I9
sg259
I9
sg260
I2
sg261
I10
sg262
I6
ssg236
g1408
sg237
I0
sg238
g31
sg239
I0
sg240
I0
sg241
I0
sg242
I15
sg243
I6
sg244
I1
sg245
S'CHS'
p1470
sbsg264
(ijoueur
joueur
p1471
(dp1472
g28
I0
sg32
I0
sg34
I0
sg35
g36
(g37
g38
Ntp1473
Rp1474
(dp1475
g42
I4
sg43
S'*'
p1476
sg45
S'heros'
p1477
sbsg47
(dp1478
S'SR'
p1479
I0
sS'CT'
p1480
I1
sS'CR'
p1481
I0
sS'ST'
p1482
I0
ssg53
(dp1483
g1479
I0
sg1480
I0
sg1481
I0
sg1482
I0
ssg56
I0
sg57
I0
sg59
I01
sg60
I1
sg61
I0
sg62
I0
sg63
(S'dummy'
p1484
S'DL'
p1485
S'N8'
p1486
g31
tp1487
sg69
I00
sg70
g36
(g37
g38
Ntp1488
Rp1489
(dp1490
g42
I4
sg43
g1476
sg45
g1477
sbsg75
(dp1491
g1479
I1
sg1480
I13
sg1481
I0
sg1482
I1
ssg81
(dp1492
g1479
I0
sg1480
I1
sg1481
I0
sg1482
I0
ssg83
(dp1493
g1479
I0
sg1480
I0
sg1481
I0
sg1482
I0
ssg85
(dp1494
g1479
I1
sg1480
I13
sg1481
I0
sg1482
I1
ssg87
I0
sg88
I0
sg89
S'Vyenzhol'
p1495
sg91
I7
sg92
I0
sg93
I14
sg94
I152
sg95
S'KHR'
p1496
sg97
(dp1497
S'A'
p1498
I11
sS'ME'
p1499
I13
sS'RP2'
p1500
I6
sS'E'
p1501
I9
sS'P'
p1502
I3
sS'RP1'
p1503
I11
sS'JP'
p1504
I4
sS'RP_tot'
p1505
I11
sS'TO'
p1506
I14
sS'PA'
p1507
I10
sS'M'
p1508
I9
sS'R'
p1509
I9
sS'TB'
p1510
I2
sS'PL'
p1511
I10
sS'TA'
p1512
I6
ssg211
I0
sg212
I0
sg213
I0
sg214
I0
sg215
F11.0
sg216
I0
sg217
I0
sg218
I0
sg219
(dp1513
S'A'
p1514
I11
sS'ME'
p1515
I13
sS'RP2'
p1516
I6
sS'E'
p1517
I9
sS'P'
p1518
I3
sS'RP1'
p1519
I11
sS'JP'
p1520
I4
sS'RP_tot'
p1521
I11
sS'TO'
p1522
I14
sS'PA'
p1523
I10
sS'M'
p1524
I9
sS'R'
p1525
I9
sS'TB'
p1526
I2
sS'PL'
p1527
I10
sS'TA'
p1528
I6
ssg236
g1497
sg237
I0
sg238
g31
sg239
I0
sg240
I0
sg241
I0
sg242
I15
sg243
I6
sg244
I0
sg245
S'CHS'
p1529
sbssg211
I10
sg212
I0
sg213
I0
sg214
I0
sg215
F11.0
sg216
I0
sg217
I0
sg218
I1
sg219
(dp1530
g327
I11
sg328
I13
sg329
I6
sg330
I9
sg331
I14
sg332
I11
sg333
I4
sg334
I11
sg335
I3
sg336
I10
sg337
I9
sg338
I9
sg339
I2
sg340
I10
sg341
I6
ssg236
(dp1531
g99
I11
sg100
I13
sg101
I6
sg102
I9
sg107
I3
sg104
I11
sg105
I4
sg106
I11
sg103
I14
sg108
I10
sg109
I9
sg110
I9
sg111
I2
sg112
I10
sg113
I6
ssg237
I0
sg343
(dp1532
sg239
I0
sg238
g31
sg240
I0
sg241
I0
sg242
I15
sg243
I6
sg244
I0
sg245
S'CHS'
p1533
sbsS'drop3'
p1534
g524
sS'SA_remp1'
p1535
(ijoueur
joueur
p1536
(dp1537
g27
F11.0
sg28
I0
sg29
F10.852941176470589
sg30
g31
sg32
I0
sg33
F103.7357738481939
sg34
I0
sg35
g36
(g37
g38
Ntp1538
Rp1539
(dp1540
g42
I5
sg43
S'**'
p1541
sg45
g530
sbsg47
(dp1542
g49
I0
sg50
I0
sg51
I0
sg52
I0
ssg53
(dp1543
g49
I0
sg50
I0
sg51
I0
sg52
I0
ssg55
I0
sg56
I0
sg57
I0
sg58
F103.7357738481939
sg59
I00
sg60
I3
sg61
I0
sg62
I0
sg63
(g64
S'PI'
p1544
S'N8'
p1545
S'DL'
p1546
tp1547
sg69
I00
sg70
g36
(g37
g38
Ntp1548
Rp1549
(dp1550
g42
I5
sg43
S'**'
p1551
sg45
g530
sbsg75
(dp1552
g77
I0
sg78
I9
sg79
I1
sg80
I0
ssg81
(dp1553
g77
I0
sg78
I0
sg79
I0
sg80
I0
ssg83
(dp1554
g77
I0
sg78
I0
sg79
I0
sg80
I0
ssg85
(dp1555
g49
I0
sg50
I36
sg51
I2
sg52
I9
ssg87
I0
sg88
I0
sg89
S'Dylzohed'
p1556
sg91
I6
sg92
I0
sg93
I16
sg94
I210
sg95
g96
sg97
(dp1557
g99
I8
sg100
I11
sg101
I7
sg102
I11
sg103
I12
sg104
I11
sg105
I2
sg106
I11
sg107
I4
sg108
I12
sg109
I8
sg110
I10
sg111
I4
sg112
I10
sg113
I8
ssg114
(dp1558
g116
(ijoueur
joueur
p1559
(dp1560
g27
F11.0
sg28
I0
sg30
g31
sg32
I0
sg34
I0
sg35
g36
(g37
g38
Ntp1561
Rp1562
(dp1563
g42
I5
sg43
S'**'
p1564
sg45
g554
sbsg47
(dp1565
g125
I0
sg126
I0
sg127
I0
sg128
I0
ssg53
(dp1566
g125
I0
sg126
I0
sg127
I0
sg128
I0
ssg81
(dp1567
g131
I0
sg132
I0
sg133
I0
sg134
I0
ssg56
I0
sg57
I0
sg60
I0
sg61
I0
sg62
I0
sg63
(g135
S'PI'
p1568
S'N8'
p1569
S'DL'
p1570
tp1571
sg69
I00
sg70
g36
(g37
g38
Ntp1572
Rp1573
(dp1574
g42
I5
sg43
S'**'
p1575
sg45
g554
sbsg75
(dp1576
g131
I0
sg132
I5
sg133
I1
sg134
I14
ssg59
I00
sg83
(dp1577
g131
I0
sg132
I0
sg133
I0
sg134
I0
ssg85
(dp1578
g125
I0
sg126
I27
sg127
I1
sg128
I9
ssg87
I0
sg88
I0
sg89
S'Dylzohed'
p1579
sg91
I6
sg92
I0
sg93
I16
sg94
I210
sg95
g148
sg97
(dp1580
g150
I9
sg151
I11
sg152
I7
sg153
I11
sg154
I4
sg155
I11
sg156
I2
sg157
I11
sg158
I12
sg159
I12
sg160
I8
sg161
I10
sg162
I4
sg163
I11
sg164
I8
ssg114
(dp1581
g166
(ijoueur
joueur
p1582
(dp1583
g28
I0
sg32
I0
sg34
I0
sg35
g36
(g37
g38
Ntp1584
Rp1585
(dp1586
g42
I5
sg43
S'**'
p1587
sg45
S'seigneur'
p1588
sbsg47
(dp1589
S'SR'
p1590
I0
sS'CT'
p1591
I0
sS'CR'
p1592
I0
sS'ST'
p1593
I0
ssg53
(dp1594
g1590
I0
sg1591
I0
sg1592
I0
sg1593
I0
ssg56
I0
sg57
I0
sg59
I00
sg60
I0
sg61
I0
sg62
I0
sg63
(S'dummy'
p1595
S'PI'
p1596
S'N8'
p1597
S'DL'
p1598
tp1599
sg69
I00
sg70
g36
(g37
g38
Ntp1600
Rp1601
(dp1602
g42
I5
sg43
S'**'
p1603
sg45
g1588
sbsg75
(dp1604
g1590
I0
sg1591
I13
sg1592
I0
sg1593
I4
ssg81
(dp1605
g1590
I0
sg1591
I0
sg1592
I0
sg1593
I0
ssg83
(dp1606
g1590
I0
sg1591
I0
sg1592
I0
sg1593
I0
ssg85
(dp1607
g1590
I0
sg1591
I13
sg1592
I0
sg1593
I4
ssg87
I0
sg88
I0
sg89
S'Dylzohed'
p1608
sg91
I6
sg92
I0
sg93
I16
sg94
I210
sg95
S'KHR'
p1609
sg97
(dp1610
S'A'
p1611
I10
sS'ME'
p1612
I11
sS'RP2'
p1613
I7
sS'E'
p1614
I11
sS'P'
p1615
I4
sS'RP1'
p1616
I11
sS'JP'
p1617
I2
sS'RP_tot'
p1618
I11
sS'TO'
p1619
I12
sS'PA'
p1620
I12
sS'M'
p1621
I7
sS'R'
p1622
I10
sS'TB'
p1623
I4
sS'PL'
p1624
I12
sS'TA'
p1625
I8
ssg211
I0
sg212
I0
sg213
I0
sg214
I0
sg215
F11.0
sg216
I0
sg217
I0
sg218
I0
sg219
(dp1626
S'A'
p1627
I10
sS'ME'
p1628
I11
sS'RP2'
p1629
I7
sS'E'
p1630
I11
sS'P'
p1631
I4
sS'RP1'
p1632
I11
sS'JP'
p1633
I2
sS'RP_tot'
p1634
I11
sS'TO'
p1635
I12
sS'PA'
p1636
I12
sS'M'
p1637
I7
sS'R'
p1638
I10
sS'TB'
p1639
I4
sS'PL'
p1640
I12
sS'TA'
p1641
I8
ssg236
g1610
sg237
I0
sg238
g31
sg239
I0
sg240
I0
sg241
I0
sg242
I21
sg243
I12
sg244
I0
sg245
S'CHS'
p1642
sbssg211
I3
sg212
I0
sg213
I0
sg214
I0
sg215
F10.852941176470589
sg216
I0
sg217
I0
sg218
I0
sg219
(dp1643
g248
I10
sg249
I11
sg250
I7
sg251
I11
sg252
I12
sg253
I11
sg254
I2
sg255
I11
sg256
I4
sg257
I12
sg258
I7
sg259
I10
sg260
I4
sg261
I12
sg262
I8
ssg236
g1580
sg237
I0
sg238
g31
sg239
I0
sg240
I0
sg241
I0
sg242
I21
sg243
I12
sg244
I0
sg245
S'CHS'
p1644
sbsg264
(ijoueur
joueur
p1645
(dp1646
g28
I0
sg32
I0
sg34
I0
sg35
g36
(g37
g38
Ntp1647
Rp1648
(dp1649
g42
I5
sg43
S'**'
p1650
sg45
S'seigneur'
p1651
sbsg47
(dp1652
S'SR'
p1653
I0
sS'CT'
p1654
I0
sS'CR'
p1655
I0
sS'ST'
p1656
I0
ssg53
(dp1657
g1653
I0
sg1654
I0
sg1655
I0
sg1656
I0
ssg56
I0
sg57
I0
sg59
I00
sg60
I0
sg61
I0
sg62
I0
sg63
(S'dummy'
p1658
S'PI'
p1659
S'N8'
p1660
S'DL'
p1661
tp1662
sg69
I00
sg70
g36
(g37
g38
Ntp1663
Rp1664
(dp1665
g42
I5
sg43
S'**'
p1666
sg45
g1651
sbsg75
(dp1667
g1653
I0
sg1654
I13
sg1655
I0
sg1656
I4
ssg81
(dp1668
g1653
I0
sg1654
I0
sg1655
I0
sg1656
I0
ssg83
(dp1669
g1653
I0
sg1654
I0
sg1655
I0
sg1656
I0
ssg85
(dp1670
g1653
I0
sg1654
I13
sg1655
I0
sg1656
I4
ssg87
I0
sg88
I0
sg89
S'Dylzohed'
p1671
sg91
I6
sg92
I0
sg93
I16
sg94
I210
sg95
S'KHR'
p1672
sg97
(dp1673
S'A'
p1674
I10
sS'ME'
p1675
I11
sS'RP2'
p1676
I7
sS'E'
p1677
I11
sS'P'
p1678
I4
sS'RP1'
p1679
I11
sS'JP'
p1680
I2
sS'RP_tot'
p1681
I11
sS'TO'
p1682
I12
sS'PA'
p1683
I12
sS'M'
p1684
I7
sS'R'
p1685
I10
sS'TB'
p1686
I4
sS'PL'
p1687
I12
sS'TA'
p1688
I8
ssg211
I0
sg212
I0
sg213
I0
sg214
I0
sg215
F11.0
sg216
I0
sg217
I0
sg218
I0
sg219
(dp1689
S'A'
p1690
I10
sS'ME'
p1691
I11
sS'RP2'
p1692
I7
sS'E'
p1693
I11
sS'P'
p1694
I4
sS'RP1'
p1695
I11
sS'JP'
p1696
I2
sS'RP_tot'
p1697
I11
sS'TO'
p1698
I12
sS'PA'
p1699
I12
sS'M'
p1700
I7
sS'R'
p1701
I10
sS'TB'
p1702
I4
sS'PL'
p1703
I12
sS'TA'
p1704
I8
ssg236
g1673
sg237
I0
sg238
g31
sg239
I0
sg240
I0
sg241
I0
sg242
I21
sg243
I12
sg244
I0
sg245
S'CHS'
p1705
sbssg211
I14
sg212
I0
sg213
I0
sg214
I0
sg215
F11.029411764705882
sg216
I0
sg217
I0
sg218
I1
sg219
(dp1706
g327
I10
sg328
I11
sg329
I7
sg330
I11
sg331
I12
sg332
I11
sg333
I2
sg334
I11
sg335
I4
sg336
I12
sg337
I7
sg338
I10
sg339
I4
sg340
I12
sg341
I8
ssg236
(dp1707
g99
I9
sg100
I11
sg101
I7
sg102
I11
sg107
I4
sg104
I11
sg105
I2
sg106
I11
sg103
I12
sg108
I12
sg109
I8
sg110
I11
sg111
I4
sg112
I11
sg113
I8
ssg237
I0
sg343
(dp1708
sg239
I0
sg238
g31
sg240
I0
sg241
I0
sg242
I21
sg243
I15
sg244
I1
sg245
S'CHS'
p1709
sbsS'drop2'
p1710
g524
sS'SA_remp2'
p1711
(ijoueur
joueur
p1712
(dp1713
g27
F10.903225806451612
sg28
I0
sg29
F10.947368421052632
sg30
g31
sg32
I0
sg33
F103.50597328335303
sg34
I0
sg35
g36
(g37
g38
Ntp1714
Rp1715
(dp1716
g42
I4
sg43
g710
sg45
g711
sbsg47
(dp1717
g49
I0
sg50
I34
sg51
I0
sg52
I0
ssg53
(dp1718
g49
I0
sg50
I0
sg51
I0
sg52
I0
ssg55
I0
sg56
I0
sg57
I0
sg58
F103.50597328335303
sg59
I00
sg60
I1
sg61
I0
sg62
I0
sg63
(g64
S'TL'
p1719
S'N8'
p1720
g31
tp1721
sg69
I00
sg70
g36
(g37
g38
Ntp1722
Rp1723
(dp1724
g42
I4
sg43
g710
sg45
g711
sbsg75
(dp1725
g77
I0
sg78
I0
sg79
I0
sg80
I0
ssg81
(dp1726
g77
I0
sg78
I10
sg79
I0
sg80
I0
ssg83
(dp1727
g77
I0
sg78
I0
sg79
I0
sg80
I0
ssg85
(dp1728
g49
I1
sg50
I3
sg51
I0
sg52
I0
ssg87
I0
sg88
I0
sg89
S'Vgadhr'
p1729
sg91
I7
sg92
I0
sg93
I20
sg94
I494
sg95
g96
sg97
(dp1730
g99
I8
sg100
I10
sg101
I8
sg102
I12
sg103
I11
sg104
I11
sg105
I5
sg106
I12
sg107
I6
sg108
I8
sg109
I10
sg110
I9
sg111
I4
sg112
I12
sg113
I6
ssg114
(dp1731
g116
(ijoueur
joueur
p1732
(dp1733
g27
F10.903225806451612
sg28
I0
sg30
g31
sg32
I0
sg34
I0
sg35
g36
(g37
g38
Ntp1734
Rp1735
(dp1736
g42
I4
sg43
g733
sg45
g734
sbsg47
(dp1737
g125
I0
sg126
I24
sg127
I0
sg128
I0
ssg53
(dp1738
g125
I0
sg126
I0
sg127
I0
sg128
I0
ssg81
(dp1739
g131
I0
sg132
I0
sg133
I0
sg134
I14
ssg56
I0
sg57
I0
sg60
I0
sg61
I0
sg62
I0
sg63
(g135
S'TL'
p1740
S'N8'
p1741
g31
tp1742
sg69
I00
sg70
g36
(g37
g38
Ntp1743
Rp1744
(dp1745
g42
I4
sg43
g733
sg45
g734
sbsg75
(dp1746
g131
I0
sg132
I0
sg133
I0
sg134
I0
ssg59
I00
sg83
(dp1747
g131
I0
sg132
I0
sg133
I0
sg134
I0
ssg85
(dp1748
g125
I1
sg126
I3
sg127
I0
sg128
I0
ssg87
I0
sg88
I0
sg89
S'Vgadhr'
p1749
sg91
I7
sg92
I0
sg93
I20
sg94
I494
sg95
g148
sg97
(dp1750
g150
I9
sg151
I10
sg152
I8
sg153
I12
sg154
I6
sg155
I11
sg156
I5
sg157
I12
sg158
I11
sg159
I8
sg160
I10
sg161
I10
sg162
I4
sg163
I13
sg164
I6
ssg114
(dp1751
g166
(ijoueur
joueur
p1752
(dp1753
g28
I0
sg32
I0
sg34
I0
sg35
g36
(g37
g38
Ntp1754
Rp1755
(dp1756
g42
I4
sg43
S'*'
p1757
sg45
S'heros'
p1758
sbsg47
(dp1759
S'SR'
p1760
I0
sS'CT'
p1761
I10
sS'CR'
p1762
I0
sS'ST'
p1763
I0
ssg53
(dp1764
g1760
I0
sg1761
I0
sg1762
I0
sg1763
I0
ssg56
I0
sg57
I0
sg59
I00
sg60
I2
sg61
I0
sg62
I0
sg63
(S'dummy'
p1765
S'TL'
p1766
S'N8'
p1767
g31
tp1768
sg69
I01
sg70
g36
(g37
g38
Ntp1769
Rp1770
(dp1771
g42
I4
sg43
g1757
sg45
g1758
sbsg75
(dp1772
g1760
I1
sg1761
I3
sg1762
I0
sg1763
I0
ssg81
(dp1773
g1760
I0
sg1761
I10
sg1762
I0
sg1763
I0
ssg83
(dp1774
g1760
I0
sg1761
I0
sg1762
I0
sg1763
I0
ssg85
(dp1775
g1760
I1
sg1761
I3
sg1762
I0
sg1763
I0
ssg87
I0
sg88
I0
sg89
S'Vgadhr'
p1776
sg91
I7
sg92
I0
sg93
I20
sg94
I494
sg95
S'KHR'
p1777
sg97
(dp1778
S'A'
p1779
I9
sS'ME'
p1780
I10
sS'RP2'
p1781
I7
sS'E'
p1782
I12
sS'P'
p1783
I6
sS'RP1'
p1784
I11
sS'JP'
p1785
I5
sS'RP_tot'
p1786
I11
sS'TO'
p1787
I10
sS'PA'
p1788
I8
sS'M'
p1789
I10
sS'R'
p1790
I11
sS'TB'
p1791
I4
sS'PL'
p1792
I12
sS'TA'
p1793
I6
ssg211
I0
sg212
I0
sg213
I0
sg214
I0
sg215
F10.903225806451612
sg216
I0
sg217
I0
sg218
I0
sg219
(dp1794
S'A'
p1795
I9
sS'ME'
p1796
I10
sS'RP2'
p1797
I7
sS'E'
p1798
I12
sS'P'
p1799
I6
sS'RP1'
p1800
I11
sS'JP'
p1801
I5
sS'RP_tot'
p1802
I11
sS'TO'
p1803
I10
sS'PA'
p1804
I8
sS'M'
p1805
I10
sS'R'
p1806
I11
sS'TB'
p1807
I4
sS'PL'
p1808
I12
sS'TA'
p1809
I6
ssg236
g1778
sg237
I0
sg238
S'QNL 11'
p1810
sg239
I0
sg240
I0
sg241
I0
sg242
I42
sg243
I11
sg244
I0
sg245
S'HB'
p1811
sbssg211
I11
sg212
I0
sg213
I0
sg214
I0
sg215
F10.947368421052632
sg216
I0
sg217
I0
sg218
I0
sg219
(dp1812
g248
I9
sg249
I10
sg250
I7
sg251
I12
sg252
I10
sg253
I11
sg254
I5
sg255
I11
sg256
I6
sg257
I8
sg258
I10
sg259
I11
sg260
I4
sg261
I12
sg262
I6
ssg236
g1750
sg237
I0
sg238
S'QNL 11'
p1813
sg239
I0
sg240
I0
sg241
I0
sg242
I42
sg243
I11
sg244
I0
sg245
S'HB'
p1814
sbsg264
(ijoueur
joueur
p1815
(dp1816
g28
I0
sg32
I0
sg34
I0
sg35
g36
(g37
g38
Ntp1817
Rp1818
(dp1819
g42
I4
sg43
S'*'
p1820
sg45
S'heros'
p1821
sbsg47
(dp1822
S'SR'
p1823
I0
sS'CT'
p1824
I10
sS'CR'
p1825
I0
sS'ST'
p1826
I0
ssg53
(dp1827
g1823
I0
sg1824
I0
sg1825
I0
sg1826
I0
ssg56
I0
sg57
I0
sg59
I00
sg60
I2
sg61
I0
sg62
I0
sg63
(S'dummy'
p1828
S'TL'
p1829
S'N8'
p1830
g31
tp1831
sg69
I01
sg70
g36
(g37
g38
Ntp1832
Rp1833
(dp1834
g42
I4
sg43
g1820
sg45
g1821
sbsg75
(dp1835
g1823
I1
sg1824
I3
sg1825
I0
sg1826
I0
ssg81
(dp1836
g1823
I0
sg1824
I10
sg1825
I0
sg1826
I0
ssg83
(dp1837
g1823
I0
sg1824
I0
sg1825
I0
sg1826
I0
ssg85
(dp1838
g1823
I1
sg1824
I3
sg1825
I0
sg1826
I0
ssg87
I0
sg88
I0
sg89
S'Vgadhr'
p1839
sg91
I7
sg92
I0
sg93
I20
sg94
I494
sg95
S'KHR'
p1840
sg97
(dp1841
S'A'
p1842
I9
sS'ME'
p1843
I10
sS'RP2'
p1844
I7
sS'E'
p1845
I12
sS'P'
p1846
I6
sS'RP1'
p1847
I11
sS'JP'
p1848
I5
sS'RP_tot'
p1849
I11
sS'TO'
p1850
I10
sS'PA'
p1851
I8
sS'M'
p1852
I10
sS'R'
p1853
I11
sS'TB'
p1854
I4
sS'PL'
p1855
I12
sS'TA'
p1856
I6
ssg211
I0
sg212
I0
sg213
I0
sg214
I0
sg215
F10.903225806451612
sg216
I0
sg217
I0
sg218
I0
sg219
(dp1857
S'A'
p1858
I9
sS'ME'
p1859
I10
sS'RP2'
p1860
I7
sS'E'
p1861
I12
sS'P'
p1862
I6
sS'RP1'
p1863
I11
sS'JP'
p1864
I5
sS'RP_tot'
p1865
I11
sS'TO'
p1866
I10
sS'PA'
p1867
I8
sS'M'
p1868
I10
sS'R'
p1869
I11
sS'TB'
p1870
I4
sS'PL'
p1871
I12
sS'TA'
p1872
I6
ssg236
g1841
sg237
I0
sg238
S'QNL 11'
p1873
sg239
I0
sg240
I0
sg241
I0
sg242
I42
sg243
I11
sg244
I0
sg245
S'HB'
p1874
sbssg211
I13
sg212
I0
sg213
I0
sg214
I0
sg215
F10.947368421052632
sg216
I0
sg217
I0
sg218
I0
sg219
(dp1875
g327
I9
sg328
I10
sg329
I7
sg330
I12
sg331
I10
sg332
I11
sg333
I5
sg334
I11
sg335
I6
sg336
I8
sg337
I10
sg338
I11
sg339
I4
sg340
I12
sg341
I6
ssg236
(dp1876
g99
I9
sg100
I10
sg101
I8
sg102
I12
sg107
I6
sg104
I11
sg105
I5
sg106
I12
sg103
I11
sg108
I8
sg109
I10
sg110
I10
sg111
I4
sg112
I13
sg113
I6
ssg237
I0
sg343
(dp1877
sg239
I0
sg238
S'QNL 11'
p1878
sg240
I0
sg241
I0
sg242
I42
sg243
I12
sg244
I0
sg245
S'HB'
p1879
sbssg89
csip
_unpickle_type
p1880
(S'PyQt4.QtCore'
p1881
S'QString'
p1882
(VKHR_APA
p1883
tp1884
tp1885
Rp1886
sS'totaux'
p1887
(dp1888
g19
I0
sg20
I0
sg21
I0
ssS'_compo_defaut_fatigue'
p1889
Nsg97
(dp1890
g4
I0
sg5
I0
sg6
I0
sg7
I0
sg8
I0
sg9
I0
sg10
I0
sg11
I0
sg12
I0
sg13
I0
sg14
I0
sg15
I0
sg16
I0
ssS'joueurs'
p1891
(dp1892
S'n12'
p1893
(ijoueur
joueur
p1894
(dp1895
g27
F10.393939393939394
sg28
I0
sg29
F10.0
sg30
g31
sg32
I0
sg33
F93.55102650750894
sg34
I0
sg35
g36
(g37
g38
Ntp1896
Rp1897
(dp1898
g42
I3
sg43
S'^^^'
p1899
sg45
S'rare'
p1900
sbsg47
(dp1901
g49
I0
sg50
I13
sg51
I0
sg52
I0
ssg53
(dp1902
g49
I0
sg50
I22
sg51
I0
sg52
I12
ssg55
I0
sg56
I0
sg57
I0
sg58
F93.55102650750894
sg59
I00
sg60
I0
sg61
I0
sg62
I0
sg63
(g64
S'AR'
p1903
S'AI'
p1904
S'CE'
p1905
tp1906
sg69
I00
sg70
g36
(g37
g38
Ntp1907
Rp1908
(dp1909
g42
I3
sg43
S'^^^'
p1910
sg45
g1900
sbsg75
(dp1911
g77
I0
sg78
I0
sg79
I0
sg80
I0
ssg81
(dp1912
g77
I0
sg78
I0
sg79
I0
sg80
I0
ssg83
(dp1913
g77
I0
sg78
I9
sg79
I0
sg80
I0
ssg85
(dp1914
g49
I0
sg50
I0
sg51
I0
sg52
I0
ssg87
I0
sg88
I0
sg89
S'De Portel'
p1915
sg91
I2
sg92
I0
sg93
I15
sg94
I100
sg95
g96
sg97
(dp1916
g99
I10
sg100
I5
sg101
I11
sg102
I10
sg103
I3
sg104
I8
sg105
I7
sg106
I12
sg107
I10
sg108
I11
sg109
I10
sg110
I7
sg111
I6
sg112
I8
sg113
I4
ssg114
(dp1917
g116
(ijoueur
joueur
p1918
(dp1919
g27
F10.393939393939394
sg28
I0
sg30
g31
sg32
I0
sg34
I0
sg35
g36
(g37
g38
Ntp1920
Rp1921
(dp1922
g42
I3
sg43
S'^^^'
p1923
sg45
S'rare'
p1924
sbsg47
(dp1925
g125
I0
sg126
I13
sg127
I0
sg128
I0
ssg53
(dp1926
g125
I0
sg126
I13
sg127
I0
sg128
I12
ssg81
(dp1927
g131
I0
sg132
I0
sg133
I0
sg134
I13
ssg56
I0
sg57
I0
sg60
I5
sg61
I0
sg62
I0
sg63
(g135
S'AR'
p1928
S'AI'
p1929
S'CE'
p1930
tp1931
sg69
I00
sg70
g36
(g37
g38
Ntp1932
Rp1933
(dp1934
g42
I3
sg43
S'^^^'
p1935
sg45
g1924
sbsg75
(dp1936
g131
I0
sg132
I0
sg133
I0
sg134
I0
ssg59
I00
sg83
(dp1937
g131
I0
sg132
I7
sg133
I0
sg134
I0
ssg85
(dp1938
g125
I0
sg126
I0
sg127
I0
sg128
I0
ssg87
I0
sg88
I0
sg89
S'De Portel'
p1939
sg91
I2
sg92
I0
sg93
I15
sg94
I100
sg95
g148
sg97
(dp1940
g150
I11
sg151
I5
sg152
I10
sg153
I10
sg154
I10
sg155
I8
sg156
I7
sg157
I11
sg158
I3
sg159
I11
sg160
I10
sg161
I8
sg162
I6
sg163
I9
sg164
I4
ssg114
(dp1941
g166
(ijoueur
joueur
p1942
(dp1943
g28
I0
sg32
I0
sg34
I0
sg35
g36
(g37
g38
Ntp1944
Rp1945
(dp1946
g42
I3
sg43
S'^^^'
p1947
sg45
S'rare'
p1948
sbsg47
(dp1949
S'SR'
p1950
I0
sS'CT'
p1951
I0
sS'CR'
p1952
I0
sS'ST'
p1953
I0
ssg53
(dp1954
g1950
I0
sg1951
I13
sg1952
I0
sg1953
I5
ssg56
I0
sg57
I0
sg59
I00
sg60
I4
sg61
I0
sg62
I0
sg63
(S'dummy'
p1955
S'AR'
p1956
S'AI'
p1957
S'CE'
p1958
tp1959
sg69
I00
sg70
g36
(g37
g38
Ntp1960
Rp1961
(dp1962
g42
I3
sg43
S'^^^'
p1963
sg45
g1948
sbsg75
(dp1964
g1950
I0
sg1951
I0
sg1952
I0
sg1953
I0
ssg81
(dp1965
g1950
I0
sg1951
I0
sg1952
I0
sg1953
I0
ssg83
(dp1966
g1950
I0
sg1951
I13
sg1952
I0
sg1953
I5
ssg85
(dp1967
g1950
I0
sg1951
I0
sg1952
I0
sg1953
I0
ssg87
I0
sg88
I0
sg89
S'De Portel'
p1968
sg91
I2
sg92
I0
sg93
I15
sg94
I100
sg95
S'KHR'
p1969
sg97
(dp1970
S'A'
p1971
I11
sS'ME'
p1972
I5
sS'RP2'
p1973
I11
sS'E'
p1974
I10
sS'P'
p1975
I10
sS'RP1'
p1976
I9
sS'JP'
p1977
I7
sS'RP_tot'
p1978
I13
sS'TO'
p1979
I3
sS'PA'
p1980
I12
sS'M'
p1981
I10
sS'R'
p1982
I8
sS'TB'
p1983
I6
sS'PL'
p1984
I9
sS'TA'
p1985
I4
ssg211
I0
sg212
I0
sg213
I0
sg214
I0
sg215
F10.393939393939394
sg216
I0
sg217
I0
sg218
I0
sg219
(dp1986
S'A'
p1987
I11
sS'ME'
p1988
I5
sS'RP2'
p1989
I11
sS'E'
p1990
I10
sS'P'
p1991
I10
sS'RP1'
p1992
I9
sS'JP'
p1993
I7
sS'RP_tot'
p1994
I13
sS'TO'
p1995
I3
sS'PA'
p1996
I12
sS'M'
p1997
I10
sS'R'
p1998
I8
sS'TB'
p1999
I6
sS'PL'
p2000
I9
sS'TA'
p2001
I4
ssg236
g1970
sg237
I0
sg238
S'MSL 11'
p2002
sg239
I0
sg240
I0
sg241
I0
sg242
I10
sg243
I4
sg244
I0
sg245
S'B'
p2003
sbssg211
I6
sg212
I0
sg213
I0
sg214
I0
sg215
F10.0
sg216
I0
sg217
I0
sg218
I0
sg219
(dp2004
g248
I11
sg249
I5
sg250
I11
sg251
I10
sg252
I3
sg253
I9
sg254
I7
sg255
I13
sg256
I10
sg257
I12
sg258
I10
sg259
I8
sg260
I6
sg261
I9
sg262
I4
ssg236
g1940
sg237
I0
sg238
S'MSL 11'
p2005
sg239
I0
sg240
I0
sg241
I0
sg242
I10
sg243
I9
sg244
I0
sg245
S'B'
p2006
sbsg264
(ijoueur
joueur
p2007
(dp2008
g28
I0
sg32
I0
sg34
I0
sg35
g36
(g37
g38
Ntp2009
Rp2010
(dp2011
g42
I3
sg43
S'^^^'
p2012
sg45
S'rare'
p2013
sbsg47
(dp2014
S'SR'
p2015
I0
sS'CT'
p2016
I0
sS'CR'
p2017
I0
sS'ST'
p2018
I0
ssg53
(dp2019
g2015
I0
sg2016
I13
sg2017
I0
sg2018
I5
ssg56
I0
sg57
I0
sg59
I00
sg60
I4
sg61
I0
sg62
I0
sg63
(S'dummy'
p2020
S'AR'
p2021
S'AI'
p2022
S'CE'
p2023
tp2024
sg69
I00
sg70
g36
(g37
g38
Ntp2025
Rp2026
(dp2027
g42
I3
sg43
S'^^^'
p2028
sg45
g2013
sbsg75
(dp2029
g2015
I0
sg2016
I0
sg2017
I0
sg2018
I0
ssg81
(dp2030
g2015
I0
sg2016
I0
sg2017
I0
sg2018
I0
ssg83
(dp2031
g2015
I0
sg2016
I13
sg2017
I0
sg2018
I5
ssg85
(dp2032
g2015
I0
sg2016
I0
sg2017
I0
sg2018
I0
ssg87
I0
sg88
I0
sg89
S'De Portel'
p2033
sg91
I2
sg92
I0
sg93
I15
sg94
I100
sg95
S'KHR'
p2034
sg97
(dp2035
S'A'
p2036
I11
sS'ME'
p2037
I5
sS'RP2'
p2038
I11
sS'E'
p2039
I10
sS'P'
p2040
I10
sS'RP1'
p2041
I9
sS'JP'
p2042
I7
sS'RP_tot'
p2043
I13
sS'TO'
p2044
I3
sS'PA'
p2045
I12
sS'M'
p2046
I10
sS'R'
p2047
I8
sS'TB'
p2048
I6
sS'PL'
p2049
I9
sS'TA'
p2050
I4
ssg211
I0
sg212
I0
sg213
I0
sg214
I0
sg215
F10.393939393939394
sg216
I0
sg217
I0
sg218
I0
sg219
(dp2051
S'A'
p2052
I11
sS'ME'
p2053
I5
sS'RP2'
p2054
I11
sS'E'
p2055
I10
sS'P'
p2056
I10
sS'RP1'
p2057
I9
sS'JP'
p2058
I7
sS'RP_tot'
p2059
I13
sS'TO'
p2060
I3
sS'PA'
p2061
I12
sS'M'
p2062
I10
sS'R'
p2063
I8
sS'TB'
p2064
I6
sS'PL'
p2065
I9
sS'TA'
p2066
I4
ssg236
g2035
sg237
I0
sg238
S'MSL 11'
p2067
sg239
I0
sg240
I0
sg241
I0
sg242
I10
sg243
I4
sg244
I0
sg245
S'B'
p2068
sbssg211
I9
sg212
I0
sg213
I0
sg214
I0
sg215
F10.151515151515152
sg216
I0
sg217
I0
sg218
I0
sg219
(dp2069
g327
I11
sg328
I5
sg329
I11
sg330
I10
sg331
I3
sg332
I9
sg333
I7
sg334
I13
sg335
I10
sg336
I12
sg337
I10
sg338
I8
sg339
I6
sg340
I9
sg341
I4
ssg236
(dp2070
g99
I11
sg100
I5
sg101
I11
sg102
I10
sg107
I10
sg104
I8
sg105
I7
sg106
I12
sg103
I3
sg108
I11
sg109
I10
sg110
I8
sg111
I6
sg112
I9
sg113
I4
ssg237
I0
sg343
(dp2071
sg239
I0
sg238
S'MSL 11'
p2072
sg240
I0
sg241
I0
sg242
I10
sg243
I9
sg244
I0
sg245
S'B'
p2073
sbsS'n13'
p2074
(ijoueur
joueur
p2075
(dp2076
g27
F11.233333333333333
sg28
I0
sg29
F12.133333333333333
sg30
g31
sg32
I12
sg33
F103.50597328335303
sg34
I0
sg35
g36
(g37
g38
Ntp2077
Rp2078
(dp2079
g42
I4
sg43
g710
sg45
g711
sbsg47
(dp2080
g49
I3
sg50
I0
sg51
I0
sg52
I1
ssg53
(dp2081
g49
I2
sg50
I0
sg51
I0
sg52
I2
ssg55
I0
sg56
I0
sg57
I0
sg58
F103.50597328335303
sg59
I00
sg60
I4
sg61
I0
sg62
I0
sg63
(g64
S'C1'
p2082
S'AR'
p2083
S'AI'
p2084
tp2085
sg69
I00
sg70
g36
(g37
g38
Ntp2086
Rp2087
(dp2088
g42
I4
sg43
g710
sg45
g711
sbsg75
(dp2089
g77
I0
sg78
I10
sg79
I0
sg80
I0
ssg81
(dp2090
g77
I0
sg78
I0
sg79
I0
sg80
I0
ssg83
(dp2091
g77
I0
sg78
I0
sg79
I0
sg80
I0
ssg85
(dp2092
g49
I1
sg50
I38
sg51
I0
sg52
I7
ssg87
I5
sg88
I5
sg89
S'Soled'
p2093
sg91
I5
sg92
I0
sg93
I18
sg94
I133
sg95
g96
sg97
(dp2094
g99
I12
sg100
I6
sg101
I11
sg102
I12
sg103
I9
sg104
I11
sg105
I9
sg106
I14
sg107
I9
sg108
I14
sg109
I10
sg110
I5
sg111
I9
sg112
I11
sg113
I5
ssg114
(dp2095
g116
(ijoueur
joueur
p2096
(dp2097
g27
F11.233333333333333
sg28
I0
sg30
g31
sg32
I12
sg34
I0
sg35
g36
(g37
g38
Ntp2098
Rp2099
(dp2100
g42
I4
sg43
g733
sg45
g734
sbsg47
(dp2101
g125
I3
sg126
I0
sg127
I0
sg128
I1
ssg53
(dp2102
g125
I2
sg126
I0
sg127
I0
sg128
I2
ssg81
(dp2103
g131
I0
sg132
I0
sg133
I0
sg134
I0
ssg56
I0
sg57
I0
sg60
I4
sg61
I0
sg62
I0
sg63
(g135
S'C1'
p2104
S'AR'
p2105
S'AI'
p2106
tp2107
sg69
I00
sg70
g36
(g37
g38
Ntp2108
Rp2109
(dp2110
g42
I4
sg43
g733
sg45
g734
sbsg75
(dp2111
g131
I0
sg132
I7
sg133
I0
sg134
I14
ssg59
I01
sg83
(dp2112
g131
I0
sg132
I0
sg133
I0
sg134
I0
ssg85
(dp2113
g125
I1
sg126
I28
sg127
I0
sg128
I7
ssg87
I0
sg88
I0
sg89
S'Soled'
p2114
sg91
I5
sg92
I0
sg93
I18
sg94
I133
sg95
g148
sg97
(dp2115
g150
I14
sg151
I6
sg152
I11
sg153
I12
sg154
I9
sg155
I11
sg156
I11
sg157
I15
sg158
I9
sg159
I14
sg160
I10
sg161
I7
sg162
I8
sg163
I12
sg164
I5
ssg114
(dp2116
g166
(ijoueur
joueur
p2117
(dp2118
g28
I0
sg32
I11
sg34
I0
sg35
g36
(g37
g38
Ntp2119
Rp2120
(dp2121
g42
I4
sg43
S'*'
p2122
sg45
S'heros'
p2123
sbsg47
(dp2124
S'SR'
p2125
I3
sS'CT'
p2126
I0
sS'CR'
p2127
I0
sS'ST'
p2128
I1
ssg53
(dp2129
g2125
I2
sg2126
I0
sg2127
I0
sg2128
I2
ssg56
I0
sg57
I0
sg59
I01
sg60
I2
sg61
I0
sg62
I0
sg63
(S'dummy'
p2130
S'C1'
p2131
S'AR'
p2132
S'AI'
p2133
tp2134
sg69
I01
sg70
g36
(g37
g38
Ntp2135
Rp2136
(dp2137
g42
I4
sg43
g2122
sg45
g2123
sbsg75
(dp2138
g2125
I1
sg2126
I14
sg2127
I0
sg2128
I0
ssg81
(dp2139
g2125
I3
sg2126
I0
sg2127
I0
sg2128
I1
ssg83
(dp2140
g2125
I2
sg2126
I0
sg2127
I0
sg2128
I2
ssg85
(dp2141
g2125
I1
sg2126
I14
sg2127
I0
sg2128
I0
ssg87
I0
sg88
I0
sg89
S'Soled'
p2142
sg91
I5
sg92
I0
sg93
I18
sg94
I133
sg95
S'KHR'
p2143
sg97
(dp2144
S'A'
p2145
I14
sS'ME'
p2146
I6
sS'RP2'
p2147
I9
sS'E'
p2148
I11
sS'P'
p2149
I8
sS'RP1'
p2150
I9
sS'JP'
p2151
I11
sS'RP_tot'
p2152
I11
sS'TO'
p2153
I9
sS'PA'
p2154
I14
sS'M'
p2155
I10
sS'R'
p2156
I7
sS'TB'
p2157
I8
sS'PL'
p2158
I11
sS'TA'
p2159
I5
ssg211
I0
sg212
I0
sg213
I0
sg214
I0
sg215
F11.233333333333333
sg216
I0
sg217
I0
sg218
I0
sg219
(dp2160
S'A'
p2161
I14
sS'ME'
p2162
I6
sS'RP2'
p2163
I9
sS'E'
p2164
I11
sS'P'
p2165
I8
sS'RP1'
p2166
I9
sS'JP'
p2167
I11
sS'RP_tot'
p2168
I11
sS'TO'
p2169
I9
sS'PA'
p2170
I14
sS'M'
p2171
I10
sS'R'
p2172
I7
sS'TB'
p2173
I8
sS'PL'
p2174
I11
sS'TA'
p2175
I5
ssg236
g2144
sg237
I0
sg238
g31
sg239
I0
sg240
I3
sg241
I0
sg242
I8
sg243
I10
sg244
I0
sg245
S'ES'
p2176
sbssg211
I7
sg212
I0
sg213
I0
sg214
I0
sg215
F12.133333333333333
sg216
I0
sg217
I0
sg218
I1
sg219
(dp2177
g248
I14
sg249
I6
sg250
I9
sg251
I11
sg252
I9
sg253
I9
sg254
I11
sg255
I11
sg256
I8
sg257
I14
sg258
I10
sg259
I7
sg260
I8
sg261
I11
sg262
I5
ssg236
g2115
sg237
I0
sg238
g31
sg239
I0
sg240
I1
sg241
I0
sg242
I49
sg243
I14
sg244
I1
sg245
S'ES'
p2178
sbsg264
(ijoueur
joueur
p2179
(dp2180
g28
I0
sg32
I11
sg34
I0
sg35
g36
(g37
g38
Ntp2181
Rp2182
(dp2183
g42
I4
sg43
S'*'
p2184
sg45
S'heros'
p2185
sbsg47
(dp2186
S'SR'
p2187
I3
sS'CT'
p2188
I0
sS'CR'
p2189
I0
sS'ST'
p2190
I1
ssg53
(dp2191
g2187
I2
sg2188
I0
sg2189
I0
sg2190
I2
ssg56
I0
sg57
I0
sg59
I01
sg60
I2
sg61
I0
sg62
I0
sg63
(S'dummy'
p2192
S'C1'
p2193
S'AR'
p2194
S'AI'
p2195
tp2196
sg69
I01
sg70
g36
(g37
g38
Ntp2197
Rp2198
(dp2199
g42
I4
sg43
g2184
sg45
g2185
sbsg75
(dp2200
g2187
I1
sg2188
I14
sg2189
I0
sg2190
I0
ssg81
(dp2201
g2187
I3
sg2188
I0
sg2189
I0
sg2190
I1
ssg83
(dp2202
g2187
I2
sg2188
I0
sg2189
I0
sg2190
I2
ssg85
(dp2203
g2187
I1
sg2188
I14
sg2189
I0
sg2190
I0
ssg87
I0
sg88
I0
sg89
S'Soled'
p2204
sg91
I5
sg92
I0
sg93
I18
sg94
I133
sg95
S'KHR'
p2205
sg97
(dp2206
S'A'
p2207
I14
sS'ME'
p2208
I6
sS'RP2'
p2209
I9
sS'E'
p2210
I11
sS'P'
p2211
I8
sS'RP1'
p2212
I9
sS'JP'
p2213
I11
sS'RP_tot'
p2214
I11
sS'TO'
p2215
I9
sS'PA'
p2216
I14
sS'M'
p2217
I10
sS'R'
p2218
I7
sS'TB'
p2219
I8
sS'PL'
p2220
I11
sS'TA'
p2221
I5
ssg211
I0
sg212
I0
sg213
I0
sg214
I0
sg215
F11.233333333333333
sg216
I0
sg217
I0
sg218
I0
sg219
(dp2222
S'A'
p2223
I14
sS'ME'
p2224
I6
sS'RP2'
p2225
I9
sS'E'
p2226
I11
sS'P'
p2227
I8
sS'RP1'
p2228
I9
sS'JP'
p2229
I11
sS'RP_tot'
p2230
I11
sS'TO'
p2231
I9
sS'PA'
p2232
I14
sS'M'
p2233
I10
sS'R'
p2234
I7
sS'TB'
p2235
I8
sS'PL'
p2236
I11
sS'TA'
p2237
I5
ssg236
g2206
sg237
I0
sg238
g31
sg239
I0
sg240
I3
sg241
I0
sg242
I8
sg243
I10
sg244
I0
sg245
S'ES'
p2238
sbssg211
I10
sg212
I0
sg213
I0
sg214
I0
sg215
F11.666666666666666
sg216
I0
sg217
I0
sg218
I1
sg219
(dp2239
g327
I14
sg328
I6
sg329
I9
sg330
I11
sg331
I9
sg332
I9
sg333
I11
sg334
I11
sg335
I8
sg336
I14
sg337
I10
sg338
I7
sg339
I8
sg340
I11
sg341
I5
ssg236
(dp2240
g99
I13
sg100
I6
sg101
I11
sg102
I12
sg107
I9
sg104
I11
sg105
I9
sg106
I14
sg103
I9
sg108
I14
sg109
I10
sg110
I6
sg111
I9
sg112
I12
sg113
I5
ssg237
I0
sg343
(dp2241
sg239
I0
sg238
g31
sg240
I0
sg241
I0
sg242
I49
sg243
I18
sg244
I0
sg245
S'ES'
p2242
sbsS'n10'
p2243
g524
sS'n11'
p2244
(ijoueur
joueur
p2245
(dp2246
g27
F13.838709677419354
sg28
I1
sg29
F13.64516129032258
sg30
g31
sg32
I0
sg33
F93.55102650750894
sg34
I0
sg35
g36
(g37
g38
Ntp2247
Rp2248
(dp2249
g42
I5
sg43
S'xx'
p2250
sg45
S'seigneur'
p2251
sbsg47
(dp2252
S'SR'
p2253
I0
sS'ST'
p2254
I0
sS'CR'
p2255
I0
sS'CT'
p2256
I0
ssg53
(dp2257
g2253
I0
sg2254
I0
sg2255
I0
sg2256
I0
ssg55
I0
sg56
I0
sg57
I0
sg58
F93.55102650750894
sg59
I00
sg60
I2
sg61
I0
sg62
I0
sg63
(S'dummy'
p2258
S'AI'
p2259
S'CE'
p2260
S'AR'
p2261
tp2262
sg69
I00
sg70
g36
(g37
g38
Ntp2263
Rp2264
(dp2265
g42
I5
sg43
S'xx'
p2266
sg45
g2251
sbsg75
(dp2267
g77
I0
sg78
I9
sg79
I0
sg80
I0
ssg81
(dp2268
g77
I0
sg78
I0
sg79
I0
sg80
I0
ssg83
(dp2269
g77
I0
sg78
I0
sg79
I0
sg80
I0
ssg85
(dp2270
g2253
I0
sg2254
I14
sg2255
I0
sg2256
I37
ssg87
I0
sg88
I0
sg89
S'Drask'
p2271
sg91
I7
sg92
I0
sg93
I17
sg94
I3519
sg95
g96
sg97
(dp2272
S'A'
p2273
I15
sS'ME'
p2274
I6
sS'RP2'
p2275
I11
sS'E'
p2276
I13
sS'P'
p2277
I9
sS'RP1'
p2278
I11
sS'JP'
p2279
I8
sS'RP_tot'
p2280
I14
sS'TO'
p2281
I10
sS'PA'
p2282
I13
sS'M'
p2283
I14
sS'R'
p2284
I9
sS'TB'
p2285
I7
sS'PL'
p2286
I14
sS'TA'
p2287
I8
ssg114
(dp2288
S's12'
p2289
(ijoueur
joueur
p2290
(dp2291
g27
F13.838709677419354
sg28
I1
sg30
g31
sg32
I0
sg34
I0
sg35
g36
(g37
g38
Ntp2292
Rp2293
(dp2294
g42
I5
sg43
S'xx'
p2295
sg45
S'seigneur'
p2296
sbsg47
(dp2297
S'SR'
p2298
I0
sS'ST'
p2299
I0
sS'CR'
p2300
I0
sS'CT'
p2301
I0
ssg53
(dp2302
g2298
I0
sg2299
I0
sg2300
I0
sg2301
I0
ssg81
(dp2303
S'SR'
p2304
I0
sS'CT'
p2305
I0
sS'CR'
p2306
I0
sS'ST'
p2307
I0
ssg56
I0
sg57
I0
sg60
I1
sg61
I0
sg62
I0
sg63
(S'dummy'
p2308
S'AI'
p2309
S'CE'
p2310
S'AR'
p2311
tp2312
sg69
I01
sg70
g36
(g37
g38
Ntp2313
Rp2314
(dp2315
g42
I5
sg43
S'xx'
p2316
sg45
g2296
sbsg75
(dp2317
g2304
I0
sg2305
I14
sg2306
I0
sg2307
I5
ssg59
I00
sg83
(dp2318
g2304
I0
sg2305
I0
sg2306
I0
sg2307
I0
ssg85
(dp2319
g2298
I0
sg2299
I14
sg2300
I0
sg2301
I28
ssg87
I0
sg88
I0
sg89
S'Drask'
p2320
sg91
I7
sg92
I0
sg93
I17
sg94
I1564
sg95
S'SN'
p2321
sg97
(dp2322
S'A'
p2323
I15
sS'ME'
p2324
I6
sS'RP2'
p2325
I11
sS'E'
p2326
I13
sS'TO'
p2327
I10
sS'RP1'
p2328
I11
sS'JP'
p2329
I8
sS'RP_tot'
p2330
I15
sS'P'
p2331
I9
sS'PA'
p2332
I13
sS'M'
p2333
I14
sS'R'
p2334
I9
sS'TB'
p2335
I8
sS'PL'
p2336
I14
sS'TA'
p2337
I8
ssg114
(dp2338
S's11'
p2339
(ijoueur
joueur
p2340
(dp2341
g28
I0
sg32
I0
sg34
I0
sg35
g36
(g37
g38
Ntp2342
Rp2343
(dp2344
g42
I5
sg43
S'xx'
p2345
sg45
S'seigneur'
p2346
sbsg47
(dp2347
S'SR'
p2348
I0
sS'CT'
p2349
I0
sS'CR'
p2350
I0
sS'ST'
p2351
I0
ssg53
(dp2352
g2348
I0
sg2349
I0
sg2350
I0
sg2351
I0
ssg56
I0
sg57
I0
sg59
I00
sg60
I5
sg61
I0
sg62
I0
sg63
(S'dummy'
p2353
S'AI'
p2354
S'CE'
p2355
S'AR'
p2356
tp2357
sg69
I00
sg70
g36
(g37
g38
Ntp2358
Rp2359
(dp2360
g42
I5
sg43
S'xx'
p2361
sg45
g2346
sbsg75
(dp2362
g2348
I0
sg2349
I14
sg2350
I0
sg2351
I8
ssg81
(dp2363
g2348
I0
sg2349
I0
sg2350
I0
sg2351
I0
ssg83
(dp2364
g2348
I0
sg2349
I0
sg2350
I0
sg2351
I0
ssg85
(dp2365
g2348
I0
sg2349
I14
sg2350
I0
sg2351
I8
ssg87
I0
sg88
I0
sg89
S'Drask'
p2366
sg91
I7
sg92
I0
sg93
I17
sg94
I1564
sg95
S'SN'
p2367
sg97
(dp2368
S'A'
p2369
I16
sS'ME'
p2370
I6
sS'RP2'
p2371
I11
sS'E'
p2372
I13
sS'P'
p2373
I9
sS'RP1'
p2374
I11
sS'JP'
p2375
I8
sS'RP_tot'
p2376
I15
sS'TO'
p2377
I10
sS'PA'
p2378
I13
sS'M'
p2379
I14
sS'R'
p2380
I9
sS'TB'
p2381
I9
sS'PL'
p2382
I14
sS'TA'
p2383
I8
ssg211
I0
sg212
I0
sg213
I0
sg214
I0
sg215
F13.838709677419354
sg216
I0
sg217
I0
sg218
I0
sg219
(dp2384
S'A'
p2385
I16
sS'ME'
p2386
I6
sS'RP2'
p2387
I11
sS'E'
p2388
I13
sS'P'
p2389
I9
sS'RP1'
p2390
I11
sS'JP'
p2391
I8
sS'RP_tot'
p2392
I15
sS'TO'
p2393
I10
sS'PA'
p2394
I13
sS'M'
p2395
I14
sS'R'
p2396
I9
sS'TB'
p2397
I9
sS'PL'
p2398
I14
sS'TA'
p2399
I8
ssg236
g2368
sg237
I0
sg238
S'TA 9'
p2400
sg239
I0
sg240
I0
sg241
I0
sg242
I174
sg243
I20
sg244
I0
sg245
S'S'
p2401
sbssg211
I12
sg212
I0
sg213
I0
sg214
I0
sg215
F13.64516129032258
sg216
I0
sg217
I0
sg218
I0
sg219
(dp2402
S'A'
p2403
I16
sS'ME'
p2404
I6
sS'RP2'
p2405
I11
sS'E'
p2406
I13
sS'P'
p2407
I9
sS'RP1'
p2408
I11
sS'JP'
p2409
I8
sS'RP_tot'
p2410
I15
sS'TO'
p2411
I10
sS'PA'
p2412
I13
sS'M'
p2413
I14
sS'R'
p2414
I9
sS'TB'
p2415
I9
sS'PL'
p2416
I14
sS'TA'
p2417
I8
ssg236
g2322
sg237
I1
sg238
S'TA 9'
p2418
sg239
I0
sg240
I0
sg241
I0
sg242
I174
sg243
I21
sg244
I0
sg245
S'S'
p2419
sbsS's11'
p2420
(ijoueur
joueur
p2421
(dp2422
g28
I0
sg32
I0
sg34
I0
sg35
g36
(g37
g38
Ntp2423
Rp2424
(dp2425
g42
I5
sg43
S'xx'
p2426
sg45
S'seigneur'
p2427
sbsg47
(dp2428
S'SR'
p2429
I0
sS'CT'
p2430
I0
sS'CR'
p2431
I0
sS'ST'
p2432
I0
ssg53
(dp2433
g2429
I0
sg2430
I0
sg2431
I0
sg2432
I0
ssg56
I0
sg57
I0
sg59
I00
sg60
I5
sg61
I0
sg62
I0
sg63
(S'dummy'
p2434
S'AI'
p2435
S'CE'
p2436
S'AR'
p2437
tp2438
sg69
I00
sg70
g36
(g37
g38
Ntp2439
Rp2440
(dp2441
g42
I5
sg43
S'xx'
p2442
sg45
g2427
sbsg75
(dp2443
g2429
I0
sg2430
I14
sg2431
I0
sg2432
I8
ssg81
(dp2444
g2429
I0
sg2430
I0
sg2431
I0
sg2432
I0
ssg83
(dp2445
g2429
I0
sg2430
I0
sg2431
I0
sg2432
I0
ssg85
(dp2446
g2429
I0
sg2430
I14
sg2431
I0
sg2432
I8
ssg87
I0
sg88
I0
sg89
S'Drask'
p2447
sg91
I7
sg92
I0
sg93
I17
sg94
I1564
sg95
S'SN'
p2448
sg97
(dp2449
S'A'
p2450
I16
sS'ME'
p2451
I6
sS'RP2'
p2452
I11
sS'E'
p2453
I13
sS'P'
p2454
I9
sS'RP1'
p2455
I11
sS'JP'
p2456
I8
sS'RP_tot'
p2457
I15
sS'TO'
p2458
I10
sS'PA'
p2459
I13
sS'M'
p2460
I14
sS'R'
p2461
I9
sS'TB'
p2462
I9
sS'PL'
p2463
I14
sS'TA'
p2464
I8
ssg211
I0
sg212
I0
sg213
I0
sg214
I0
sg215
F13.838709677419354
sg216
I0
sg217
I0
sg218
I0
sg219
(dp2465
S'A'
p2466
I16
sS'ME'
p2467
I6
sS'RP2'
p2468
I11
sS'E'
p2469
I13
sS'P'
p2470
I9
sS'RP1'
p2471
I11
sS'JP'
p2472
I8
sS'RP_tot'
p2473
I15
sS'TO'
p2474
I10
sS'PA'
p2475
I13
sS'M'
p2476
I14
sS'R'
p2477
I9
sS'TB'
p2478
I9
sS'PL'
p2479
I14
sS'TA'
p2480
I8
ssg236
g2449
sg237
I0
sg238
S'TA 9'
p2481
sg239
I0
sg240
I0
sg241
I0
sg242
I174
sg243
I20
sg244
I0
sg245
S'S'
p2482
sbssg211
I7
sg212
I0
sg213
I0
sg214
I0
sg215
F13.451612903225806
sg216
I0
sg217
I0
sg218
I0
sg219
(dp2483
S'A'
p2484
I16
sS'ME'
p2485
I6
sS'RP2'
p2486
I11
sS'E'
p2487
I13
sS'P'
p2488
I9
sS'RP1'
p2489
I11
sS'JP'
p2490
I8
sS'RP_tot'
p2491
I15
sS'TO'
p2492
I10
sS'PA'
p2493
I13
sS'M'
p2494
I14
sS'R'
p2495
I9
sS'TB'
p2496
I9
sS'PL'
p2497
I14
sS'TA'
p2498
I8
ssg236
(dp2499
g2273
I15
sg2274
I6
sg2275
I11
sg2276
I13
sg2281
I10
sg2278
I11
sg2279
I8
sg2280
I14
sg2277
I9
sg2282
I13
sg2283
I14
sg2284
I9
sg2285
I7
sg2286
I14
sg2287
I8
ssg237
I0
sg343
(dp2500
sg239
I0
sg238
S'TA 9;SN 13'
p2501
sg240
I0
sg241
I0
sg242
I112
sg243
I23
sg244
I0
sg245
S'S'
p2502
sbsS'n16'
p2503
(ijoueur
joueur
p2504
(dp2505
g27
F9.344827586206897
sg28
I0
sg29
F9.448275862068966
sg30
g31
sg32
I0
sg33
F113.12441946524012
sg34
I0
sg35
g36
(g37
g38
Ntp2506
Rp2507
(dp2508
g42
I1
sg43
S'^'
p2509
sg45
S'base'
p2510
sbsg47
(dp2511
g49
I0
sg50
I0
sg51
I0
sg52
I0
ssg53
(dp2512
g49
I0
sg50
I0
sg51
I0
sg52
I0
ssg55
I0
sg56
I0
sg57
I0
sg58
F113.12441946524012
sg59
I00
sg60
I0
sg61
I0
sg62
I0
sg63
(g64
S'TA'
p2513
g31
g31
tp2514
sg69
I00
sg70
g36
(g37
g38
Ntp2515
Rp2516
(dp2517
g42
I1
sg43
g2509
sg45
g2510
sbsg75
(dp2518
g77
I0
sg78
I2
sg79
I9
sg80
I0
ssg81
(dp2519
g77
I0
sg78
I0
sg79
I0
sg80
I0
ssg83
(dp2520
g77
I0
sg78
I0
sg79
I0
sg80
I0
ssg85
(dp2521
g49
I0
sg50
I17
sg51
I21
sg52
I0
ssg87
I0
sg88
I0
sg89
S'Naitheor'
p2522
sg91
I11
sg92
I0
sg93
I20
sg94
I29
sg95
g96
sg97
(dp2523
g99
I11
sg100
I8
sg101
I9
sg102
I9
sg103
I7
sg104
I7
sg105
I3
sg106
I9
sg107
I5
sg108
I8
sg109
I7
sg110
I8
sg111
I3
sg112
I9
sg113
I13
ssg114
(dp2524
g116
(ijoueur
joueur
p2525
(dp2526
g27
F9.344827586206897
sg28
I0
sg30
g31
sg32
I0
sg34
I0
sg35
g36
(g37
g38
Ntp2527
Rp2528
(dp2529
g42
I1
sg43
S'^'
p2530
sg45
S'base'
p2531
sbsg47
(dp2532
g125
I0
sg126
I0
sg127
I0
sg128
I0
ssg53
(dp2533
g125
I0
sg126
I0
sg127
I0
sg128
I0
ssg81
(dp2534
g131
I0
sg132
I0
sg133
I0
sg134
I0
ssg56
I0
sg57
I0
sg60
I0
sg61
I0
sg62
I0
sg63
(g135
S'TA'
p2535
g31
g31
tp2536
sg69
I00
sg70
g36
(g37
g38
Ntp2537
Rp2538
(dp2539
g42
I1
sg43
g2530
sg45
g2531
sbsg75
(dp2540
g131
I0
sg132
I0
sg133
I2
sg134
I12
ssg59
I01
sg83
(dp2541
g131
I0
sg132
I0
sg133
I0
sg134
I0
ssg85
(dp2542
g125
I0
sg126
I15
sg127
I12
sg128
I0
ssg87
I0
sg88
I0
sg89
S'Naitheor'
p2543
sg91
I11
sg92
I0
sg93
I20
sg94
I29
sg95
g148
sg97
(dp2544
g150
I11
sg151
I8
sg152
I9
sg153
I9
sg154
I5
sg155
I8
sg156
I3
sg157
I10
sg158
I7
sg159
I8
sg160
I8
sg161
I8
sg162
I3
sg163
I9
sg164
I13
ssg114
(dp2545
g166
(ijoueur
joueur
p2546
(dp2547
g28
I0
sg32
I0
sg34
I0
sg35
g36
(g37
g38
Ntp2548
Rp2549
(dp2550
g42
I1
sg43
S'^'
p2551
sg45
S'base'
p2552
sbsg47
(dp2553
S'SR'
p2554
I0
sS'CT'
p2555
I0
sS'CR'
p2556
I0
sS'ST'
p2557
I0
ssg53
(dp2558
g2554
I0
sg2555
I0
sg2556
I0
sg2557
I0
ssg56
I0
sg57
I0
sg59
I01
sg60
I0
sg61
I0
sg62
I0
sg63
(S'dummy'
p2559
S'TA'
p2560
g31
g31
tp2561
sg69
I00
sg70
g36
(g37
g38
Ntp2562
Rp2563
(dp2564
g42
I1
sg43
g2551
sg45
g2552
sbsg75
(dp2565
g2554
I0
sg2555
I3
sg2556
I10
sg2557
I0
ssg81
(dp2566
g2554
I0
sg2555
I0
sg2556
I0
sg2557
I0
ssg83
(dp2567
g2554
I0
sg2555
I0
sg2556
I0
sg2557
I0
ssg85
(dp2568
g2554
I0
sg2555
I3
sg2556
I10
sg2557
I0
ssg87
I0
sg88
I0
sg89
S'Naitheor'
p2569
sg91
I11
sg92
I0
sg93
I20
sg94
I29
sg95
S'KHR'
p2570
sg97
(dp2571
S'A'
p2572
I11
sS'ME'
p2573
I8
sS'RP2'
p2574
I8
sS'E'
p2575
I9
sS'P'
p2576
I5
sS'RP1'
p2577
I8
sS'JP'
p2578
I3
sS'RP_tot'
p2579
I9
sS'TO'
p2580
I7
sS'PA'
p2581
I8
sS'M'
p2582
I7
sS'R'
p2583
I9
sS'TB'
p2584
I3
sS'PL'
p2585
I9
sS'TA'
p2586
I12
ssg211
I0
sg212
I0
sg213
I0
sg214
I0
sg215
F9.344827586206897
sg216
I0
sg217
I0
sg218
I0
sg219
(dp2587
S'A'
p2588
I11
sS'ME'
p2589
I8
sS'RP2'
p2590
I8
sS'E'
p2591
I9
sS'P'
p2592
I5
sS'RP1'
p2593
I8
sS'JP'
p2594
I3
sS'RP_tot'
p2595
I9
sS'TO'
p2596
I7
sS'PA'
p2597
I8
sS'M'
p2598
I7
sS'R'
p2599
I9
sS'TB'
p2600
I3
sS'PL'
p2601
I9
sS'TA'
p2602
I12
ssg236
g2571
sg237
I0
sg238
g31
sg239
I0
sg240
I0
sg241
I0
sg242
I3
sg243
I0
sg244
I0
sg245
S'CHS'
p2603
sbssg211
I0
sg212
I0
sg213
I0
sg214
I0
sg215
F9.448275862068966
sg216
I0
sg217
I0
sg218
I0
sg219
(dp2604
g248
I11
sg249
I8
sg250
I8
sg251
I9
sg252
I7
sg253
I8
sg254
I3
sg255
I9
sg256
I5
sg257
I8
sg258
I7
sg259
I9
sg260
I3
sg261
I9
sg262
I12
ssg236
g2544
sg237
I0
sg238
g31
sg239
I0
sg240
I0
sg241
I0
sg242
I3
sg243
I0
sg244
I0
sg245
S'CHS'
p2605
sbsg264
(ijoueur
joueur
p2606
(dp2607
g28
I0
sg32
I0
sg34
I0
sg35
g36
(g37
g38
Ntp2608
Rp2609
(dp2610
g42
I1
sg43
S'^'
p2611
sg45
S'base'
p2612
sbsg47
(dp2613
S'SR'
p2614
I0
sS'CT'
p2615
I0
sS'CR'
p2616
I0
sS'ST'
p2617
I0
ssg53
(dp2618
g2614
I0
sg2615
I0
sg2616
I0
sg2617
I0
ssg56
I0
sg57
I0
sg59
I01
sg60
I0
sg61
I0
sg62
I0
sg63
(S'dummy'
p2619
S'TA'
p2620
g31
g31
tp2621
sg69
I00
sg70
g36
(g37
g38
Ntp2622
Rp2623
(dp2624
g42
I1
sg43
g2611
sg45
g2612
sbsg75
(dp2625
g2614
I0
sg2615
I3
sg2616
I10
sg2617
I0
ssg81
(dp2626
g2614
I0
sg2615
I0
sg2616
I0
sg2617
I0
ssg83
(dp2627
g2614
I0
sg2615
I0
sg2616
I0
sg2617
I0
ssg85
(dp2628
g2614
I0
sg2615
I3
sg2616
I10
sg2617
I0
ssg87
I0
sg88
I0
sg89
S'Naitheor'
p2629
sg91
I11
sg92
I0
sg93
I20
sg94
I29
sg95
S'KHR'
p2630
sg97
(dp2631
S'A'
p2632
I11
sS'ME'
p2633
I8
sS'RP2'
p2634
I8
sS'E'
p2635
I9
sS'P'
p2636
I5
sS'RP1'
p2637
I8
sS'JP'
p2638
I3
sS'RP_tot'
p2639
I9
sS'TO'
p2640
I7
sS'PA'
p2641
I8
sS'M'
p2642
I7
sS'R'
p2643
I9
sS'TB'
p2644
I3
sS'PL'
p2645
I9
sS'TA'
p2646
I12
ssg211
I0
sg212
I0
sg213
I0
sg214
I0
sg215
F9.344827586206897
sg216
I0
sg217
I0
sg218
I0
sg219
(dp2647
S'A'
p2648
I11
sS'ME'
p2649
I8
sS'RP2'
p2650
I8
sS'E'
p2651
I9
sS'P'
p2652
I5
sS'RP1'
p2653
I8
sS'JP'
p2654
I3
sS'RP_tot'
p2655
I9
sS'TO'
p2656
I7
sS'PA'
p2657
I8
sS'M'
p2658
I7
sS'R'
p2659
I9
sS'TB'
p2660
I3
sS'PL'
p2661
I9
sS'TA'
p2662
I12
ssg236
g2631
sg237
I0
sg238
g31
sg239
I0
sg240
I0
sg241
I0
sg242
I3
sg243
I0
sg244
I0
sg245
S'CHS'
p2663
sbssg211
I2
sg212
I0
sg213
I0
sg214
I0
sg215
F9.275862068965518
sg216
I0
sg217
I0
sg218
I0
sg219
(dp2664
g327
I11
sg328
I8
sg329
I8
sg330
I9
sg331
I7
sg332
I8
sg333
I3
sg334
I9
sg335
I5
sg336
I8
sg337
I7
sg338
I9
sg339
I3
sg340
I9
sg341
I12
ssg236
(dp2665
g99
I11
sg100
I8
sg101
I9
sg102
I9
sg107
I5
sg104
I7
sg105
I3
sg106
I9
sg103
I7
sg108
I8
sg109
I7
sg110
I8
sg111
I3
sg112
I9
sg113
I13
ssg237
I0
sg343
(dp2666
sg239
I0
sg238
g31
sg240
I0
sg241
I0
sg242
I3
sg243
I0
sg244
I0
sg245
S'CHS'
p2667
sbsS'n17'
p2668
(ijoueur
joueur
p2669
(dp2670
g28
I0
sg29
F8.382352941176471
sg30
g31
sg32
I0
sg33
F102.67642049391443
sg1136
g31
sg34
I0
sg1137
g31
sg35
g36
(g37
g38
Ntp2671
Rp2672
(dp2673
g42
I1
sg43
S'>'
p2674
sg45
S'base'
p2675
sbsg47
(dp2676
S'SR'
p2677
I0
sS'ST'
p2678
I0
sS'CR'
p2679
I0
sS'CT'
p2680
I0
ssg53
(dp2681
g2677
I0
sg2678
I0
sg2679
I0
sg2680
I0
ssg55
I0
sg238
g31
sg57
I0
sg58
F102.67642049391443
sg59
I00
sg60
I0
sg61
I0
sg62
I0
sg95
g96
sg69
I00
sg70
g2672
sg75
(dp2682
g77
I0
sg78
I3
sg79
I7
sg80
I0
ssg81
(dp2683
g77
I0
sg78
I0
sg79
I0
sg80
I0
ssg83
(dp2684
g77
I0
sg78
I0
sg79
I0
sg80
I0
ssg85
(dp2685
g2677
I0
sg2678
I0
sg2679
I9
sg2680
I4
ssg87
I0
sg88
I0
sg89
S'Jenhedyl'
p2686
sg91
I12
sg92
I0
sg93
I20
sg94
I15
sg63
(S'dummy'
p2687
S'PI'
p2688
S'DL'
p2689
g31
tp2690
sg1160
g31
sg97
(dp2691
S'RP1'
p2692
I8
sS'ME'
p2693
I9
sS'RP2'
p2694
I6
sS'E'
p2695
I9
sS'P'
p2696
I4
sS'JP'
p2697
I3
sS'M'
p2698
I8
sS'RP_tot'
p2699
I8
sS'TO'
p2700
I9
sS'PA'
p2701
I7
sS'A'
p2702
I7
sS'R'
p2703
I7
sS'TB'
p2704
I5
sS'PL'
p2705
I8
sS'TA'
p2706
I6
ssg114
(dp2707
g116
(ijoueur
joueur
p2708
(dp2709
g28
I0
sg30
g31
sg32
I0
sg1136
g31
sg34
I0
sg1137
g31
sg35
g36
(g37
g38
Ntp2710
Rp2711
(dp2712
g42
I1
sg43
S'>'
p2713
sg45
S'base'
p2714
sbsg47
(dp2715
S'SR'
p2716
I0
sS'ST'
p2717
I0
sS'CR'
p2718
I0
sS'CT'
p2719
I0
ssg53
(dp2720
g2716
I0
sg2717
I0
sg2718
I0
sg2719
I0
ssg81
(dp2721
g2716
I0
sg2717
I0
sg2718
I0
sg2719
I0
ssg238
g31
sg57
I0
sg60
I0
sg61
I0
sg62
I0
sg95
g148
sg69
I00
sg70
g2711
sg75
(dp2722
g2716
I0
sg2717
I0
sg2718
I2
sg2719
I1
ssg59
I01
sg83
(dp2723
g2716
I0
sg2717
I0
sg2718
I0
sg2719
I0
ssg85
(dp2724
g2716
I0
sg2717
I0
sg2718
I2
sg2719
I1
ssg87
I0
sg88
I0
sg89
S'Jenhedyl'
p2725
sg91
I12
sg92
I0
sg93
I20
sg94
I15
sg63
(S'dummy'
p2726
S'PI'
p2727
S'DL'
p2728
g31
tp2729
sg1160
g31
sg97
(dp2730
S'RP1'
p2731
I8
sS'ME'
p2732
I9
sS'RP2'
p2733
I6
sS'E'
p2734
I9
sS'TO'
p2735
I9
sS'M'
p2736
I8
sS'JP'
p2737
I3
sS'RP_tot'
p2738
I8
sS'P'
p2739
I4
sS'PA'
p2740
I7
sS'A'
p2741
I7
sS'R'
p2742
I8
sS'TB'
p2743
I5
sS'PL'
p2744
I8
sS'TA'
p2745
I6
ssg114
(dp2746
sg211
I0
sg212
I0
sg213
I0
sg214
I0
sg215
F8.382352941176471
sg216
I0
sg217
I0
sg218
I0
sg236
g2730
sg237
I0
sg239
I0
sg240
I0
sg241
I0
sg242
I1
sg243
I0
sg244
I0
sg245
S'CHS'
p2747
sbssg211
I7
sg212
I0
sg213
I0
sg214
I0
sg215
F8.205882352941176
sg216
I0
sg217
I0
sg218
I0
sg236
(dp2748
g2692
I8
sg2693
I9
sg2694
I6
sg2695
I9
sg2700
I9
sg2698
I8
sg2697
I3
sg2699
I8
sg2696
I4
sg2701
I7
sg2702
I7
sg2703
I7
sg2704
I5
sg2705
I8
sg2706
I6
ssg237
I0
sg343
(dp2749
sg239
I0
sg240
I0
sg241
I0
sg242
I1
sg243
I0
sg244
I0
sg245
S'CHS'
p2750
sbsS'n14'
p2751
(ijoueur
joueur
p2752
(dp2753
g27
F11.290322580645162
sg28
I0
sg29
F11.935483870967742
sg30
g31
sg32
I0
sg33
F103.50597328335303
sg34
I0
sg35
g36
(g37
g38
Ntp2754
Rp2755
(dp2756
g42
I5
sg43
S'**'
p2757
sg45
g530
sbsg47
(dp2758
g49
I0
sg50
I0
sg51
I0
sg52
I0
ssg53
(dp2759
g49
I0
sg50
I0
sg51
I0
sg52
I0
ssg55
I0
sg56
I0
sg57
I0
sg58
F103.50597328335303
sg59
I00
sg60
I0
sg61
I0
sg62
I0
sg63
(g64
S'AI'
p2760
g31
g31
tp2761
sg69
I00
sg70
g36
(g37
g38
Ntp2762
Rp2763
(dp2764
g42
I5
sg43
S'**'
p2765
sg45
g530
sbsg75
(dp2766
g77
I0
sg78
I10
sg79
I0
sg80
I0
ssg81
(dp2767
g77
I0
sg78
I0
sg79
I0
sg80
I0
ssg83
(dp2768
g77
I0
sg78
I0
sg79
I0
sg80
I0
ssg85
(dp2769
g49
I0
sg50
I37
sg51
I0
sg52
I12
ssg87
I0
sg88
I0
sg89
S'Lamene'
p2770
sg91
I5
sg92
I0
sg93
I16
sg94
I165
sg95
g96
sg97
(dp2771
g99
I8
sg100
I7
sg101
I14
sg102
I10
sg103
I7
sg104
I11
sg105
I7
sg106
I16
sg107
I6
sg108
I11
sg109
I11
sg110
I9
sg111
I6
sg112
I12
sg113
I4
ssg114
(dp2772
g116
(ijoueur
joueur
p2773
(dp2774
g27
F11.290322580645162
sg28
I0
sg30
g31
sg32
I0
sg34
I0
sg35
g36
(g37
g38
Ntp2775
Rp2776
(dp2777
g42
I5
sg43
S'**'
p2778
sg45
g554
sbsg47
(dp2779
g125
I0
sg126
I0
sg127
I0
sg128
I0
ssg53
(dp2780
g125
I0
sg126
I0
sg127
I0
sg128
I0
ssg81
(dp2781
g131
I0
sg132
I0
sg133
I0
sg134
I0
ssg56
I0
sg57
I0
sg60
I10
sg61
I0
sg62
I0
sg63
(g135
S'AI'
p2782
g31
g31
tp2783
sg69
I00
sg70
g36
(g37
g38
Ntp2784
Rp2785
(dp2786
g42
I5
sg43
S'**'
p2787
sg45
g554
sbsg75
(dp2788
g131
I0
sg132
I7
sg133
I0
sg134
I14
ssg59
I01
sg83
(dp2789
g131
I0
sg132
I0
sg133
I0
sg134
I0
ssg85
(dp2790
g125
I0
sg126
I27
sg127
I0
sg128
I12
ssg87
I0
sg88
I0
sg89
S'Lamene'
p2791
sg91
I5
sg92
I0
sg93
I16
sg94
I165
sg95
g148
sg97
(dp2792
g150
I9
sg151
I7
sg152
I14
sg153
I11
sg154
I7
sg155
I11
sg156
I7
sg157
I18
sg158
I7
sg159
I11
sg160
I11
sg161
I10
sg162
I6
sg163
I13
sg164
I4
ssg114
(dp2793
g166
(ijoueur
joueur
p2794
(dp2795
g28
I0
sg32
I0
sg34
I0
sg35
g36
(g37
g38
Ntp2796
Rp2797
(dp2798
g42
I5
sg43
S'**'
p2799
sg45
S'seigneur'
p2800
sbsg47
(dp2801
S'SR'
p2802
I0
sS'CT'
p2803
I0
sS'CR'
p2804
I0
sS'ST'
p2805
I0
ssg53
(dp2806
g2802
I0
sg2803
I0
sg2804
I0
sg2805
I0
ssg56
I0
sg57
I0
sg59
I01
sg60
I5
sg61
I0
sg62
I0
sg63
(S'dummy'
p2807
S'AI'
p2808
g31
g31
tp2809
sg69
I00
sg70
g36
(g37
g38
Ntp2810
Rp2811
(dp2812
g42
I5
sg43
S'**'
p2813
sg45
g2800
sbsg75
(dp2814
g2802
I0
sg2803
I13
sg2804
I0
sg2805
I5
ssg81
(dp2815
g2802
I0
sg2803
I0
sg2804
I0
sg2805
I0
ssg83
(dp2816
g2802
I0
sg2803
I0
sg2804
I0
sg2805
I0
ssg85
(dp2817
g2802
I0
sg2803
I13
sg2804
I0
sg2805
I5
ssg87
I0
sg88
I0
sg89
S'Lamene'
p2818
sg91
I5
sg92
I0
sg93
I16
sg94
I165
sg95
S'KHR'
p2819
sg97
(dp2820
S'A'
p2821
I9
sS'ME'
p2822
I7
sS'RP2'
p2823
I13
sS'E'
p2824
I11
sS'P'
p2825
I6
sS'RP1'
p2826
I9
sS'JP'
p2827
I6
sS'RP_tot'
p2828
I15
sS'TO'
p2829
I7
sS'PA'
p2830
I11
sS'M'
p2831
I11
sS'R'
p2832
I10
sS'TB'
p2833
I6
sS'PL'
p2834
I13
sS'TA'
p2835
I4
ssg211
I0
sg212
I0
sg213
I0
sg214
I0
sg215
F11.290322580645162
sg216
I0
sg217
I0
sg218
I0
sg219
(dp2836
S'A'
p2837
I9
sS'ME'
p2838
I7
sS'RP2'
p2839
I13
sS'E'
p2840
I11
sS'P'
p2841
I6
sS'RP1'
p2842
I9
sS'JP'
p2843
I6
sS'RP_tot'
p2844
I15
sS'TO'
p2845
I7
sS'PA'
p2846
I11
sS'M'
p2847
I11
sS'R'
p2848
I10
sS'TB'
p2849
I6
sS'PL'
p2850
I13
sS'TA'
p2851
I4
ssg236
g2820
sg237
I0
sg238
g31
sg239
I0
sg240
I0
sg241
I0
sg242
I19
sg243
I36
sg244
I0
sg245
S'B'
p2852
sbssg211
I7
sg212
I0
sg213
I0
sg214
I0
sg215
F11.935483870967742
sg216
I0
sg217
I0
sg218
I1
sg219
(dp2853
g248
I9
sg249
I7
sg250
I13
sg251
I11
sg252
I7
sg253
I9
sg254
I6
sg255
I15
sg256
I6
sg257
I11
sg258
I11
sg259
I10
sg260
I6
sg261
I13
sg262
I4
ssg236
g2792
sg237
I0
sg238
g31
sg239
I0
sg240
I0
sg241
I0
sg242
I19
sg243
I46
sg244
I1
sg245
g2006
sbsg264
(ijoueur
joueur
p2854
(dp2855
g28
I0
sg32
I0
sg34
I0
sg35
g36
(g37
g38
Ntp2856
Rp2857
(dp2858
g42
I5
sg43
S'**'
p2859
sg45
S'seigneur'
p2860
sbsg47
(dp2861
S'SR'
p2862
I0
sS'CT'
p2863
I0
sS'CR'
p2864
I0
sS'ST'
p2865
I0
ssg53
(dp2866
g2862
I0
sg2863
I0
sg2864
I0
sg2865
I0
ssg56
I0
sg57
I0
sg59
I01
sg60
I5
sg61
I0
sg62
I0
sg63
(S'dummy'
p2867
S'AI'
p2868
g31
g31
tp2869
sg69
I00
sg70
g36
(g37
g38
Ntp2870
Rp2871
(dp2872
g42
I5
sg43
S'**'
p2873
sg45
g2860
sbsg75
(dp2874
g2862
I0
sg2863
I13
sg2864
I0
sg2865
I5
ssg81
(dp2875
g2862
I0
sg2863
I0
sg2864
I0
sg2865
I0
ssg83
(dp2876
g2862
I0
sg2863
I0
sg2864
I0
sg2865
I0
ssg85
(dp2877
g2862
I0
sg2863
I13
sg2864
I0
sg2865
I5
ssg87
I0
sg88
I0
sg89
S'Lamene'
p2878
sg91
I5
sg92
I0
sg93
I16
sg94
I165
sg95
S'KHR'
p2879
sg97
(dp2880
S'A'
p2881
I9
sS'ME'
p2882
I7
sS'RP2'
p2883
I13
sS'E'
p2884
I11
sS'P'
p2885
I6
sS'RP1'
p2886
I9
sS'JP'
p2887
I6
sS'RP_tot'
p2888
I15
sS'TO'
p2889
I7
sS'PA'
p2890
I11
sS'M'
p2891
I11
sS'R'
p2892
I10
sS'TB'
p2893
I6
sS'PL'
p2894
I13
sS'TA'
p2895
I4
ssg211
I0
sg212
I0
sg213
I0
sg214
I0
sg215
F11.290322580645162
sg216
I0
sg217
I0
sg218
I0
sg219
(dp2896
S'A'
p2897
I9
sS'ME'
p2898
I7
sS'RP2'
p2899
I13
sS'E'
p2900
I11
sS'P'
p2901
I6
sS'RP1'
p2902
I9
sS'JP'
p2903
I6
sS'RP_tot'
p2904
I15
sS'TO'
p2905
I7
sS'PA'
p2906
I11
sS'M'
p2907
I11
sS'R'
p2908
I10
sS'TB'
p2909
I6
sS'PL'
p2910
I13
sS'TA'
p2911
I4
ssg236
g2880
sg237
I0
sg238
g31
sg239
I0
sg240
I0
sg241
I0
sg242
I19
sg243
I36
sg244
I0
sg245
S'B'
p2912
sbssg211
I12
sg212
I0
sg213
I0
sg214
I0
sg215
F11.387096774193548
sg216
I0
sg217
I0
sg218
I1
sg219
(dp2913
g327
I9
sg328
I7
sg329
I13
sg330
I11
sg331
I7
sg332
I9
sg333
I6
sg334
I15
sg335
I6
sg336
I11
sg337
I11
sg338
I10
sg339
I6
sg340
I13
sg341
I4
ssg236
(dp2914
g99
I9
sg100
I7
sg101
I14
sg102
I10
sg107
I6
sg104
I11
sg105
I7
sg106
I16
sg103
I7
sg108
I11
sg109
I11
sg110
I10
sg111
I6
sg112
I13
sg113
I4
ssg237
I0
sg343
(dp2915
sg239
I0
sg238
g31
sg240
I0
sg241
I0
sg242
I19
sg243
I46
sg244
I0
sg245
g2073
sbsS'n15'
p2916
g878
sS'n18'
p2917
(ijoueur
joueur
p2918
(dp2919
g28
I0
sg29
F9.529411764705882
sg30
g31
sg32
I0
sg33
F102.09301937056352
sg1136
g31
sg34
I0
sg1137
g31
sg35
g36
(g37
g38
Ntp2920
Rp2921
(dp2922
g42
I5
sg43
S'**'
p2923
sg45
S'seigneur'
p2924
sbsg47
(dp2925
g2677
I0
sg2678
I0
sg2679
I1
sg2680
I0
ssg53
(dp2926
g2677
I0
sg2678
I0
sg2679
I0
sg2680
I0
ssg55
I0
sg238
g31
sg57
I0
sg58
F102.09301937056352
sg59
I00
sg60
I0
sg61
I0
sg62
I0
sg95
g96
sg69
I00
sg70
g36
(g37
g38
Ntp2927
Rp2928
(dp2929
g42
I2
sg43
S'^^'
p2930
sg45
S'special'
p2931
sbsg75
(dp2932
g77
I0
sg78
I4
sg79
I5
sg80
I0
ssg81
(dp2933
g77
I0
sg78
I0
sg79
I1
sg80
I0
ssg83
(dp2934
g77
I0
sg78
I0
sg79
I0
sg80
I0
ssg85
(dp2935
g2677
I0
sg2678
I0
sg2679
I15
sg2680
I9
ssg87
I0
sg88
I0
sg89
S'Nromaod'
p2936
sg91
I12
sg92
I0
sg93
I20
sg94
I44
sg63
(g2687
S'DL'
p2937
S'TL'
p2938
g31
tp2939
sg1160
g31
sg97
(dp2940
g2692
I8
sg2693
I11
sg2694
I8
sg2695
I10
sg2696
I5
sg2697
I3
sg2698
I9
sg2699
I10
sg2700
I11
sg2701
I7
sg2702
I9
sg2703
I9
sg2704
I2
sg2705
I10
sg2706
I4
ssg114
(dp2941
g116
(ijoueur
joueur
p2942
(dp2943
g28
I0
sg30
g31
sg32
I0
sg1136
g31
sg34
I0
sg1137
g31
sg35
g36
(g37
g38
Ntp2944
Rp2945
(dp2946
g42
I5
sg43
S'**'
p2947
sg45
S'seigneur'
p2948
sbsg47
(dp2949
g2716
I0
sg2717
I0
sg2718
I0
sg2719
I0
ssg53
(dp2950
g2716
I0
sg2717
I0
sg2718
I0
sg2719
I0
ssg81
(dp2951
g2716
I0
sg2717
I0
sg2718
I0
sg2719
I0
ssg238
g31
sg57
I0
sg60
I0
sg61
I0
sg62
I0
sg95
g148
sg69
I00
sg70
g36
(g37
g38
Ntp2952
Rp2953
(dp2954
g42
I1
sg43
S'^'
p2955
sg45
g2714
sbsg75
(dp2956
g2716
I0
sg2717
I0
sg2718
I10
sg2719
I5
ssg59
I01
sg83
(dp2957
g2716
I0
sg2717
I0
sg2718
I0
sg2719
I0
ssg85
(dp2958
g2716
I0
sg2717
I0
sg2718
I10
sg2719
I5
ssg87
I0
sg88
I0
sg89
S'Nromaod'
p2959
sg91
I12
sg92
I0
sg93
I20
sg94
I25
sg63
(g2726
S'DL'
p2960
S'TL'
p2961
g31
tp2962
sg1160
g31
sg97
(dp2963
g2731
I7
sg2732
I10
sg2733
I8
sg2734
I10
sg2735
I11
sg2736
I7
sg2737
I3
sg2738
I8
sg2739
I5
sg2740
I7
sg2741
I9
sg2742
I9
sg2743
I2
sg2744
I10
sg2745
I3
ssg114
(dp2964
sg211
I0
sg212
I0
sg213
I0
sg214
I0
sg215
F9.529411764705882
sg216
I0
sg217
I0
sg218
I0
sg236
g2963
sg237
I0
sg239
I0
sg240
I0
sg241
I0
sg242
I2
sg243
I0
sg244
I0
sg245
g2747
sbssg211
I5
sg212
I0
sg213
I0
sg214
I0
sg215
F9.941176470588236
sg216
I0
sg217
I0
sg218
I0
sg236
(dp2965
g2692
I8
sg2693
I11
sg2694
I8
sg2695
I10
sg2700
I11
sg2698
I9
sg2697
I3
sg2699
I10
sg2696
I5
sg2701
I7
sg2702
I9
sg2703
I9
sg2704
I2
sg2705
I10
sg2706
I4
ssg237
I0
sg343
(dp2966
sg239
I0
sg240
I0
sg241
I0
sg242
I3
sg243
I0
sg244
I0
sg245
g2750
sbsS'n19'
p2967
(ijoueur
joueur
p2968
(dp2969
g27
F9.161290322580646
sg28
I0
sg29
F9.31578947368421
sg30
g31
sg32
I0
sg33
F29.98794086325705
sg34
I0
sg35
g36
(g37
g38
Ntp2970
Rp2971
(dp2972
g42
I1
sg43
S'^'
p2973
sg45
S'base'
p2974
sbsg47
(dp2975
S'SR'
p2976
I0
sS'ST'
p2977
I0
sS'CR'
p2978
I0
sS'CT'
p2979
I0
ssg53
(dp2980
g2976
I0
sg2977
I0
sg2978
I0
sg2979
I0
ssg55
I0
sg81
(dp2981
S'SR'
p2982
I0
sS'ST'
p2983
I0
sS'CR'
p2984
I0
sS'CT'
p2985
I0
ssg56
I0
sg57
I0
sg58
F29.98794086325705
sg60
I0
sg61
I0
sg62
I0
sg63
(S'dummy'
p2986
S'TL'
p2987
g31
g31
tp2988
sg69
I00
sg70
g36
(g37
g38
Ntp2989
Rp2990
(dp2991
g42
I1
sg43
g2973
sg45
g2974
sbsg75
(dp2992
g2982
I0
sg2983
I0
sg2984
I1
sg2985
I2
ssg59
I00
sg83
(dp2993
g2982
I0
sg2983
I0
sg2984
I0
sg2985
I0
ssg85
(dp2994
g2976
I0
sg2977
I0
sg2978
I16
sg2979
I7
ssg87
I0
sg88
I0
sg89
S'Aytaed'
p2995
sg91
I11
sg92
I0
sg93
I19
sg94
I24
sg95
S'KHR'
p2996
sg97
(dp2997
S'A'
p2998
I11
sS'ME'
p2999
I9
sS'RP2'
p3000
I7
sS'E'
p3001
I10
sS'P'
p3002
I5
sS'RP1'
p3003
I8
sS'JP'
p3004
I4
sS'RP_tot'
p3005
I9
sS'TO'
p3006
I10
sS'PA'
p3007
I8
sS'M'
p3008
I9
sS'R'
p3009
I9
sS'TB'
p3010
I5
sS'PL'
p3011
I10
sS'TA'
p3012
I6
ssg114
(dp3013
S's12'
p3014
(ijoueur
joueur
p3015
(dp3016
g27
F9.161290322580646
sg28
I0
sg30
g31
sg32
I0
sg34
I0
sg35
g36
(g37
g38
Ntp3017
Rp3018
(dp3019
g42
I1
sg43
S'^'
p3020
sg45
S'base'
p3021
sbsg47
(dp3022
S'SR'
p3023
I0
sS'ST'
p3024
I0
sS'CR'
p3025
I0
sS'CT'
p3026
I0
ssg53
(dp3027
g3023
I0
sg3024
I0
sg3025
I0
sg3026
I0
ssg56
I0
sg215
F9.31578947368421
sg57
I0
sg60
I0
sg61
I0
sg62
I0
sg63
(S'dummy'
p3028
S'TL'
p3029
g31
g31
tp3030
sg69
I00
sg70
g36
(g37
g38
Ntp3031
Rp3032
(dp3033
g42
I1
sg43
g3020
sg45
g3021
sbsg75
(dp3034
S'SR'
p3035
I0
sS'CT'
p3036
I4
sS'CR'
p3037
I10
sS'ST'
p3038
I0
ssg59
I01
sg83
(dp3039
g3035
I0
sg3036
I0
sg3037
I0
sg3038
I0
ssg85
(dp3040
g3023
I0
sg3024
I0
sg3025
I15
sg3026
I5
ssg87
I0
sg88
I0
sg89
S'Aytaed (12)'
p3041
sg91
I11
sg92
I0
sg93
I19
sg94
I24
sg95
S'KHR'
p3042
sg97
(dp3043
S'A'
p3044
I11
sS'ME'
p3045
I9
sS'RP2'
p3046
I7
sS'E'
p3047
I10
sS'TO'
p3048
I10
sS'RP1'
p3049
I8
sS'JP'
p3050
I4
sS'RP_tot'
p3051
I9
sS'P'
p3052
I5
sS'PA'
p3053
I8
sS'M'
p3054
I9
sS'R'
p3055
I9
sS'TB'
p3056
I5
sS'PL'
p3057
I9
sS'TA'
p3058
I6
ssg114
(dp3059
S's11'
p3060
(ijoueur
joueur
p3061
(dp3062
g28
I0
sg32
I0
sg34
I0
sg35
g36
(g37
g38
Ntp3063
Rp3064
(dp3065
g42
I1
sg43
S'^'
p3066
sg45
S'base'
p3067
sbsg47
(dp3068
S'SR'
p3069
I0
sS'ST'
p3070
I0
sS'CR'
p3071
I0
sS'CT'
p3072
I0
ssg53
(dp3073
g3069
I0
sg3070
I0
sg3071
I0
sg3072
I0
ssg56
I0
sg57
I0
sg59
I01
sg60
I0
sg61
I0
sg62
I0
sg63
(S'dummy'
p3074
S'TL'
p3075
g31
g31
tp3076
sg69
I00
sg70
g36
(g37
g38
Ntp3077
Rp3078
(dp3079
g42
I1
sg43
g3066
sg45
g3067
sbsg75
(dp3080
g3069
I0
sg3070
I0
sg3071
I5
sg3072
I1
ssg81
(dp3081
g3069
I0
sg3070
I0
sg3071
I0
sg3072
I0
ssg83
(dp3082
g3069
I0
sg3070
I0
sg3071
I0
sg3072
I0
ssg85
(dp3083
g3069
I0
sg3070
I0
sg3071
I5
sg3072
I1
ssg87
I0
sg88
I0
sg89
S'Aytaed'
p3084
sg91
I11
sg92
I0
sg93
I19
sg94
I24
sg95
S'KHR'
p3085
sg97
(dp3086
S'A'
p3087
I11
sS'ME'
p3088
I9
sS'RP2'
p3089
I6
sS'E'
p3090
I10
sS'TO'
p3091
I9
sS'RP1'
p3092
I8
sS'JP'
p3093
I4
sS'RP_tot'
p3094
I8
sS'P'
p3095
I5
sS'PA'
p3096
I8
sS'M'
p3097
I9
sS'R'
p3098
I9
sS'TB'
p3099
I5
sS'PL'
p3100
I9
sS'TA'
p3101
I6
ssg211
I0
sg212
I0
sg213
I0
sg214
I0
sg215
F9.161290322580646
sg216
I0
sg217
I0
sg218
I0
sg219
(dp3102
S'A'
p3103
I11
sS'ME'
p3104
I9
sS'RP2'
p3105
I6
sS'E'
p3106
I10
sS'TO'
p3107
I9
sS'RP1'
p3108
I8
sS'JP'
p3109
I4
sS'RP_tot'
p3110
I8
sS'P'
p3111
I5
sS'PA'
p3112
I8
sS'M'
p3113
I9
sS'R'
p3114
I9
sS'TB'
p3115
I5
sS'PL'
p3116
I9
sS'TA'
p3117
I6
ssg236
g3086
sg237
I0
sg238
g31
sg239
I0
sg240
I0
sg241
I0
sg242
I2
sg243
I0
sg244
I0
sg245
S'CHS'
p3118
sbssg211
I0
sg212
I0
sg213
I0
sg214
I0
sg81
(dp3119
g3035
I0
sg3036
I0
sg3037
I0
sg3038
I0
ssg216
I0
sg217
I0
sg218
I0
sg219
(dp3120
S'A'
p3121
I11
sS'ME'
p3122
I9
sS'RP2'
p3123
I6
sS'E'
p3124
I10
sS'P'
p3125
I5
sS'RP1'
p3126
I8
sS'JP'
p3127
I4
sS'RP_tot'
p3128
I8
sS'TO'
p3129
I9
sS'PA'
p3130
I8
sS'M'
p3131
I9
sS'R'
p3132
I9
sS'TB'
p3133
I5
sS'PL'
p3134
I9
sS'TA'
p3135
I6
ssg236
g3043
sg237
I0
sg238
g31
sg239
I0
sg240
I0
sg241
I0
sg242
I2
sg243
I0
sg244
I0
sg245
S'CHS'
p3136
sbsS's11'
p3137
(ijoueur
joueur
p3138
(dp3139
g28
I0
sg32
I0
sg34
I0
sg35
g36
(g37
g38
Ntp3140
Rp3141
(dp3142
g42
I1
sg43
S'^'
p3143
sg45
S'base'
p3144
sbsg47
(dp3145
S'SR'
p3146
I0
sS'ST'
p3147
I0
sS'CR'
p3148
I0
sS'CT'
p3149
I0
ssg53
(dp3150
g3146
I0
sg3147
I0
sg3148
I0
sg3149
I0
ssg56
I0
sg57
I0
sg59
I01
sg60
I0
sg61
I0
sg62
I0
sg63
(S'dummy'
p3151
S'TL'
p3152
g31
g31
tp3153
sg69
I00
sg70
g36
(g37
g38
Ntp3154
Rp3155
(dp3156
g42
I1
sg43
g3143
sg45
g3144
sbsg75
(dp3157
g3146
I0
sg3147
I0
sg3148
I5
sg3149
I1
ssg81
(dp3158
g3146
I0
sg3147
I0
sg3148
I0
sg3149
I0
ssg83
(dp3159
g3146
I0
sg3147
I0
sg3148
I0
sg3149
I0
ssg85
(dp3160
g3146
I0
sg3147
I0
sg3148
I5
sg3149
I1
ssg87
I0
sg88
I0
sg89
S'Aytaed (11)'
p3161
sg91
I11
sg92
I0
sg93
I19
sg94
I24
sg95
S'KHR'
p3162
sg97
(dp3163
S'A'
p3164
I11
sS'ME'
p3165
I9
sS'RP2'
p3166
I6
sS'E'
p3167
I10
sS'TO'
p3168
I9
sS'RP1'
p3169
I8
sS'JP'
p3170
I4
sS'RP_tot'
p3171
I8
sS'P'
p3172
I5
sS'PA'
p3173
I8
sS'M'
p3174
I9
sS'R'
p3175
I9
sS'TB'
p3176
I5
sS'PL'
p3177
I9
sS'TA'
p3178
I6
ssg211
I0
sg212
I0
sg213
I0
sg214
I0
sg215
F9.161290322580646
sg216
I0
sg217
I0
sg218
I0
sg219
(dp3179
S'A'
p3180
I11
sS'ME'
p3181
I9
sS'RP2'
p3182
I6
sS'E'
p3183
I10
sS'TO'
p3184
I9
sS'RP1'
p3185
I8
sS'JP'
p3186
I4
sS'RP_tot'
p3187
I8
sS'P'
p3188
I5
sS'PA'
p3189
I8
sS'M'
p3190
I9
sS'R'
p3191
I9
sS'TB'
p3192
I5
sS'PL'
p3193
I9
sS'TA'
p3194
I6
ssg236
g3163
sg237
I0
sg238
g31
sg239
I0
sg240
I0
sg241
I0
sg242
I2
sg243
I0
sg244
I0
sg245
S'CHS'
p3195
sbssg211
I0
sg212
I0
sg213
I0
sg214
I0
sg215
F9.578947368421053
sg216
I0
sg217
I0
sg218
I0
sg219
(dp3196
S'A'
p3197
I11
sS'ME'
p3198
I9
sS'RP2'
p3199
I6
sS'E'
p3200
I10
sS'P'
p3201
I5
sS'RP1'
p3202
I8
sS'JP'
p3203
I4
sS'RP_tot'
p3204
I8
sS'TO'
p3205
I9
sS'PA'
p3206
I8
sS'M'
p3207
I9
sS'R'
p3208
I9
sS'TB'
p3209
I5
sS'PL'
p3210
I9
sS'TA'
p3211
I6
ssg236
(dp3212
g2998
I11
sg2999
I9
sg3000
I7
sg3001
I10
sg3006
I10
sg3003
I8
sg3004
I4
sg3005
I9
sg3002
I5
sg3007
I8
sg3008
I9
sg3009
I9
sg3010
I5
sg3011
I10
sg3012
I6
ssg237
I0
sg343
(dp3213
sg239
I0
sg238
g31
sg240
I0
sg241
I0
sg242
I2
sg243
I0
sg244
I0
sg245
S'CHS'
p3214
sbsS'n22'
p3215
(ijoueur
joueur
p3216
(dp3217
g27
F8.206896551724139
sg28
I0
sg29
F9.482758620689655
sg30
g31
sg32
I0
sg33
F60.882297871700395
sg34
I0
sg35
g36
(g37
g38
Ntp3218
Rp3219
(dp3220
g42
I4
sg43
S'x'
p3221
sg45
S'heros'
p3222
sbsg47
(dp3223
g2976
I3
sg2977
I0
sg2978
I3
sg2979
I4
ssg53
(dp3224
g2976
I0
sg2977
I0
sg2978
I0
sg2979
I0
ssg55
I0
sg81
(dp3225
g2982
I0
sg2983
I0
sg2984
I1
sg2985
I1
ssg56
I0
sg57
I0
sg58
F60.882297871700395
sg60
I0
sg61
I0
sg62
I0
sg63
(g2986
S'C2'
p3226
S'AI'
p3227
g31
tp3228
sg69
I00
sg70
g3219
sg75
(dp3229
g2982
I0
sg2983
I0
sg2984
I4
sg2985
I0
ssg59
I00
sg83
(dp3230
g2982
I0
sg2983
I0
sg2984
I0
sg2985
I0
ssg85
(dp3231
g2976
I0
sg2977
I0
sg2978
I9
sg2979
I2
ssg87
I2
sg88
I0
sg89
S'Garyoid'
p3232
sg91
I11
sg92
I0
sg93
I21
sg94
I107
sg95
g2996
sg97
(dp3233
g2998
I12
sg2999
I5
sg3000
I7
sg3001
I9
sg3002
I9
sg3003
I8
sg3004
I4
sg3005
I9
sg3006
I8
sg3007
I11
sg3008
I9
sg3009
I3
sg3010
I9
sg3011
I11
sg3012
I8
ssg114
(dp3234
g3014
(ijoueur
joueur
p3235
(dp3236
g27
F8.206896551724139
sg28
I0
sg30
g31
sg32
I0
sg34
I0
sg35
g36
(g37
g38
Ntp3237
Rp3238
(dp3239
g42
I4
sg43
S'x'
p3240
sg45
S'heros'
p3241
sbsg47
(dp3242
g3023
I3
sg3024
I0
sg3025
I2
sg3026
I3
ssg53
(dp3243
g3023
I0
sg3024
I0
sg3025
I0
sg3026
I0
ssg56
I0
sg215
F9.482758620689655
sg57
I0
sg60
I0
sg61
I0
sg62
I0
sg63
(g3028
S'C2'
p3244
S'AI'
p3245
g31
tp3246
sg69
I00
sg70
g3238
sg75
(dp3247
g3035
I0
sg3036
I1
sg3037
I5
sg3038
I0
ssg59
I00
sg83
(dp3248
g3035
I0
sg3036
I0
sg3037
I0
sg3038
I0
ssg85
(dp3249
g3023
I0
sg3024
I0
sg3025
I5
sg3026
I2
ssg87
I2
sg88
I2
sg89
S'Garyoid'
p3250
sg91
I11
sg92
I0
sg93
I21
sg94
I107
sg95
g3042
sg97
(dp3251
g3044
I12
sg3045
I5
sg3046
I7
sg3047
I9
sg3048
I8
sg3049
I8
sg3050
I5
sg3051
I8
sg3052
I9
sg3053
I11
sg3054
I10
sg3055
I4
sg3056
I9
sg3057
I11
sg3058
I8
ssg114
(dp3252
g3060
(ijoueur
joueur
p3253
(dp3254
g28
I0
sg32
I0
sg34
I0
sg35
g36
(g37
g38
Ntp3255
Rp3256
(dp3257
g42
I4
sg43
S'x'
p3258
sg45
S'heros'
p3259
sbsg47
(dp3260
S'SR'
p3261
I0
sS'ST'
p3262
I0
sS'CR'
p3263
I1
sS'CT'
p3264
I0
ssg53
(dp3265
g3261
I0
sg3262
I0
sg3263
I0
sg3264
I0
ssg56
I0
sg57
I0
sg59
I00
sg60
I0
sg61
I0
sg62
I0
sg63
(S'dummy'
p3266
S'C2'
p3267
S'AI'
p3268
g31
tp3269
sg69
I00
sg70
g36
(g37
g38
Ntp3270
Rp3271
(dp3272
g42
I1
sg43
S'>'
p3273
sg45
S'base'
p3274
sbsg75
(dp3275
g3261
I0
sg3262
I0
sg3263
I0
sg3264
I1
ssg81
(dp3276
g3261
I0
sg3262
I0
sg3263
I1
sg3264
I0
ssg83
(dp3277
g3261
I0
sg3262
I0
sg3263
I0
sg3264
I0
ssg85
(dp3278
g3261
I0
sg3262
I0
sg3263
I0
sg3264
I1
ssg87
I0
sg88
I0
sg89
S'Garyoid'
p3279
sg91
I11
sg92
I0
sg93
I21
sg94
I20
sg95
S'KHR'
p3280
sg97
(dp3281
S'A'
p3282
I9
sS'ME'
p3283
I3
sS'RP2'
p3284
I8
sS'E'
p3285
I8
sS'TO'
p3286
I5
sS'RP1'
p3287
I6
sS'JP'
p3288
I5
sS'RP_tot'
p3289
I8
sS'P'
p3290
I8
sS'PA'
p3291
I8
sS'M'
p3292
I10
sS'R'
p3293
I5
sS'TB'
p3294
I7
sS'PL'
p3295
I9
sS'TA'
p3296
I6
ssg211
I0
sg212
I0
sg213
I0
sg214
I0
sg215
F8.206896551724139
sg216
I0
sg217
I0
sg218
I0
sg219
(dp3297
S'A'
p3298
I9
sS'ME'
p3299
I3
sS'RP2'
p3300
I8
sS'E'
p3301
I8
sS'TO'
p3302
I5
sS'RP1'
p3303
I6
sS'JP'
p3304
I5
sS'RP_tot'
p3305
I8
sS'P'
p3306
I8
sS'PA'
p3307
I8
sS'M'
p3308
I10
sS'R'
p3309
I5
sS'TB'
p3310
I7
sS'PL'
p3311
I9
sS'TA'
p3312
I6
ssg236
g3281
sg237
I0
sg238
g31
sg239
I0
sg240
I0
sg241
I0
sg242
I3
sg243
I0
sg244
I0
sg245
S'CHS'
p3313
sbssg211
I0
sg212
I0
sg213
I0
sg214
I0
sg81
(dp3314
g3035
I3
sg3036
I3
sg3037
I1
sg3038
I0
ssg216
I0
sg217
I0
sg218
I0
sg219
(dp3315
g3121
I9
sg3122
I3
sg3123
I8
sg3124
I8
sg3125
I8
sg3126
I6
sg3127
I5
sg3128
I8
sg3129
I5
sg3130
I8
sg3131
I10
sg3132
I5
sg3133
I7
sg3134
I9
sg3135
I6
ssg236
g3251
sg237
I0
sg238
g31
sg239
I0
sg240
I0
sg241
I0
sg242
I11
sg243
I0
sg244
I0
sg245
S'CHS'
p3316
sbsg3137
(ijoueur
joueur
p3317
(dp3318
g28
I0
sg32
I0
sg34
I0
sg35
g36
(g37
g38
Ntp3319
Rp3320
(dp3321
g42
I4
sg43
S'x'
p3322
sg45
S'heros'
p3323
sbsg47
(dp3324
S'SR'
p3325
I0
sS'ST'
p3326
I0
sS'CR'
p3327
I1
sS'CT'
p3328
I0
ssg53
(dp3329
g3325
I0
sg3326
I0
sg3327
I0
sg3328
I0
ssg56
I0
sg57
I0
sg59
I00
sg60
I0
sg61
I0
sg62
I0
sg63
(S'dummy'
p3330
S'C2'
p3331
S'AI'
p3332
g31
tp3333
sg69
I00
sg70
g36
(g37
g38
Ntp3334
Rp3335
(dp3336
g42
I1
sg43
S'>'
p3337
sg45
S'base'
p3338
sbsg75
(dp3339
g3325
I0
sg3326
I0
sg3327
I0
sg3328
I1
ssg81
(dp3340
g3325
I0
sg3326
I0
sg3327
I1
sg3328
I0
ssg83
(dp3341
g3325
I0
sg3326
I0
sg3327
I0
sg3328
I0
ssg85
(dp3342
g3325
I0
sg3326
I0
sg3327
I0
sg3328
I1
ssg87
I0
sg88
I0
sg89
S'Garyoid'
p3343
sg91
I11
sg92
I0
sg93
I21
sg94
I20
sg95
S'KHR'
p3344
sg97
(dp3345
S'A'
p3346
I9
sS'ME'
p3347
I3
sS'RP2'
p3348
I8
sS'E'
p3349
I8
sS'TO'
p3350
I5
sS'RP1'
p3351
I6
sS'JP'
p3352
I5
sS'RP_tot'
p3353
I8
sS'P'
p3354
I8
sS'PA'
p3355
I8
sS'M'
p3356
I10
sS'R'
p3357
I5
sS'TB'
p3358
I7
sS'PL'
p3359
I9
sS'TA'
p3360
I6
ssg211
I0
sg212
I0
sg213
I0
sg214
I0
sg215
F8.206896551724139
sg216
I0
sg217
I0
sg218
I0
sg219
(dp3361
S'A'
p3362
I9
sS'ME'
p3363
I3
sS'RP2'
p3364
I8
sS'E'
p3365
I8
sS'TO'
p3366
I5
sS'RP1'
p3367
I6
sS'JP'
p3368
I5
sS'RP_tot'
p3369
I8
sS'P'
p3370
I8
sS'PA'
p3371
I8
sS'M'
p3372
I10
sS'R'
p3373
I5
sS'TB'
p3374
I7
sS'PL'
p3375
I9
sS'TA'
p3376
I6
ssg236
g3345
sg237
I0
sg238
g31
sg239
I0
sg240
I0
sg241
I0
sg242
I3
sg243
I0
sg244
I0
sg245
S'CHS'
p3377
sbssg211
I1
sg212
I0
sg213
I0
sg214
I0
sg215
F9.448275862068966
sg216
I0
sg217
I0
sg218
I0
sg219
(dp3378
g3197
I9
sg3198
I3
sg3199
I8
sg3200
I8
sg3201
I8
sg3202
I6
sg3203
I5
sg3204
I8
sg3205
I5
sg3206
I8
sg3207
I10
sg3208
I5
sg3209
I7
sg3210
I9
sg3211
I6
ssg236
(dp3379
g2998
I12
sg2999
I5
sg3000
I7
sg3001
I9
sg3006
I8
sg3003
I8
sg3004
I4
sg3005
I9
sg3002
I9
sg3007
I11
sg3008
I9
sg3009
I3
sg3010
I9
sg3011
I11
sg3012
I8
ssg237
I0
sg343
(dp3380
sg239
I0
sg238
g31
sg240
I0
sg241
I0
sg242
I11
sg243
I0
sg244
I0
sg245
S'CHS'
p3381
sbsS'n21'
p3382
(ijoueur
joueur
p3383
(dp3384
g27
F10.172413793103448
sg28
I0
sg29
F9.793103448275861
sg30
g31
sg32
I0
sg33
F92.6874057870073
sg34
I0
sg35
g36
(g37
g38
Ntp3385
Rp3386
(dp3387
g42
I4
sg43
S'*'
p3388
sg45
S'heros'
p3389
sbsg47
(dp3390
S'SR'
p3391
I1
sS'CT'
p3392
I0
sS'CR'
p3393
I2
sS'ST'
p3394
I0
ssg53
(dp3395
g3391
I0
sg3392
I1
sg3393
I0
sg3394
I0
ssg55
I0
sg56
I0
sg57
I0
sg58
F92.6874057870073
sg59
I00
sg60
I0
sg61
I0
sg62
I0
sg63
(S'dummy'
p3396
S'C2'
p3397
S'AR'
p3398
S'AI'
p3399
tp3400
sg69
I00
sg70
g36
(g37
g38
Ntp3401
Rp3402
(dp3403
g42
I4
sg43
g3388
sg45
g3389
sbsg75
(dp3404
g77
I0
sg78
I3
sg79
I4
sg80
I0
ssg81
(dp3405
g77
I0
sg78
I0
sg79
I2
sg80
I0
ssg83
(dp3406
g77
I0
sg78
I0
sg79
I0
sg80
I0
ssg85
(dp3407
g3391
I0
sg3392
I17
sg3393
I6
sg3394
I5
ssg87
I0
sg88
I0
sg89
S'Guzum'
p3408
sg91
I1
sg92
I0
sg93
I11
sg94
I75
sg95
g96
sg97
(dp3409
S'A'
p3410
I9
sS'ME'
p3411
I5
sS'RP2'
p3412
I5
sS'E'
p3413
I14
sS'TO'
p3414
I3
sS'RP1'
p3415
I10
sS'JP'
p3416
I6
sS'RP_tot'
p3417
I10
sS'P'
p3418
I6
sS'PA'
p3419
I10
sS'M'
p3420
I7
sS'R'
p3421
I8
sS'TB'
p3422
I8
sS'PL'
p3423
I9
sS'TA'
p3424
I6
ssg114
(dp3425
S's12'
p3426
(ijoueur
joueur
p3427
(dp3428
g27
F10.172413793103448
sg28
I0
sg30
g31
sg32
I0
sg34
I0
sg35
g36
(g37
g38
Ntp3429
Rp3430
(dp3431
g42
I4
sg43
S'*'
p3432
sg45
S'heros'
p3433
sbsg47
(dp3434
S'SR'
p3435
I1
sS'CT'
p3436
I0
sS'CR'
p3437
I0
sS'ST'
p3438
I0
ssg53
(dp3439
g3435
I0
sg3436
I1
sg3437
I0
sg3438
I0
ssg81
(dp3440
S'SR'
p3441
I1
sS'CT'
p3442
I0
sS'CR'
p3443
I0
sS'ST'
p3444
I0
ssg56
I0
sg57
I0
sg60
I0
sg61
I0
sg62
I0
sg63
(S'dummy'
p3445
S'C2'
p3446
S'AR'
p3447
S'AI'
p3448
tp3449
sg69
I01
sg70
g36
(g37
g38
Ntp3450
Rp3451
(dp3452
g42
I4
sg43
g3432
sg45
g3433
sbsg75
(dp3453
g3441
I0
sg3442
I1
sg3443
I1
sg3444
I0
ssg59
I00
sg83
(dp3454
g3441
I0
sg3442
I1
sg3443
I0
sg3444
I0
ssg85
(dp3455
g3435
I0
sg3436
I14
sg3437
I2
sg3438
I5
ssg87
I0
sg88
I0
sg89
S'Guzum'
p3456
sg91
I1
sg92
I0
sg93
I11
sg94
I50
sg95
S'HTH'
p3457
sg97
(dp3458
S'A'
p3459
I9
sS'ME'
p3460
I5
sS'RP2'
p3461
I5
sS'E'
p3462
I14
sS'P'
p3463
I6
sS'RP1'
p3464
I10
sS'JP'
p3465
I6
sS'RP_tot'
p3466
I10
sS'TO'
p3467
I3
sS'PA'
p3468
I10
sS'M'
p3469
I8
sS'R'
p3470
I8
sS'TB'
p3471
I7
sS'PL'
p3472
I10
sS'TA'
p3473
I6
ssg114
(dp3474
S's11'
p3475
(ijoueur
joueur
p3476
(dp3477
g28
I0
sg32
I0
sg34
I0
sg35
g36
(g37
g38
Ntp3478
Rp3479
(dp3480
g42
I4
sg43
S'*'
p3481
sg45
S'heros'
p3482
sbsg47
(dp3483
S'SR'
p3484
I0
sS'CT'
p3485
I0
sS'CR'
p3486
I0
sS'ST'
p3487
I0
ssg53
(dp3488
g3484
I0
sg3485
I0
sg3486
I0
sg3487
I0
ssg56
I0
sg57
I0
sg59
I01
sg60
I1
sg61
I0
sg62
I0
sg63
(S'dummy'
p3489
S'C2'
p3490
S'AR'
p3491
S'AI'
p3492
tp3493
sg69
I00
sg70
g36
(g37
g38
Ntp3494
Rp3495
(dp3496
g42
I4
sg43
g3481
sg45
g3482
sbsg75
(dp3497
g3484
I0
sg3485
I13
sg3486
I1
sg3487
I5
ssg81
(dp3498
g3484
I0
sg3485
I0
sg3486
I0
sg3487
I0
ssg83
(dp3499
g3484
I0
sg3485
I0
sg3486
I0
sg3487
I0
ssg85
(dp3500
g3484
I0
sg3485
I13
sg3486
I1
sg3487
I5
ssg87
I0
sg88
I0
sg89
S'Guzum'
p3501
sg91
I1
sg92
I0
sg93
I11
sg94
I50
sg95
S'HTH'
p3502
sg97
(dp3503
S'A'
p3504
I10
sS'ME'
p3505
I5
sS'RP2'
p3506
I6
sS'E'
p3507
I14
sS'P'
p3508
I8
sS'RP1'
p3509
I10
sS'JP'
p3510
I6
sS'RP_tot'
p3511
I10
sS'TO'
p3512
I3
sS'PA'
p3513
I10
sS'M'
p3514
I8
sS'R'
p3515
I8
sS'TB'
p3516
I8
sS'PL'
p3517
I11
sS'TA'
p3518
I6
ssg211
I0
sg212
I0
sg213
I0
sg214
I0
sg215
F10.172413793103448
sg216
I0
sg217
I0
sg218
I0
sg219
(dp3519
S'A'
p3520
I10
sS'ME'
p3521
I5
sS'RP2'
p3522
I6
sS'E'
p3523
I14
sS'P'
p3524
I8
sS'RP1'
p3525
I10
sS'JP'
p3526
I6
sS'RP_tot'
p3527
I10
sS'TO'
p3528
I3
sS'PA'
p3529
I10
sS'M'
p3530
I8
sS'R'
p3531
I8
sS'TB'
p3532
I8
sS'PL'
p3533
I11
sS'TA'
p3534
I6
ssg236
g3503
sg237
I0
sg238
g31
sg239
I0
sg240
I0
sg241
I0
sg242
I7
sg243
I11
sg244
I0
sg245
S'O'
p3535
sbssg211
I0
sg212
I0
sg213
I0
sg214
I0
sg215
F9.793103448275861
sg216
I0
sg217
I0
sg218
I0
sg219
(dp3536
S'A'
p3537
I10
sS'ME'
p3538
I5
sS'RP2'
p3539
I6
sS'E'
p3540
I14
sS'TO'
p3541
I3
sS'RP1'
p3542
I10
sS'JP'
p3543
I6
sS'RP_tot'
p3544
I10
sS'P'
p3545
I8
sS'PA'
p3546
I10
sS'M'
p3547
I8
sS'R'
p3548
I8
sS'TB'
p3549
I8
sS'PL'
p3550
I11
sS'TA'
p3551
I6
ssg236
g3458
sg237
I0
sg238
g31
sg239
I0
sg240
I0
sg241
I0
sg242
I7
sg243
I11
sg244
I0
sg245
S'O'
p3552
sbsS's11'
p3553
(ijoueur
joueur
p3554
(dp3555
g28
I0
sg32
I0
sg34
I0
sg35
g36
(g37
g38
Ntp3556
Rp3557
(dp3558
g42
I4
sg43
S'*'
p3559
sg45
S'heros'
p3560
sbsg47
(dp3561
S'SR'
p3562
I0
sS'CT'
p3563
I0
sS'CR'
p3564
I0
sS'ST'
p3565
I0
ssg53
(dp3566
g3562
I0
sg3563
I0
sg3564
I0
sg3565
I0
ssg56
I0
sg57
I0
sg59
I01
sg60
I1
sg61
I0
sg62
I0
sg63
(S'dummy'
p3567
S'C2'
p3568
S'AR'
p3569
S'AI'
p3570
tp3571
sg69
I00
sg70
g36
(g37
g38
Ntp3572
Rp3573
(dp3574
g42
I4
sg43
g3559
sg45
g3560
sbsg75
(dp3575
g3562
I0
sg3563
I13
sg3564
I1
sg3565
I5
ssg81
(dp3576
g3562
I0
sg3563
I0
sg3564
I0
sg3565
I0
ssg83
(dp3577
g3562
I0
sg3563
I0
sg3564
I0
sg3565
I0
ssg85
(dp3578
g3562
I0
sg3563
I13
sg3564
I1
sg3565
I5
ssg87
I0
sg88
I0
sg89
S'Guzum'
p3579
sg91
I1
sg92
I0
sg93
I11
sg94
I50
sg95
S'HTH'
p3580
sg97
(dp3581
S'A'
p3582
I10
sS'ME'
p3583
I5
sS'RP2'
p3584
I6
sS'E'
p3585
I14
sS'P'
p3586
I8
sS'RP1'
p3587
I10
sS'JP'
p3588
I6
sS'RP_tot'
p3589
I10
sS'TO'
p3590
I3
sS'PA'
p3591
I10
sS'M'
p3592
I8
sS'R'
p3593
I8
sS'TB'
p3594
I8
sS'PL'
p3595
I11
sS'TA'
p3596
I6
ssg211
I0
sg212
I0
sg213
I0
sg214
I0
sg215
F10.172413793103448
sg216
I0
sg217
I0
sg218
I0
sg219
(dp3597
S'A'
p3598
I10
sS'ME'
p3599
I5
sS'RP2'
p3600
I6
sS'E'
p3601
I14
sS'P'
p3602
I8
sS'RP1'
p3603
I10
sS'JP'
p3604
I6
sS'RP_tot'
p3605
I10
sS'TO'
p3606
I3
sS'PA'
p3607
I10
sS'M'
p3608
I8
sS'R'
p3609
I8
sS'TB'
p3610
I8
sS'PL'
p3611
I11
sS'TA'
p3612
I6
ssg236
g3581
sg237
I0
sg238
g31
sg239
I0
sg240
I0
sg241
I0
sg242
I7
sg243
I11
sg244
I0
sg245
S'O'
p3613
sbssg211
I3
sg212
I0
sg213
I0
sg214
I0
sg215
F9.517241379310345
sg216
I0
sg217
I0
sg218
I0
sg219
(dp3614
S'A'
p3615
I10
sS'ME'
p3616
I5
sS'RP2'
p3617
I6
sS'E'
p3618
I14
sS'TO'
p3619
I3
sS'RP1'
p3620
I10
sS'JP'
p3621
I6
sS'RP_tot'
p3622
I10
sS'P'
p3623
I8
sS'PA'
p3624
I10
sS'M'
p3625
I8
sS'R'
p3626
I8
sS'TB'
p3627
I8
sS'PL'
p3628
I11
sS'TA'
p3629
I6
ssg236
(dp3630
g3410
I9
sg3411
I5
sg3412
I5
sg3413
I14
sg3418
I6
sg3415
I10
sg3416
I6
sg3417
I10
sg3414
I3
sg3419
I10
sg3420
I7
sg3421
I8
sg3422
I8
sg3423
I9
sg3424
I6
ssg237
I0
sg343
(dp3631
sg239
I0
sg238
S'HTH 13'
p3632
sg240
I0
sg241
I0
sg242
I6
sg243
I11
sg244
I0
sg245
S'O'
p3633
sbsS'n20'
p3634
(ijoueur
joueur
p3635
(dp3636
g28
I0
sg29
F8.969696969696969
sg30
g31
sg32
I1
sg33
F112.78016326561487
sg1136
g31
sg34
I0
sg1137
g31
sg35
g36
(g37
g38
Ntp3637
Rp3638
(dp3639
g42
I5
sg43
g2923
sg45
g2924
sbsg47
(dp3640
g2677
I0
sg2678
I0
sg2679
I2
sg2680
I1
ssg53
(dp3641
g2677
I0
sg2678
I0
sg2679
I0
sg2680
I0
ssg55
I0
sg238
g31
sg57
I0
sg58
F112.78016326561487
sg59
I00
sg60
I1
sg61
I0
sg62
I0
sg95
g96
sg69
I00
sg70
g36
(g37
g38
Ntp3642
Rp3643
(dp3644
g42
I2
sg43
g2930
sg45
g2931
sbsg75
(dp3645
g77
I0
sg78
I2
sg79
I7
sg80
I0
ssg81
(dp3646
g77
I0
sg78
I0
sg79
I2
sg80
I0
ssg83
(dp3647
g77
I0
sg78
I0
sg79
I0
sg80
I0
ssg85
(dp3648
g2677
I0
sg2678
I0
sg2679
I9
sg2680
I2
ssg87
I0
sg88
I0
sg89
S'Bretof'
p3649
sg91
I12
sg92
I0
sg93
I26
sg94
I35
sg63
(g2687
S'DO'
p3650
S'DM'
p3651
g31
tp3652
sg1160
g31
sg97
(dp3653
g2692
I6
sg2693
I5
sg2694
I6
sg2695
I10
sg2696
I8
sg2697
I9
sg2698
I11
sg2699
I7
sg2700
I7
sg2701
I11
sg2702
I10
sg2703
I8
sg2704
I7
sg2705
I10
sg2706
I7
ssg114
(dp3654
g116
(ijoueur
joueur
p3655
(dp3656
g28
I0
sg30
g31
sg32
I0
sg1136
g31
sg34
I0
sg1137
g31
sg35
g36
(g37
g38
Ntp3657
Rp3658
(dp3659
g42
I5
sg43
g2947
sg45
g2948
sbsg47
(dp3660
g2716
I0
sg2717
I0
sg2718
I0
sg2719
I1
ssg53
(dp3661
g2716
I0
sg2717
I0
sg2718
I0
sg2719
I0
ssg81
(dp3662
g2716
I0
sg2717
I0
sg2718
I0
sg2719
I1
ssg238
g31
sg57
I0
sg60
I0
sg61
I0
sg62
I0
sg95
g148
sg69
I00
sg70
g36
(g37
g38
Ntp3663
Rp3664
(dp3665
g42
I1
sg43
g2955
sg45
g2714
sbsg75
(dp3666
g2716
I0
sg2717
I0
sg2718
I2
sg2719
I0
ssg59
I01
sg83
(dp3667
g2716
I0
sg2717
I0
sg2718
I0
sg2719
I0
ssg85
(dp3668
g2716
I0
sg2717
I0
sg2718
I2
sg2719
I0
ssg87
I0
sg88
I0
sg89
S'Bretof'
p3669
sg91
I12
sg92
I0
sg93
I26
sg94
I16
sg63
(g2726
S'DO'
p3670
S'DM'
p3671
g31
tp3672
sg1160
g31
sg97
(dp3673
g2731
I6
sg2732
I4
sg2733
I6
sg2734
I10
sg2735
I7
sg2736
I10
sg2737
I8
sg2738
I6
sg2739
I8
sg2740
I10
sg2741
I10
sg2742
I8
sg2743
I8
sg2744
I10
sg2745
I6
ssg114
(dp3674
sg211
I0
sg212
I0
sg213
I0
sg214
I0
sg215
F8.969696969696969
sg216
I0
sg217
I0
sg218
I0
sg236
g3673
sg237
I0
sg239
I0
sg240
I0
sg241
I0
sg242
I1
sg243
I0
sg244
I0
sg245
g2747
sbssg211
I4
sg212
I0
sg213
I0
sg214
I0
sg215
F9.454545454545455
sg216
I0
sg217
I0
sg218
I0
sg236
(dp3675
g2692
I6
sg2693
I5
sg2694
I6
sg2695
I10
sg2700
I7
sg2698
I11
sg2697
I9
sg2699
I7
sg2696
I8
sg2701
I11
sg2702
I10
sg2703
I8
sg2704
I7
sg2705
I10
sg2706
I7
ssg237
I0
sg343
(dp3676
sg239
I0
sg240
I1
sg241
I0
sg242
I2
sg243
I1
sg244
I0
sg245
g2750
sbsS'n8'
p3677
g1712
sS'n9'
p3678
g25
sS'n1'
p3679
g705
sS'n2'
p3680
(ijoueur
joueur
p3681
(dp3682
g27
F10.0
sg28
I2
sg29
F10.620689655172415
sg30
S'PI -> TA : 13'
p3683
sg32
I0
sg33
F103.50597328335303
sg34
I0
sg35
g36
(g37
g38
Ntp3684
Rp3685
(dp3686
g42
I3
sg43
S'^^^'
p3687
sg45
S'rare'
p3688
sbsg47
(dp3689
S'SR'
p3690
I0
sS'ST'
p3691
I0
sS'CR'
p3692
I0
sS'CT'
p3693
I1
ssg53
(dp3694
g3690
I0
sg3691
I0
sg3692
I0
sg3693
I0
ssg55
I0
sg56
I0
sg215
F10.89655172413793
sg57
I0
sg58
F103.50597328335303
sg60
I0
sg61
I0
sg62
I0
sg63
(S'dummy'
p3695
S'TA'
p3696
S'PI'
p3697
g31
tp3698
sg69
I00
sg70
g36
(g37
g38
Ntp3699
Rp3700
(dp3701
g42
I3
sg43
S'^^^'
p3702
sg45
g3688
sbsg75
(dp3703
g77
I0
sg78
I9
sg79
I0
sg80
I0
ssg59
I00
sg83
(dp3704
g77
I0
sg78
I0
sg79
I0
sg80
I0
ssg85
(dp3705
g3690
I5
sg3691
I7
sg3692
I1
sg3693
I33
ssg87
I0
sg88
I0
sg89
S'Vuzgr'
p3706
sg91
I6
sg92
I0
sg93
I15
sg94
I117
sg95
g96
sg97
(dp3707
S'A'
p3708
I7
sS'ME'
p3709
I13
sS'RP2'
p3710
I9
sS'E'
p3711
I10
sS'P'
p3712
I3
sS'RP1'
p3713
I10
sS'JP'
p3714
I0
sS'RP_tot'
p3715
I11
sS'TO'
p3716
I4
sS'PA'
p3717
I7
sS'M'
p3718
I10
sS'R'
p3719
I9
sS'TB'
p3720
I1
sS'PL'
p3721
I8
sS'TA'
p3722
I16
ssg114
(dp3723
S's12'
p3724
(ijoueur
joueur
p3725
(dp3726
g27
F10.0
sg28
I2
sg30
g31
sg32
I0
sg34
I0
sg35
g36
(g37
g38
Ntp3727
Rp3728
(dp3729
g42
I3
sg43
S'^^^'
p3730
sg45
S'rare'
p3731
sbsg47
(dp3732
S'SR'
p3733
I5
sS'ST'
p3734
I7
sS'CR'
p3735
I1
sS'CT'
p3736
I24
ssg53
(dp3737
g3733
I0
sg3734
I0
sg3735
I0
sg3736
I0
ssg56
I0
sg57
I0
sg59
I00
sg60
I2
sg61
I0
sg62
I0
sg63
(S'dummy'
p3738
S'PI'
p3739
S'TA'
p3740
g31
tp3741
sg69
I01
sg70
g36
(g37
g38
Ntp3742
Rp3743
(dp3744
g42
I3
sg43
S'^^^'
p3745
sg45
g3731
sbsg75
(dp3746
S'SR'
p3747
I0
sS'CT'
p3748
I0
sS'CR'
p3749
I0
sS'ST'
p3750
I0
ssg81
(dp3751
g3747
I0
sg3748
I12
sg3749
I0
sg3750
I6
ssg83
(dp3752
g3747
I0
sg3748
I0
sg3749
I0
sg3750
I0
ssg85
(dp3753
g3733
I0
sg3734
I0
sg3735
I0
sg3736
I0
ssg87
I0
sg88
I0
sg89
S'Vuzgr'
p3754
sg91
I6
sg92
I0
sg93
I15
sg94
I92
sg95
S'ED'
p3755
sg97
(dp3756
S'A'
p3757
I7
sS'ME'
p3758
I13
sS'RP2'
p3759
I9
sS'E'
p3760
I10
sS'TO'
p3761
I4
sS'RP1'
p3762
I10
sS'JP'
p3763
I0
sS'RP_tot'
p3764
I12
sS'P'
p3765
I3
sS'PA'
p3766
I7
sS'M'
p3767
I10
sS'R'
p3768
I9
sS'TB'
p3769
I1
sS'PL'
p3770
I9
sS'TA'
p3771
I15
ssg114
(dp3772
S's11'
p3773
(ijoueur
joueur
p3774
(dp3775
g28
I1
sg32
I0
sg34
I0
sg35
g36
(g37
g38
Ntp3776
Rp3777
(dp3778
g42
I3
sg43
S'^^^'
p3779
sg45
S'rare'
p3780
sbsg47
(dp3781
S'SR'
p3782
I5
sS'ST'
p3783
I0
sS'CR'
p3784
I1
sS'CT'
p3785
I12
ssg53
(dp3786
g3782
I0
sg3783
I0
sg3784
I0
sg3785
I0
ssg56
I0
sg57
I0
sg59
I00
sg60
I0
sg61
I0
sg62
I0
sg63
(S'dummy'
p3787
S'PI'
p3788
S'TA'
p3789
g31
tp3790
sg69
I00
sg70
g36
(g37
g38
Ntp3791
Rp3792
(dp3793
g42
I3
sg43
S'^^^'
p3794
sg45
g3780
sbsg75
(dp3795
g3782
I0
sg3783
I0
sg3784
I0
sg3785
I0
ssg81
(dp3796
g3782
I5
sg3783
I0
sg3784
I1
sg3785
I12
ssg83
(dp3797
g3782
I0
sg3783
I0
sg3784
I0
sg3785
I0
ssg85
(dp3798
g3782
I0
sg3783
I0
sg3784
I0
sg3785
I0
ssg87
I0
sg88
I0
sg89
S'Vuzgr'
p3799
sg91
I6
sg92
I0
sg93
I15
sg94
I92
sg95
S'ED'
p3800
sg97
(dp3801
S'A'
p3802
I7
sS'ME'
p3803
I13
sS'RP2'
p3804
I8
sS'E'
p3805
I10
sS'TO'
p3806
I4
sS'RP1'
p3807
I10
sS'JP'
p3808
I0
sS'RP_tot'
p3809
I11
sS'P'
p3810
I3
sS'PA'
p3811
I7
sS'M'
p3812
I10
sS'R'
p3813
I9
sS'TB'
p3814
I1
sS'PL'
p3815
I9
sS'TA'
p3816
I13
ssg211
I0
sg212
I0
sg213
I0
sg214
I0
sg215
F10.206896551724139
sg216
I0
sg217
I0
sg218
I0
sg219
(dp3817
S'A'
p3818
I7
sS'ME'
p3819
I13
sS'RP2'
p3820
I8
sS'E'
p3821
I10
sS'TO'
p3822
I4
sS'RP1'
p3823
I10
sS'JP'
p3824
I0
sS'RP_tot'
p3825
I11
sS'P'
p3826
I3
sS'PA'
p3827
I7
sS'M'
p3828
I10
sS'R'
p3829
I9
sS'TB'
p3830
I1
sS'PL'
p3831
I9
sS'TA'
p3832
I13
ssg236
g3801
sg237
I1
sg238
S'MDL 10'
p3833
sg239
I0
sg240
I0
sg241
I0
sg242
I20
sg243
I9
sg244
I0
sg245
S'OG'
p3834
sbssg211
I8
sg212
I0
sg213
I1
sg214
I0
sg215
F10.482758620689655
sg216
I0
sg217
I1
sg218
I0
sg219
(dp3835
S'A'
p3836
I7
sS'ME'
p3837
I13
sS'RP2'
p3838
I8
sS'E'
p3839
I10
sS'TO'
p3840
I4
sS'RP1'
p3841
I10
sS'JP'
p3842
I0
sS'RP_tot'
p3843
I11
sS'P'
p3844
I3
sS'PA'
p3845
I7
sS'M'
p3846
I10
sS'R'
p3847
I9
sS'TB'
p3848
I1
sS'PL'
p3849
I9
sS'TA'
p3850
I13
ssg236
g3756
sg237
I1
sg238
S'MDL 10'
p3851
sg239
I0
sg240
I0
sg241
I0
sg242
I20
sg243
I11
sg244
I0
sg245
S'OG'
p3852
sbsS's11'
p3853
(ijoueur
joueur
p3854
(dp3855
g28
I1
sg32
I0
sg34
I0
sg35
g36
(g37
g38
Ntp3856
Rp3857
(dp3858
g42
I3
sg43
S'^^^'
p3859
sg45
S'rare'
p3860
sbsg47
(dp3861
S'SR'
p3862
I5
sS'ST'
p3863
I0
sS'CR'
p3864
I1
sS'CT'
p3865
I12
ssg53
(dp3866
g3862
I0
sg3863
I0
sg3864
I0
sg3865
I0
ssg56
I0
sg57
I0
sg59
I00
sg60
I0
sg61
I0
sg62
I0
sg63
(S'dummy'
p3867
S'PI'
p3868
S'TA'
p3869
g31
tp3870
sg69
I00
sg70
g36
(g37
g38
Ntp3871
Rp3872
(dp3873
g42
I3
sg43
S'^^^'
p3874
sg45
g3860
sbsg75
(dp3875
g3862
I0
sg3863
I0
sg3864
I0
sg3865
I0
ssg81
(dp3876
g3862
I5
sg3863
I0
sg3864
I1
sg3865
I12
ssg83
(dp3877
g3862
I0
sg3863
I0
sg3864
I0
sg3865
I0
ssg85
(dp3878
g3862
I0
sg3863
I0
sg3864
I0
sg3865
I0
ssg87
I0
sg88
I0
sg89
S'Vuzgr'
p3879
sg91
I6
sg92
I0
sg93
I15
sg94
I92
sg95
S'ED'
p3880
sg97
(dp3881
S'A'
p3882
I7
sS'ME'
p3883
I13
sS'RP2'
p3884
I8
sS'E'
p3885
I10
sS'TO'
p3886
I4
sS'RP1'
p3887
I10
sS'JP'
p3888
I0
sS'RP_tot'
p3889
I11
sS'P'
p3890
I3
sS'PA'
p3891
I7
sS'M'
p3892
I10
sS'R'
p3893
I9
sS'TB'
p3894
I1
sS'PL'
p3895
I9
sS'TA'
p3896
I13
ssg211
I0
sg212
I0
sg213
I0
sg214
I0
sg215
F10.206896551724139
sg216
I0
sg217
I0
sg218
I0
sg219
(dp3897
S'A'
p3898
I7
sS'ME'
p3899
I13
sS'RP2'
p3900
I8
sS'E'
p3901
I10
sS'TO'
p3902
I4
sS'RP1'
p3903
I10
sS'JP'
p3904
I0
sS'RP_tot'
p3905
I11
sS'P'
p3906
I3
sS'PA'
p3907
I7
sS'M'
p3908
I10
sS'R'
p3909
I9
sS'TB'
p3910
I1
sS'PL'
p3911
I9
sS'TA'
p3912
I13
ssg236
g3881
sg237
I1
sg238
S'MDL 10'
p3913
sg239
I0
sg240
I0
sg241
I0
sg242
I20
sg243
I9
sg244
I0
sg245
S'OG'
p3914
sbssg211
I10
sg212
I0
sg213
I1
sg214
I0
sg81
(dp3915
g77
I0
sg78
I1
sg79
I0
sg80
I0
ssg216
I0
sg217
I0
sg218
I0
sg219
(dp3916
S'A'
p3917
I7
sS'ME'
p3918
I13
sS'RP2'
p3919
I8
sS'E'
p3920
I10
sS'TO'
p3921
I4
sS'RP1'
p3922
I10
sS'JP'
p3923
I0
sS'RP_tot'
p3924
I11
sS'P'
p3925
I3
sS'PA'
p3926
I7
sS'M'
p3927
I10
sS'R'
p3928
I9
sS'TB'
p3929
I1
sS'PL'
p3930
I9
sS'TA'
p3931
I13
ssg236
(dp3932
g3708
I8
sg3709
I13
sg3710
I9
sg3711
I10
sg3716
I4
sg3713
I10
sg3714
I0
sg3715
I11
sg3712
I3
sg3717
I7
sg3718
I10
sg3719
I10
sg3720
I1
sg3721
I9
sg3722
I16
ssg237
I0
sg343
(dp3933
sg239
I0
sg238
S'MDL 10;ED 13'
p3934
sg240
I0
sg241
I0
sg242
I16
sg243
I11
sg244
I0
sg245
S'OG'
p3935
sbsS'n3'
p3936
g1536
sS'n4'
p3937
g1370
sS'n5'
p3938
(ijoueur
joueur
p3939
(dp3940
g27
F9.5
sg28
I0
sg29
F10.35483870967742
sg30
g31
sg32
I0
sg33
F102.97726440359185
sg34
I0
sg35
g36
(g37
g38
Ntp3941
Rp3942
(dp3943
g42
I5
sg43
S'xx'
p3944
sg45
S'seigneur'
p3945
sbsg47
(dp3946
S'SR'
p3947
I0
sS'ST'
p3948
I0
sS'CR'
p3949
I1
sS'CT'
p3950
I9
ssg53
(dp3951
g3947
I0
sg3948
I0
sg3949
I3
sg3950
I0
ssg55
I0
sg81
(dp3952
g77
I0
sg78
I9
sg79
I1
sg80
I0
ssg56
I0
sg57
I0
sg891
I0
sg892
I0
sg60
I1
sg61
I0
sg62
I0
sg63
(S'dummy'
p3953
S'TL'
p3954
S'DL'
p3955
S'N8'
p3956
tp3957
sg69
I00
sg70
g3942
sg75
(dp3958
g77
I0
sg78
I0
sg79
I0
sg80
I0
ssg59
I00
sg83
(dp3959
g77
I0
sg78
I0
sg79
I0
sg80
I0
ssg85
(dp3960
g3947
I0
sg3948
I0
sg3949
I3
sg3950
I22
ssg87
I0
sg88
I0
sg89
S'Zhdavr'
p3961
sg91
I8
sg92
I0
sg93
I24
sg94
I389
sg95
g96
sg97
(dp3962
S'A'
p3963
I10
sS'ME'
p3964
I12
sS'RP2'
p3965
I7
sS'E'
p3966
I9
sS'P'
p3967
I6
sS'RP1'
p3968
I12
sS'JP'
p3969
I4
sS'RP_tot'
p3970
I12
sS'TO'
p3971
I10
sS'PA'
p3972
I10
sS'M'
p3973
I13
sS'R'
p3974
I7
sS'TB'
p3975
I4
sS'PL'
p3976
I13
sS'TA'
p3977
I9
ssg114
(dp3978
S's12'
p3979
(ijoueur
joueur
p3980
(dp3981
g27
F9.5
sg28
I0
sg30
g31
sg32
I0
sg34
I0
sg35
g36
(g37
g38
Ntp3982
Rp3983
(dp3984
g42
I5
sg43
S'xx'
p3985
sg45
S'seigneur'
p3986
sbsg47
(dp3987
S'SR'
p3988
I0
sS'ST'
p3989
I0
sS'CR'
p3990
I0
sS'CT'
p3991
I0
ssg53
(dp3992
g3988
I0
sg3989
I0
sg3990
I3
sg3991
I0
ssg56
I0
sg215
F10.35483870967742
sg57
I0
sg891
I0
sg892
I0
sg60
I0
sg61
I0
sg62
I0
sg63
(S'dummy'
p3993
S'TL'
p3994
S'DL'
p3995
S'N8'
p3996
tp3997
sg69
I01
sg70
g3983
sg75
(dp3998
S'SR'
p3999
I0
sS'ST'
p4000
I0
sS'CR'
p4001
I0
sS'CT'
p4002
I14
ssg59
I00
sg83
(dp4003
g3999
I0
sg4000
I0
sg4001
I0
sg4002
I0
ssg85
(dp4004
g3988
I0
sg3989
I0
sg3990
I3
sg3991
I22
ssg87
I0
sg88
I0
sg89
S'Zhdavr'
p4005
sg91
I8
sg92
I0
sg93
I24
sg94
I173
sg95
S'DKW'
p4006
sg97
(dp4007
S'A'
p4008
I11
sS'ME'
p4009
I11
sS'RP2'
p4010
I7
sS'E'
p4011
I9
sS'TO'
p4012
I10
sS'RP1'
p4013
I11
sS'JP'
p4014
I4
sS'RP_tot'
p4015
I11
sS'P'
p4016
I6
sS'PA'
p4017
I10
sS'M'
p4018
I13
sS'R'
p4019
I8
sS'TB'
p4020
I4
sS'PL'
p4021
I13
sS'TA'
p4022
I9
ssg114
(dp4023
S's11'
p4024
(ijoueur
joueur
p4025
(dp4026
g28
I0
sg32
I0
sg34
I0
sg35
g36
(g37
g38
Ntp4027
Rp4028
(dp4029
g42
I5
sg43
S'xx'
p4030
sg45
S'seigneur'
p4031
sbsg47
(dp4032
S'SR'
p4033
I0
sS'CT'
p4034
I0
sS'CR'
p4035
I0
sS'ST'
p4036
I0
ssg53
(dp4037
g4033
I0
sg4034
I0
sg4035
I3
sg4036
I0
ssg56
I0
sg215
F9.5
sg57
I0
sg891
I0
sg892
I0
sg60
I0
sg61
I0
sg62
I0
sg63
(S'dummy'
p4038
S'TL'
p4039
S'DL'
p4040
S'N8'
p4041
tp4042
sg69
I00
sg70
g36
(g37
g38
Ntp4043
Rp4044
(dp4045
g42
I4
sg43
S'*'
p4046
sg45
S'heros'
p4047
sbsg75
(dp4048
g4033
I0
sg4034
I8
sg4035
I3
sg4036
I0
ssg59
I00
sg83
(dp4049
g4033
I0
sg4034
I0
sg4035
I3
sg4036
I0
ssg85
(dp4050
g4033
I0
sg4034
I8
sg4035
I3
sg4036
I0
ssg87
I0
sg88
I0
sg89
S'Zhdavr'
p4051
sg91
I8
sg92
I0
sg93
I24
sg94
I83
sg95
S'DKW'
p4052
sg97
(dp4053
S'A'
p4054
I10
sS'ME'
p4055
I9
sS'RP2'
p4056
I7
sS'E'
p4057
I9
sS'P'
p4058
I6
sS'RP1'
p4059
I9
sS'JP'
p4060
I4
sS'RP_tot'
p4061
I9
sS'TO'
p4062
I10
sS'PA'
p4063
I10
sS'M'
p4064
I10
sS'R'
p4065
I7
sS'TB'
p4066
I4
sS'PL'
p4067
I13
sS'TA'
p4068
I7
ssg211
I0
sg212
I0
sg213
I0
sg214
I0
sg81
(dp4069
g4033
I0
sg4034
I0
sg4035
I0
sg4036
I0
ssg216
I0
sg1011
I0
sg217
I0
sg218
I0
sg219
(dp4070
S'A'
p4071
I10
sS'ME'
p4072
I9
sS'RP2'
p4073
I7
sS'E'
p4074
I9
sS'P'
p4075
I6
sS'RP1'
p4076
I9
sS'JP'
p4077
I4
sS'RP_tot'
p4078
I9
sS'TO'
p4079
I10
sS'PA'
p4080
I10
sS'M'
p4081
I10
sS'R'
p4082
I7
sS'TB'
p4083
I4
sS'PL'
p4084
I13
sS'TA'
p4085
I7
ssg236
g4053
sg237
I0
sg238
g31
sg239
I0
sg240
I0
sg241
I0
sg242
I9
sg243
I0
sg244
I0
sg245
S'HB'
p4086
sbssg211
I0
sg212
I0
sg213
I0
sg214
I0
sg81
(dp4087
g3999
I0
sg4000
I0
sg4001
I0
sg4002
I0
ssg216
I0
sg1011
I0
sg217
I0
sg218
I0
sg219
(dp4088
S'A'
p4089
I10
sS'ME'
p4090
I9
sS'RP2'
p4091
I7
sS'E'
p4092
I9
sS'TO'
p4093
I10
sS'RP1'
p4094
I9
sS'JP'
p4095
I4
sS'RP_tot'
p4096
I9
sS'P'
p4097
I6
sS'PA'
p4098
I10
sS'M'
p4099
I10
sS'R'
p4100
I7
sS'TB'
p4101
I4
sS'PL'
p4102
I13
sS'TA'
p4103
I7
ssg236
g4007
sg237
I0
sg238
g31
sg239
I0
sg240
I0
sg241
I0
sg242
I18
sg243
I0
sg244
I0
sg245
S'HB'
p4104
sbsS's11'
p4105
(ijoueur
joueur
p4106
(dp4107
g28
I0
sg32
I0
sg34
I0
sg35
g36
(g37
g38
Ntp4108
Rp4109
(dp4110
g42
I5
sg43
S'xx'
p4111
sg45
S'seigneur'
p4112
sbsg47
(dp4113
S'SR'
p4114
I0
sS'CT'
p4115
I0
sS'CR'
p4116
I0
sS'ST'
p4117
I0
ssg53
(dp4118
g4114
I0
sg4115
I0
sg4116
I3
sg4117
I0
ssg56
I0
sg215
F9.5
sg57
I0
sg891
I0
sg892
I0
sg60
I0
sg61
I0
sg62
I0
sg63
(S'dummy'
p4119
S'TL'
p4120
S'DL'
p4121
S'N8'
p4122
tp4123
sg69
I00
sg70
g36
(g37
g38
Ntp4124
Rp4125
(dp4126
g42
I4
sg43
S'*'
p4127
sg45
S'heros'
p4128
sbsg75
(dp4129
g4114
I0
sg4115
I8
sg4116
I3
sg4117
I0
ssg59
I00
sg83
(dp4130
g4114
I0
sg4115
I0
sg4116
I3
sg4117
I0
ssg85
(dp4131
g4114
I0
sg4115
I8
sg4116
I3
sg4117
I0
ssg87
I0
sg88
I0
sg89
S'Zhdavr'
p4132
sg91
I8
sg92
I0
sg93
I24
sg94
I83
sg95
S'DKW'
p4133
sg97
(dp4134
S'A'
p4135
I10
sS'ME'
p4136
I9
sS'RP2'
p4137
I7
sS'E'
p4138
I9
sS'P'
p4139
I6
sS'RP1'
p4140
I9
sS'JP'
p4141
I4
sS'RP_tot'
p4142
I9
sS'TO'
p4143
I10
sS'PA'
p4144
I10
sS'M'
p4145
I10
sS'R'
p4146
I7
sS'TB'
p4147
I4
sS'PL'
p4148
I13
sS'TA'
p4149
I7
ssg211
I0
sg212
I0
sg213
I0
sg214
I0
sg81
(dp4150
g4114
I0
sg4115
I0
sg4116
I0
sg4117
I0
ssg216
I0
sg1011
I0
sg217
I0
sg218
I0
sg219
(dp4151
S'A'
p4152
I10
sS'ME'
p4153
I9
sS'RP2'
p4154
I7
sS'E'
p4155
I9
sS'P'
p4156
I6
sS'RP1'
p4157
I9
sS'JP'
p4158
I4
sS'RP_tot'
p4159
I9
sS'TO'
p4160
I10
sS'PA'
p4161
I10
sS'M'
p4162
I10
sS'R'
p4163
I7
sS'TB'
p4164
I4
sS'PL'
p4165
I13
sS'TA'
p4166
I7
ssg236
g4134
sg237
I0
sg238
g31
sg239
I0
sg240
I0
sg241
I0
sg242
I9
sg243
I0
sg244
I0
sg245
S'HB'
p4167
sbssg211
I11
sg212
I0
sg213
I0
sg214
I0
sg215
F10.741935483870968
sg216
I0
sg58
F102.97726440359185
sg1011
I0
sg217
I0
sg218
I0
sg219
(dp4168
S'A'
p4169
I10
sS'ME'
p4170
I9
sS'RP2'
p4171
I7
sS'E'
p4172
I9
sS'TO'
p4173
I10
sS'RP1'
p4174
I9
sS'JP'
p4175
I4
sS'RP_tot'
p4176
I9
sS'P'
p4177
I6
sS'PA'
p4178
I10
sS'M'
p4179
I10
sS'R'
p4180
I7
sS'TB'
p4181
I4
sS'PL'
p4182
I13
sS'TA'
p4183
I7
ssg236
(dp4184
g3963
I11
sg3964
I12
sg3965
I7
sg3966
I9
sg3971
I10
sg3968
I12
sg3969
I4
sg3970
I12
sg3967
I6
sg3972
I10
sg3973
I13
sg3974
I8
sg3975
I4
sg3976
I14
sg3977
I9
ssg237
I0
sg343
(dp4185
sg239
I0
sg238
S'DKW 13'
p4186
sg240
I0
sg241
I0
sg242
I20
sg243
I1
sg244
I0
sg245
S'HB'
p4187
sbsS'n6'
p4188
g347
sS'n7'
p4189
g1134
ssS'remplacements'
p4190
(dp4191
g2503
S'n0'
p4192
sg2668
g4192
sg2917
g4192
sg2967
g4192
sg3215
g4192
sg3382
g4192
sg3634
g4192
ssb.