(iclub
compo
p0
(dp1
S'caracs_old'
p2
(dp3
S'A'
p4
F168.5
sS'ME'
p5
F101.0
sS'E'
p6
I215
sS'OplusAV'
p7
F100.5
sS'TO_off'
p8
F131.5
sS'OplusAR'
p9
F91.0
sS'M'
p10
F60.5
sS'JP'
p11
F98.5
sS'OmoinsAR'
p12
F49.0
sS'PA'
p13
F122.5
sS'TO_def'
p14
F122.0
sS'OmoinsAV'
p15
F59.0
sS'R'
p16
F199.0
ssS'totaux_old'
p17
(dp18
S'T2'
p19
F194.75
sS'T3'
p20
F107.5
sS'T1'
p21
F213.375
ssS'roles'
p22
(dp23
S'drop1'
p24
(ijoueur
joueur
p25
(dp26
S'rouges_total'
p27
I0
sS'drops_total'
p28
I0
sS'blessure'
p29
I0
sS'RG_max'
p30
(ijoueur
rang
p31
(dp32
S'type_nb'
p33
I4
sS'rang'
p34
S'*'
p35
sS'type'
p36
S'heros'
p37
sbsS'MJ2_total'
p38
(dp39
S'SR'
p40
I0
sS'CT'
p41
I0
sS'CR'
p42
I0
sS'ST'
p43
I0
ssS'MJ3_total'
p44
(dp45
g40
I0
sg41
I0
sg42
I0
sg43
I0
ssS'drop_rates_total'
p46
I0
sS'drop_rates_saison'
p47
I0
sS'essais_saison'
p48
I0
sS'penalite_ratees_saison'
p49
I2
sS'transformations_saison'
p50
I2
sS'postes'
p51
(S'dummy'
p52
S'DM'
p53
S'DO'
p54
S''
p55
tp56
sS'RG'
p57
(ijoueur
rang
p58
(dp59
g33
I4
sg34
g35
sg36
g37
sbsS'MJ1'
p60
(dp61
g40
I0
sg41
I6
sg42
I0
sg43
I0
ssS'MJ2'
p62
(dp63
g40
I0
sg41
I0
sg42
I0
sg43
I0
ssS'MJ3'
p64
(dp65
g40
I0
sg41
I0
sg42
I0
sg43
I0
ssS'MJ1_total'
p66
(dp67
g40
I0
sg41
I6
sg42
I0
sg43
I0
ssS'penalites_total'
p68
I19
sS'penalites_saison'
p69
I19
sS'nom'
p70
S'Dlaonal'
p71
sS'C'
p72
I7
sS'transformations_total'
p73
I2
sS'D'
p74
I18
sS'VAL'
p75
I147
sS'club'
p76
S'FS'
p77
sS'caracs'
p78
(dp79
S'A'
p80
I12
sS'ME'
p81
I3
sS'RP2'
p82
I8
sS'E'
p83
I12
sS'TO'
p84
I8
sS'RP1'
p85
I6
sS'JP'
p86
I9
sS'RP_tot'
p87
I8
sS'P'
p88
I10
sS'PA'
p89
I13
sS'M'
p90
I9
sS'R'
p91
I5
sS'TB'
p92
I10
sS'PL'
p93
I7
sS'TA'
p94
I4
ssS'fatigue'
p95
I1
sS'drop_ratees_total'
p96
I0
sS'blessures_total'
p97
I0
sS'XP'
p98
I0
sS'EV'
p99
F10.206896551724139
sS'penalite_ratees_total'
p100
I2
sS'blessures_saison'
p101
I0
sS'jaunes_total'
p102
I0
sS'caracs_sans_fatigue'
p103
(dp104
g80
I12
sg81
I3
sg82
I8
sg83
I12
sg88
I10
sg85
I6
sg86
I9
sg87
I8
sg84
I8
sg89
I13
sg90
I9
sg91
I5
sg92
I10
sg93
I7
sg94
I4
ssS'rouges_saison'
p105
I0
sS'anciens_clubs'
p106
g55
sS'transformation_ratees_total'
p107
I0
sS'drops_saison'
p108
I0
sS'transformation_ratees_saison'
p109
I0
sS'MS'
p110
I13
sS'essais_total'
p111
I1
sS'jaunes_saison'
p112
I0
sS'ARM'
p113
S'ES'
p114
sbsS'SA_scd'
p115
(ijoueur
joueur
p116
(dp117
g27
I0
sg28
I0
sg29
I0
sg30
(ijoueur
rang
p118
(dp119
g33
I4
sg34
g35
sg36
g37
sbsg38
(dp120
g40
I0
sg41
I0
sg42
I0
sg43
I0
ssg44
(dp121
g40
I0
sg41
I0
sg42
I0
sg43
I0
ssg46
I0
sg47
I0
sg48
I0
sg49
I0
sg50
I0
sg51
(g52
S'TL'
p122
g55
g55
tp123
sg57
(ijoueur
rang
p124
(dp125
g33
I4
sg34
g35
sg36
g37
sbsg60
(dp126
g40
I0
sg41
I6
sg42
I0
sg43
I0
ssg62
(dp127
g40
I0
sg41
I0
sg42
I0
sg43
I0
ssg64
(dp128
g40
I0
sg41
I0
sg42
I0
sg43
I0
ssg66
(dp129
g40
I0
sg41
I6
sg42
I0
sg43
I0
ssg68
I0
sg69
I0
sg70
S'Senfel'
p130
sg72
I2
sg73
I0
sg74
I14
sg75
I70
sg76
g77
sg78
(dp131
g80
I10
sg81
I13
sg82
I11
sg83
I11
sg84
I13
sg85
I9
sg86
I6
sg87
I13
sg88
I10
sg89
I8
sg90
I9
sg91
I13
sg92
I8
sg93
I10
sg94
I9
ssg95
I6
sg96
I0
sg97
I0
sg98
I0
sg99
F11.736842105263158
sg100
I0
sg101
I0
sg102
I0
sg103
(dp132
g80
I10
sg81
I13
sg82
I11
sg83
I11
sg88
I10
sg85
I9
sg86
I6
sg87
I13
sg84
I13
sg89
I8
sg90
I9
sg91
I13
sg92
I8
sg93
I10
sg94
I9
ssg105
I0
sg106
g55
sg107
I0
sg108
I0
sg109
I0
sg110
I7
sg111
I11
sg112
I0
sg113
S'ES'
p133
sbsS'RJL'
p134
(ijoueur
joueur
p135
(dp136
g27
I0
sg28
I16
sg29
I0
sg30
(ijoueur
rang
p137
(dp138
g33
I5
sg34
S'**'
p139
sg36
S'seigneur'
p140
sbsg38
(dp141
g40
I0
sg41
I0
sg42
I0
sg43
I0
ssg44
(dp142
g40
I0
sg41
I0
sg42
I0
sg43
I0
ssg46
I1
sg47
I1
sg48
I0
sg49
I0
sg50
I0
sg51
(g52
S'DO'
p143
S'DM'
p144
g55
tp145
sg57
(ijoueur
rang
p146
(dp147
g33
I5
sg34
S'**'
p148
sg36
g140
sbsg60
(dp149
g40
I0
sg41
I6
sg42
I0
sg43
I0
ssg62
(dp150
g40
I0
sg41
I0
sg42
I0
sg43
I0
ssg64
(dp151
g40
I0
sg41
I0
sg42
I0
sg43
I0
ssg66
(dp152
g40
I0
sg41
I6
sg42
I0
sg43
I0
ssg68
I0
sg69
I0
sg70
S'Vorhovlen'
p153
sg72
I6
sg73
I0
sg74
I14
sg75
I234
sg76
g77
sg78
(dp154
g80
I11
sg81
I6
sg82
I10
sg83
I10
sg84
I6
sg85
I7
sg86
I11
sg87
I10
sg88
I13
sg89
I13
sg90
I10
sg91
I9
sg92
I8
sg93
I11
sg94
I5
ssg95
I5
sg96
I0
sg97
I0
sg98
I0
sg99
F11.242424242424242
sg100
I0
sg101
I0
sg102
I0
sg103
(dp155
g80
I11
sg81
I6
sg82
I10
sg83
I10
sg88
I13
sg85
I7
sg86
I11
sg87
I10
sg84
I6
sg89
I13
sg90
I10
sg91
I9
sg92
I8
sg93
I11
sg94
I5
ssg105
I0
sg106
g55
sg107
I0
sg108
I0
sg109
I0
sg110
I41
sg111
I5
sg112
I0
sg113
S'CV'
p156
sbsS'cap'
p157
(ijoueur
joueur
p158
(dp159
g27
I0
sg28
I0
sg29
I0
sg30
(ijoueur
rang
p160
(dp161
g33
I5
sg34
S'**'
p162
sg36
g140
sbsg38
(dp163
g40
I0
sg41
I0
sg42
I0
sg43
I0
ssg44
(dp164
g40
I0
sg41
I0
sg42
I0
sg43
I0
ssg46
I0
sg47
I0
sg48
I1
sg49
I0
sg50
I0
sg51
(g52
S'TA'
p165
S'PI'
p166
g55
tp167
sg57
(ijoueur
rang
p168
(dp169
g33
I5
sg34
S'**'
p170
sg36
g140
sbsg60
(dp171
g40
I0
sg41
I6
sg42
I0
sg43
I0
ssg62
(dp172
g40
I0
sg41
I0
sg42
I0
sg43
I0
ssg64
(dp173
g40
I0
sg41
I0
sg42
I0
sg43
I0
ssg66
(dp174
g40
I0
sg41
I6
sg42
I0
sg43
I0
ssg68
I0
sg69
I0
sg70
S"Ayak'Ed"
p175
sg72
I7
sg73
I0
sg74
I21
sg75
I219
sg76
g77
sg78
(dp176
g80
I11
sg81
I10
sg82
I9
sg83
I13
sg84
I6
sg85
I14
sg86
I4
sg87
I16
sg88
I5
sg89
I8
sg90
I7
sg91
I10
sg92
I6
sg93
I6
sg94
I11
ssg95
I8
sg96
I0
sg97
I0
sg98
I0
sg99
F11.137931034482758
sg100
I0
sg101
I0
sg102
I0
sg103
(dp177
g80
I12
sg81
I10
sg82
I9
sg83
I13
sg88
I5
sg85
I14
sg86
I4
sg87
I16
sg84
I6
sg89
I8
sg90
I7
sg91
I11
sg92
I6
sg93
I7
sg94
I11
ssg105
I0
sg106
S'MDL9'
p178
sg107
I0
sg108
I0
sg109
I0
sg110
I35
sg111
I5
sg112
I0
sg113
S'HL'
p179
sbsS'B4'
p180
g25
sS'RJC'
p181
g135
sS'B1'
p182
(ijoueur
joueur
p183
(dp184
g27
I1
sg28
I0
sg29
I0
sg30
(ijoueur
rang
p185
(dp186
g33
I4
sg34
S'x'
p187
sg36
g37
sbsg38
(dp188
g40
I0
sg41
I0
sg42
I0
sg43
I0
ssg44
(dp189
g40
I0
sg41
I0
sg42
I0
sg43
I0
ssg46
I0
sg47
I0
sg48
I3
sg49
I0
sg50
I6
sg51
(g52
S'AI'
p190
g55
g55
tp191
sg57
(ijoueur
rang
p192
(dp193
g33
I4
sg34
g187
sg36
g37
sbsg60
(dp194
g40
I0
sg41
I6
sg42
I0
sg43
I0
ssg62
(dp195
g40
I0
sg41
I0
sg42
I0
sg43
I0
ssg64
(dp196
g40
I0
sg41
I0
sg42
I0
sg43
I0
ssg66
(dp197
g40
I0
sg41
I6
sg42
I0
sg43
I0
ssg68
I8
sg69
I0
sg70
S'Foutor'
p198
sg72
I6
sg73
I11
sg74
I20
sg75
I278
sg76
g77
sg78
(dp199
g80
I9
sg81
I6
sg82
I13
sg83
I12
sg84
I3
sg85
I10
sg86
I9
sg87
I16
sg88
I8
sg89
I9
sg90
I11
sg91
I11
sg92
I11
sg93
I7
sg94
I5
ssg95
I6
sg96
I0
sg97
I0
sg98
I0
sg99
F10.848484848484848
sg100
I0
sg101
I0
sg102
I0
sg103
(dp200
g80
I9
sg81
I6
sg82
I13
sg83
I12
sg88
I8
sg85
I10
sg86
I9
sg87
I16
sg84
I3
sg89
I9
sg90
I11
sg91
I11
sg92
I11
sg93
I7
sg94
I5
ssg105
I1
sg106
S'MDL9'
p201
sg107
I0
sg108
I0
sg109
I0
sg110
I39
sg111
I13
sg112
I0
sg113
S'OG'
p202
sbsS'B2'
p203
g25
sS'B3'
p204
g25
sS'SA_pcp2'
p205
(ijoueur
joueur
p206
(dp207
g27
I0
sg28
I0
sg29
I0
sg30
(ijoueur
rang
p208
(dp209
g33
I5
sg34
S'**'
p210
sg36
g140
sbsg38
(dp211
g40
I0
sg41
I0
sg42
I0
sg43
I0
ssg44
(dp212
g40
I0
sg41
I0
sg42
I0
sg43
I0
ssg46
I0
sg47
I0
sg48
I0
sg49
I0
sg50
I0
sg51
(g52
S'DL'
p213
g55
g55
tp214
sg57
(ijoueur
rang
p215
(dp216
g33
I2
sg34
S'<<'
p217
sg36
S'special'
p218
sbsg60
(dp219
g40
I0
sg41
I3
sg42
I3
sg43
I0
ssg62
(dp220
g40
I0
sg41
I0
sg42
I0
sg43
I0
ssg64
(dp221
g40
I0
sg41
I0
sg42
I0
sg43
I0
ssg66
(dp222
g40
I0
sg41
I3
sg42
I3
sg43
I0
ssg68
I0
sg69
I0
sg70
S'Qlapaross'
p223
sg72
I10
sg73
I0
sg74
I26
sg75
I21
sg76
g77
sg78
(dp224
g80
I10
sg81
I8
sg82
I6
sg83
I9
sg84
I14
sg85
I8
sg86
I5
sg87
I8
sg88
I5
sg89
I9
sg90
I12
sg91
I8
sg92
I3
sg93
I8
sg94
I3
ssg95
I4
sg96
I0
sg97
I0
sg98
I0
sg99
F9.617647058823529
sg100
I0
sg101
I0
sg102
I0
sg103
(dp225
g80
I10
sg81
I8
sg82
I6
sg83
I9
sg88
I5
sg85
I8
sg86
I5
sg87
I8
sg84
I14
sg89
I9
sg90
I12
sg91
I8
sg92
I3
sg93
I8
sg94
I3
ssg105
I0
sg106
g55
sg107
I0
sg108
I0
sg109
I0
sg110
I2
sg111
I0
sg112
I0
sg113
S'ES'
p226
sbsS'SA_pcp1'
p227
(ijoueur
joueur
p228
(dp229
g27
I0
sg28
I0
sg29
I0
sg30
(ijoueur
rang
p230
(dp231
g33
I5
sg34
S'**'
p232
sg36
g140
sbsg38
(dp233
g40
I0
sg41
I0
sg42
I0
sg43
I0
ssg44
(dp234
g40
I0
sg41
I5
sg42
I0
sg43
I0
ssg46
I0
sg47
I0
sg48
I1
sg49
I0
sg50
I0
sg51
(g52
S'TL'
p235
S'N8'
p236
S'DL'
p237
tp238
sg57
(ijoueur
rang
p239
(dp240
g33
I4
sg34
g35
sg36
g37
sbsg60
(dp241
g40
I0
sg41
I0
sg42
I0
sg43
I0
ssg62
(dp242
g40
I0
sg41
I0
sg42
I0
sg43
I0
ssg64
(dp243
g40
I0
sg41
I5
sg42
I0
sg43
I0
ssg66
(dp244
g40
I0
sg41
I0
sg42
I0
sg43
I0
ssg68
I0
sg69
I0
sg70
S'Tafaol'
p245
sg72
I8
sg73
I0
sg74
I23
sg75
I75
sg76
g77
sg78
(dp246
g80
I11
sg81
I11
sg82
I9
sg83
I11
sg84
I14
sg85
I12
sg86
I6
sg87
I14
sg88
I7
sg89
I11
sg90
I10
sg91
I7
sg92
I7
sg93
I10
sg94
I4
ssg95
I5
sg96
I0
sg97
I0
sg98
I0
sg99
F10.710526315789474
sg100
I0
sg101
I0
sg102
I0
sg103
(dp247
g80
I11
sg81
I11
sg82
I9
sg83
I11
sg88
I7
sg85
I12
sg86
I6
sg87
I14
sg84
I14
sg89
I11
sg90
I10
sg91
I7
sg92
I7
sg93
I10
sg94
I4
ssg105
I0
sg106
g55
sg107
I0
sg108
I0
sg109
I0
sg110
I10
sg111
I1
sg112
I0
sg113
S'ES'
p248
sbsS'drop3'
p249
(ijoueur
joueur
p250
(dp251
g27
I0
sg28
I17
sg29
I0
sg30
(ijoueur
rang
p252
(dp253
g33
I4
sg34
g35
sg36
g37
sbsg38
(dp254
g40
I0
sg41
I1
sg42
I2
sg43
I0
ssg44
(dp255
g40
I0
sg41
I1
sg42
I1
sg43
I0
ssg46
I0
sg47
I0
sg48
I0
sg49
I0
sg50
I8
sg51
(g52
S'C1'
p256
S'DO'
p257
S'DM'
p258
tp259
sg57
(ijoueur
rang
p260
(dp261
g33
I4
sg34
g35
sg36
g37
sbsg60
(dp262
g40
I0
sg41
I1
sg42
I0
sg43
I0
ssg62
(dp263
g40
I0
sg41
I1
sg42
I2
sg43
I0
ssg64
(dp264
g40
I0
sg41
I1
sg42
I1
sg43
I0
ssg66
(dp265
g40
I0
sg41
I1
sg42
I0
sg43
I0
ssg68
I259
sg69
I0
sg70
S'Aiol'
p266
sg72
I2
sg73
I117
sg74
I12
sg75
I70
sg76
g77
sg78
(dp267
g80
I11
sg81
I7
sg82
I8
sg83
I11
sg84
I7
sg85
I7
sg86
I9
sg87
I8
sg88
I10
sg89
I11
sg90
I9
sg91
I8
sg92
I11
sg93
I8
sg94
I7
ssg95
I8
sg96
I0
sg97
I0
sg98
I0
sg99
F9.9375
sg100
I0
sg101
I0
sg102
I0
sg103
(dp268
g80
I12
sg81
I7
sg82
I8
sg83
I11
sg88
I10
sg85
I7
sg86
I9
sg87
I8
sg84
I7
sg89
I11
sg90
I9
sg91
I9
sg92
I11
sg93
I9
sg94
I7
ssg105
I0
sg106
g55
sg107
I0
sg108
I0
sg109
I0
sg110
I7
sg111
I8
sg112
I0
sg113
S'ES'
p269
sbsS'SA_remp1'
p270
(ijoueur
joueur
p271
(dp272
g27
I0
sg28
I0
sg29
I0
sg30
(ijoueur
rang
p273
(dp274
g33
I6
sg34
S'***'
p275
sg36
S'personnage'
p276
sbsg38
(dp277
g40
I0
sg41
I4
sg42
I0
sg43
I0
ssg44
(dp278
g40
I0
sg41
I0
sg42
I0
sg43
I0
ssg46
I0
sg47
I0
sg48
I4
sg49
I0
sg50
I0
sg51
(g52
S'N8'
p279
S'TL'
p280
g55
tp281
sg57
(ijoueur
rang
p282
(dp283
g33
I6
sg34
S'***'
p284
sg36
g276
sbsg60
(dp285
g40
I0
sg41
I2
sg42
I0
sg43
I0
ssg62
(dp286
g40
I0
sg41
I4
sg42
I0
sg43
I0
ssg64
(dp287
g40
I0
sg41
I0
sg42
I0
sg43
I0
ssg66
(dp288
g40
I0
sg41
I2
sg42
I0
sg43
I0
ssg68
I0
sg69
I0
sg70
S'Archaon'
p289
sg72
I1
sg73
I0
sg74
I9
sg75
I600
sg76
g77
sg78
(dp290
g80
I13
sg81
I10
sg82
I9
sg83
I11
sg84
I11
sg85
I12
sg86
I5
sg87
I14
sg88
I4
sg89
I11
sg90
I8
sg91
I13
sg92
I5
sg93
I12
sg94
I6
ssg95
I7
sg96
I0
sg97
I0
sg98
I0
sg99
F12.172413793103448
sg100
I0
sg101
I0
sg102
I0
sg103
(dp291
g80
I13
sg81
I10
sg82
I9
sg83
I11
sg88
I4
sg85
I12
sg86
I5
sg87
I14
sg84
I11
sg89
I11
sg90
I8
sg91
I13
sg92
I5
sg93
I12
sg94
I6
ssg105
I0
sg106
S'SN10'
p292
sg107
I0
sg108
I0
sg109
I0
sg110
I110
sg111
I24
sg112
I0
sg113
S'CHS'
p293
sbsS'drop2'
p294
g135
sS'SA_remp2'
p295
(ijoueur
joueur
p296
(dp297
g27
I0
sg28
I0
sg29
I0
sg30
(ijoueur
rang
p298
(dp299
g33
I5
sg34
S'**'
p300
sg36
g140
sbsg38
(dp301
g40
I0
sg41
I0
sg42
I0
sg43
I0
ssg44
(dp302
g40
I0
sg41
I0
sg42
I0
sg43
I0
ssg46
I0
sg47
I0
sg48
I0
sg49
I0
sg50
I0
sg51
(g52
S'PI'
p303
S'TL'
p304
g55
tp305
sg57
(ijoueur
rang
p306
(dp307
g33
I4
sg34
g187
sg36
g37
sbsg60
(dp308
g40
I0
sg41
I3
sg42
I3
sg43
I0
ssg62
(dp309
g40
I0
sg41
I0
sg42
I0
sg43
I0
ssg64
(dp310
g40
I0
sg41
I0
sg42
I0
sg43
I0
ssg66
(dp311
g40
I0
sg41
I3
sg42
I3
sg43
I0
ssg68
I0
sg69
I0
sg70
S'Ymeol'
p312
sg72
I9
sg73
I0
sg74
I24
sg75
I139
sg76
g77
sg78
(dp313
g80
I11
sg81
I7
sg82
I9
sg83
I10
sg84
I10
sg85
I10
sg86
I7
sg87
I12
sg88
I6
sg89
I14
sg90
I10
sg91
I9
sg92
I6
sg93
I10
sg94
I7
ssg95
I6
sg96
I0
sg97
I0
sg98
I0
sg99
F9.794117647058824
sg100
I0
sg101
I0
sg102
I0
sg103
(dp314
g80
I11
sg81
I7
sg82
I9
sg83
I10
sg88
I6
sg85
I10
sg86
I7
sg87
I12
sg84
I10
sg89
I14
sg90
I10
sg91
I9
sg92
I6
sg93
I10
sg94
I7
ssg105
I0
sg106
g55
sg107
I0
sg108
I0
sg109
I0
sg110
I15
sg111
I0
sg112
I0
sg113
S'ES'
p315
sbssS'totaux'
p316
(dp317
g19
I0
sg20
I0
sg21
I0
ssS'_compo_defaut_fatigue'
p318
Nsg78
(dp319
g4
I0
sg5
I0
sg6
I0
sg7
I0
sg8
I0
sg9
I0
sg10
I0
sg11
I0
sg12
I0
sg13
I0
sg14
I0
sg15
I0
sg16
I0
ssS'joueurs'
p320
(dp321
S'n12'
p322
(ijoueur
joueur
p323
(dp324
g27
I0
sg28
I0
sg29
I0
sg30
(ijoueur
rang
p325
(dp326
g33
I5
sg34
S'**'
p327
sg36
g140
sbsg38
(dp328
g40
I0
sg41
I0
sg42
I0
sg43
I0
ssg44
(dp329
g40
I0
sg41
I0
sg42
I0
sg43
I0
ssg46
I0
sg47
I0
sg48
I0
sg49
I0
sg50
I0
sg51
(g52
S'C1'
p330
S'DO'
p331
S'DM'
p332
tp333
sg57
(ijoueur
rang
p334
(dp335
g33
I4
sg34
g187
sg36
g37
sbsg60
(dp336
g40
I0
sg41
I5
sg42
I0
sg43
I0
ssg62
(dp337
g40
I0
sg41
I0
sg42
I0
sg43
I0
ssg64
(dp338
g40
I0
sg41
I0
sg42
I0
sg43
I0
ssg66
(dp339
g40
I0
sg41
I5
sg42
I0
sg43
I0
ssg68
I1
sg69
I0
sg70
S'Gemedol'
p340
sg72
I10
sg73
I0
sg74
I24
sg75
I125
sg76
g77
sg78
(dp341
g80
I13
sg81
I5
sg82
I10
sg83
I10
sg84
I8
sg85
I7
sg86
I8
sg87
I10
sg88
I11
sg89
I15
sg90
I9
sg91
I8
sg92
I9
sg93
I13
sg94
I6
ssg95
I4
sg96
I0
sg97
I0
sg98
I0
sg99
F11.266666666666667
sg100
I0
sg101
I0
sg102
I0
sg103
(dp342
g80
I13
sg81
I5
sg82
I10
sg83
I10
sg88
I11
sg85
I7
sg86
I8
sg87
I10
sg84
I8
sg89
I15
sg90
I9
sg91
I8
sg92
I9
sg93
I13
sg94
I6
ssg105
I0
sg106
g55
sg107
I0
sg108
I0
sg109
I0
sg110
I14
sg111
I0
sg112
I0
sg113
S'ES'
p343
sbsS'n13'
p344
(ijoueur
joueur
p345
(dp346
g27
I0
sg28
I0
sg29
I0
sg30
(ijoueur
rang
p347
(dp348
g33
I4
sg34
g35
sg36
g37
sbsg38
(dp349
g40
I0
sg41
I0
sg42
I0
sg43
I0
ssg44
(dp350
g40
I0
sg41
I0
sg42
I0
sg43
I0
ssg46
I0
sg47
I0
sg48
I1
sg49
I0
sg50
I0
sg51
(g52
S'C2'
p351
S'AI'
p352
S'AR'
p353
tp354
sg57
(ijoueur
rang
p355
(dp356
g33
I4
sg34
g35
sg36
g37
sbsg60
(dp357
g40
I0
sg41
I5
sg42
I1
sg43
I0
ssg62
(dp358
g40
I0
sg41
I0
sg42
I0
sg43
I0
ssg64
(dp359
g40
I0
sg41
I0
sg42
I0
sg43
I0
ssg66
(dp360
g40
I0
sg41
I5
sg42
I1
sg43
I0
ssg68
I0
sS'carton_jaunes_saison'
p361
I1
sg69
I0
sg70
S'Oathel'
p362
sg72
I5
sg73
I0
sg74
I14
sg75
I126
sg76
g77
sS'carton_jaunes_total'
p363
I1
sg78
(dp364
g80
I13
sg81
I4
sg82
I11
sg83
I11
sg84
I7
sg85
I10
sg86
I9
sg87
I14
sg88
I10
sg89
I11
sg90
I9
sg91
I6
sg92
I7
sg93
I8
sg94
I5
ssg95
I8
sg96
I0
sg97
I0
sg98
I0
sg99
F11.0
sg100
I0
sg101
I0
sg102
I0
sg103
(dp365
g80
I14
sg81
I4
sg82
I11
sg83
I11
sg88
I10
sg85
I10
sg86
I9
sg87
I14
sg84
I7
sg89
I11
sg90
I9
sg91
I7
sg92
I7
sg93
I9
sg94
I5
ssg105
I0
sg106
g55
sg107
I0
sg108
I0
sg109
I0
sg110
I13
sg111
I15
sg112
I0
sg113
S'HE'
p366
sbsS'n10'
p367
g135
sS'n11'
p368
(ijoueur
joueur
p369
(dp370
g27
I0
sg28
I0
sg29
I0
sg30
(ijoueur
rang
p371
(dp372
g33
I4
sg34
g187
sg36
g37
sbsg38
(dp373
g40
I0
sg41
I0
sg42
I0
sg43
I0
ssg44
(dp374
g40
I0
sg41
I0
sg42
I0
sg43
I0
ssg46
I0
sg47
I0
sg48
I0
sg49
I0
sg50
I0
sg51
(g52
S'AI'
p375
g55
g55
tp376
sg57
(ijoueur
rang
p377
(dp378
g33
I4
sg34
g187
sg36
g37
sbsg60
(dp379
g40
I0
sg41
I5
sg42
I1
sg43
I0
ssg62
(dp380
g40
I0
sg41
I0
sg42
I0
sg43
I0
ssg64
(dp381
g40
I0
sg41
I0
sg42
I0
sg43
I0
ssg66
(dp382
g40
I0
sg41
I5
sg42
I1
sg43
I0
ssg68
I0
sg69
I0
sg70
S"Waad'Up"
p383
sg72
I7
sg73
I0
sg74
I19
sg75
I20
sg76
g77
sg78
(dp384
g80
I10
sg81
I5
sg82
I10
sg83
I11
sg84
I2
sg85
I9
sg86
I7
sg87
I12
sg88
I5
sg89
I8
sg90
I13
sg91
I7
sg92
I3
sg93
I8
sg94
I4
ssg95
I11
sg96
I0
sg97
I0
sg98
I0
sg99
F10.548387096774194
sg100
I0
sg101
I0
sg102
I0
sg103
(dp385
g80
I11
sg81
I5
sg82
I10
sg83
I11
sg88
I5
sg85
I9
sg86
I7
sg87
I12
sg84
I2
sg89
I8
sg90
I13
sg91
I8
sg92
I3
sg93
I9
sg94
I4
ssg105
I0
sg106
S'APA9'
p386
sg107
I0
sg108
I0
sg109
I0
sg110
I2
sg111
I6
sg112
I0
sg113
S'HL'
p387
sbsS'n16'
p388
(ijoueur
joueur
p389
(dp390
g27
I0
sg28
I0
sg29
I0
sg30
(ijoueur
rang
p391
(dp392
g33
I2
sg34
S'^^'
p393
sg36
g218
sbsg38
(dp394
g40
I0
sg41
I0
sg42
I0
sg43
I0
ssg44
(dp395
g40
I0
sg41
I0
sg42
I0
sg43
I0
ssg46
I0
sg47
I0
sg48
I0
sg49
I0
sg50
I0
sg51
(g52
S'TA'
p396
g55
g55
tp397
sg57
(ijoueur
rang
p398
(dp399
g33
I2
sg34
S'^^'
p400
sg36
g218
sbsg60
(dp401
g40
I0
sg41
I1
sg42
I5
sg43
I0
ssg62
(dp402
g40
I0
sg41
I0
sg42
I0
sg43
I0
ssg64
(dp403
g40
I0
sg41
I0
sg42
I0
sg43
I0
ssg66
(dp404
g40
I0
sg41
I1
sg42
I5
sg43
I0
ssg68
I0
sg69
I0
sg70
S'Fendal'
p405
sg72
I1
sg73
I0
sg74
I9
sg75
I8
sg76
g77
sg78
(dp406
g80
I11
sg81
I8
sg82
I6
sg83
I10
sg84
I6
sg85
I10
sg86
I4
sg87
I10
sg88
I7
sg89
I8
sg90
I9
sg91
I5
sg92
I5
sg93
I7
sg94
I12
ssg95
I3
sg96
I0
sg97
I0
sg98
I0
sg99
F8.586206896551724
sg100
I0
sg101
I0
sg102
I0
sg103
(dp407
g80
I11
sg81
I8
sg82
I6
sg83
I10
sg88
I7
sg85
I10
sg86
I4
sg87
I10
sg84
I6
sg89
I8
sg90
I9
sg91
I5
sg92
I5
sg93
I7
sg94
I12
ssg105
I0
sg106
g55
sg107
I0
sg108
I0
sg109
I0
sg110
I2
sg111
I7
sg112
I0
sg113
S'ES'
p408
sbsS'n17'
p409
g296
sS'n14'
p410
g183
sS'n15'
p411
(ijoueur
joueur
p412
(dp413
g27
I0
sg28
I0
sg29
I0
sg30
(ijoueur
rang
p414
(dp415
g33
I4
sg34
g35
sg36
g37
sbsg38
(dp416
g40
I0
sg41
I0
sg42
I0
sg43
I0
ssg44
(dp417
g40
I0
sg41
I0
sg42
I0
sg43
I0
ssg46
I0
sg47
I0
sg48
I0
sg49
I0
sg50
I0
sg51
(g52
S'AR'
p418
S'CE'
p419
g55
tp420
sg57
(ijoueur
rang
p421
(dp422
g33
I2
sg34
S'^^'
p423
sg36
g218
sbsg60
(dp424
g40
I0
sg41
I6
sg42
I0
sg43
I0
ssg62
(dp425
g40
I0
sg41
I0
sg42
I0
sg43
I0
ssg64
(dp426
g40
I0
sg41
I0
sg42
I0
sg43
I0
ssg66
(dp427
g40
I0
sg41
I6
sg42
I0
sg43
I0
ssg68
I0
sg69
I0
sg70
S'Ueltoir'
p428
sg72
I11
sg73
I0
sg74
I21
sg75
I17
sg76
g77
sg78
(dp429
g80
I10
sg81
I4
sg82
I9
sg83
I9
sg84
I8
sg85
I6
sg86
I8
sg87
I9
sg88
I8
sg89
I11
sg90
I11
sg91
I7
sg92
I8
sg93
I10
sg94
I3
ssg95
I10
sg96
I0
sg97
I0
sg98
I0
sg99
F10.0
sg100
I0
sg101
I0
sg102
I0
sg103
(dp430
g80
I11
sg81
I4
sg82
I9
sg83
I9
sg88
I8
sg85
I6
sg86
I8
sg87
I9
sg84
I8
sg89
I11
sg90
I11
sg91
I8
sg92
I8
sg93
I11
sg94
I3
ssg105
I0
sg106
g55
sg107
I0
sg108
I0
sg109
I0
sg110
I2
sg111
I0
sg112
I0
sg113
S'ES'
p431
sbsS'n18'
p432
(ijoueur
joueur
p433
(dp434
g27
I0
sg28
I0
sg29
I0
sg30
(ijoueur
rang
p435
(dp436
g33
I2
sg34
S'<<'
p437
sg36
g218
sbsg38
(dp438
g40
I0
sg41
I0
sg42
I0
sg43
I0
ssg44
(dp439
g40
I0
sg41
I0
sg42
I0
sg43
I0
ssg46
I0
sg47
I0
sg48
I0
sg49
I0
sg50
I0
sg51
(g52
S'DL'
p440
S'PI'
p441
g55
tp442
sg57
(ijoueur
rang
p443
(dp444
g33
I1
sg34
S'<'
p445
sg36
S'base'
p446
sbsg60
(dp447
g40
I0
sg41
I1
sg42
I2
sg43
I0
ssg62
(dp448
g40
I0
sg41
I0
sg42
I0
sg43
I0
ssg64
(dp449
g40
I0
sg41
I0
sg42
I0
sg43
I0
ssg66
(dp450
g40
I0
sg41
I1
sg42
I2
sg43
I0
ssg68
I0
sg69
I0
sg70
S'Merked'
p451
sg72
I3
sg73
I0
sg74
I16
sg75
I60
sg76
g77
sg78
(dp452
g80
I9
sg81
I9
sg82
I5
sg83
I10
sg84
I6
sg85
I8
sg86
I3
sg87
I8
sg88
I4
sg89
I8
sg90
I7
sg91
I10
sg92
I4
sg93
I8
sg94
I5
ssg95
I0
sg96
I0
sg97
I0
sg98
I0
sg99
F9.0
sg100
I0
sg101
I0
sg102
I0
sg103
(dp453
g80
I9
sg81
I9
sg82
I5
sg83
I10
sg88
I4
sg85
I8
sg86
I3
sg87
I8
sg84
I6
sg89
I8
sg90
I7
sg91
I10
sg92
I4
sg93
I8
sg94
I5
ssg105
I0
sg106
g55
sg107
I0
sg108
I0
sg109
I0
sg110
I5
sg111
I3
sg112
I0
sg113
S'EMP'
p454
sbsS'n19'
p455
(ijoueur
joueur
p456
(dp457
g27
I0
sg28
I0
sg29
I0
sg30
(ijoueur
rang
p458
(dp459
g33
I4
sg34
g35
sg36
g37
sbsg38
(dp460
g40
I0
sg41
I0
sg42
I3
sg43
I0
ssg44
(dp461
g40
I0
sg41
I0
sg42
I0
sg43
I0
ssg46
I0
sg47
I0
sg48
I2
sg49
I0
sg50
I0
sg51
(g52
S'TL'
p462
S'N8'
p463
g55
tp464
sg57
(ijoueur
rang
p465
(dp466
g33
I4
sg34
g35
sg36
g37
sbsg60
(dp467
g40
I0
sg41
I3
sg42
I0
sg43
I0
ssg62
(dp468
g40
I0
sg41
I0
sg42
I3
sg43
I0
ssg64
(dp469
g40
I0
sg41
I0
sg42
I0
sg43
I0
ssg66
(dp470
g40
I0
sg41
I3
sg42
I0
sg43
I0
ssg68
I0
sg69
I0
sg70
S'Jdorh'
p471
sg72
I7
sg73
I0
sg74
I20
sg75
I251
sg76
g77
sg78
(dp472
g80
I10
sg81
I8
sg82
I6
sg83
I8
sg84
I8
sg85
I10
sg86
I4
sg87
I10
sg88
I5
sg89
I8
sg90
I8
sg91
I11
sg92
I3
sg93
I13
sg94
I4
ssg95
I6
sg96
I0
sg97
I0
sg98
I0
sg99
F10.290322580645162
sg100
I0
sg101
I0
sg102
I0
sg103
(dp473
g80
I10
sg81
I8
sg82
I6
sg83
I8
sg88
I5
sg85
I10
sg86
I4
sg87
I10
sg84
I8
sg89
I8
sg90
I8
sg91
I11
sg92
I3
sg93
I13
sg94
I4
ssg105
I0
sg106
S'KHR9'
p474
sg107
I0
sg108
I0
sg109
I0
sg110
I21
sg111
I5
sg112
I0
sg113
S'HB'
p475
sbsS'n22'
p476
(ijoueur
joueur
p477
(dp478
g27
I0
sg28
I0
sg29
I0
sg30
(ijoueur
rang
p479
(dp480
g33
I1
sg34
S'>'
p481
sg36
g446
sbsg38
(dp482
g40
I0
sg41
I1
sg42
I2
sg43
I0
ssg44
(dp483
g40
I0
sg41
I0
sg42
I0
sg43
I0
ssg46
I0
sg47
I0
sg48
I0
sg49
I0
sg50
I0
sg51
(g52
S'AR'
p484
S'AI'
p485
g55
tp486
sg57
(ijoueur
rang
p487
(dp488
g33
I1
sg34
g481
sg36
g446
sbsg60
(dp489
g40
I0
sg41
I1
sg42
I2
sg43
I0
ssg62
(dp490
g40
I0
sg41
I1
sg42
I2
sg43
I0
ssg64
(dp491
g40
I0
sg41
I0
sg42
I0
sg43
I0
ssg66
(dp492
g40
I0
sg41
I1
sg42
I2
sg43
I0
ssg68
I0
sg69
I0
sg70
S'Hurg'
p493
sg72
I0
sg73
I0
sg74
I12
sg75
I10
sg76
g77
sg78
(dp494
g80
I7
sg81
I3
sg82
I10
sg83
I9
sg84
I3
sg85
I6
sg86
I8
sg87
I10
sg88
I8
sg89
I9
sg90
I9
sg91
I6
sg92
I8
sg93
I12
sg94
I3
ssg95
I0
sg96
I0
sg97
I0
sg98
I0
sg99
F9.121212121212121
sg100
I0
sg101
I0
sg102
I0
sg103
(dp495
g80
I7
sg81
I3
sg82
I10
sg83
I9
sg88
I8
sg85
I6
sg86
I8
sg87
I10
sg84
I3
sg89
I9
sg90
I9
sg91
I6
sg92
I8
sg93
I12
sg94
I3
ssg105
I0
sg106
g55
sg107
I0
sg108
I0
sg109
I0
sg110
I1
sg111
I1
sg112
I0
sg113
S'O'
p496
sbsS'n21'
p497
(ijoueur
joueur
p498
(dp499
g27
I1
sg28
I0
sg29
I0
sg30
(ijoueur
rang
p500
(dp501
g33
I1
sg34
g445
sg36
g446
sbsg38
(dp502
g40
I0
sg41
I0
sg42
I0
sg43
I0
ssg44
(dp503
g40
I0
sg41
I0
sg42
I0
sg43
I0
ssg46
I0
sg47
I0
sg48
I0
sg49
I0
sg50
I0
sg51
(g52
S'C2'
p504
S'AR'
p505
S'AI'
p506
tp507
sg57
(ijoueur
rang
p508
(dp509
g33
I1
sg34
g445
sg36
g446
sbsg60
(dp510
g40
I0
sg41
I3
sg42
I4
sg43
I0
ssg62
(dp511
g40
I0
sg41
I0
sg42
I0
sg43
I0
ssg64
(dp512
g40
I0
sg41
I0
sg42
I0
sg43
I0
ssg66
(dp513
g40
I0
sg41
I3
sg42
I4
sg43
I0
ssg68
I0
sg69
I0
sg70
S'Dolean'
p514
sg72
I4
sg73
I0
sg74
I13
sg75
I8
sg76
g77
sg78
(dp515
g80
I7
sg81
I3
sg82
I10
sg83
I10
sg84
I5
sg85
I6
sg86
I8
sg87
I10
sg88
I8
sg89
I11
sg90
I10
sg91
I5
sg92
I7
sg93
I10
sg94
I2
ssg95
I8
sg96
I0
sg97
I0
sg98
I0
sg99
F9.620689655172415
sg100
I0
sg101
I0
sg102
I0
sg103
(dp516
g80
I8
sg81
I3
sg82
I10
sg83
I10
sg88
I8
sg85
I6
sg86
I8
sg87
I10
sg84
I5
sg89
I11
sg90
I10
sg91
I6
sg92
I7
sg93
I11
sg94
I2
ssg105
I1
sg106
g55
sg107
I0
sg108
I0
sg109
I0
sg110
I1
sg111
I8
sg112
I0
sg113
S'ES'
p517
sbsS'n20'
p518
g250
sS'n8'
p519
(ijoueur
joueur
p520
(dp521
g27
I0
sg28
I0
sg29
I0
sg30
(ijoueur
rang
p522
(dp523
g33
I4
sg34
g187
sg36
g37
sbsg38
(dp524
g40
I0
sg41
I0
sg42
I0
sg43
I0
ssg44
(dp525
g40
I0
sg41
I0
sg42
I0
sg43
I0
ssg46
I0
sg47
I0
sg48
I0
sg49
I0
sg50
I0
sg51
(g52
S'N8'
p526
S'TL'
p527
g55
tp528
sg57
(ijoueur
rang
p529
(dp530
g33
I4
sg34
g187
sg36
g37
sbsg60
(dp531
g40
I0
sg41
I5
sg42
I0
sg43
I0
ssg62
(dp532
g40
I0
sg41
I0
sg42
I0
sg43
I0
ssg64
(dp533
g40
I0
sg41
I0
sg42
I0
sg43
I0
ssg66
(dp534
g40
I0
sg41
I5
sg42
I0
sg43
I0
ssg68
I0
sg69
I0
sg70
S"Kal'Darq"
p535
sg72
I5
sg73
I0
sg74
I15
sg75
I283
sg76
g77
sg78
(dp536
g80
I11
sg81
I11
sg82
I7
sg83
I11
sg84
I8
sg85
I12
sg86
I0
sg87
I12
sg88
I2
sg89
I8
sg90
I7
sg91
I13
sg92
I1
sg93
I10
sg94
I7
ssg95
I4
sg96
I0
sg97
I0
sg98
I0
sg99
F11.241379310344827
sg100
I0
sg101
I0
sg102
I0
sg103
(dp537
g80
I11
sg81
I11
sg82
I7
sg83
I11
sg88
I2
sg85
I12
sg86
I0
sg87
I12
sg84
I8
sg89
I8
sg90
I7
sg91
I13
sg92
I1
sg93
I10
sg94
I7
ssg105
I0
sg106
S'MRB11'
p538
sg107
I0
sg108
I0
sg109
I0
sg110
I56
sg111
I17
sg112
I0
sg113
S'HL'
p539
sbsS'n9'
p540
g25
sS'n1'
p541
(ijoueur
joueur
p542
(dp543
g27
I0
sg28
I0
sg29
I0
sg30
(ijoueur
rang
p544
(dp545
g33
I5
sg34
S'**'
p546
sg36
g140
sbsg38
(dp547
g40
I0
sg41
I5
sg42
I1
sg43
I0
ssg44
(dp548
g40
I0
sg41
I0
sg42
I0
sg43
I0
ssg46
I0
sg47
I0
sg48
I1
sg49
I0
sg50
I0
sg51
(g52
S'TA'
p549
S'PI'
p550
g55
tp551
sg57
(ijoueur
rang
p552
(dp553
g33
I5
sg34
S'**'
p554
sg36
g140
sbsg60
(dp555
g40
I0
sg41
I0
sg42
I0
sg43
I0
ssg62
(dp556
g40
I0
sg41
I5
sg42
I1
sg43
I0
ssg64
(dp557
g40
I0
sg41
I0
sg42
I0
sg43
I0
ssg66
(dp558
g40
I0
sg41
I0
sg42
I0
sg43
I0
ssg68
I0
sg69
I0
sg70
S'Kholkov'
p559
sg72
I7
sg73
I0
sg74
I22
sg75
I184
sg76
g77
sg78
(dp560
g80
I12
sg81
I12
sg82
I10
sg83
I11
sg84
I9
sg85
I10
sg86
I6
sg87
I13
sg88
I5
sg89
I9
sg90
I10
sg91
I10
sg92
I7
sg93
I11
sg94
I10
ssg95
I9
sg96
I0
sg97
I0
sg98
I0
sg99
F11.413793103448276
sg100
I0
sg101
I0
sg102
I0
sg103
(dp561
g80
I13
sg81
I12
sg82
I10
sg83
I11
sg88
I5
sg85
I10
sg86
I6
sg87
I13
sg84
I9
sg89
I9
sg90
I10
sg91
I11
sg92
I7
sg93
I12
sg94
I10
ssg105
I0
sg106
g55
sg107
I0
sg108
I0
sg109
I0
sg110
I23
sg111
I3
sg112
I0
sg113
S'CV'
p562
sbsS'n2'
p563
g158
sS'n3'
p564
(ijoueur
joueur
p565
(dp566
g27
I0
sg28
I0
sg29
I0
sg30
(ijoueur
rang
p567
(dp568
g33
I5
sg34
S'**'
p569
sg36
g140
sbsg38
(dp570
g40
I0
sg41
I0
sg42
I0
sg43
I0
ssg44
(dp571
g40
I0
sg41
I0
sg42
I0
sg43
I0
ssg46
I0
sg47
I0
sg48
I0
sg49
I0
sg50
I0
sg51
(g52
S'PI'
p572
g55
g55
tp573
sg57
(ijoueur
rang
p574
(dp575
g33
I5
sg34
S'**'
p576
sg36
g140
sbsg60
(dp577
g40
I0
sg41
I5
sg42
I0
sg43
I0
ssg62
(dp578
g40
I0
sg41
I0
sg42
I0
sg43
I0
ssg64
(dp579
g40
I0
sg41
I0
sg42
I0
sg43
I0
ssg66
(dp580
g40
I0
sg41
I5
sg42
I0
sg43
I0
ssg68
I0
sg69
I0
sg70
S'Rendard'
p581
sg72
I3
sg73
I0
sg74
I10
sg75
I136
sg76
g77
sg78
(dp582
g80
I10
sg81
I11
sg82
I7
sg83
I10
sg84
I7
sg85
I13
sg86
I1
sg87
I13
sg88
I4
sg89
I8
sg90
I9
sg91
I10
sg92
I4
sg93
I10
sg94
I7
ssg95
I4
sg96
I0
sg97
I0
sg98
I0
sg99
F10.518518518518519
sg100
I0
sg101
I0
sg102
I0
sg103
(dp583
g80
I10
sg81
I11
sg82
I7
sg83
I10
sg88
I4
sg85
I13
sg86
I1
sg87
I13
sg84
I7
sg89
I8
sg90
I9
sg91
I10
sg92
I4
sg93
I10
sg94
I7
ssg105
I0
sg106
g55
sg107
I0
sg108
I0
sg109
I0
sg110
I12
sg111
I16
sg112
I0
sg113
S'B'
p584
sbsS'n4'
p585
g228
sS'n5'
p586
g206
sS'n6'
p587
g271
sS'n7'
p588
g116
ssS'remplacements'
p589
(dp590
g388
S'n0'
p591
sg409
g591
sg432
g591
sg455
g591
sg476
g591
sg497
g591
sg518
g591
ssb.