(iclub
compo
p0
(dp1
S'caracs_old'
p2
(dp3
S'A'
p4
F156.0
sS'ME'
p5
F88.25
sS'E'
p6
F184.5
sS'OplusAV'
p7
F85.75
sS'TO_off'
p8
F98.0
sS'OplusAR'
p9
F98.5
sS'M'
p10
F94.25
sS'JP'
p11
F80.0
sS'OmoinsAR'
p12
F96.5
sS'PA'
p13
F95.25
sS'TO_def'
p14
F91.0
sS'OmoinsAV'
p15
F99.0
sS'R'
p16
F171.75
ssS'totaux_old'
p17
(dp18
S'T2'
p19
F165.75
sS'T3'
p20
F92.25
sS'T1'
p21
F177.25
ssS'roles'
p22
(dp23
S'drop1'
p24
(ijoueur
joueur
p25
(dp26
S'rouges_total'
p27
I0
sS'drop_ratees_total'
p28
I0
sS'drops_total'
p29
I1
sS'xp_total'
p30
F9.061524354614374
sS'poste3'
p31
S''
p32
sS'blessure'
p33
I0
sS'poste1'
p34
g32
sS'RG_max'
p35
ccopy_reg
_reconstructor
p36
(cjoueur
rang_new
p37
c__builtin__
object
p38
Ntp39
Rp40
(dp41
S'type_nb'
p42
I5
sS'rang'
p43
S'xx'
p44
sS'type'
p45
S'seigneur'
p46
sbsS'MJ2_total'
p47
(dp48
S'SR'
p49
I0
sS'ST'
p50
I0
sS'CR'
p51
I0
sS'CT'
p52
I0
ssS'MJ3_total'
p53
(dp54
g49
I0
sg50
I0
sg51
I0
sg52
I0
ssS'anciens_clubs'
p55
g32
sS'drop_rates_saison'
p56
I0
sS'xp_saison'
p57
F9.061524354614374
sS'essais_saison'
p58
I0
sS'penalite_ratees_saison'
p59
I1
sS'transformations_saison'
p60
I1
sS'club'
p61
S'CPH'
p62
sS'veut_partir'
p63
I00
sS'RG'
p64
g40
sS'MJ1'
p65
(dp66
g49
I0
sg50
I0
sg51
I0
sg52
I1
ssS'MS_probleme'
p67
I00
sS'MJ3'
p68
(dp69
g49
I0
sg50
I0
sg51
I0
sg52
I0
ssS'MJ1_total'
p70
(dp71
g49
I0
sg50
I0
sg51
I0
sg52
I1
ssS'penalites_total'
p72
I5
sS'penalites_saison'
p73
I5
sS'nom'
p74
S'Romendt'
p75
sS'C'
p76
I5
sS'transformations_total'
p77
I1
sS'D'
p78
I12
sS'VAL'
p79
I184
sS'postes'
p80
(S'dummy'
p81
S'C1'
p82
S'AI'
p83
g32
tp84
sS'poste2'
p85
g32
sS'caracs'
p86
(dp87
S'RP1'
p88
I10
sS'ME'
p89
I6
sS'RP2'
p90
I10
sS'E'
p91
I10
sS'P'
p92
I11
sS'JP'
p93
I10
sS'M'
p94
I8
sS'RP_tot'
p95
I12
sS'TO'
p96
I7
sS'PA'
p97
I10
sS'A'
p98
I10
sS'R'
p99
I8
sS'TB'
p100
I10
sS'PL'
p101
I10
sS'TA'
p102
I5
ssS'jj_passe'
p103
(dp104
S's12'
p105
(ijoueur
joueur
p106
(dp107
g27
I0
sg28
I0
sg29
I0
sg33
I0
sg35
g36
(g37
g38
Ntp108
Rp109
(dp110
g43
g32
sbsg47
(dp111
g49
I0
sg50
I0
sg51
I0
sg52
I0
ssg53
(dp112
g49
I0
sg50
I0
sg51
I0
sg52
I0
ssg55
g32
sg56
I0
sg58
I0
sg59
I0
sg60
I0
sg80
(g81
S'CE'
p113
g32
g32
tp114
sg63
I00
sg64
g36
(g37
g38
Ntp115
Rp116
(dp117
g43
g32
sbsg65
(dp118
g49
I0
sg50
I0
sg51
I0
sg52
I0
ssg67
I00
sg68
(dp119
g49
I0
sg50
I0
sg51
I0
sg52
I0
ssg70
(dp120
g49
I0
sg50
I0
sg51
I0
sg52
I0
ssg72
I0
sg73
I0
sg74
g32
sg76
I0
sg77
I0
sg78
I0
sg79
I0
sg61
g62
sg86
(dp121
g98
I0
sg89
I0
sg90
I0
sg91
I0
sg96
I0
sg88
I0
sg93
I0
sg95
I0
sg92
I0
sg97
I0
sg94
I0
sg99
I0
sg100
I0
sg101
I0
sg102
I0
ssg103
(dp122
sS'fatigue'
p123
I0
sS'changements_postes'
p124
g32
sS'blessures_total'
p125
I0
sS'blessures_saison'
p126
I0
sS'XP'
p127
I0
sS'EV'
p128
F0.0
sS'penalite_ratees_total'
p129
I0
sS'MJ2'
p130
(dp131
g49
I0
sg50
I0
sg51
I0
sg52
I0
ssS'jaunes_total'
p132
I0
sS'caracs_sans_fatigue'
p133
(dp134
g88
I10
sg89
I6
sg90
I10
sg91
I10
sg96
I7
sg94
I8
sg93
I10
sg95
I12
sg92
I11
sg97
I10
sg98
I10
sg99
I8
sg100
I10
sg101
I10
sg102
I5
ssS'rouges_saison'
p135
I0
sS'transformation_ratees_total'
p136
I0
sS'drops_saison'
p137
I0
sS'transformation_ratees_saison'
p138
I0
sS'MS'
p139
I0
sS'essais_total'
p140
I0
sS'jaunes_saison'
p141
I0
sS'ARM'
p142
g32
sbsS's11'
p143
(ijoueur
joueur
p144
(dp145
g27
I0
sg28
I0
sg29
I0
sg33
I0
sg35
g36
(g37
g38
Ntp146
Rp147
(dp148
g43
g32
sbsg47
(dp149
g49
I0
sg50
I0
sg51
I0
sg52
I0
ssg53
(dp150
g49
I0
sg50
I0
sg51
I0
sg52
I0
ssg55
g32
sg56
I0
sg58
I0
sg59
I0
sg60
I0
sg80
g114
sg63
I00
sg64
g36
(g37
g38
Ntp151
Rp152
(dp153
g43
g32
sbsg65
(dp154
g49
I0
sg50
I0
sg51
I0
sg52
I0
ssg67
I00
sg68
(dp155
g49
I0
sg50
I0
sg51
I0
sg52
I0
ssg70
(dp156
g49
I0
sg50
I0
sg51
I0
sg52
I0
ssg72
I0
sg73
I0
sg74
g32
sg76
I0
sg77
I0
sg78
I0
sg79
I0
sg61
g62
sg86
(dp157
g98
I0
sg89
I0
sg90
I0
sg91
I0
sg96
I0
sg88
I0
sg93
I0
sg95
I0
sg92
I0
sg97
I0
sg94
I0
sg99
I0
sg100
I0
sg101
I0
sg102
I0
ssg103
(dp158
sg123
I0
sg124
g32
sg125
I0
sg126
I0
sg127
I0
sg128
F0.0
sg129
I0
sg130
(dp159
g49
I0
sg50
I0
sg51
I0
sg52
I0
ssg132
I0
sg133
g134
sg135
I0
sg136
I0
sg137
I0
sg138
I0
sg139
I0
sg140
I0
sg141
I0
sg142
g32
sbssg123
I5
sg124
g32
sg125
I0
sg126
I0
sg127
I0
sg128
F10.0
sg129
I1
sg130
(dp160
g49
I0
sg50
I0
sg51
I0
sg52
I0
ssg132
I0
sg133
g134
sg135
I0
sg136
I0
sg137
I1
sg138
I0
sg139
I18
sg140
I0
sg141
I0
sg142
S'EMP'
p161
sbsS'SA_scd'
p162
(ijoueur
joueur
p163
(dp164
g27
I0
sg28
I0
sg29
I0
sg30
F9.061524354614374
sg31
g32
sg33
I0
sg34
g32
sg35
g36
(g37
g38
Ntp165
Rp166
(dp167
g42
I2
sg43
S'^^'
p168
sg45
S'special'
p169
sbsg47
(dp170
g49
I0
sg50
I0
sg51
I0
sg52
I0
ssg53
(dp171
g49
I0
sg50
I0
sg51
I0
sg52
I0
ssg55
g32
sg56
I0
sg57
F9.061524354614374
sg58
I0
sg59
I0
sg60
I0
sg61
g62
sg63
I00
sg64
g166
sg65
(dp172
g49
I0
sg50
I0
sg51
I0
sg52
I1
ssg67
I00
sg68
(dp173
g49
I0
sg50
I0
sg51
I0
sg52
I0
ssg70
(dp174
g49
I0
sg50
I0
sg51
I0
sg52
I1
ssg72
I0
sg73
I0
sg74
S'Mratoh'
p175
sg76
I9
sg77
I0
sg78
I21
sg79
I10
sg80
(g81
S'DL'
p176
g32
g32
tp177
sg85
g32
sg86
(dp178
g88
I7
sg89
I8
sg90
I6
sg91
I10
sg92
I4
sg93
I6
sg94
I9
sg95
I7
sg96
I11
sg97
I7
sg98
I8
sg99
I7
sg100
I4
sg101
I8
sg102
I3
ssg103
(dp179
S's12'
p180
(ijoueur
joueur
p181
(dp182
g27
I0
sg28
I0
sg29
I0
sg33
I0
sg35
g36
(g37
g38
Ntp183
Rp184
(dp185
g43
g32
sbsg47
(dp186
g49
I0
sg50
I0
sg51
I0
sg52
I0
ssg53
(dp187
g49
I0
sg50
I0
sg51
I0
sg52
I0
ssg55
g32
sg56
I0
sg58
I0
sg59
I0
sg60
I0
sg80
(g81
g176
g32
g32
tp188
sg63
I00
sg64
g36
(g37
g38
Ntp189
Rp190
(dp191
g43
g32
sbsg65
(dp192
g49
I0
sg50
I0
sg51
I0
sg52
I0
ssg67
I00
sg68
(dp193
g49
I0
sg50
I0
sg51
I0
sg52
I0
ssg70
(dp194
g49
I0
sg50
I0
sg51
I0
sg52
I0
ssg72
I0
sg73
I0
sg74
g32
sg76
I0
sg77
I0
sg78
I0
sg79
I0
sg61
g62
sg86
(dp195
g98
I0
sg89
I0
sg90
I0
sg91
I0
sg96
I0
sg88
I0
sg93
I0
sg95
I0
sg92
I0
sg97
I0
sg94
I0
sg99
I0
sg100
I0
sg101
I0
sg102
I0
ssg103
(dp196
sg123
I0
sg124
g32
sg125
I0
sg126
I0
sg127
I0
sg128
F0.0
sg129
I0
sg130
(dp197
g49
I0
sg50
I0
sg51
I0
sg52
I0
ssg132
I0
sg133
(dp198
g88
I7
sg89
I8
sg90
I6
sg91
I10
sg96
I11
sg94
I9
sg93
I6
sg95
I7
sg92
I4
sg97
I7
sg98
I8
sg99
I7
sg100
I4
sg101
I8
sg102
I3
ssg135
I0
sg136
I0
sg137
I0
sg138
I0
sg139
I0
sg140
I0
sg141
I0
sg142
g32
sbsS's11'
p199
(ijoueur
joueur
p200
(dp201
g27
I0
sg28
I0
sg29
I0
sg33
I0
sg35
g36
(g37
g38
Ntp202
Rp203
(dp204
g43
g32
sbsg47
(dp205
g49
I0
sg50
I0
sg51
I0
sg52
I0
ssg53
(dp206
g49
I0
sg50
I0
sg51
I0
sg52
I0
ssg55
g32
sg56
I0
sg58
I0
sg59
I0
sg60
I0
sg80
g188
sg63
I00
sg64
g36
(g37
g38
Ntp207
Rp208
(dp209
g43
g32
sbsg65
(dp210
g49
I0
sg50
I0
sg51
I0
sg52
I0
ssg67
I00
sg68
(dp211
g49
I0
sg50
I0
sg51
I0
sg52
I0
ssg70
(dp212
g49
I0
sg50
I0
sg51
I0
sg52
I0
ssg72
I0
sg73
I0
sg74
g32
sg76
I0
sg77
I0
sg78
I0
sg79
I0
sg61
g62
sg86
(dp213
g98
I0
sg89
I0
sg90
I0
sg91
I0
sg96
I0
sg88
I0
sg93
I0
sg95
I0
sg92
I0
sg97
I0
sg94
I0
sg99
I0
sg100
I0
sg101
I0
sg102
I0
ssg103
(dp214
sg123
I0
sg124
g32
sg125
I0
sg126
I0
sg127
I0
sg128
F0.0
sg129
I0
sg130
(dp215
g49
I0
sg50
I0
sg51
I0
sg52
I0
ssg132
I0
sg133
g198
sg135
I0
sg136
I0
sg137
I0
sg138
I0
sg139
I0
sg140
I0
sg141
I0
sg142
g32
sbssg123
I3
sg124
g32
sg125
I0
sg126
I0
sg127
I0
sg128
F8.529411764705882
sg129
I0
sg130
(dp216
g49
I0
sg50
I0
sg51
I0
sg52
I0
ssg132
I0
sg133
g198
sg135
I0
sg136
I0
sg137
I0
sg138
I0
sg139
I1
sg140
I0
sg141
I0
sg142
S'ARA'
p217
sbsS'RJL'
p218
g25
sS'cap'
p219
(ijoueur
joueur
p220
(dp221
g27
I0
sg28
I0
sg29
I0
sg30
F9.061524354614374
sg31
g32
sg33
I0
sg34
g32
sg35
g36
(g37
g38
Ntp222
Rp223
(dp224
g42
I4
sg43
S'x'
p225
sg45
S'heros'
p226
sbsg47
(dp227
g49
I0
sg50
I0
sg51
I0
sg52
I0
ssg53
(dp228
g49
I0
sg50
I0
sg51
I0
sg52
I0
ssg55
g32
sg56
I0
sg57
F9.061524354614374
sg58
I0
sg59
I0
sg60
I0
sg61
g62
sg63
I00
sg64
g223
sg65
(dp229
g49
I0
sg50
I0
sg51
I0
sg52
I1
ssg67
I00
sg68
(dp230
g49
I0
sg50
I0
sg51
I0
sg52
I0
ssg70
(dp231
g49
I0
sg50
I0
sg51
I0
sg52
I1
ssg72
I0
sg73
I0
sg74
S"Qel Harm'Deril"
p232
sg76
I9
sg77
I0
sg78
I17
sg79
I190
sg80
(g81
S'AI'
p233
S'AR'
p234
g32
tp235
sg85
g32
sg86
(dp236
g88
I8
sg89
I6
sg90
I9
sg91
I12
sg92
I10
sg93
I8
sg94
I10
sg95
I10
sg96
I9
sg97
I10
sg98
I15
sg99
I7
sg100
I8
sg101
I10
sg102
I4
ssg103
(dp237
S's12'
p238
(ijoueur
joueur
p239
(dp240
g27
I0
sg28
I0
sg29
I0
sg33
I0
sg35
g36
(g37
g38
Ntp241
Rp242
(dp243
g43
g32
sbsg47
(dp244
g49
I0
sg50
I0
sg51
I0
sg52
I0
ssg53
(dp245
g49
I0
sg50
I0
sg51
I0
sg52
I0
ssg55
g32
sg56
I0
sg58
I0
sg59
I0
sg60
I0
sg80
(g81
g233
g32
g32
tp246
sg63
I00
sg64
g36
(g37
g38
Ntp247
Rp248
(dp249
g43
g32
sbsg65
(dp250
g49
I0
sg50
I0
sg51
I0
sg52
I0
ssg67
I00
sg68
(dp251
g49
I0
sg50
I0
sg51
I0
sg52
I0
ssg70
(dp252
g49
I0
sg50
I0
sg51
I0
sg52
I0
ssg72
I0
sg73
I0
sg74
g32
sg76
I0
sg77
I0
sg78
I0
sg79
I0
sg61
g62
sg86
(dp253
g98
I0
sg89
I0
sg90
I0
sg91
I0
sg96
I0
sg88
I0
sg93
I0
sg95
I0
sg92
I0
sg97
I0
sg94
I0
sg99
I0
sg100
I0
sg101
I0
sg102
I0
ssg103
(dp254
sg123
I0
sg124
g32
sg125
I0
sg126
I0
sg127
I0
sg128
F0.0
sg129
I0
sg130
(dp255
g49
I0
sg50
I0
sg51
I0
sg52
I0
ssg132
I0
sg133
(dp256
g88
I8
sg89
I6
sg90
I9
sg91
I12
sg96
I9
sg94
I10
sg93
I8
sg95
I10
sg92
I10
sg97
I10
sg98
I15
sg99
I7
sg100
I8
sg101
I10
sg102
I4
ssg135
I0
sg136
I0
sg137
I0
sg138
I0
sg139
I0
sg140
I0
sg141
I0
sg142
g32
sbsS's11'
p257
(ijoueur
joueur
p258
(dp259
g27
I0
sg28
I0
sg29
I0
sg33
I0
sg35
g36
(g37
g38
Ntp260
Rp261
(dp262
g43
g32
sbsg47
(dp263
g49
I0
sg50
I0
sg51
I0
sg52
I0
ssg53
(dp264
g49
I0
sg50
I0
sg51
I0
sg52
I0
ssg55
g32
sg56
I0
sg58
I0
sg59
I0
sg60
I0
sg80
g246
sg63
I00
sg64
g36
(g37
g38
Ntp265
Rp266
(dp267
g43
g32
sbsg65
(dp268
g49
I0
sg50
I0
sg51
I0
sg52
I0
ssg67
I00
sg68
(dp269
g49
I0
sg50
I0
sg51
I0
sg52
I0
ssg70
(dp270
g49
I0
sg50
I0
sg51
I0
sg52
I0
ssg72
I0
sg73
I0
sg74
g32
sg76
I0
sg77
I0
sg78
I0
sg79
I0
sg61
g62
sg86
(dp271
g98
I0
sg89
I0
sg90
I0
sg91
I0
sg96
I0
sg88
I0
sg93
I0
sg95
I0
sg92
I0
sg97
I0
sg94
I0
sg99
I0
sg100
I0
sg101
I0
sg102
I0
ssg103
(dp272
sg123
I0
sg124
g32
sg125
I0
sg126
I0
sg127
I0
sg128
F0.0
sg129
I0
sg130
(dp273
g49
I0
sg50
I0
sg51
I0
sg52
I0
ssg132
I0
sg133
g256
sg135
I0
sg136
I0
sg137
I0
sg138
I0
sg139
I0
sg140
I0
sg141
I0
sg142
g32
sbssg123
I4
sg124
g32
sg125
I0
sg126
I0
sg127
I0
sg128
F11.064516129032258
sg129
I0
sg130
(dp274
g49
I0
sg50
I0
sg51
I0
sg52
I0
ssg132
I0
sg133
g256
sg135
I0
sg136
I0
sg137
I0
sg138
I0
sg139
I19
sg140
I0
sg141
I0
sg142
g217
sbsS'B4'
p275
g25
sS'RJC'
p276
g25
sS'B1'
p277
g25
sS'B2'
p278
g25
sS'B3'
p279
g25
sS'SA_pcp2'
p280
(ijoueur
joueur
p281
(dp282
g27
I0
sg28
I0
sg29
I0
sg30
F9.061524354614374
sg31
g32
sg33
I0
sg34
g32
sg35
g36
(g37
g38
Ntp283
Rp284
(dp285
g42
I3
sg43
S'^^^'
p286
sg45
S'rare'
p287
sbsg47
(dp288
g49
I0
sg50
I0
sg51
I0
sg52
I0
ssg53
(dp289
g49
I0
sg50
I0
sg51
I0
sg52
I0
ssg55
g32
sg56
I0
sg57
F9.061524354614374
sg58
I0
sg59
I0
sg60
I0
sg61
g62
sg63
I00
sg64
g36
(g37
g38
Ntp290
Rp291
(dp292
g42
I2
sg43
g168
sg45
g169
sbsg65
(dp293
g49
I0
sg50
I0
sg51
I0
sg52
I1
ssg67
I00
sg68
(dp294
g49
I0
sg50
I0
sg51
I0
sg52
I0
ssg70
(dp295
g49
I0
sg50
I0
sg51
I0
sg52
I1
ssg72
I0
sg73
I0
sg74
S'Rhinmel'
p296
sg76
I13
sg77
I0
sg78
I24
sg79
I12
sg80
(g81
S'N8'
p297
S'DL'
p298
g32
tp299
sg85
g32
sg86
(dp300
g88
I8
sg89
I8
sg90
I7
sg91
I10
sg92
I6
sg93
I4
sg94
I7
sg95
I9
sg96
I11
sg97
I7
sg98
I9
sg99
I7
sg100
I4
sg101
I8
sg102
I5
ssg103
(dp301
sg123
I5
sg124
g32
sg125
I0
sg126
I0
sg127
I0
sg128
F8.777777777777779
sg129
I0
sg130
(dp302
g49
I0
sg50
I0
sg51
I0
sg52
I0
ssg132
I0
sg133
(dp303
g88
I8
sg89
I8
sg90
I7
sg91
I10
sg96
I11
sg94
I7
sg93
I4
sg95
I9
sg92
I6
sg97
I7
sg98
I9
sg99
I7
sg100
I4
sg101
I8
sg102
I5
ssg135
I0
sg136
I0
sg137
I0
sg138
I0
sg139
I1
sg140
I0
sg141
I0
sg142
g217
sbsS'SA_pcp1'
p304
(ijoueur
joueur
p305
(dp306
g27
I0
sg28
I0
sg29
I0
sg30
F9.061524354614374
sg31
g32
sg33
I0
sg34
g32
sg35
g36
(g37
g38
Ntp307
Rp308
(dp309
g42
I4
sg43
g225
sg45
g226
sbsg47
(dp310
g49
I0
sg50
I0
sg51
I0
sg52
I0
ssg53
(dp311
g49
I0
sg50
I0
sg51
I0
sg52
I0
ssg55
g32
sg56
I0
sg57
F9.061524354614374
sg58
I0
sg59
I0
sg60
I0
sg61
g62
sg63
I00
sg64
g308
sg65
(dp312
g49
I0
sg50
I0
sg51
I0
sg52
I1
ssg67
I00
sg68
(dp313
g49
I0
sg50
I0
sg51
I0
sg52
I0
ssg70
(dp314
g49
I0
sg50
I0
sg51
I0
sg52
I1
ssg72
I0
sg73
I0
sg74
S'Trendesh'
p315
sg76
I6
sg77
I0
sg78
I17
sg79
I209
sg80
(g81
g176
g32
g32
tp316
sg85
g32
sg86
(dp317
g88
I9
sg89
I8
sg90
I8
sg91
I11
sg92
I5
sg93
I5
sg94
I8
sg95
I10
sg96
I12
sg97
I10
sg98
I10
sg99
I9
sg100
I7
sg101
I10
sg102
I6
ssg103
(dp318
S's12'
p319
(ijoueur
joueur
p320
(dp321
g27
I0
sg28
I0
sg29
I0
sg33
I0
sg35
g36
(g37
g38
Ntp322
Rp323
(dp324
g43
g32
sbsg47
(dp325
g49
I0
sg50
I0
sg51
I0
sg52
I0
ssg53
(dp326
g49
I0
sg50
I0
sg51
I0
sg52
I0
ssg55
g32
sg56
I0
sg58
I0
sg59
I0
sg60
I0
sg80
(g81
g176
g32
g32
tp327
sg63
I00
sg64
g36
(g37
g38
Ntp328
Rp329
(dp330
g43
g32
sbsg65
(dp331
g49
I0
sg50
I0
sg51
I0
sg52
I0
ssg67
I00
sg68
(dp332
g49
I0
sg50
I0
sg51
I0
sg52
I0
ssg70
(dp333
g49
I0
sg50
I0
sg51
I0
sg52
I0
ssg72
I0
sg73
I0
sg74
g32
sg76
I0
sg77
I0
sg78
I0
sg79
I0
sg61
g62
sg86
(dp334
g98
I0
sg89
I0
sg90
I0
sg91
I0
sg96
I0
sg88
I0
sg93
I0
sg95
I0
sg92
I0
sg97
I0
sg94
I0
sg99
I0
sg100
I0
sg101
I0
sg102
I0
ssg103
(dp335
sg123
I0
sg124
g32
sg125
I0
sg126
I0
sg127
I0
sg128
F0.0
sg129
I0
sg130
(dp336
g49
I0
sg50
I0
sg51
I0
sg52
I0
ssg132
I0
sg133
(dp337
g88
I9
sg89
I8
sg90
I8
sg91
I11
sg96
I12
sg94
I8
sg93
I5
sg95
I10
sg92
I5
sg97
I10
sg98
I10
sg99
I9
sg100
I7
sg101
I10
sg102
I6
ssg135
I0
sg136
I0
sg137
I0
sg138
I0
sg139
I0
sg140
I0
sg141
I0
sg142
g32
sbsS's11'
p338
(ijoueur
joueur
p339
(dp340
g27
I0
sg28
I0
sg29
I0
sg33
I0
sg35
g36
(g37
g38
Ntp341
Rp342
(dp343
g43
g32
sbsg47
(dp344
g49
I0
sg50
I0
sg51
I0
sg52
I0
ssg53
(dp345
g49
I0
sg50
I0
sg51
I0
sg52
I0
ssg55
g32
sg56
I0
sg58
I0
sg59
I0
sg60
I0
sg80
g327
sg63
I00
sg64
g36
(g37
g38
Ntp346
Rp347
(dp348
g43
g32
sbsg65
(dp349
g49
I0
sg50
I0
sg51
I0
sg52
I0
ssg67
I00
sg68
(dp350
g49
I0
sg50
I0
sg51
I0
sg52
I0
ssg70
(dp351
g49
I0
sg50
I0
sg51
I0
sg52
I0
ssg72
I0
sg73
I0
sg74
g32
sg76
I0
sg77
I0
sg78
I0
sg79
I0
sg61
g62
sg86
(dp352
g98
I0
sg89
I0
sg90
I0
sg91
I0
sg96
I0
sg88
I0
sg93
I0
sg95
I0
sg92
I0
sg97
I0
sg94
I0
sg99
I0
sg100
I0
sg101
I0
sg102
I0
ssg103
(dp353
sg123
I0
sg124
g32
sg125
I0
sg126
I0
sg127
I0
sg128
F0.0
sg129
I0
sg130
(dp354
g49
I0
sg50
I0
sg51
I0
sg52
I0
ssg132
I0
sg133
g337
sg135
I0
sg136
I0
sg137
I0
sg138
I0
sg139
I0
sg140
I0
sg141
I0
sg142
g32
sbssg123
I2
sg124
g32
sg125
I0
sg126
I0
sg127
I0
sg128
F10.029411764705882
sg129
I0
sg130
(dp355
g49
I0
sg50
I0
sg51
I0
sg52
I0
ssg132
I0
sg133
g337
sg135
I0
sg136
I0
sg137
I0
sg138
I0
sg139
I20
sg140
I0
sg141
I0
sg142
g217
sbsS'drop3'
p356
g25
sS'SA_remp1'
p357
(ijoueur
joueur
p358
(dp359
g27
I0
sg28
I0
sg29
I0
sg30
F9.061524354614374
sg31
g32
sg33
I4
sg34
g32
sg35
g36
(g37
g38
Ntp360
Rp361
(dp362
g42
I3
sg43
g286
sg45
g287
sbsg47
(dp363
g49
I0
sg50
I0
sg51
I0
sg52
I0
ssg53
(dp364
g49
I0
sg50
I0
sg51
I0
sg52
I0
ssg55
g32
sg56
I0
sg57
F9.061524354614374
sg58
I0
sg59
I0
sg60
I0
sg61
g62
sg63
I00
sg64
g361
sg65
(dp365
g49
I0
sg50
I0
sg51
I0
sg52
I1
ssg67
I00
sg68
(dp366
g49
I0
sg50
I0
sg51
I0
sg52
I0
ssg70
(dp367
g49
I0
sg50
I0
sg51
I0
sg52
I1
ssg72
I0
sg73
I0
sg74
S'Klendis'
p368
sg76
I4
sg77
I0
sg78
I17
sg79
I58
sg80
(g81
S'TL'
p369
S'N8'
p370
g32
tp371
sg85
g32
sg86
(dp372
g88
I8
sg89
I7
sg90
I7
sg91
I10
sg92
I6
sg93
I6
sg94
I8
sg95
I9
sg96
I10
sg97
I8
sg98
I10
sg99
I10
sg100
I6
sg101
I10
sg102
I7
ssg103
(dp373
S's12'
p374
(ijoueur
joueur
p375
(dp376
g27
I0
sg28
I0
sg29
I0
sg33
I0
sg35
g36
(g37
g38
Ntp377
Rp378
(dp379
g43
g32
sbsg47
(dp380
g49
I0
sg50
I0
sg51
I0
sg52
I0
ssg53
(dp381
g49
I0
sg50
I0
sg51
I0
sg52
I0
ssg55
g32
sg56
I0
sg58
I0
sg59
I0
sg60
I0
sg80
(g81
g369
g32
g32
tp382
sg63
I00
sg64
g36
(g37
g38
Ntp383
Rp384
(dp385
g43
g32
sbsg65
(dp386
g49
I0
sg50
I0
sg51
I0
sg52
I0
ssg67
I00
sg68
(dp387
g49
I0
sg50
I0
sg51
I0
sg52
I0
ssg70
(dp388
g49
I0
sg50
I0
sg51
I0
sg52
I0
ssg72
I0
sg73
I0
sg74
g32
sg76
I0
sg77
I0
sg78
I0
sg79
I0
sg61
g62
sg86
(dp389
g98
I0
sg89
I0
sg90
I0
sg91
I0
sg96
I0
sg88
I0
sg93
I0
sg95
I0
sg92
I0
sg97
I0
sg94
I0
sg99
I0
sg100
I0
sg101
I0
sg102
I0
ssg103
(dp390
sg123
I0
sg124
g32
sg125
I0
sg126
I0
sg127
I0
sg128
F0.0
sg129
I0
sg130
(dp391
g49
I0
sg50
I0
sg51
I0
sg52
I0
ssg132
I0
sg133
(dp392
g88
I8
sg89
I7
sg90
I7
sg91
I10
sg96
I10
sg94
I8
sg93
I6
sg95
I9
sg92
I6
sg97
I8
sg98
I10
sg99
I10
sg100
I6
sg101
I10
sg102
I7
ssg135
I0
sg136
I0
sg137
I0
sg138
I0
sg139
I0
sg140
I0
sg141
I0
sg142
g32
sbsS's11'
p393
(ijoueur
joueur
p394
(dp395
g27
I0
sg28
I0
sg29
I0
sg33
I0
sg35
g36
(g37
g38
Ntp396
Rp397
(dp398
g43
g32
sbsg47
(dp399
g49
I0
sg50
I0
sg51
I0
sg52
I0
ssg53
(dp400
g49
I0
sg50
I0
sg51
I0
sg52
I0
ssg55
g32
sg56
I0
sg58
I0
sg59
I0
sg60
I0
sg80
g382
sg63
I00
sg64
g36
(g37
g38
Ntp401
Rp402
(dp403
g43
g32
sbsg65
(dp404
g49
I0
sg50
I0
sg51
I0
sg52
I0
ssg67
I00
sg68
(dp405
g49
I0
sg50
I0
sg51
I0
sg52
I0
ssg70
(dp406
g49
I0
sg50
I0
sg51
I0
sg52
I0
ssg72
I0
sg73
I0
sg74
g32
sg76
I0
sg77
I0
sg78
I0
sg79
I0
sg61
g62
sg86
(dp407
g98
I0
sg89
I0
sg90
I0
sg91
I0
sg96
I0
sg88
I0
sg93
I0
sg95
I0
sg92
I0
sg97
I0
sg94
I0
sg99
I0
sg100
I0
sg101
I0
sg102
I0
ssg103
(dp408
sg123
I0
sg124
g32
sg125
I0
sg126
I0
sg127
I0
sg128
F0.0
sg129
I0
sg130
(dp409
g49
I0
sg50
I0
sg51
I0
sg52
I0
ssg132
I0
sg133
g392
sg135
I0
sg136
I0
sg137
I0
sg138
I0
sg139
I0
sg140
I0
sg141
I0
sg142
g32
sbssg123
I4
sg124
g32
sg125
I1
sg126
I1
sg127
I0
sg128
F9.578947368421053
sg129
I0
sg130
(dp410
g49
I0
sg50
I0
sg51
I0
sg52
I0
ssg132
I0
sg133
g392
sg135
I0
sg136
I0
sg137
I0
sg138
I0
sg139
I5
sg140
I0
sg141
I0
sg142
g217
sbsS'drop2'
p411
g25
sS'SA_remp2'
p412
(ijoueur
joueur
p413
(dp414
g27
I0
sg28
I0
sg29
I0
sg30
F9.061524354614374
sg31
g32
sg33
I0
sg34
g32
sg35
g36
(g37
g38
Ntp415
Rp416
(dp417
g42
I4
sg43
S'*'
p418
sg45
g226
sbsg47
(dp419
g49
I0
sg50
I0
sg51
I0
sg52
I0
ssg53
(dp420
g49
I0
sg50
I0
sg51
I0
sg52
I0
ssg55
g32
sg56
I0
sg57
F9.061524354614374
sg58
I0
sg59
I0
sg60
I0
sg61
g62
sg63
I00
sg64
g416
sg65
(dp421
g49
I0
sg50
I0
sg51
I0
sg52
I1
ssg67
I00
sg68
(dp422
g49
I0
sg50
I0
sg51
I0
sg52
I0
ssg70
(dp423
g49
I0
sg50
I0
sg51
I0
sg52
I1
ssg72
I0
sg73
I0
sg74
S"Zarh Me'Hendil"
p424
sg76
I9
sg77
I0
sg78
I23
sg79
I241
sg80
(g81
S'PI'
p425
S'TA'
p426
g32
tp427
sg85
g32
sg86
(dp428
g88
I9
sg89
I11
sg90
I8
sg91
I8
sg92
I5
sg93
I2
sg94
I9
sg95
I10
sg96
I9
sg97
I8
sg98
I11
sg99
I11
sg100
I3
sg101
I11
sg102
I9
ssg103
(dp429
S's12'
p430
(ijoueur
joueur
p431
(dp432
g27
I0
sg28
I0
sg29
I0
sg33
I0
sg35
g36
(g37
g38
Ntp433
Rp434
(dp435
g43
g32
sbsg47
(dp436
g49
I0
sg50
I0
sg51
I0
sg52
I0
ssg53
(dp437
g49
I0
sg50
I0
sg51
I0
sg52
I0
ssg55
g32
sg56
I0
sg58
I0
sg59
I0
sg60
I0
sg80
(g81
g425
g32
g32
tp438
sg63
I00
sg64
g36
(g37
g38
Ntp439
Rp440
(dp441
g43
g32
sbsg65
(dp442
g49
I0
sg50
I0
sg51
I0
sg52
I0
ssg67
I00
sg68
(dp443
g49
I0
sg50
I0
sg51
I0
sg52
I0
ssg70
(dp444
g49
I0
sg50
I0
sg51
I0
sg52
I0
ssg72
I0
sg73
I0
sg74
g32
sg76
I0
sg77
I0
sg78
I0
sg79
I0
sg61
g62
sg86
(dp445
g98
I0
sg89
I0
sg90
I0
sg91
I0
sg96
I0
sg88
I0
sg93
I0
sg95
I0
sg92
I0
sg97
I0
sg94
I0
sg99
I0
sg100
I0
sg101
I0
sg102
I0
ssg103
(dp446
sg123
I0
sg124
g32
sg125
I0
sg126
I0
sg127
I0
sg128
F0.0
sg129
I0
sg130
(dp447
g49
I0
sg50
I0
sg51
I0
sg52
I0
ssg132
I0
sg133
(dp448
g88
I9
sg89
I11
sg90
I8
sg91
I8
sg96
I9
sg94
I9
sg93
I2
sg95
I10
sg92
I5
sg97
I8
sg98
I11
sg99
I11
sg100
I3
sg101
I11
sg102
I9
ssg135
I0
sg136
I0
sg137
I0
sg138
I0
sg139
I0
sg140
I0
sg141
I0
sg142
g32
sbsS's11'
p449
(ijoueur
joueur
p450
(dp451
g27
I0
sg28
I0
sg29
I0
sg33
I0
sg35
g36
(g37
g38
Ntp452
Rp453
(dp454
g43
g32
sbsg47
(dp455
g49
I0
sg50
I0
sg51
I0
sg52
I0
ssg53
(dp456
g49
I0
sg50
I0
sg51
I0
sg52
I0
ssg55
g32
sg56
I0
sg58
I0
sg59
I0
sg60
I0
sg80
g438
sg63
I00
sg64
g36
(g37
g38
Ntp457
Rp458
(dp459
g43
g32
sbsg65
(dp460
g49
I0
sg50
I0
sg51
I0
sg52
I0
ssg67
I00
sg68
(dp461
g49
I0
sg50
I0
sg51
I0
sg52
I0
ssg70
(dp462
g49
I0
sg50
I0
sg51
I0
sg52
I0
ssg72
I0
sg73
I0
sg74
g32
sg76
I0
sg77
I0
sg78
I0
sg79
I0
sg61
g62
sg86
(dp463
g98
I0
sg89
I0
sg90
I0
sg91
I0
sg96
I0
sg88
I0
sg93
I0
sg95
I0
sg92
I0
sg97
I0
sg94
I0
sg99
I0
sg100
I0
sg101
I0
sg102
I0
ssg103
(dp464
sg123
I0
sg124
g32
sg125
I0
sg126
I0
sg127
I0
sg128
F0.0
sg129
I0
sg130
(dp465
g49
I0
sg50
I0
sg51
I0
sg52
I0
ssg132
I0
sg133
g448
sg135
I0
sg136
I0
sg137
I0
sg138
I0
sg139
I0
sg140
I0
sg141
I0
sg142
g32
sbssg123
I4
sg124
g32
sg125
I0
sg126
I0
sg127
I0
sg128
F10.222222222222221
sg129
I0
sg130
(dp466
g49
I0
sg50
I0
sg51
I0
sg52
I0
ssg132
I0
sg133
g448
sg135
I0
sg136
I0
sg137
I0
sg138
I0
sg139
I24
sg140
I0
sg141
I0
sg142
g217
sbssg74
S'CPH_defaut'
p467
sS'totaux'
p468
(dp469
g19
I0
sg20
I0
sg21
I0
ssS'_compo_defaut_fatigue'
p470
Nsg86
(dp471
g4
I0
sg5
I0
sg6
I0
sg7
I0
sg8
I0
sg9
I0
sg10
I0
sg11
I0
sg12
I0
sg13
I0
sg14
I0
sg15
I0
sg16
I0
ssS'joueurs'
p472
(dp473
S'n12'
p474
g25
sS'n13'
p475
(ijoueur
joueur
p476
(dp477
S'EV_saison_11'
p478
F10.612903225806452
sg27
I0
sS'EV_saison_12'
p479
F10.870967741935484
sg124
g32
sg29
I0
sg30
I0
sg31
g32
sg33
I0
sg34
g32
sg35
g36
(g37
g38
Ntp480
Rp481
(dp482
g42
I4
sg43
S'x'
p483
sg45
S'heros'
p484
sbsg47
(dp485
S'SR'
p486
I0
sS'CT'
p487
I0
sS'CR'
p488
I0
sS'ST'
p489
I0
ssg53
(dp490
g486
I0
sg487
I0
sg488
I0
sg489
I0
ssS'xp'
p491
I0
sg55
S'vide 13'
p492
sg56
I0
sg57
I0
sg67
I00
sg58
I0
sg59
I0
sg60
I0
sg61
g62
sg63
I00
sg64
g481
sg65
(dp493
S'SR'
p494
I0
sS'ST'
p495
I0
sS'CR'
p496
I0
sS'CT'
p497
I0
ssg130
(dp498
g494
I0
sg495
I0
sg496
I0
sg497
I0
ssg68
(dp499
g494
I0
sg495
I0
sg496
I0
sg497
I0
ssg70
(dp500
g486
I0
sg487
I0
sg488
I0
sg489
I10
ssg72
I0
sg73
I0
sg74
S'Quaz'
p501
sg76
I4
sg77
I0
sg78
I15
sg79
I161
sg80
(S'dummy'
p502
S'AI'
p503
S'CE'
p504
g32
tp505
sg85
g32
sg86
(dp506
S'RP1'
p507
I9
sS'ME'
p508
I4
sS'RP2'
p509
I10
sS'E'
p510
I10
sS'TO'
p511
I10
sS'M'
p512
I9
sS'JP'
p513
I8
sS'RP_tot'
p514
I11
sS'P'
p515
I11
sS'PA'
p516
I12
sS'A'
p517
I13
sS'R'
p518
I8
sS'TB'
p519
I10
sS'PL'
p520
I10
sS'TA'
p521
I3
ssg103
(dp522
S's12'
p523
(ijoueur
joueur
p524
(dp525
g478
F10.612903225806452
sg27
I0
sg124
g32
sg29
I0
sg31
g32
sg33
I0
sg34
g32
sg35
g36
(g37
g38
Ntp526
Rp527
(dp528
g42
I4
sg43
S'x'
p529
sg45
S'heros'
p530
sbsg47
(dp531
S'SR'
p532
I0
sS'CT'
p533
I0
sS'CR'
p534
I0
sS'ST'
p535
I0
ssg53
(dp536
g532
I0
sg533
I0
sg534
I0
sg535
I0
ssg130
(dp537
S'SR'
p538
I0
sS'ST'
p539
I0
sS'CR'
p540
I0
sS'CT'
p541
I0
ssg55
g32
sg56
I0
sg58
I1
sg59
I0
sg60
I0
sg61
S'vide'
p542
sg63
I00
sg64
g527
sg65
(dp543
g538
I0
sg539
I7
sg540
I0
sg541
I0
ssg67
I00
sg68
(dp544
g538
I0
sg539
I0
sg540
I0
sg541
I0
ssg70
(dp545
g532
I0
sg533
I0
sg534
I0
sg535
I10
ssg72
I0
sg73
I0
sg74
S'Quaz'
p546
sg76
I4
sg77
I0
sg78
I15
sg79
I161
sg80
(S'dummy'
p547
S'AI'
p548
S'CE'
p549
g32
tp550
sg85
g32
sg86
(dp551
S'RP1'
p552
I9
sS'ME'
p553
I4
sS'RP2'
p554
I10
sS'E'
p555
I10
sS'P'
p556
I11
sS'JP'
p557
I8
sS'M'
p558
I9
sS'RP_tot'
p559
I12
sS'TO'
p560
I10
sS'PA'
p561
I12
sS'A'
p562
I13
sS'R'
p563
I7
sS'TB'
p564
I9
sS'PL'
p565
I10
sS'TA'
p566
I3
ssg103
(dp567
S's11'
p568
(ijoueur
joueur
p569
(dp570
g27
I0
sg29
I0
sg31
g32
sg33
I0
sg34
g32
sg35
g36
(g37
g38
Ntp571
Rp572
(dp573
g42
I4
sg43
S'x'
p574
sg45
S'heros'
p575
sbsg47
(dp576
S'SR'
p577
I0
sS'ST'
p578
I0
sS'CR'
p579
I0
sS'CT'
p580
I0
ssg53
(dp581
g577
I0
sg578
I0
sg579
I0
sg580
I0
ssg55
g32
sg56
I0
sg67
I00
sg58
I1
sg59
I0
sg60
I0
sg61
S'vide'
p582
sg63
I00
sg64
g572
sg65
(dp583
g577
I0
sg578
I3
sg579
I0
sg580
I0
ssg130
(dp584
g577
I0
sg578
I0
sg579
I0
sg580
I0
ssg68
(dp585
g577
I0
sg578
I0
sg579
I0
sg580
I0
ssg70
(dp586
g577
I0
sg578
I3
sg579
I0
sg580
I0
ssg72
I0
sg73
I0
sg74
S'Quaz'
p587
sg76
I4
sg77
I0
sg78
I15
sg79
I161
sg80
(S'dummy'
p588
S'AI'
p589
S'CE'
p590
g32
tp591
sg85
g32
sg86
(dp592
S'RP1'
p593
I9
sS'ME'
p594
I4
sS'RP2'
p595
I10
sS'E'
p596
I9
sS'TO'
p597
I10
sS'M'
p598
I9
sS'JP'
p599
I8
sS'RP_tot'
p600
I12
sS'P'
p601
I10
sS'PA'
p602
I11
sS'A'
p603
I13
sS'R'
p604
I7
sS'TB'
p605
I8
sS'PL'
p606
I10
sS'TA'
p607
I3
ssg123
I0
sg28
I0
sg125
I0
sg127
I0
sg128
F10.612903225806452
sg129
I0
sg126
I0
sg132
I0
sS'caracs_saison_11'
p608
(dp609
S'RP1'
p610
I9
sS'ME'
p611
I4
sS'RP2'
p612
I10
sS'E'
p613
I9
sS'TO'
p614
I10
sS'M'
p615
I9
sS'JP'
p616
I8
sS'RP_tot'
p617
I12
sS'P'
p618
I10
sS'PA'
p619
I11
sS'A'
p620
I13
sS'R'
p621
I7
sS'TB'
p622
I8
sS'PL'
p623
I10
sS'TA'
p624
I3
ssg133
g592
sg135
I0
sg136
I0
sg137
I0
sg138
I0
sg139
I15
sg140
I1
sg141
I0
sg142
S'ARA'
p625
sbssg123
I10
sg28
I0
sg125
I0
sg127
I0
sg128
F10.870967741935484
sg129
I0
sg126
I0
sg132
I0
sg608
(dp626
g552
I9
sg553
I4
sg554
I10
sg555
I9
sg560
I10
sg558
I9
sg557
I8
sg559
I12
sg556
I10
sg561
I11
sg562
I13
sg563
I7
sg564
I8
sg565
I10
sg566
I3
ssg133
g551
sg135
I0
sg136
I0
sg137
I0
sg138
I0
sg139
I15
sg140
I2
sg141
I0
sg142
S'ARA'
p627
sbsS's11'
p628
(ijoueur
joueur
p629
(dp630
g27
I0
sg29
I0
sg31
g32
sg33
I0
sg34
g32
sg35
g36
(g37
g38
Ntp631
Rp632
(dp633
g42
I4
sg43
S'x'
p634
sg45
S'heros'
p635
sbsg47
(dp636
S'SR'
p637
I0
sS'ST'
p638
I0
sS'CR'
p639
I0
sS'CT'
p640
I0
ssg53
(dp641
g637
I0
sg638
I0
sg639
I0
sg640
I0
ssg55
g32
sg56
I0
sg67
I00
sg58
I1
sg59
I0
sg60
I0
sg61
S'vide'
p642
sg63
I00
sg64
g632
sg65
(dp643
g637
I0
sg638
I3
sg639
I0
sg640
I0
ssg130
(dp644
g637
I0
sg638
I0
sg639
I0
sg640
I0
ssg68
(dp645
g637
I0
sg638
I0
sg639
I0
sg640
I0
ssg70
(dp646
g637
I0
sg638
I3
sg639
I0
sg640
I0
ssg72
I0
sg73
I0
sg74
S'Quaz'
p647
sg76
I4
sg77
I0
sg78
I15
sg79
I161
sg80
(S'dummy'
p648
S'AI'
p649
S'CE'
p650
g32
tp651
sg85
g32
sg86
(dp652
S'RP1'
p653
I9
sS'ME'
p654
I4
sS'RP2'
p655
I10
sS'E'
p656
I9
sS'TO'
p657
I10
sS'M'
p658
I9
sS'JP'
p659
I8
sS'RP_tot'
p660
I12
sS'P'
p661
I10
sS'PA'
p662
I11
sS'A'
p663
I13
sS'R'
p664
I7
sS'TB'
p665
I8
sS'PL'
p666
I10
sS'TA'
p667
I3
ssg123
I0
sg28
I0
sg125
I0
sg127
I0
sg128
F10.612903225806452
sg129
I0
sg126
I0
sg132
I0
sg608
(dp668
S'RP1'
p669
I9
sS'ME'
p670
I4
sS'RP2'
p671
I10
sS'E'
p672
I9
sS'TO'
p673
I10
sS'M'
p674
I9
sS'JP'
p675
I8
sS'RP_tot'
p676
I12
sS'P'
p677
I10
sS'PA'
p678
I11
sS'A'
p679
I13
sS'R'
p680
I7
sS'TB'
p681
I8
sS'PL'
p682
I10
sS'TA'
p683
I3
ssg133
g652
sg135
I0
sg136
I0
sg137
I0
sg138
I0
sg139
I15
sg140
I1
sg141
I0
sg142
S'ARA'
p684
sbssg123
I0
sg28
I0
sg125
I0
sg127
I0
sg128
F10.709677419354838
sg129
I0
sg126
I0
sg132
I0
sg608
(dp685
g507
I9
sg508
I4
sg509
I10
sg510
I9
sg511
I10
sg512
I9
sg513
I8
sg514
I12
sg515
I10
sg516
I11
sg517
I13
sg518
I7
sg519
I8
sg520
I10
sg521
I3
ssg133
(dp686
g507
I9
sg508
I4
sg509
I10
sg510
I10
sg515
I11
sg513
I8
sg512
I9
sg514
I11
sg511
I10
sg516
I12
sg517
I13
sg518
I8
sg519
I10
sg520
I10
sg521
I3
ssg135
I0
sS'caracs_saison_12'
p687
(dp688
sg136
I0
sg137
I0
sg138
I0
sg139
I15
sg140
I2
sg141
I0
sg142
S'ARA'
p689
sbsS'n10'
p690
(ijoueur
joueur
p691
(dp692
g27
I0
sg28
I0
sg29
I0
sg30
F9.061524354614374
sg31
g32
sg33
I0
sg34
g32
sg35
g36
(g37
g38
Ntp693
Rp694
(dp695
g42
I4
sg43
g418
sg45
g226
sbsg47
(dp696
g49
I0
sg50
I0
sg51
I0
sg52
I0
ssg53
(dp697
g49
I0
sg50
I0
sg51
I0
sg52
I0
ssg55
g32
sg56
I0
sg57
F9.061524354614374
sg58
I0
sg59
I0
sg60
I0
sg61
g62
sg63
I00
sg64
g36
(g37
g38
Ntp698
Rp699
(dp700
g42
I2
sg43
S'<<'
p701
sg45
g169
sbsg65
(dp702
g49
I0
sg50
I0
sg51
I0
sg52
I1
ssg67
I00
sg68
(dp703
g49
I0
sg50
I0
sg51
I0
sg52
I0
ssg70
(dp704
g49
I0
sg50
I0
sg51
I0
sg52
I1
ssg72
I0
sg73
I0
sg74
S'Artenkh'
p705
sg76
I13
sg77
I0
sg78
I25
sg79
I52
sg80
(g81
S'DO'
p706
g32
g32
tp707
sg85
g32
sg86
(dp708
g88
I6
sg89
I3
sg90
I7
sg91
I10
sg92
I6
sg93
I7
sg94
I10
sg95
I7
sg96
I2
sg97
I8
sg98
I11
sg99
I7
sg100
I7
sg101
I9
sg102
I6
ssg103
(dp709
sg123
I3
sg124
g32
sg125
I0
sg126
I0
sg127
I0
sg128
F8.242424242424242
sg129
I0
sg130
(dp710
g49
I0
sg50
I0
sg51
I0
sg52
I0
ssg132
I0
sg133
(dp711
g88
I6
sg89
I3
sg90
I7
sg91
I10
sg96
I2
sg94
I10
sg93
I7
sg95
I7
sg92
I6
sg97
I8
sg98
I11
sg99
I7
sg100
I7
sg101
I9
sg102
I6
ssg135
I0
sg136
I0
sg137
I0
sg138
I0
sg139
I5
sg140
I0
sg141
I0
sg142
g217
sbsS'n11'
p712
(ijoueur
joueur
p713
(dp714
g27
I0
sg28
I0
sg29
I0
sg30
F9.061524354614374
sg31
g32
sg33
I0
sg34
g32
sg35
g36
(g37
g38
Ntp715
Rp716
(dp717
g42
I4
sg43
g418
sg45
g226
sbsg47
(dp718
g49
I0
sg50
I0
sg51
I0
sg52
I1
ssg53
(dp719
g49
I0
sg50
I0
sg51
I0
sg52
I0
ssg55
g32
sg56
I0
sg57
F9.061524354614374
sg58
I0
sg59
I0
sg60
I0
sg61
g62
sg63
I00
sg64
g716
sg65
(dp720
g49
I0
sg50
I0
sg51
I0
sg52
I0
ssg67
I00
sg68
(dp721
g49
I0
sg50
I0
sg51
I0
sg52
I0
ssg70
(dp722
g49
I0
sg50
I0
sg51
I0
sg52
I0
ssg72
I0
sg73
I0
sg74
S'Xaqerh'
p723
sg76
I7
sg77
I0
sg78
I19
sg79
I195
sg80
(g81
S'AR'
p724
S'AI'
p725
g32
tp726
sg85
g32
sg86
(dp727
g88
I8
sg89
I7
sg90
I9
sg91
I8
sg92
I7
sg93
I7
sg94
I13
sg95
I10
sg96
I6
sg97
I9
sg98
I10
sg99
I7
sg100
I6
sg101
I12
sg102
I5
ssg103
(dp728
S's12'
p729
(ijoueur
joueur
p730
(dp731
g27
I0
sg28
I0
sg29
I0
sg33
I0
sg35
g36
(g37
g38
Ntp732
Rp733
(dp734
g43
g32
sbsg47
(dp735
g49
I0
sg50
I0
sg51
I0
sg52
I0
ssg53
(dp736
g49
I0
sg50
I0
sg51
I0
sg52
I0
ssg55
g32
sg56
I0
sg58
I0
sg59
I0
sg60
I0
sg80
(g81
g724
g32
g32
tp737
sg63
I00
sg64
g36
(g37
g38
Ntp738
Rp739
(dp740
g43
g32
sbsg65
(dp741
g49
I0
sg50
I0
sg51
I0
sg52
I0
ssg67
I00
sg68
(dp742
g49
I0
sg50
I0
sg51
I0
sg52
I0
ssg70
(dp743
g49
I0
sg50
I0
sg51
I0
sg52
I0
ssg72
I0
sg73
I0
sg74
g32
sg76
I0
sg77
I0
sg78
I0
sg79
I0
sg61
g62
sg86
(dp744
g98
I0
sg89
I0
sg90
I0
sg91
I0
sg96
I0
sg88
I0
sg93
I0
sg95
I0
sg92
I0
sg97
I0
sg94
I0
sg99
I0
sg100
I0
sg101
I0
sg102
I0
ssg103
(dp745
sg123
I0
sg124
g32
sg125
I0
sg126
I0
sg127
I0
sg128
F0.0
sg129
I0
sg130
(dp746
g49
I0
sg50
I0
sg51
I0
sg52
I0
ssg132
I0
sg133
(dp747
g88
I8
sg89
I7
sg90
I9
sg91
I8
sg96
I6
sg94
I13
sg93
I7
sg95
I10
sg92
I7
sg97
I9
sg98
I10
sg99
I7
sg100
I6
sg101
I12
sg102
I5
ssg135
I0
sg136
I0
sg137
I0
sg138
I0
sg139
I0
sg140
I0
sg141
I0
sg142
g32
sbsS's11'
p748
(ijoueur
joueur
p749
(dp750
g27
I0
sg28
I0
sg29
I0
sg33
I0
sg35
g36
(g37
g38
Ntp751
Rp752
(dp753
g43
g32
sbsg47
(dp754
g49
I0
sg50
I0
sg51
I0
sg52
I0
ssg53
(dp755
g49
I0
sg50
I0
sg51
I0
sg52
I0
ssg55
g32
sg56
I0
sg58
I0
sg59
I0
sg60
I0
sg80
g737
sg63
I00
sg64
g36
(g37
g38
Ntp756
Rp757
(dp758
g43
g32
sbsg65
(dp759
g49
I0
sg50
I0
sg51
I0
sg52
I0
ssg67
I00
sg68
(dp760
g49
I0
sg50
I0
sg51
I0
sg52
I0
ssg70
(dp761
g49
I0
sg50
I0
sg51
I0
sg52
I0
ssg72
I0
sg73
I0
sg74
g32
sg76
I0
sg77
I0
sg78
I0
sg79
I0
sg61
g62
sg86
(dp762
g98
I0
sg89
I0
sg90
I0
sg91
I0
sg96
I0
sg88
I0
sg93
I0
sg95
I0
sg92
I0
sg97
I0
sg94
I0
sg99
I0
sg100
I0
sg101
I0
sg102
I0
ssg103
(dp763
sg123
I0
sg124
g32
sg125
I0
sg126
I0
sg127
I0
sg128
F0.0
sg129
I0
sg130
(dp764
g49
I0
sg50
I0
sg51
I0
sg52
I0
ssg132
I0
sg133
g747
sg135
I0
sg136
I0
sg137
I0
sg138
I0
sg139
I0
sg140
I0
sg141
I0
sg142
g32
sbssg123
I2
sg124
g32
sg125
I0
sg126
I0
sg127
I0
sg128
F9.93939393939394
sg129
I0
sg130
(dp765
g49
I0
sg50
I0
sg51
I0
sg52
I1
ssg132
I0
sg133
g747
sg135
I0
sg136
I0
sg137
I0
sg138
I0
sg139
I19
sg140
I0
sg141
I0
sg142
g217
sbsS'n16'
p766
(ijoueur
joueur
p767
(dp768
g27
I0
sg28
I0
sg29
I0
sg30
F9.061524354614374
sg31
g32
sg33
I0
sg34
g32
sg35
g36
(g37
g38
Ntp769
Rp770
(dp771
g42
I4
sg43
g225
sg45
g226
sbsg47
(dp772
g49
I0
sg50
I0
sg51
I0
sg52
I0
ssg53
(dp773
g49
I0
sg50
I0
sg51
I0
sg52
I0
ssg55
g32
sg56
I0
sg57
F9.061524354614374
sg58
I0
sg59
I0
sg60
I0
sg61
g62
sg63
I00
sg64
g770
sg65
(dp774
g49
I0
sg50
I0
sg51
I1
sg52
I0
ssg67
I00
sg68
(dp775
g49
I0
sg50
I0
sg51
I0
sg52
I0
ssg70
(dp776
g49
I0
sg50
I0
sg51
I1
sg52
I0
ssg72
I0
sg73
I0
sg74
S'Wizzgoth'
p777
sg76
I8
sg77
I0
sg78
I18
sg79
I171
sg80
(g81
g102
g32
g32
tp778
sg85
g32
sg86
(dp779
g88
I8
sg89
I9
sg90
I8
sg91
I10
sg92
I5
sg93
I5
sg94
I9
sg95
I10
sg96
I9
sg97
I9
sg98
I12
sg99
I7
sg100
I6
sg101
I10
sg102
I8
ssg103
(dp780
S's12'
p781
(ijoueur
joueur
p782
(dp783
g27
I0
sg28
I0
sg29
I0
sg33
I0
sg35
g36
(g37
g38
Ntp784
Rp785
(dp786
g43
g32
sbsg47
(dp787
g49
I0
sg50
I0
sg51
I0
sg52
I0
ssg53
(dp788
g49
I0
sg50
I0
sg51
I0
sg52
I0
ssg55
g32
sg56
I0
sg58
I0
sg59
I0
sg60
I0
sg80
(g81
g102
g32
g32
tp789
sg63
I00
sg64
g36
(g37
g38
Ntp790
Rp791
(dp792
g43
g32
sbsg65
(dp793
g49
I0
sg50
I0
sg51
I0
sg52
I0
ssg67
I00
sg68
(dp794
g49
I0
sg50
I0
sg51
I0
sg52
I0
ssg70
(dp795
g49
I0
sg50
I0
sg51
I0
sg52
I0
ssg72
I0
sg73
I0
sg74
g32
sg76
I0
sg77
I0
sg78
I0
sg79
I0
sg61
g62
sg86
(dp796
g98
I0
sg89
I0
sg90
I0
sg91
I0
sg96
I0
sg88
I0
sg93
I0
sg95
I0
sg92
I0
sg97
I0
sg94
I0
sg99
I0
sg100
I0
sg101
I0
sg102
I0
ssg103
(dp797
sg123
I0
sg124
g32
sg125
I0
sg126
I0
sg127
I0
sg128
F0.0
sg129
I0
sg130
(dp798
g49
I0
sg50
I0
sg51
I0
sg52
I0
ssg132
I0
sg133
(dp799
g88
I8
sg89
I9
sg90
I8
sg91
I10
sg96
I9
sg94
I9
sg93
I5
sg95
I10
sg92
I5
sg97
I9
sg98
I12
sg99
I7
sg100
I6
sg101
I10
sg102
I8
ssg135
I0
sg136
I0
sg137
I0
sg138
I0
sg139
I0
sg140
I0
sg141
I0
sg142
g32
sbsS's11'
p800
(ijoueur
joueur
p801
(dp802
g27
I0
sg28
I0
sg29
I0
sg33
I0
sg35
g36
(g37
g38
Ntp803
Rp804
(dp805
g43
g32
sbsg47
(dp806
g49
I0
sg50
I0
sg51
I0
sg52
I0
ssg53
(dp807
g49
I0
sg50
I0
sg51
I0
sg52
I0
ssg55
g32
sg56
I0
sg58
I0
sg59
I0
sg60
I0
sg80
g789
sg63
I00
sg64
g36
(g37
g38
Ntp808
Rp809
(dp810
g43
g32
sbsg65
(dp811
g49
I0
sg50
I0
sg51
I0
sg52
I0
ssg67
I00
sg68
(dp812
g49
I0
sg50
I0
sg51
I0
sg52
I0
ssg70
(dp813
g49
I0
sg50
I0
sg51
I0
sg52
I0
ssg72
I0
sg73
I0
sg74
g32
sg76
I0
sg77
I0
sg78
I0
sg79
I0
sg61
g62
sg86
(dp814
g98
I0
sg89
I0
sg90
I0
sg91
I0
sg96
I0
sg88
I0
sg93
I0
sg95
I0
sg92
I0
sg97
I0
sg94
I0
sg99
I0
sg100
I0
sg101
I0
sg102
I0
ssg103
(dp815
sg123
I0
sg124
g32
sg125
I0
sg126
I0
sg127
I0
sg128
F0.0
sg129
I0
sg130
(dp816
g49
I0
sg50
I0
sg51
I0
sg52
I0
ssg132
I0
sg133
g799
sg135
I0
sg136
I0
sg137
I0
sg138
I0
sg139
I0
sg140
I0
sg141
I0
sg142
g32
sbssg123
I1
sg124
g32
sg125
I0
sg126
I0
sg127
I0
sg128
F9.068965517241379
sg129
I0
sg130
(dp817
g49
I0
sg50
I0
sg51
I0
sg52
I0
ssg132
I0
sg133
g799
sg135
I0
sg136
I0
sg137
I0
sg138
I0
sg139
I17
sg140
I0
sg141
I0
sg142
g217
sbsS'n17'
p818
(ijoueur
joueur
p819
(dp820
g27
I0
sg28
I0
sg29
I0
sg30
F9.061524354614374
sg31
g32
sg33
I0
sg34
g32
sg35
g36
(g37
g38
Ntp821
Rp822
(dp823
g42
I1
sg43
S'>'
p824
sg45
S'base'
p825
sbsg47
(dp826
g49
I0
sg50
I0
sg51
I0
sg52
I0
ssg53
(dp827
g49
I0
sg50
I0
sg51
I0
sg52
I0
ssg55
g32
sg56
I0
sg57
F9.061524354614374
sg58
I0
sg59
I0
sg60
I0
sg61
g62
sg63
I00
sg64
g822
sg65
(dp828
g49
I0
sg50
I0
sg51
I1
sg52
I0
ssg67
I00
sg68
(dp829
g49
I0
sg50
I0
sg51
I0
sg52
I0
ssg70
(dp830
g49
I0
sg50
I0
sg51
I1
sg52
I0
ssg72
I0
sg73
I0
sg74
S'Thenderdt'
p831
sg76
I13
sg77
I0
sg78
I20
sg79
I12
sg80
(g81
g425
g32
g32
tp832
sg85
g32
sg86
(dp833
g88
I8
sg89
I9
sg90
I7
sg91
I9
sg92
I5
sg93
I1
sg94
I7
sg95
I9
sg96
I6
sg97
I8
sg98
I6
sg99
I8
sg100
I5
sg101
I7
sg102
I6
ssg103
(dp834
sg123
I1
sg124
g32
sg125
I0
sg126
I0
sg127
I0
sg128
F8.148148148148149
sg129
I0
sg130
(dp835
g49
I0
sg50
I0
sg51
I0
sg52
I0
ssg132
I0
sg133
(dp836
g88
I8
sg89
I9
sg90
I7
sg91
I9
sg96
I6
sg94
I7
sg93
I1
sg95
I9
sg92
I5
sg97
I8
sg98
I6
sg99
I8
sg100
I5
sg101
I7
sg102
I6
ssg135
I0
sg136
I0
sg137
I0
sg138
I0
sg139
I1
sg140
I0
sg141
I0
sg142
g161
sbsS'n14'
p837
g220
sS'n15'
p838
(ijoueur
joueur
p839
(dp840
g27
I0
sg28
I0
sg29
I0
sg30
F9.061524354614374
sg31
g32
sg33
I0
sg34
g32
sg35
g36
(g37
g38
Ntp841
Rp842
(dp843
g42
I4
sg43
g225
sg45
g226
sbsg47
(dp844
g49
I0
sg50
I0
sg51
I0
sg52
I0
ssg53
(dp845
g49
I0
sg50
I0
sg51
I0
sg52
I0
ssg55
g32
sg56
I0
sg57
F9.061524354614374
sg58
I0
sg59
I0
sg60
I0
sg61
g62
sg63
I00
sg64
g842
sg65
(dp846
g49
I0
sg50
I0
sg51
I0
sg52
I1
ssg67
I00
sg68
(dp847
g49
I0
sg50
I0
sg51
I0
sg52
I0
ssg70
(dp848
g49
I0
sg50
I0
sg51
I0
sg52
I1
ssg72
I0
sg73
I0
sg74
S'Ysmen Dar'
p849
sg76
I8
sg77
I0
sg78
I17
sg79
I190
sg80
(g81
g724
S'CE'
p850
g32
tp851
sg85
g32
sg86
(dp852
g88
I7
sg89
I5
sg90
I10
sg91
I12
sg92
I9
sg93
I9
sg94
I10
sg95
I10
sg96
I7
sg97
I13
sg98
I11
sg99
I9
sg100
I9
sg101
I11
sg102
I4
ssg103
(dp853
S's12'
p854
(ijoueur
joueur
p855
(dp856
g27
I0
sg28
I0
sg29
I0
sg33
I0
sg35
g36
(g37
g38
Ntp857
Rp858
(dp859
g43
g32
sbsg47
(dp860
g49
I0
sg50
I0
sg51
I0
sg52
I0
ssg53
(dp861
g49
I0
sg50
I0
sg51
I0
sg52
I0
ssg55
g32
sg56
I0
sg58
I0
sg59
I0
sg60
I0
sg80
(g81
g724
g32
g32
tp862
sg63
I00
sg64
g36
(g37
g38
Ntp863
Rp864
(dp865
g43
g32
sbsg65
(dp866
g49
I0
sg50
I0
sg51
I0
sg52
I0
ssg67
I00
sg68
(dp867
g49
I0
sg50
I0
sg51
I0
sg52
I0
ssg70
(dp868
g49
I0
sg50
I0
sg51
I0
sg52
I0
ssg72
I0
sg73
I0
sg74
g32
sg76
I0
sg77
I0
sg78
I0
sg79
I0
sg61
g62
sg86
(dp869
g98
I0
sg89
I0
sg90
I0
sg91
I0
sg96
I0
sg88
I0
sg93
I0
sg95
I0
sg92
I0
sg97
I0
sg94
I0
sg99
I0
sg100
I0
sg101
I0
sg102
I0
ssg103
(dp870
sg123
I0
sg124
g32
sg125
I0
sg126
I0
sg127
I0
sg128
F0.0
sg129
I0
sg130
(dp871
g49
I0
sg50
I0
sg51
I0
sg52
I0
ssg132
I0
sg133
(dp872
g88
I7
sg89
I5
sg90
I10
sg91
I12
sg96
I7
sg94
I10
sg93
I9
sg95
I10
sg92
I9
sg97
I13
sg98
I11
sg99
I9
sg100
I9
sg101
I11
sg102
I4
ssg135
I0
sg136
I0
sg137
I0
sg138
I0
sg139
I0
sg140
I0
sg141
I0
sg142
g32
sbsS's11'
p873
(ijoueur
joueur
p874
(dp875
g27
I0
sg28
I0
sg29
I0
sg33
I0
sg35
g36
(g37
g38
Ntp876
Rp877
(dp878
g43
g32
sbsg47
(dp879
g49
I0
sg50
I0
sg51
I0
sg52
I0
ssg53
(dp880
g49
I0
sg50
I0
sg51
I0
sg52
I0
ssg55
g32
sg56
I0
sg58
I0
sg59
I0
sg60
I0
sg80
g862
sg63
I00
sg64
g36
(g37
g38
Ntp881
Rp882
(dp883
g43
g32
sbsg65
(dp884
g49
I0
sg50
I0
sg51
I0
sg52
I0
ssg67
I00
sg68
(dp885
g49
I0
sg50
I0
sg51
I0
sg52
I0
ssg70
(dp886
g49
I0
sg50
I0
sg51
I0
sg52
I0
ssg72
I0
sg73
I0
sg74
g32
sg76
I0
sg77
I0
sg78
I0
sg79
I0
sg61
g62
sg86
(dp887
g98
I0
sg89
I0
sg90
I0
sg91
I0
sg96
I0
sg88
I0
sg93
I0
sg95
I0
sg92
I0
sg97
I0
sg94
I0
sg99
I0
sg100
I0
sg101
I0
sg102
I0
ssg103
(dp888
sg123
I0
sg124
g32
sg125
I0
sg126
I0
sg127
I0
sg128
F0.0
sg129
I0
sg130
(dp889
g49
I0
sg50
I0
sg51
I0
sg52
I0
ssg132
I0
sg133
g872
sg135
I0
sg136
I0
sg137
I0
sg138
I0
sg139
I0
sg140
I0
sg141
I0
sg142
g32
sbssg123
I4
sg124
g32
sg125
I0
sg126
I0
sg127
I0
sg128
F10.727272727272727
sg129
I0
sg130
(dp890
g49
I0
sg50
I0
sg51
I0
sg52
I0
ssg132
I0
sg133
g872
sg135
I0
sg136
I0
sg137
I0
sg138
I0
sg139
I19
sg140
I0
sg141
I0
sg142
g217
sbsS'n18'
p891
(ijoueur
joueur
p892
(dp893
g27
I0
sg28
I0
sg29
I0
sg30
F9.061524354614374
sg31
g32
sg33
I0
sg34
g32
sg35
g36
(g37
g38
Ntp894
Rp895
(dp896
g42
I1
sg43
S'^'
p897
sg45
g825
sbsg47
(dp898
g49
I0
sg50
I0
sg51
I0
sg52
I0
ssg53
(dp899
g49
I0
sg50
I0
sg51
I0
sg52
I0
ssg55
g32
sg56
I0
sg57
F9.061524354614374
sg58
I0
sg59
I0
sg60
I0
sg61
g62
sg63
I00
sg64
g895
sg65
(dp900
g49
I0
sg50
I0
sg51
I1
sg52
I0
ssg67
I00
sg68
(dp901
g49
I0
sg50
I0
sg51
I0
sg52
I0
ssg70
(dp902
g49
I0
sg50
I0
sg51
I1
sg52
I0
ssg72
I0
sg73
I0
sg74
S'Gladoiersh'
p903
sg76
I8
sg77
I0
sg78
I15
sg79
I6
sg80
(g81
g176
S'TL'
p904
g32
tp905
sg85
g32
sg86
(dp906
g88
I7
sg89
I9
sg90
I7
sg91
I8
sg92
I5
sg93
I3
sg94
I7
sg95
I8
sg96
I6
sg97
I6
sg98
I6
sg99
I10
sg100
I3
sg101
I8
sg102
I6
ssg103
(dp907
S's12'
p908
(ijoueur
joueur
p909
(dp910
g27
I0
sg28
I0
sg29
I0
sg33
I0
sg35
g36
(g37
g38
Ntp911
Rp912
(dp913
g43
g32
sbsg47
(dp914
g49
I0
sg50
I0
sg51
I0
sg52
I0
ssg53
(dp915
g49
I0
sg50
I0
sg51
I0
sg52
I0
ssg55
g32
sg56
I0
sg58
I0
sg59
I0
sg60
I0
sg80
(g81
g176
g32
g32
tp916
sg63
I00
sg64
g36
(g37
g38
Ntp917
Rp918
(dp919
g43
g32
sbsg65
(dp920
g49
I0
sg50
I0
sg51
I0
sg52
I0
ssg67
I00
sg68
(dp921
g49
I0
sg50
I0
sg51
I0
sg52
I0
ssg70
(dp922
g49
I0
sg50
I0
sg51
I0
sg52
I0
ssg72
I0
sg73
I0
sg74
g32
sg76
I0
sg77
I0
sg78
I0
sg79
I0
sg61
g62
sg86
(dp923
g98
I0
sg89
I0
sg90
I0
sg91
I0
sg96
I0
sg88
I0
sg93
I0
sg95
I0
sg92
I0
sg97
I0
sg94
I0
sg99
I0
sg100
I0
sg101
I0
sg102
I0
ssg103
(dp924
sg123
I0
sg124
g32
sg125
I0
sg126
I0
sg127
I0
sg128
F0.0
sg129
I0
sg130
(dp925
g49
I0
sg50
I0
sg51
I0
sg52
I0
ssg132
I0
sg133
(dp926
g88
I7
sg89
I9
sg90
I7
sg91
I8
sg96
I6
sg94
I7
sg93
I3
sg95
I8
sg92
I5
sg97
I6
sg98
I6
sg99
I10
sg100
I3
sg101
I8
sg102
I6
ssg135
I0
sg136
I0
sg137
I0
sg138
I0
sg139
I0
sg140
I0
sg141
I0
sg142
g32
sbsS's11'
p927
(ijoueur
joueur
p928
(dp929
g27
I0
sg28
I0
sg29
I0
sg33
I0
sg35
g36
(g37
g38
Ntp930
Rp931
(dp932
g43
g32
sbsg47
(dp933
g49
I0
sg50
I0
sg51
I0
sg52
I0
ssg53
(dp934
g49
I0
sg50
I0
sg51
I0
sg52
I0
ssg55
g32
sg56
I0
sg58
I0
sg59
I0
sg60
I0
sg80
g916
sg63
I00
sg64
g36
(g37
g38
Ntp935
Rp936
(dp937
g43
g32
sbsg65
(dp938
g49
I0
sg50
I0
sg51
I0
sg52
I0
ssg67
I00
sg68
(dp939
g49
I0
sg50
I0
sg51
I0
sg52
I0
ssg70
(dp940
g49
I0
sg50
I0
sg51
I0
sg52
I0
ssg72
I0
sg73
I0
sg74
g32
sg76
I0
sg77
I0
sg78
I0
sg79
I0
sg61
g62
sg86
(dp941
g98
I0
sg89
I0
sg90
I0
sg91
I0
sg96
I0
sg88
I0
sg93
I0
sg95
I0
sg92
I0
sg97
I0
sg94
I0
sg99
I0
sg100
I0
sg101
I0
sg102
I0
ssg103
(dp942
sg123
I0
sg124
g32
sg125
I0
sg126
I0
sg127
I0
sg128
F0.0
sg129
I0
sg130
(dp943
g49
I0
sg50
I0
sg51
I0
sg52
I0
ssg132
I0
sg133
g926
sg135
I0
sg136
I0
sg137
I0
sg138
I0
sg139
I0
sg140
I0
sg141
I0
sg142
g32
sbssg123
I2
sg124
g32
sg125
I0
sg126
I0
sg127
I0
sg128
F8.407407407407407
sg129
I0
sg130
(dp944
g49
I0
sg50
I0
sg51
I0
sg52
I0
ssg132
I0
sg133
g926
sg135
I0
sg136
I0
sg137
I0
sg138
I0
sg139
I0
sg140
I0
sg141
I0
sg142
g217
sbsS'n19'
p945
(ijoueur
joueur
p946
(dp947
g27
I0
sg28
I0
sg29
I0
sg30
F9.061524354614374
sg31
g32
sg33
I0
sg34
g32
sg35
g36
(g37
g38
Ntp948
Rp949
(dp950
g42
I4
sg43
g225
sg45
g226
sbsg47
(dp951
g49
I0
sg50
I0
sg51
I0
sg52
I0
ssg53
(dp952
g49
I0
sg50
I0
sg51
I0
sg52
I0
ssg55
g32
sg56
I0
sg57
F9.061524354614374
sg58
I0
sg59
I0
sg60
I0
sg61
g62
sg63
I00
sg64
g36
(g37
g38
Ntp953
Rp954
(dp955
g42
I1
sg43
g897
sg45
g825
sbsg65
(dp956
g49
I0
sg50
I0
sg51
I0
sg52
I1
ssg67
I00
sg68
(dp957
g49
I0
sg50
I0
sg51
I0
sg52
I0
ssg70
(dp958
g49
I0
sg50
I0
sg51
I0
sg52
I1
ssg72
I0
sg73
I0
sg74
S'Ormud'
p959
sg76
I13
sg77
I0
sg78
I26
sg79
I8
sg80
(g81
g369
S'DL'
p960
g32
tp961
sg85
g32
sg86
(dp962
g88
I7
sg89
I8
sg90
I6
sg91
I8
sg92
I3
sg93
I4
sg94
I7
sg95
I7
sg96
I7
sg97
I6
sg98
I8
sg99
I9
sg100
I4
sg101
I11
sg102
I5
ssg103
(dp963
sg123
I3
sg124
g32
sg125
I0
sg126
I0
sg127
I0
sg128
F8.612903225806452
sg129
I0
sg130
(dp964
g49
I0
sg50
I0
sg51
I0
sg52
I0
ssg132
I0
sg133
(dp965
g88
I7
sg89
I8
sg90
I6
sg91
I8
sg96
I7
sg94
I7
sg93
I4
sg95
I7
sg92
I3
sg97
I6
sg98
I8
sg99
I9
sg100
I4
sg101
I11
sg102
I5
ssg135
I0
sg136
I0
sg137
I0
sg138
I0
sg139
I0
sg140
I0
sg141
I0
sg142
g217
sbsS'n22'
p966
(ijoueur
joueur
p967
(dp968
g27
I0
sg479
F8.827586206896552
sg124
g32
sg29
I0
sg30
I0
sg31
g32
sg33
I0
sg34
g32
sg35
g36
(g37
g38
Ntp969
Rp970
(dp971
g42
I2
sg43
S'<<'
p972
sg45
S'special'
p973
sbsg47
(dp974
S'SR'
p975
I0
sS'CT'
p976
I0
sS'CR'
p977
I0
sS'ST'
p978
I0
ssg53
(dp979
g975
I0
sg976
I0
sg977
I0
sg978
I0
ssg491
I0
sg55
S'vide 13'
p980
sg56
I0
sg57
I0
sg67
I00
sg58
I0
sg59
I0
sg60
I0
sg61
g62
sg63
I00
sg64
g970
sg65
(dp981
g494
I0
sg495
I0
sg496
I0
sg497
I0
ssg130
(dp982
g494
I0
sg495
I0
sg496
I0
sg497
I0
ssg68
(dp983
g494
I0
sg495
I0
sg496
I0
sg497
I0
ssg70
(dp984
g975
I1
sg976
I0
sg977
I0
sg978
I0
ssg72
I0
sg73
I0
sg74
S'Estoej'
p985
sg76
I12
sg77
I0
sg78
I22
sg79
I48
sg80
(S'dummy'
p986
S'C2'
p987
S'AI'
p988
g32
tp989
sg85
g32
sg86
(dp990
S'RP1'
p991
I8
sS'ME'
p992
I5
sS'RP2'
p993
I7
sS'E'
p994
I10
sS'TO'
p995
I5
sS'M'
p996
I10
sS'JP'
p997
I8
sS'RP_tot'
p998
I9
sS'P'
p999
I8
sS'PA'
p1000
I9
sS'A'
p1001
I10
sS'R'
p1002
I7
sS'TB'
p1003
I8
sS'PL'
p1004
I10
sS'TA'
p1005
I4
ssg103
(dp1006
g523
(ijoueur
joueur
p1007
(dp1008
g27
I0
sg124
g32
sg29
I0
sg31
g32
sg33
I0
sg34
g32
sg35
g36
(g37
g38
Ntp1009
Rp1010
(dp1011
g42
I2
sg43
S'<<'
p1012
sg45
S'special'
p1013
sbsg47
(dp1014
S'SR'
p1015
I0
sS'CT'
p1016
I0
sS'CR'
p1017
I0
sS'ST'
p1018
I0
ssg53
(dp1019
g1015
I0
sg1016
I0
sg1017
I0
sg1018
I0
ssg130
(dp1020
g1015
I0
sg1016
I0
sg1017
I0
sg1018
I0
ssg55
g32
sg56
I0
sg58
I0
sg59
I0
sg60
I0
sg61
g542
sg63
I00
sg64
g1010
sg65
(dp1021
g1015
I1
sg1016
I0
sg1017
I0
sg1018
I0
ssg67
I00
sg68
(dp1022
g1015
I0
sg1016
I0
sg1017
I0
sg1018
I0
ssg70
(dp1023
g1015
I1
sg1016
I0
sg1017
I0
sg1018
I0
ssg72
I0
sg73
I0
sg74
S'Estoej'
p1024
sg76
I12
sg77
I0
sg78
I22
sg79
I48
sg80
(S'dummy'
p1025
S'C2'
p1026
S'AI'
p1027
g32
tp1028
sg85
g32
sg86
(dp1029
S'RP1'
p1030
I8
sS'ME'
p1031
I5
sS'RP2'
p1032
I7
sS'E'
p1033
I10
sS'P'
p1034
I8
sS'JP'
p1035
I7
sS'M'
p1036
I10
sS'RP_tot'
p1037
I8
sS'TO'
p1038
I5
sS'PA'
p1039
I9
sS'A'
p1040
I9
sS'R'
p1041
I7
sS'TB'
p1042
I8
sS'PL'
p1043
I9
sS'TA'
p1044
I4
ssg103
(dp1045
sg123
I0
sg28
I0
sg125
I0
sg127
I0
sg128
F8.827586206896552
sg129
I0
sg126
I0
sg132
I0
sg133
g1029
sg135
I0
sg136
I0
sg137
I0
sg138
I0
sg139
I4
sg140
I0
sg141
I0
sg142
S'ARA'
p1046
sbssg123
I0
sg28
I0
sg125
I0
sg127
I0
sg128
F9.344827586206897
sg129
I0
sg126
I0
sg132
I0
sg133
(dp1047
g991
I8
sg992
I5
sg993
I7
sg994
I10
sg999
I8
sg997
I8
sg996
I10
sg998
I9
sg995
I5
sg1000
I9
sg1001
I10
sg1002
I7
sg1003
I8
sg1004
I10
sg1005
I4
ssg135
I0
sg687
(dp1048
sg136
I0
sg137
I0
sg138
I0
sg139
I4
sg140
I0
sg141
I0
sg142
S'ARA'
p1049
sbsS'n21'
p1050
(ijoueur
joueur
p1051
(dp1052
g27
I0
sg28
I0
sg29
I0
sg30
F9.061524354614374
sg31
g32
sg33
I0
sg34
g32
sg35
g36
(g37
g38
Ntp1053
Rp1054
(dp1055
g42
I3
sg43
g286
sg45
g287
sbsg47
(dp1056
g49
I0
sg50
I0
sg51
I0
sg52
I0
ssg53
(dp1057
g49
I0
sg50
I0
sg51
I0
sg52
I0
ssg55
g32
sg56
I0
sg57
F9.061524354614374
sg58
I0
sg59
I0
sg60
I0
sg61
g62
sg63
I00
sg64
g1054
sg65
(dp1058
g49
I0
sg50
I0
sg51
I0
sg52
I1
ssg67
I00
sg68
(dp1059
g49
I0
sg50
I0
sg51
I0
sg52
I0
ssg70
(dp1060
g49
I0
sg50
I0
sg51
I0
sg52
I1
ssg72
I0
sg73
I0
sg74
S'Xhend Frhe'
p1061
sg76
I4
sg77
I0
sg78
I16
sg79
I62
sg80
(g81
S'C2'
p1062
g32
g32
tp1063
sg85
g32
sg86
(dp1064
g88
I8
sg89
I5
sg90
I9
sg91
I9
sg92
I9
sg93
I7
sg94
I10
sg95
I10
sg96
I3
sg97
I9
sg98
I10
sg99
I9
sg100
I8
sg101
I9
sg102
I7
ssg103
(dp1065
S's12'
p1066
(ijoueur
joueur
p1067
(dp1068
g27
I0
sg28
I0
sg29
I0
sg33
I0
sg35
g36
(g37
g38
Ntp1069
Rp1070
(dp1071
g43
g32
sbsg47
(dp1072
g49
I0
sg50
I0
sg51
I0
sg52
I0
ssg53
(dp1073
g49
I0
sg50
I0
sg51
I0
sg52
I0
ssg55
g32
sg56
I0
sg58
I0
sg59
I0
sg60
I0
sg80
(g81
g113
g32
g32
tp1074
sg63
I00
sg64
g36
(g37
g38
Ntp1075
Rp1076
(dp1077
g43
g32
sbsg65
(dp1078
g49
I0
sg50
I0
sg51
I0
sg52
I0
ssg67
I00
sg68
(dp1079
g49
I0
sg50
I0
sg51
I0
sg52
I0
ssg70
(dp1080
g49
I0
sg50
I0
sg51
I0
sg52
I0
ssg72
I0
sg73
I0
sg74
g32
sg76
I0
sg77
I0
sg78
I0
sg79
I0
sg61
g62
sg86
(dp1081
g98
I0
sg89
I0
sg90
I0
sg91
I0
sg96
I0
sg88
I0
sg93
I0
sg95
I0
sg92
I0
sg97
I0
sg94
I0
sg99
I0
sg100
I0
sg101
I0
sg102
I0
ssg103
(dp1082
sg123
I0
sg124
g32
sg125
I0
sg126
I0
sg127
I0
sg128
F0.0
sg129
I0
sg130
(dp1083
g49
I0
sg50
I0
sg51
I0
sg52
I0
ssg132
I0
sg133
(dp1084
g88
I8
sg89
I5
sg90
I9
sg91
I9
sg96
I3
sg94
I10
sg93
I7
sg95
I10
sg92
I9
sg97
I9
sg98
I10
sg99
I9
sg100
I8
sg101
I9
sg102
I7
ssg135
I0
sg136
I0
sg137
I0
sg138
I0
sg139
I0
sg140
I0
sg141
I0
sg142
g32
sbsS's11'
p1085
(ijoueur
joueur
p1086
(dp1087
g27
I0
sg28
I0
sg29
I0
sg33
I0
sg35
g36
(g37
g38
Ntp1088
Rp1089
(dp1090
g43
g32
sbsg47
(dp1091
g49
I0
sg50
I0
sg51
I0
sg52
I0
ssg53
(dp1092
g49
I0
sg50
I0
sg51
I0
sg52
I0
ssg55
g32
sg56
I0
sg58
I0
sg59
I0
sg60
I0
sg80
g1074
sg63
I00
sg64
g36
(g37
g38
Ntp1093
Rp1094
(dp1095
g43
g32
sbsg65
(dp1096
g49
I0
sg50
I0
sg51
I0
sg52
I0
ssg67
I00
sg68
(dp1097
g49
I0
sg50
I0
sg51
I0
sg52
I0
ssg70
(dp1098
g49
I0
sg50
I0
sg51
I0
sg52
I0
ssg72
I0
sg73
I0
sg74
g32
sg76
I0
sg77
I0
sg78
I0
sg79
I0
sg61
g62
sg86
(dp1099
g98
I0
sg89
I0
sg90
I0
sg91
I0
sg96
I0
sg88
I0
sg93
I0
sg95
I0
sg92
I0
sg97
I0
sg94
I0
sg99
I0
sg100
I0
sg101
I0
sg102
I0
ssg103
(dp1100
sg123
I0
sg124
g32
sg125
I0
sg126
I0
sg127
I0
sg128
F0.0
sg129
I0
sg130
(dp1101
g49
I0
sg50
I0
sg51
I0
sg52
I0
ssg132
I0
sg133
g1084
sg135
I0
sg136
I0
sg137
I0
sg138
I0
sg139
I0
sg140
I0
sg141
I0
sg142
g32
sbssg123
I3
sg124
g32
sg125
I0
sg126
I0
sg127
I0
sg128
F9.344827586206897
sg129
I0
sg130
(dp1102
g49
I0
sg50
I0
sg51
I0
sg52
I0
ssg132
I0
sg133
g1084
sg135
I0
sg136
I0
sg137
I0
sg138
I0
sg139
I6
sg140
I0
sg141
I0
sg142
g217
sbsS'n20'
p1103
(ijoueur
joueur
p1104
(dp1105
g27
I0
sg28
I0
sg29
I0
sg30
F9.061524354614374
sg31
g32
sg33
I0
sg34
g32
sg35
g36
(g37
g38
Ntp1106
Rp1107
(dp1108
g42
I5
sg43
S'**'
p1109
sg45
g46
sbsg47
(dp1110
g49
I0
sg50
I0
sg51
I0
sg52
I0
ssg53
(dp1111
g49
I0
sg50
I0
sg51
I0
sg52
I0
ssg55
g32
sg56
I0
sg57
F9.061524354614374
sg58
I0
sg59
I0
sg60
I0
sg61
g62
sg63
I00
sg64
g36
(g37
g38
Ntp1112
Rp1113
(dp1114
g42
I2
sg43
g701
sg45
g169
sbsg65
(dp1115
g49
I0
sg50
I0
sg51
I1
sg52
I0
ssg67
I00
sg68
(dp1116
g49
I0
sg50
I0
sg51
I0
sg52
I0
ssg70
(dp1117
g49
I0
sg50
I0
sg51
I1
sg52
I0
ssg72
I0
sg73
I0
sg74
S"Char'Sdess"
p1118
sg76
I12
sg77
I0
sg78
I20
sg79
I38
sg80
(g81
g706
g32
g32
tp1119
sg85
g32
sg86
(dp1120
g88
I6
sg89
I4
sg90
I6
sg91
I9
sg92
I7
sg93
I6
sg94
I9
sg95
I7
sg96
I4
sg97
I8
sg98
I8
sg99
I6
sg100
I8
sg101
I9
sg102
I4
ssg103
(dp1121
S's12'
p1122
(ijoueur
joueur
p1123
(dp1124
g27
I0
sg28
I0
sg29
I0
sg33
I0
sg35
g36
(g37
g38
Ntp1125
Rp1126
(dp1127
g43
g32
sbsg47
(dp1128
g49
I0
sg50
I0
sg51
I0
sg52
I0
ssg53
(dp1129
g49
I0
sg50
I0
sg51
I0
sg52
I0
ssg55
g32
sg56
I0
sg58
I0
sg59
I0
sg60
I0
sg80
(g81
g706
g32
g32
tp1130
sg63
I00
sg64
g36
(g37
g38
Ntp1131
Rp1132
(dp1133
g43
g32
sbsg65
(dp1134
g49
I0
sg50
I0
sg51
I0
sg52
I0
ssg67
I00
sg68
(dp1135
g49
I0
sg50
I0
sg51
I0
sg52
I0
ssg70
(dp1136
g49
I0
sg50
I0
sg51
I0
sg52
I0
ssg72
I0
sg73
I0
sg74
g32
sg76
I0
sg77
I0
sg78
I0
sg79
I0
sg61
g62
sg86
(dp1137
g98
I0
sg89
I0
sg90
I0
sg91
I0
sg96
I0
sg88
I0
sg93
I0
sg95
I0
sg92
I0
sg97
I0
sg94
I0
sg99
I0
sg100
I0
sg101
I0
sg102
I0
ssg103
(dp1138
sg123
I0
sg124
g32
sg125
I0
sg126
I0
sg127
I0
sg128
F0.0
sg129
I0
sg130
(dp1139
g49
I0
sg50
I0
sg51
I0
sg52
I0
ssg132
I0
sg133
(dp1140
g88
I6
sg89
I4
sg90
I6
sg91
I9
sg96
I4
sg94
I9
sg93
I6
sg95
I7
sg92
I7
sg97
I8
sg98
I8
sg99
I6
sg100
I8
sg101
I9
sg102
I4
ssg135
I0
sg136
I0
sg137
I0
sg138
I0
sg139
I0
sg140
I0
sg141
I0
sg142
g32
sbssg123
I4
sg124
g32
sg125
I0
sg126
I0
sg127
I0
sg128
F7.742857142857143
sg129
I0
sg130
(dp1141
g49
I0
sg50
I0
sg51
I0
sg52
I0
ssg132
I0
sg133
g1140
sg135
I0
sg136
I0
sg137
I0
sg138
I0
sg139
I3
sg140
I0
sg141
I0
sg142
g217
sbsS'n8'
p1142
g281
sS'n9'
p1143
(ijoueur
joueur
p1144
(dp1145
g27
I0
sg28
I0
sg29
I0
sg30
F9.061524354614374
sg31
g32
sg33
I0
sg34
g32
sg35
g36
(g37
g38
Ntp1146
Rp1147
(dp1148
g42
I4
sg43
g418
sg45
g226
sbsg47
(dp1149
g49
I0
sg50
I0
sg51
I0
sg52
I0
ssg53
(dp1150
g49
I0
sg50
I0
sg51
I0
sg52
I0
ssg55
g32
sg56
I0
sg57
F9.061524354614374
sg58
I1
sg59
I0
sg60
I0
sg61
g62
sg63
I00
sg64
g36
(g37
g38
Ntp1151
Rp1152
(dp1153
g42
I1
sg43
S'<'
p1154
sg45
g825
sbsg65
(dp1155
g49
I0
sg50
I0
sg51
I0
sg52
I1
ssg67
I00
sg68
(dp1156
g49
I0
sg50
I0
sg51
I0
sg52
I0
ssg70
(dp1157
g49
I0
sg50
I0
sg51
I0
sg52
I1
ssg72
I0
sg73
I0
sg74
S'Niersd'
p1158
sg76
I13
sg77
I0
sg78
I22
sg79
I12
sg80
(g81
S'DM'
p1159
S'DO'
p1160
S'CE'
p1161
tp1162
sg85
g32
sg86
(dp1163
g88
I6
sg89
I4
sg90
I9
sg91
I9
sg92
I8
sg93
I6
sg94
I7
sg95
I9
sg96
I4
sg97
I10
sg98
I8
sg99
I7
sg100
I9
sg101
I9
sg102
I5
ssg103
(dp1164
sg123
I4
sg124
g32
sg125
I0
sg126
I0
sg127
I0
sg128
F8.451612903225806
sg129
I0
sg130
(dp1165
g49
I0
sg50
I0
sg51
I0
sg52
I0
ssg132
I0
sg133
(dp1166
g88
I6
sg89
I4
sg90
I9
sg91
I9
sg96
I4
sg94
I7
sg93
I6
sg95
I9
sg92
I8
sg97
I10
sg98
I8
sg99
I7
sg100
I9
sg101
I9
sg102
I5
ssg135
I0
sg136
I0
sg137
I0
sg138
I0
sg139
I1
sg140
I1
sg141
I0
sg142
g217
sbsS'n1'
p1167
(ijoueur
joueur
p1168
(dp1169
g27
I0
sg28
I0
sg29
I0
sg30
F9.061524354614374
sg31
g32
sg33
I0
sg34
g32
sg35
g36
(g37
g38
Ntp1170
Rp1171
(dp1172
g42
I3
sg43
g286
sg45
g287
sbsg47
(dp1173
g49
I0
sg50
I0
sg51
I0
sg52
I0
ssg53
(dp1174
g49
I0
sg50
I0
sg51
I0
sg52
I0
ssg55
g32
sg56
I0
sg57
F9.061524354614374
sg58
I0
sg59
I0
sg60
I0
sg61
g62
sg63
I00
sg64
g1171
sg65
(dp1175
g49
I0
sg50
I0
sg51
I0
sg52
I1
ssg67
I00
sg68
(dp1176
g49
I0
sg50
I0
sg51
I0
sg52
I0
ssg70
(dp1177
g49
I0
sg50
I0
sg51
I0
sg52
I1
ssg72
I0
sg73
I0
sg74
S'Stalesh'
p1178
sg76
I7
sg77
I0
sg78
I20
sg79
I94
sg80
(g81
g425
g32
g32
tp1179
sg85
g32
sg86
(dp1180
g88
I9
sg89
I11
sg90
I7
sg91
I9
sg92
I6
sg93
I5
sg94
I7
sg95
I9
sg96
I9
sg97
I7
sg98
I9
sg99
I10
sg100
I4
sg101
I9
sg102
I7
ssg103
(dp1181
S's12'
p1182
(ijoueur
joueur
p1183
(dp1184
g27
I0
sg28
I0
sg29
I0
sg33
I0
sg35
g36
(g37
g38
Ntp1185
Rp1186
(dp1187
g43
g32
sbsg47
(dp1188
g49
I0
sg50
I0
sg51
I0
sg52
I0
ssg53
(dp1189
g49
I0
sg50
I0
sg51
I0
sg52
I0
ssg55
g32
sg56
I0
sg58
I0
sg59
I0
sg60
I0
sg80
(g81
g425
g32
g32
tp1190
sg63
I00
sg64
g36
(g37
g38
Ntp1191
Rp1192
(dp1193
g43
g32
sbsg65
(dp1194
g49
I0
sg50
I0
sg51
I0
sg52
I0
ssg67
I00
sg68
(dp1195
g49
I0
sg50
I0
sg51
I0
sg52
I0
ssg70
(dp1196
g49
I0
sg50
I0
sg51
I0
sg52
I0
ssg72
I0
sg73
I0
sg74
g32
sg76
I0
sg77
I0
sg78
I0
sg79
I0
sg61
g62
sg86
(dp1197
g98
I0
sg89
I0
sg90
I0
sg91
I0
sg96
I0
sg88
I0
sg93
I0
sg95
I0
sg92
I0
sg97
I0
sg94
I0
sg99
I0
sg100
I0
sg101
I0
sg102
I0
ssg103
(dp1198
sg123
I0
sg124
g32
sg125
I0
sg126
I0
sg127
I0
sg128
F0.0
sg129
I0
sg130
(dp1199
g49
I0
sg50
I0
sg51
I0
sg52
I0
ssg132
I0
sg133
(dp1200
g88
I9
sg89
I11
sg90
I7
sg91
I9
sg96
I9
sg94
I7
sg93
I5
sg95
I9
sg92
I6
sg97
I7
sg98
I9
sg99
I10
sg100
I4
sg101
I9
sg102
I7
ssg135
I0
sg136
I0
sg137
I0
sg138
I0
sg139
I0
sg140
I0
sg141
I0
sg142
g32
sbsS's11'
p1201
(ijoueur
joueur
p1202
(dp1203
g27
I0
sg28
I0
sg29
I0
sg33
I0
sg35
g36
(g37
g38
Ntp1204
Rp1205
(dp1206
g43
g32
sbsg47
(dp1207
g49
I0
sg50
I0
sg51
I0
sg52
I0
ssg53
(dp1208
g49
I0
sg50
I0
sg51
I0
sg52
I0
ssg55
g32
sg56
I0
sg58
I0
sg59
I0
sg60
I0
sg80
g1190
sg63
I00
sg64
g36
(g37
g38
Ntp1209
Rp1210
(dp1211
g43
g32
sbsg65
(dp1212
g49
I0
sg50
I0
sg51
I0
sg52
I0
ssg67
I00
sg68
(dp1213
g49
I0
sg50
I0
sg51
I0
sg52
I0
ssg70
(dp1214
g49
I0
sg50
I0
sg51
I0
sg52
I0
ssg72
I0
sg73
I0
sg74
g32
sg76
I0
sg77
I0
sg78
I0
sg79
I0
sg61
g62
sg86
(dp1215
g98
I0
sg89
I0
sg90
I0
sg91
I0
sg96
I0
sg88
I0
sg93
I0
sg95
I0
sg92
I0
sg97
I0
sg94
I0
sg99
I0
sg100
I0
sg101
I0
sg102
I0
ssg103
(dp1216
sg123
I0
sg124
g32
sg125
I0
sg126
I0
sg127
I0
sg128
F0.0
sg129
I0
sg130
(dp1217
g49
I0
sg50
I0
sg51
I0
sg52
I0
ssg132
I0
sg133
g1200
sg135
I0
sg136
I0
sg137
I0
sg138
I0
sg139
I0
sg140
I0
sg141
I0
sg142
g32
sbssg123
I2
sg124
g32
sg125
I0
sg126
I0
sg127
I0
sg128
F9.444444444444445
sg129
I0
sg130
(dp1218
g49
I0
sg50
I0
sg51
I0
sg52
I0
ssg132
I0
sg133
g1200
sg135
I0
sg136
I0
sg137
I0
sg138
I0
sg139
I9
sg140
I0
sg141
I0
sg142
g217
sbsS'n2'
p1219
(ijoueur
joueur
p1220
(dp1221
g27
I0
sg28
I0
sg29
I0
sg30
F9.061524354614374
sg31
g32
sg33
I0
sg34
g32
sg35
g36
(g37
g38
Ntp1222
Rp1223
(dp1224
g42
I4
sg43
g418
sg45
g226
sbsg47
(dp1225
g49
I0
sg50
I0
sg51
I0
sg52
I0
ssg53
(dp1226
g49
I0
sg50
I0
sg51
I0
sg52
I0
ssg55
g32
sg56
I0
sg57
F9.061524354614374
sg58
I0
sg59
I0
sg60
I0
sg61
g62
sg63
I00
sg64
g1223
sg65
(dp1227
g49
I0
sg50
I0
sg51
I0
sg52
I1
ssg67
I00
sg68
(dp1228
g49
I0
sg50
I0
sg51
I0
sg52
I0
ssg70
(dp1229
g49
I0
sg50
I0
sg51
I0
sg52
I1
ssg72
I0
sg73
I0
sg74
S'Darhzyel'
p1230
sg76
I7
sg77
I0
sg78
I18
sg79
I160
sg80
(g81
g102
S'TL'
p1231
g32
tp1232
sg85
g32
sg86
(dp1233
g88
I9
sg89
I8
sg90
I6
sg91
I8
sg92
I4
sg93
I2
sg94
I7
sg95
I9
sg96
I8
sg97
I8
sg98
I8
sg99
I10
sg100
I3
sg101
I11
sg102
I10
ssg103
(dp1234
S's12'
p1235
(ijoueur
joueur
p1236
(dp1237
g27
I0
sg28
I0
sg29
I0
sg33
I0
sg35
g36
(g37
g38
Ntp1238
Rp1239
(dp1240
g43
g32
sbsg47
(dp1241
g49
I0
sg50
I0
sg51
I0
sg52
I0
ssg53
(dp1242
g49
I0
sg50
I0
sg51
I0
sg52
I0
ssg55
g32
sg56
I0
sg58
I0
sg59
I0
sg60
I0
sg80
(g81
g102
g32
g32
tp1243
sg63
I00
sg64
g36
(g37
g38
Ntp1244
Rp1245
(dp1246
g43
g32
sbsg65
(dp1247
g49
I0
sg50
I0
sg51
I0
sg52
I0
ssg67
I00
sg68
(dp1248
g49
I0
sg50
I0
sg51
I0
sg52
I0
ssg70
(dp1249
g49
I0
sg50
I0
sg51
I0
sg52
I0
ssg72
I0
sg73
I0
sg74
g32
sg76
I0
sg77
I0
sg78
I0
sg79
I0
sg61
g62
sg86
(dp1250
g98
I0
sg89
I0
sg90
I0
sg91
I0
sg96
I0
sg88
I0
sg93
I0
sg95
I0
sg92
I0
sg97
I0
sg94
I0
sg99
I0
sg100
I0
sg101
I0
sg102
I0
ssg103
(dp1251
sg123
I0
sg124
g32
sg125
I0
sg126
I0
sg127
I0
sg128
F0.0
sg129
I0
sg130
(dp1252
g49
I0
sg50
I0
sg51
I0
sg52
I0
ssg132
I0
sg133
(dp1253
g88
I9
sg89
I8
sg90
I6
sg91
I8
sg96
I8
sg94
I7
sg93
I2
sg95
I9
sg92
I4
sg97
I8
sg98
I8
sg99
I10
sg100
I3
sg101
I11
sg102
I10
ssg135
I0
sg136
I0
sg137
I0
sg138
I0
sg139
I0
sg140
I0
sg141
I0
sg142
g32
sbsS's11'
p1254
(ijoueur
joueur
p1255
(dp1256
g27
I0
sg28
I0
sg29
I0
sg33
I0
sg35
g36
(g37
g38
Ntp1257
Rp1258
(dp1259
g43
g32
sbsg47
(dp1260
g49
I0
sg50
I0
sg51
I0
sg52
I0
ssg53
(dp1261
g49
I0
sg50
I0
sg51
I0
sg52
I0
ssg55
g32
sg56
I0
sg58
I0
sg59
I0
sg60
I0
sg80
g1243
sg63
I00
sg64
g36
(g37
g38
Ntp1262
Rp1263
(dp1264
g43
g32
sbsg65
(dp1265
g49
I0
sg50
I0
sg51
I0
sg52
I0
ssg67
I00
sg68
(dp1266
g49
I0
sg50
I0
sg51
I0
sg52
I0
ssg70
(dp1267
g49
I0
sg50
I0
sg51
I0
sg52
I0
ssg72
I0
sg73
I0
sg74
g32
sg76
I0
sg77
I0
sg78
I0
sg79
I0
sg61
g62
sg86
(dp1268
g98
I0
sg89
I0
sg90
I0
sg91
I0
sg96
I0
sg88
I0
sg93
I0
sg95
I0
sg92
I0
sg97
I0
sg94
I0
sg99
I0
sg100
I0
sg101
I0
sg102
I0
ssg103
(dp1269
sg123
I0
sg124
g32
sg125
I0
sg126
I0
sg127
I0
sg128
F0.0
sg129
I0
sg130
(dp1270
g49
I0
sg50
I0
sg51
I0
sg52
I0
ssg132
I0
sg133
g1253
sg135
I0
sg136
I0
sg137
I0
sg138
I0
sg139
I0
sg140
I0
sg141
I0
sg142
g32
sbssg123
I2
sg124
g32
sg125
I0
sg126
I0
sg127
I0
sg128
F9.206896551724139
sg129
I0
sg130
(dp1271
g49
I0
sg50
I0
sg51
I0
sg52
I0
ssg132
I0
sg133
g1253
sg135
I0
sg136
I0
sg137
I0
sg138
I0
sg139
I16
sg140
I0
sg141
I0
sg142
S'HB'
p1272
sbsS'n3'
p1273
g413
sS'n4'
p1274
g305
sS'n5'
p1275
g163
sS'n6'
p1276
(ijoueur
joueur
p1277
(dp1278
g478
F7.709677419354839
sg27
I0
sg479
F8.290322580645162
sg124
g32
sg29
I0
sg30
I0
sg31
g32
sg33
I0
sg34
g32
sg35
g36
(g37
g38
Ntp1279
Rp1280
(dp1281
g42
I4
sg43
S'x'
p1282
sg45
S'heros'
p1283
sbsg47
(dp1284
S'SR'
p1285
I0
sS'ST'
p1286
I0
sS'CR'
p1287
I0
sS'CT'
p1288
I0
ssg53
(dp1289
g1285
I0
sg1286
I0
sg1287
I0
sg1288
I0
ssg491
I0
sg55
S'vide 13'
p1290
sg56
I0
sg57
I0
sg67
I00
sg58
I0
sg59
I0
sg60
I0
sg61
g62
sg63
I00
sg64
g36
(g37
g38
Ntp1291
Rp1292
(dp1293
g42
I3
sg43
S'^^^'
p1294
sg45
S'rare'
p1295
sbsg65
(dp1296
g494
I0
sg495
I0
sg496
I0
sg497
I0
ssg130
(dp1297
g494
I0
sg495
I0
sg496
I0
sg497
I0
ssg68
(dp1298
g494
I0
sg495
I0
sg496
I0
sg497
I0
ssg70
(dp1299
g1285
I0
sg1286
I0
sg1287
I0
sg1288
I0
ssg72
I0
sg73
I0
sg74
S'Har Hel'
p1300
sg76
I10
sg77
I0
sg78
I22
sg79
I45
sg80
(S'dummy'
p1301
S'TL'
p1302
S'PI'
p1303
g32
tp1304
sg85
g32
sg86
(dp1305
S'RP1'
p1306
I9
sS'ME'
p1307
I9
sS'RP2'
p1308
I8
sS'E'
p1309
I10
sS'P'
p1310
I6
sS'JP'
p1311
I5
sS'M'
p1312
I9
sS'RP_tot'
p1313
I10
sS'TO'
p1314
I9
sS'PA'
p1315
I8
sS'A'
p1316
I10
sS'R'
p1317
I7
sS'TB'
p1318
I6
sS'PL'
p1319
I12
sS'TA'
p1320
I6
ssg103
(dp1321
g523
(ijoueur
joueur
p1322
(dp1323
g478
F7.709677419354839
sg27
I0
sg124
g32
sg29
I0
sg31
g32
sg33
I0
sg34
g32
sg35
g36
(g37
g38
Ntp1324
Rp1325
(dp1326
g42
I4
sg43
S'x'
p1327
sg45
S'heros'
p1328
sbsg47
(dp1329
S'SR'
p1330
I0
sS'ST'
p1331
I0
sS'CR'
p1332
I0
sS'CT'
p1333
I0
ssg53
(dp1334
g1330
I0
sg1331
I0
sg1332
I0
sg1333
I0
ssg130
(dp1335
g538
I0
sg539
I0
sg540
I0
sg541
I0
ssg55
g32
sg56
I0
sg58
I0
sg59
I0
sg60
I0
sg61
g542
sg63
I00
sg64
g36
(g37
g38
Ntp1336
Rp1337
(dp1338
g42
I2
sg43
S'^^'
p1339
sg45
S'special'
p1340
sbsg65
(dp1341
g538
I0
sg539
I0
sg540
I0
sg541
I0
ssg67
I01
sg68
(dp1342
g538
I0
sg539
I0
sg540
I0
sg541
I0
ssg70
(dp1343
g1330
I0
sg1331
I0
sg1332
I0
sg1333
I0
ssg72
I0
sg73
I0
sg74
S'Har Hel'
p1344
sg76
I10
sg77
I0
sg78
I22
sg79
I6
sg80
(S'dummy'
p1345
S'TL'
p1346
S'PI'
p1347
g32
tp1348
sg85
g32
sg86
(dp1349
S'RP1'
p1350
I7
sS'ME'
p1351
I8
sS'RP2'
p1352
I7
sS'E'
p1353
I10
sS'TO'
p1354
I8
sS'M'
p1355
I8
sS'JP'
p1356
I4
sS'RP_tot'
p1357
I7
sS'P'
p1358
I6
sS'PA'
p1359
I7
sS'A'
p1360
I9
sS'R'
p1361
I7
sS'TB'
p1362
I5
sS'PL'
p1363
I10
sS'TA'
p1364
I5
ssg103
(dp1365
g568
(ijoueur
joueur
p1366
(dp1367
g27
I0
sg29
I0
sg31
g32
sg33
I0
sg34
g32
sg35
g36
(g37
g38
Ntp1368
Rp1369
(dp1370
g42
I4
sg43
S'x'
p1371
sg45
S'heros'
p1372
sbsg47
(dp1373
S'SR'
p1374
I0
sS'CT'
p1375
I0
sS'CR'
p1376
I0
sS'ST'
p1377
I0
ssg53
(dp1378
g1374
I0
sg1375
I0
sg1376
I0
sg1377
I0
ssg55
g32
sg56
I0
sg67
I00
sg58
I0
sg59
I0
sg60
I0
sg61
S'vide'
p1379
sg63
I01
sg64
g36
(g37
g38
Ntp1380
Rp1381
(dp1382
g42
I1
sg43
S'^'
p1383
sg45
S'base'
p1384
sbsg65
(dp1385
g1374
I0
sg1375
I0
sg1376
I0
sg1377
I0
ssg130
(dp1386
g1374
I0
sg1375
I0
sg1376
I0
sg1377
I0
ssg68
(dp1387
g1374
I0
sg1375
I0
sg1376
I0
sg1377
I0
ssg70
(dp1388
g1374
I0
sg1375
I0
sg1376
I0
sg1377
I0
ssg72
I0
sg73
I0
sg74
S'Har Hel'
p1389
sg76
I10
sg77
I0
sg78
I22
sg79
I5
sg80
(S'dummy'
p1390
S'TL'
p1391
S'PI'
p1392
g32
tp1393
sg85
g32
sg86
(dp1394
S'RP1'
p1395
I6
sS'ME'
p1396
I8
sS'RP2'
p1397
I6
sS'E'
p1398
I9
sS'P'
p1399
I5
sS'JP'
p1400
I3
sS'M'
p1401
I8
sS'RP_tot'
p1402
I6
sS'TO'
p1403
I7
sS'PA'
p1404
I6
sS'A'
p1405
I8
sS'R'
p1406
I7
sS'TB'
p1407
I4
sS'PL'
p1408
I9
sS'TA'
p1409
I5
ssg123
I0
sg28
I0
sg125
I0
sg127
I0
sg128
F7.709677419354839
sg129
I0
sg126
I0
sg132
I0
sg608
(dp1410
S'RP1'
p1411
I6
sS'ME'
p1412
I8
sS'RP2'
p1413
I6
sS'E'
p1414
I9
sS'P'
p1415
I5
sS'JP'
p1416
I3
sS'M'
p1417
I8
sS'RP_tot'
p1418
I6
sS'TO'
p1419
I7
sS'PA'
p1420
I6
sS'A'
p1421
I8
sS'R'
p1422
I7
sS'TB'
p1423
I4
sS'PL'
p1424
I9
sS'TA'
p1425
I5
ssg133
g1394
sg135
I0
sg136
I0
sg137
I0
sg138
I0
sg139
I1
sg140
I0
sg141
I0
sg142
S'ARA'
p1426
sbssg123
I0
sg28
I0
sg125
I0
sg127
I0
sg128
F8.290322580645162
sg129
I0
sg126
I0
sg132
I0
sg608
(dp1427
g1350
I6
sg1351
I8
sg1352
I6
sg1353
I9
sg1358
I5
sg1356
I3
sg1355
I8
sg1357
I6
sg1354
I7
sg1359
I6
sg1360
I8
sg1361
I7
sg1362
I4
sg1363
I9
sg1364
I5
ssg133
g1349
sg135
I0
sg136
I0
sg137
I0
sg138
I0
sg139
I1
sg140
I0
sg141
I0
sg142
S'ARA'
p1428
sbsg628
(ijoueur
joueur
p1429
(dp1430
g27
I0
sg29
I0
sg31
g32
sg33
I0
sg34
g32
sg35
g36
(g37
g38
Ntp1431
Rp1432
(dp1433
g42
I4
sg43
S'x'
p1434
sg45
S'heros'
p1435
sbsg47
(dp1436
S'SR'
p1437
I0
sS'CT'
p1438
I0
sS'CR'
p1439
I0
sS'ST'
p1440
I0
ssg53
(dp1441
g1437
I0
sg1438
I0
sg1439
I0
sg1440
I0
ssg55
g32
sg56
I0
sg67
I00
sg58
I0
sg59
I0
sg60
I0
sg61
S'vide'
p1442
sg63
I01
sg64
g36
(g37
g38
Ntp1443
Rp1444
(dp1445
g42
I1
sg43
S'^'
p1446
sg45
S'base'
p1447
sbsg65
(dp1448
g1437
I0
sg1438
I0
sg1439
I0
sg1440
I0
ssg130
(dp1449
g1437
I0
sg1438
I0
sg1439
I0
sg1440
I0
ssg68
(dp1450
g1437
I0
sg1438
I0
sg1439
I0
sg1440
I0
ssg70
(dp1451
g1437
I0
sg1438
I0
sg1439
I0
sg1440
I0
ssg72
I0
sg73
I0
sg74
S'Har Hel'
p1452
sg76
I10
sg77
I0
sg78
I22
sg79
I5
sg80
(S'dummy'
p1453
S'TL'
p1454
S'PI'
p1455
g32
tp1456
sg85
g32
sg86
(dp1457
S'RP1'
p1458
I6
sS'ME'
p1459
I8
sS'RP2'
p1460
I6
sS'E'
p1461
I9
sS'P'
p1462
I5
sS'JP'
p1463
I3
sS'M'
p1464
I8
sS'RP_tot'
p1465
I6
sS'TO'
p1466
I7
sS'PA'
p1467
I6
sS'A'
p1468
I8
sS'R'
p1469
I7
sS'TB'
p1470
I4
sS'PL'
p1471
I9
sS'TA'
p1472
I5
ssg123
I0
sg28
I0
sg125
I0
sg127
I0
sg128
F7.709677419354839
sg129
I0
sg126
I0
sg132
I0
sg608
(dp1473
S'RP1'
p1474
I6
sS'ME'
p1475
I8
sS'RP2'
p1476
I6
sS'E'
p1477
I9
sS'P'
p1478
I5
sS'JP'
p1479
I3
sS'M'
p1480
I8
sS'RP_tot'
p1481
I6
sS'TO'
p1482
I7
sS'PA'
p1483
I6
sS'A'
p1484
I8
sS'R'
p1485
I7
sS'TB'
p1486
I4
sS'PL'
p1487
I9
sS'TA'
p1488
I5
ssg133
g1457
sg135
I0
sg136
I0
sg137
I0
sg138
I0
sg139
I1
sg140
I0
sg141
I0
sg142
S'ARA'
p1489
sbssg123
I0
sg28
I0
sg125
I0
sg127
I0
sg128
F9.32258064516129
sg129
I0
sg126
I0
sg132
I0
sg608
(dp1490
g1306
I6
sg1307
I8
sg1308
I6
sg1309
I9
sg1310
I5
sg1311
I3
sg1312
I8
sg1313
I6
sg1314
I7
sg1315
I6
sg1316
I8
sg1317
I7
sg1318
I4
sg1319
I9
sg1320
I5
ssg133
(dp1491
g1306
I9
sg1307
I9
sg1308
I8
sg1309
I10
sg1314
I9
sg1312
I9
sg1311
I5
sg1313
I10
sg1310
I6
sg1315
I8
sg1316
I10
sg1317
I7
sg1318
I6
sg1319
I12
sg1320
I6
ssg135
I0
sg687
(dp1492
sg136
I0
sg137
I0
sg138
I0
sg139
I4
sg140
I0
sg141
I0
sg142
S'ARA'
p1493
sbsS'n7'
p1494
g358
ssS'remplacements'
p1495
(dp1496
g766
S'n0'
p1497
sg818
g1497
sg891
g1497
sg945
g1497
sg966
g1497
sg1050
g1497
sg1103
g1497
ssb.