(iclub
compo
p0
(dp1
S'caracs_old'
p2
(dp3
S'A'
p4
F190.0
sS'ME'
p5
F105.5
sS'E'
p6
I220
sS'OplusAV'
p7
F96.0
sS'TO_off'
p8
F77.5
sS'OplusAR'
p9
F104.5
sS'M'
p10
F40.0
sS'JP'
p11
F108.0
sS'OmoinsAR'
p12
F97.5
sS'PA'
p13
F114.5
sS'TO_def'
p14
F70.0
sS'OmoinsAV'
p15
F78.0
sS'R'
p16
F227.5
ssS'totaux_old'
p17
(dp18
S'T2'
p19
F206.25
sS'T3'
p20
F110.0
sS'T1'
p21
F203.375
ssS'roles'
p22
(dp23
S'drop1'
p24
(ijoueur
joueur
p25
(dp26
S'rouges_total'
p27
I0
sS'drops_total'
p28
I0
sS'blessure'
p29
I0
sS'RG_max'
p30
(ijoueur
rang
p31
(dp32
S'type_nb'
p33
I6
sS'rang'
p34
S'***'
p35
sS'type'
p36
S'personnage'
p37
sbsS'MJ2_total'
p38
(dp39
S'SR'
p40
I0
sS'ST'
p41
I0
sS'CR'
p42
I0
sS'CT'
p43
I0
ssS'MJ3_total'
p44
(dp45
g40
I0
sg41
I0
sg42
I0
sg43
I0
ssS'drop_rates_total'
p46
I0
sS'drop_rates_saison'
p47
I0
sS'transformations'
p48
I0
sS'penalites'
p49
I0
sS'essais_saison'
p50
I1
sS'penalite_ratees_saison'
p51
I0
sS'transformations_saison'
p52
I0
sS'postes'
p53
(S'dummy'
p54
S'C1'
p55
S'AR'
p56
S'DO'
p57
tp58
sS'RG'
p59
(ijoueur
rang
p60
(dp61
g33
I6
sg34
S'***'
p62
sg36
g37
sbsS'MJ1'
p63
(dp64
g40
I0
sg41
I0
sg42
I0
sg43
I1
ssS'MJ2'
p65
(dp66
g40
I0
sg41
I0
sg42
I0
sg43
I0
ssS'MJ3'
p67
(dp68
g40
I0
sg41
I0
sg42
I0
sg43
I0
ssS'MJ1_total'
p69
(dp70
g40
I0
sg41
I0
sg42
I0
sg43
I1
ssS'penalites_total'
p71
I0
sS'penalites_saison'
p72
I0
sS'nom'
p73
S'Malus Darth'
p74
sS'C'
p75
I11
sS'transformations_total'
p76
I0
sS'D'
p77
I22
sS'VAL'
p78
I665
sS'club'
p79
S'ALT'
p80
sS'caracs'
p81
(dp82
S'A'
p83
I13
sS'ME'
p84
I6
sS'RP2'
p85
I10
sS'E'
p86
I11
sS'TO'
p87
I7
sS'RP1'
p88
I8
sS'JP'
p89
I10
sS'RP_tot'
p90
I11
sS'P'
p91
I10
sS'PA'
p92
I11
sS'M'
p93
I10
sS'R'
p94
I7
sS'TB'
p95
I10
sS'PL'
p96
I10
sS'TA'
p97
I4
ssS'fatigue'
p98
I2
sS'drop_ratees_total'
p99
I0
sS'blessures_total'
p100
I0
sS'XP'
p101
I0
sS'EV'
p102
F10.6
sS'penalite_ratees_total'
p103
I0
sS'drops'
p104
I0
sS'blessures_saison'
p105
I0
sS'jaunes_total'
p106
I0
sS'caracs_sans_fatigue'
p107
g82
sS'rouges_saison'
p108
I0
sS'anciens_clubs'
p109
S''
p110
sS'transformation_ratees_total'
p111
I0
sS'drops_saison'
p112
I0
sS'transformation_ratees_saison'
p113
I0
sS'MS'
p114
I68
sS'essais_total'
p115
I1
sS'jaunes_saison'
p116
I0
sS'ARM'
p117
S'EN'
p118
sbsS'SA_scd'
p119
(ijoueur
joueur
p120
(dp121
g27
I0
sg28
I0
sg29
I0
sg30
(ijoueur
rang
p122
(dp123
g33
I4
sg34
S'x'
p124
sg36
S'heros'
p125
sbsg38
(dp126
g40
I0
sg41
I0
sg42
I0
sg43
I1
ssg44
(dp127
g40
I0
sg41
I0
sg42
I0
sg43
I0
ssg46
I0
sg47
I0
sg48
I0
sg49
I0
sg50
I0
sg51
I0
sg52
I0
sg53
(g54
S'TA'
p128
S'PI'
p129
g110
tp130
sg59
(ijoueur
rang
p131
(dp132
g33
I4
sg34
S'x'
p133
sg36
g125
sbsg63
(dp134
g40
I0
sg41
I0
sg42
I0
sg43
I0
ssg65
(dp135
g40
I0
sg41
I0
sg42
I0
sg43
I1
ssg67
(dp136
g40
I0
sg41
I0
sg42
I0
sg43
I0
ssg69
(dp137
g40
I0
sg41
I0
sg42
I0
sg43
I0
ssg71
I0
sg72
I0
sg73
S'Naharx'
p138
sg75
I8
sg76
I0
sg77
I17
sg78
I288
sg79
g80
sg81
(dp139
g83
I11
sg84
I11
sg85
I8
sg86
I11
sg87
I9
sg88
I11
sg89
I4
sg90
I12
sg91
I5
sg92
I10
sg93
I7
sg94
I11
sg95
I2
sg96
I12
sg97
I9
ssg98
I4
sg99
I0
sg100
I0
sg101
I0
sg102
F10.827586206896552
sg103
I0
sg104
I0
sg105
I0
sg106
I0
sg107
g139
sg108
I0
sg109
S'PRG 11'
p140
sg111
I0
sg112
I0
sg113
I0
sg114
I28
sg115
I2
sg116
I0
sg117
S'CHS'
p141
sbsS'RJL'
p142
(ijoueur
joueur
p143
(dp144
g27
I0
sg28
I34
sg29
I0
sg30
(ijoueur
rang
p145
(dp146
g33
I5
sg34
S'**'
p147
sg36
S'seigneur'
p148
sbsg38
(dp149
g40
I0
sg41
I0
sg42
I0
sg43
I0
ssg44
(dp150
g40
I0
sg41
I0
sg42
I0
sg43
I0
ssg46
I0
sg47
I0
sg48
I139
sg49
I225
sg50
I0
sg51
I0
sg52
I2
sg53
(g54
S'DO'
p151
S'CE'
p152
S'AR'
p153
tp154
sg59
(ijoueur
rang
p155
(dp156
g33
I5
sg34
S'**'
p157
sg36
g148
sbsg63
(dp158
g40
I0
sg41
I0
sg42
I0
sg43
I1
ssg65
(dp159
g40
I0
sg41
I0
sg42
I0
sg43
I0
ssg67
(dp160
g40
I0
sg41
I0
sg42
I0
sg43
I0
ssg69
(dp161
g40
I0
sg41
I0
sg42
I0
sg43
I1
ssg71
I225
sg72
I1
sg73
S'Faenor'
p162
sg75
I4
sg76
I139
sg77
I15
sg78
I257
sg79
g80
sg81
(dp163
g83
I11
sg84
I3
sg85
I11
sg86
I13
sg87
I8
sg88
I7
sg89
I14
sg90
I11
sg91
I12
sg92
I13
sg93
I8
sg94
I5
sg95
I12
sg96
I13
sg97
I4
ssg98
I2
sg99
I0
sg100
I0
sg101
I0
sg102
F11.942857142857143
sg103
I0
sg104
I34
sg105
I0
sg106
I0
sg107
g163
sg108
I0
sg109
g110
sg111
I0
sg112
I0
sg113
I0
sg114
I16
sg115
I8
sg116
I0
sg117
S'ES'
p164
sbsS'cap'
p165
g143
sS'B4'
p166
g143
sS'RJC'
p167
g143
sS'B1'
p168
g143
sS'B2'
p169
g143
sS'B3'
p170
g143
sS'SA_pcp2'
p171
(ijoueur
joueur
p172
(dp173
g27
I0
sg28
I0
sg29
I0
sg30
(ijoueur
rang
p174
(dp175
g33
I1
sg34
S'^'
p176
sg36
S'base'
p177
sbsg38
(dp178
g40
I0
sg41
I0
sg42
I0
sg43
I0
ssg44
(dp179
g40
I0
sg41
I0
sg42
I0
sg43
I0
ssg46
I0
sg47
I0
sg48
I0
sg49
I0
sg50
I0
sg51
I0
sg52
I0
sg53
(g54
S'DL'
p180
g110
g110
tp181
sg59
(ijoueur
rang
p182
(dp183
g33
I1
sg34
S'^'
p184
sg36
g177
sbsg63
(dp185
g40
I0
sg41
I0
sg42
I0
sg43
I1
ssg65
(dp186
g40
I0
sg41
I0
sg42
I0
sg43
I0
ssg67
(dp187
g40
I0
sg41
I0
sg42
I0
sg43
I0
ssg69
(dp188
g40
I0
sg41
I0
sg42
I0
sg43
I1
ssg71
I0
sg72
I0
sg73
S'Sfoar'
p189
sg75
I4
sg76
I0
sg77
I16
sg78
I55
sg79
g80
sg81
(dp190
g83
I10
sg84
I10
sg85
I11
sg86
I13
sg87
I10
sg88
I6
sg89
I3
sg90
I11
sg91
I6
sg92
I8
sg93
I7
sg94
I12
sg95
I3
sg96
I9
sg97
I4
ssg98
I1
sg99
I0
sg100
I0
sg101
I0
sg102
F10.777777777777779
sg103
I0
sg104
I0
sg105
I0
sg106
I0
sg107
g190
sg108
I0
sg109
S'TO 8'
p191
sg111
I0
sg112
I0
sg113
I0
sg114
I5
sg115
I4
sg116
I0
sg117
S'CHS'
p192
sbsS'SA_pcp1'
p193
(ijoueur
joueur
p194
(dp195
g27
I0
sg28
I0
sg29
I0
sg30
(ijoueur
rang
p196
(dp197
g33
I4
sg34
S'x'
p198
sg36
g125
sbsg38
(dp199
g40
I0
sg41
I0
sg42
I0
sg43
I0
ssg44
(dp200
g40
I0
sg41
I0
sg42
I0
sg43
I0
ssg46
I0
sg47
I0
sg48
I0
sg49
I0
sg50
I0
sg51
I0
sg52
I0
sg53
(g54
S'TL'
p201
S'N8'
p202
g110
tp203
sg59
(ijoueur
rang
p204
(dp205
g33
I4
sg34
S'x'
p206
sg36
g125
sbsg63
(dp207
g40
I0
sg41
I0
sg42
I0
sg43
I1
ssg65
(dp208
g40
I0
sg41
I0
sg42
I0
sg43
I0
ssg67
(dp209
g40
I0
sg41
I0
sg42
I0
sg43
I0
ssg69
(dp210
g40
I0
sg41
I0
sg42
I0
sg43
I1
ssg71
I0
sg72
I0
sg73
S'Ryskort'
p211
sg75
I8
sg76
I0
sg77
I19
sg78
I150
sg79
g80
sg81
(dp212
g83
I9
sg84
I11
sg85
I8
sg86
I9
sg87
I11
sg88
I10
sg89
I3
sg90
I11
sg91
I6
sg92
I10
sg93
I9
sg94
I11
sg95
I6
sg96
I14
sg97
I6
ssg98
I4
sg99
I0
sg100
I0
sg101
I0
sg102
F10.973684210526315
sg103
I0
sg104
I0
sg105
I0
sg106
I0
sg107
g212
sg108
I0
sg109
S'KHR 11'
p213
sg111
I0
sg112
I0
sg113
I0
sg114
I23
sg115
I3
sg116
I0
sg117
S'CHS'
p214
sbsS'drop3'
p215
g143
sS'SA_remp1'
p216
(ijoueur
joueur
p217
(dp218
g27
I0
sg28
I0
sg29
I0
sg30
(ijoueur
rang
p219
(dp220
g33
I2
sg34
S'^^'
p221
sg36
S'special'
p222
sbsg38
(dp223
g40
I0
sg41
I0
sg42
I0
sg43
I0
ssg44
(dp224
g40
I0
sg41
I0
sg42
I0
sg43
I0
ssg46
I0
sg47
I0
sg48
I0
sg49
I0
sg50
I0
sg51
I0
sg52
I0
sg53
(g54
S'N8'
p225
S'PI'
p226
g110
tp227
sg59
(ijoueur
rang
p228
(dp229
g33
I4
sg34
S'x'
p230
sg36
g125
sbsg63
(dp231
g40
I0
sg41
I0
sg42
I1
sg43
I0
ssg65
(dp232
g40
I0
sg41
I0
sg42
I0
sg43
I0
ssg67
(dp233
g40
I0
sg41
I0
sg42
I0
sg43
I0
ssg69
(dp234
g40
I0
sg41
I0
sg42
I1
sg43
I0
ssg71
I0
sg72
I0
sg73
S'Burug'
p235
sg75
I2
sg76
I0
sg77
I14
sg78
I90
sg79
g80
sg81
(dp236
g83
I11
sg84
I10
sg85
I8
sg86
I9
sg87
I8
sg88
I12
sg89
I4
sg90
I13
sg91
I9
sg92
I10
sg93
I7
sg94
I10
sg95
I5
sg96
I10
sg97
I3
ssg98
I3
sg99
I0
sg100
I0
sg101
I0
sg102
F10.379310344827585
sg103
I0
sg104
I0
sg105
I0
sg106
I0
sg107
g236
sg108
I0
sg109
S'FS 8'
p237
sg111
I0
sg112
I0
sg113
I0
sg114
I9
sg115
I3
sg116
I0
sg117
S'O'
p238
sbsS'drop2'
p239
g143
sS'SA_remp2'
p240
(ijoueur
joueur
p241
(dp242
g27
I0
sg28
I0
sg29
I0
sg30
(ijoueur
rang
p243
(dp244
g33
I4
sg34
S'x'
p245
sg36
g125
sbsg38
(dp246
g40
I0
sg41
I0
sg42
I0
sg43
I0
ssg44
(dp247
g40
I0
sg41
I0
sg42
I0
sg43
I0
ssg46
I0
sg47
I0
sg48
I0
sg49
I0
sg50
I0
sg51
I0
sg52
I0
sg53
(g54
S'DL'
p248
S'N8'
p249
S'TL'
p250
tp251
sg59
(ijoueur
rang
p252
(dp253
g33
I4
sg34
S'x'
p254
sg36
g125
sbsg63
(dp255
g40
I0
sg41
I0
sg42
I0
sg43
I1
ssg65
(dp256
g40
I0
sg41
I0
sg42
I0
sg43
I0
ssg67
(dp257
g40
I0
sg41
I0
sg42
I0
sg43
I0
ssg69
(dp258
g40
I0
sg41
I0
sg42
I0
sg43
I1
ssg71
I0
sg72
I0
sg73
S'Kadraq'
p259
sg75
I4
sg76
I0
sg77
I17
sg78
I140
sg79
g80
sg81
(dp260
g83
I10
sg84
I14
sg85
I8
sg86
I10
sg87
I8
sg88
I11
sg89
I0
sg90
I12
sg91
I0
sg92
I6
sg93
I7
sg94
I12
sg95
I1
sg96
I11
sg97
I6
ssg98
I3
sg99
I0
sg100
I0
sg101
I0
sg102
F11.296296296296296
sg103
I0
sg104
I0
sg105
I0
sg106
I0
sg107
g260
sg108
I0
sg109
g110
sg111
I0
sg112
I0
sg113
I0
sg114
I23
sg115
I6
sg116
I0
sg117
S'HL'
p261
sbssS'totaux'
p262
(dp263
g19
I0
sg20
I0
sg21
I0
ssS'_compo_defaut_fatigue'
p264
Nsg81
(dp265
g4
I0
sg5
I0
sg6
I0
sg7
I0
sg8
I0
sg9
I0
sg10
I0
sg11
I0
sg12
I0
sg13
I0
sg14
I0
sg15
I0
sg16
I0
ssS'joueurs'
p266
(dp267
S'n12'
p268
g25
sS'n13'
p269
(ijoueur
joueur
p270
(dp271
g27
I0
sg28
I2
sg29
I0
sg30
(ijoueur
rang
p272
(dp273
g33
I4
sg34
S'x'
p274
sg36
g125
sbsg38
(dp275
g40
I0
sg41
I0
sg42
I0
sg43
I0
ssg44
(dp276
g40
I0
sg41
I0
sg42
I0
sg43
I0
ssg46
I0
sg47
I0
sg48
I18
sg49
I22
sg50
I0
sg51
I0
sg52
I0
sg53
(g54
S'C1'
p277
S'AR'
p278
S'AI'
p279
tp280
sg59
(ijoueur
rang
p281
(dp282
g33
I5
sg34
S'**'
p283
sg36
g148
sbsg63
(dp284
g40
I0
sg41
I0
sg42
I0
sg43
I1
ssg65
(dp285
g40
I0
sg41
I0
sg42
I0
sg43
I0
ssg67
(dp286
g40
I0
sg41
I0
sg42
I0
sg43
I0
ssg69
(dp287
g40
I0
sg41
I0
sg42
I0
sg43
I1
ssg71
I22
sg72
I0
sg73
S'Cathaen'
p288
sg75
I5
sg76
I18
sg77
I14
sg78
I250
sg79
g80
sg81
(dp289
g83
I12
sg84
I6
sg85
I7
sg86
I10
sg87
I10
sg88
I11
sg89
I8
sg90
I11
sg91
I9
sg92
I10
sg93
I9
sg94
I7
sg95
I11
sg96
I16
sg97
I5
ssg98
I4
sg99
I0
sg100
I0
sg101
I0
sg102
F10.90625
sg103
I0
sg104
I2
sg105
I0
sg106
I0
sg107
g289
sg108
I0
sg109
g110
sg111
I0
sg112
I0
sg113
I0
sg114
I28
sg115
I15
sg116
I0
sg117
S'CHS'
p290
sbsS'n10'
p291
g143
sS'n11'
p292
(ijoueur
joueur
p293
(dp294
g27
I0
sg28
I0
sg29
I0
sg30
(ijoueur
rang
p295
(dp296
g33
I5
sg34
S'**'
p297
sg36
g148
sbsg38
(dp298
g40
I0
sg41
I0
sg42
I0
sg43
I0
ssg44
(dp299
g40
I0
sg41
I0
sg42
I0
sg43
I0
ssg46
I0
sg47
I0
sg48
I0
sg49
I0
sg50
I0
sg51
I0
sg52
I0
sg53
(g54
S'AI'
p300
S'CE'
p301
g110
tp302
sg59
(ijoueur
rang
p303
(dp304
g33
I5
sg34
S'**'
p305
sg36
g148
sbsg63
(dp306
g40
I0
sg41
I0
sg42
I0
sg43
I1
ssg65
(dp307
g40
I0
sg41
I0
sg42
I0
sg43
I0
ssg67
(dp308
g40
I0
sg41
I0
sg42
I0
sg43
I0
ssg69
(dp309
g40
I0
sg41
I0
sg42
I0
sg43
I1
ssg71
I0
sg72
I0
sg73
S'Boersd'
p310
sg75
I5
sg76
I0
sg77
I15
sg78
I99
sg79
g80
sg81
(dp311
g83
I17
sg84
I5
sg85
I13
sg86
I11
sg87
I10
sg88
I9
sg89
I8
sg90
I15
sg91
I9
sg92
I10
sg93
I11
sg94
I10
sg95
I10
sg96
I13
sg97
I4
ssg98
I3
sg99
I0
sg100
I0
sg101
I0
sg102
F12.903225806451612
sg103
I0
sg104
I0
sg105
I0
sg106
I0
sg107
g311
sg108
I0
sg109
g110
sg111
I0
sg112
I0
sg113
I0
sg114
I16
sg115
I16
sg116
I0
sg117
S'S'
p312
sbsS'n16'
p313
(ijoueur
joueur
p314
(dp315
g27
I0
sg28
I0
sg29
I0
sg30
(ijoueur
rang
p316
(dp317
g33
I4
sg34
S'x'
p318
sg36
g125
sbsg38
(dp319
g40
I0
sg41
I0
sg42
I0
sg43
I0
ssg44
(dp320
g40
I0
sg41
I0
sg42
I0
sg43
I0
ssg46
I0
sg47
I0
sg48
I0
sg49
I0
sg50
I0
sg51
I0
sg52
I0
sg53
(g54
S'TA'
p321
S'PI'
p322
g110
tp323
sg59
(ijoueur
rang
p324
(dp325
g33
I4
sg34
S'x'
p326
sg36
g125
sbsg63
(dp327
g40
I0
sg41
I0
sg42
I1
sg43
I0
ssg65
(dp328
g40
I0
sg41
I0
sg42
I0
sg43
I0
ssg67
(dp329
g40
I0
sg41
I0
sg42
I0
sg43
I0
ssg69
(dp330
g40
I0
sg41
I0
sg42
I1
sg43
I0
ssg71
I0
sg72
I0
sg73
S'Ablett'
p331
sg75
I9
sg76
I0
sg77
I22
sg78
I83
sg79
g80
sg81
(dp332
g83
I7
sg84
I9
sg85
I7
sg86
I9
sg87
I6
sg88
I9
sg89
I4
sg90
I9
sg91
I5
sg92
I7
sg93
I9
sg94
I9
sg95
I2
sg96
I12
sg97
I8
ssg98
I2
sg99
I0
sg100
I0
sg101
I0
sg102
F9.068965517241379
sg103
I0
sg104
I0
sg105
I0
sg106
I0
sg107
g332
sg108
I0
sg109
g110
sg111
I0
sg112
I0
sg113
I0
sg114
I9
sg115
I0
sg116
I0
sg117
S'O'
p333
sbsS'n17'
p334
(ijoueur
joueur
p335
(dp336
g27
I0
sg28
I0
sg29
I0
sg30
(ijoueur
rang
p337
(dp338
g33
I1
sg34
S'^'
p339
sg36
g177
sbsg38
(dp340
g40
I0
sg41
I0
sg42
I0
sg43
I0
ssg44
(dp341
g40
I0
sg41
I0
sg42
I0
sg43
I0
ssg46
I0
sg47
I0
sg48
I0
sg49
I0
sg50
I0
sg51
I0
sg52
I0
sg53
(g54
S'PI'
p342
S'TL'
p343
S'TA'
p344
tp345
sg59
(ijoueur
rang
p346
(dp347
g33
I1
sg34
S'^'
p348
sg36
g177
sbsg63
(dp349
g40
I0
sg41
I0
sg42
I1
sg43
I0
ssg65
(dp350
g40
I0
sg41
I0
sg42
I0
sg43
I0
ssg67
(dp351
g40
I0
sg41
I0
sg42
I0
sg43
I0
ssg69
(dp352
g40
I0
sg41
I0
sg42
I1
sg43
I0
ssg71
I0
sg72
I0
sg73
S'Denen'
p353
sg75
I2
sg76
I0
sg77
I14
sg78
I20
sg79
g80
sg81
(dp354
g83
I6
sg84
I9
sg85
I6
sg86
I11
sg87
I6
sg88
I10
sg89
I2
sg90
I10
sg91
I3
sg92
I7
sg93
I6
sg94
I13
sg95
I4
sg96
I8
sg97
I8
ssg98
I2
sg99
I0
sg100
I0
sg101
I0
sg102
F9.777777777777779
sg103
I0
sg104
I0
sg105
I0
sg106
I0
sg107
g354
sg108
I0
sg109
S'DKF 10'
p355
sg111
I0
sg112
I0
sg113
I0
sg114
I2
sg115
I2
sg116
I0
sg117
S'N'
p356
sbsS'n14'
p357
(ijoueur
joueur
p358
(dp359
g27
I0
sg28
I0
sg29
I0
sg30
(ijoueur
rang
p360
(dp361
g33
I5
sg34
S'xx'
p362
sg36
g148
sbsg38
(dp363
g40
I0
sg41
I0
sg42
I0
sg43
I0
ssg44
(dp364
g40
I0
sg41
I0
sg42
I0
sg43
I0
ssg46
I0
sg47
I0
sg48
I0
sg49
I0
sg50
I0
sg51
I0
sg52
I0
sg53
(g54
S'AI'
p365
g110
g110
tp366
sg59
(ijoueur
rang
p367
(dp368
g33
I5
sg34
S'xx'
p369
sg36
g148
sbsg63
(dp370
g40
I0
sg41
I0
sg42
I0
sg43
I1
ssg65
(dp371
g40
I0
sg41
I0
sg42
I0
sg43
I0
ssg67
(dp372
g40
I0
sg41
I0
sg42
I0
sg43
I0
ssg69
(dp373
g40
I0
sg41
I0
sg42
I0
sg43
I1
ssg71
I0
sg72
I0
sg73
S'Hardt'
p374
sg75
I7
sg76
I0
sg77
I22
sg78
I161
sg79
g80
sg81
(dp375
g83
I11
sg84
I6
sg85
I9
sg86
I12
sg87
I8
sg88
I11
sg89
I9
sg90
I13
sg91
I9
sg92
I11
sg93
I9
sg94
I6
sg95
I9
sg96
I10
sg97
I5
ssg98
I4
sg99
I0
sg100
I0
sg101
I0
sg102
F10.774193548387096
sg103
I0
sg104
I0
sg105
I0
sg106
I0
sg107
g375
sg108
I0
sg109
g110
sg111
I0
sg112
I0
sg113
I0
sg114
I18
sg115
I4
sg116
I0
sg117
S'EMP'
p376
sbsS'n15'
p377
(ijoueur
joueur
p378
(dp379
g27
I0
sg28
I0
sg29
I0
sg30
(ijoueur
rang
p380
(dp381
g33
I4
sg34
S'*'
p382
sg36
g125
sbsg38
(dp383
g40
I0
sg41
I0
sg42
I0
sg43
I0
ssg44
(dp384
g40
I0
sg41
I0
sg42
I0
sg43
I1
ssg46
I0
sg47
I0
sg48
I0
sg49
I0
sg50
I0
sg51
I0
sg52
I0
sg53
(g54
S'C1'
p385
S'AI'
p386
S'AR'
p387
tp388
sg59
(ijoueur
rang
p389
(dp390
g33
I4
sg34
S'*'
p391
sg36
g125
sbsg63
(dp392
g40
I0
sg41
I0
sg42
I0
sg43
I0
ssg65
(dp393
g40
I0
sg41
I0
sg42
I0
sg43
I0
ssg67
(dp394
g40
I0
sg41
I0
sg42
I0
sg43
I1
ssg69
(dp395
g40
I0
sg41
I0
sg42
I0
sg43
I0
ssg71
I0
sg72
I0
sg73
S'Sdaehir'
p396
sg75
I7
sg76
I0
sg77
I23
sg78
I64
sg79
g80
sg81
(dp397
g83
I13
sg84
I5
sg85
I11
sg86
I9
sg87
I8
sg88
I9
sg89
I10
sg90
I13
sg91
I12
sg92
I12
sg93
I10
sg94
I5
sg95
I9
sg96
I13
sg97
I4
ssg98
I3
sg99
I0
sg100
I0
sg101
I0
sg102
F11.233333333333333
sg103
I0
sg104
I0
sg105
I0
sg106
I0
sg107
g397
sg108
I0
sg109
g110
sg111
I0
sg112
I0
sg113
I0
sg114
I6
sg115
I1
sg116
I0
sg117
S'ES'
p398
sbsS'n18'
p399
(ijoueur
joueur
p400
(dp401
g27
I0
sg28
I0
sg29
I0
sg30
(ijoueur
rang
p402
(dp403
g33
I5
sg34
S'xx'
p404
sg36
g148
sbsg38
(dp405
g40
I0
sg41
I0
sg42
I0
sg43
I0
ssg44
(dp406
g40
I0
sg41
I0
sg42
I0
sg43
I0
ssg46
I0
sg47
I0
sg48
I0
sg49
I0
sg50
I0
sg51
I0
sg52
I0
sg53
(g54
S'DL'
p407
S'TL'
p408
S'N8'
p409
tp410
sg59
(ijoueur
rang
p411
(dp412
g33
I5
sg34
S'xx'
p413
sg36
g148
sbsg63
(dp414
g40
I0
sg41
I0
sg42
I1
sg43
I0
ssg65
(dp415
g40
I0
sg41
I0
sg42
I0
sg43
I0
ssg67
(dp416
g40
I0
sg41
I0
sg42
I0
sg43
I0
ssg69
(dp417
g40
I0
sg41
I0
sg42
I1
sg43
I0
ssg71
I0
sg72
I0
sg73
S'Lassek'
p418
sg75
I8
sg76
I0
sg77
I15
sg78
I203
sg79
g80
sg81
(dp419
g83
I10
sg84
I9
sg85
I7
sg86
I11
sg87
I8
sg88
I12
sg89
I4
sg90
I12
sg91
I7
sg92
I8
sg93
I8
sg94
I9
sg95
I4
sg96
I13
sg97
I7
ssg98
I1
sg99
I0
sg100
I0
sg101
I0
sg102
F10.333333333333334
sg103
I0
sg104
I0
sg105
I0
sg106
I0
sg107
g419
sg108
I0
sg109
S'KH 10'
p420
sg111
I0
sg112
I0
sg113
I0
sg114
I18
sg115
I9
sg116
I0
sg117
S'N'
p421
sbsS'n19'
p422
g217
sS'n22'
p423
(ijoueur
joueur
p424
(dp425
g27
I0
sg28
I0
sg29
I0
sg30
(ijoueur
rang
p426
(dp427
g33
I4
sg34
S'*'
p428
sg36
g125
sbsg38
(dp429
g40
I0
sg41
I0
sg42
I0
sg43
I0
ssg44
(dp430
g40
I0
sg41
I0
sg42
I0
sg43
I0
ssg46
I0
sg47
I0
sg48
I0
sg49
I0
sg50
I0
sg51
I0
sg52
I0
sg53
(g54
S'AI'
p431
S'CE'
p432
g110
tp433
sg59
(ijoueur
rang
p434
(dp435
g33
I4
sg34
S'*'
p436
sg36
g125
sbsg63
(dp437
g40
I0
sg41
I0
sg42
I1
sg43
I0
ssg65
(dp438
g40
I0
sg41
I0
sg42
I0
sg43
I0
ssg67
(dp439
g40
I0
sg41
I0
sg42
I0
sg43
I0
ssg69
(dp440
g40
I0
sg41
I0
sg42
I1
sg43
I0
ssg71
I0
sg72
I0
sg73
S'Delelhors'
p441
sg75
I6
sg76
I0
sg77
I13
sg78
I101
sg79
g80
sg81
(dp442
g83
I13
sg84
I6
sg85
I10
sg86
I11
sg87
I5
sg88
I9
sg89
I7
sg90
I12
sg91
I5
sg92
I9
sg93
I10
sg94
I7
sg95
I7
sg96
I10
sg97
I4
ssg98
I2
sg99
I0
sg100
I0
sg101
I0
sg102
F10.64516129032258
sg103
I0
sg104
I0
sg105
I0
sg106
I0
sg107
g442
sg108
I0
sg109
S'KHR 10'
p443
sg111
I0
sg112
I0
sg113
I0
sg114
I13
sg115
I7
sg116
I0
sg117
S'B'
p444
sbsS'n21'
p445
(ijoueur
joueur
p446
(dp447
g27
I0
sg28
I6
sg29
I0
sg30
(ijoueur
rang
p448
(dp449
g33
I3
sg34
S'^^^'
p450
sg36
S'rare'
p451
sbsg38
(dp452
g40
I0
sg41
I0
sg42
I1
sg43
I0
ssg44
(dp453
g40
I0
sg41
I0
sg42
I0
sg43
I0
ssg46
I0
sg47
I0
sg48
I14
sg49
I24
sg50
I0
sg51
I0
sg52
I0
sg53
(g54
S'AR'
p454
S'DO'
p455
S'CE'
p456
tp457
sg59
(ijoueur
rang
p458
(dp459
g33
I3
sg34
S'^^^'
p460
sg36
g451
sbsg63
(dp461
g40
I0
sg41
I0
sg42
I0
sg43
I0
ssg65
(dp462
g40
I0
sg41
I0
sg42
I1
sg43
I0
ssg67
(dp463
g40
I0
sg41
I0
sg42
I0
sg43
I0
ssg69
(dp464
g40
I0
sg41
I0
sg42
I0
sg43
I0
ssg71
I24
sg72
I0
sg73
S'Eothenol'
p465
sg75
I3
sg76
I14
sg77
I10
sg78
I18
sg79
g80
sg81
(dp466
g83
I11
sg84
I3
sg85
I9
sg86
I12
sg87
I5
sg88
I6
sg89
I8
sg90
I9
sg91
I11
sg92
I8
sg93
I13
sg94
I6
sg95
I11
sg96
I10
sg97
I5
ssg98
I2
sg99
I0
sg100
I0
sg101
I0
sg102
F10.314285714285715
sg103
I0
sg104
I6
sg105
I0
sg106
I0
sg107
g466
sg108
I0
sg109
g110
sg111
I0
sg112
I0
sg113
I0
sg114
I3
sg115
I6
sg116
I0
sg117
S'ES'
p467
sbsS'n20'
p468
(ijoueur
joueur
p469
(dp470
g27
I0
sg28
I0
sg29
I0
sg30
(ijoueur
rang
p471
(dp472
g33
I4
sg34
S'x'
p473
sg36
g125
sbsg38
(dp474
g40
I0
sg41
I0
sg42
I0
sg43
I0
ssg44
(dp475
g40
I0
sg41
I0
sg42
I0
sg43
I0
ssg46
I0
sg47
I0
sg48
I0
sg49
I0
sg50
I0
sg51
I0
sg52
I0
sg53
(g54
S'DM'
p476
g110
g110
tp477
sg59
(ijoueur
rang
p478
(dp479
g33
I4
sg34
S'x'
p480
sg36
g125
sbsg63
(dp481
g40
I0
sg41
I0
sg42
I1
sg43
I0
ssg65
(dp482
g40
I0
sg41
I0
sg42
I0
sg43
I0
ssg67
(dp483
g40
I0
sg41
I0
sg42
I0
sg43
I0
ssg69
(dp484
g40
I0
sg41
I0
sg42
I1
sg43
I0
ssg71
I0
sg72
I0
sg73
S'Ryde'
p485
sg75
I3
sg76
I0
sg77
I11
sg78
I95
sg79
g80
sg81
(dp486
g83
I12
sg84
I6
sg85
I9
sg86
I8
sg87
I8
sg88
I8
sg89
I6
sg90
I10
sg91
I8
sg92
I13
sg93
I8
sg94
I7
sg95
I5
sg96
I11
sg97
I5
ssg98
I1
sg99
I0
sg100
I0
sg101
I0
sg102
F9.724137931034482
sg103
I0
sg104
I0
sg105
I0
sg106
I0
sg107
g486
sg108
I0
sg109
g110
sg111
I0
sg112
I0
sg113
I0
sg114
I13
sg115
I4
sg116
I0
sg117
S'CHS'
p487
sbsS'n8'
p488
(ijoueur
joueur
p489
(dp490
g27
I0
sg28
I0
sg29
I0
sg30
(ijoueur
rang
p491
(dp492
g33
I5
sg34
S'xx'
p493
sg36
g148
sbsg38
(dp494
g40
I0
sg41
I0
sg42
I0
sg43
I0
ssg44
(dp495
g40
I0
sg41
I0
sg42
I0
sg43
I0
ssg46
I0
sg47
I0
sg48
I0
sg49
I0
sg50
I0
sg51
I0
sg52
I0
sg53
(g54
S'N8'
p496
S'TL'
p497
g110
tp498
sg59
(ijoueur
rang
p499
(dp500
g33
I5
sg34
S'xx'
p501
sg36
g148
sbsg63
(dp502
g40
I0
sg41
I0
sg42
I0
sg43
I1
ssg65
(dp503
g40
I0
sg41
I0
sg42
I0
sg43
I0
ssg67
(dp504
g40
I0
sg41
I0
sg42
I0
sg43
I0
ssg69
(dp505
g40
I0
sg41
I0
sg42
I0
sg43
I1
ssg71
I0
sg72
I0
sg73
S'Utelg'
p506
sg75
I6
sg76
I0
sg77
I15
sg78
I100
sg79
g80
sg81
(dp507
g83
I9
sg84
I11
sg85
I8
sg86
I13
sg87
I8
sg88
I11
sg89
I5
sg90
I12
sg91
I4
sg92
I7
sg93
I6
sg94
I9
sg95
I3
sg96
I13
sg97
I4
ssg98
I5
sg99
I0
sg100
I0
sg101
I0
sg102
F10.793103448275861
sg103
I0
sg104
I0
sg105
I0
sg106
I0
sg107
g507
sg108
I0
sg109
S'BRB 9'
p508
sg111
I0
sg112
I0
sg113
I0
sg114
I11
sg115
I8
sg116
I0
sg117
S'O'
p509
sbsS'n9'
p510
(ijoueur
joueur
p511
(dp512
g27
I0
sg28
I2
sg29
I0
sg30
(ijoueur
rang
p513
(dp514
g33
I5
sg34
S'**'
p515
sg36
g148
sbsg38
(dp516
g40
I0
sg41
I0
sg42
I0
sg43
I0
ssg44
(dp517
g40
I0
sg41
I0
sg42
I0
sg43
I1
ssg46
I0
sg47
I0
sg48
I0
sg49
I0
sg50
I0
sg51
I0
sg52
I0
sg53
(g54
S'C1'
p518
S'AR'
p519
S'DM'
p520
tp521
sg59
(ijoueur
rang
p522
(dp523
g33
I5
sg34
S'**'
p524
sg36
g148
sbsg63
(dp525
g40
I0
sg41
I0
sg42
I0
sg43
I0
ssg65
(dp526
g40
I0
sg41
I0
sg42
I0
sg43
I0
ssg67
(dp527
g40
I0
sg41
I0
sg42
I0
sg43
I1
ssg69
(dp528
g40
I0
sg41
I0
sg42
I0
sg43
I0
ssg71
I0
sg72
I0
sg73
S'Katrouk'
p529
sg75
I6
sg76
I0
sg77
I17
sg78
I193
sg79
g80
sg81
(dp530
g83
I12
sg84
I7
sg85
I10
sg86
I12
sg87
I10
sg88
I10
sg89
I8
sg90
I13
sg91
I9
sg92
I13
sg93
I8
sg94
I7
sg95
I8
sg96
I11
sg97
I6
ssg98
I3
sg99
I0
sg100
I0
sg101
I0
sg102
F10.9
sg103
I0
sg104
I2
sg105
I0
sg106
I0
sg107
g530
sg108
I0
sg109
S'BRB 9'
p531
sg111
I0
sg112
I0
sg113
I0
sg114
I15
sg115
I6
sg116
I0
sg117
S'HB'
p532
sbsS'n1'
p533
(ijoueur
joueur
p534
(dp535
g27
I0
sg28
I0
sg29
I0
sg30
(ijoueur
rang
p536
(dp537
g33
I5
sg34
S'**'
p538
sg36
S'seigneur'
p539
sbsg38
(dp540
S'SR'
p541
I0
sS'CT'
p542
I0
sS'CR'
p543
I0
sS'ST'
p544
I0
ssg44
(dp545
g541
I0
sg542
I0
sg543
I0
sg544
I0
ssg46
I0
sg47
I0
sg48
I0
sg49
I0
sg50
I1
sg51
I0
sg52
I0
sg53
(g54
S'PI'
p546
g110
g110
tp547
sg59
(ijoueur
rang
p548
(dp549
g33
I5
sg34
S'**'
p550
sg36
g539
sbsg63
(dp551
g541
I0
sg542
I1
sg543
I0
sg544
I0
ssg65
(dp552
g541
I0
sg542
I0
sg543
I0
sg544
I0
ssg67
(dp553
g541
I0
sg542
I0
sg543
I0
sg544
I0
ssg69
(dp554
g541
I0
sg542
I1
sg543
I0
sg544
I0
ssg71
I0
sg72
I0
sg73
S"Haald'Ap"
p555
sg75
I8
sg76
I0
sg77
I20
sg78
I380
sg79
g80
sg81
(dp556
S'A'
p557
I8
sS'ME'
p558
I9
sS'RP2'
p559
I8
sS'E'
p560
I8
sS'P'
p561
I6
sS'RP1'
p562
I15
sS'JP'
p563
I5
sS'RP_tot'
p564
I16
sS'TO'
p565
I5
sS'PA'
p566
I6
sS'M'
p567
I6
sS'R'
p568
I13
sS'TB'
p569
I3
sS'PL'
p570
I8
sS'TA'
p571
I7
ssg98
I3
sg99
I0
sg100
I0
sg101
I0
sg102
F10.333333333333334
sg103
I0
sg104
I0
sg105
I0
sg106
I0
sg107
g556
sg108
I0
sg109
g110
sg111
I0
sg112
I0
sg113
I0
sg114
I36
sg115
I10
sg116
I0
sg117
S'HL'
p572
sbsS'n2'
p573
(ijoueur
joueur
p574
(dp575
g27
I0
sg28
I0
sg29
I0
sg30
(ijoueur
rang
p576
(dp577
g33
I5
sg34
S'**'
p578
sg36
g148
sbsg38
(dp579
g40
I0
sg41
I0
sg42
I0
sg43
I0
ssg44
(dp580
g40
I0
sg41
I0
sg42
I0
sg43
I0
ssg46
I0
sg47
I0
sg48
I0
sg49
I0
sg50
I0
sg51
I0
sg52
I0
sg53
(g54
S'TA'
p581
S'N8'
p582
g110
tp583
sg59
(ijoueur
rang
p584
(dp585
g33
I5
sg34
S'**'
p586
sg36
g148
sbsg63
(dp587
g40
I0
sg41
I0
sg42
I0
sg43
I1
ssg65
(dp588
g40
I0
sg41
I0
sg42
I0
sg43
I0
ssg67
(dp589
g40
I0
sg41
I0
sg42
I0
sg43
I0
ssg69
(dp590
g40
I0
sg41
I0
sg42
I0
sg43
I1
ssg71
I0
sg72
I0
sg73
S"Qyel'ak"
p591
sg75
I2
sg76
I0
sg77
I15
sg78
I203
sg79
g80
sg81
(dp592
g83
I9
sg84
I10
sg85
I7
sg86
I12
sg87
I6
sg88
I14
sg89
I6
sg90
I14
sg91
I5
sg92
I6
sg93
I7
sg94
I12
sg95
I3
sg96
I9
sg97
I11
ssg98
I3
sg99
I0
sg100
I0
sg101
I0
sg102
F10.931034482758621
sg103
I0
sg104
I0
sg105
I0
sg106
I0
sg107
g592
sg108
I0
sg109
S'ED 9'
p593
sg111
I0
sg112
I0
sg113
I0
sg114
I25
sg115
I6
sg116
I0
sg117
S'HL'
p594
sbsS'n3'
p595
g120
sS'n4'
p596
g241
sS'n5'
p597
g172
sS'n6'
p598
(ijoueur
joueur
p599
(dp600
g27
I0
sg28
I0
sg29
I0
sg30
(ijoueur
rang
p601
(dp602
g33
I4
sg34
S'x'
p603
sg36
g125
sbsg38
(dp604
g40
I0
sg41
I0
sg42
I0
sg43
I0
ssg44
(dp605
g40
I0
sg41
I0
sg42
I0
sg43
I0
ssg46
I0
sg47
I0
sg48
I0
sg49
I0
sg50
I0
sg51
I0
sg52
I0
sg53
(g54
S'TL'
p606
g110
g110
tp607
sg59
(ijoueur
rang
p608
(dp609
g33
I4
sg34
S'x'
p610
sg36
g125
sbsg63
(dp611
g40
I0
sg41
I0
sg42
I0
sg43
I1
ssg65
(dp612
g40
I0
sg41
I0
sg42
I0
sg43
I0
ssg67
(dp613
g40
I0
sg41
I0
sg42
I0
sg43
I0
ssg69
(dp614
g40
I0
sg41
I0
sg42
I0
sg43
I1
ssg71
I0
sg72
I0
sg73
S"Kuel'hel"
p615
sg75
I7
sg76
I0
sg77
I19
sg78
I120
sg79
g80
sg81
(dp616
g83
I7
sg84
I11
sg85
I7
sg86
I9
sg87
I8
sg88
I10
sg89
I0
sg90
I10
sg91
I2
sg92
I7
sg93
I7
sg94
I13
sg95
I0
sg96
I11
sg97
I7
ssg98
I2
sg99
I0
sg100
I0
sg101
I0
sg102
F10.419354838709678
sg103
I0
sg104
I0
sg105
I0
sg106
I0
sg107
g616
sg108
I0
sg109
g110
sg111
I0
sg112
I0
sg113
I0
sg114
I23
sg115
I5
sg116
I0
sg117
S'HL'
p617
sbsS'n7'
p618
g194
ssS'remplacements'
p619
(dp620
g313
S'n0'
p621
sg334
g621
sg399
g621
sg422
g621
sg423
g621
sg445
g621
sg468
g621
ssb.