(iclub
compo
p0
(dp1
S'caracs_old'
p2
(dp3
S'A'
p4
F146.5
sS'ME'
p5
F91.5
sS'E'
p6
I212
sS'OplusAV'
p7
F84.5
sS'TO_off'
p8
F114.5
sS'OplusAR'
p9
F66.0
sS'M'
p10
F49.5
sS'JP'
p11
F89.0
sS'OmoinsAR'
p12
F45.5
sS'PA'
p13
F87.5
sS'TO_def'
p14
F103.0
sS'OmoinsAV'
p15
F90.5
sS'R'
p16
F213.0
ssS'totaux_old'
p17
(dp18
S'T2'
p19
F161.5
sS'T3'
p20
F106.0
sS'T1'
p21
F206.625
ssS'roles'
p22
(dp23
S'drop1'
p24
(ijoueur
joueur
p25
(dp26
S'rouges_total'
p27
I0
sS'drops_total'
p28
I4
sS'blessure'
p29
I0
sS'RG_max'
p30
(ijoueur
rang
p31
(dp32
S'type_nb'
p33
I1
sS'rang'
p34
S'>'
p35
sS'type'
p36
S'base'
p37
sbsS'MJ2_total'
p38
(dp39
S'SR'
p40
I0
sS'CT'
p41
I0
sS'CR'
p42
I0
sS'ST'
p43
I0
ssS'MJ3_total'
p44
(dp45
g40
I0
sg41
I0
sg42
I0
sg43
I0
ssS'drop_rates_total'
p46
I0
sS'drop_rates_saison'
p47
I0
sS'essais_saison'
p48
I0
sS'penalite_ratees_saison'
p49
I0
sS'transformations_saison'
p50
I0
sS'postes'
p51
(S'dummy'
p52
S'C1'
p53
S'DO'
p54
S'DM'
p55
tp56
sS'RG'
p57
(ijoueur
rang
p58
(dp59
g33
I1
sg34
S'>'
p60
sg36
g37
sbsS'MJ1'
p61
(dp62
g40
I0
sg41
I5
sg42
I0
sg43
I0
ssS'MJ2'
p63
(dp64
g40
I0
sg41
I0
sg42
I0
sg43
I0
ssS'MJ3'
p65
(dp66
g40
I0
sg41
I0
sg42
I0
sg43
I0
ssS'MJ1_total'
p67
(dp68
g40
I0
sg41
I5
sg42
I0
sg43
I0
ssS'penalites_total'
p69
I0
sS'penalites_saison'
p70
I0
sS'nom'
p71
S'Cenredal'
p72
sS'C'
p73
I0
sS'transformations_total'
p74
I0
sS'D'
p75
I11
sS'VAL'
p76
I14
sS'club'
p77
S'BRB'
p78
sS'caracs'
p79
(dp80
S'A'
p81
I10
sS'ME'
p82
I3
sS'RP2'
p83
I7
sS'E'
p84
I10
sS'P'
p85
I12
sS'RP1'
p86
I6
sS'JP'
p87
I8
sS'RP_tot'
p88
I7
sS'TO'
p89
I4
sS'PA'
p90
I12
sS'M'
p91
I11
sS'R'
p92
I3
sS'TB'
p93
I6
sS'PL'
p94
I9
sS'TA'
p95
I7
ssS'fatigue'
p96
I3
sS'drop_ratees_total'
p97
I0
sS'blessures_total'
p98
I0
sS'XP'
p99
I0
sS'EV'
p100
F9.333333333333334
sS'penalite_ratees_total'
p101
I0
sS'blessures_saison'
p102
I0
sS'jaunes_total'
p103
I0
sS'caracs_sans_fatigue'
p104
g80
sS'rouges_saison'
p105
I0
sS'anciens_clubs'
p106
S'HTH 9'
p107
sS'transformation_ratees_total'
p108
I0
sS'drops_saison'
p109
I0
sS'transformation_ratees_saison'
p110
I0
sS'MS'
p111
I2
sS'essais_total'
p112
I3
sS'jaunes_saison'
p113
I0
sS'ARM'
p114
S'HE'
p115
sbsS'SA_scd'
p116
(ijoueur
joueur
p117
(dp118
g27
I0
sg28
I0
sg29
I0
sg30
(ijoueur
rang
p119
(dp120
g33
I5
sg34
S'**'
p121
sg36
S'seigneur'
p122
sbsg38
(dp123
g40
I0
sg41
I0
sg42
I0
sg43
I0
ssg44
(dp124
g40
I0
sg41
I0
sg42
I0
sg43
I0
ssg46
I0
sg47
I0
sg48
I1
sg49
I0
sg50
I0
sg51
(g52
S'N8'
p125
S'TL'
p126
S''
p127
tp128
sg57
(ijoueur
rang
p129
(dp130
g33
I5
sg34
S'**'
p131
sg36
g122
sbsg61
(dp132
g40
I0
sg41
I5
sg42
I0
sg43
I0
ssg63
(dp133
g40
I0
sg41
I0
sg42
I0
sg43
I0
ssg65
(dp134
g40
I0
sg41
I0
sg42
I0
sg43
I0
ssg67
(dp135
g40
I0
sg41
I5
sg42
I0
sg43
I0
ssg69
I0
sg70
I0
sg71
S'Woraed'
p136
sg73
I2
sg74
I0
sg75
I14
sg76
I210
sg77
g78
sg79
(dp137
g81
I16
sg82
I9
sg83
I10
sg84
I12
sg85
I6
sg86
I9
sg87
I6
sg88
I12
sg89
I11
sg90
I11
sg91
I9
sg92
I12
sg93
I6
sg94
I12
sg95
I6
ssg96
I5
sg97
I0
sg98
I0
sg99
I0
sg100
F11.96551724137931
sg101
I0
sg102
I0
sg103
I0
sg104
g137
sg105
I0
sg106
S'APA 9'
p138
sg108
I0
sg109
I0
sg110
I0
sg111
I13
sg112
I5
sg113
I0
sg114
S'EN'
p139
sbsS'RJL'
p140
(ijoueur
joueur
p141
(dp142
g27
I0
sg28
I28
sg29
I0
sg30
(ijoueur
rang
p143
(dp144
g33
I3
sg34
S'^^^'
p145
sg36
S'rare'
p146
sbsg38
(dp147
g40
I0
sg41
I0
sg42
I0
sg43
I0
ssg44
(dp148
g40
I0
sg41
I0
sg42
I0
sg43
I0
ssg46
I0
sg47
I0
sg48
I1
sg49
I0
sg50
I9
sg51
(g52
S'DO'
p149
g127
g127
tp150
sg57
(ijoueur
rang
p151
(dp152
g33
I3
sg34
S'^^^'
p153
sg36
g146
sbsg61
(dp154
g40
I0
sg41
I5
sg42
I0
sg43
I0
ssg63
(dp155
g40
I0
sg41
I0
sg42
I0
sg43
I0
ssg65
(dp156
g40
I0
sg41
I0
sg42
I0
sg43
I0
ssg67
(dp157
g40
I0
sg41
I5
sg42
I0
sg43
I0
ssg69
I239
sg70
I8
sg71
S'Hynien'
p158
sg73
I2
sg74
I148
sg75
I15
sg76
I50
sg77
g78
sg79
(dp159
g81
I7
sg82
I4
sg83
I7
sg84
I10
sg85
I12
sg86
I6
sg87
I12
sg88
I7
sg89
I5
sg90
I9
sg91
I8
sg92
I4
sg93
I11
sg94
I9
sg95
I3
ssg96
I3
sg97
I0
sg98
I0
sg99
I0
sg100
F9.514285714285714
sg101
I0
sg102
I0
sg103
I0
sg104
g159
sg105
I0
sg106
S'QNL 9'
p160
sg108
I1
sg109
I0
sg110
I1
sg111
I5
sg112
I3
sg113
I0
sg114
S'ES'
p161
sbsS'cap'
p162
g117
sS'B4'
p163
g141
sS'RJC'
p164
g141
sS'B1'
p165
g141
sS'B2'
p166
g141
sS'B3'
p167
g141
sS'SA_pcp2'
p168
(ijoueur
joueur
p169
(dp170
g27
I0
sg28
I0
sg29
I0
sg30
(ijoueur
rang
p171
(dp172
g33
I5
sg34
S'xx'
p173
sg36
g122
sbsg38
(dp174
g40
I0
sg41
I0
sg42
I0
sg43
I0
ssg44
(dp175
g40
I0
sg41
I0
sg42
I0
sg43
I0
ssg46
I0
sg47
I0
sg48
I1
sg49
I0
sg50
I0
sg51
(g52
S'DL'
p176
S'N8'
p177
g127
tp178
sg57
(ijoueur
rang
p179
(dp180
g33
I5
sg34
S'xx'
p181
sg36
g122
sbsg61
(dp182
g40
I0
sg41
I5
sg42
I0
sg43
I0
ssg63
(dp183
g40
I0
sg41
I0
sg42
I0
sg43
I0
ssg65
(dp184
g40
I0
sg41
I0
sg42
I0
sg43
I0
ssg67
(dp185
g40
I0
sg41
I5
sg42
I0
sg43
I0
ssg69
I0
sg70
I0
sg71
S'Houdeg'
p186
sg73
I6
sg74
I0
sg75
I14
sg76
I115
sg77
g78
sg79
(dp187
g81
I8
sg82
I9
sg83
I7
sg84
I11
sg85
I7
sg86
I11
sg87
I4
sg88
I11
sg89
I12
sg90
I7
sg91
I7
sg92
I10
sg93
I4
sg94
I12
sg95
I5
ssg96
I5
sg97
I0
sg98
I0
sg99
I0
sg100
F10.470588235294118
sg101
I0
sg102
I0
sg103
I0
sg104
g187
sg105
I0
sg106
g127
sg108
I0
sg109
I0
sg110
I0
sg111
I12
sg112
I2
sg113
I0
sg114
S'O'
p188
sbsS'SA_pcp1'
p189
(ijoueur
joueur
p190
(dp191
g27
I0
sg28
I0
sg29
I0
sg30
(ijoueur
rang
p192
(dp193
g33
I4
sg34
S'x'
p194
sg36
S'heros'
p195
sbsg38
(dp196
g40
I0
sg41
I5
sg42
I0
sg43
I0
ssg44
(dp197
g40
I0
sg41
I0
sg42
I0
sg43
I0
ssg46
I0
sg47
I0
sg48
I0
sg49
I0
sg50
I0
sg51
(g52
S'N8'
p198
S'TL'
p199
g127
tp200
sg57
(ijoueur
rang
p201
(dp202
g33
I4
sg34
S'x'
p203
sg36
g195
sbsg61
(dp204
g40
I0
sg41
I0
sg42
I0
sg43
I0
ssg63
(dp205
g40
I0
sg41
I5
sg42
I0
sg43
I0
ssg65
(dp206
g40
I0
sg41
I0
sg42
I0
sg43
I0
ssg67
(dp207
g40
I0
sg41
I0
sg42
I0
sg43
I0
ssg69
I0
sg70
I0
sg71
S'Jaexol'
p208
sg73
I6
sg74
I0
sg75
I14
sg76
I182
sg77
g78
sg79
(dp209
g81
I11
sg82
I10
sg83
I7
sg84
I11
sg85
I6
sg86
I9
sg87
I5
sg88
I9
sg89
I13
sg90
I11
sg91
I8
sg92
I11
sg93
I3
sg94
I12
sg95
I5
ssg96
I1
sg97
I0
sg98
I0
sg99
I0
sg100
F11.083333333333334
sg101
I0
sg102
I0
sg103
I1
sg104
g209
sg105
I0
sg106
S'APA 10'
p210
sg108
I0
sg109
I0
sg110
I0
sg111
I19
sg112
I2
sg113
I1
sg114
S'ES'
p211
sbsS'drop3'
p212
g141
sS'SA_remp1'
p213
(ijoueur
joueur
p214
(dp215
g27
I0
sg28
I0
sg29
I0
sg30
(ijoueur
rang
p216
(dp217
g33
I5
sg34
S'**'
p218
sg36
g122
sbsg38
(dp219
g40
I0
sg41
I0
sg42
I0
sg43
I0
ssg44
(dp220
g40
I0
sg41
I0
sg42
I0
sg43
I0
ssg46
I0
sg47
I0
sg48
I0
sg49
I0
sg50
I0
sg51
(g52
S'DL'
p221
g127
g127
tp222
sg57
(ijoueur
rang
p223
(dp224
g33
I4
sg34
S'x'
p225
sg36
g195
sbsg61
(dp226
g40
I0
sg41
I5
sg42
I0
sg43
I0
ssg63
(dp227
g40
I0
sg41
I0
sg42
I0
sg43
I0
ssg65
(dp228
g40
I0
sg41
I0
sg42
I0
sg43
I0
ssg67
(dp229
g40
I0
sg41
I5
sg42
I0
sg43
I0
ssg69
I0
sg70
I0
sg71
S'Lkadr'
p230
sg73
I10
sg74
I0
sg75
I22
sg76
I92
sg77
g78
sg79
(dp231
g81
I7
sg82
I8
sg83
I10
sg84
I10
sg85
I6
sg86
I11
sg87
I3
sg88
I14
sg89
I11
sg90
I7
sg91
I7
sg92
I9
sg93
I3
sg94
I12
sg95
I5
ssg96
I4
sg97
I0
sg98
I0
sg99
I0
sg100
F10.117647058823529
sg101
I0
sg102
I0
sg103
I0
sg104
g231
sg105
I0
sg106
g127
sg108
I0
sg109
I0
sg110
I0
sg111
I8
sg112
I0
sg113
I0
sg114
S'O'
p232
sbsS'drop2'
p233
g141
sS'SA_remp2'
p234
(ijoueur
joueur
p235
(dp236
g27
I0
sg28
I0
sg29
I0
sg30
(ijoueur
rang
p237
(dp238
g33
I5
sg34
S'**'
p239
sg36
g122
sbsg38
(dp240
g40
I0
sg41
I0
sg42
I0
sg43
I0
ssg44
(dp241
g40
I0
sg41
I0
sg42
I0
sg43
I0
ssg46
I0
sg47
I0
sg48
I0
sg49
I0
sg50
I0
sg51
(g52
S'TL'
p242
S'N8'
p243
g127
tp244
sg57
(ijoueur
rang
p245
(dp246
g33
I5
sg34
S'**'
p247
sg36
g122
sbsg61
(dp248
g40
I0
sg41
I5
sg42
I0
sg43
I0
ssg63
(dp249
g40
I0
sg41
I0
sg42
I0
sg43
I0
ssg65
(dp250
g40
I0
sg41
I0
sg42
I0
sg43
I0
ssg67
(dp251
g40
I0
sg41
I5
sg42
I0
sg43
I0
ssg69
I0
sg70
I0
sg71
S'Hougrap'
p252
sg73
I8
sg74
I0
sg75
I17
sg76
I200
sg77
g78
sg79
(dp253
g81
I11
sg82
I10
sg83
I8
sg84
I11
sg85
I5
sg86
I10
sg87
I6
sg88
I11
sg89
I10
sg90
I8
sg91
I9
sg92
I13
sg93
I6
sg94
I13
sg95
I4
ssg96
I6
sg97
I0
sg98
I0
sg99
I0
sg100
F11.67741935483871
sg101
I0
sg102
I0
sg103
I0
sg104
g253
sg105
I0
sg106
g127
sg108
I0
sg109
I0
sg110
I0
sg111
I20
sg112
I2
sg113
I0
sg114
S'OG'
p254
sbssS'totaux'
p255
(dp256
g19
I0
sg20
I0
sg21
I0
ssS'_compo_defaut_fatigue'
p257
Nsg79
(dp258
g4
I0
sg5
I0
sg6
I0
sg7
I0
sg8
I0
sg9
I0
sg10
I0
sg11
I0
sg12
I0
sg13
I0
sg14
I0
sg15
I0
sg16
I0
ssS'joueurs'
p259
(dp260
S'n12'
p261
g25
sS'n13'
p262
(ijoueur
joueur
p263
(dp264
g27
I0
sg28
I0
sg29
I0
sg30
(ijoueur
rang
p265
(dp266
g33
I5
sg34
S'**'
p267
sg36
g122
sbsg38
(dp268
g40
I0
sg41
I0
sg42
I0
sg43
I0
ssg44
(dp269
g40
I0
sg41
I0
sg42
I0
sg43
I0
ssg46
I0
sg47
I0
sg48
I4
sg49
I0
sg50
I0
sg51
(g52
S'C2'
p270
S'N8'
p271
g127
tp272
sg57
(ijoueur
rang
p273
(dp274
g33
I3
sg34
S'<<<'
p275
sg36
g146
sbsg61
(dp276
g40
I0
sg41
I5
sg42
I0
sg43
I0
ssg63
(dp277
g40
I0
sg41
I0
sg42
I0
sg43
I0
ssg65
(dp278
g40
I0
sg41
I0
sg42
I0
sg43
I0
ssg67
(dp279
g40
I0
sg41
I5
sg42
I0
sg43
I0
ssg69
I0
sg70
I0
sg71
S'Jrekopf'
p280
sg73
I11
sg74
I0
sg75
I20
sg76
I190
sg77
g78
sg79
(dp281
g81
I8
sg82
I8
sg83
I8
sg84
I11
sg85
I5
sg86
I13
sg87
I3
sg88
I14
sg89
I3
sg90
I7
sg91
I12
sg92
I11
sg93
I4
sg94
I9
sg95
I8
ssg96
I4
sg97
I0
sg98
I0
sg99
I0
sg100
F9.827586206896552
sg101
I0
sg102
I0
sg103
I0
sg104
g281
sg105
I0
sg106
g127
sg108
I0
sg109
I0
sg110
I0
sg111
I11
sg112
I4
sg113
I0
sg114
S'HB'
p282
sbsS'n10'
p283
g141
sS'n11'
p284
(ijoueur
joueur
p285
(dp286
g27
I0
sg28
I0
sg29
I0
sg30
(ijoueur
rang
p287
(dp288
g33
I5
sg34
S'xx'
p289
sg36
g122
sbsg38
(dp290
g40
I0
sg41
I0
sg42
I0
sg43
I0
ssg44
(dp291
g40
I0
sg41
I0
sg42
I0
sg43
I0
ssg46
I0
sg47
I0
sg48
I0
sg49
I0
sg50
I0
sg51
(g52
S'AI'
p292
g127
g127
tp293
sg57
(ijoueur
rang
p294
(dp295
g33
I5
sg34
S'xx'
p296
sg36
g122
sbsg61
(dp297
g40
I0
sg41
I4
sg42
I1
sg43
I0
ssg63
(dp298
g40
I0
sg41
I0
sg42
I0
sg43
I0
ssg65
(dp299
g40
I0
sg41
I0
sg42
I0
sg43
I0
ssg67
(dp300
g40
I0
sg41
I4
sg42
I1
sg43
I0
ssg69
I0
sg70
I0
sg71
S'Fzen'
p301
sg73
I1
sg74
I0
sg75
I13
sg76
I115
sg77
g78
sg79
(dp302
g81
I11
sg82
I6
sg83
I10
sg84
I10
sg85
I7
sg86
I13
sg87
I8
sg88
I16
sg89
I4
sg90
I7
sg91
I9
sg92
I9
sg93
I6
sg94
I9
sg95
I7
ssg96
I6
sg97
I0
sg98
I1
sg99
I0
sg100
F10.580645161290322
sg101
I0
sg102
I1
sg103
I0
sg104
g302
sg105
I0
sg106
g127
sg108
I0
sg109
I0
sg110
I0
sg111
I12
sg112
I1
sg113
I0
sg114
S'O'
p303
sbsS'n16'
p304
(ijoueur
joueur
p305
(dp306
g27
I0
sg28
I0
sg29
I0
sg30
(ijoueur
rang
p307
(dp308
g33
I4
sg34
S'x'
p309
sg36
g195
sbsg38
(dp310
g40
I0
sg41
I1
sg42
I0
sg43
I0
ssg44
(dp311
g40
I0
sg41
I0
sg42
I0
sg43
I0
ssg46
I0
sg47
I0
sg48
I2
sg49
I0
sg50
I0
sg51
(g52
S'TA'
p312
S'N8'
p313
g127
tp314
sg57
(ijoueur
rang
p315
(dp316
g33
I4
sg34
S'x'
p317
sg36
g195
sbsg61
(dp318
g40
I0
sg41
I1
sg42
I4
sg43
I0
ssg63
(dp319
g40
I0
sg41
I1
sg42
I0
sg43
I0
ssg65
(dp320
g40
I0
sg41
I0
sg42
I0
sg43
I0
ssg67
(dp321
g40
I0
sg41
I1
sg42
I4
sg43
I0
ssg69
I0
sg70
I0
sg71
S'Cloedl'
p322
sg73
I8
sg74
I0
sg75
I25
sg76
I135
sg77
g78
sg79
(dp323
g81
I7
sg82
I8
sg83
I9
sg84
I10
sg85
I1
sg86
I13
sg87
I1
sg88
I15
sg89
I4
sg90
I6
sg91
I9
sg92
I9
sg93
I1
sg94
I10
sg95
I12
ssg96
I6
sg97
I0
sg98
I0
sg99
I0
sg100
F10.172413793103448
sg101
I0
sg102
I0
sg103
I0
sg104
g323
sg105
I0
sg106
g127
sg108
I0
sg109
I0
sg110
I0
sg111
I14
sg112
I7
sg113
I0
sg114
S'HL'
p324
sbsS'n17'
p325
(ijoueur
joueur
p326
(dp327
g27
I0
sg28
I0
sg29
I0
sg30
(ijoueur
rang
p328
(dp329
g33
I5
sg34
S'**'
p330
sg36
g122
sbsg38
(dp331
g40
I0
sg41
I5
sg42
I1
sg43
I0
ssg44
(dp332
g40
I0
sg41
I0
sg42
I0
sg43
I0
ssg46
I0
sg47
I0
sg48
I0
sg49
I0
sg50
I0
sg51
(g52
S'DL'
p333
S'PI'
p334
S'N8'
p335
tp336
sg57
(ijoueur
rang
p337
(dp338
g33
I3
sg34
S'<<<'
p339
sg36
g146
sbsg61
(dp340
g40
I0
sg41
I0
sg42
I0
sg43
I0
ssg63
(dp341
g40
I0
sg41
I5
sg42
I1
sg43
I0
ssg65
(dp342
g40
I0
sg41
I0
sg42
I0
sg43
I0
ssg67
(dp343
g40
I0
sg41
I0
sg42
I0
sg43
I0
ssg69
I0
sg70
I0
sg71
S'Cledhr'
p344
sg73
I11
sg74
I0
sg75
I25
sg76
I120
sg77
g78
sg79
(dp345
g81
I8
sg82
I12
sg83
I7
sg84
I10
sg85
I2
sg86
I12
sg87
I0
sg88
I12
sg89
I7
sg90
I6
sg91
I10
sg92
I11
sg93
I1
sg94
I7
sg95
I7
ssg96
I8
sg97
I0
sg98
I0
sg99
I0
sg100
F10.11111111111111
sg101
I0
sg102
I0
sg103
I0
sg104
g345
sg105
I0
sg106
g127
sg108
I0
sg109
I0
sg110
I0
sg111
I21
sg112
I0
sg113
I0
sg114
S'HB'
p346
sbsS'n14'
p347
(ijoueur
joueur
p348
(dp349
g27
I0
sg28
I2
sg29
I0
sg30
(ijoueur
rang
p350
(dp351
g33
I4
sg34
S'x'
p352
sg36
g195
sbsg38
(dp353
g40
I0
sg41
I5
sg42
I0
sg43
I0
ssg44
(dp354
g40
I0
sg41
I0
sg42
I0
sg43
I0
ssg46
I0
sg47
I0
sg48
I0
sg49
I0
sg50
I0
sg51
(g52
S'AR'
p355
S'AI'
p356
g127
tp357
sg57
(ijoueur
rang
p358
(dp359
g33
I4
sg34
S'x'
p360
sg36
g195
sbsg61
(dp361
g40
I0
sg41
I0
sg42
I0
sg43
I0
ssg63
(dp362
g40
I0
sg41
I5
sg42
I0
sg43
I0
ssg65
(dp363
g40
I0
sg41
I0
sg42
I0
sg43
I0
ssg67
(dp364
g40
I0
sg41
I0
sg42
I0
sg43
I0
ssg69
I0
sg70
I0
sg71
S'Herden'
p365
sg73
I4
sg74
I0
sg75
I11
sg76
I65
sg77
g78
sg79
(dp366
g81
I10
sg82
I4
sg83
I8
sg84
I10
sg85
I8
sg86
I8
sg87
I4
sg88
I9
sg89
I6
sg90
I8
sg91
I10
sg92
I6
sg93
I6
sg94
I12
sg95
I7
ssg96
I4
sg97
I0
sg98
I0
sg99
I0
sg100
F9.424242424242424
sg101
I0
sg102
I0
sg103
I0
sg104
g366
sg105
I0
sg106
S'MRB 10'
p367
sg108
I0
sg109
I0
sg110
I0
sg111
I11
sg112
I10
sg113
I0
sg114
S'O'
p368
sbsS'n15'
p369
(ijoueur
joueur
p370
(dp371
g27
I0
sg28
I0
sg29
I0
sg30
(ijoueur
rang
p372
(dp373
g33
I1
sg34
S'^'
p374
sg36
g37
sbsg38
(dp375
g40
I0
sg41
I0
sg42
I0
sg43
I0
ssg44
(dp376
g40
I0
sg41
I0
sg42
I0
sg43
I0
ssg46
I0
sg47
I0
sg48
I0
sg49
I0
sg50
I0
sg51
(g52
S'AR'
p377
S'CE'
p378
S'DO'
p379
tp380
sg57
(ijoueur
rang
p381
(dp382
g33
I1
sg34
S'^'
p383
sg36
g37
sbsg61
(dp384
g40
I0
sg41
I5
sg42
I0
sg43
I0
ssg63
(dp385
g40
I0
sg41
I0
sg42
I0
sg43
I0
ssg65
(dp386
g40
I0
sg41
I0
sg42
I0
sg43
I0
ssg67
(dp387
g40
I0
sg41
I5
sg42
I0
sg43
I0
ssg69
I0
sg70
I0
sg71
S'Metheil'
p388
sg73
I1
sg74
I0
sg75
I10
sg76
I14
sg77
g78
sg79
(dp389
g81
I12
sg82
I5
sg83
I7
sg84
I10
sg85
I8
sg86
I6
sg87
I7
sg88
I7
sg89
I9
sg90
I9
sg91
I10
sg92
I5
sg93
I6
sg94
I8
sg95
I8
ssg96
I4
sg97
I0
sg98
I0
sg99
I0
sg100
F9.0
sg101
I0
sg102
I0
sg103
I0
sg104
g389
sg105
I0
sg106
S'HTH 9'
p390
sg108
I0
sg109
I0
sg110
I0
sg111
I2
sg112
I0
sg113
I0
sg114
S'HE'
p391
sbsS'n18'
p392
(ijoueur
joueur
p393
(dp394
g27
I0
sg28
I0
sg29
I0
sg30
(ijoueur
rang
p395
(dp396
g33
I5
sg34
S'**'
p397
sg36
g122
sbsg38
(dp398
g40
I0
sg41
I0
sg42
I0
sg43
I0
ssg44
(dp399
g40
I0
sg41
I0
sg42
I0
sg43
I0
ssg46
I0
sg47
I0
sg48
I0
sg49
I0
sg50
I0
sg51
(g52
S'DL'
p400
g127
g127
tp401
sg57
(ijoueur
rang
p402
(dp403
g33
I5
sg34
S'**'
p404
sg36
g122
sbsg61
(dp405
g40
I0
sg41
I0
sg42
I6
sg43
I0
ssg63
(dp406
g40
I0
sg41
I0
sg42
I0
sg43
I0
ssg65
(dp407
g40
I0
sg41
I0
sg42
I0
sg43
I0
ssg67
(dp408
g40
I0
sg41
I0
sg42
I6
sg43
I0
ssg69
I0
sg70
I0
sg71
S'Ykbiel'
p409
sg73
I5
sg74
I0
sg75
I17
sg76
I100
sg77
g78
sg79
(dp410
g81
I9
sg82
I10
sg83
I7
sg84
I11
sg85
I6
sg86
I11
sg87
I2
sg88
I11
sg89
I10
sg90
I8
sg91
I7
sg92
I8
sg93
I4
sg94
I10
sg95
I6
ssg96
I6
sg97
I0
sg98
I0
sg99
I0
sg100
F9.617647058823529
sg101
I0
sg102
I0
sg103
I0
sg104
g410
sg105
I0
sg106
g127
sg108
I0
sg109
I0
sg110
I0
sg111
I10
sg112
I2
sg113
I0
sg114
S'HB'
p411
sbsS'n19'
p412
(ijoueur
joueur
p413
(dp414
g27
I0
sg28
I0
sg29
I0
sg30
(ijoueur
rang
p415
(dp416
g33
I5
sg34
S'**'
p417
sg36
g122
sbsg38
(dp418
g40
I0
sg41
I0
sg42
I4
sg43
I0
ssg44
(dp419
g40
I0
sg41
I0
sg42
I0
sg43
I0
ssg46
I0
sg47
I0
sg48
I0
sg49
I0
sg50
I0
sg51
(g52
S'TL'
p420
S'N8'
p421
g127
tp422
sg57
(ijoueur
rang
p423
(dp424
g33
I5
sg34
S'**'
p425
sg36
g122
sbsg61
(dp426
g40
I0
sg41
I1
sg42
I1
sg43
I0
ssg63
(dp427
g40
I0
sg41
I0
sg42
I4
sg43
I0
ssg65
(dp428
g40
I0
sg41
I0
sg42
I0
sg43
I0
ssg67
(dp429
g40
I0
sg41
I1
sg42
I1
sg43
I0
ssg69
I0
sg70
I0
sg71
S'Nogr'
p430
sg73
I8
sg74
I0
sg75
I24
sg76
I155
sg77
g78
sg79
(dp431
g81
I10
sg82
I10
sg83
I6
sg84
I11
sg85
I7
sg86
I11
sg87
I4
sg88
I11
sg89
I8
sg90
I8
sg91
I11
sg92
I12
sg93
I4
sg94
I11
sg95
I4
ssg96
I8
sg97
I0
sg98
I0
sg99
I0
sg100
F11.03225806451613
sg101
I0
sg102
I0
sg103
I1
sg104
g431
sg105
I0
sg106
g127
sg108
I0
sg109
I0
sg110
I0
sg111
I16
sg112
I0
sg113
I1
sg114
S'HB'
p432
sbsS'n22'
p433
(ijoueur
joueur
p434
(dp435
g27
I0
sg28
I0
sg29
I0
sg30
(ijoueur
rang
p436
(dp437
g33
I4
sg34
S'*'
p438
sg36
g195
sbsg38
(dp439
g40
I0
sg41
I1
sg42
I3
sg43
I0
ssg44
(dp440
g40
I0
sg41
I0
sg42
I0
sg43
I0
ssg46
I0
sg47
I0
sg48
I1
sg49
I0
sg50
I0
sg51
(g52
S'C2'
p441
S'AI'
p442
g127
tp443
sg57
(ijoueur
rang
p444
(dp445
g33
I4
sg34
S'*'
p446
sg36
g195
sbsg61
(dp447
g40
I0
sg41
I1
sg42
I0
sg43
I0
ssg63
(dp448
g40
I0
sg41
I1
sg42
I3
sg43
I0
ssg65
(dp449
g40
I0
sg41
I0
sg42
I0
sg43
I0
ssg67
(dp450
g40
I0
sg41
I1
sg42
I0
sg43
I0
ssg69
I0
sg70
I0
sg71
S'Jlatar'
p451
sg73
I8
sg74
I0
sg75
I19
sg76
I60
sg77
g78
sg79
(dp452
g81
I10
sg82
I4
sg83
I12
sg84
I12
sg85
I8
sg86
I7
sg87
I6
sg88
I12
sg89
I6
sg90
I5
sg91
I9
sg92
I5
sg93
I8
sg94
I8
sg95
I6
ssg96
I3
sg97
I0
sg98
I0
sg99
I0
sg100
F8.931034482758621
sg101
I0
sg102
I0
sg103
I0
sg104
g452
sg105
I0
sg106
g127
sg108
I0
sg109
I0
sg110
I0
sg111
I6
sg112
I1
sg113
I0
sg114
S'CV'
p453
sbsS'n21'
p454
(ijoueur
joueur
p455
(dp456
g27
I0
sg28
I0
sg29
I0
sg30
(ijoueur
rang
p457
(dp458
g33
I4
sg34
S'*'
p459
sg36
g195
sbsg38
(dp460
g40
I0
sg41
I0
sg42
I0
sg43
I0
ssg44
(dp461
g40
I0
sg41
I0
sg42
I5
sg43
I0
ssg46
I0
sg47
I0
sg48
I0
sg49
I0
sg50
I0
sg51
(g52
S'DM'
p462
S'DO'
p463
S'CE'
p464
tp465
sg57
(ijoueur
rang
p466
(dp467
g33
I5
sg34
S'**'
p468
sg36
g122
sbsg61
(dp469
g40
I0
sg41
I1
sg42
I0
sg43
I0
ssg63
(dp470
g40
I0
sg41
I0
sg42
I0
sg43
I0
ssg65
(dp471
g40
I0
sg41
I0
sg42
I5
sg43
I0
ssg67
(dp472
g40
I0
sg41
I1
sg42
I0
sg43
I0
ssg69
I0
sg70
I0
sg71
S'Igharel'
p473
sg73
I5
sg74
I0
sg75
I17
sg76
I100
sg77
g78
sg79
(dp474
g81
I8
sg82
I5
sg83
I8
sg84
I10
sg85
I7
sg86
I8
sg87
I8
sg88
I9
sg89
I7
sg90
I11
sg91
I9
sg92
I6
sg93
I8
sg94
I10
sg95
I5
ssg96
I6
sg97
I0
sg98
I0
sg99
I0
sg100
F9.137931034482758
sg101
I0
sg102
I0
sg103
I0
sg104
g474
sg105
I0
sg106
g127
sg108
I0
sg109
I0
sg110
I0
sg111
I10
sg112
I0
sg113
I0
sg114
S'HB'
p475
sbsS'n20'
p476
(ijoueur
joueur
p477
(dp478
g27
I0
sg28
I7
sg29
I0
sg30
(ijoueur
rang
p479
(dp480
g33
I4
sg34
S'*'
p481
sg36
g195
sbsg38
(dp482
g40
I0
sg41
I0
sg42
I3
sg43
I0
ssg44
(dp483
g40
I0
sg41
I0
sg42
I0
sg43
I0
ssg46
I0
sg47
I0
sg48
I0
sg49
I0
sg50
I0
sg51
(g52
S'DO'
p484
S'DM'
p485
g127
tp486
sg57
(ijoueur
rang
p487
(dp488
g33
I4
sg34
S'*'
p489
sg36
g195
sbsg61
(dp490
g40
I0
sg41
I1
sg42
I1
sg43
I0
ssg63
(dp491
g40
I0
sg41
I0
sg42
I3
sg43
I0
ssg65
(dp492
g40
I0
sg41
I0
sg42
I0
sg43
I0
ssg67
(dp493
g40
I0
sg41
I1
sg42
I1
sg43
I0
ssg69
I2
sg70
I0
sg71
S'Csestich'
p494
sg73
I8
sg74
I1
sg75
I20
sg76
I70
sg77
g78
sg79
(dp495
g81
I13
sg82
I2
sg83
I6
sg84
I8
sg85
I10
sg86
I6
sg87
I8
sg88
I6
sg89
I7
sg90
I11
sg91
I8
sg92
I7
sg93
I8
sg94
I8
sg95
I4
ssg96
I4
sg97
I0
sg98
I0
sg99
I0
sg100
F9.0
sg101
I0
sg102
I0
sg103
I0
sg104
g495
sg105
I0
sg106
g127
sg108
I0
sg109
I0
sg110
I0
sg111
I7
sg112
I0
sg113
I0
sg114
S'S'
p496
sbsS'n8'
p497
g117
sS'n9'
p498
(ijoueur
joueur
p499
(dp500
g27
I0
sg28
I0
sg29
I0
sg30
(ijoueur
rang
p501
(dp502
g33
I5
sg34
S'xx'
p503
sg36
g122
sbsg38
(dp504
g40
I0
sg41
I0
sg42
I0
sg43
I0
ssg44
(dp505
g40
I0
sg41
I0
sg42
I0
sg43
I0
ssg46
I0
sg47
I0
sg48
I0
sg49
I0
sg50
I0
sg51
(g52
S'DM'
p506
g127
g127
tp507
sg57
(ijoueur
rang
p508
(dp509
g33
I5
sg34
S'xx'
p510
sg36
g122
sbsg61
(dp511
g40
I0
sg41
I5
sg42
I0
sg43
I0
ssg63
(dp512
g40
I0
sg41
I0
sg42
I0
sg43
I0
ssg65
(dp513
g40
I0
sg41
I0
sg42
I0
sg43
I0
ssg67
(dp514
g40
I0
sg41
I5
sg42
I0
sg43
I0
ssg69
I2
sg70
I0
sg71
S'Glatar'
p515
sg73
I6
sg74
I1
sg75
I16
sg76
I115
sg77
g78
sg79
(dp516
g81
I9
sg82
I6
sg83
I8
sg84
I11
sg85
I9
sg86
I8
sg87
I8
sg88
I9
sg89
I6
sg90
I13
sg91
I10
sg92
I8
sg93
I8
sg94
I10
sg95
I6
ssg96
I9
sg97
I0
sg98
I0
sg99
I0
sg100
F10.172413793103448
sg101
I0
sg102
I0
sg103
I0
sg104
g516
sg105
I0
sg106
g127
sg108
I0
sg109
I0
sg110
I0
sg111
I12
sg112
I2
sg113
I0
sg114
S'O'
p517
sbsS'n1'
p518
(ijoueur
joueur
p519
(dp520
g27
I0
sg28
I0
sg29
I0
sg30
(ijoueur
rang
p521
(dp522
g33
I5
sg34
S'**'
p523
sg36
S'seigneur'
p524
sbsg38
(dp525
S'SR'
p526
I0
sS'ST'
p527
I0
sS'CR'
p528
I0
sS'CT'
p529
I0
ssg44
(dp530
g526
I0
sg527
I0
sg528
I0
sg529
I0
ssg46
I0
sg47
I0
sg48
I0
sg49
I0
sg50
I0
sg51
(g52
S'PI'
p531
S'TL'
p532
S'N8'
p533
tp534
sg57
(ijoueur
rang
p535
(dp536
g33
I5
sg34
S'**'
p537
sg36
g524
sbsg61
(dp538
g526
I0
sg527
I0
sg528
I0
sg529
I1
ssg63
(dp539
g526
I0
sg527
I0
sg528
I0
sg529
I0
ssg65
(dp540
g526
I0
sg527
I0
sg528
I0
sg529
I0
ssg67
(dp541
g526
I0
sg527
I0
sg528
I0
sg529
I1
ssg69
I0
sg70
I0
sg71
S'Patassenh'
p542
sg73
I1
sg74
I0
sg75
I16
sg76
I100
sg77
g78
sg79
(dp543
S'A'
p544
I9
sS'ME'
p545
I7
sS'RP2'
p546
I7
sS'E'
p547
I12
sS'TO'
p548
I8
sS'RP1'
p549
I11
sS'JP'
p550
I5
sS'RP_tot'
p551
I11
sS'P'
p552
I5
sS'PA'
p553
I9
sS'M'
p554
I7
sS'R'
p555
I12
sS'TB'
p556
I5
sS'PL'
p557
I10
sS'TA'
p558
I8
ssg96
I0
sg97
I0
sg98
I1
sg99
I0
sg100
F10.11111111111111
sg101
I0
sg102
I1
sg103
I0
sg104
g543
sg105
I0
sg106
g127
sg108
I0
sg109
I0
sg110
I0
sg111
I10
sg112
I8
sg113
I0
sg114
S'HB'
p559
sbsS'n2'
p560
(ijoueur
joueur
p561
(dp562
g27
I0
sg28
I0
sg29
I0
sg30
(ijoueur
rang
p563
(dp564
g33
I5
sg34
S'xx'
p565
sg36
g122
sbsg38
(dp566
g40
I0
sg41
I0
sg42
I0
sg43
I0
ssg44
(dp567
g40
I0
sg41
I0
sg42
I0
sg43
I0
ssg46
I0
sg47
I0
sg48
I0
sg49
I0
sg50
I0
sg51
(g52
S'TA'
p568
g127
g127
tp569
sg57
(ijoueur
rang
p570
(dp571
g33
I5
sg34
S'xx'
p572
sg36
g122
sbsg61
(dp573
g40
I0
sg41
I5
sg42
I0
sg43
I0
ssg63
(dp574
g40
I0
sg41
I0
sg42
I0
sg43
I0
ssg65
(dp575
g40
I0
sg41
I0
sg42
I0
sg43
I0
ssg67
(dp576
g40
I0
sg41
I5
sg42
I0
sg43
I0
ssg69
I0
sg70
I0
sg71
S'Xug'
p577
sg73
I8
sg74
I0
sg75
I24
sg76
I115
sg77
g78
sg79
(dp578
g81
I9
sg82
I11
sg83
I7
sg84
I9
sg85
I5
sg86
I9
sg87
I3
sg88
I9
sg89
I7
sg90
I7
sg91
I10
sg92
I10
sg93
I4
sg94
I13
sg95
I13
ssg96
I10
sg97
I0
sg98
I0
sg99
I0
sg100
F10.482758620689655
sg101
I0
sg102
I0
sg103
I0
sg104
g578
sg105
I0
sg106
g127
sg108
I0
sg109
I0
sg110
I0
sg111
I12
sg112
I1
sg113
I0
sg114
S'O'
p579
sbsS'n3'
p580
(ijoueur
joueur
p581
(dp582
g27
I0
sg28
I0
sg29
I0
sg30
(ijoueur
rang
p583
(dp584
g33
I4
sg34
S'*'
p585
sg36
g195
sbsg38
(dp586
g40
I0
sg41
I0
sg42
I0
sg43
I0
ssg44
(dp587
g40
I0
sg41
I0
sg42
I0
sg43
I0
ssg46
I0
sg47
I0
sg48
I1
sg49
I0
sg50
I0
sg51
(g52
S'PI'
p588
S'TA'
p589
g127
tp590
sg57
(ijoueur
rang
p591
(dp592
g33
I3
sg34
S'<<<'
p593
sg36
g146
sbsg61
(dp594
g40
I0
sg41
I5
sg42
I0
sg43
I0
ssg63
(dp595
g40
I0
sg41
I0
sg42
I0
sg43
I0
ssg65
(dp596
g40
I0
sg41
I0
sg42
I0
sg43
I0
ssg67
(dp597
g40
I0
sg41
I5
sg42
I0
sg43
I0
ssg69
I0
sg70
I0
sg71
S'Trivyzgh'
p598
sg73
I11
sg74
I0
sg75
I24
sg76
I180
sg77
g78
sg79
(dp599
g81
I6
sg82
I11
sg83
I7
sg84
I11
sg85
I1
sg86
I12
sg87
I0
sg88
I12
sg89
I5
sg90
I6
sg91
I12
sg92
I11
sg93
I0
sg94
I10
sg95
I9
ssg96
I3
sg97
I0
sg98
I0
sg99
I0
sg100
F10.481481481481481
sg101
I0
sg102
I0
sg103
I0
sg104
g599
sg105
I0
sg106
g127
sg108
I0
sg109
I0
sg110
I0
sg111
I11
sg112
I1
sg113
I0
sg114
S'HB'
p600
sbsS'n4'
p601
g214
sS'n5'
p602
g169
sS'n6'
p603
g235
sS'n7'
p604
g190
ssS'remplacements'
p605
(dp606
g304
S'n0'
p607
sg325
g607
sg392
g607
sg412
g607
sg433
g607
sg454
g607
sg476
g607
ssb.