(iclub
compo
p0
(dp1
S'caracs_old'
p2
(dp3
S'A'
p4
F205.0
sS'ME'
p5
F107.5
sS'E'
p6
I218
sS'OplusAV'
p7
F92.0
sS'TO_off'
p8
F109.0
sS'OplusAR'
p9
F95.5
sS'M'
p10
F69.0
sS'JP'
p11
F107.0
sS'OmoinsAR'
p12
F101.0
sS'PA'
p13
F146.5
sS'TO_def'
p14
F99.0
sS'OmoinsAV'
p15
F65.5
sS'R'
p16
F195.0
ssS'totaux_old'
p17
(dp18
S'T2'
p19
F229.25
sS'T3'
p20
F109.0
sS'T1'
p21
F203.25
ssS'roles'
p22
(dp23
S'drop1'
p24
(ijoueur
joueur
p25
(dp26
S'rouges_total'
p27
I0
sS'drops_total'
p28
I16
sS'blessure'
p29
I0
sS'RG_max'
p30
(ijoueur
rang
p31
(dp32
S'type_nb'
p33
I4
sS'rang'
p34
S'x'
p35
sS'type'
p36
S'heros'
p37
sbsS'MJ2_total'
p38
(dp39
S'SR'
p40
I0
sS'ST'
p41
I0
sS'CR'
p42
I0
sS'CT'
p43
I0
ssS'MJ3_total'
p44
(dp45
g40
I0
sg41
I0
sg42
I0
sg43
I0
ssS'anciens_clubs'
p46
S''
p47
sS'drop_rates_saison'
p48
I0
sS'essais_saison'
p49
I0
sS'penalite_ratees_saison'
p50
I0
sS'transformations_saison'
p51
I0
sS'postes'
p52
(S'dummy'
p53
S'AI'
p54
S'AR'
p55
S'CE'
p56
tp57
sS'RG'
p58
(ijoueur
rang
p59
(dp60
g33
I4
sg34
g35
sg36
g37
sbsS'MJ1'
p61
(dp62
g40
I0
sg41
I0
sg42
I0
sg43
I0
ssS'MJ2'
p63
(dp64
g40
I0
sg41
I0
sg42
I0
sg43
I0
ssS'MJ3'
p65
(dp66
g40
I0
sg41
I0
sg42
I0
sg43
I0
ssS'MJ1_total'
p67
(dp68
g40
I0
sg41
I0
sg42
I0
sg43
I0
ssS'penalites_total'
p69
I216
sS'penalites_saison'
p70
I0
sS'nom'
p71
S'Nenoel'
p72
sS'C'
p73
I5
sS'transformations_total'
p74
I179
sS'D'
p75
I15
sS'VAL'
p76
I250
sS'club'
p77
S'SN'
p78
sS'caracs'
p79
(dp80
S'A'
p81
I14
sS'ME'
p82
I4
sS'RP2'
p83
I8
sS'E'
p84
I10
sS'TO'
p85
I12
sS'RP1'
p86
I8
sS'JP'
p87
I11
sS'RP_tot'
p88
I9
sS'P'
p89
I12
sS'PA'
p90
I14
sS'M'
p91
I11
sS'R'
p92
I3
sS'TB'
p93
I12
sS'PL'
p94
I13
sS'TA'
p95
I5
ssS'fatigue'
p96
I0
sS'drop_ratees_total'
p97
I0
sS'blessures_total'
p98
I0
sS'XP'
p99
I0
sS'EV'
p100
F11.424242424242424
sS'penalite_ratees_total'
p101
I0
sS'blessures_saison'
p102
I0
sS'jaunes_total'
p103
I0
sS'caracs_sans_fatigue'
p104
g80
sS'rouges_saison'
p105
I0
sS'transformation_ratees_total'
p106
I0
sS'drops_saison'
p107
I0
sS'transformation_ratees_saison'
p108
I0
sS'MS'
p109
I25
sS'essais_total'
p110
I28
sS'jaunes_saison'
p111
I0
sS'ARM'
p112
S'EN'
p113
sbsS'SA_scd'
p114
(ijoueur
joueur
p115
(dp116
g27
I0
sg28
I0
sg29
I0
sg30
(ijoueur
rang
p117
(dp118
g33
I4
sg34
S'*'
p119
sg36
g37
sbsg38
(dp120
g40
I0
sg41
I0
sg42
I0
sg43
I0
ssg44
(dp121
g40
I0
sg41
I0
sg42
I0
sg43
I0
ssg46
S'PRG10'
p122
sg48
I0
sg49
I0
sg50
I0
sg51
I0
sg52
(g53
S'DL'
p123
S'TL'
p124
g47
tp125
sg58
(ijoueur
rang
p126
(dp127
g33
I4
sg34
g119
sg36
g37
sbsg61
(dp128
g40
I0
sg41
I0
sg42
I0
sg43
I0
ssg63
(dp129
g40
I0
sg41
I0
sg42
I0
sg43
I0
ssg65
(dp130
g40
I0
sg41
I0
sg42
I0
sg43
I0
ssg67
(dp131
g40
I0
sg41
I0
sg42
I0
sg43
I0
ssg69
I0
sg70
I0
sg71
S'Remod'
p132
sg73
I8
sg74
I0
sg75
I20
sg76
I99
sg77
g78
sg79
(dp133
g81
I12
sg82
I8
sg83
I9
sg84
I9
sg85
I11
sg86
I9
sg87
I5
sg88
I11
sg89
I6
sg90
I10
sg91
I8
sg92
I11
sg93
I5
sg94
I9
sg95
I7
ssg96
I0
sg97
I0
sg98
I0
sg99
I0
sg100
F10.117647058823529
sg101
I0
sg102
I0
sg103
I0
sg104
g133
sg105
I0
sg106
I0
sg107
I0
sg108
I0
sg109
I7
sg110
I0
sg111
I0
sg112
S'EMP'
p134
sbsS'RJL'
p135
g25
sS'cap'
p136
(ijoueur
joueur
p137
(dp138
g27
I0
sg28
I0
sg29
I0
sg30
(ijoueur
rang
p139
(dp140
g33
I5
sg34
S'xx'
p141
sg36
S'seigneur'
p142
sbsg38
(dp143
g40
I0
sg41
I0
sg42
I0
sg43
I0
ssg44
(dp144
g40
I0
sg41
I0
sg42
I0
sg43
I0
ssg46
S'TA9'
p145
sg48
I0
sg49
I0
sg50
I0
sg51
I0
sg52
(g53
S'AI'
p146
S'CE'
p147
S'AR'
p148
tp149
sg58
(ijoueur
rang
p150
(dp151
g33
I5
sg34
S'xx'
p152
sg36
g142
sbsg61
(dp153
g40
I0
sg41
I0
sg42
I0
sg43
I0
ssg63
(dp154
g40
I0
sg41
I0
sg42
I0
sg43
I0
ssg65
(dp155
g40
I0
sg41
I0
sg42
I0
sg43
I0
ssg67
(dp156
g40
I0
sg41
I0
sg42
I0
sg43
I0
ssg69
I0
sg70
I0
sg71
S'Drask'
p157
sg73
I7
sg74
I0
sg75
I17
sg76
I1564
sg77
g78
sg79
(dp158
g81
I16
sg82
I6
sg83
I11
sg84
I13
sg85
I10
sg86
I11
sg87
I8
sg88
I15
sg89
I9
sg90
I13
sg91
I14
sg92
I9
sg93
I9
sg94
I14
sg95
I8
ssg96
I0
sg97
I0
sg98
I0
sg99
I0
sg100
F13.838709677419354
sg101
I0
sg102
I0
sg103
I0
sg104
g158
sg105
I0
sg106
I0
sg107
I0
sg108
I0
sg109
I174
sg110
I15
sg111
I0
sg112
S'S'
p159
sbsS'B4'
p160
g25
sS'RJC'
p161
(ijoueur
joueur
p162
(dp163
g27
I0
sg28
I13
sg29
I0
sg30
(ijoueur
rang
p164
(dp165
g33
I5
sg34
S'**'
p166
sg36
g142
sbsg38
(dp167
g40
I0
sg41
I0
sg42
I0
sg43
I0
ssg44
(dp168
g40
I0
sg41
I0
sg42
I0
sg43
I0
ssg46
S'MDL8'
p169
sg48
I0
sg49
I0
sg50
I0
sg51
I0
sg52
(g53
S'DO'
p170
S'DM'
p171
S'DL'
p172
tp173
sg58
(ijoueur
rang
p174
(dp175
g33
I5
sg34
S'**'
p176
sg36
g142
sbsg61
(dp177
g40
I0
sg41
I0
sg42
I0
sg43
I0
ssg63
(dp178
g40
I0
sg41
I0
sg42
I0
sg43
I0
ssg65
(dp179
g40
I0
sg41
I0
sg42
I0
sg43
I0
ssg67
(dp180
g40
I0
sg41
I0
sg42
I0
sg43
I0
ssg69
I0
sg70
I0
sg71
S'Laoten'
p181
sg73
I5
sg74
I0
sg75
I13
sg76
I419
sg77
g78
sg79
(dp182
g81
I11
sg82
I8
sg83
I9
sg84
I11
sg85
I13
sg86
I7
sg87
I13
sg88
I9
sg89
I9
sg90
I13
sg91
I8
sg92
I7
sg93
I7
sg94
I13
sg95
I4
ssg96
I0
sg97
I0
sg98
I0
sg99
I0
sg100
F11.325
sg101
I0
sg102
I0
sg103
I0
sg104
g182
sg105
I0
sg106
I0
sg107
I0
sg108
I0
sg109
I31
sg110
I10
sg111
I0
sg112
S'ES'
p183
sbsS'B1'
p184
g25
sS'B2'
p185
g25
sS'B3'
p186
g25
sS'SA_pcp2'
p187
(ijoueur
joueur
p188
(dp189
g27
I0
sg28
I0
sg29
I0
sg30
(ijoueur
rang
p190
(dp191
g33
I6
sg34
S'***'
p192
sg36
S'personnage'
p193
sbsg38
(dp194
g40
I0
sg41
I0
sg42
I0
sg43
I0
ssg44
(dp195
g40
I0
sg41
I0
sg42
I0
sg43
I0
ssg46
g47
sg48
I0
sg49
I0
sg50
I0
sg51
I0
sg52
(g53
S'DL'
p196
S'N8'
p197
g47
tp198
sg58
(ijoueur
rang
p199
(dp200
g33
I6
sg34
S'***'
p201
sg36
g193
sbsg61
(dp202
g40
I0
sg41
I0
sg42
I0
sg43
I0
ssg63
(dp203
g40
I0
sg41
I0
sg42
I0
sg43
I0
ssg65
(dp204
g40
I0
sg41
I0
sg42
I0
sg43
I0
ssg67
(dp205
g40
I0
sg41
I0
sg42
I0
sg43
I0
ssg69
I0
sg70
I0
sg71
S'Louen'
p206
sg73
I-1
sg74
I0
sg75
I9
sg76
I295
sg77
g78
sg79
(dp207
g81
I10
sg82
I9
sg83
I8
sg84
I12
sg85
I11
sg86
I13
sg87
I6
sg88
I14
sg89
I6
sg90
I10
sg91
I5
sg92
I8
sg93
I5
sg94
I11
sg95
I6
ssg96
I0
sg97
I0
sg98
I0
sg99
I0
sg100
F10.352941176470589
sg101
I0
sg102
I0
sg103
I0
sg104
g207
sg105
I0
sg106
I0
sg107
I0
sg108
I0
sg109
I36
sg110
I34
sg111
I0
sg112
S'B'
p208
sbsS'SA_pcp1'
p209
(ijoueur
joueur
p210
(dp211
g27
I0
sg28
I0
sg29
I0
sg30
(ijoueur
rang
p212
(dp213
g33
I4
sg34
g119
sg36
g37
sbsg38
(dp214
g40
I0
sg41
I0
sg42
I0
sg43
I0
ssg44
(dp215
g40
I0
sg41
I0
sg42
I0
sg43
I0
ssg46
g47
sg48
I0
sg49
I0
sg50
I0
sg51
I0
sg52
(g53
S'N8'
p216
S'TL'
p217
S'CE'
p218
tp219
sg58
(ijoueur
rang
p220
(dp221
g33
I5
sg34
S'**'
p222
sg36
g142
sbsg61
(dp223
g40
I0
sg41
I0
sg42
I0
sg43
I0
ssg63
(dp224
g40
I0
sg41
I0
sg42
I0
sg43
I0
ssg65
(dp225
g40
I0
sg41
I0
sg42
I0
sg43
I0
ssg67
(dp226
g40
I0
sg41
I0
sg42
I0
sg43
I0
ssg69
I0
sg70
I0
sg71
S'Lyeth'
p227
sg73
I2
sg74
I0
sg75
I12
sg76
I130
sg77
g78
sg79
(dp228
g81
I10
sg82
I11
sg83
I9
sg84
I12
sg85
I12
sg86
I11
sg87
I7
sg88
I13
sg89
I9
sg90
I12
sg91
I8
sg92
I10
sg93
I7
sg94
I11
sg95
I6
ssg96
I0
sg97
I0
sg98
I0
sg99
I0
sg100
F11.25
sg101
I0
sg102
I0
sg103
I0
sg104
g228
sg105
I0
sg106
I0
sg107
I0
sg108
I0
sg109
I13
sg110
I25
sg111
I0
sg112
S'EN'
p229
sbsS'drop3'
p230
g162
sS'SA_remp1'
p231
(ijoueur
joueur
p232
(dp233
g27
I0
sg28
I0
sg29
I0
sg30
(ijoueur
rang
p234
(dp235
g33
I3
sg34
S'^^^'
p236
sg36
S'rare'
p237
sbsg38
(dp238
g40
I0
sg41
I0
sg42
I0
sg43
I0
ssg44
(dp239
g40
I0
sg41
I0
sg42
I0
sg43
I0
ssg46
g47
sg48
I0
sg49
I0
sg50
I0
sg51
I0
sg52
(g53
S'DL'
p240
S'PI'
p241
g47
tp242
sg58
(ijoueur
rang
p243
(dp244
g33
I3
sg34
S'^^^'
p245
sg36
g237
sbsg61
(dp246
g40
I0
sg41
I0
sg42
I0
sg43
I0
ssg63
(dp247
g40
I0
sg41
I0
sg42
I0
sg43
I0
ssg65
(dp248
g40
I0
sg41
I0
sg42
I0
sg43
I0
ssg67
(dp249
g40
I0
sg41
I0
sg42
I0
sg43
I0
ssg69
I0
sg70
I0
sg71
S'Lesyl'
p250
sg73
I3
sg74
I0
sg75
I11
sg76
I11
sg77
g78
sg79
(dp251
g81
I10
sg82
I12
sg83
I7
sg84
I10
sg85
I12
sg86
I7
sg87
I5
sg88
I7
sg89
I6
sg90
I8
sg91
I8
sg92
I7
sg93
I6
sg94
I10
sg95
I4
ssg96
I0
sg97
I0
sg98
I0
sg99
I0
sg100
F9.558823529411764
sg101
I0
sg102
I0
sg103
I0
sg104
g251
sg105
I0
sg106
I0
sg107
I0
sg108
I0
sg109
I1
sg110
I5
sg111
I0
sg112
S'RN'
p252
sbsS'drop2'
p253
(ijoueur
joueur
p254
(dp255
g27
I0
sg28
I11
sg29
I0
sg30
(ijoueur
rang
p256
(dp257
g33
I5
sg34
S'**'
p258
sg36
g142
sbsg38
(dp259
g40
I0
sg41
I0
sg42
I0
sg43
I0
ssg44
(dp260
g40
I0
sg41
I0
sg42
I0
sg43
I0
ssg46
g47
sg48
I0
sg49
I0
sg50
I0
sg51
I0
sg52
(g53
S'C1'
p261
S'DO'
p262
S'DM'
p263
tp264
sg58
(ijoueur
rang
p265
(dp266
g33
I5
sg34
S'**'
p267
sg36
g142
sbsg61
(dp268
g40
I0
sg41
I0
sg42
I0
sg43
I0
ssg63
(dp269
g40
I0
sg41
I0
sg42
I0
sg43
I0
ssg65
(dp270
g40
I0
sg41
I0
sg42
I0
sg43
I0
ssg67
(dp271
g40
I0
sg41
I0
sg42
I0
sg43
I0
ssg69
I1
sg70
I0
sg71
S'Ridk'
p272
sg73
I3
sg74
I0
sg75
I13
sg76
I90
sg77
g78
sg79
(dp273
g81
I11
sg82
I4
sg83
I9
sg84
I10
sg85
I7
sg86
I7
sg87
I10
sg88
I9
sg89
I10
sg90
I13
sg91
I9
sg92
I8
sg93
I11
sg94
I10
sg95
I4
ssg96
I0
sg97
I0
sg98
I0
sg99
I0
sg100
F10.21875
sg101
I0
sg102
I0
sg103
I0
sg104
g273
sg105
I0
sg106
I0
sg107
I0
sg108
I0
sg109
I9
sg110
I17
sg111
I0
sg112
g159
sbsS'SA_remp2'
p274
(ijoueur
joueur
p275
(dp276
g27
I0
sg28
I0
sg29
I0
sg30
(ijoueur
rang
p277
(dp278
g33
I5
sg34
S'**'
p279
sg36
g142
sbsg38
(dp280
g40
I0
sg41
I0
sg42
I0
sg43
I0
ssg44
(dp281
g40
I0
sg41
I0
sg42
I0
sg43
I0
ssg46
S'KHR8'
p282
sg48
I0
sg49
I0
sg50
I0
sg51
I0
sg52
(g53
S'DL'
p283
S'TL'
p284
g47
tp285
sg58
(ijoueur
rang
p286
(dp287
g33
I5
sg34
S'**'
p288
sg36
g142
sbsg61
(dp289
g40
I0
sg41
I0
sg42
I0
sg43
I0
ssg63
(dp290
g40
I0
sg41
I0
sg42
I0
sg43
I0
ssg65
(dp291
g40
I0
sg41
I0
sg42
I0
sg43
I0
ssg67
(dp292
g40
I0
sg41
I0
sg42
I0
sg43
I0
ssg69
I0
sg70
I0
sg71
S'Le Daho'
p293
sg73
I3
sg74
I0
sg75
I12
sg76
I254
sg77
g78
sg79
(dp294
g81
I11
sg82
I10
sg83
I7
sg84
I11
sg85
I11
sg86
I8
sg87
I4
sg88
I8
sg89
I6
sg90
I10
sg91
I8
sg92
I9
sg93
I2
sg94
I9
sg95
I3
ssg96
I0
sg97
I0
sg98
I0
sg99
I0
sg100
F9.764705882352942
sg101
I0
sg102
I0
sg103
I0
sg104
g294
sg105
I0
sg106
I0
sg107
I0
sg108
I0
sg109
I24
sg110
I10
sg111
I0
sg112
g208
sbssS'totaux'
p295
(dp296
g19
I0
sg20
I0
sg21
I0
ssS'_compo_defaut_fatigue'
p297
Nsg79
(dp298
g4
I0
sg5
I0
sg6
I0
sg7
I0
sg8
I0
sg9
I0
sg10
I0
sg11
I0
sg12
I0
sg13
I0
sg14
I0
sg15
I0
sg16
I0
ssS'joueurs'
p299
(dp300
S'n12'
p301
g25
sS'n13'
p302
(ijoueur
joueur
p303
(dp304
g27
I0
sg28
I0
sg29
I0
sg30
(ijoueur
rang
p305
(dp306
g33
I5
sg34
S'xx'
p307
sg36
g142
sbsg38
(dp308
g40
I0
sg41
I0
sg42
I0
sg43
I0
ssg44
(dp309
g40
I0
sg41
I0
sg42
I0
sg43
I0
ssg46
g47
sg48
I0
sg49
I0
sg50
I0
sg51
I0
sg52
(g53
S'AI'
p310
S'CE'
p311
g47
tp312
sg58
(ijoueur
rang
p313
(dp314
g33
I5
sg34
S'xx'
p315
sg36
g142
sbsg61
(dp316
g40
I0
sg41
I0
sg42
I0
sg43
I0
ssg63
(dp317
g40
I0
sg41
I0
sg42
I0
sg43
I0
ssg65
(dp318
g40
I0
sg41
I0
sg42
I0
sg43
I0
ssg67
(dp319
g40
I0
sg41
I0
sg42
I0
sg43
I0
ssg69
I0
sg70
I0
sg71
S'Croskhaen'
p320
sg73
I7
sg74
I0
sg75
I21
sg76
I483
sg77
g78
sg79
(dp321
g81
I14
sg82
I8
sg83
I11
sg84
I10
sg85
I13
sg86
I9
sg87
I9
sg88
I13
sg89
I9
sg90
I15
sg91
I13
sg92
I11
sg93
I6
sg94
I11
sg95
I5
ssg96
I0
sg97
I0
sg98
I0
sg99
I0
sg100
F12.419354838709678
sg101
I0
sg102
I0
sg103
I0
sg104
g321
sg105
I0
sg106
I0
sg107
I0
sg108
I0
sg109
I49
sg110
I0
sg111
I0
sg112
g159
sbsS'n10'
p322
g162
sS'n11'
p323
(ijoueur
joueur
p324
(dp325
g27
I0
sg28
I0
sg29
I0
sg30
(ijoueur
rang
p326
(dp327
g33
I5
sg34
S'**'
p328
sg36
g142
sbsg38
(dp329
g40
I0
sg41
I0
sg42
I0
sg43
I0
ssg44
(dp330
g40
I0
sg41
I0
sg42
I0
sg43
I0
ssg46
g47
sg48
I0
sg49
I0
sg50
I0
sg51
I0
sg52
(g53
S'AI'
p331
S'AR'
p332
S'DM'
p333
tp334
sg58
(ijoueur
rang
p335
(dp336
g33
I5
sg34
S'**'
p337
sg36
g142
sbsg61
(dp338
g40
I0
sg41
I0
sg42
I0
sg43
I0
ssg63
(dp339
g40
I0
sg41
I0
sg42
I0
sg43
I0
ssg65
(dp340
g40
I0
sg41
I0
sg42
I0
sg43
I0
ssg67
(dp341
g40
I0
sg41
I0
sg42
I0
sg43
I0
ssg69
I0
sg70
I0
sg71
S'Grodhan'
p342
sg73
I7
sg74
I0
sg75
I23
sg76
I121
sg77
g78
sg79
(dp343
g81
I13
sg82
I2
sg83
I12
sg84
I12
sg85
I10
sg86
I7
sg87
I8
sg88
I12
sg89
I12
sg90
I13
sg91
I10
sg92
I5
sg93
I9
sg94
I10
sg95
I7
ssg96
I0
sg97
I0
sg98
I0
sg99
I0
sg100
F11.35483870967742
sg101
I0
sg102
I0
sg103
I0
sg104
g343
sg105
I0
sg106
I0
sg107
I0
sg108
I0
sg109
I12
sg110
I2
sg111
I0
sg112
S'CV'
p344
sbsS'n16'
p345
(ijoueur
joueur
p346
(dp347
g27
I0
sg28
I0
sg29
I0
sg30
(ijoueur
rang
p348
(dp349
g33
I4
sg34
g119
sg36
g37
sbsg38
(dp350
g40
I0
sg41
I0
sg42
I0
sg43
I0
ssg44
(dp351
g40
I0
sg41
I0
sg42
I0
sg43
I0
ssg46
g47
sg48
I0
sg49
I0
sg50
I0
sg51
I0
sg52
(g53
S'TA'
p352
g47
g47
tp353
sg58
(ijoueur
rang
p354
(dp355
g33
I4
sg34
g119
sg36
g37
sbsg61
(dp356
g40
I0
sg41
I0
sg42
I0
sg43
I0
ssg63
(dp357
g40
I0
sg41
I0
sg42
I0
sg43
I0
ssg65
(dp358
g40
I0
sg41
I0
sg42
I0
sg43
I0
ssg67
(dp359
g40
I0
sg41
I0
sg42
I0
sg43
I0
ssg69
I0
sg70
I0
sg71
S'Dafeor'
p360
sg73
I9
sg74
I0
sg75
I19
sg76
I67
sg77
g78
sg79
(dp361
g81
I14
sg82
I9
sg83
I9
sg84
I11
sg85
I10
sg86
I8
sg87
I5
sg88
I10
sg89
I4
sg90
I11
sg91
I7
sg92
I7
sg93
I5
sg94
I9
sg95
I9
ssg96
I0
sg97
I0
sg98
I0
sg99
I0
sg100
F9.344827586206897
sg101
I0
sg102
I0
sg103
I0
sg104
g361
sg105
I0
sg106
I0
sg107
I0
sg108
I0
sg109
I8
sg110
I1
sg111
I0
sg112
S'EN'
p362
sbsS'n17'
p363
g232
sS'n14'
p364
g137
sS'n15'
p365
(ijoueur
joueur
p366
(dp367
g27
I0
sg28
I3
sg29
I0
sg30
(ijoueur
rang
p368
(dp369
g33
I6
sg34
S'***'
p370
sg36
g193
sbsg38
(dp371
g40
I0
sg41
I0
sg42
I0
sg43
I0
ssg44
(dp372
g40
I0
sg41
I0
sg42
I0
sg43
I0
ssg46
g47
sg48
I0
sg49
I0
sg50
I0
sg51
I0
sg52
(g53
S'AR'
p373
S'CE'
p374
S'AI'
p375
tp376
sg58
(ijoueur
rang
p377
(dp378
g33
I6
sg34
S'***'
p379
sg36
g193
sbsg61
(dp380
g40
I0
sg41
I0
sg42
I0
sg43
I0
ssg63
(dp381
g40
I0
sg41
I0
sg42
I0
sg43
I0
ssg65
(dp382
g40
I0
sg41
I0
sg42
I0
sg43
I0
ssg67
(dp383
g40
I0
sg41
I0
sg42
I0
sg43
I0
ssg69
I0
sg70
I0
sg71
S'Snikch'
p384
sg73
I7
sg74
I0
sg75
I20
sg76
I576
sg77
g78
sg79
(dp385
g81
I13
sg82
I6
sg83
I14
sg84
I8
sg85
I13
sg86
I7
sg87
I9
sg88
I14
sg89
I9
sg90
I13
sg91
I12
sg92
I9
sg93
I10
sg94
I14
sg95
I5
ssg96
I0
sg97
I0
sg98
I0
sg99
I0
sg100
F12.0
sg101
I0
sg102
I0
sg103
I0
sg104
g385
sg105
I0
sg106
I0
sg107
I0
sg108
I0
sg109
I106
sg110
I27
sg111
I0
sg112
g159
sbsS'n18'
p386
g275
sS'n19'
p387
(ijoueur
joueur
p388
(dp389
g27
I0
sg28
I0
sg29
I0
sg30
(ijoueur
rang
p390
(dp391
g33
I5
sg34
S'**'
p392
sg36
g142
sbsg38
(dp393
g40
I0
sg41
I0
sg42
I0
sg43
I0
ssg44
(dp394
g40
I0
sg41
I0
sg42
I0
sg43
I0
ssg46
g47
sg48
I0
sg49
I0
sg50
I0
sg51
I0
sg52
(g53
S'TL'
p395
S'N8'
p396
g47
tp397
sg58
(ijoueur
rang
p398
(dp399
g33
I3
sg34
S'^^^'
p400
sg36
g237
sbsg61
(dp401
g40
I0
sg41
I0
sg42
I0
sg43
I0
ssg63
(dp402
g40
I0
sg41
I0
sg42
I0
sg43
I0
ssg65
(dp403
g40
I0
sg41
I0
sg42
I0
sg43
I0
ssg67
(dp404
g40
I0
sg41
I0
sg42
I0
sg43
I0
ssg69
I0
sg70
I0
sg71
S'Xarmaod'
p405
sg73
I11
sg74
I0
sg75
I24
sg76
I16
sg77
g78
sg79
(dp406
g81
I11
sg82
I9
sg83
I6
sg84
I12
sg85
I10
sg86
I9
sg87
I5
sg88
I9
sg89
I5
sg90
I7
sg91
I9
sg92
I8
sg93
I4
sg94
I9
sg95
I6
ssg96
I0
sg97
I0
sg98
I0
sg99
I0
sg100
F9.368421052631579
sg101
I0
sg102
I0
sg103
I0
sg104
g406
sg105
I0
sg106
I0
sg107
I0
sg108
I0
sg109
I2
sg110
I0
sg111
I0
sg112
S'EN'
p407
sbsS'n22'
p408
(ijoueur
joueur
p409
(dp410
g27
I0
sg28
I0
sg29
I0
sg30
(ijoueur
rang
p411
(dp412
g33
I2
sg34
S'<<'
p413
sg36
S'special'
p414
sbsg38
(dp415
g40
I0
sg41
I0
sg42
I0
sg43
I0
ssg44
(dp416
g40
I0
sg41
I0
sg42
I0
sg43
I0
ssg46
g47
sg48
I0
sg49
I0
sg50
I0
sg51
I0
sg52
(g53
S'C2'
p417
S'AI'
p418
S'AR'
p419
tp420
sg58
(ijoueur
rang
p421
(dp422
g33
I2
sg34
S'<<'
p423
sg36
g414
sbsg61
(dp424
g40
I0
sg41
I0
sg42
I0
sg43
I0
ssg63
(dp425
g40
I0
sg41
I0
sg42
I0
sg43
I0
ssg65
(dp426
g40
I0
sg41
I0
sg42
I0
sg43
I0
ssg67
(dp427
g40
I0
sg41
I0
sg42
I0
sg43
I0
ssg69
I0
sg70
I0
sg71
S'Dendaenol'
p428
sg73
I1
sg74
I0
sg75
I10
sg76
I8
sg77
g78
sg79
(dp429
g81
I10
sg82
I6
sg83
I6
sg84
I12
sg85
I7
sg86
I11
sg87
I7
sg88
I11
sg89
I9
sg90
I10
sg91
I10
sg92
I5
sg93
I9
sg94
I12
sg95
I3
ssg96
I0
sg97
I0
sg98
I0
sg99
I0
sg100
F10.310344827586206
sg101
I0
sg102
I0
sg103
I0
sg104
g429
sg105
I0
sg106
I0
sg107
I0
sg108
I0
sg109
I1
sg110
I19
sg111
I0
sg112
S'EN'
p430
sbsS'n21'
p431
(ijoueur
joueur
p432
(dp433
g27
I0
sg28
I0
sg29
I0
sg30
(ijoueur
rang
p434
(dp435
g33
I5
sg34
S'**'
p436
sg36
g142
sbsg38
(dp437
g40
I0
sg41
I0
sg42
I0
sg43
I0
ssg44
(dp438
g40
I0
sg41
I0
sg42
I0
sg43
I0
ssg46
g47
sg48
I0
sg49
I0
sg50
I0
sg51
I0
sg52
(g53
S'C1'
p439
S'AR'
p440
S'TA'
p441
tp442
sg58
(ijoueur
rang
p443
(dp444
g33
I5
sg34
S'**'
p445
sg36
g142
sbsg61
(dp446
g40
I0
sg41
I0
sg42
I0
sg43
I0
ssg63
(dp447
g40
I0
sg41
I0
sg42
I0
sg43
I0
ssg65
(dp448
g40
I0
sg41
I0
sg42
I0
sg43
I0
ssg67
(dp449
g40
I0
sg41
I0
sg42
I0
sg43
I0
ssg69
I0
sg70
I0
sg71
S'Myaed'
p450
sg73
I3
sg74
I0
sg75
I12
sg76
I130
sg77
g78
sg79
(dp451
g81
I10
sg82
I8
sg83
I10
sg84
I10
sg85
I10
sg86
I7
sg87
I7
sg88
I10
sg89
I8
sg90
I11
sg91
I9
sg92
I9
sg93
I6
sg94
I13
sg95
I10
ssg96
I0
sg97
I0
sg98
I0
sg99
I0
sg100
F10.133333333333333
sg101
I0
sg102
I0
sg103
I0
sg104
g451
sg105
I0
sg106
I0
sg107
I0
sg108
I0
sg109
I13
sg110
I32
sg111
I0
sg112
S'EN'
p452
sbsS'n20'
p453
(ijoueur
joueur
p454
(dp455
g27
I0
sg28
I0
sg29
I0
sg30
(ijoueur
rang
p456
(dp457
g33
I3
sg34
S'^^^'
p458
sg36
g237
sbsg38
(dp459
g40
I0
sg41
I0
sg42
I0
sg43
I0
ssg44
(dp460
g40
I0
sg41
I0
sg42
I0
sg43
I0
ssg46
g47
sg48
I0
sg49
I0
sg50
I0
sg51
I0
sg52
(g53
S'AR'
p461
S'CE'
p462
S'DO'
p463
tp464
sg58
(ijoueur
rang
p465
(dp466
g33
I3
sg34
S'^^^'
p467
sg36
g237
sbsg61
(dp468
g40
I0
sg41
I0
sg42
I0
sg43
I0
ssg63
(dp469
g40
I0
sg41
I0
sg42
I0
sg43
I0
ssg65
(dp470
g40
I0
sg41
I0
sg42
I0
sg43
I0
ssg67
(dp471
g40
I0
sg41
I0
sg42
I0
sg43
I0
ssg69
I0
sg70
I0
sg71
S'Praedol'
p472
sg73
I3
sg74
I0
sg75
I16
sg76
I13
sg77
g78
sg79
(dp473
g81
I9
sg82
I4
sg83
I10
sg84
I9
sg85
I7
sg86
I6
sg87
I9
sg88
I10
sg89
I12
sg90
I12
sg91
I11
sg92
I6
sg93
I9
sg94
I12
sg95
I4
ssg96
I0
sg97
I0
sg98
I0
sg99
I0
sg100
F10.303030303030303
sg101
I0
sg102
I0
sg103
I0
sg104
g473
sg105
I0
sg106
I0
sg107
I0
sg108
I0
sg109
I1
sg110
I8
sg111
I0
sg112
S'EN'
p474
sbsS'n8'
p475
(ijoueur
joueur
p476
(dp477
g27
I0
sg28
I0
sg29
I0
sg30
(ijoueur
rang
p478
(dp479
g33
I5
sg34
S'xx'
p480
sg36
g142
sbsg38
(dp481
g40
I0
sg41
I0
sg42
I0
sg43
I0
ssg44
(dp482
g40
I0
sg41
I0
sg42
I0
sg43
I0
ssg46
S'TA10'
p483
sg48
I0
sg49
I0
sg50
I0
sg51
I0
sg52
(g53
S'N8'
p484
S'TL'
p485
g47
tp486
sg58
(ijoueur
rang
p487
(dp488
g33
I5
sg34
S'xx'
p489
sg36
g142
sbsg61
(dp490
g40
I0
sg41
I0
sg42
I0
sg43
I0
ssg63
(dp491
g40
I0
sg41
I0
sg42
I0
sg43
I0
ssg65
(dp492
g40
I0
sg41
I0
sg42
I0
sg43
I0
ssg67
(dp493
g40
I0
sg41
I0
sg42
I0
sg43
I0
ssg69
I0
sg70
I0
sg71
S'Magh'
p494
sg73
I7
sg74
I0
sg75
I17
sg76
I303
sg77
g78
sg79
(dp495
g81
I9
sg82
I13
sg83
I7
sg84
I12
sg85
I10
sg86
I16
sg87
I7
sg88
I16
sg89
I7
sg90
I8
sg91
I13
sg92
I12
sg93
I7
sg94
I11
sg95
I10
ssg96
I0
sg97
I0
sg98
I0
sg99
I0
sg100
F12.206896551724139
sg101
I0
sg102
I0
sg103
I0
sg104
g495
sg105
I0
sg106
I0
sg107
I0
sg108
I0
sg109
I44
sg110
I14
sg111
I0
sg112
S'HB'
p496
sbsS'n9'
p497
g254
sS'n1'
p498
(ijoueur
joueur
p499
(dp500
g27
I0
sg28
I0
sg29
I0
sg30
(ijoueur
rang
p501
(dp502
g33
I6
sg34
S'***'
p503
sg36
g193
sbsg38
(dp504
g40
I0
sg41
I0
sg42
I0
sg43
I0
ssg44
(dp505
g40
I0
sg41
I0
sg42
I0
sg43
I0
ssg46
g47
sg48
I0
sg49
I0
sg50
I0
sg51
I0
sg52
(g53
S'PI'
p506
S'TA'
p507
g47
tp508
sg58
(ijoueur
rang
p509
(dp510
g33
I6
sg34
S'***'
p511
sg36
g193
sbsg61
(dp512
g40
I0
sg41
I0
sg42
I0
sg43
I0
ssg63
(dp513
g40
I0
sg41
I0
sg42
I0
sg43
I0
ssg65
(dp514
g40
I0
sg41
I0
sg42
I0
sg43
I0
ssg67
(dp515
g40
I0
sg41
I0
sg42
I0
sg43
I0
ssg69
I0
sg70
I0
sg71
S'Khazrak'
p516
sg73
I11
sg74
I0
sg75
I23
sg76
I314
sg77
g78
sg79
(dp517
g81
I9
sg82
I11
sg83
I8
sg84
I10
sg85
I8
sg86
I12
sg87
I0
sg88
I13
sg89
I1
sg90
I8
sg91
I10
sg92
I10
sg93
I1
sg94
I10
sg95
I11
ssg96
I0
sg97
I0
sg98
I0
sg99
I0
sg100
F10.517241379310345
sg101
I0
sg102
I0
sg103
I0
sg104
g517
sg105
I0
sg106
I0
sg107
I0
sg108
I0
sg109
I25
sg110
I0
sg111
I0
sg112
S'HB'
p518
sbsS'n2'
p519
(ijoueur
joueur
p520
(dp521
g27
I0
sg28
I0
sg29
I0
sg30
(ijoueur
rang
p522
(dp523
g33
I5
sg34
S'**'
p524
sg36
g142
sbsg38
(dp525
g40
I0
sg41
I0
sg42
I0
sg43
I0
ssg44
(dp526
g40
I0
sg41
I0
sg42
I0
sg43
I0
ssg46
g47
sg48
I0
sg49
I0
sg50
I0
sg51
I0
sg52
(g53
S'PI'
p527
S'TA'
p528
S'TL'
p529
tp530
sg58
(ijoueur
rang
p531
(dp532
g33
I5
sg34
S'**'
p533
sg36
g142
sbsg61
(dp534
g40
I0
sg41
I0
sg42
I0
sg43
I0
ssg63
(dp535
g40
I0
sg41
I0
sg42
I0
sg43
I0
ssg65
(dp536
g40
I0
sg41
I0
sg42
I0
sg43
I0
ssg67
(dp537
g40
I0
sg41
I0
sg42
I0
sg43
I0
ssg69
I0
sg70
I0
sg71
S'Van Rutard'
p538
sg73
I4
sg74
I0
sg75
I14
sg76
I160
sg77
g78
sg79
(dp539
g81
I9
sg82
I9
sg83
I9
sg84
I10
sg85
I6
sg86
I9
sg87
I4
sg88
I11
sg89
I7
sg90
I11
sg91
I9
sg92
I12
sg93
I2
sg94
I9
sg95
I13
ssg96
I0
sg97
I0
sg98
I0
sg99
I0
sg100
F10.379310344827585
sg101
I0
sg102
I0
sg103
I0
sg104
g539
sg105
I0
sg106
I0
sg107
I0
sg108
I0
sg109
I26
sg110
I24
sg111
I0
sg112
S'EMP'
p540
sbsS'n3'
p541
(ijoueur
joueur
p542
(dp543
g27
I0
sg28
I0
sg29
I0
sg30
(ijoueur
rang
p544
(dp545
g33
I1
sg34
S'>'
p546
sg36
S'base'
p547
sbsg38
(dp548
g40
I0
sg41
I0
sg42
I0
sg43
I0
ssg44
(dp549
g40
I0
sg41
I0
sg42
I0
sg43
I0
ssg46
S'HTH11'
p550
sg48
I0
sg49
I0
sg50
I0
sg51
I0
sg52
(g53
S'PI'
p551
g47
g47
tp552
sg58
(ijoueur
rang
p553
(dp554
g33
I1
sg34
g546
sg36
g547
sbsg61
(dp555
g40
I0
sg41
I0
sg42
I0
sg43
I0
ssg63
(dp556
g40
I0
sg41
I0
sg42
I0
sg43
I0
ssg65
(dp557
g40
I0
sg41
I0
sg42
I0
sg43
I0
ssg67
(dp558
g40
I0
sg41
I0
sg42
I0
sg43
I0
ssg69
I0
sg70
I0
sg71
S'Hugd'
p559
sg73
I2
sg74
I0
sg75
I13
sg76
I100
sg77
g78
sg79
(dp560
g81
I9
sg82
I13
sg83
I6
sg84
I9
sg85
I2
sg86
I13
sg87
I4
sg88
I13
sg89
I6
sg90
I6
sg91
I8
sg92
I11
sg93
I4
sg94
I9
sg95
I6
ssg96
I0
sg97
I0
sg98
I0
sg99
I0
sg100
F10.62962962962963
sg101
I0
sg102
I0
sg103
I0
sg104
g560
sg105
I0
sg106
I0
sg107
I0
sg108
I0
sg109
I10
sg110
I2
sg111
I0
sg112
S'O'
p561
sbsS'n4'
p562
g115
sS'n5'
p563
g188
sS'n6'
p564
g210
sS'n7'
p565
(ijoueur
joueur
p566
(dp567
g27
I0
sg28
I0
sg29
I0
sg30
(ijoueur
rang
p568
(dp569
g33
I5
sg34
S'**'
p570
sg36
g142
sbsg38
(dp571
g40
I0
sg41
I0
sg42
I0
sg43
I0
ssg44
(dp572
g40
I0
sg41
I0
sg42
I0
sg43
I0
ssg46
S'KH9'
p573
sg48
I0
sg49
I0
sg50
I0
sg51
I0
sg52
(g53
S'TL'
p574
g47
g47
tp575
sg58
(ijoueur
rang
p576
(dp577
g33
I5
sg34
S'**'
p578
sg36
g142
sbsg61
(dp579
g40
I0
sg41
I0
sg42
I0
sg43
I0
ssg63
(dp580
g40
I0
sg41
I0
sg42
I0
sg43
I0
ssg65
(dp581
g40
I0
sg41
I0
sg42
I0
sg43
I0
ssg67
(dp582
g40
I0
sg41
I0
sg42
I0
sg43
I0
ssg69
I0
sg70
I0
sg71
S'Skater'
p583
sg73
I3
sg74
I0
sg75
I18
sg76
I270
sg77
g78
sg79
(dp584
g81
I10
sg82
I8
sg83
I6
sg84
I12
sg85
I8
sg86
I8
sg87
I6
sg88
I8
sg89
I4
sg90
I7
sg91
I8
sg92
I12
sg93
I6
sg94
I13
sg95
I6
ssg96
I0
sg97
I0
sg98
I0
sg99
I0
sg100
F10.806451612903226
sg101
I0
sg102
I0
sg103
I0
sg104
g584
sg105
I0
sg106
I0
sg107
I0
sg108
I0
sg109
I19
sg110
I4
sg111
I0
sg112
S'N'
p585
sbssS'remplacements'
p586
(dp587
g345
S'n0'
p588
sg363
g588
sg386
g588
sg387
g588
sg408
g588
sg431
g588
sg453
g588
ssb.