(iclub
compo
p0
(dp1
S'caracs_old'
p2
(dp3
S'A'
p4
F114.0
sS'ME'
p5
F81.5
sS'E'
p6
I212
sS'OplusAV'
p7
F67.5
sS'TO_off'
p8
F75.5
sS'OplusAR'
p9
F102.0
sS'M'
p10
F53.0
sS'JP'
p11
F58.0
sS'OmoinsAR'
p12
F46.5
sS'PA'
p13
F61.0
sS'TO_def'
p14
F68.5
sS'OmoinsAV'
p15
F43.0
sS'R'
p16
F166.5
ssS'totaux_old'
p17
(dp18
S'T2'
p19
F116.5
sS'T3'
p20
F106.0
sS'T1'
p21
F160.0
ssS'roles'
p22
(dp23
S'drop1'
p24
(ijoueur
joueur
p25
(dp26
S'rouges_total'
p27
I0
sS'drops_total'
p28
I0
sS'blessure'
p29
I0
sS'RG_max'
p30
(ijoueur
rang
p31
(dp32
S'type_nb'
p33
I5
sS'rang'
p34
S'**'
p35
sS'type'
p36
S'seigneur'
p37
sbsS'MJ2_total'
p38
(dp39
S'SR'
p40
I0
sS'ST'
p41
I0
sS'CR'
p42
I0
sS'CT'
p43
I6
ssS'MJ3_total'
p44
(dp45
g40
I0
sg41
I0
sg42
I0
sg43
I0
ssS'drop_rates_total'
p46
I0
sS'drop_rates_saison'
p47
I0
sS'essais_saison'
p48
I0
sS'penalite_ratees_saison'
p49
I3
sS'transformations_saison'
p50
I1
sS'postes'
p51
(S'dummy'
p52
S'AI'
p53
S'AR'
p54
S''
p55
tp56
sS'RG'
p57
(ijoueur
rang
p58
(dp59
g33
I5
sg34
S'**'
p60
sg36
g37
sbsS'MJ1'
p61
(dp62
g40
I0
sg41
I0
sg42
I0
sg43
I0
ssS'MJ2'
p63
(dp64
g40
I0
sg41
I0
sg42
I0
sg43
I6
ssS'MJ3'
p65
(dp66
g40
I0
sg41
I0
sg42
I0
sg43
I0
ssS'MJ1_total'
p67
(dp68
g40
I0
sg41
I0
sg42
I0
sg43
I0
ssS'penalites_total'
p69
I4
sS'penalites_saison'
p70
I4
sS'nom'
p71
S'Armacdir'
p72
sS'C'
p73
I9
sS'transformations_total'
p74
I1
sS'D'
p75
I23
sS'VAL'
p76
I150
sS'club'
p77
S'GP'
p78
sS'caracs'
p79
(dp80
S'A'
p81
I10
sS'ME'
p82
I6
sS'RP2'
p83
I8
sS'E'
p84
I11
sS'TO'
p85
I5
sS'RP1'
p86
I12
sS'JP'
p87
I8
sS'RP_tot'
p88
I13
sS'P'
p89
I11
sS'PA'
p90
I7
sS'M'
p91
I8
sS'R'
p92
I8
sS'TB'
p93
I8
sS'PL'
p94
I10
sS'TA'
p95
I5
ssS'fatigue'
p96
I14
sS'drop_ratees_total'
p97
I0
sS'blessures_total'
p98
I0
sS'XP'
p99
I0
sS'EV'
p100
F10.0
sS'penalite_ratees_total'
p101
I3
sS'blessures_saison'
p102
I0
sS'jaunes_total'
p103
I0
sS'caracs_sans_fatigue'
p104
g80
sS'rouges_saison'
p105
I0
sS'anciens_clubs'
p106
g55
sS'transformation_ratees_total'
p107
I1
sS'drops_saison'
p108
I0
sS'transformation_ratees_saison'
p109
I1
sS'MS'
p110
I15
sS'essais_total'
p111
I0
sS'jaunes_saison'
p112
I0
sS'ARM'
p113
S'N'
p114
sbsS'SA_scd'
p115
(ijoueur
joueur
p116
(dp117
g27
I0
sg28
I0
sg29
I0
sg30
(ijoueur
rang
p118
(dp119
g33
I5
sg34
S'xx'
p120
sg36
g37
sbsg38
(dp121
g40
I0
sg41
I0
sg42
I0
sg43
I2
ssg44
(dp122
g40
I0
sg41
I0
sg42
I0
sg43
I0
ssg46
I0
sg47
I0
sg48
I0
sg49
I0
sg50
I0
sg51
(g52
S'N8'
p123
S'TL'
p124
g55
tp125
sg57
(ijoueur
rang
p126
(dp127
g33
I1
sg34
S'^'
p128
sg36
S'base'
p129
sbsg61
(dp130
g40
I0
sg41
I0
sg42
I0
sg43
I2
ssg63
(dp131
g40
I0
sg41
I0
sg42
I0
sg43
I2
ssg65
(dp132
g40
I0
sg41
I0
sg42
I0
sg43
I0
ssg67
(dp133
g40
I0
sg41
I0
sg42
I0
sg43
I2
ssg69
I0
sg70
I0
sg71
S'Umgrin'
p134
sg73
I11
sg74
I0
sg75
I23
sg76
I12
sg77
g78
sg79
(dp135
g81
I8
sg82
I7
sg83
I6
sg84
I10
sg85
I8
sg86
I8
sg87
I3
sg88
I8
sg89
I4
sg90
I7
sg91
I6
sg92
I8
sg93
I5
sg94
I12
sg95
I3
ssg96
I6
sg97
I0
sg98
I0
sg99
I0
sg100
F8.758620689655173
sg101
I0
sg102
I0
sg103
I0
sg104
g135
sg105
I0
sg106
g55
sg107
I0
sg108
I0
sg109
I0
sg110
I2
sg111
I0
sg112
I0
sg113
g114
sbsS'RJL'
p136
g25
sS'cap'
p137
(ijoueur
joueur
p138
(dp139
g27
I0
sg28
I0
sg29
I0
sg30
(ijoueur
rang
p140
(dp141
g33
I5
sg34
S'xx'
p142
sg36
g37
sbsg38
(dp143
g40
I0
sg41
I0
sg42
I0
sg43
I0
ssg44
(dp144
g40
I0
sg41
I0
sg42
I0
sg43
I0
ssg46
I2
sg47
I2
sg48
I1
sg49
I0
sg50
I0
sg51
(g52
S'DO'
p145
S'CE'
p146
S'AR'
p147
tp148
sg57
(ijoueur
rang
p149
(dp150
g33
I5
sg34
S'xx'
p151
sg36
g37
sbsg61
(dp152
g40
I0
sg41
I0
sg42
I0
sg43
I5
ssg63
(dp153
g40
I0
sg41
I0
sg42
I0
sg43
I0
ssg65
(dp154
g40
I0
sg41
I0
sg42
I0
sg43
I0
ssg67
(dp155
g40
I0
sg41
I0
sg42
I0
sg43
I5
ssg69
I0
sg70
I0
sg71
S"D'yb"
p156
sg73
I9
sg74
I0
sg75
I19
sg76
I350
sg77
g78
sg79
(dp157
g81
I10
sg82
I6
sg83
I8
sg84
I13
sg85
I6
sg86
I13
sg87
I8
sg88
I14
sg89
I10
sg90
I8
sg91
I8
sg92
I9
sg93
I8
sg94
I9
sg95
I7
ssg96
I8
sg97
I0
sg98
I0
sg99
I0
sg100
F9.787878787878787
sg101
I0
sg102
I0
sg103
I0
sg104
g157
sg105
I0
sg106
g55
sg107
I0
sg108
I0
sg109
I0
sg110
I35
sg111
I1
sg112
I0
sg113
S'HL'
p158
sbsS'B4'
p159
g25
sS'RJC'
p160
g138
sS'B1'
p161
g25
sS'B2'
p162
g25
sS'B3'
p163
g25
sS'SA_pcp2'
p164
(ijoueur
joueur
p165
(dp166
g27
I0
sg28
I0
sg29
I0
sg30
(ijoueur
rang
p167
(dp168
g33
I4
sg34
S'x'
p169
sg36
S'heros'
p170
sbsg38
(dp171
g40
I0
sg41
I0
sg42
I0
sg43
I0
ssg44
(dp172
g40
I0
sg41
I0
sg42
I0
sg43
I0
ssg46
I0
sg47
I0
sg48
I0
sg49
I0
sg50
I0
sg51
(g52
S'DL'
p173
g55
g55
tp174
sg57
(ijoueur
rang
p175
(dp176
g33
I4
sg34
g169
sg36
g170
sbsg61
(dp177
g40
I0
sg41
I0
sg42
I0
sg43
I5
ssg63
(dp178
g40
I0
sg41
I0
sg42
I0
sg43
I0
ssg65
(dp179
g40
I0
sg41
I0
sg42
I0
sg43
I0
ssg67
(dp180
g40
I0
sg41
I0
sg42
I0
sg43
I5
ssg69
I0
sg70
I0
sg71
S'Wikaod'
p181
sg73
I2
sg74
I0
sg75
I17
sg76
I100
sg77
g78
sg79
(dp182
g81
I7
sg82
I9
sg83
I7
sg84
I10
sg85
I10
sg86
I10
sg87
I2
sg88
I10
sg89
I2
sg90
I8
sg91
I7
sg92
I10
sg93
I0
sg94
I8
sg95
I6
ssg96
I7
sg97
I0
sg98
I0
sg99
I0
sg100
F9.323529411764707
sg101
I0
sg102
I0
sg103
I0
sg104
g182
sg105
I0
sg106
g55
sg107
I0
sg108
I0
sg109
I0
sg110
I10
sg111
I0
sg112
I0
sg113
S'HL'
p183
sbsS'SA_pcp1'
p184
(ijoueur
joueur
p185
(dp186
g27
I0
sg28
I0
sg29
I0
sg30
(ijoueur
rang
p187
(dp188
g33
I5
sg34
S'**'
p189
sg36
g37
sbsg38
(dp190
g40
I0
sg41
I0
sg42
I0
sg43
I4
ssg44
(dp191
g40
I0
sg41
I0
sg42
I0
sg43
I0
ssg46
I0
sg47
I0
sg48
I0
sg49
I0
sg50
I0
sg51
(g52
S'DL'
p192
S'N8'
p193
g55
tp194
sg57
(ijoueur
rang
p195
(dp196
g33
I5
sg34
S'**'
p197
sg36
g37
sbsg61
(dp198
g40
I0
sg41
I0
sg42
I0
sg43
I0
ssg63
(dp199
g40
I0
sg41
I0
sg42
I0
sg43
I4
ssg65
(dp200
g40
I0
sg41
I0
sg42
I0
sg43
I0
ssg67
(dp201
g40
I0
sg41
I0
sg42
I0
sg43
I0
ssg69
I0
sg70
I0
sg71
S'Amrik'
p202
sg73
I3
sg74
I0
sg75
I15
sg76
I150
sg77
g78
sg79
(dp203
g81
I9
sg82
I10
sg83
I7
sg84
I10
sg85
I12
sg86
I11
sg87
I5
sg88
I11
sg89
I5
sg90
I7
sg91
I8
sg92
I11
sg93
I6
sg94
I10
sg95
I5
ssg96
I8
sg97
I0
sg98
I1
sg99
I0
sg100
F10.529411764705882
sg101
I0
sg102
I1
sg103
I0
sg104
g203
sg105
I0
sg106
g55
sg107
I0
sg108
I0
sg109
I0
sg110
I15
sg111
I0
sg112
I0
sg113
g114
sbsS'drop3'
p204
(ijoueur
joueur
p205
(dp206
g27
I0
sg28
I1
sg29
I0
sg30
(ijoueur
rang
p207
(dp208
g33
I4
sg34
g169
sg36
g170
sbsg38
(dp209
g40
I0
sg41
I0
sg42
I0
sg43
I0
ssg44
(dp210
g40
I0
sg41
I0
sg42
I0
sg43
I0
ssg46
I0
sg47
I0
sg48
I0
sg49
I0
sg50
I0
sg51
(g52
S'C2'
p211
S'AR'
p212
S'AI'
p213
tp214
sg57
(ijoueur
rang
p215
(dp216
g33
I4
sg34
g169
sg36
g170
sbsg61
(dp217
g40
I0
sg41
I0
sg42
I6
sg43
I0
ssg63
(dp218
g40
I0
sg41
I0
sg42
I0
sg43
I0
ssg65
(dp219
g40
I0
sg41
I0
sg42
I0
sg43
I0
ssg67
(dp220
g40
I0
sg41
I0
sg42
I6
sg43
I0
ssg69
I0
sg70
I0
sg71
S'Skerog'
p221
sg73
I2
sg74
I0
sg75
I12
sg76
I90
sg77
g78
sg79
(dp222
g81
I9
sg82
I6
sg83
I8
sg84
I11
sg85
I3
sg86
I8
sg87
I8
sg88
I9
sg89
I9
sg90
I7
sg91
I10
sg92
I6
sg93
I7
sg94
I11
sg95
I3
ssg96
I2
sg97
I0
sg98
I0
sg99
I0
sg100
F9.206896551724139
sg101
I0
sg102
I0
sg103
I0
sg104
g222
sg105
I0
sg106
g55
sg107
I0
sg108
I1
sg109
I0
sg110
I9
sg111
I0
sg112
I0
sg113
g114
sbsS'SA_remp1'
p223
(ijoueur
joueur
p224
(dp225
g27
I0
sg28
I0
sg29
I0
sg30
(ijoueur
rang
p226
(dp227
g33
I3
sg34
S'^^^'
p228
sg36
S'rare'
p229
sbsg38
(dp230
g40
I0
sg41
I0
sg42
I0
sg43
I0
ssg44
(dp231
g40
I0
sg41
I0
sg42
I3
sg43
I0
ssg46
I0
sg47
I0
sg48
I0
sg49
I0
sg50
I0
sg51
(g52
S'N8'
p232
S'DL'
p233
S'TL'
p234
tp235
sg57
(ijoueur
rang
p236
(dp237
g33
I3
sg34
S'^^^'
p238
sg36
g229
sbsg61
(dp239
g40
I0
sg41
I0
sg42
I3
sg43
I0
ssg63
(dp240
g40
I0
sg41
I0
sg42
I0
sg43
I0
ssg65
(dp241
g40
I0
sg41
I0
sg42
I3
sg43
I0
ssg67
(dp242
g40
I0
sg41
I0
sg42
I3
sg43
I0
ssg69
I0
sg70
I0
sg71
S'Frugnir'
p243
sg73
I3
sg74
I0
sg75
I17
sg76
I11
sg77
g78
sg79
(dp244
g81
I6
sg82
I9
sg83
I6
sg84
I11
sg85
I8
sg86
I7
sg87
I4
sg88
I7
sg89
I4
sg90
I6
sg91
I6
sg92
I8
sg93
I5
sg94
I12
sg95
I4
ssg96
I5
sg97
I0
sg98
I0
sg99
I0
sg100
F8.689655172413794
sg101
I0
sg102
I0
sg103
I0
sg104
g244
sg105
I0
sg106
g55
sg107
I0
sg108
I0
sg109
I0
sg110
I1
sg111
I0
sg112
I0
sg113
g114
sbsS'drop2'
p245
g138
sS'SA_remp2'
p246
(ijoueur
joueur
p247
(dp248
g27
I0
sg28
I0
sg29
I0
sg30
(ijoueur
rang
p249
(dp250
g33
I3
sg34
S'^^^'
p251
sg36
g229
sbsg38
(dp252
g40
I0
sg41
I0
sg42
I0
sg43
I0
ssg44
(dp253
g40
I0
sg41
I0
sg42
I0
sg43
I0
ssg46
I0
sg47
I0
sg48
I0
sg49
I0
sg50
I0
sg51
(g52
S'DL'
p254
g55
g55
tp255
sg57
(ijoueur
rang
p256
(dp257
g33
I3
sg34
S'^^^'
p258
sg36
g229
sbsg61
(dp259
g40
I0
sg41
I0
sg42
I0
sg43
I5
ssg63
(dp260
g40
I0
sg41
I0
sg42
I0
sg43
I0
ssg65
(dp261
g40
I0
sg41
I0
sg42
I0
sg43
I0
ssg67
(dp262
g40
I0
sg41
I0
sg42
I0
sg43
I5
ssg69
I0
sg70
I0
sg71
S'Lalaod'
p263
sg73
I4
sg74
I0
sg75
I19
sg76
I65
sg77
g78
sg79
(dp264
g81
I8
sg82
I9
sg83
I8
sg84
I12
sg85
I7
sg86
I11
sg87
I2
sg88
I12
sg89
I2
sg90
I5
sg91
I9
sg92
I9
sg93
I1
sg94
I8
sg95
I5
ssg96
I6
sg97
I0
sg98
I0
sg99
I0
sg100
F9.518518518518519
sg101
I0
sg102
I0
sg103
I0
sg104
g264
sg105
I0
sg106
g55
sg107
I0
sg108
I0
sg109
I0
sg110
I7
sg111
I0
sg112
I0
sg113
S'HL'
p265
sbssS'totaux'
p266
(dp267
g19
I0
sg20
I0
sg21
I0
ssS'_compo_defaut_fatigue'
p268
Nsg79
(dp269
g4
I0
sg5
I0
sg6
I0
sg7
I0
sg8
I0
sg9
I0
sg10
I0
sg11
I0
sg12
I0
sg13
I0
sg14
I0
sg15
I0
sg16
I0
ssS'joueurs'
p270
(dp271
S'n12'
p272
(ijoueur
joueur
p273
(dp274
g27
I0
sg28
I0
sg29
I0
sg30
(ijoueur
rang
p275
(dp276
g33
I4
sg34
S'*'
p277
sg36
g170
sbsg38
(dp278
g40
I0
sg41
I0
sg42
I0
sg43
I0
ssg44
(dp279
g40
I0
sg41
I0
sg42
I0
sg43
I0
ssg46
I0
sg47
I0
sg48
I0
sg49
I0
sg50
I0
sg51
(g52
S'C1'
p280
g55
g55
tp281
sg57
(ijoueur
rang
p282
(dp283
g33
I3
sg34
S'^^^'
p284
sg36
g229
sbsg61
(dp285
g40
I0
sg41
I0
sg42
I0
sg43
I6
ssg63
(dp286
g40
I0
sg41
I0
sg42
I0
sg43
I0
ssg65
(dp287
g40
I0
sg41
I0
sg42
I0
sg43
I0
ssg67
(dp288
g40
I0
sg41
I0
sg42
I0
sg43
I6
ssg69
I0
sg70
I0
sg71
S'Coess'
p289
sg73
I9
sg74
I0
sg75
I18
sg76
I18
sg77
g78
sg79
(dp290
g81
I10
sg82
I4
sg83
I8
sg84
I9
sg85
I5
sg86
I8
sg87
I7
sg88
I9
sg89
I8
sg90
I9
sg91
I11
sg92
I6
sg93
I6
sg94
I11
sg95
I7
ssg96
I11
sg97
I0
sg98
I0
sg99
I0
sg100
F9.266666666666667
sg101
I0
sg102
I0
sg103
I0
sg104
g290
sg105
I0
sg106
g55
sg107
I0
sg108
I0
sg109
I0
sg110
I2
sg111
I0
sg112
I0
sg113
S'S'
p291
sbsS'n13'
p292
(ijoueur
joueur
p293
(dp294
g27
I0
sg28
I0
sg29
I0
sg30
(ijoueur
rang
p295
(dp296
g33
I5
sg34
S'xx'
p297
sg36
g37
sbsg38
(dp298
g40
I0
sg41
I0
sg42
I0
sg43
I0
ssg44
(dp299
g40
I0
sg41
I0
sg42
I0
sg43
I0
ssg46
I0
sg47
I0
sg48
I0
sg49
I0
sg50
I0
sg51
(g52
S'C2'
p300
S'AI'
p301
S'AR'
p302
tp303
sg57
(ijoueur
rang
p304
(dp305
g33
I5
sg34
S'xx'
p306
sg36
g37
sbsg61
(dp307
g40
I0
sg41
I0
sg42
I0
sg43
I6
ssg63
(dp308
g40
I0
sg41
I0
sg42
I0
sg43
I0
ssg65
(dp309
g40
I0
sg41
I0
sg42
I0
sg43
I0
ssg67
(dp310
g40
I0
sg41
I0
sg42
I0
sg43
I6
ssg69
I0
sg70
I0
sg71
S"N'Waoy"
p311
sg73
I10
sg74
I0
sg75
I23
sg76
I350
sg77
g78
sg79
(dp312
g81
I8
sg82
I5
sg83
I10
sg84
I12
sg85
I6
sg86
I14
sg87
I7
sg88
I17
sg89
I9
sg90
I9
sg91
I9
sg92
I11
sg93
I7
sg94
I9
sg95
I6
ssg96
I16
sg97
I0
sg98
I0
sg99
I0
sg100
F10.724137931034482
sg101
I0
sg102
I0
sg103
I0
sg104
g312
sg105
I0
sg106
g55
sg107
I0
sg108
I0
sg109
I0
sg110
I35
sg111
I0
sg112
I0
sg113
S'HL'
p313
sbsS'n10'
p314
g138
sS'n11'
p315
(ijoueur
joueur
p316
(dp317
g27
I0
sg28
I0
sg29
I0
sg30
(ijoueur
rang
p318
(dp319
g33
I4
sg34
g277
sg36
g170
sbsg38
(dp320
g40
I0
sg41
I0
sg42
I0
sg43
I5
ssg44
(dp321
g40
I0
sg41
I0
sg42
I0
sg43
I0
ssg46
I0
sg47
I0
sg48
I0
sg49
I0
sg50
I0
sg51
(g52
S'AR'
p322
S'AI'
p323
g55
tp324
sg57
(ijoueur
rang
p325
(dp326
g33
I3
sg34
S'<<<'
p327
sg36
g229
sbsg61
(dp328
g40
I0
sg41
I0
sg42
I0
sg43
I0
ssg63
(dp329
g40
I0
sg41
I0
sg42
I0
sg43
I5
ssg65
(dp330
g40
I0
sg41
I0
sg42
I0
sg43
I0
ssg67
(dp331
g40
I0
sg41
I0
sg42
I0
sg43
I0
ssg69
I0
sg70
I0
sg71
S'Engret'
p332
sg73
I9
sg74
I0
sg75
I23
sg76
I75
sg77
g78
sg79
(dp333
g81
I10
sg82
I5
sg83
I9
sg84
I9
sg85
I4
sg86
I9
sg87
I3
sg88
I11
sg89
I5
sg90
I8
sg91
I13
sg92
I7
sg93
I4
sg94
I8
sg95
I7
ssg96
I5
sg97
I0
sg98
I0
sg99
I0
sg100
F9.030303030303031
sg101
I0
sg102
I0
sg103
I1
sg104
g333
sg105
I0
sg106
g55
sg107
I0
sg108
I0
sg109
I0
sg110
I8
sg111
I0
sg112
I1
sg113
S'OG'
p334
sbsS'n16'
p335
(ijoueur
joueur
p336
(dp337
g27
I0
sg28
I0
sg29
I0
sg30
(ijoueur
rang
p338
(dp339
g33
I3
sg34
S'^^^'
p340
sg36
g229
sbsg38
(dp341
g40
I0
sg41
I0
sg42
I5
sg43
I0
ssg44
(dp342
g40
I0
sg41
I0
sg42
I0
sg43
I0
ssg46
I0
sg47
I0
sg48
I0
sg49
I0
sg50
I0
sg51
(g52
S'PI'
p343
S'TA'
p344
g55
tp345
sg57
(ijoueur
rang
p346
(dp347
g33
I3
sg34
S'^^^'
p348
sg36
g229
sbsg61
(dp349
g40
I0
sg41
I0
sg42
I0
sg43
I0
ssg63
(dp350
g40
I0
sg41
I0
sg42
I5
sg43
I0
ssg65
(dp351
g40
I0
sg41
I0
sg42
I0
sg43
I0
ssg67
(dp352
g40
I0
sg41
I0
sg42
I0
sg43
I0
ssg69
I0
sg70
I0
sg71
S'Ykwen'
p353
sg73
I1
sg74
I0
sg75
I11
sg76
I65
sg77
g78
sg79
(dp354
g81
I9
sg82
I9
sg83
I7
sg84
I10
sg85
I5
sg86
I9
sg87
I0
sg88
I9
sg89
I0
sg90
I6
sg91
I9
sg92
I8
sg93
I0
sg94
I6
sg95
I9
ssg96
I0
sg97
I0
sg98
I0
sg99
I0
sg100
F8.413793103448276
sg101
I0
sg102
I0
sg103
I0
sg104
g354
sg105
I0
sg106
g55
sg107
I0
sg108
I0
sg109
I0
sg110
I7
sg111
I0
sg112
I0
sg113
S'HL'
p355
sbsS'n17'
p356
(ijoueur
joueur
p357
(dp358
g27
I0
sg28
I0
sg29
I0
sg30
(ijoueur
rang
p359
(dp360
g33
I4
sg34
g169
sg36
g170
sbsg38
(dp361
g40
I0
sg41
I0
sg42
I0
sg43
I0
ssg44
(dp362
g40
I0
sg41
I0
sg42
I0
sg43
I0
ssg46
I0
sg47
I0
sg48
I0
sg49
I0
sg50
I0
sg51
(g52
S'PI'
p363
S'TL'
p364
g55
tp365
sg57
(ijoueur
rang
p366
(dp367
g33
I2
sg34
S'<<'
p368
sg36
S'special'
p369
sbsg61
(dp370
g40
I0
sg41
I0
sg42
I2
sg43
I2
ssg63
(dp371
g40
I0
sg41
I0
sg42
I0
sg43
I0
ssg65
(dp372
g40
I0
sg41
I0
sg42
I0
sg43
I0
ssg67
(dp373
g40
I0
sg41
I0
sg42
I2
sg43
I2
ssg69
I0
sg70
I0
sg71
S'Dyomendal'
p374
sg73
I10
sg74
I0
sg75
I25
sg76
I20
sg77
g78
sg79
(dp375
g81
I8
sg82
I8
sg83
I6
sg84
I11
sg85
I6
sg86
I7
sg87
I3
sg88
I7
sg89
I6
sg90
I10
sg91
I12
sg92
I10
sg93
I6
sg94
I7
sg95
I7
ssg96
I7
sg97
I0
sg98
I0
sg99
I0
sg100
F8.814814814814815
sg101
I0
sg102
I0
sg103
I0
sg104
g375
sg105
I0
sg106
g55
sg107
I0
sg108
I0
sg109
I0
sg110
I2
sg111
I0
sg112
I0
sg113
S'ES'
p376
sbsS'n14'
p377
(ijoueur
joueur
p378
(dp379
g27
I0
sg28
I0
sg29
I0
sg30
(ijoueur
rang
p380
(dp381
g33
I4
sg34
g277
sg36
g170
sbsg38
(dp382
g40
I0
sg41
I0
sg42
I0
sg43
I0
ssg44
(dp383
g40
I0
sg41
I0
sg42
I0
sg43
I0
ssg46
I0
sg47
I0
sg48
I0
sg49
I0
sg50
I0
sg51
(g52
S'AI'
p384
S'CE'
p385
g55
tp386
sg57
(ijoueur
rang
p387
(dp388
g33
I4
sg34
g277
sg36
g170
sbsg61
(dp389
g40
I0
sg41
I0
sg42
I0
sg43
I6
ssg63
(dp390
g40
I0
sg41
I0
sg42
I0
sg43
I0
ssg65
(dp391
g40
I0
sg41
I0
sg42
I0
sg43
I0
ssg67
(dp392
g40
I0
sg41
I0
sg42
I0
sg43
I6
ssg69
I0
sg70
I0
sg71
S'Haloepl'
p393
sg73
I5
sg74
I0
sg75
I18
sg76
I150
sg77
g78
sg79
(dp394
g81
I9
sg82
I5
sg83
I10
sg84
I10
sg85
I5
sg86
I10
sg87
I6
sg88
I13
sg89
I8
sg90
I9
sg91
I14
sg92
I8
sg93
I6
sg94
I8
sg95
I7
ssg96
I15
sg97
I0
sg98
I0
sg99
I0
sg100
F10.419354838709678
sg101
I0
sg102
I0
sg103
I0
sg104
g394
sg105
I0
sg106
g55
sg107
I0
sg108
I0
sg109
I0
sg110
I14
sg111
I0
sg112
I0
sg113
S'HL'
p395
sbsS'n15'
p396
g25
sS'n18'
p397
(ijoueur
joueur
p398
(dp399
g27
I0
sg28
I0
sg29
I0
sg30
(ijoueur
rang
p400
(dp401
g33
I1
sg34
S'<'
p402
sg36
g129
sbsg38
(dp403
g40
I0
sg41
I0
sg42
I0
sg43
I0
ssg44
(dp404
g40
I0
sg41
I0
sg42
I0
sg43
I0
ssg46
I0
sg47
I0
sg48
I0
sg49
I0
sg50
I0
sg51
(g52
S'DL'
p405
g55
g55
tp406
sg57
(ijoueur
rang
p407
(dp408
g33
I1
sg34
g402
sg36
g129
sbsg61
(dp409
g40
I0
sg41
I0
sg42
I2
sg43
I0
ssg63
(dp410
g40
I0
sg41
I0
sg42
I0
sg43
I0
ssg65
(dp411
g40
I0
sg41
I0
sg42
I0
sg43
I0
ssg67
(dp412
g40
I0
sg41
I0
sg42
I2
sg43
I0
ssg69
I0
sg70
I0
sg71
S'Nowak'
p413
sg73
I2
sg74
I0
sg75
I14
sg76
I23
sg77
g78
sg79
(dp414
g81
I7
sg82
I10
sg83
I8
sg84
I9
sg85
I5
sg86
I9
sg87
I0
sg88
I10
sg89
I2
sg90
I6
sg91
I7
sg92
I8
sg93
I0
sg94
I7
sg95
I4
ssg96
I0
sg97
I0
sg98
I0
sg99
I0
sg100
F8.407407407407407
sg101
I0
sg102
I0
sg103
I0
sg104
g414
sg105
I0
sg106
g55
sg107
I0
sg108
I0
sg109
I0
sg110
I2
sg111
I0
sg112
I0
sg113
S'HL'
p415
sbsS'n19'
p416
g224
sS'n22'
p417
(ijoueur
joueur
p418
(dp419
g27
I0
sg28
I0
sg29
I0
sg30
(ijoueur
rang
p420
(dp421
g33
I5
sg34
S'**'
p422
sg36
g37
sbsg38
(dp423
g40
I0
sg41
I0
sg42
I5
sg43
I1
ssg44
(dp424
g40
I0
sg41
I0
sg42
I0
sg43
I0
ssg46
I0
sg47
I0
sg48
I0
sg49
I0
sg50
I0
sg51
(g52
S'C1'
p425
S'AI'
p426
g55
tp427
sg57
(ijoueur
rang
p428
(dp429
g33
I5
sg34
S'**'
p430
sg36
g37
sbsg61
(dp431
g40
I0
sg41
I0
sg42
I0
sg43
I0
ssg63
(dp432
g40
I0
sg41
I0
sg42
I5
sg43
I1
ssg65
(dp433
g40
I0
sg41
I0
sg42
I0
sg43
I0
ssg67
(dp434
g40
I0
sg41
I0
sg42
I0
sg43
I0
ssg69
I0
sg70
I0
sg71
S"Oet'Pal"
p435
sg73
I2
sg74
I0
sg75
I15
sg76
I200
sg77
g78
sg79
(dp436
g81
I7
sg82
I4
sg83
I9
sg84
I11
sg85
I5
sg86
I11
sg87
I7
sg88
I13
sg89
I9
sg90
I7
sg91
I8
sg92
I8
sg93
I8
sg94
I8
sg95
I4
ssg96
I9
sg97
I0
sg98
I0
sg99
I0
sg100
F8.8
sg101
I0
sg102
I0
sg103
I0
sg104
g436
sg105
I0
sg106
g55
sg107
I0
sg108
I0
sg109
I0
sg110
I20
sg111
I0
sg112
I0
sg113
S'HL'
p437
sbsS'n21'
p438
g205
sS'n20'
p439
(ijoueur
joueur
p440
(dp441
g27
I0
sg28
I0
sg29
I0
sg30
(ijoueur
rang
p442
(dp443
g33
I5
sg34
S'**'
p444
sg36
g37
sbsg38
(dp445
g40
I0
sg41
I0
sg42
I0
sg43
I0
ssg44
(dp446
g40
I0
sg41
I0
sg42
I0
sg43
I0
ssg46
I0
sg47
I0
sg48
I0
sg49
I0
sg50
I0
sg51
(g52
S'DO'
p447
S'CE'
p448
g55
tp449
sg57
(ijoueur
rang
p450
(dp451
g33
I3
sg34
S'^^^'
p452
sg36
g229
sbsg61
(dp453
g40
I0
sg41
I0
sg42
I5
sg43
I1
ssg63
(dp454
g40
I0
sg41
I0
sg42
I0
sg43
I0
ssg65
(dp455
g40
I0
sg41
I0
sg42
I0
sg43
I0
ssg67
(dp456
g40
I0
sg41
I0
sg42
I5
sg43
I1
ssg69
I0
sg70
I0
sg71
S'Skem'
p457
sg73
I9
sg74
I0
sg75
I24
sg76
I11
sg77
g78
sg79
(dp458
g81
I10
sg82
I6
sg83
I8
sg84
I10
sg85
I3
sg86
I6
sg87
I7
sg88
I8
sg89
I8
sg90
I8
sg91
I7
sg92
I6
sg93
I7
sg94
I10
sg95
I6
ssg96
I2
sg97
I0
sg98
I0
sg99
I0
sg100
F8.363636363636363
sg101
I0
sg102
I0
sg103
I0
sg104
g458
sg105
I0
sg106
g55
sg107
I0
sg108
I0
sg109
I0
sg110
I1
sg111
I0
sg112
I0
sg113
g114
sbsS'n8'
p459
g185
sS'n9'
p460
(ijoueur
joueur
p461
(dp462
g27
I0
sg28
I0
sg29
I0
sg30
(ijoueur
rang
p463
(dp464
g33
I4
sg34
g169
sg36
g170
sbsg38
(dp465
g40
I0
sg41
I0
sg42
I0
sg43
I0
ssg44
(dp466
g40
I0
sg41
I0
sg42
I0
sg43
I0
ssg46
I0
sg47
I0
sg48
I1
sg49
I0
sg50
I0
sg51
(g52
S'DM'
p467
g55
g55
tp468
sg57
(ijoueur
rang
p469
(dp470
g33
I4
sg34
g169
sg36
g170
sbsg61
(dp471
g40
I0
sg41
I0
sg42
I0
sg43
I5
ssg63
(dp472
g40
I0
sg41
I0
sg42
I0
sg43
I0
ssg65
(dp473
g40
I0
sg41
I0
sg42
I0
sg43
I0
ssg67
(dp474
g40
I0
sg41
I0
sg42
I0
sg43
I5
ssg69
I0
sg70
I0
sg71
S'Tradw'
p475
sg73
I5
sg74
I0
sg75
I15
sg76
I100
sg77
g78
sg79
(dp476
g81
I8
sg82
I5
sg83
I8
sg84
I10
sg85
I4
sg86
I9
sg87
I5
sg88
I10
sg89
I6
sg90
I9
sg91
I7
sg92
I12
sg93
I5
sg94
I10
sg95
I7
ssg96
I5
sg97
I0
sg98
I0
sg99
I0
sg100
F8.413793103448276
sg101
I0
sg102
I0
sg103
I0
sg104
g476
sg105
I0
sg106
g55
sg107
I0
sg108
I0
sg109
I0
sg110
I10
sg111
I1
sg112
I0
sg113
S'HL'
p477
sbsS'n1'
p478
(ijoueur
joueur
p479
(dp480
g27
I0
sg28
I0
sg29
I0
sg30
(ijoueur
rang
p481
(dp482
g33
I4
sg34
g277
sg36
g170
sbsg38
(dp483
g40
I0
sg41
I0
sg42
I0
sg43
I0
ssg44
(dp484
g40
I0
sg41
I0
sg42
I0
sg43
I0
ssg46
I0
sg47
I0
sg48
I0
sg49
I0
sg50
I0
sg51
(g52
S'PI'
p485
g55
g55
tp486
sg57
(ijoueur
rang
p487
(dp488
g33
I4
sg34
g277
sg36
g170
sbsg61
(dp489
g40
I0
sg41
I0
sg42
I2
sg43
I4
ssg63
(dp490
g40
I0
sg41
I0
sg42
I0
sg43
I0
ssg65
(dp491
g40
I0
sg41
I0
sg42
I0
sg43
I0
ssg67
(dp492
g40
I0
sg41
I0
sg42
I2
sg43
I4
ssg69
I0
sg70
I0
sg71
S'Zwiek'
p493
sg73
I8
sg74
I0
sg75
I18
sg76
I65
sg77
g78
sg79
(dp494
g81
I8
sg82
I9
sg83
I10
sg84
I10
sg85
I3
sg86
I9
sg87
I3
sg88
I12
sg89
I4
sg90
I7
sg91
I11
sg92
I8
sg93
I3
sg94
I7
sg95
I7
ssg96
I10
sg97
I0
sg98
I0
sg99
I0
sg100
F9.0
sg101
I0
sg102
I0
sg103
I0
sg104
g494
sg105
I0
sg106
g55
sg107
I0
sg108
I0
sg109
I0
sg110
I7
sg111
I0
sg112
I0
sg113
S'HL'
p495
sbsS'n2'
p496
(ijoueur
joueur
p497
(dp498
g27
I0
sg28
I0
sg29
I0
sg30
(ijoueur
rang
p499
(dp500
g33
I5
sg34
S'**'
p501
sg36
g37
sbsg38
(dp502
g40
I0
sg41
I0
sg42
I0
sg43
I0
ssg44
(dp503
g40
I0
sg41
I0
sg42
I0
sg43
I0
ssg46
I0
sg47
I0
sg48
I0
sg49
I0
sg50
I0
sg51
(g52
S'TA'
p504
g55
g55
tp505
sg57
(ijoueur
rang
p506
(dp507
g33
I5
sg34
S'**'
p508
sg36
g37
sbsg61
(dp509
g40
I0
sg41
I0
sg42
I0
sg43
I6
ssg63
(dp510
g40
I0
sg41
I0
sg42
I0
sg43
I0
ssg65
(dp511
g40
I0
sg41
I0
sg42
I0
sg43
I0
ssg67
(dp512
g40
I0
sg41
I0
sg42
I0
sg43
I6
ssg69
I0
sg70
I0
sg71
S'Gruggnik'
p513
sg73
I4
sg74
I0
sg75
I16
sg76
I150
sg77
g78
sg79
(dp514
g81
I11
sg82
I9
sg83
I7
sg84
I12
sg85
I6
sg86
I11
sg87
I5
sg88
I11
sg89
I7
sg90
I7
sg91
I7
sg92
I9
sg93
I3
sg94
I10
sg95
I10
ssg96
I14
sg97
I0
sg98
I0
sg99
I0
sg100
F9.96551724137931
sg101
I0
sg102
I0
sg103
I0
sg104
g514
sg105
I0
sg106
g55
sg107
I0
sg108
I0
sg109
I0
sg110
I15
sg111
I0
sg112
I0
sg113
g114
sbsS'n3'
p515
(ijoueur
joueur
p516
(dp517
g27
I0
sg28
I0
sg29
I0
sg30
(ijoueur
rang
p518
(dp519
g33
I5
sg34
S'xx'
p520
sg36
g37
sbsg38
(dp521
g40
I0
sg41
I0
sg42
I0
sg43
I0
ssg44
(dp522
g40
I0
sg41
I0
sg42
I0
sg43
I0
ssg46
I0
sg47
I0
sg48
I0
sg49
I0
sg50
I0
sg51
(g52
S'PI'
p523
S'TA'
p524
S'N8'
p525
tp526
sg57
(ijoueur
rang
p527
(dp528
g33
I5
sg34
S'xx'
p529
sg36
g37
sbsg61
(dp530
g40
I0
sg41
I0
sg42
I0
sg43
I5
ssg63
(dp531
g40
I0
sg41
I0
sg42
I0
sg43
I0
ssg65
(dp532
g40
I0
sg41
I0
sg42
I0
sg43
I0
ssg67
(dp533
g40
I0
sg41
I0
sg42
I0
sg43
I5
ssg69
I0
sg70
I0
sg71
S"Nav'Pil"
p534
sg73
I6
sg74
I0
sg75
I18
sg76
I350
sg77
g78
sg79
(dp535
g81
I8
sg82
I10
sg83
I7
sg84
I10
sg85
I4
sg86
I14
sg87
I3
sg88
I14
sg89
I5
sg90
I6
sg91
I7
sg92
I13
sg93
I5
sg94
I8
sg95
I11
ssg96
I10
sg97
I0
sg98
I0
sg99
I0
sg100
F10.586206896551724
sg101
I0
sg102
I0
sg103
I0
sg104
g535
sg105
I0
sg106
g55
sg107
I0
sg108
I0
sg109
I0
sg110
I35
sg111
I0
sg112
I0
sg113
S'HL'
p536
sbsS'n4'
p537
g165
sS'n5'
p538
g247
sS'n6'
p539
(ijoueur
joueur
p540
(dp541
g27
I0
sg28
I0
sg29
I0
sg30
(ijoueur
rang
p542
(dp543
g33
I3
sg34
S'<<<'
p544
sg36
g229
sbsg38
(dp545
g40
I0
sg41
I0
sg42
I2
sg43
I2
ssg44
(dp546
g40
I0
sg41
I0
sg42
I0
sg43
I0
ssg46
I0
sg47
I0
sg48
I0
sg49
I0
sg50
I0
sg51
(g52
S'TL'
p547
S'DL'
p548
g55
tp549
sg57
(ijoueur
rang
p550
(dp551
g33
I3
sg34
S'<<<'
p552
sg36
g229
sbsg61
(dp553
g40
I0
sg41
I0
sg42
I0
sg43
I2
ssg63
(dp554
g40
I0
sg41
I0
sg42
I2
sg43
I2
ssg65
(dp555
g40
I0
sg41
I0
sg42
I0
sg43
I0
ssg67
(dp556
g40
I0
sg41
I0
sg42
I0
sg43
I2
ssg69
I0
sg70
I0
sg71
S'Yrmatot'
p557
sg73
I8
sg74
I0
sg75
I20
sg76
I75
sg77
g78
sg79
(dp558
g81
I7
sg82
I10
sg83
I7
sg84
I10
sg85
I7
sg86
I9
sg87
I1
sg88
I9
sg89
I2
sg90
I7
sg91
I9
sg92
I9
sg93
I1
sg94
I9
sg95
I5
ssg96
I10
sg97
I0
sg98
I0
sg99
I0
sg100
F8.935483870967742
sg101
I0
sg102
I0
sg103
I0
sg104
g558
sg105
I0
sg106
g55
sg107
I0
sg108
I0
sg109
I0
sg110
I8
sg111
I0
sg112
I0
sg113
S'OG'
p559
sbsS'n7'
p560
g116
ssS'remplacements'
p561
(dp562
g335
S'n0'
p563
sg356
g563
sg397
g563
sg416
g563
sg417
g563
sg438
g563
sg439
g563
ssb.