(iclub
compo
p0
(dp1
S'caracs_old'
p2
(dp3
S'A'
p4
F174.5
sS'ME'
p5
F103.5
sS'E'
p6
I213
sS'OplusAV'
p7
F100.5
sS'TO_off'
p8
F129.5
sS'OplusAR'
p9
F86.5
sS'M'
p10
F60.0
sS'JP'
p11
F95.5
sS'OmoinsAR'
p12
F47.5
sS'PA'
p13
F113.5
sS'TO_def'
p14
F120.0
sS'OmoinsAV'
p15
F61.5
sS'R'
p16
F207.0
ssS'totaux_old'
p17
(dp18
S'T2'
p19
F191.75
sS'T3'
p20
F106.5
sS'T1'
p21
F217.625
ssS'roles'
p22
(dp23
S'drop1'
p24
(ijoueur
joueur
p25
(dp26
S'rouges_total'
p27
I0
sS'drops_total'
p28
I0
sS'blessure'
p29
I0
sS'RG_max'
p30
(ijoueur
rang
p31
(dp32
S'type_nb'
p33
I4
sS'rang'
p34
S'*'
p35
sS'type'
p36
S'heros'
p37
sbsS'MJ2_total'
p38
(dp39
S'SR'
p40
I0
sS'ST'
p41
I0
sS'CR'
p42
I0
sS'CT'
p43
I0
ssS'MJ3_total'
p44
(dp45
g40
I0
sg41
I0
sg42
I0
sg43
I0
ssS'drop_rates_total'
p46
I0
sS'drop_rates_saison'
p47
I0
sS'essais_saison'
p48
I0
sS'penalite_ratees_saison'
p49
I0
sS'transformations_saison'
p50
I2
sS'postes'
p51
(S'dummy'
p52
S'DM'
p53
S'DO'
p54
S''
p55
tp56
sS'RG'
p57
(ijoueur
rang
p58
(dp59
g33
I4
sg34
g35
sg36
g37
sbsS'MJ1'
p60
(dp61
g40
I0
sg41
I0
sg42
I0
sg43
I1
ssS'MJ2'
p62
(dp63
g40
I0
sg41
I0
sg42
I0
sg43
I0
ssS'MJ3'
p64
(dp65
g40
I0
sg41
I0
sg42
I0
sg43
I0
ssS'MJ1_total'
p66
(dp67
g40
I0
sg41
I0
sg42
I0
sg43
I1
ssS'penalites_total'
p68
I5
sS'penalites_saison'
p69
I5
sS'nom'
p70
S'Dlaonal'
p71
sS'C'
p72
I7
sS'transformations_total'
p73
I2
sS'D'
p74
I18
sS'VAL'
p75
I147
sS'club'
p76
S'FS'
p77
sS'caracs'
p78
(dp79
S'A'
p80
I12
sS'ME'
p81
I3
sS'RP2'
p82
I8
sS'E'
p83
I12
sS'TO'
p84
I8
sS'RP1'
p85
I6
sS'JP'
p86
I9
sS'RP_tot'
p87
I8
sS'P'
p88
I10
sS'PA'
p89
I13
sS'M'
p90
I9
sS'R'
p91
I5
sS'TB'
p92
I10
sS'PL'
p93
I7
sS'TA'
p94
I4
ssS'fatigue'
p95
I2
sS'drop_ratees_total'
p96
I0
sS'blessures_total'
p97
I0
sS'XP'
p98
I0
sS'EV'
p99
F10.206896551724139
sS'penalite_ratees_total'
p100
I0
sS'blessures_saison'
p101
I0
sS'jaunes_total'
p102
I0
sS'caracs_sans_fatigue'
p103
g79
sS'rouges_saison'
p104
I0
sS'anciens_clubs'
p105
g55
sS'transformation_ratees_total'
p106
I0
sS'drops_saison'
p107
I0
sS'transformation_ratees_saison'
p108
I0
sS'MS'
p109
I13
sS'essais_total'
p110
I1
sS'jaunes_saison'
p111
I0
sS'ARM'
p112
S'ES'
p113
sbsS'SA_scd'
p114
(ijoueur
joueur
p115
(dp116
g27
I0
sg28
I0
sg29
I0
sg30
(ijoueur
rang
p117
(dp118
g33
I4
sg34
g35
sg36
g37
sbsg38
(dp119
g40
I0
sg41
I0
sg42
I0
sg43
I0
ssg44
(dp120
g40
I0
sg41
I0
sg42
I0
sg43
I0
ssg46
I0
sg47
I0
sg48
I0
sg49
I0
sg50
I0
sg51
(g52
S'TL'
p121
g55
g55
tp122
sg57
(ijoueur
rang
p123
(dp124
g33
I4
sg34
g35
sg36
g37
sbsg60
(dp125
g40
I0
sg41
I0
sg42
I0
sg43
I1
ssg62
(dp126
g40
I0
sg41
I0
sg42
I0
sg43
I0
ssg64
(dp127
g40
I0
sg41
I0
sg42
I0
sg43
I0
ssg66
(dp128
g40
I0
sg41
I0
sg42
I0
sg43
I1
ssg68
I0
sg69
I0
sg70
S'Senfel'
p129
sg72
I2
sg73
I0
sg74
I14
sg75
I70
sg76
g77
sg78
(dp130
g80
I10
sg81
I13
sg82
I11
sg83
I11
sg84
I13
sg85
I9
sg86
I6
sg87
I13
sg88
I10
sg89
I8
sg90
I9
sg91
I13
sg92
I8
sg93
I10
sg94
I9
ssg95
I3
sg96
I0
sg97
I0
sg98
I0
sg99
F11.736842105263158
sg100
I0
sg101
I0
sg102
I0
sg103
g130
sg104
I0
sg105
g55
sg106
I0
sg107
I0
sg108
I0
sg109
I7
sg110
I11
sg111
I0
sg112
S'ES'
p131
sbsS'RJL'
p132
(ijoueur
joueur
p133
(dp134
g27
I0
sg28
I16
sg29
I0
sg30
(ijoueur
rang
p135
(dp136
g33
I5
sg34
S'**'
p137
sg36
S'seigneur'
p138
sbsg38
(dp139
g40
I0
sg41
I0
sg42
I0
sg43
I0
ssg44
(dp140
g40
I0
sg41
I0
sg42
I0
sg43
I0
ssg46
I0
sg47
I0
sg48
I0
sg49
I0
sg50
I0
sg51
(g52
S'DO'
p141
S'DM'
p142
g55
tp143
sg57
(ijoueur
rang
p144
(dp145
g33
I5
sg34
S'**'
p146
sg36
g138
sbsg60
(dp147
g40
I0
sg41
I0
sg42
I0
sg43
I1
ssg62
(dp148
g40
I0
sg41
I0
sg42
I0
sg43
I0
ssg64
(dp149
g40
I0
sg41
I0
sg42
I0
sg43
I0
ssg66
(dp150
g40
I0
sg41
I0
sg42
I0
sg43
I1
ssg68
I0
sg69
I0
sg70
S'Vorhovlen'
p151
sg72
I6
sg73
I0
sg74
I14
sg75
I234
sg76
g77
sg78
(dp152
g80
I11
sg81
I6
sg82
I10
sg83
I10
sg84
I6
sg85
I7
sg86
I11
sg87
I10
sg88
I13
sg89
I13
sg90
I10
sg91
I9
sg92
I8
sg93
I11
sg94
I5
ssg95
I1
sg96
I0
sg97
I0
sg98
I0
sg99
F11.242424242424242
sg100
I0
sg101
I0
sg102
I0
sg103
g152
sg104
I0
sg105
g55
sg106
I0
sg107
I0
sg108
I0
sg109
I41
sg110
I5
sg111
I0
sg112
S'CV'
p153
sbsS'cap'
p154
(ijoueur
joueur
p155
(dp156
g27
I0
sg28
I0
sg29
I0
sg30
(ijoueur
rang
p157
(dp158
g33
I5
sg34
S'**'
p159
sg36
g138
sbsg38
(dp160
g40
I0
sg41
I0
sg42
I0
sg43
I0
ssg44
(dp161
g40
I0
sg41
I0
sg42
I0
sg43
I0
ssg46
I0
sg47
I0
sg48
I0
sg49
I0
sg50
I0
sg51
(g52
S'TA'
p162
S'PI'
p163
g55
tp164
sg57
(ijoueur
rang
p165
(dp166
g33
I5
sg34
S'**'
p167
sg36
g138
sbsg60
(dp168
g40
I0
sg41
I0
sg42
I0
sg43
I1
ssg62
(dp169
g40
I0
sg41
I0
sg42
I0
sg43
I0
ssg64
(dp170
g40
I0
sg41
I0
sg42
I0
sg43
I0
ssg66
(dp171
g40
I0
sg41
I0
sg42
I0
sg43
I1
ssg68
I0
sg69
I0
sg70
S"Ayak'Ed"
p172
sg72
I7
sg73
I0
sg74
I21
sg75
I219
sg76
g77
sg78
(dp173
g80
I12
sg81
I10
sg82
I9
sg83
I13
sg84
I6
sg85
I14
sg86
I4
sg87
I16
sg88
I5
sg89
I8
sg90
I7
sg91
I11
sg92
I6
sg93
I7
sg94
I11
ssg95
I3
sg96
I0
sg97
I0
sg98
I0
sg99
F11.137931034482758
sg100
I0
sg101
I0
sg102
I0
sg103
g173
sg104
I0
sg105
S'MDL9'
p174
sg106
I0
sg107
I0
sg108
I0
sg109
I35
sg110
I4
sg111
I0
sg112
S'HL'
p175
sbsS'B4'
p176
g25
sS'RJC'
p177
g133
sS'B1'
p178
(ijoueur
joueur
p179
(dp180
g27
I0
sg28
I0
sg29
I0
sg30
(ijoueur
rang
p181
(dp182
g33
I4
sg34
S'x'
p183
sg36
g37
sbsg38
(dp184
g40
I0
sg41
I0
sg42
I0
sg43
I0
ssg44
(dp185
g40
I0
sg41
I0
sg42
I0
sg43
I0
ssg46
I0
sg47
I0
sg48
I1
sg49
I0
sg50
I0
sg51
(g52
S'AI'
p186
g55
g55
tp187
sg57
(ijoueur
rang
p188
(dp189
g33
I4
sg34
g183
sg36
g37
sbsg60
(dp190
g40
I0
sg41
I0
sg42
I0
sg43
I1
ssg62
(dp191
g40
I0
sg41
I0
sg42
I0
sg43
I0
ssg64
(dp192
g40
I0
sg41
I0
sg42
I0
sg43
I0
ssg66
(dp193
g40
I0
sg41
I0
sg42
I0
sg43
I1
ssg68
I8
sg69
I0
sg70
S'Foutor'
p194
sg72
I6
sg73
I5
sg74
I20
sg75
I278
sg76
g77
sg78
(dp195
g80
I9
sg81
I6
sg82
I13
sg83
I12
sg84
I3
sg85
I10
sg86
I9
sg87
I16
sg88
I8
sg89
I9
sg90
I11
sg91
I11
sg92
I11
sg93
I7
sg94
I5
ssg95
I4
sg96
I0
sg97
I0
sg98
I0
sg99
F10.848484848484848
sg100
I0
sg101
I0
sg102
I0
sg103
g195
sg104
I0
sg105
S'MDL9'
p196
sg106
I0
sg107
I0
sg108
I0
sg109
I39
sg110
I11
sg111
I0
sg112
S'OG'
p197
sbsS'B2'
p198
g25
sS'B3'
p199
g25
sS'SA_pcp2'
p200
(ijoueur
joueur
p201
(dp202
g27
I0
sg28
I0
sg29
I0
sg30
(ijoueur
rang
p203
(dp204
g33
I5
sg34
S'**'
p205
sg36
g138
sbsg38
(dp206
g40
I0
sg41
I0
sg42
I0
sg43
I0
ssg44
(dp207
g40
I0
sg41
I0
sg42
I0
sg43
I0
ssg46
I0
sg47
I0
sg48
I0
sg49
I0
sg50
I0
sg51
(g52
S'DL'
p208
g55
g55
tp209
sg57
(ijoueur
rang
p210
(dp211
g33
I2
sg34
S'<<'
p212
sg36
S'special'
p213
sbsg60
(dp214
g40
I0
sg41
I0
sg42
I1
sg43
I0
ssg62
(dp215
g40
I0
sg41
I0
sg42
I0
sg43
I0
ssg64
(dp216
g40
I0
sg41
I0
sg42
I0
sg43
I0
ssg66
(dp217
g40
I0
sg41
I0
sg42
I1
sg43
I0
ssg68
I0
sg69
I0
sg70
S'Qlapaross'
p218
sg72
I10
sg73
I0
sg74
I26
sg75
I21
sg76
g77
sg78
(dp219
g80
I10
sg81
I8
sg82
I6
sg83
I9
sg84
I14
sg85
I8
sg86
I5
sg87
I8
sg88
I5
sg89
I9
sg90
I12
sg91
I8
sg92
I3
sg93
I8
sg94
I3
ssg95
I2
sg96
I0
sg97
I0
sg98
I0
sg99
F9.617647058823529
sg100
I0
sg101
I0
sg102
I0
sg103
g219
sg104
I0
sg105
g55
sg106
I0
sg107
I0
sg108
I0
sg109
I2
sg110
I0
sg111
I0
sg112
S'ES'
p220
sbsS'SA_pcp1'
p221
(ijoueur
joueur
p222
(dp223
g27
I0
sg28
I0
sg29
I0
sg30
(ijoueur
rang
p224
(dp225
g33
I5
sg34
S'**'
p226
sg36
g138
sbsg38
(dp227
g40
I0
sg41
I0
sg42
I0
sg43
I0
ssg44
(dp228
g40
I0
sg41
I0
sg42
I0
sg43
I1
ssg46
I0
sg47
I0
sg48
I0
sg49
I0
sg50
I0
sg51
(g52
S'TL'
p229
S'N8'
p230
S'DL'
p231
tp232
sg57
(ijoueur
rang
p233
(dp234
g33
I4
sg34
g35
sg36
g37
sbsg60
(dp235
g40
I0
sg41
I0
sg42
I0
sg43
I0
ssg62
(dp236
g40
I0
sg41
I0
sg42
I0
sg43
I0
ssg64
(dp237
g40
I0
sg41
I0
sg42
I0
sg43
I1
ssg66
(dp238
g40
I0
sg41
I0
sg42
I0
sg43
I0
ssg68
I0
sg69
I0
sg70
S'Tafaol'
p239
sg72
I8
sg73
I0
sg74
I23
sg75
I75
sg76
g77
sg78
(dp240
g80
I11
sg81
I11
sg82
I9
sg83
I11
sg84
I14
sg85
I12
sg86
I6
sg87
I14
sg88
I7
sg89
I11
sg90
I10
sg91
I7
sg92
I7
sg93
I10
sg94
I4
ssg95
I6
sg96
I0
sg97
I0
sg98
I0
sg99
F10.710526315789474
sg100
I0
sg101
I0
sg102
I0
sg103
g240
sg104
I0
sg105
g55
sg106
I0
sg107
I0
sg108
I0
sg109
I10
sg110
I0
sg111
I0
sg112
S'ES'
p241
sbsS'drop3'
p242
(ijoueur
joueur
p243
(dp244
g27
I0
sg28
I17
sg29
I0
sg30
(ijoueur
rang
p245
(dp246
g33
I4
sg34
g35
sg36
g37
sbsg38
(dp247
g40
I0
sg41
I0
sg42
I1
sg43
I0
ssg44
(dp248
g40
I0
sg41
I0
sg42
I0
sg43
I0
ssg46
I0
sg47
I0
sg48
I0
sg49
I0
sg50
I0
sg51
(g52
S'C1'
p249
S'DO'
p250
S'DM'
p251
tp252
sg57
(ijoueur
rang
p253
(dp254
g33
I4
sg34
g35
sg36
g37
sbsg60
(dp255
g40
I0
sg41
I0
sg42
I0
sg43
I0
ssg62
(dp256
g40
I0
sg41
I0
sg42
I1
sg43
I0
ssg64
(dp257
g40
I0
sg41
I0
sg42
I0
sg43
I0
ssg66
(dp258
g40
I0
sg41
I0
sg42
I0
sg43
I0
ssg68
I259
sg69
I0
sg70
S'Aiol'
p259
sg72
I2
sg73
I109
sg74
I12
sg75
I70
sg76
g77
sg78
(dp260
g80
I12
sg81
I7
sg82
I8
sg83
I11
sg84
I7
sg85
I7
sg86
I9
sg87
I8
sg88
I10
sg89
I11
sg90
I9
sg91
I9
sg92
I11
sg93
I9
sg94
I7
ssg95
I2
sg96
I0
sg97
I0
sg98
I0
sg99
F9.9375
sg100
I0
sg101
I0
sg102
I0
sg103
g260
sg104
I0
sg105
g55
sg106
I0
sg107
I0
sg108
I0
sg109
I7
sg110
I8
sg111
I0
sg112
S'ES'
p261
sbsS'SA_remp1'
p262
(ijoueur
joueur
p263
(dp264
g27
I0
sg28
I0
sg29
I0
sg30
(ijoueur
rang
p265
(dp266
g33
I6
sg34
S'***'
p267
sg36
S'personnage'
p268
sbsg38
(dp269
g40
I0
sg41
I0
sg42
I0
sg43
I1
ssg44
(dp270
g40
I0
sg41
I0
sg42
I0
sg43
I0
ssg46
I0
sg47
I0
sg48
I0
sg49
I0
sg50
I0
sg51
(g52
S'N8'
p271
S'TL'
p272
g55
tp273
sg57
(ijoueur
rang
p274
(dp275
g33
I6
sg34
S'***'
p276
sg36
g268
sbsg60
(dp277
g40
I0
sg41
I0
sg42
I0
sg43
I0
ssg62
(dp278
g40
I0
sg41
I0
sg42
I0
sg43
I1
ssg64
(dp279
g40
I0
sg41
I0
sg42
I0
sg43
I0
ssg66
(dp280
g40
I0
sg41
I0
sg42
I0
sg43
I0
ssg68
I0
sg69
I0
sg70
S'Archaon'
p281
sg72
I1
sg73
I0
sg74
I9
sg75
I600
sg76
g77
sg78
(dp282
g80
I13
sg81
I10
sg82
I9
sg83
I11
sg84
I11
sg85
I12
sg86
I5
sg87
I14
sg88
I4
sg89
I11
sg90
I8
sg91
I13
sg92
I5
sg93
I12
sg94
I6
ssg95
I3
sg96
I0
sg97
I0
sg98
I0
sg99
F12.172413793103448
sg100
I0
sg101
I0
sg102
I0
sg103
g282
sg104
I0
sg105
S'SN10'
p283
sg106
I0
sg107
I0
sg108
I0
sg109
I110
sg110
I20
sg111
I0
sg112
S'CHS'
p284
sbsS'drop2'
p285
g133
sS'SA_remp2'
p286
(ijoueur
joueur
p287
(dp288
g27
I0
sg28
I0
sg29
I0
sg30
(ijoueur
rang
p289
(dp290
g33
I5
sg34
S'**'
p291
sg36
g138
sbsg38
(dp292
g40
I0
sg41
I0
sg42
I0
sg43
I1
ssg44
(dp293
g40
I0
sg41
I0
sg42
I0
sg43
I0
ssg46
I0
sg47
I0
sg48
I0
sg49
I0
sg50
I0
sg51
(g52
S'TA'
p294
S'PI'
p295
g55
tp296
sg57
(ijoueur
rang
p297
(dp298
g33
I5
sg34
S'**'
p299
sg36
g138
sbsg60
(dp300
g40
I0
sg41
I0
sg42
I0
sg43
I0
ssg62
(dp301
g40
I0
sg41
I0
sg42
I0
sg43
I1
ssg64
(dp302
g40
I0
sg41
I0
sg42
I0
sg43
I0
ssg66
(dp303
g40
I0
sg41
I0
sg42
I0
sg43
I0
ssg68
I0
sg69
I0
sg70
S'Kholkov'
p304
sg72
I7
sg73
I0
sg74
I22
sg75
I184
sg76
g77
sg78
(dp305
g80
I13
sg81
I12
sg82
I10
sg83
I11
sg84
I9
sg85
I10
sg86
I6
sg87
I13
sg88
I5
sg89
I9
sg90
I10
sg91
I11
sg92
I7
sg93
I12
sg94
I10
ssg95
I3
sg96
I0
sg97
I0
sg98
I0
sg99
F11.413793103448276
sg100
I0
sg101
I0
sg102
I0
sg103
g305
sg104
I0
sg105
g55
sg106
I0
sg107
I0
sg108
I0
sg109
I23
sg110
I2
sg111
I0
sg112
S'CV'
p306
sbssS'totaux'
p307
(dp308
g19
I0
sg20
I0
sg21
I0
ssS'_compo_defaut_fatigue'
p309
Nsg78
(dp310
g4
I0
sg5
I0
sg6
I0
sg7
I0
sg8
I0
sg9
I0
sg10
I0
sg11
I0
sg12
I0
sg13
I0
sg14
I0
sg15
I0
sg16
I0
ssS'joueurs'
p311
(dp312
S'n12'
p313
g243
sS'n13'
p314
(ijoueur
joueur
p315
(dp316
g27
I0
sg28
I0
sg29
I0
sg30
(ijoueur
rang
p317
(dp318
g33
I4
sg34
g35
sg36
g37
sbsg38
(dp319
g40
I0
sg41
I0
sg42
I0
sg43
I0
ssg44
(dp320
g40
I0
sg41
I0
sg42
I0
sg43
I0
ssg46
I0
sg47
I0
sg48
I0
sg49
I0
sg50
I0
sg51
(g52
S'C2'
p321
S'AI'
p322
S'AR'
p323
tp324
sg57
(ijoueur
rang
p325
(dp326
g33
I4
sg34
g35
sg36
g37
sbsg60
(dp327
g40
I0
sg41
I0
sg42
I0
sg43
I1
ssg62
(dp328
g40
I0
sg41
I0
sg42
I0
sg43
I0
ssg64
(dp329
g40
I0
sg41
I0
sg42
I0
sg43
I0
ssg66
(dp330
g40
I0
sg41
I0
sg42
I0
sg43
I1
ssg68
I0
sS'carton_jaunes_saison'
p331
I1
sg69
I0
sg70
S'Oathel'
p332
sg72
I5
sg73
I0
sg74
I14
sg75
I126
sg76
g77
sS'carton_jaunes_total'
p333
I1
sg78
(dp334
g80
I14
sg81
I4
sg82
I11
sg83
I11
sg84
I7
sg85
I10
sg86
I9
sg87
I14
sg88
I10
sg89
I11
sg90
I9
sg91
I7
sg92
I7
sg93
I9
sg94
I5
ssg95
I2
sg96
I0
sg97
I0
sg98
I0
sg99
F11.0
sg100
I0
sg101
I0
sg102
I0
sg103
g334
sg104
I0
sg105
g55
sg106
I0
sg107
I0
sg108
I0
sg109
I13
sg110
I14
sg111
I0
sg112
S'HE'
p335
sbsS'n10'
p336
g133
sS'n11'
p337
(ijoueur
joueur
p338
(dp339
g27
I0
sg28
I0
sg29
I0
sg30
(ijoueur
rang
p340
(dp341
g33
I4
sg34
g183
sg36
g37
sbsg38
(dp342
g40
I0
sg41
I0
sg42
I0
sg43
I0
ssg44
(dp343
g40
I0
sg41
I0
sg42
I0
sg43
I0
ssg46
I0
sg47
I0
sg48
I0
sg49
I0
sg50
I0
sg51
(g52
S'AI'
p344
g55
g55
tp345
sg57
(ijoueur
rang
p346
(dp347
g33
I4
sg34
g183
sg36
g37
sbsg60
(dp348
g40
I0
sg41
I0
sg42
I0
sg43
I1
ssg62
(dp349
g40
I0
sg41
I0
sg42
I0
sg43
I0
ssg64
(dp350
g40
I0
sg41
I0
sg42
I0
sg43
I0
ssg66
(dp351
g40
I0
sg41
I0
sg42
I0
sg43
I1
ssg68
I0
sg69
I0
sg70
S"Waad'Up"
p352
sg72
I7
sg73
I0
sg74
I19
sg75
I20
sg76
g77
sg78
(dp353
g80
I11
sg81
I5
sg82
I10
sg83
I11
sg84
I2
sg85
I9
sg86
I7
sg87
I12
sg88
I5
sg89
I8
sg90
I13
sg91
I8
sg92
I3
sg93
I9
sg94
I4
ssg95
I4
sg96
I0
sg97
I0
sg98
I0
sg99
F10.548387096774194
sg100
I0
sg101
I0
sg102
I0
sg103
g353
sg104
I0
sg105
S'APA9'
p354
sg106
I0
sg107
I0
sg108
I0
sg109
I2
sg110
I6
sg111
I0
sg112
S'HL'
p355
sbsS'n16'
p356
(ijoueur
joueur
p357
(dp358
g27
I0
sg28
I0
sg29
I0
sg30
(ijoueur
rang
p359
(dp360
g33
I2
sg34
S'^^'
p361
sg36
g213
sbsg38
(dp362
g40
I0
sg41
I0
sg42
I0
sg43
I0
ssg44
(dp363
g40
I0
sg41
I0
sg42
I0
sg43
I0
ssg46
I0
sg47
I0
sg48
I0
sg49
I0
sg50
I0
sg51
(g52
S'TA'
p364
g55
g55
tp365
sg57
(ijoueur
rang
p366
(dp367
g33
I2
sg34
S'^^'
p368
sg36
g213
sbsg60
(dp369
g40
I0
sg41
I0
sg42
I1
sg43
I0
ssg62
(dp370
g40
I0
sg41
I0
sg42
I0
sg43
I0
ssg64
(dp371
g40
I0
sg41
I0
sg42
I0
sg43
I0
ssg66
(dp372
g40
I0
sg41
I0
sg42
I1
sg43
I0
ssg68
I0
sg69
I0
sg70
S'Fendal'
p373
sg72
I1
sg73
I0
sg74
I9
sg75
I8
sg76
g77
sg78
(dp374
g80
I11
sg81
I8
sg82
I6
sg83
I10
sg84
I6
sg85
I10
sg86
I4
sg87
I10
sg88
I7
sg89
I8
sg90
I9
sg91
I5
sg92
I5
sg93
I7
sg94
I12
ssg95
I1
sg96
I0
sg97
I0
sg98
I0
sg99
F8.586206896551724
sg100
I0
sg101
I0
sg102
I0
sg103
g374
sg104
I0
sg105
g55
sg106
I0
sg107
I0
sg108
I0
sg109
I2
sg110
I7
sg111
I0
sg112
S'ES'
p375
sbsS'n17'
p376
(ijoueur
joueur
p377
(dp378
g27
I0
sg28
I0
sg29
I0
sg30
(ijoueur
rang
p379
(dp380
g33
I5
sg34
S'**'
p381
sg36
g138
sbsg38
(dp382
g40
I0
sg41
I0
sg42
I0
sg43
I0
ssg44
(dp383
g40
I0
sg41
I0
sg42
I0
sg43
I0
ssg46
I0
sg47
I0
sg48
I0
sg49
I0
sg50
I0
sg51
(g52
S'PI'
p384
g55
g55
tp385
sg57
(ijoueur
rang
p386
(dp387
g33
I2
sg34
S'^^'
p388
sg36
g213
sbsg60
(dp389
g40
I0
sg41
I0
sg42
I0
sg43
I0
ssg62
(dp390
g40
I0
sg41
I0
sg42
I0
sg43
I0
ssg64
(dp391
g40
I0
sg41
I0
sg42
I0
sg43
I0
ssg66
(dp392
g40
I0
sg41
I0
sg42
I0
sg43
I0
ssg68
I0
sg69
I0
sg70
S'Stok'
p393
sg72
I10
sg73
I0
sg74
I22
sg75
I9
sg76
g77
sg78
(dp394
g80
I7
sg81
I8
sg82
I8
sg83
I9
sg84
I6
sg85
I7
sg86
I4
sg87
I8
sg88
I3
sg89
I6
sg90
I8
sg91
I8
sg92
I1
sg93
I9
sg94
I6
ssg95
I0
sg96
I0
sg97
I0
sg98
I0
sg99
F8.148148148148149
sg100
I0
sg101
I0
sg102
I0
sg103
g394
sg104
I0
sg105
g55
sg106
I0
sg107
I0
sg108
I0
sg109
I1
sg110
I0
sg111
I0
sg112
S'O'
p395
sbsS'n14'
p396
g179
sS'n15'
p397
(ijoueur
joueur
p398
(dp399
g27
I0
sg28
I0
sg29
I0
sg30
(ijoueur
rang
p400
(dp401
g33
I4
sg34
g35
sg36
g37
sbsg38
(dp402
g40
I0
sg41
I0
sg42
I0
sg43
I0
ssg44
(dp403
g40
I0
sg41
I0
sg42
I0
sg43
I0
ssg46
I0
sg47
I0
sg48
I0
sg49
I0
sg50
I0
sg51
(g52
S'AR'
p404
S'CE'
p405
g55
tp406
sg57
(ijoueur
rang
p407
(dp408
g33
I2
sg34
S'^^'
p409
sg36
g213
sbsg60
(dp410
g40
I0
sg41
I0
sg42
I0
sg43
I1
ssg62
(dp411
g40
I0
sg41
I0
sg42
I0
sg43
I0
ssg64
(dp412
g40
I0
sg41
I0
sg42
I0
sg43
I0
ssg66
(dp413
g40
I0
sg41
I0
sg42
I0
sg43
I1
ssg68
I0
sg69
I0
sg70
S'Ueltoir'
p414
sg72
I11
sg73
I0
sg74
I21
sg75
I17
sg76
g77
sg78
(dp415
g80
I11
sg81
I4
sg82
I9
sg83
I9
sg84
I8
sg85
I6
sg86
I8
sg87
I9
sg88
I8
sg89
I11
sg90
I11
sg91
I8
sg92
I8
sg93
I11
sg94
I3
ssg95
I6
sg96
I0
sg97
I0
sg98
I0
sg99
F10.0
sg100
I0
sg101
I0
sg102
I0
sg103
g415
sg104
I0
sg105
g55
sg106
I0
sg107
I0
sg108
I0
sg109
I2
sg110
I0
sg111
I0
sg112
S'ES'
p416
sbsS'n18'
p417
(ijoueur
joueur
p418
(dp419
g27
I0
sg28
I0
sg29
I0
sg30
(ijoueur
rang
p420
(dp421
g33
I4
sg34
g35
sg36
g37
sbsg38
(dp422
g40
I0
sg41
I0
sg42
I0
sg43
I0
ssg44
(dp423
g40
I0
sg41
I0
sg42
I0
sg43
I0
ssg46
I0
sg47
I0
sg48
I1
sg49
I0
sg50
I0
sg51
(g52
S'DL'
p424
S'TL'
p425
S'N8'
p426
tp427
sg57
(ijoueur
rang
p428
(dp429
g33
I5
sg34
S'xx'
p430
sg36
g138
sbsg60
(dp431
g40
I0
sg41
I0
sg42
I0
sg43
I1
ssg62
(dp432
g40
I0
sg41
I0
sg42
I0
sg43
I0
ssg64
(dp433
g40
I0
sg41
I0
sg42
I0
sg43
I0
ssg66
(dp434
g40
I0
sg41
I0
sg42
I0
sg43
I1
ssg68
I0
sg69
I0
sg70
S'Mud'
p435
sg72
I1
sg73
I0
sg74
I10
sg75
I80
sg76
g77
sg78
(dp436
g80
I9
sg81
I10
sg82
I7
sg83
I9
sg84
I8
sg85
I12
sg86
I3
sg87
I12
sg88
I5
sg89
I7
sg90
I6
sg91
I10
sg92
I3
sg93
I10
sg94
I7
ssg95
I3
sg96
I0
sg97
I0
sg98
I0
sg99
F9.814814814814815
sg100
I0
sg101
I0
sg102
I0
sg103
g436
sg104
I0
sg105
g55
sg106
I0
sg107
I0
sg108
I0
sg109
I7
sg110
I5
sg111
I0
sg112
g395
sbsS'n19'
p437
(ijoueur
joueur
p438
(dp439
g27
I0
sg28
I0
sg29
I0
sg30
(ijoueur
rang
p440
(dp441
g33
I4
sg34
g35
sg36
g37
sbsg38
(dp442
g40
I0
sg41
I0
sg42
I1
sg43
I0
ssg44
(dp443
g40
I0
sg41
I0
sg42
I0
sg43
I0
ssg46
I0
sg47
I0
sg48
I0
sg49
I0
sg50
I0
sg51
(g52
S'TL'
p444
S'N8'
p445
g55
tp446
sg57
(ijoueur
rang
p447
(dp448
g33
I4
sg34
g35
sg36
g37
sbsg60
(dp449
g40
I0
sg41
I0
sg42
I0
sg43
I0
ssg62
(dp450
g40
I0
sg41
I0
sg42
I1
sg43
I0
ssg64
(dp451
g40
I0
sg41
I0
sg42
I0
sg43
I0
ssg66
(dp452
g40
I0
sg41
I0
sg42
I0
sg43
I0
ssg68
I0
sg69
I0
sg70
S'Jdorh'
p453
sg72
I7
sg73
I0
sg74
I20
sg75
I251
sg76
g77
sg78
(dp454
g80
I10
sg81
I8
sg82
I6
sg83
I8
sg84
I8
sg85
I10
sg86
I4
sg87
I10
sg88
I5
sg89
I8
sg90
I8
sg91
I11
sg92
I3
sg93
I13
sg94
I4
ssg95
I1
sg96
I0
sg97
I0
sg98
I0
sg99
F10.290322580645162
sg100
I0
sg101
I0
sg102
I0
sg103
g454
sg104
I0
sg105
S'KHR9'
p455
sg106
I0
sg107
I0
sg108
I0
sg109
I21
sg110
I3
sg111
I0
sg112
S'HB'
p456
sbsS'n22'
p457
(ijoueur
joueur
p458
(dp459
g27
I0
sg28
I0
sg29
I0
sg30
(ijoueur
rang
p460
(dp461
g33
I1
sg34
S'>'
p462
sg36
S'base'
p463
sbsg38
(dp464
g40
I0
sg41
I0
sg42
I1
sg43
I0
ssg44
(dp465
g40
I0
sg41
I0
sg42
I0
sg43
I0
ssg46
I0
sg47
I0
sg48
I0
sg49
I0
sg50
I0
sg51
(g52
S'AR'
p466
S'AI'
p467
g55
tp468
sg57
(ijoueur
rang
p469
(dp470
g33
I1
sg34
g462
sg36
g463
sbsg60
(dp471
g40
I0
sg41
I0
sg42
I0
sg43
I0
ssg62
(dp472
g40
I0
sg41
I0
sg42
I1
sg43
I0
ssg64
(dp473
g40
I0
sg41
I0
sg42
I0
sg43
I0
ssg66
(dp474
g40
I0
sg41
I0
sg42
I0
sg43
I0
ssg68
I0
sg69
I0
sg70
S'Hurg'
p475
sg72
I0
sg73
I0
sg74
I12
sg75
I10
sg76
g77
sg78
(dp476
g80
I7
sg81
I3
sg82
I10
sg83
I9
sg84
I3
sg85
I6
sg86
I8
sg87
I10
sg88
I8
sg89
I9
sg90
I9
sg91
I6
sg92
I8
sg93
I12
sg94
I3
ssg95
I1
sg96
I0
sg97
I0
sg98
I0
sg99
F9.121212121212121
sg100
I0
sg101
I0
sg102
I0
sg103
g476
sg104
I0
sg105
g55
sg106
I0
sg107
I0
sg108
I0
sg109
I1
sg110
I1
sg111
I0
sg112
g395
sbsS'n21'
p477
(ijoueur
joueur
p478
(dp479
g27
I0
sg28
I0
sg29
I0
sg30
(ijoueur
rang
p480
(dp481
g33
I1
sg34
S'<'
p482
sg36
g463
sbsg38
(dp483
g40
I0
sg41
I0
sg42
I0
sg43
I0
ssg44
(dp484
g40
I0
sg41
I0
sg42
I0
sg43
I0
ssg46
I0
sg47
I0
sg48
I0
sg49
I0
sg50
I0
sg51
(g52
S'C2'
p485
S'AR'
p486
S'AI'
p487
tp488
sg57
(ijoueur
rang
p489
(dp490
g33
I1
sg34
g482
sg36
g463
sbsg60
(dp491
g40
I0
sg41
I0
sg42
I1
sg43
I0
ssg62
(dp492
g40
I0
sg41
I0
sg42
I0
sg43
I0
ssg64
(dp493
g40
I0
sg41
I0
sg42
I0
sg43
I0
ssg66
(dp494
g40
I0
sg41
I0
sg42
I1
sg43
I0
ssg68
I0
sg69
I0
sg70
S'Dolean'
p495
sg72
I4
sg73
I0
sg74
I13
sg75
I8
sg76
g77
sg78
(dp496
g80
I8
sg81
I3
sg82
I10
sg83
I10
sg84
I5
sg85
I6
sg86
I8
sg87
I10
sg88
I8
sg89
I11
sg90
I10
sg91
I6
sg92
I7
sg93
I11
sg94
I2
ssg95
I0
sg96
I0
sg97
I0
sg98
I0
sg99
F9.620689655172415
sg100
I0
sg101
I0
sg102
I0
sg103
g496
sg104
I0
sg105
g55
sg106
I0
sg107
I0
sg108
I0
sg109
I1
sg110
I8
sg111
I0
sg112
S'ES'
p497
sbsS'n20'
p498
(ijoueur
joueur
p499
(dp500
g27
I0
sg28
I0
sg29
I0
sg30
(ijoueur
rang
p501
(dp502
g33
I5
sg34
S'xx'
p503
sg36
g138
sbsg38
(dp504
g40
I0
sg41
I0
sg42
I0
sg43
I0
ssg44
(dp505
g40
I0
sg41
I0
sg42
I0
sg43
I0
ssg46
I0
sg47
I0
sg48
I0
sg49
I0
sg50
I0
sg51
(g52
S'DM'
p506
g55
g55
tp507
sg57
(ijoueur
rang
p508
(dp509
g33
I2
sg34
S'^^'
p510
sg36
g213
sbsg60
(dp511
g40
I0
sg41
I0
sg42
I0
sg43
I0
ssg62
(dp512
g40
I0
sg41
I0
sg42
I0
sg43
I0
ssg64
(dp513
g40
I0
sg41
I0
sg42
I0
sg43
I0
ssg66
(dp514
g40
I0
sg41
I0
sg42
I0
sg43
I0
ssg68
I0
sg69
I0
sg70
S'Abanar'
p515
sg72
I10
sg73
I0
sg74
I26
sg75
I22
sg76
g77
sg78
(dp516
g80
I9
sg81
I6
sg82
I7
sg83
I9
sg84
I4
sg85
I6
sg86
I6
sg87
I7
sg88
I10
sg89
I10
sg90
I8
sg91
I7
sg92
I5
sg93
I8
sg94
I3
ssg95
I0
sg96
I0
sg97
I0
sg98
I0
sg99
F8.517241379310345
sg100
I0
sg101
I0
sg102
I0
sg103
g516
sg104
I0
sg105
g55
sg106
I0
sg107
I0
sg108
I0
sg109
I1
sg110
I0
sg111
I0
sg112
g395
sbsS'n8'
p517
(ijoueur
joueur
p518
(dp519
g27
I0
sg28
I0
sg29
I0
sg30
(ijoueur
rang
p520
(dp521
g33
I4
sg34
g183
sg36
g37
sbsg38
(dp522
g40
I0
sg41
I0
sg42
I0
sg43
I0
ssg44
(dp523
g40
I0
sg41
I0
sg42
I0
sg43
I0
ssg46
I0
sg47
I0
sg48
I0
sg49
I0
sg50
I0
sg51
(g52
S'N8'
p524
S'TL'
p525
g55
tp526
sg57
(ijoueur
rang
p527
(dp528
g33
I4
sg34
g183
sg36
g37
sbsg60
(dp529
g40
I0
sg41
I0
sg42
I0
sg43
I1
ssg62
(dp530
g40
I0
sg41
I0
sg42
I0
sg43
I0
ssg64
(dp531
g40
I0
sg41
I0
sg42
I0
sg43
I0
ssg66
(dp532
g40
I0
sg41
I0
sg42
I0
sg43
I1
ssg68
I0
sg69
I0
sg70
S"Kal'Darq"
p533
sg72
I5
sg73
I0
sg74
I15
sg75
I283
sg76
g77
sg78
(dp534
g80
I11
sg81
I11
sg82
I7
sg83
I11
sg84
I8
sg85
I12
sg86
I0
sg87
I12
sg88
I2
sg89
I8
sg90
I7
sg91
I13
sg92
I1
sg93
I10
sg94
I7
ssg95
I4
sg96
I0
sg97
I0
sg98
I0
sg99
F11.241379310344827
sg100
I0
sg101
I0
sg102
I0
sg103
g534
sg104
I0
sg105
S'MRB11'
p535
sg106
I0
sg107
I0
sg108
I0
sg109
I56
sg110
I17
sg111
I0
sg112
S'HL'
p536
sbsS'n9'
p537
g25
sS'n1'
p538
g287
sS'n2'
p539
g155
sS'n3'
p540
(ijoueur
joueur
p541
(dp542
g27
I0
sg28
I0
sg29
I0
sg30
(ijoueur
rang
p543
(dp544
g33
I5
sg34
S'**'
p545
sg36
g138
sbsg38
(dp546
g40
I0
sg41
I0
sg42
I0
sg43
I0
ssg44
(dp547
g40
I0
sg41
I0
sg42
I0
sg43
I0
ssg46
I0
sg47
I0
sg48
I0
sg49
I0
sg50
I0
sg51
(g52
S'PI'
p548
g55
g55
tp549
sg57
(ijoueur
rang
p550
(dp551
g33
I5
sg34
S'**'
p552
sg36
g138
sbsg60
(dp553
g40
I0
sg41
I0
sg42
I0
sg43
I1
ssg62
(dp554
g40
I0
sg41
I0
sg42
I0
sg43
I0
ssg64
(dp555
g40
I0
sg41
I0
sg42
I0
sg43
I0
ssg66
(dp556
g40
I0
sg41
I0
sg42
I0
sg43
I1
ssg68
I0
sg69
I0
sg70
S'Rendard'
p557
sg72
I3
sg73
I0
sg74
I10
sg75
I136
sg76
g77
sg78
(dp558
g80
I10
sg81
I11
sg82
I7
sg83
I10
sg84
I7
sg85
I13
sg86
I1
sg87
I13
sg88
I4
sg89
I8
sg90
I9
sg91
I10
sg92
I4
sg93
I10
sg94
I7
ssg95
I4
sg96
I0
sg97
I0
sg98
I0
sg99
F10.518518518518519
sg100
I0
sg101
I0
sg102
I0
sg103
g558
sg104
I0
sg105
g55
sg106
I0
sg107
I0
sg108
I0
sg109
I12
sg110
I16
sg111
I0
sg112
S'B'
p559
sbsS'n4'
p560
g222
sS'n5'
p561
g201
sS'n6'
p562
g263
sS'n7'
p563
g115
ssS'remplacements'
p564
(dp565
g356
S'n0'
p566
sg376
g566
sg417
g566
sg437
g566
sg457
g566
sg477
g566
sg498
g566
ssb.