(iclub
compo
p0
(dp1
S'caracs_old'
p2
(dp3
S'A'
p4
F179.5
sS'ME'
p5
F104.0
sS'E'
p6
I214
sS'OplusAV'
p7
F108.5
sS'TO_off'
p8
F126.5
sS'OplusAR'
p9
F91.0
sS'M'
p10
F58.0
sS'JP'
p11
F98.5
sS'OmoinsAR'
p12
F58.0
sS'PA'
p13
F121.5
sS'TO_def'
p14
F117.0
sS'OmoinsAV'
p15
F65.0
sS'R'
p16
F212.0
ssS'totaux_old'
p17
(dp18
S'T2'
p19
F199.75
sS'T3'
p20
F107.0
sS'T1'
p21
F218.875
ssS'roles'
p22
(dp23
S'drop1'
p24
(ijoueur
joueur
p25
(dp26
S'rouges_total'
p27
I0
sS'drops_total'
p28
I0
sS'blessure'
p29
I0
sS'RG_max'
p30
(ijoueur
rang
p31
(dp32
S'type_nb'
p33
I4
sS'rang'
p34
S'*'
p35
sS'type'
p36
S'heros'
p37
sbsS'MJ2_total'
p38
(dp39
S'SR'
p40
I0
sS'ST'
p41
I0
sS'CR'
p42
I0
sS'CT'
p43
I0
ssS'MJ3_total'
p44
(dp45
g40
I0
sg41
I0
sg42
I0
sg43
I0
ssS'anciens_clubs'
p46
S''
p47
sS'drop_rates_saison'
p48
I0
sS'essais_saison'
p49
I0
sS'penalite_ratees_saison'
p50
I0
sS'transformations_saison'
p51
I0
sS'postes'
p52
(S'dummy'
p53
S'DM'
p54
S'DO'
p55
g47
tp56
sS'RG'
p57
(ijoueur
rang
p58
(dp59
g33
I4
sg34
g35
sg36
g37
sbsS'MJ1'
p60
(dp61
g40
I0
sg41
I0
sg42
I0
sg43
I0
ssS'MJ2'
p62
(dp63
g40
I0
sg41
I0
sg42
I0
sg43
I0
ssS'MJ3'
p64
(dp65
g40
I0
sg41
I0
sg42
I0
sg43
I0
ssS'MJ1_total'
p66
(dp67
g40
I0
sg41
I0
sg42
I0
sg43
I0
ssS'penalites_total'
p68
I0
sS'penalites_saison'
p69
I0
sS'nom'
p70
S'Dlaonal'
p71
sS'C'
p72
I7
sS'transformations_total'
p73
I0
sS'D'
p74
I18
sS'VAL'
p75
I147
sS'club'
p76
S'FS'
p77
sS'caracs'
p78
(dp79
S'A'
p80
I12
sS'ME'
p81
I3
sS'RP2'
p82
I8
sS'E'
p83
I12
sS'TO'
p84
I8
sS'RP1'
p85
I6
sS'JP'
p86
I9
sS'RP_tot'
p87
I8
sS'P'
p88
I10
sS'PA'
p89
I13
sS'M'
p90
I9
sS'R'
p91
I5
sS'TB'
p92
I10
sS'PL'
p93
I7
sS'TA'
p94
I4
ssS'fatigue'
p95
I0
sS'drop_ratees_total'
p96
I0
sS'blessures_total'
p97
I0
sS'XP'
p98
I0
sS'EV'
p99
F10.206896551724139
sS'penalite_ratees_total'
p100
I0
sS'blessures_saison'
p101
I0
sS'jaunes_total'
p102
I0
sS'caracs_sans_fatigue'
p103
g79
sS'rouges_saison'
p104
I0
sS'transformation_ratees_total'
p105
I0
sS'drops_saison'
p106
I0
sS'transformation_ratees_saison'
p107
I0
sS'MS'
p108
I13
sS'essais_total'
p109
I1
sS'jaunes_saison'
p110
I0
sS'ARM'
p111
S'ES'
p112
sbsS'SA_scd'
p113
(ijoueur
joueur
p114
(dp115
g27
I0
sg28
I0
sg29
I0
sg30
(ijoueur
rang
p116
(dp117
g33
I6
sg34
S'***'
p118
sg36
S'personnage'
p119
sbsg38
(dp120
g40
I0
sg41
I0
sg42
I0
sg43
I0
ssg44
(dp121
g40
I0
sg41
I0
sg42
I0
sg43
I0
ssg46
S'SN10'
p122
sg48
I0
sg49
I0
sg50
I0
sg51
I0
sg52
(g53
S'N8'
p123
S'TL'
p124
g47
tp125
sg57
(ijoueur
rang
p126
(dp127
g33
I6
sg34
S'***'
p128
sg36
g119
sbsg60
(dp129
g40
I0
sg41
I0
sg42
I0
sg43
I0
ssg62
(dp130
g40
I0
sg41
I0
sg42
I0
sg43
I0
ssg64
(dp131
g40
I0
sg41
I0
sg42
I0
sg43
I0
ssg66
(dp132
g40
I0
sg41
I0
sg42
I0
sg43
I0
ssg68
I0
sg69
I0
sg70
S'Archaon'
p133
sg72
I1
sg73
I0
sg74
I9
sg75
I600
sg76
g77
sg78
(dp134
g80
I13
sg81
I10
sg82
I9
sg83
I11
sg84
I11
sg85
I12
sg86
I5
sg87
I14
sg88
I4
sg89
I11
sg90
I8
sg91
I13
sg92
I5
sg93
I12
sg94
I6
ssg95
I0
sg96
I0
sg97
I0
sg98
I0
sg99
F12.172413793103448
sg100
I0
sg101
I0
sg102
I0
sg103
g134
sg104
I0
sg105
I0
sg106
I0
sg107
I0
sg108
I110
sg109
I20
sg110
I0
sg111
S'CHS'
p135
sbsS'RJL'
p136
(ijoueur
joueur
p137
(dp138
g27
I0
sg28
I16
sg29
I0
sg30
(ijoueur
rang
p139
(dp140
g33
I5
sg34
S'**'
p141
sg36
S'seigneur'
p142
sbsg38
(dp143
g40
I0
sg41
I0
sg42
I0
sg43
I0
ssg44
(dp144
g40
I0
sg41
I0
sg42
I0
sg43
I0
ssg46
g47
sg48
I0
sg49
I0
sg50
I0
sg51
I0
sg52
(g53
S'DO'
p145
S'DM'
p146
g47
tp147
sg57
(ijoueur
rang
p148
(dp149
g33
I5
sg34
S'**'
p150
sg36
g142
sbsg60
(dp151
g40
I0
sg41
I0
sg42
I0
sg43
I0
ssg62
(dp152
g40
I0
sg41
I0
sg42
I0
sg43
I0
ssg64
(dp153
g40
I0
sg41
I0
sg42
I0
sg43
I0
ssg66
(dp154
g40
I0
sg41
I0
sg42
I0
sg43
I0
ssg68
I0
sg69
I0
sg70
S'Vorhovlen'
p155
sg72
I6
sg73
I0
sg74
I14
sg75
I234
sg76
g77
sg78
(dp156
g80
I11
sg81
I6
sg82
I10
sg83
I10
sg84
I6
sg85
I7
sg86
I11
sg87
I10
sg88
I13
sg89
I13
sg90
I10
sg91
I9
sg92
I8
sg93
I11
sg94
I5
ssg95
I0
sg96
I0
sg97
I0
sg98
I0
sg99
F11.242424242424242
sg100
I0
sg101
I0
sg102
I0
sg103
g156
sg104
I0
sg105
I0
sg106
I0
sg107
I0
sg108
I41
sg109
I5
sg110
I0
sg111
S'CV'
p157
sbsS'cap'
p158
(ijoueur
joueur
p159
(dp160
g27
I0
sg28
I0
sg29
I0
sg30
(ijoueur
rang
p161
(dp162
g33
I5
sg34
S'**'
p163
sg36
g142
sbsg38
(dp164
g40
I0
sg41
I0
sg42
I0
sg43
I0
ssg44
(dp165
g40
I0
sg41
I0
sg42
I0
sg43
I0
ssg46
S'MDL9'
p166
sg48
I0
sg49
I0
sg50
I0
sg51
I0
sg52
(g53
S'TA'
p167
S'PI'
p168
g47
tp169
sg57
(ijoueur
rang
p170
(dp171
g33
I5
sg34
S'**'
p172
sg36
g142
sbsg60
(dp173
g40
I0
sg41
I0
sg42
I0
sg43
I0
ssg62
(dp174
g40
I0
sg41
I0
sg42
I0
sg43
I0
ssg64
(dp175
g40
I0
sg41
I0
sg42
I0
sg43
I0
ssg66
(dp176
g40
I0
sg41
I0
sg42
I0
sg43
I0
ssg68
I0
sg69
I0
sg70
S"Ayak'Ed"
p177
sg72
I7
sg73
I0
sg74
I21
sg75
I219
sg76
g77
sg78
(dp178
g80
I12
sg81
I10
sg82
I9
sg83
I13
sg84
I6
sg85
I14
sg86
I4
sg87
I16
sg88
I5
sg89
I8
sg90
I7
sg91
I11
sg92
I6
sg93
I7
sg94
I11
ssg95
I0
sg96
I0
sg97
I0
sg98
I0
sg99
F11.137931034482758
sg100
I0
sg101
I0
sg102
I0
sg103
g178
sg104
I0
sg105
I0
sg106
I0
sg107
I0
sg108
I35
sg109
I4
sg110
I0
sg111
S'HL'
p179
sbsS'B4'
p180
g25
sS'RJC'
p181
g137
sS'B1'
p182
(ijoueur
joueur
p183
(dp184
g27
I0
sg28
I0
sg29
I0
sg30
(ijoueur
rang
p185
(dp186
g33
I4
sg34
S'x'
p187
sg36
g37
sbsg38
(dp188
g40
I0
sg41
I0
sg42
I0
sg43
I0
ssg44
(dp189
g40
I0
sg41
I0
sg42
I0
sg43
I0
ssg46
S'MDL9'
p190
sg48
I0
sg49
I0
sg50
I0
sg51
I0
sg52
(g53
S'AI'
p191
g47
g47
tp192
sg57
(ijoueur
rang
p193
(dp194
g33
I4
sg34
g187
sg36
g37
sbsg60
(dp195
g40
I0
sg41
I0
sg42
I0
sg43
I0
ssg62
(dp196
g40
I0
sg41
I0
sg42
I0
sg43
I0
ssg64
(dp197
g40
I0
sg41
I0
sg42
I0
sg43
I0
ssg66
(dp198
g40
I0
sg41
I0
sg42
I0
sg43
I0
ssg68
I8
sg69
I0
sg70
S'Foutor'
p199
sg72
I6
sg73
I5
sg74
I20
sg75
I278
sg76
g77
sg78
(dp200
g80
I9
sg81
I6
sg82
I13
sg83
I12
sg84
I3
sg85
I10
sg86
I9
sg87
I16
sg88
I8
sg89
I9
sg90
I11
sg91
I11
sg92
I11
sg93
I7
sg94
I5
ssg95
I0
sg96
I0
sg97
I0
sg98
I0
sg99
F10.848484848484848
sg100
I0
sg101
I0
sg102
I0
sg103
g200
sg104
I0
sg105
I0
sg106
I0
sg107
I0
sg108
I39
sg109
I10
sg110
I0
sg111
S'OG'
p201
sbsS'B2'
p202
g25
sS'B3'
p203
g25
sS'SA_pcp2'
p204
(ijoueur
joueur
p205
(dp206
g27
I0
sg28
I0
sg29
I0
sg30
(ijoueur
rang
p207
(dp208
g33
I4
sg34
g35
sg36
g37
sbsg38
(dp209
g40
I0
sg41
I0
sg42
I0
sg43
I0
ssg44
(dp210
g40
I0
sg41
I0
sg42
I0
sg43
I0
ssg46
g47
sg48
I0
sg49
I0
sg50
I0
sg51
I0
sg52
(g53
S'TL'
p211
g47
g47
tp212
sg57
(ijoueur
rang
p213
(dp214
g33
I4
sg34
g35
sg36
g37
sbsg60
(dp215
g40
I0
sg41
I0
sg42
I0
sg43
I0
ssg62
(dp216
g40
I0
sg41
I0
sg42
I0
sg43
I0
ssg64
(dp217
g40
I0
sg41
I0
sg42
I0
sg43
I0
ssg66
(dp218
g40
I0
sg41
I0
sg42
I0
sg43
I0
ssg68
I0
sg69
I0
sg70
S'Senfel'
p219
sg72
I2
sg73
I0
sg74
I14
sg75
I70
sg76
g77
sg78
(dp220
g80
I10
sg81
I13
sg82
I11
sg83
I11
sg84
I13
sg85
I9
sg86
I6
sg87
I13
sg88
I10
sg89
I8
sg90
I9
sg91
I13
sg92
I8
sg93
I10
sg94
I9
ssg95
I0
sg96
I0
sg97
I0
sg98
I0
sg99
F11.736842105263158
sg100
I0
sg101
I0
sg102
I0
sg103
g220
sg104
I0
sg105
I0
sg106
I0
sg107
I0
sg108
I7
sg109
I11
sg110
I0
sg111
S'ES'
p221
sbsS'SA_pcp1'
p222
(ijoueur
joueur
p223
(dp224
g27
I0
sg28
I0
sg29
I0
sg30
(ijoueur
rang
p225
(dp226
g33
I5
sg34
S'**'
p227
sg36
g142
sbsg38
(dp228
g40
I0
sg41
I0
sg42
I0
sg43
I0
ssg44
(dp229
g40
I0
sg41
I0
sg42
I0
sg43
I0
ssg46
g47
sg48
I0
sg49
I0
sg50
I0
sg51
I0
sg52
(g53
S'TL'
p230
S'N8'
p231
S'DL'
p232
tp233
sg57
(ijoueur
rang
p234
(dp235
g33
I4
sg34
g35
sg36
g37
sbsg60
(dp236
g40
I0
sg41
I0
sg42
I0
sg43
I0
ssg62
(dp237
g40
I0
sg41
I0
sg42
I0
sg43
I0
ssg64
(dp238
g40
I0
sg41
I0
sg42
I0
sg43
I0
ssg66
(dp239
g40
I0
sg41
I0
sg42
I0
sg43
I0
ssg68
I0
sg69
I0
sg70
S'Tafaol'
p240
sg72
I8
sg73
I0
sg74
I23
sg75
I75
sg76
g77
sg78
(dp241
g80
I11
sg81
I11
sg82
I9
sg83
I11
sg84
I14
sg85
I12
sg86
I6
sg87
I14
sg88
I7
sg89
I11
sg90
I10
sg91
I7
sg92
I7
sg93
I10
sg94
I4
ssg95
I0
sg96
I0
sg97
I0
sg98
I0
sg99
F10.710526315789474
sg100
I0
sg101
I0
sg102
I0
sg103
g241
sg104
I0
sg105
I0
sg106
I0
sg107
I0
sg108
I10
sg109
I0
sg110
I0
sg111
S'ES'
p242
sbsS'drop3'
p243
(ijoueur
joueur
p244
(dp245
g27
I0
sg28
I17
sg29
I0
sg30
(ijoueur
rang
p246
(dp247
g33
I4
sg34
g35
sg36
g37
sbsg38
(dp248
g40
I0
sg41
I0
sg42
I0
sg43
I0
ssg44
(dp249
g40
I0
sg41
I0
sg42
I0
sg43
I0
ssg46
g47
sg48
I0
sg49
I0
sg50
I0
sg51
I0
sg52
(g53
S'C1'
p250
S'DO'
p251
S'DM'
p252
tp253
sg57
(ijoueur
rang
p254
(dp255
g33
I4
sg34
g35
sg36
g37
sbsg60
(dp256
g40
I0
sg41
I0
sg42
I0
sg43
I0
ssg62
(dp257
g40
I0
sg41
I0
sg42
I0
sg43
I0
ssg64
(dp258
g40
I0
sg41
I0
sg42
I0
sg43
I0
ssg66
(dp259
g40
I0
sg41
I0
sg42
I0
sg43
I0
ssg68
I259
sg69
I0
sg70
S'Aiol'
p260
sg72
I2
sg73
I109
sg74
I12
sg75
I70
sg76
g77
sg78
(dp261
g80
I12
sg81
I7
sg82
I8
sg83
I11
sg84
I7
sg85
I7
sg86
I9
sg87
I8
sg88
I10
sg89
I11
sg90
I9
sg91
I9
sg92
I11
sg93
I9
sg94
I7
ssg95
I0
sg96
I0
sg97
I0
sg98
I0
sg99
F9.9375
sg100
I0
sg101
I0
sg102
I0
sg103
g261
sg104
I0
sg105
I0
sg106
I0
sg107
I0
sg108
I7
sg109
I8
sg110
I0
sg111
S'ES'
p262
sbsS'SA_remp1'
p263
(ijoueur
joueur
p264
(dp265
g27
I0
sg28
I0
sg29
I0
sg30
(ijoueur
rang
p266
(dp267
g33
I5
sg34
S'**'
p268
sg36
g142
sbsg38
(dp269
g40
I0
sg41
I0
sg42
I0
sg43
I0
ssg44
(dp270
g40
I0
sg41
I0
sg42
I0
sg43
I0
ssg46
g47
sg48
I0
sg49
I0
sg50
I0
sg51
I0
sg52
(g53
S'DL'
p271
g47
g47
tp272
sg57
(ijoueur
rang
p273
(dp274
g33
I2
sg34
S'<<'
p275
sg36
S'special'
p276
sbsg60
(dp277
g40
I0
sg41
I0
sg42
I0
sg43
I0
ssg62
(dp278
g40
I0
sg41
I0
sg42
I0
sg43
I0
ssg64
(dp279
g40
I0
sg41
I0
sg42
I0
sg43
I0
ssg66
(dp280
g40
I0
sg41
I0
sg42
I0
sg43
I0
ssg68
I0
sg69
I0
sg70
S'Qlapaross'
p281
sg72
I10
sg73
I0
sg74
I26
sg75
I21
sg76
g77
sg78
(dp282
g80
I10
sg81
I8
sg82
I6
sg83
I9
sg84
I14
sg85
I8
sg86
I5
sg87
I8
sg88
I5
sg89
I9
sg90
I12
sg91
I8
sg92
I3
sg93
I8
sg94
I3
ssg95
I0
sg96
I0
sg97
I0
sg98
I0
sg99
F9.617647058823529
sg100
I0
sg101
I0
sg102
I0
sg103
g282
sg104
I0
sg105
I0
sg106
I0
sg107
I0
sg108
I2
sg109
I0
sg110
I0
sg111
S'ES'
p283
sbsS'drop2'
p284
g137
sS'SA_remp2'
p285
(ijoueur
joueur
p286
(dp287
g27
I0
sg28
I0
sg29
I0
sg30
(ijoueur
rang
p288
(dp289
g33
I5
sg34
S'**'
p290
sg36
g142
sbsg38
(dp291
g40
I0
sg41
I0
sg42
I0
sg43
I0
ssg44
(dp292
g40
I0
sg41
I0
sg42
I0
sg43
I0
ssg46
g47
sg48
I0
sg49
I0
sg50
I0
sg51
I0
sg52
(g53
S'PI'
p293
S'TL'
p294
g47
tp295
sg57
(ijoueur
rang
p296
(dp297
g33
I4
sg34
g187
sg36
g37
sbsg60
(dp298
g40
I0
sg41
I0
sg42
I0
sg43
I0
ssg62
(dp299
g40
I0
sg41
I0
sg42
I0
sg43
I0
ssg64
(dp300
g40
I0
sg41
I0
sg42
I0
sg43
I0
ssg66
(dp301
g40
I0
sg41
I0
sg42
I0
sg43
I0
ssg68
I0
sg69
I0
sg70
S'Ymeol'
p302
sg72
I9
sg73
I0
sg74
I24
sg75
I139
sg76
g77
sg78
(dp303
g80
I11
sg81
I7
sg82
I9
sg83
I10
sg84
I10
sg85
I10
sg86
I7
sg87
I12
sg88
I6
sg89
I14
sg90
I10
sg91
I9
sg92
I6
sg93
I10
sg94
I7
ssg95
I0
sg96
I0
sg97
I0
sg98
I0
sg99
F9.794117647058824
sg100
I0
sg101
I0
sg102
I0
sg103
g303
sg104
I0
sg105
I0
sg106
I0
sg107
I0
sg108
I15
sg109
I0
sg110
I0
sg111
S'ES'
p304
sbssS'totaux'
p305
(dp306
g19
I0
sg20
I0
sg21
I0
ssS'_compo_defaut_fatigue'
p307
Nsg78
(dp308
g4
I0
sg5
I0
sg6
I0
sg7
I0
sg8
I0
sg9
I0
sg10
I0
sg11
I0
sg12
I0
sg13
I0
sg14
I0
sg15
I0
sg16
I0
ssS'joueurs'
p309
(dp310
S'n12'
p311
(ijoueur
joueur
p312
(dp313
g27
I0
sg28
I0
sg29
I0
sg30
(ijoueur
rang
p314
(dp315
g33
I5
sg34
S'**'
p316
sg36
g142
sbsg38
(dp317
g40
I0
sg41
I0
sg42
I0
sg43
I0
ssg44
(dp318
g40
I0
sg41
I0
sg42
I0
sg43
I0
ssg46
g47
sg48
I0
sg49
I0
sg50
I0
sg51
I0
sg52
(g53
S'C1'
p319
S'DO'
p320
S'DM'
p321
tp322
sg57
(ijoueur
rang
p323
(dp324
g33
I4
sg34
g187
sg36
g37
sbsg60
(dp325
g40
I0
sg41
I0
sg42
I0
sg43
I0
ssg62
(dp326
g40
I0
sg41
I0
sg42
I0
sg43
I0
ssg64
(dp327
g40
I0
sg41
I0
sg42
I0
sg43
I0
ssg66
(dp328
g40
I0
sg41
I0
sg42
I0
sg43
I0
ssg68
I1
sg69
I0
sg70
S'Gemedol'
p329
sg72
I10
sg73
I0
sg74
I24
sg75
I125
sg76
g77
sg78
(dp330
g80
I13
sg81
I5
sg82
I10
sg83
I10
sg84
I8
sg85
I7
sg86
I8
sg87
I10
sg88
I11
sg89
I15
sg90
I9
sg91
I8
sg92
I9
sg93
I13
sg94
I6
ssg95
I0
sg96
I0
sg97
I0
sg98
I0
sg99
F11.266666666666667
sg100
I0
sg101
I0
sg102
I0
sg103
g330
sg104
I0
sg105
I0
sg106
I0
sg107
I0
sg108
I14
sg109
I0
sg110
I0
sg111
S'ES'
p331
sbsS'n13'
p332
(ijoueur
joueur
p333
(dp334
g27
I0
sg28
I0
sg29
I0
sg30
(ijoueur
rang
p335
(dp336
g33
I4
sg34
g35
sg36
g37
sbsg38
(dp337
g40
I0
sg41
I0
sg42
I0
sg43
I0
ssg44
(dp338
g40
I0
sg41
I0
sg42
I0
sg43
I0
ssg46
g47
sg48
I0
sg49
I0
sg50
I0
sg51
I0
sg52
(g53
S'C2'
p339
S'AI'
p340
S'AR'
p341
tp342
sg57
(ijoueur
rang
p343
(dp344
g33
I4
sg34
g35
sg36
g37
sbsg60
(dp345
g40
I0
sg41
I0
sg42
I0
sg43
I0
ssg62
(dp346
g40
I0
sg41
I0
sg42
I0
sg43
I0
ssg64
(dp347
g40
I0
sg41
I0
sg42
I0
sg43
I0
ssg66
(dp348
g40
I0
sg41
I0
sg42
I0
sg43
I0
ssg68
I0
sg69
I0
sg70
S'Oathel'
p349
sg72
I5
sg73
I0
sg74
I14
sg75
I126
sg76
g77
sg78
(dp350
g80
I14
sg81
I4
sg82
I11
sg83
I11
sg84
I7
sg85
I10
sg86
I9
sg87
I14
sg88
I10
sg89
I11
sg90
I9
sg91
I7
sg92
I7
sg93
I9
sg94
I5
ssg95
I0
sg96
I0
sg97
I0
sg98
I0
sg99
F11.0
sg100
I0
sg101
I0
sg102
I0
sg103
g350
sg104
I0
sg105
I0
sg106
I0
sg107
I0
sg108
I13
sg109
I14
sg110
I0
sg111
S'HE'
p351
sbsS'n10'
p352
g137
sS'n11'
p353
(ijoueur
joueur
p354
(dp355
g27
I0
sg28
I0
sg29
I0
sg30
(ijoueur
rang
p356
(dp357
g33
I4
sg34
g187
sg36
g37
sbsg38
(dp358
g40
I0
sg41
I0
sg42
I0
sg43
I0
ssg44
(dp359
g40
I0
sg41
I0
sg42
I0
sg43
I0
ssg46
S'APA9'
p360
sg48
I0
sg49
I0
sg50
I0
sg51
I0
sg52
(g53
S'AI'
p361
g47
g47
tp362
sg57
(ijoueur
rang
p363
(dp364
g33
I4
sg34
g187
sg36
g37
sbsg60
(dp365
g40
I0
sg41
I0
sg42
I0
sg43
I0
ssg62
(dp366
g40
I0
sg41
I0
sg42
I0
sg43
I0
ssg64
(dp367
g40
I0
sg41
I0
sg42
I0
sg43
I0
ssg66
(dp368
g40
I0
sg41
I0
sg42
I0
sg43
I0
ssg68
I0
sg69
I0
sg70
S"Waad'Up"
p369
sg72
I7
sg73
I0
sg74
I19
sg75
I20
sg76
g77
sg78
(dp370
g80
I11
sg81
I5
sg82
I10
sg83
I11
sg84
I2
sg85
I9
sg86
I7
sg87
I12
sg88
I5
sg89
I8
sg90
I13
sg91
I8
sg92
I3
sg93
I9
sg94
I4
ssg95
I0
sg96
I0
sg97
I0
sg98
I0
sg99
F10.548387096774194
sg100
I0
sg101
I0
sg102
I0
sg103
g370
sg104
I0
sg105
I0
sg106
I0
sg107
I0
sg108
I2
sg109
I6
sg110
I0
sg111
S'HL'
p371
sbsS'n16'
p372
(ijoueur
joueur
p373
(dp374
g27
I0
sg28
I0
sg29
I0
sg30
(ijoueur
rang
p375
(dp376
g33
I2
sg34
S'^^'
p377
sg36
g276
sbsg38
(dp378
g40
I0
sg41
I0
sg42
I0
sg43
I0
ssg44
(dp379
g40
I0
sg41
I0
sg42
I0
sg43
I0
ssg46
g47
sg48
I0
sg49
I0
sg50
I0
sg51
I0
sg52
(g53
S'TA'
p380
g47
g47
tp381
sg57
(ijoueur
rang
p382
(dp383
g33
I2
sg34
S'^^'
p384
sg36
g276
sbsg60
(dp385
g40
I0
sg41
I0
sg42
I0
sg43
I0
ssg62
(dp386
g40
I0
sg41
I0
sg42
I0
sg43
I0
ssg64
(dp387
g40
I0
sg41
I0
sg42
I0
sg43
I0
ssg66
(dp388
g40
I0
sg41
I0
sg42
I0
sg43
I0
ssg68
I0
sg69
I0
sg70
S'Fendal'
p389
sg72
I1
sg73
I0
sg74
I9
sg75
I8
sg76
g77
sg78
(dp390
g80
I11
sg81
I8
sg82
I6
sg83
I10
sg84
I6
sg85
I10
sg86
I4
sg87
I10
sg88
I7
sg89
I8
sg90
I9
sg91
I5
sg92
I5
sg93
I7
sg94
I12
ssg95
I0
sg96
I0
sg97
I0
sg98
I0
sg99
F8.586206896551724
sg100
I0
sg101
I0
sg102
I0
sg103
g390
sg104
I0
sg105
I0
sg106
I0
sg107
I0
sg108
I2
sg109
I7
sg110
I0
sg111
S'ES'
p391
sbsS'n17'
p392
g286
sS'n14'
p393
g183
sS'n15'
p394
(ijoueur
joueur
p395
(dp396
g27
I0
sg28
I0
sg29
I0
sg30
(ijoueur
rang
p397
(dp398
g33
I4
sg34
g35
sg36
g37
sbsg38
(dp399
g40
I0
sg41
I0
sg42
I0
sg43
I0
ssg44
(dp400
g40
I0
sg41
I0
sg42
I0
sg43
I0
ssg46
g47
sg48
I0
sg49
I0
sg50
I0
sg51
I0
sg52
(g53
S'AR'
p401
S'CE'
p402
g47
tp403
sg57
(ijoueur
rang
p404
(dp405
g33
I2
sg34
S'^^'
p406
sg36
g276
sbsg60
(dp407
g40
I0
sg41
I0
sg42
I0
sg43
I0
ssg62
(dp408
g40
I0
sg41
I0
sg42
I0
sg43
I0
ssg64
(dp409
g40
I0
sg41
I0
sg42
I0
sg43
I0
ssg66
(dp410
g40
I0
sg41
I0
sg42
I0
sg43
I0
ssg68
I0
sg69
I0
sg70
S'Ueltoir'
p411
sg72
I11
sg73
I0
sg74
I21
sg75
I17
sg76
g77
sg78
(dp412
g80
I11
sg81
I4
sg82
I9
sg83
I9
sg84
I8
sg85
I6
sg86
I8
sg87
I9
sg88
I8
sg89
I11
sg90
I11
sg91
I8
sg92
I8
sg93
I11
sg94
I3
ssg95
I0
sg96
I0
sg97
I0
sg98
I0
sg99
F10.0
sg100
I0
sg101
I0
sg102
I0
sg103
g412
sg104
I0
sg105
I0
sg106
I0
sg107
I0
sg108
I2
sg109
I0
sg110
I0
sg111
S'ES'
p413
sbsS'n18'
p414
g264
sS'n19'
p415
(ijoueur
joueur
p416
(dp417
g27
I0
sg28
I0
sg29
I0
sg30
(ijoueur
rang
p418
(dp419
g33
I4
sg34
g35
sg36
g37
sbsg38
(dp420
g40
I0
sg41
I0
sg42
I0
sg43
I0
ssg44
(dp421
g40
I0
sg41
I0
sg42
I0
sg43
I0
ssg46
S'KHR9'
p422
sg48
I0
sg49
I0
sg50
I0
sg51
I0
sg52
(g53
S'TL'
p423
S'N8'
p424
g47
tp425
sg57
(ijoueur
rang
p426
(dp427
g33
I4
sg34
g35
sg36
g37
sbsg60
(dp428
g40
I0
sg41
I0
sg42
I0
sg43
I0
ssg62
(dp429
g40
I0
sg41
I0
sg42
I0
sg43
I0
ssg64
(dp430
g40
I0
sg41
I0
sg42
I0
sg43
I0
ssg66
(dp431
g40
I0
sg41
I0
sg42
I0
sg43
I0
ssg68
I0
sg69
I0
sg70
S'Jdorh'
p432
sg72
I7
sg73
I0
sg74
I20
sg75
I251
sg76
g77
sg78
(dp433
g80
I10
sg81
I8
sg82
I6
sg83
I8
sg84
I8
sg85
I10
sg86
I4
sg87
I10
sg88
I5
sg89
I8
sg90
I8
sg91
I11
sg92
I3
sg93
I13
sg94
I4
ssg95
I0
sg96
I0
sg97
I0
sg98
I0
sg99
F10.290322580645162
sg100
I0
sg101
I0
sg102
I0
sg103
g433
sg104
I0
sg105
I0
sg106
I0
sg107
I0
sg108
I21
sg109
I3
sg110
I0
sg111
S'HB'
p434
sbsS'n22'
p435
(ijoueur
joueur
p436
(dp437
g27
I0
sg28
I0
sg29
I0
sg30
(ijoueur
rang
p438
(dp439
g33
I1
sg34
S'>'
p440
sg36
S'base'
p441
sbsg38
(dp442
g40
I0
sg41
I0
sg42
I0
sg43
I0
ssg44
(dp443
g40
I0
sg41
I0
sg42
I0
sg43
I0
ssg46
g47
sg48
I0
sg49
I0
sg50
I0
sg51
I0
sg52
(g53
S'AR'
p444
S'AI'
p445
g47
tp446
sg57
(ijoueur
rang
p447
(dp448
g33
I1
sg34
g440
sg36
g441
sbsg60
(dp449
g40
I0
sg41
I0
sg42
I0
sg43
I0
ssg62
(dp450
g40
I0
sg41
I0
sg42
I0
sg43
I0
ssg64
(dp451
g40
I0
sg41
I0
sg42
I0
sg43
I0
ssg66
(dp452
g40
I0
sg41
I0
sg42
I0
sg43
I0
ssg68
I0
sg69
I0
sg70
S'Hurg'
p453
sg72
I0
sg73
I0
sg74
I12
sg75
I10
sg76
g77
sg78
(dp454
g80
I7
sg81
I3
sg82
I10
sg83
I9
sg84
I3
sg85
I6
sg86
I8
sg87
I10
sg88
I8
sg89
I9
sg90
I9
sg91
I6
sg92
I8
sg93
I12
sg94
I3
ssg95
I0
sg96
I0
sg97
I0
sg98
I0
sg99
F9.121212121212121
sg100
I0
sg101
I0
sg102
I0
sg103
g454
sg104
I0
sg105
I0
sg106
I0
sg107
I0
sg108
I1
sg109
I1
sg110
I0
sg111
S'O'
p455
sbsS'n21'
p456
(ijoueur
joueur
p457
(dp458
g27
I0
sg28
I0
sg29
I0
sg30
(ijoueur
rang
p459
(dp460
g33
I1
sg34
S'<'
p461
sg36
g441
sbsg38
(dp462
g40
I0
sg41
I0
sg42
I0
sg43
I0
ssg44
(dp463
g40
I0
sg41
I0
sg42
I0
sg43
I0
ssg46
g47
sg48
I0
sg49
I0
sg50
I0
sg51
I0
sg52
(g53
S'C2'
p464
S'AR'
p465
S'AI'
p466
tp467
sg57
(ijoueur
rang
p468
(dp469
g33
I1
sg34
g461
sg36
g441
sbsg60
(dp470
g40
I0
sg41
I0
sg42
I0
sg43
I0
ssg62
(dp471
g40
I0
sg41
I0
sg42
I0
sg43
I0
ssg64
(dp472
g40
I0
sg41
I0
sg42
I0
sg43
I0
ssg66
(dp473
g40
I0
sg41
I0
sg42
I0
sg43
I0
ssg68
I0
sg69
I0
sg70
S'Dolean'
p474
sg72
I4
sg73
I0
sg74
I13
sg75
I8
sg76
g77
sg78
(dp475
g80
I8
sg81
I3
sg82
I10
sg83
I10
sg84
I5
sg85
I6
sg86
I8
sg87
I10
sg88
I8
sg89
I11
sg90
I10
sg91
I6
sg92
I7
sg93
I11
sg94
I2
ssg95
I0
sg96
I0
sg97
I0
sg98
I0
sg99
F9.620689655172415
sg100
I0
sg101
I0
sg102
I0
sg103
g475
sg104
I0
sg105
I0
sg106
I0
sg107
I0
sg108
I1
sg109
I8
sg110
I0
sg111
S'ES'
p476
sbsS'n20'
p477
g244
sS'n8'
p478
(ijoueur
joueur
p479
(dp480
g27
I0
sg28
I0
sg29
I0
sg30
(ijoueur
rang
p481
(dp482
g33
I4
sg34
g187
sg36
g37
sbsg38
(dp483
g40
I0
sg41
I0
sg42
I0
sg43
I0
ssg44
(dp484
g40
I0
sg41
I0
sg42
I0
sg43
I0
ssg46
S'MRB11'
p485
sg48
I0
sg49
I0
sg50
I0
sg51
I0
sg52
(g53
S'N8'
p486
S'TL'
p487
g47
tp488
sg57
(ijoueur
rang
p489
(dp490
g33
I4
sg34
g187
sg36
g37
sbsg60
(dp491
g40
I0
sg41
I0
sg42
I0
sg43
I0
ssg62
(dp492
g40
I0
sg41
I0
sg42
I0
sg43
I0
ssg64
(dp493
g40
I0
sg41
I0
sg42
I0
sg43
I0
ssg66
(dp494
g40
I0
sg41
I0
sg42
I0
sg43
I0
ssg68
I0
sg69
I0
sg70
S"Kal'Darq"
p495
sg72
I5
sg73
I0
sg74
I15
sg75
I283
sg76
g77
sg78
(dp496
g80
I11
sg81
I11
sg82
I7
sg83
I11
sg84
I8
sg85
I12
sg86
I0
sg87
I12
sg88
I2
sg89
I8
sg90
I7
sg91
I13
sg92
I1
sg93
I10
sg94
I7
ssg95
I0
sg96
I0
sg97
I0
sg98
I0
sg99
F11.241379310344827
sg100
I0
sg101
I0
sg102
I0
sg103
g496
sg104
I0
sg105
I0
sg106
I0
sg107
I0
sg108
I56
sg109
I17
sg110
I0
sg111
S'HL'
p497
sbsS'n9'
p498
g25
sS'n1'
p499
(ijoueur
joueur
p500
(dp501
g27
I0
sg28
I0
sg29
I0
sg30
(ijoueur
rang
p502
(dp503
g33
I5
sg34
S'**'
p504
sg36
g142
sbsg38
(dp505
g40
I0
sg41
I0
sg42
I0
sg43
I0
ssg44
(dp506
g40
I0
sg41
I0
sg42
I0
sg43
I0
ssg46
g47
sg48
I0
sg49
I0
sg50
I0
sg51
I0
sg52
(g53
S'TA'
p507
S'PI'
p508
g47
tp509
sg57
(ijoueur
rang
p510
(dp511
g33
I5
sg34
S'**'
p512
sg36
g142
sbsg60
(dp513
g40
I0
sg41
I0
sg42
I0
sg43
I0
ssg62
(dp514
g40
I0
sg41
I0
sg42
I0
sg43
I0
ssg64
(dp515
g40
I0
sg41
I0
sg42
I0
sg43
I0
ssg66
(dp516
g40
I0
sg41
I0
sg42
I0
sg43
I0
ssg68
I0
sg69
I0
sg70
S'Kholkov'
p517
sg72
I7
sg73
I0
sg74
I22
sg75
I184
sg76
g77
sg78
(dp518
g80
I13
sg81
I12
sg82
I10
sg83
I11
sg84
I9
sg85
I10
sg86
I6
sg87
I13
sg88
I5
sg89
I9
sg90
I10
sg91
I11
sg92
I7
sg93
I12
sg94
I10
ssg95
I0
sg96
I0
sg97
I0
sg98
I0
sg99
F11.413793103448276
sg100
I0
sg101
I0
sg102
I0
sg103
g518
sg104
I0
sg105
I0
sg106
I0
sg107
I0
sg108
I23
sg109
I2
sg110
I0
sg111
S'CV'
p519
sbsS'n2'
p520
g159
sS'n3'
p521
(ijoueur
joueur
p522
(dp523
g27
I0
sg28
I0
sg29
I0
sg30
(ijoueur
rang
p524
(dp525
g33
I5
sg34
S'**'
p526
sg36
g142
sbsg38
(dp527
g40
I0
sg41
I0
sg42
I0
sg43
I0
ssg44
(dp528
g40
I0
sg41
I0
sg42
I0
sg43
I0
ssg46
g47
sg48
I0
sg49
I0
sg50
I0
sg51
I0
sg52
(g53
S'PI'
p529
g47
g47
tp530
sg57
(ijoueur
rang
p531
(dp532
g33
I5
sg34
S'**'
p533
sg36
g142
sbsg60
(dp534
g40
I0
sg41
I0
sg42
I0
sg43
I0
ssg62
(dp535
g40
I0
sg41
I0
sg42
I0
sg43
I0
ssg64
(dp536
g40
I0
sg41
I0
sg42
I0
sg43
I0
ssg66
(dp537
g40
I0
sg41
I0
sg42
I0
sg43
I0
ssg68
I0
sg69
I0
sg70
S'Rendard'
p538
sg72
I3
sg73
I0
sg74
I10
sg75
I136
sg76
g77
sg78
(dp539
g80
I10
sg81
I11
sg82
I7
sg83
I10
sg84
I7
sg85
I13
sg86
I1
sg87
I13
sg88
I4
sg89
I8
sg90
I9
sg91
I10
sg92
I4
sg93
I10
sg94
I7
ssg95
I0
sg96
I0
sg97
I0
sg98
I0
sg99
F10.518518518518519
sg100
I0
sg101
I0
sg102
I0
sg103
g539
sg104
I0
sg105
I0
sg106
I0
sg107
I0
sg108
I12
sg109
I16
sg110
I0
sg111
S'B'
p540
sbsS'n4'
p541
g223
sS'n5'
p542
(ijoueur
joueur
p543
(dp544
g27
I0
sg28
I0
sg29
I0
sg30
(ijoueur
rang
p545
(dp546
g33
I4
sg34
g35
sg36
g37
sbsg38
(dp547
g40
I0
sg41
I0
sg42
I0
sg43
I0
ssg44
(dp548
g40
I0
sg41
I0
sg42
I0
sg43
I0
ssg46
g47
sg48
I0
sg49
I0
sg50
I0
sg51
I0
sg52
(g53
S'DL'
p549
S'TL'
p550
S'N8'
p551
tp552
sg57
(ijoueur
rang
p553
(dp554
g33
I5
sg34
S'xx'
p555
sg36
g142
sbsg60
(dp556
g40
I0
sg41
I0
sg42
I0
sg43
I0
ssg62
(dp557
g40
I0
sg41
I0
sg42
I0
sg43
I0
ssg64
(dp558
g40
I0
sg41
I0
sg42
I0
sg43
I0
ssg66
(dp559
g40
I0
sg41
I0
sg42
I0
sg43
I0
ssg68
I0
sg69
I0
sg70
S'Mud'
p560
sg72
I1
sg73
I0
sg74
I10
sg75
I80
sg76
g77
sg78
(dp561
g80
I9
sg81
I10
sg82
I7
sg83
I9
sg84
I8
sg85
I12
sg86
I3
sg87
I12
sg88
I5
sg89
I7
sg90
I6
sg91
I10
sg92
I3
sg93
I10
sg94
I7
ssg95
I0
sg96
I0
sg97
I0
sg98
I0
sg99
F9.814814814814815
sg100
I0
sg101
I0
sg102
I0
sg103
g561
sg104
I0
sg105
I0
sg106
I0
sg107
I0
sg108
I7
sg109
I4
sg110
I0
sg111
g455
sbsS'n6'
p562
g114
sS'n7'
p563
g205
ssS'remplacements'
p564
(dp565
g372
S'n0'
p566
sg392
g566
sg414
g566
sg415
g566
sg435
g566
sg456
g566
sg477
g566
ssb.