ccopy_reg
_reconstructor
p0
(cclub
club
p1
c__builtin__
object
p2
Ntp3
Rp4
(dp5
S'joues_championat'
p6
I0
sS'pour_championat'
p7
I0
sS'contre_championat'
p8
I0
sS'_compo_defaut_fatigue'
p9
NsS'perdus_championat'
p10
I0
sS'difference_championat'
p11
I0
sS'perdus_coupe'
p12
I0
sS'pour_coupe'
p13
I0
sS'gagnes_championat'
p14
I0
sS'bonus_defensif_championat'
p15
I0
sS'contre_coupe'
p16
I0
sS'joues_coupe'
p17
I0
sS'bonus_offensif_coupe'
p18
I0
sS'valeur'
p19
I1933
sS'bonus_defensif_coupe'
p20
I0
sS'joueurs'
p21
(dp22
S'DO'
p23
(lp24
(ijoueur
joueur
p25
(dp26
S'rouges_total'
p27
I0
sS'drop_ratees_total'
p28
I0
sS'drops_total'
p29
I0
sS'poste3'
p30
S''
p31
sS'blessure'
p32
I0
sS'poste1'
p33
g31
sS'RG_max'
p34
g0
(cjoueur
rang_new
p35
g2
Ntp36
Rp37
(dp38
S'type_nb'
p39
I3
sS'rang'
p40
S'^^^'
p41
sS'type'
p42
S'rare'
p43
sbsS'MJ2_total'
p44
(dp45
S'SR'
p46
I0
sS'CT'
p47
I0
sS'CR'
p48
I0
sS'ST'
p49
I0
ssS'MJ3_total'
p50
(dp51
g46
I0
sg47
I0
sg48
I0
sg49
I0
ssS'D'
p52
I17
sS'anciens_clubs'
p53
g31
sS'drop_rates_saison'
p54
I0
sS'essais_saison'
p55
I0
sS'penalite_ratees_saison'
p56
I0
sS'transformations_saison'
p57
I0
sS'club'
p58
S'KKR'
p59
sS'veut_partir'
p60
I00
sS'RG'
p61
g37
sS'MJ1'
p62
(dp63
g46
I0
sg47
I0
sg48
I0
sg49
I0
ssS'MJ2'
p64
(dp65
g46
I0
sg47
I0
sg48
I0
sg49
I0
ssS'MJ3'
p66
(dp67
g46
I0
sg47
I0
sg48
I0
sg49
I0
ssS'MJ1_total'
p68
(dp69
g46
I0
sg47
I0
sg48
I0
sg49
I0
ssS'penalites_total'
p70
I0
sS'penalites_saison'
p71
I0
sS'nom'
p72
S'Wignik'
p73
sS'C'
p74
I4
sS'transformations_total'
p75
I0
sS'MS_probleme'
p76
I00
sS'VAL'
p77
I19
sS'postes'
p78
(S'dummy'
p79
g23
S'AR'
p80
g31
tp81
sS'poste2'
p82
g31
sS'caracs'
p83
(dp84
S'RP1'
p85
I6
sS'ME'
p86
I5
sS'RP2'
p87
I7
sS'E'
p88
I12
sS'P'
p89
I8
sS'JP'
p90
I8
sS'M'
p91
I8
sS'RP_tot'
p92
I7
sS'TO'
p93
I4
sS'PA'
p94
I7
sS'A'
p95
I8
sS'R'
p96
I7
sS'TB'
p97
I8
sS'PL'
p98
I10
sS'TA'
p99
I5
ssS'jj_passe'
p100
(dp101
S's12'
p102
(ijoueur
joueur
p103
(dp104
g27
I0
sg28
I0
sg29
I0
sg32
I0
sg34
g0
(g35
g2
Ntp105
Rp106
(dp107
g40
g31
sbsg44
(dp108
g46
I0
sg47
I0
sg48
I0
sg49
I0
ssg50
(dp109
g46
I0
sg47
I0
sg48
I0
sg49
I0
ssg52
I0
sg53
g31
sg54
I0
sg55
I0
sg56
I0
sg57
I0
sg78
(g79
g23
g31
g31
tp110
sg60
I00
sg61
g0
(g35
g2
Ntp111
Rp112
(dp113
g40
g31
sbsg62
(dp114
g46
I0
sg47
I0
sg48
I0
sg49
I0
ssg64
(dp115
g46
I0
sg47
I0
sg48
I0
sg49
I0
ssg66
(dp116
g46
I0
sg47
I0
sg48
I0
sg49
I0
ssg68
(dp117
g46
I0
sg47
I0
sg48
I0
sg49
I0
ssg70
I0
sg71
I0
sg72
g31
sg74
I0
sg75
I0
sg76
I00
sg77
I0
sg58
g59
sg83
(dp118
g95
I0
sg86
I0
sg87
I0
sg88
I0
sg89
I0
sg85
I0
sg90
I0
sg92
I0
sg93
I0
sg94
I0
sg91
I0
sg96
I0
sg97
I0
sg98
I0
sg99
I0
ssg100
(dp119
sS'fatigue'
p120
I0
sS'changements_postes'
p121
g31
sS'blessures_total'
p122
I0
sS'XP'
p123
I0
sS'EV'
p124
F0.0
sS'penalite_ratees_total'
p125
I0
sS'blessures_saison'
p126
I0
sS'jaunes_total'
p127
I0
sS'caracs_sans_fatigue'
p128
g84
sS'rouges_saison'
p129
I0
sS'transformation_ratees_total'
p130
I0
sS'drops_saison'
p131
I0
sS'transformation_ratees_saison'
p132
I0
sS'MS'
p133
I0
sS'essais_total'
p134
I0
sS'jaunes_saison'
p135
I0
sS'ARM'
p136
g31
sbsS's11'
p137
(ijoueur
joueur
p138
(dp139
g27
I0
sg28
I0
sg29
I0
sg32
I0
sg34
g0
(g35
g2
Ntp140
Rp141
(dp142
g40
g31
sbsg44
(dp143
g46
I0
sg47
I0
sg48
I0
sg49
I0
ssg50
(dp144
g46
I0
sg47
I0
sg48
I0
sg49
I0
ssg52
I0
sg53
g31
sg54
I0
sg55
I0
sg56
I0
sg57
I0
sg78
g110
sg60
I00
sg61
g0
(g35
g2
Ntp145
Rp146
(dp147
g40
g31
sbsg62
(dp148
g46
I0
sg47
I0
sg48
I0
sg49
I0
ssg64
(dp149
g46
I0
sg47
I0
sg48
I0
sg49
I0
ssg66
(dp150
g46
I0
sg47
I0
sg48
I0
sg49
I0
ssg68
(dp151
g46
I0
sg47
I0
sg48
I0
sg49
I0
ssg70
I0
sg71
I0
sg72
g31
sg74
I0
sg75
I0
sg76
I00
sg77
I0
sg58
g59
sg83
(dp152
g95
I0
sg86
I0
sg87
I0
sg88
I0
sg89
I0
sg85
I0
sg90
I0
sg92
I0
sg93
I0
sg94
I0
sg91
I0
sg96
I0
sg97
I0
sg98
I0
sg99
I0
ssg100
(dp153
sg120
I0
sg121
g31
sg122
I0
sg123
I0
sg124
F0.0
sg125
I0
sg126
I0
sg127
I0
sg128
g84
sg129
I0
sg130
I0
sg131
I0
sg132
I0
sg133
I0
sg134
I0
sg135
I0
sg136
g31
sbssg120
I0
sg121
g31
sg122
I0
sg123
I0
sg124
F8.454545454545455
sg125
I0
sg126
I0
sg127
I0
sg128
g84
sg129
I0
sg130
I0
sg131
I0
sg132
I0
sg133
I1
sg134
I0
sg135
I0
sg136
S'N'
p154
sba(ijoueur
joueur
p155
(dp156
g27
I0
sg28
I0
sg29
I0
sg30
g31
sg32
I0
sg33
g31
sg34
g0
(g35
g2
Ntp157
Rp158
(dp159
g39
I4
sg40
S'*'
p160
sg42
S'heros'
p161
sbsg44
(dp162
g46
I0
sg47
I0
sg48
I0
sg49
I0
ssg50
(dp163
g46
I0
sg47
I0
sg48
I0
sg49
I0
ssg52
I13
sg53
g31
sg54
I0
sg55
I0
sg56
I0
sg57
I0
sg58
g59
sg60
I00
sg61
g158
sg62
(dp164
g46
I0
sg47
I0
sg48
I0
sg49
I0
ssg64
(dp165
g46
I0
sg47
I0
sg48
I0
sg49
I0
ssg66
(dp166
g46
I0
sg47
I0
sg48
I0
sg49
I0
ssg68
(dp167
g46
I0
sg47
I0
sg48
I0
sg49
I0
ssg70
I0
sg71
I0
sg72
S'Amdril'
p168
sg74
I4
sg75
I0
sg76
I00
sg77
I114
sg78
(g79
g23
g31
g31
tp169
sg82
g31
sg83
(dp170
g85
I8
sg86
I4
sg87
I8
sg88
I13
sg89
I10
sg90
I8
sg91
I7
sg92
I10
sg93
I6
sg94
I7
sg95
I11
sg96
I8
sg97
I9
sg98
I10
sg99
I6
ssg100
(dp171
S's12'
p172
(ijoueur
joueur
p173
(dp174
g27
I0
sg28
I0
sg29
I0
sg32
I0
sg34
g0
(g35
g2
Ntp175
Rp176
(dp177
g40
g31
sbsg44
(dp178
g46
I0
sg47
I0
sg48
I0
sg49
I0
ssg50
(dp179
g46
I0
sg47
I0
sg48
I0
sg49
I0
ssg52
I0
sg53
g31
sg54
I0
sg55
I0
sg56
I0
sg57
I0
sg78
(g79
g23
g31
g31
tp180
sg60
I00
sg61
g0
(g35
g2
Ntp181
Rp182
(dp183
g40
g31
sbsg62
(dp184
g46
I0
sg47
I0
sg48
I0
sg49
I0
ssg64
(dp185
g46
I0
sg47
I0
sg48
I0
sg49
I0
ssg66
(dp186
g46
I0
sg47
I0
sg48
I0
sg49
I0
ssg68
(dp187
g46
I0
sg47
I0
sg48
I0
sg49
I0
ssg70
I0
sg71
I0
sg72
g31
sg74
I0
sg75
I0
sg76
I00
sg77
I0
sg58
g59
sg83
(dp188
g95
I0
sg86
I0
sg87
I0
sg88
I0
sg89
I0
sg85
I0
sg90
I0
sg92
I0
sg93
I0
sg94
I0
sg91
I0
sg96
I0
sg97
I0
sg98
I0
sg99
I0
ssg100
(dp189
sg120
I0
sg121
g31
sg122
I0
sg123
I0
sg124
F0.0
sg125
I0
sg126
I0
sg127
I0
sg128
g170
sg129
I0
sg130
I0
sg131
I0
sg132
I0
sg133
I0
sg134
I0
sg135
I0
sg136
g31
sbsS's11'
p190
(ijoueur
joueur
p191
(dp192
g27
I0
sg28
I0
sg29
I0
sg32
I0
sg34
g0
(g35
g2
Ntp193
Rp194
(dp195
g40
g31
sbsg44
(dp196
g46
I0
sg47
I0
sg48
I0
sg49
I0
ssg50
(dp197
g46
I0
sg47
I0
sg48
I0
sg49
I0
ssg52
I0
sg53
g31
sg54
I0
sg55
I0
sg56
I0
sg57
I0
sg78
g180
sg60
I00
sg61
g0
(g35
g2
Ntp198
Rp199
(dp200
g40
g31
sbsg62
(dp201
g46
I0
sg47
I0
sg48
I0
sg49
I0
ssg64
(dp202
g46
I0
sg47
I0
sg48
I0
sg49
I0
ssg66
(dp203
g46
I0
sg47
I0
sg48
I0
sg49
I0
ssg68
(dp204
g46
I0
sg47
I0
sg48
I0
sg49
I0
ssg70
I0
sg71
I0
sg72
g31
sg74
I0
sg75
I0
sg76
I00
sg77
I0
sg58
g59
sg83
(dp205
g95
I0
sg86
I0
sg87
I0
sg88
I0
sg89
I0
sg85
I0
sg90
I0
sg92
I0
sg93
I0
sg94
I0
sg91
I0
sg96
I0
sg97
I0
sg98
I0
sg99
I0
ssg100
(dp206
sg120
I0
sg121
g31
sg122
I0
sg123
I0
sg124
F0.0
sg125
I0
sg126
I0
sg127
I0
sg128
g170
sg129
I0
sg130
I0
sg131
I0
sg132
I0
sg133
I0
sg134
I0
sg135
I0
sg136
g31
sbssg120
I0
sg121
g31
sg122
I0
sg123
I0
sg124
F9.363636363636363
sg125
I0
sg126
I0
sg127
I0
sg128
g170
sg129
I0
sg130
I0
sg131
I0
sg132
I0
sg133
I11
sg134
I0
sg135
I0
sg136
g154
sbasS'DL'
p207
(lp208
(ijoueur
joueur
p209
(dp210
g27
I0
sg28
I0
sg29
I0
sg30
g31
sg32
I0
sg33
g31
sg34
g0
(g35
g2
Ntp211
Rp212
(dp213
g39
I4
sg40
g160
sg42
g161
sbsg44
(dp214
g46
I0
sg47
I0
sg48
I0
sg49
I0
ssg50
(dp215
g46
I0
sg47
I0
sg48
I0
sg49
I0
ssg52
I15
sg53
g31
sg54
I0
sg55
I0
sg56
I0
sg57
I0
sg58
g59
sg60
I00
sg61
g212
sg62
(dp216
g46
I0
sg47
I0
sg48
I0
sg49
I0
ssg64
(dp217
g46
I0
sg47
I0
sg48
I0
sg49
I0
ssg66
(dp218
g46
I0
sg47
I0
sg48
I0
sg49
I0
ssg68
(dp219
g46
I0
sg47
I0
sg48
I0
sg49
I0
ssg70
I0
sg71
I0
sg72
S'Yskonoer'
p220
sg74
I6
sg75
I0
sg76
I00
sg77
I96
sg78
(g79
g207
S'TL'
p221
g31
tp222
sg82
g31
sg83
(dp223
g85
I8
sg86
I8
sg87
I7
sg88
I11
sg89
I4
sg90
I3
sg91
I7
sg92
I9
sg93
I8
sg94
I9
sg95
I8
sg96
I10
sg97
I5
sg98
I11
sg99
I4
ssg100
(dp224
S's12'
p225
(ijoueur
joueur
p226
(dp227
g27
I0
sg28
I0
sg29
I0
sg32
I0
sg34
g0
(g35
g2
Ntp228
Rp229
(dp230
g40
g31
sbsg44
(dp231
g46
I0
sg47
I0
sg48
I0
sg49
I0
ssg50
(dp232
g46
I0
sg47
I0
sg48
I0
sg49
I0
ssg52
I0
sg53
g31
sg54
I0
sg55
I0
sg56
I0
sg57
I0
sg78
(g79
g207
g31
g31
tp233
sg60
I00
sg61
g0
(g35
g2
Ntp234
Rp235
(dp236
g40
g31
sbsg62
(dp237
g46
I0
sg47
I0
sg48
I0
sg49
I0
ssg64
(dp238
g46
I0
sg47
I0
sg48
I0
sg49
I0
ssg66
(dp239
g46
I0
sg47
I0
sg48
I0
sg49
I0
ssg68
(dp240
g46
I0
sg47
I0
sg48
I0
sg49
I0
ssg70
I0
sg71
I0
sg72
g31
sg74
I0
sg75
I0
sg76
I00
sg77
I0
sg58
g59
sg83
(dp241
g95
I0
sg86
I0
sg87
I0
sg88
I0
sg89
I0
sg85
I0
sg90
I0
sg92
I0
sg93
I0
sg94
I0
sg91
I0
sg96
I0
sg97
I0
sg98
I0
sg99
I0
ssg100
(dp242
sg120
I0
sg121
g31
sg122
I0
sg123
I0
sg124
F0.0
sg125
I0
sg126
I0
sg127
I0
sg128
g223
sg129
I0
sg130
I0
sg131
I0
sg132
I0
sg133
I0
sg134
I0
sg135
I0
sg136
g31
sbsS's11'
p243
(ijoueur
joueur
p244
(dp245
g27
I0
sg28
I0
sg29
I0
sg32
I0
sg34
g0
(g35
g2
Ntp246
Rp247
(dp248
g40
g31
sbsg44
(dp249
g46
I0
sg47
I0
sg48
I0
sg49
I0
ssg50
(dp250
g46
I0
sg47
I0
sg48
I0
sg49
I0
ssg52
I0
sg53
g31
sg54
I0
sg55
I0
sg56
I0
sg57
I0
sg78
g233
sg60
I00
sg61
g0
(g35
g2
Ntp251
Rp252
(dp253
g40
g31
sbsg62
(dp254
g46
I0
sg47
I0
sg48
I0
sg49
I0
ssg64
(dp255
g46
I0
sg47
I0
sg48
I0
sg49
I0
ssg66
(dp256
g46
I0
sg47
I0
sg48
I0
sg49
I0
ssg68
(dp257
g46
I0
sg47
I0
sg48
I0
sg49
I0
ssg70
I0
sg71
I0
sg72
g31
sg74
I0
sg75
I0
sg76
I00
sg77
I0
sg58
g59
sg83
(dp258
g95
I0
sg86
I0
sg87
I0
sg88
I0
sg89
I0
sg85
I0
sg90
I0
sg92
I0
sg93
I0
sg94
I0
sg91
I0
sg96
I0
sg97
I0
sg98
I0
sg99
I0
ssg100
(dp259
sg120
I0
sg121
g31
sg122
I0
sg123
I0
sg124
F0.0
sg125
I0
sg126
I0
sg127
I0
sg128
g223
sg129
I0
sg130
I0
sg131
I0
sg132
I0
sg133
I0
sg134
I0
sg135
I0
sg136
g31
sbssg120
I0
sg121
g31
sg122
I0
sg123
I0
sg124
F9.555555555555555
sg125
I0
sg126
I0
sg127
I0
sg128
g223
sg129
I0
sg130
I0
sg131
I0
sg132
I0
sg133
I9
sg134
I0
sg135
I0
sg136
g154
sba(ijoueur
joueur
p260
(dp261
g27
I0
sg28
I0
sg29
I0
sg30
g31
sg32
I0
sg33
g31
sg34
g0
(g35
g2
Ntp262
Rp263
(dp264
g39
I1
sg40
S'^'
p265
sg42
S'base'
p266
sbsg44
(dp267
g46
I0
sg47
I0
sg48
I0
sg49
I0
ssg50
(dp268
g46
I0
sg47
I0
sg48
I0
sg49
I0
ssg52
I21
sg53
g31
sg54
I0
sg55
I0
sg56
I0
sg57
I0
sg58
g59
sg60
I00
sg61
g263
sg62
(dp269
g46
I0
sg47
I0
sg48
I0
sg49
I0
ssg64
(dp270
g46
I0
sg47
I0
sg48
I0
sg49
I0
ssg66
(dp271
g46
I0
sg47
I0
sg48
I0
sg49
I0
ssg68
(dp272
g46
I0
sg47
I0
sg48
I0
sg49
I0
ssg70
I0
sg71
I0
sg72
S'Throed'
p273
sg74
I11
sg75
I0
sg76
I00
sg77
I20
sg78
(g79
g207
S'PI'
p274
g31
tp275
sg82
g31
sg83
(dp276
g85
I6
sg86
I10
sg87
I6
sg88
I10
sg89
I3
sg90
I3
sg91
I8
sg92
I7
sg93
I8
sg94
I7
sg95
I8
sg96
I10
sg97
I1
sg98
I10
sg99
I4
ssg100
(dp277
S's12'
p278
(ijoueur
joueur
p279
(dp280
g27
I0
sg28
I0
sg29
I0
sg32
I0
sg34
g0
(g35
g2
Ntp281
Rp282
(dp283
g40
g31
sbsg44
(dp284
g46
I0
sg47
I0
sg48
I0
sg49
I0
ssg50
(dp285
g46
I0
sg47
I0
sg48
I0
sg49
I0
ssg52
I0
sg53
g31
sg54
I0
sg55
I0
sg56
I0
sg57
I0
sg78
(g79
g207
g31
g31
tp286
sg60
I00
sg61
g0
(g35
g2
Ntp287
Rp288
(dp289
g40
g31
sbsg62
(dp290
g46
I0
sg47
I0
sg48
I0
sg49
I0
ssg64
(dp291
g46
I0
sg47
I0
sg48
I0
sg49
I0
ssg66
(dp292
g46
I0
sg47
I0
sg48
I0
sg49
I0
ssg68
(dp293
g46
I0
sg47
I0
sg48
I0
sg49
I0
ssg70
I0
sg71
I0
sg72
g31
sg74
I0
sg75
I0
sg76
I00
sg77
I0
sg58
g59
sg83
(dp294
g95
I0
sg86
I0
sg87
I0
sg88
I0
sg89
I0
sg85
I0
sg90
I0
sg92
I0
sg93
I0
sg94
I0
sg91
I0
sg96
I0
sg97
I0
sg98
I0
sg99
I0
ssg100
(dp295
sg120
I0
sg121
g31
sg122
I0
sg123
I0
sg124
F0.0
sg125
I0
sg126
I0
sg127
I0
sg128
g276
sg129
I0
sg130
I0
sg131
I0
sg132
I0
sg133
I0
sg134
I0
sg135
I0
sg136
g31
sbsS's11'
p296
(ijoueur
joueur
p297
(dp298
g27
I0
sg28
I0
sg29
I0
sg32
I0
sg34
g0
(g35
g2
Ntp299
Rp300
(dp301
g40
g31
sbsg44
(dp302
g46
I0
sg47
I0
sg48
I0
sg49
I0
ssg50
(dp303
g46
I0
sg47
I0
sg48
I0
sg49
I0
ssg52
I0
sg53
g31
sg54
I0
sg55
I0
sg56
I0
sg57
I0
sg78
g286
sg60
I00
sg61
g0
(g35
g2
Ntp304
Rp305
(dp306
g40
g31
sbsg62
(dp307
g46
I0
sg47
I0
sg48
I0
sg49
I0
ssg64
(dp308
g46
I0
sg47
I0
sg48
I0
sg49
I0
ssg66
(dp309
g46
I0
sg47
I0
sg48
I0
sg49
I0
ssg68
(dp310
g46
I0
sg47
I0
sg48
I0
sg49
I0
ssg70
I0
sg71
I0
sg72
g31
sg74
I0
sg75
I0
sg76
I00
sg77
I0
sg58
g59
sg83
(dp311
g95
I0
sg86
I0
sg87
I0
sg88
I0
sg89
I0
sg85
I0
sg90
I0
sg92
I0
sg93
I0
sg94
I0
sg91
I0
sg96
I0
sg97
I0
sg98
I0
sg99
I0
ssg100
(dp312
sg120
I0
sg121
g31
sg122
I0
sg123
I0
sg124
F0.0
sg125
I0
sg126
I0
sg127
I0
sg128
g276
sg129
I0
sg130
I0
sg131
I0
sg132
I0
sg133
I0
sg134
I0
sg135
I0
sg136
g31
sbssg120
I0
sg121
g31
sg122
I0
sg123
I0
sg124
F9.222222222222221
sg125
I0
sg126
I0
sg127
I0
sg128
g276
sg129
I0
sg130
I0
sg131
I0
sg132
I0
sg133
I2
sg134
I0
sg135
I0
sg136
g154
sba(ijoueur
joueur
p313
(dp314
g27
I0
sg28
I0
sg29
I0
sg30
g31
sg32
I0
sg33
g31
sg34
g0
(g35
g2
Ntp315
Rp316
(dp317
g39
I5
sg40
S'xx'
p318
sg42
S'seigneur'
p319
sbsg44
(dp320
g46
I0
sg47
I0
sg48
I0
sg49
I0
ssg50
(dp321
g46
I0
sg47
I0
sg48
I0
sg49
I0
ssg52
I21
sg53
g31
sg54
I0
sg55
I0
sg56
I0
sg57
I0
sg58
g59
sg60
I00
sg61
g316
sg62
(dp322
g46
I0
sg47
I0
sg48
I0
sg49
I0
ssg64
(dp323
g46
I0
sg47
I0
sg48
I0
sg49
I0
ssg66
(dp324
g46
I0
sg47
I0
sg48
I0
sg49
I0
ssg68
(dp325
g46
I0
sg47
I0
sg48
I0
sg49
I0
ssg70
I0
sg71
I0
sg72
S'Xatagnig'
p326
sg74
I11
sg75
I0
sg76
I00
sg77
I252
sg78
(g79
g207
g31
g31
tp327
sg82
g31
sg83
(dp328
g85
I10
sg86
I8
sg87
I7
sg88
I12
sg89
I4
sg90
I4
sg91
I7
sg92
I10
sg93
I10
sg94
I8
sg95
I8
sg96
I7
sg97
I3
sg98
I12
sg99
I4
ssg100
(dp329
S's12'
p330
(ijoueur
joueur
p331
(dp332
g27
I0
sg28
I0
sg29
I0
sg32
I0
sg34
g0
(g35
g2
Ntp333
Rp334
(dp335
g40
g31
sbsg44
(dp336
g46
I0
sg47
I0
sg48
I0
sg49
I0
ssg50
(dp337
g46
I0
sg47
I0
sg48
I0
sg49
I0
ssg52
I0
sg53
g31
sg54
I0
sg55
I0
sg56
I0
sg57
I0
sg78
(g79
g207
g31
g31
tp338
sg60
I00
sg61
g0
(g35
g2
Ntp339
Rp340
(dp341
g40
g31
sbsg62
(dp342
g46
I0
sg47
I0
sg48
I0
sg49
I0
ssg64
(dp343
g46
I0
sg47
I0
sg48
I0
sg49
I0
ssg66
(dp344
g46
I0
sg47
I0
sg48
I0
sg49
I0
ssg68
(dp345
g46
I0
sg47
I0
sg48
I0
sg49
I0
ssg70
I0
sg71
I0
sg72
g31
sg74
I0
sg75
I0
sg76
I00
sg77
I0
sg58
g59
sg83
(dp346
g95
I0
sg86
I0
sg87
I0
sg88
I0
sg89
I0
sg85
I0
sg90
I0
sg92
I0
sg93
I0
sg94
I0
sg91
I0
sg96
I0
sg97
I0
sg98
I0
sg99
I0
ssg100
(dp347
sg120
I0
sg121
g31
sg122
I0
sg123
I0
sg124
F0.0
sg125
I0
sg126
I0
sg127
I0
sg128
g328
sg129
I0
sg130
I0
sg131
I0
sg132
I0
sg133
I0
sg134
I0
sg135
I0
sg136
g31
sbsS's11'
p348
(ijoueur
joueur
p349
(dp350
g27
I0
sg28
I0
sg29
I0
sg32
I0
sg34
g0
(g35
g2
Ntp351
Rp352
(dp353
g40
g31
sbsg44
(dp354
g46
I0
sg47
I0
sg48
I0
sg49
I0
ssg50
(dp355
g46
I0
sg47
I0
sg48
I0
sg49
I0
ssg52
I0
sg53
g31
sg54
I0
sg55
I0
sg56
I0
sg57
I0
sg78
g338
sg60
I00
sg61
g0
(g35
g2
Ntp356
Rp357
(dp358
g40
g31
sbsg62
(dp359
g46
I0
sg47
I0
sg48
I0
sg49
I0
ssg64
(dp360
g46
I0
sg47
I0
sg48
I0
sg49
I0
ssg66
(dp361
g46
I0
sg47
I0
sg48
I0
sg49
I0
ssg68
(dp362
g46
I0
sg47
I0
sg48
I0
sg49
I0
ssg70
I0
sg71
I0
sg72
g31
sg74
I0
sg75
I0
sg76
I00
sg77
I0
sg58
g59
sg83
(dp363
g95
I0
sg86
I0
sg87
I0
sg88
I0
sg89
I0
sg85
I0
sg90
I0
sg92
I0
sg93
I0
sg94
I0
sg91
I0
sg96
I0
sg97
I0
sg98
I0
sg99
I0
ssg100
(dp364
sg120
I0
sg121
g31
sg122
I0
sg123
I0
sg124
F0.0
sg125
I0
sg126
I0
sg127
I0
sg128
g328
sg129
I0
sg130
I0
sg131
I0
sg132
I0
sg133
I0
sg134
I0
sg135
I0
sg136
g31
sbssg120
I0
sg121
g31
sg122
I0
sg123
I0
sg124
F9.352941176470589
sg125
I0
sg126
I0
sg127
I0
sg128
g328
sg129
I0
sg130
I0
sg131
I0
sg132
I0
sg133
I25
sg134
I0
sg135
I0
sg136
g154
sba(ijoueur
joueur
p365
(dp366
g27
I0
sg28
I0
sg29
I0
sg30
g31
sg32
I0
sg33
g31
sg34
g0
(g35
g2
Ntp367
Rp368
(dp369
g39
I5
sg40
g318
sg42
g319
sbsg44
(dp370
g46
I0
sg47
I0
sg48
I0
sg49
I0
ssg50
(dp371
g46
I0
sg47
I0
sg48
I0
sg49
I0
ssg52
I24
sg53
g31
sg54
I0
sg55
I0
sg56
I0
sg57
I0
sg58
g59
sg60
I00
sg61
g0
(g35
g2
Ntp372
Rp373
(dp374
g39
I1
sg40
S'>'
p375
sg42
g266
sbsg62
(dp376
g46
I0
sg47
I0
sg48
I0
sg49
I0
ssg64
(dp377
g46
I0
sg47
I0
sg48
I0
sg49
I0
ssg66
(dp378
g46
I0
sg47
I0
sg48
I0
sg49
I0
ssg68
(dp379
g46
I0
sg47
I0
sg48
I0
sg49
I0
ssg70
I0
sg71
I0
sg72
S'Thomen'
p380
sg74
I13
sg75
I0
sg76
I00
sg77
I13
sg78
(g79
g207
S'N8'
p381
g31
tp382
sg82
g31
sg83
(dp383
g85
I7
sg86
I8
sg87
I7
sg88
I10
sg89
I2
sg90
I1
sg91
I6
sg92
I8
sg93
I8
sg94
I6
sg95
I7
sg96
I9
sg97
I2
sg98
I9
sg99
I3
ssg100
(dp384
sg120
I0
sg121
g31
sg122
I0
sg123
I0
sg124
F8.481481481481481
sg125
I0
sg126
I0
sg127
I0
sg128
g383
sg129
I0
sg130
I0
sg131
I0
sg132
I0
sg133
I1
sg134
I0
sg135
I0
sg136
g154
sbasS'DM'
p385
(lp386
(ijoueur
joueur
p387
(dp388
g27
I0
sg28
I0
sg29
I0
sg30
g31
sg32
I0
sg33
g31
sg34
g0
(g35
g2
Ntp389
Rp390
(dp391
g39
I1
sg40
g265
sg42
g266
sbsg44
(dp392
g46
I0
sg47
I0
sg48
I0
sg49
I0
ssg50
(dp393
g46
I0
sg47
I0
sg48
I0
sg49
I0
ssg52
I16
sg53
g31
sg54
I0
sg55
I0
sg56
I0
sg57
I0
sg58
g59
sg60
I00
sg61
g390
sg62
(dp394
g46
I0
sg47
I0
sg48
I0
sg49
I0
ssg64
(dp395
g46
I0
sg47
I0
sg48
I0
sg49
I0
ssg66
(dp396
g46
I0
sg47
I0
sg48
I0
sg49
I0
ssg68
(dp397
g46
I0
sg47
I0
sg48
I0
sg49
I0
ssg70
I0
sg71
I0
sg72
S'Gnor'
p398
sg74
I4
sg75
I0
sg76
I00
sg77
I20
sg78
(g79
g385
S'DO'
p399
g31
tp400
sg82
g31
sg83
(dp401
g85
I8
sg86
I5
sg87
I6
sg88
I10
sg89
I7
sg90
I7
sg91
I9
sg92
I8
sg93
I5
sg94
I10
sg95
I6
sg96
I7
sg97
I6
sg98
I8
sg99
I4
ssg100
(dp402
S's12'
p403
(ijoueur
joueur
p404
(dp405
g27
I0
sg28
I0
sg29
I0
sg32
I0
sg34
g0
(g35
g2
Ntp406
Rp407
(dp408
g40
g31
sbsg44
(dp409
g46
I0
sg47
I0
sg48
I0
sg49
I0
ssg50
(dp410
g46
I0
sg47
I0
sg48
I0
sg49
I0
ssg52
I0
sg53
g31
sg54
I0
sg55
I0
sg56
I0
sg57
I0
sg78
(g79
g385
g31
g31
tp411
sg60
I00
sg61
g0
(g35
g2
Ntp412
Rp413
(dp414
g40
g31
sbsg62
(dp415
g46
I0
sg47
I0
sg48
I0
sg49
I0
ssg64
(dp416
g46
I0
sg47
I0
sg48
I0
sg49
I0
ssg66
(dp417
g46
I0
sg47
I0
sg48
I0
sg49
I0
ssg68
(dp418
g46
I0
sg47
I0
sg48
I0
sg49
I0
ssg70
I0
sg71
I0
sg72
g31
sg74
I0
sg75
I0
sg76
I00
sg77
I0
sg58
g59
sg83
(dp419
g95
I0
sg86
I0
sg87
I0
sg88
I0
sg89
I0
sg85
I0
sg90
I0
sg92
I0
sg93
I0
sg94
I0
sg91
I0
sg96
I0
sg97
I0
sg98
I0
sg99
I0
ssg100
(dp420
sg120
I0
sg121
g31
sg122
I0
sg123
I0
sg124
F0.0
sg125
I0
sg126
I0
sg127
I0
sg128
g401
sg129
I0
sg130
I0
sg131
I0
sg132
I0
sg133
I0
sg134
I0
sg135
I0
sg136
g31
sbsS's11'
p421
(ijoueur
joueur
p422
(dp423
g27
I0
sg28
I0
sg29
I0
sg32
I0
sg34
g0
(g35
g2
Ntp424
Rp425
(dp426
g40
g31
sbsg44
(dp427
g46
I0
sg47
I0
sg48
I0
sg49
I0
ssg50
(dp428
g46
I0
sg47
I0
sg48
I0
sg49
I0
ssg52
I0
sg53
g31
sg54
I0
sg55
I0
sg56
I0
sg57
I0
sg78
g411
sg60
I00
sg61
g0
(g35
g2
Ntp429
Rp430
(dp431
g40
g31
sbsg62
(dp432
g46
I0
sg47
I0
sg48
I0
sg49
I0
ssg64
(dp433
g46
I0
sg47
I0
sg48
I0
sg49
I0
ssg66
(dp434
g46
I0
sg47
I0
sg48
I0
sg49
I0
ssg68
(dp435
g46
I0
sg47
I0
sg48
I0
sg49
I0
ssg70
I0
sg71
I0
sg72
g31
sg74
I0
sg75
I0
sg76
I00
sg77
I0
sg58
g59
sg83
(dp436
g95
I0
sg86
I0
sg87
I0
sg88
I0
sg89
I0
sg85
I0
sg90
I0
sg92
I0
sg93
I0
sg94
I0
sg91
I0
sg96
I0
sg97
I0
sg98
I0
sg99
I0
ssg100
(dp437
sg120
I0
sg121
g31
sg122
I0
sg123
I0
sg124
F0.0
sg125
I0
sg126
I0
sg127
I0
sg128
g401
sg129
I0
sg130
I0
sg131
I0
sg132
I0
sg133
I0
sg134
I0
sg135
I0
sg136
g31
sbssg120
I0
sg121
g31
sg122
I0
sg123
I0
sg124
F8.344827586206897
sg125
I0
sg126
I0
sg127
I0
sg128
g401
sg129
I0
sg130
I0
sg131
I0
sg132
I0
sg133
I2
sg134
I0
sg135
I0
sg136
g154
sba(ijoueur
joueur
p438
(dp439
g27
I0
sg28
I0
sg29
I0
sg30
g31
sg32
I0
sg33
g31
sg34
g0
(g35
g2
Ntp440
Rp441
(dp442
g39
I1
sg40
g265
sg42
g266
sbsg44
(dp443
g46
I0
sg47
I0
sg48
I0
sg49
I0
ssg50
(dp444
g46
I0
sg47
I0
sg48
I0
sg49
I0
ssg52
I20
sg53
g31
sg54
I0
sg55
I0
sg56
I0
sg57
I0
sg58
g59
sg60
I00
sg61
g441
sg62
(dp445
g46
I0
sg47
I0
sg48
I0
sg49
I0
ssg64
(dp446
g46
I0
sg47
I0
sg48
I0
sg49
I0
ssg66
(dp447
g46
I0
sg47
I0
sg48
I0
sg49
I0
ssg68
(dp448
g46
I0
sg47
I0
sg48
I0
sg49
I0
ssg70
I0
sg71
I0
sg72
S'Eorkagn'
p449
sg74
I10
sg75
I0
sg76
I00
sg77
I16
sg78
(g79
g385
S'DO'
p450
g31
tp451
sg82
g31
sg83
(dp452
g85
I7
sg86
I5
sg87
I6
sg88
I11
sg89
I8
sg90
I6
sg91
I8
sg92
I7
sg93
I6
sg94
I9
sg95
I8
sg96
I7
sg97
I7
sg98
I10
sg99
I5
ssg100
(dp453
S's12'
p454
(ijoueur
joueur
p455
(dp456
g27
I0
sg28
I0
sg29
I0
sg32
I0
sg34
g0
(g35
g2
Ntp457
Rp458
(dp459
g40
g31
sbsg44
(dp460
g46
I0
sg47
I0
sg48
I0
sg49
I0
ssg50
(dp461
g46
I0
sg47
I0
sg48
I0
sg49
I0
ssg52
I0
sg53
g31
sg54
I0
sg55
I0
sg56
I0
sg57
I0
sg78
(g79
g385
g31
g31
tp462
sg60
I00
sg61
g0
(g35
g2
Ntp463
Rp464
(dp465
g40
g31
sbsg62
(dp466
g46
I0
sg47
I0
sg48
I0
sg49
I0
ssg64
(dp467
g46
I0
sg47
I0
sg48
I0
sg49
I0
ssg66
(dp468
g46
I0
sg47
I0
sg48
I0
sg49
I0
ssg68
(dp469
g46
I0
sg47
I0
sg48
I0
sg49
I0
ssg70
I0
sg71
I0
sg72
g31
sg74
I0
sg75
I0
sg76
I00
sg77
I0
sg58
g59
sg83
(dp470
g95
I0
sg86
I0
sg87
I0
sg88
I0
sg89
I0
sg85
I0
sg90
I0
sg92
I0
sg93
I0
sg94
I0
sg91
I0
sg96
I0
sg97
I0
sg98
I0
sg99
I0
ssg100
(dp471
sg120
I0
sg121
g31
sg122
I0
sg123
I0
sg124
F0.0
sg125
I0
sg126
I0
sg127
I0
sg128
g452
sg129
I0
sg130
I0
sg131
I0
sg132
I0
sg133
I0
sg134
I0
sg135
I0
sg136
g31
sbsS's11'
p472
(ijoueur
joueur
p473
(dp474
g27
I0
sg28
I0
sg29
I0
sg32
I0
sg34
g0
(g35
g2
Ntp475
Rp476
(dp477
g40
g31
sbsg44
(dp478
g46
I0
sg47
I0
sg48
I0
sg49
I0
ssg50
(dp479
g46
I0
sg47
I0
sg48
I0
sg49
I0
ssg52
I0
sg53
g31
sg54
I0
sg55
I0
sg56
I0
sg57
I0
sg78
g462
sg60
I00
sg61
g0
(g35
g2
Ntp480
Rp481
(dp482
g40
g31
sbsg62
(dp483
g46
I0
sg47
I0
sg48
I0
sg49
I0
ssg64
(dp484
g46
I0
sg47
I0
sg48
I0
sg49
I0
ssg66
(dp485
g46
I0
sg47
I0
sg48
I0
sg49
I0
ssg68
(dp486
g46
I0
sg47
I0
sg48
I0
sg49
I0
ssg70
I0
sg71
I0
sg72
g31
sg74
I0
sg75
I0
sg76
I00
sg77
I0
sg58
g59
sg83
(dp487
g95
I0
sg86
I0
sg87
I0
sg88
I0
sg89
I0
sg85
I0
sg90
I0
sg92
I0
sg93
I0
sg94
I0
sg91
I0
sg96
I0
sg97
I0
sg98
I0
sg99
I0
ssg100
(dp488
sg120
I0
sg121
g31
sg122
I0
sg123
I0
sg124
F0.0
sg125
I0
sg126
I0
sg127
I0
sg128
g452
sg129
I0
sg130
I0
sg131
I0
sg132
I0
sg133
I0
sg134
I0
sg135
I0
sg136
g31
sbssg120
I0
sg121
g31
sg122
I0
sg123
I0
sg124
F8.482758620689655
sg125
I0
sg126
I0
sg127
I0
sg128
g452
sg129
I0
sg130
I0
sg131
I0
sg132
I0
sg133
I1
sg134
I0
sg135
I0
sg136
g154
sbasS'AI'
p489
(lp490
(ijoueur
joueur
p491
(dp492
g27
I0
sg28
I0
sg29
I0
sg30
g31
sg32
I0
sg33
g31
sg34
g0
(g35
g2
Ntp493
Rp494
(dp495
g39
I5
sg40
g318
sg42
g319
sbsg44
(dp496
g46
I0
sg47
I0
sg48
I0
sg49
I0
ssg50
(dp497
g46
I0
sg47
I0
sg48
I0
sg49
I0
ssg52
I14
sg53
g31
sg54
I0
sg55
I0
sg56
I0
sg57
I0
sg58
g59
sg60
I00
sg61
g494
sg62
(dp498
g46
I0
sg47
I0
sg48
I0
sg49
I0
ssg64
(dp499
g46
I0
sg47
I0
sg48
I0
sg49
I0
ssg66
(dp500
g46
I0
sg47
I0
sg48
I0
sg49
I0
ssg68
(dp501
g46
I0
sg47
I0
sg48
I0
sg49
I0
ssg70
I0
sg71
I0
sg72
S'Jarken'
p502
sg74
I4
sg75
I0
sg76
I00
sg77
I252
sg78
(g79
g489
g31
g31
tp503
sg82
g31
sg83
(dp504
g85
I11
sg86
I4
sg87
I8
sg88
I11
sg89
I8
sg90
I6
sg91
I10
sg92
I12
sg93
I6
sg94
I11
sg95
I9
sg96
I7
sg97
I7
sg98
I11
sg99
I5
ssg100
(dp505
S's12'
p506
(ijoueur
joueur
p507
(dp508
g27
I0
sg28
I0
sg29
I0
sg32
I0
sg34
g0
(g35
g2
Ntp509
Rp510
(dp511
g40
g31
sbsg44
(dp512
g46
I0
sg47
I0
sg48
I0
sg49
I0
ssg50
(dp513
g46
I0
sg47
I0
sg48
I0
sg49
I0
ssg52
I0
sg53
g31
sg54
I0
sg55
I0
sg56
I0
sg57
I0
sg78
(g79
g489
g31
g31
tp514
sg60
I00
sg61
g0
(g35
g2
Ntp515
Rp516
(dp517
g40
g31
sbsg62
(dp518
g46
I0
sg47
I0
sg48
I0
sg49
I0
ssg64
(dp519
g46
I0
sg47
I0
sg48
I0
sg49
I0
ssg66
(dp520
g46
I0
sg47
I0
sg48
I0
sg49
I0
ssg68
(dp521
g46
I0
sg47
I0
sg48
I0
sg49
I0
ssg70
I0
sg71
I0
sg72
g31
sg74
I0
sg75
I0
sg76
I00
sg77
I0
sg58
g59
sg83
(dp522
g95
I0
sg86
I0
sg87
I0
sg88
I0
sg89
I0
sg85
I0
sg90
I0
sg92
I0
sg93
I0
sg94
I0
sg91
I0
sg96
I0
sg97
I0
sg98
I0
sg99
I0
ssg100
(dp523
sg120
I0
sg121
g31
sg122
I0
sg123
I0
sg124
F0.0
sg125
I0
sg126
I0
sg127
I0
sg128
g504
sg129
I0
sg130
I0
sg131
I0
sg132
I0
sg133
I0
sg134
I0
sg135
I0
sg136
g31
sbsS's11'
p524
(ijoueur
joueur
p525
(dp526
g27
I0
sg28
I0
sg29
I0
sg32
I0
sg34
g0
(g35
g2
Ntp527
Rp528
(dp529
g40
g31
sbsg44
(dp530
g46
I0
sg47
I0
sg48
I0
sg49
I0
ssg50
(dp531
g46
I0
sg47
I0
sg48
I0
sg49
I0
ssg52
I0
sg53
g31
sg54
I0
sg55
I0
sg56
I0
sg57
I0
sg78
g514
sg60
I00
sg61
g0
(g35
g2
Ntp532
Rp533
(dp534
g40
g31
sbsg62
(dp535
g46
I0
sg47
I0
sg48
I0
sg49
I0
ssg64
(dp536
g46
I0
sg47
I0
sg48
I0
sg49
I0
ssg66
(dp537
g46
I0
sg47
I0
sg48
I0
sg49
I0
ssg68
(dp538
g46
I0
sg47
I0
sg48
I0
sg49
I0
ssg70
I0
sg71
I0
sg72
g31
sg74
I0
sg75
I0
sg76
I00
sg77
I0
sg58
g59
sg83
(dp539
g95
I0
sg86
I0
sg87
I0
sg88
I0
sg89
I0
sg85
I0
sg90
I0
sg92
I0
sg93
I0
sg94
I0
sg91
I0
sg96
I0
sg97
I0
sg98
I0
sg99
I0
ssg100
(dp540
sg120
I0
sg121
g31
sg122
I0
sg123
I0
sg124
F0.0
sg125
I0
sg126
I0
sg127
I0
sg128
g504
sg129
I0
sg130
I0
sg131
I0
sg132
I0
sg133
I0
sg134
I0
sg135
I0
sg136
g31
sbssg120
I0
sg121
g31
sg122
I0
sg123
I0
sg124
F10.258064516129032
sg125
I0
sg126
I0
sg127
I0
sg128
g504
sg129
I0
sg130
I0
sg131
I0
sg132
I0
sg133
I25
sg134
I0
sg135
I0
sg136
g154
sba(ijoueur
joueur
p541
(dp542
g27
I0
sg28
I0
sg29
I0
sg30
g31
sg32
I0
sg33
g31
sg34
g0
(g35
g2
Ntp543
Rp544
(dp545
g39
I1
sg40
g265
sg42
g266
sbsg44
(dp546
g46
I0
sg47
I0
sg48
I0
sg49
I0
ssg50
(dp547
g46
I0
sg47
I0
sg48
I0
sg49
I0
ssg52
I12
sg53
g31
sg54
I0
sg55
I0
sg56
I0
sg57
I0
sg58
g59
sg60
I00
sg61
g544
sg62
(dp548
g46
I0
sg47
I0
sg48
I0
sg49
I0
ssg64
(dp549
g46
I0
sg47
I0
sg48
I0
sg49
I0
ssg66
(dp550
g46
I0
sg47
I0
sg48
I0
sg49
I0
ssg68
(dp551
g46
I0
sg47
I0
sg48
I0
sg49
I0
ssg70
I0
sg71
I0
sg72
S'Bisqath'
p552
sg74
I5
sg75
I0
sg76
I00
sg77
I19
sg78
(g79
g489
S'CE'
p553
g31
tp554
sg82
g31
sg83
(dp555
g85
I7
sg86
I4
sg87
I6
sg88
I11
sg89
I7
sg90
I6
sg91
I9
sg92
I7
sg93
I5
sg94
I7
sg95
I9
sg96
I9
sg97
I6
sg98
I8
sg99
I5
ssg100
(dp556
S's12'
p557
(ijoueur
joueur
p558
(dp559
g27
I0
sg28
I0
sg29
I0
sg32
I0
sg34
g0
(g35
g2
Ntp560
Rp561
(dp562
g40
g31
sbsg44
(dp563
g46
I0
sg47
I0
sg48
I0
sg49
I0
ssg50
(dp564
g46
I0
sg47
I0
sg48
I0
sg49
I0
ssg52
I0
sg53
g31
sg54
I0
sg55
I0
sg56
I0
sg57
I0
sg78
(g79
g489
g31
g31
tp565
sg60
I00
sg61
g0
(g35
g2
Ntp566
Rp567
(dp568
g40
g31
sbsg62
(dp569
g46
I0
sg47
I0
sg48
I0
sg49
I0
ssg64
(dp570
g46
I0
sg47
I0
sg48
I0
sg49
I0
ssg66
(dp571
g46
I0
sg47
I0
sg48
I0
sg49
I0
ssg68
(dp572
g46
I0
sg47
I0
sg48
I0
sg49
I0
ssg70
I0
sg71
I0
sg72
g31
sg74
I0
sg75
I0
sg76
I00
sg77
I0
sg58
g59
sg83
(dp573
g95
I0
sg86
I0
sg87
I0
sg88
I0
sg89
I0
sg85
I0
sg90
I0
sg92
I0
sg93
I0
sg94
I0
sg91
I0
sg96
I0
sg97
I0
sg98
I0
sg99
I0
ssg100
(dp574
sg120
I0
sg121
g31
sg122
I0
sg123
I0
sg124
F0.0
sg125
I0
sg126
I0
sg127
I0
sg128
g555
sg129
I0
sg130
I0
sg131
I0
sg132
I0
sg133
I0
sg134
I0
sg135
I0
sg136
g31
sbsS's11'
p575
(ijoueur
joueur
p576
(dp577
g27
I0
sg28
I0
sg29
I0
sg32
I0
sg34
g0
(g35
g2
Ntp578
Rp579
(dp580
g40
g31
sbsg44
(dp581
g46
I0
sg47
I0
sg48
I0
sg49
I0
ssg50
(dp582
g46
I0
sg47
I0
sg48
I0
sg49
I0
ssg52
I0
sg53
g31
sg54
I0
sg55
I0
sg56
I0
sg57
I0
sg78
g565
sg60
I00
sg61
g0
(g35
g2
Ntp583
Rp584
(dp585
g40
g31
sbsg62
(dp586
g46
I0
sg47
I0
sg48
I0
sg49
I0
ssg64
(dp587
g46
I0
sg47
I0
sg48
I0
sg49
I0
ssg66
(dp588
g46
I0
sg47
I0
sg48
I0
sg49
I0
ssg68
(dp589
g46
I0
sg47
I0
sg48
I0
sg49
I0
ssg70
I0
sg71
I0
sg72
g31
sg74
I0
sg75
I0
sg76
I00
sg77
I0
sg58
g59
sg83
(dp590
g95
I0
sg86
I0
sg87
I0
sg88
I0
sg89
I0
sg85
I0
sg90
I0
sg92
I0
sg93
I0
sg94
I0
sg91
I0
sg96
I0
sg97
I0
sg98
I0
sg99
I0
ssg100
(dp591
sg120
I0
sg121
g31
sg122
I0
sg123
I0
sg124
F0.0
sg125
I0
sg126
I0
sg127
I0
sg128
g555
sg129
I0
sg130
I0
sg131
I0
sg132
I0
sg133
I0
sg134
I0
sg135
I0
sg136
g31
sbssg120
I0
sg121
g31
sg122
I0
sg123
I0
sg124
F8.387096774193548
sg125
I0
sg126
I0
sg127
I0
sg128
g555
sg129
I0
sg130
I0
sg131
I0
sg132
I0
sg133
I1
sg134
I0
sg135
I0
sg136
g154
sba(ijoueur
joueur
p592
(dp593
g27
I0
sg28
I0
sg29
I0
sg30
g31
sg32
I0
sg33
g31
sg34
g0
(g35
g2
Ntp594
Rp595
(dp596
g39
I1
sg40
g375
sg42
g266
sbsg44
(dp597
g46
I0
sg47
I0
sg48
I0
sg49
I0
ssg50
(dp598
g46
I0
sg47
I0
sg48
I0
sg49
I0
ssg52
I21
sg53
g31
sg54
I0
sg55
I0
sg56
I0
sg57
I0
sg58
g59
sg60
I00
sg61
g595
sg62
(dp599
g46
I0
sg47
I0
sg48
I0
sg49
I0
ssg64
(dp600
g46
I0
sg47
I0
sg48
I0
sg49
I0
ssg66
(dp601
g46
I0
sg47
I0
sg48
I0
sg49
I0
ssg68
(dp602
g46
I0
sg47
I0
sg48
I0
sg49
I0
ssg70
I0
sg71
I0
sg72
S'Pregin'
p603
sg74
I8
sg75
I0
sg76
I00
sg77
I12
sg78
(g79
g489
g31
g31
tp604
sg82
g31
sg83
(dp605
g85
I8
sg86
I3
sg87
I7
sg88
I11
sg89
I6
sg90
I6
sg91
I9
sg92
I9
sg93
I6
sg94
I7
sg95
I9
sg96
I9
sg97
I5
sg98
I8
sg99
I3
ssg100
(dp606
S's12'
p607
(ijoueur
joueur
p608
(dp609
g27
I0
sg28
I0
sg29
I0
sg32
I0
sg34
g0
(g35
g2
Ntp610
Rp611
(dp612
g40
g31
sbsg44
(dp613
g46
I0
sg47
I0
sg48
I0
sg49
I0
ssg50
(dp614
g46
I0
sg47
I0
sg48
I0
sg49
I0
ssg52
I0
sg53
g31
sg54
I0
sg55
I0
sg56
I0
sg57
I0
sg78
(g79
g489
g31
g31
tp615
sg60
I00
sg61
g0
(g35
g2
Ntp616
Rp617
(dp618
g40
g31
sbsg62
(dp619
g46
I0
sg47
I0
sg48
I0
sg49
I0
ssg64
(dp620
g46
I0
sg47
I0
sg48
I0
sg49
I0
ssg66
(dp621
g46
I0
sg47
I0
sg48
I0
sg49
I0
ssg68
(dp622
g46
I0
sg47
I0
sg48
I0
sg49
I0
ssg70
I0
sg71
I0
sg72
g31
sg74
I0
sg75
I0
sg76
I00
sg77
I0
sg58
g59
sg83
(dp623
g95
I0
sg86
I0
sg87
I0
sg88
I0
sg89
I0
sg85
I0
sg90
I0
sg92
I0
sg93
I0
sg94
I0
sg91
I0
sg96
I0
sg97
I0
sg98
I0
sg99
I0
ssg100
(dp624
sg120
I0
sg121
g31
sg122
I0
sg123
I0
sg124
F0.0
sg125
I0
sg126
I0
sg127
I0
sg128
g605
sg129
I0
sg130
I0
sg131
I0
sg132
I0
sg133
I0
sg134
I0
sg135
I0
sg136
g31
sbsS's11'
p625
(ijoueur
joueur
p626
(dp627
g27
I0
sg28
I0
sg29
I0
sg32
I0
sg34
g0
(g35
g2
Ntp628
Rp629
(dp630
g40
g31
sbsg44
(dp631
g46
I0
sg47
I0
sg48
I0
sg49
I0
ssg50
(dp632
g46
I0
sg47
I0
sg48
I0
sg49
I0
ssg52
I0
sg53
g31
sg54
I0
sg55
I0
sg56
I0
sg57
I0
sg78
g615
sg60
I00
sg61
g0
(g35
g2
Ntp633
Rp634
(dp635
g40
g31
sbsg62
(dp636
g46
I0
sg47
I0
sg48
I0
sg49
I0
ssg64
(dp637
g46
I0
sg47
I0
sg48
I0
sg49
I0
ssg66
(dp638
g46
I0
sg47
I0
sg48
I0
sg49
I0
ssg68
(dp639
g46
I0
sg47
I0
sg48
I0
sg49
I0
ssg70
I0
sg71
I0
sg72
g31
sg74
I0
sg75
I0
sg76
I00
sg77
I0
sg58
g59
sg83
(dp640
g95
I0
sg86
I0
sg87
I0
sg88
I0
sg89
I0
sg85
I0
sg90
I0
sg92
I0
sg93
I0
sg94
I0
sg91
I0
sg96
I0
sg97
I0
sg98
I0
sg99
I0
ssg100
(dp641
sg120
I0
sg121
g31
sg122
I0
sg123
I0
sg124
F0.0
sg125
I0
sg126
I0
sg127
I0
sg128
g605
sg129
I0
sg130
I0
sg131
I0
sg132
I0
sg133
I0
sg134
I0
sg135
I0
sg136
g31
sbssg120
I0
sg121
g31
sg122
I0
sg123
I0
sg124
F8.741935483870968
sg125
I0
sg126
I0
sg127
I0
sg128
g605
sg129
I0
sg130
I0
sg131
I0
sg132
I0
sg133
I1
sg134
I0
sg135
I0
sg136
g154
sbasS'CE'
p642
(lp643
(ijoueur
joueur
p644
(dp645
g27
I0
sg28
I0
sg29
I0
sg30
g31
sg32
I0
sg33
g31
sg34
g0
(g35
g2
Ntp646
Rp647
(dp648
g39
I4
sg40
g160
sg42
g161
sbsg44
(dp649
g46
I0
sg47
I0
sg48
I0
sg49
I0
ssg50
(dp650
g46
I0
sg47
I0
sg48
I0
sg49
I0
ssg52
I25
sg53
g31
sg54
I0
sg55
I0
sg56
I0
sg57
I0
sg58
g59
sg60
I00
sg61
g0
(g35
g2
Ntp651
Rp652
(dp653
g39
I3
sg40
g41
sg42
g43
sbsg62
(dp654
g46
I0
sg47
I0
sg48
I0
sg49
I0
ssg64
(dp655
g46
I0
sg47
I0
sg48
I0
sg49
I0
ssg66
(dp656
g46
I0
sg47
I0
sg48
I0
sg49
I0
ssg68
(dp657
g46
I0
sg47
I0
sg48
I0
sg49
I0
ssg70
I0
sg71
I0
sg72
S'Kleten'
p658
sg74
I12
sg75
I0
sg76
I00
sg77
I13
sg78
(g79
S'C1'
p659
g31
g31
tp660
sg82
g31
sg83
(dp661
g85
I8
sg86
I7
sg87
I7
sg88
I12
sg89
I8
sg90
I6
sg91
I8
sg92
I9
sg93
I3
sg94
I7
sg95
I8
sg96
I9
sg97
I6
sg98
I8
sg99
I4
ssg100
(dp662
S's12'
p663
(ijoueur
joueur
p664
(dp665
g27
I0
sg28
I0
sg29
I0
sg32
I0
sg34
g0
(g35
g2
Ntp666
Rp667
(dp668
g40
g31
sbsg44
(dp669
g46
I0
sg47
I0
sg48
I0
sg49
I0
ssg50
(dp670
g46
I0
sg47
I0
sg48
I0
sg49
I0
ssg52
I0
sg53
g31
sg54
I0
sg55
I0
sg56
I0
sg57
I0
sg78
(g79
g642
g31
g31
tp671
sg60
I00
sg61
g0
(g35
g2
Ntp672
Rp673
(dp674
g40
g31
sbsg62
(dp675
g46
I0
sg47
I0
sg48
I0
sg49
I0
ssg64
(dp676
g46
I0
sg47
I0
sg48
I0
sg49
I0
ssg66
(dp677
g46
I0
sg47
I0
sg48
I0
sg49
I0
ssg68
(dp678
g46
I0
sg47
I0
sg48
I0
sg49
I0
ssg70
I0
sg71
I0
sg72
g31
sg74
I0
sg75
I0
sg76
I00
sg77
I0
sg58
g59
sg83
(dp679
g95
I0
sg86
I0
sg87
I0
sg88
I0
sg89
I0
sg85
I0
sg90
I0
sg92
I0
sg93
I0
sg94
I0
sg91
I0
sg96
I0
sg97
I0
sg98
I0
sg99
I0
ssg100
(dp680
sg120
I0
sg121
g31
sg122
I0
sg123
I0
sg124
F0.0
sg125
I0
sg126
I0
sg127
I0
sg128
g661
sg129
I0
sg130
I0
sg131
I0
sg132
I0
sg133
I0
sg134
I0
sg135
I0
sg136
g31
sbssg120
I0
sg121
g31
sg122
I0
sg123
I0
sg124
F8.466666666666667
sg125
I0
sg126
I0
sg127
I0
sg128
g661
sg129
I0
sg130
I0
sg131
I0
sg132
I0
sg133
I1
sg134
I0
sg135
I0
sg136
g154
sba(ijoueur
joueur
p681
(dp682
g27
I0
sg28
I0
sg29
I0
sg30
g31
sg32
I0
sg33
g31
sg34
g0
(g35
g2
Ntp683
Rp684
(dp685
g39
I1
sg40
g375
sg42
g266
sbsg44
(dp686
g46
I0
sg47
I0
sg48
I0
sg49
I0
ssg50
(dp687
g46
I0
sg47
I0
sg48
I0
sg49
I0
ssg52
I16
sg53
g31
sg54
I0
sg55
I0
sg56
I0
sg57
I0
sg58
g59
sg60
I00
sg61
g684
sg62
(dp688
g46
I0
sg47
I0
sg48
I0
sg49
I0
ssg64
(dp689
g46
I0
sg47
I0
sg48
I0
sg49
I0
ssg66
(dp690
g46
I0
sg47
I0
sg48
I0
sg49
I0
ssg68
(dp691
g46
I0
sg47
I0
sg48
I0
sg49
I0
ssg70
I0
sg71
I0
sg72
S'Harik'
p692
sg74
I7
sg75
I0
sg76
I00
sg77
I16
sg78
(g79
S'C1'
p693
g31
g31
tp694
sg82
g31
sg83
(dp695
g85
I8
sg86
I2
sg87
I7
sg88
I11
sg89
I8
sg90
I6
sg91
I7
sg92
I9
sg93
I6
sg94
I8
sg95
I7
sg96
I8
sg97
I6
sg98
I8
sg99
I3
ssg100
(dp696
S's12'
p697
(ijoueur
joueur
p698
(dp699
g27
I0
sg28
I0
sg29
I0
sg32
I0
sg34
g0
(g35
g2
Ntp700
Rp701
(dp702
g40
g31
sbsg44
(dp703
g46
I0
sg47
I0
sg48
I0
sg49
I0
ssg50
(dp704
g46
I0
sg47
I0
sg48
I0
sg49
I0
ssg52
I0
sg53
g31
sg54
I0
sg55
I0
sg56
I0
sg57
I0
sg78
(g79
g642
g31
g31
tp705
sg60
I00
sg61
g0
(g35
g2
Ntp706
Rp707
(dp708
g40
g31
sbsg62
(dp709
g46
I0
sg47
I0
sg48
I0
sg49
I0
ssg64
(dp710
g46
I0
sg47
I0
sg48
I0
sg49
I0
ssg66
(dp711
g46
I0
sg47
I0
sg48
I0
sg49
I0
ssg68
(dp712
g46
I0
sg47
I0
sg48
I0
sg49
I0
ssg70
I0
sg71
I0
sg72
g31
sg74
I0
sg75
I0
sg76
I00
sg77
I0
sg58
g59
sg83
(dp713
g95
I0
sg86
I0
sg87
I0
sg88
I0
sg89
I0
sg85
I0
sg90
I0
sg92
I0
sg93
I0
sg94
I0
sg91
I0
sg96
I0
sg97
I0
sg98
I0
sg99
I0
ssg100
(dp714
sg120
I0
sg121
g31
sg122
I0
sg123
I0
sg124
F0.0
sg125
I0
sg126
I0
sg127
I0
sg128
g695
sg129
I0
sg130
I0
sg131
I0
sg132
I0
sg133
I0
sg134
I0
sg135
I0
sg136
g31
sbsS's11'
p715
(ijoueur
joueur
p716
(dp717
g27
I0
sg28
I0
sg29
I0
sg32
I0
sg34
g0
(g35
g2
Ntp718
Rp719
(dp720
g40
g31
sbsg44
(dp721
g46
I0
sg47
I0
sg48
I0
sg49
I0
ssg50
(dp722
g46
I0
sg47
I0
sg48
I0
sg49
I0
ssg52
I0
sg53
g31
sg54
I0
sg55
I0
sg56
I0
sg57
I0
sg78
g705
sg60
I00
sg61
g0
(g35
g2
Ntp723
Rp724
(dp725
g40
g31
sbsg62
(dp726
g46
I0
sg47
I0
sg48
I0
sg49
I0
ssg64
(dp727
g46
I0
sg47
I0
sg48
I0
sg49
I0
ssg66
(dp728
g46
I0
sg47
I0
sg48
I0
sg49
I0
ssg68
(dp729
g46
I0
sg47
I0
sg48
I0
sg49
I0
ssg70
I0
sg71
I0
sg72
g31
sg74
I0
sg75
I0
sg76
I00
sg77
I0
sg58
g59
sg83
(dp730
g95
I0
sg86
I0
sg87
I0
sg88
I0
sg89
I0
sg85
I0
sg90
I0
sg92
I0
sg93
I0
sg94
I0
sg91
I0
sg96
I0
sg97
I0
sg98
I0
sg99
I0
ssg100
(dp731
sg120
I0
sg121
g31
sg122
I0
sg123
I0
sg124
F0.0
sg125
I0
sg126
I0
sg127
I0
sg128
g695
sg129
I0
sg130
I0
sg131
I0
sg132
I0
sg133
I0
sg134
I0
sg135
I0
sg136
g31
sbssg120
I0
sg121
g31
sg122
I0
sg123
I0
sg124
F8.166666666666666
sg125
I0
sg126
I0
sg127
I0
sg128
g695
sg129
I0
sg130
I0
sg131
I0
sg132
I0
sg133
I1
sg134
I0
sg135
I0
sg136
g154
sba(ijoueur
joueur
p732
(dp733
g27
I0
sg28
I0
sg29
I0
sg30
g31
sg32
I0
sg33
g31
sg34
g0
(g35
g2
Ntp734
Rp735
(dp736
g39
I4
sg40
S'x'
p737
sg42
g161
sbsg44
(dp738
g46
I0
sg47
I0
sg48
I0
sg49
I0
ssg50
(dp739
g46
I0
sg47
I0
sg48
I0
sg49
I0
ssg52
I23
sg53
g31
sg54
I0
sg55
I0
sg56
I0
sg57
I0
sg58
g59
sg60
I00
sg61
g0
(g35
g2
Ntp740
Rp741
(dp742
g39
I1
sg40
S'<'
p743
sg42
g266
sbsg62
(dp744
g46
I0
sg47
I0
sg48
I0
sg49
I0
ssg64
(dp745
g46
I0
sg47
I0
sg48
I0
sg49
I0
ssg66
(dp746
g46
I0
sg47
I0
sg48
I0
sg49
I0
ssg68
(dp747
g46
I0
sg47
I0
sg48
I0
sg49
I0
ssg70
I0
sg71
I0
sg72
S'Draskel'
p748
sg74
I13
sg75
I0
sg76
I00
sg77
I16
sg78
(g79
S'C2'
p749
g31
g31
tp750
sg82
g31
sg83
(dp751
g85
I8
sg86
I5
sg87
I7
sg88
I12
sg89
I7
sg90
I7
sg91
I8
sg92
I9
sg93
I4
sg94
I8
sg95
I7
sg96
I9
sg97
I6
sg98
I8
sg99
I2
ssg100
(dp752
sg120
I0
sg121
g31
sg122
I0
sg123
I0
sg124
F8.586206896551724
sg125
I0
sg126
I0
sg127
I0
sg128
g751
sg129
I0
sg130
I0
sg131
I0
sg132
I0
sg133
I1
sg134
I0
sg135
I0
sg136
g154
sba(ijoueur
joueur
p753
(dp754
g27
I0
sg28
I0
sg29
I0
sg30
g31
sg32
I0
sg33
g31
sg34
g0
(g35
g2
Ntp755
Rp756
(dp757
g39
I5
sg40
S'**'
p758
sg42
g319
sbsg44
(dp759
g46
I0
sg47
I0
sg48
I0
sg49
I0
ssg50
(dp760
g46
I0
sg47
I0
sg48
I0
sg49
I0
ssg52
I27
sg53
g31
sg54
I0
sg55
I0
sg56
I0
sg57
I0
sg58
g59
sg60
I00
sg61
g0
(g35
g2
Ntp761
Rp762
(dp763
g39
I1
sg40
g743
sg42
g266
sbsg62
(dp764
g46
I0
sg47
I0
sg48
I0
sg49
I0
ssg64
(dp765
g46
I0
sg47
I0
sg48
I0
sg49
I0
ssg66
(dp766
g46
I0
sg47
I0
sg48
I0
sg49
I0
ssg68
(dp767
g46
I0
sg47
I0
sg48
I0
sg49
I0
ssg70
I0
sg71
I0
sg72
S'Omelet'
p768
sg74
I13
sg75
I0
sg76
I00
sg77
I49
sg78
(g79
S'C2'
p769
g31
g31
tp770
sg82
g31
sg83
(dp771
g85
I9
sg86
I5
sg87
I8
sg88
I8
sg89
I7
sg90
I7
sg91
I9
sg92
I10
sg93
I1
sg94
I7
sg95
I6
sg96
I8
sg97
I6
sg98
I10
sg99
I4
ssg100
(dp772
sg120
I0
sg121
g31
sg122
I0
sg123
I0
sg124
F8.310344827586206
sg125
I0
sg126
I0
sg127
I0
sg128
g771
sg129
I0
sg130
I0
sg131
I0
sg132
I0
sg133
I4
sg134
I0
sg135
I0
sg136
S'OG'
p773
sba(ijoueur
joueur
p774
(dp775
g27
I0
sg28
I0
sg29
I0
sg30
g31
sg32
I0
sg33
g31
sg34
g0
(g35
g2
Ntp776
Rp777
(dp778
g39
I1
sg40
g375
sg42
g266
sbsg44
(dp779
g46
I0
sg47
I0
sg48
I0
sg49
I0
ssg50
(dp780
g46
I0
sg47
I0
sg48
I0
sg49
I0
ssg52
I20
sg53
g31
sg54
I0
sg55
I0
sg56
I0
sg57
I0
sg58
g59
sg60
I00
sg61
g777
sg62
(dp781
g46
I0
sg47
I0
sg48
I0
sg49
I0
ssg64
(dp782
g46
I0
sg47
I0
sg48
I0
sg49
I0
ssg66
(dp783
g46
I0
sg47
I0
sg48
I0
sg49
I0
ssg68
(dp784
g46
I0
sg47
I0
sg48
I0
sg49
I0
ssg70
I0
sg71
I0
sg72
S'Ymchael'
p785
sg74
I8
sg75
I0
sg76
I00
sg77
I16
sg78
(g79
S'C2'
p786
g31
g31
tp787
sg82
g31
sg83
(dp788
g85
I7
sg86
I3
sg87
I7
sg88
I8
sg89
I8
sg90
I6
sg91
I12
sg92
I8
sg93
I5
sg94
I9
sg95
I9
sg96
I8
sg97
I5
sg98
I8
sg99
I4
ssg100
(dp789
S's12'
p790
(ijoueur
joueur
p791
(dp792
g27
I0
sg28
I0
sg29
I0
sg32
I0
sg34
g0
(g35
g2
Ntp793
Rp794
(dp795
g40
g31
sbsg44
(dp796
g46
I0
sg47
I0
sg48
I0
sg49
I0
ssg50
(dp797
g46
I0
sg47
I0
sg48
I0
sg49
I0
ssg52
I0
sg53
g31
sg54
I0
sg55
I0
sg56
I0
sg57
I0
sg78
(g79
g642
g31
g31
tp798
sg60
I00
sg61
g0
(g35
g2
Ntp799
Rp800
(dp801
g40
g31
sbsg62
(dp802
g46
I0
sg47
I0
sg48
I0
sg49
I0
ssg64
(dp803
g46
I0
sg47
I0
sg48
I0
sg49
I0
ssg66
(dp804
g46
I0
sg47
I0
sg48
I0
sg49
I0
ssg68
(dp805
g46
I0
sg47
I0
sg48
I0
sg49
I0
ssg70
I0
sg71
I0
sg72
g31
sg74
I0
sg75
I0
sg76
I00
sg77
I0
sg58
g59
sg83
(dp806
g95
I0
sg86
I0
sg87
I0
sg88
I0
sg89
I0
sg85
I0
sg90
I0
sg92
I0
sg93
I0
sg94
I0
sg91
I0
sg96
I0
sg97
I0
sg98
I0
sg99
I0
ssg100
(dp807
sg120
I0
sg121
g31
sg122
I0
sg123
I0
sg124
F0.0
sg125
I0
sg126
I0
sg127
I0
sg128
g788
sg129
I0
sg130
I0
sg131
I0
sg132
I0
sg133
I0
sg134
I0
sg135
I0
sg136
g31
sbsS's11'
p808
(ijoueur
joueur
p809
(dp810
g27
I0
sg28
I0
sg29
I0
sg32
I0
sg34
g0
(g35
g2
Ntp811
Rp812
(dp813
g40
g31
sbsg44
(dp814
g46
I0
sg47
I0
sg48
I0
sg49
I0
ssg50
(dp815
g46
I0
sg47
I0
sg48
I0
sg49
I0
ssg52
I0
sg53
g31
sg54
I0
sg55
I0
sg56
I0
sg57
I0
sg78
g798
sg60
I00
sg61
g0
(g35
g2
Ntp816
Rp817
(dp818
g40
g31
sbsg62
(dp819
g46
I0
sg47
I0
sg48
I0
sg49
I0
ssg64
(dp820
g46
I0
sg47
I0
sg48
I0
sg49
I0
ssg66
(dp821
g46
I0
sg47
I0
sg48
I0
sg49
I0
ssg68
(dp822
g46
I0
sg47
I0
sg48
I0
sg49
I0
ssg70
I0
sg71
I0
sg72
g31
sg74
I0
sg75
I0
sg76
I00
sg77
I0
sg58
g59
sg83
(dp823
g95
I0
sg86
I0
sg87
I0
sg88
I0
sg89
I0
sg85
I0
sg90
I0
sg92
I0
sg93
I0
sg94
I0
sg91
I0
sg96
I0
sg97
I0
sg98
I0
sg99
I0
ssg100
(dp824
sg120
I0
sg121
g31
sg122
I0
sg123
I0
sg124
F0.0
sg125
I0
sg126
I0
sg127
I0
sg128
g788
sg129
I0
sg130
I0
sg131
I0
sg132
I0
sg133
I0
sg134
I0
sg135
I0
sg136
g31
sbssg120
I0
sg121
g31
sg122
I0
sg123
I0
sg124
F8.620689655172415
sg125
I0
sg126
I0
sg127
I0
sg128
g788
sg129
I0
sg130
I0
sg131
I0
sg132
I0
sg133
I1
sg134
I0
sg135
I0
sg136
S'CHS'
p825
sbasS'N8'
p826
(lp827
(ijoueur
joueur
p828
(dp829
g27
I0
sg28
I0
sg29
I0
sg30
g31
sg32
I0
sg33
g31
sg34
g0
(g35
g2
Ntp830
Rp831
(dp832
g39
I4
sg40
g160
sg42
g161
sbsg44
(dp833
g46
I0
sg47
I0
sg48
I0
sg49
I0
ssg50
(dp834
g46
I0
sg47
I0
sg48
I0
sg49
I0
ssg52
I20
sg53
g31
sg54
I0
sg55
I0
sg56
I0
sg57
I0
sg58
g59
sg60
I00
sg61
g831
sg62
(dp835
g46
I0
sg47
I0
sg48
I0
sg49
I0
ssg64
(dp836
g46
I0
sg47
I0
sg48
I0
sg49
I0
ssg66
(dp837
g46
I0
sg47
I0
sg48
I0
sg49
I0
ssg68
(dp838
g46
I0
sg47
I0
sg48
I0
sg49
I0
ssg70
I0
sg71
I0
sg72
S'Yndor'
p839
sg74
I7
sg75
I0
sg76
I00
sg77
I90
sg78
(g79
g826
g31
g31
tp840
sg82
g31
sg83
(dp841
g85
I11
sg86
I9
sg87
I8
sg88
I12
sg89
I5
sg90
I5
sg91
I7
sg92
I12
sg93
I8
sg94
I7
sg95
I8
sg96
I9
sg97
I5
sg98
I10
sg99
I2
ssg100
(dp842
S's12'
p843
(ijoueur
joueur
p844
(dp845
g27
I0
sg28
I0
sg29
I0
sg32
I0
sg34
g0
(g35
g2
Ntp846
Rp847
(dp848
g40
g31
sbsg44
(dp849
g46
I0
sg47
I0
sg48
I0
sg49
I0
ssg50
(dp850
g46
I0
sg47
I0
sg48
I0
sg49
I0
ssg52
I0
sg53
g31
sg54
I0
sg55
I0
sg56
I0
sg57
I0
sg78
(g79
g826
g31
g31
tp851
sg60
I00
sg61
g0
(g35
g2
Ntp852
Rp853
(dp854
g40
g31
sbsg62
(dp855
g46
I0
sg47
I0
sg48
I0
sg49
I0
ssg64
(dp856
g46
I0
sg47
I0
sg48
I0
sg49
I0
ssg66
(dp857
g46
I0
sg47
I0
sg48
I0
sg49
I0
ssg68
(dp858
g46
I0
sg47
I0
sg48
I0
sg49
I0
ssg70
I0
sg71
I0
sg72
g31
sg74
I0
sg75
I0
sg76
I00
sg77
I0
sg58
g59
sg83
(dp859
g95
I0
sg86
I0
sg87
I0
sg88
I0
sg89
I0
sg85
I0
sg90
I0
sg92
I0
sg93
I0
sg94
I0
sg91
I0
sg96
I0
sg97
I0
sg98
I0
sg99
I0
ssg100
(dp860
sg120
I0
sg121
g31
sg122
I0
sg123
I0
sg124
F0.0
sg125
I0
sg126
I0
sg127
I0
sg128
g841
sg129
I0
sg130
I0
sg131
I0
sg132
I0
sg133
I0
sg134
I0
sg135
I0
sg136
g31
sbsS's11'
p861
(ijoueur
joueur
p862
(dp863
g27
I0
sg28
I0
sg29
I0
sg32
I0
sg34
g0
(g35
g2
Ntp864
Rp865
(dp866
g40
g31
sbsg44
(dp867
g46
I0
sg47
I0
sg48
I0
sg49
I0
ssg50
(dp868
g46
I0
sg47
I0
sg48
I0
sg49
I0
ssg52
I0
sg53
g31
sg54
I0
sg55
I0
sg56
I0
sg57
I0
sg78
g851
sg60
I00
sg61
g0
(g35
g2
Ntp869
Rp870
(dp871
g40
g31
sbsg62
(dp872
g46
I0
sg47
I0
sg48
I0
sg49
I0
ssg64
(dp873
g46
I0
sg47
I0
sg48
I0
sg49
I0
ssg66
(dp874
g46
I0
sg47
I0
sg48
I0
sg49
I0
ssg68
(dp875
g46
I0
sg47
I0
sg48
I0
sg49
I0
ssg70
I0
sg71
I0
sg72
g31
sg74
I0
sg75
I0
sg76
I00
sg77
I0
sg58
g59
sg83
(dp876
g95
I0
sg86
I0
sg87
I0
sg88
I0
sg89
I0
sg85
I0
sg90
I0
sg92
I0
sg93
I0
sg94
I0
sg91
I0
sg96
I0
sg97
I0
sg98
I0
sg99
I0
ssg100
(dp877
sg120
I0
sg121
g31
sg122
I0
sg123
I0
sg124
F0.0
sg125
I0
sg126
I0
sg127
I0
sg128
g841
sg129
I0
sg130
I0
sg131
I0
sg132
I0
sg133
I0
sg134
I0
sg135
I0
sg136
g31
sbssg120
I0
sg121
g31
sg122
I0
sg123
I0
sg124
F9.862068965517242
sg125
I0
sg126
I0
sg127
I0
sg128
g841
sg129
I0
sg130
I0
sg131
I0
sg132
I0
sg133
I9
sg134
I0
sg135
I0
sg136
g154
sba(ijoueur
joueur
p878
(dp879
g27
I0
sg28
I0
sg29
I0
sg30
g31
sg32
I0
sg33
g31
sg34
g0
(g35
g2
Ntp880
Rp881
(dp882
g39
I1
sg40
g265
sg42
g266
sbsg44
(dp883
g46
I0
sg47
I0
sg48
I0
sg49
I0
ssg50
(dp884
g46
I0
sg47
I0
sg48
I0
sg49
I0
ssg52
I26
sg53
g31
sg54
I0
sg55
I0
sg56
I0
sg57
I0
sg58
g59
sg60
I00
sg61
g881
sg62
(dp885
g46
I0
sg47
I0
sg48
I0
sg49
I0
ssg64
(dp886
g46
I0
sg47
I0
sg48
I0
sg49
I0
ssg66
(dp887
g46
I0
sg47
I0
sg48
I0
sg49
I0
ssg68
(dp888
g46
I0
sg47
I0
sg48
I0
sg49
I0
ssg70
I0
sg71
I0
sg72
S'Snar'
p889
sg74
I12
sg75
I0
sg76
I00
sg77
I13
sg78
(g79
g826
g31
g31
tp890
sg82
g31
sg83
(dp891
g85
I9
sg86
I9
sg87
I7
sg88
I10
sg89
I5
sg90
I4
sg91
I6
sg92
I9
sg93
I7
sg94
I7
sg95
I8
sg96
I9
sg97
I3
sg98
I11
sg99
I6
ssg100
(dp892
S's12'
p893
(ijoueur
joueur
p894
(dp895
g27
I0
sg28
I0
sg29
I0
sg32
I0
sg34
g0
(g35
g2
Ntp896
Rp897
(dp898
g40
g31
sbsg44
(dp899
g46
I0
sg47
I0
sg48
I0
sg49
I0
ssg50
(dp900
g46
I0
sg47
I0
sg48
I0
sg49
I0
ssg52
I0
sg53
g31
sg54
I0
sg55
I0
sg56
I0
sg57
I0
sg78
(g79
g826
g31
g31
tp901
sg60
I00
sg61
g0
(g35
g2
Ntp902
Rp903
(dp904
g40
g31
sbsg62
(dp905
g46
I0
sg47
I0
sg48
I0
sg49
I0
ssg64
(dp906
g46
I0
sg47
I0
sg48
I0
sg49
I0
ssg66
(dp907
g46
I0
sg47
I0
sg48
I0
sg49
I0
ssg68
(dp908
g46
I0
sg47
I0
sg48
I0
sg49
I0
ssg70
I0
sg71
I0
sg72
g31
sg74
I0
sg75
I0
sg76
I00
sg77
I0
sg58
g59
sg83
(dp909
g95
I0
sg86
I0
sg87
I0
sg88
I0
sg89
I0
sg85
I0
sg90
I0
sg92
I0
sg93
I0
sg94
I0
sg91
I0
sg96
I0
sg97
I0
sg98
I0
sg99
I0
ssg100
(dp910
sg120
I0
sg121
g31
sg122
I0
sg123
I0
sg124
F0.0
sg125
I0
sg126
I0
sg127
I0
sg128
g891
sg129
I0
sg130
I0
sg131
I0
sg132
I0
sg133
I0
sg134
I0
sg135
I0
sg136
g31
sbssg120
I0
sg121
g31
sg122
I0
sg123
I0
sg124
F9.206896551724139
sg125
I0
sg126
I0
sg127
I0
sg128
g891
sg129
I0
sg130
I0
sg131
I0
sg132
I0
sg133
I1
sg134
I0
sg135
I0
sg136
g154
sbasS'TL'
p911
(lp912
(ijoueur
joueur
p913
(dp914
g27
I0
sg28
I0
sg29
I0
sg30
g31
sg32
I0
sg33
g31
sg34
g0
(g35
g2
Ntp915
Rp916
(dp917
g39
I1
sg40
g743
sg42
g266
sbsg44
(dp918
g46
I0
sg47
I0
sg48
I0
sg49
I0
ssg50
(dp919
g46
I0
sg47
I0
sg48
I0
sg49
I0
ssg52
I20
sg53
g31
sg54
I0
sg55
I0
sg56
I0
sg57
I0
sg58
g59
sg60
I00
sg61
g916
sg62
(dp920
g46
I0
sg47
I0
sg48
I0
sg49
I0
ssg64
(dp921
g46
I0
sg47
I0
sg48
I0
sg49
I0
ssg66
(dp922
g46
I0
sg47
I0
sg48
I0
sg49
I0
ssg68
(dp923
g46
I0
sg47
I0
sg48
I0
sg49
I0
ssg70
I0
sg71
I0
sg72
S'Atyled'
p924
sg74
I13
sg75
I0
sg76
I00
sg77
I18
sg78
(g79
g911
S'DL'
p925
S'N8'
p926
tp927
sg82
g31
sg83
(dp928
g85
I6
sg86
I7
sg87
I6
sg88
I11
sg89
I5
sg90
I4
sg91
I6
sg92
I7
sg93
I6
sg94
I6
sg95
I7
sg96
I8
sg97
I4
sg98
I10
sg99
I3
ssg100
(dp929
sg120
I0
sg121
g31
sg122
I0
sg123
I0
sg124
F8.290322580645162
sg125
I0
sg126
I0
sg127
I0
sg128
g928
sg129
I0
sg130
I0
sg131
I0
sg132
I0
sg133
I1
sg134
I0
sg135
I0
sg136
g154
sba(ijoueur
joueur
p930
(dp931
g27
I0
sg28
I0
sg29
I0
sg30
g31
sg32
I0
sg33
g31
sg34
g0
(g35
g2
Ntp932
Rp933
(dp934
g39
I1
sg40
g375
sg42
g266
sbsg44
(dp935
g46
I0
sg47
I0
sg48
I0
sg49
I0
ssg50
(dp936
g46
I0
sg47
I0
sg48
I0
sg49
I0
ssg52
I23
sg53
g31
sg54
I0
sg55
I0
sg56
I0
sg57
I0
sg58
g59
sg60
I00
sg61
g933
sg62
(dp937
g46
I0
sg47
I0
sg48
I0
sg49
I0
ssg64
(dp938
g46
I0
sg47
I0
sg48
I0
sg49
I0
ssg66
(dp939
g46
I0
sg47
I0
sg48
I0
sg49
I0
ssg68
(dp940
g46
I0
sg47
I0
sg48
I0
sg49
I0
ssg70
I0
sg71
I0
sg72
S'Brarr'
p941
sg74
I11
sg75
I0
sg76
I00
sg77
I8
sg78
(g79
g911
g31
g31
tp942
sg82
g31
sg83
(dp943
g85
I6
sg86
I7
sg87
I6
sg88
I11
sg89
I5
sg90
I3
sg91
I6
sg92
I7
sg93
I6
sg94
I6
sg95
I9
sg96
I9
sg97
I3
sg98
I11
sg99
I4
ssg100
(dp944
S's12'
p945
(ijoueur
joueur
p946
(dp947
g27
I0
sg28
I0
sg29
I0
sg32
I0
sg34
g0
(g35
g2
Ntp948
Rp949
(dp950
g40
g31
sbsg44
(dp951
g46
I0
sg47
I0
sg48
I0
sg49
I0
ssg50
(dp952
g46
I0
sg47
I0
sg48
I0
sg49
I0
ssg52
I0
sg53
g31
sg54
I0
sg55
I0
sg56
I0
sg57
I0
sg78
(g79
g911
g31
g31
tp953
sg60
I00
sg61
g0
(g35
g2
Ntp954
Rp955
(dp956
g40
g31
sbsg62
(dp957
g46
I0
sg47
I0
sg48
I0
sg49
I0
ssg64
(dp958
g46
I0
sg47
I0
sg48
I0
sg49
I0
ssg66
(dp959
g46
I0
sg47
I0
sg48
I0
sg49
I0
ssg68
(dp960
g46
I0
sg47
I0
sg48
I0
sg49
I0
ssg70
I0
sg71
I0
sg72
g31
sg74
I0
sg75
I0
sg76
I00
sg77
I0
sg58
g59
sg83
(dp961
g95
I0
sg86
I0
sg87
I0
sg88
I0
sg89
I0
sg85
I0
sg90
I0
sg92
I0
sg93
I0
sg94
I0
sg91
I0
sg96
I0
sg97
I0
sg98
I0
sg99
I0
ssg100
(dp962
sg120
I0
sg121
g31
sg122
I0
sg123
I0
sg124
F0.0
sg125
I0
sg126
I0
sg127
I0
sg128
g943
sg129
I0
sg130
I0
sg131
I0
sg132
I0
sg133
I0
sg134
I0
sg135
I0
sg136
g31
sbsS's11'
p963
(ijoueur
joueur
p964
(dp965
g27
I0
sg28
I0
sg29
I0
sg32
I0
sg34
g0
(g35
g2
Ntp966
Rp967
(dp968
g40
g31
sbsg44
(dp969
g46
I0
sg47
I0
sg48
I0
sg49
I0
ssg50
(dp970
g46
I0
sg47
I0
sg48
I0
sg49
I0
ssg52
I0
sg53
g31
sg54
I0
sg55
I0
sg56
I0
sg57
I0
sg78
g953
sg60
I00
sg61
g0
(g35
g2
Ntp971
Rp972
(dp973
g40
g31
sbsg62
(dp974
g46
I0
sg47
I0
sg48
I0
sg49
I0
ssg64
(dp975
g46
I0
sg47
I0
sg48
I0
sg49
I0
ssg66
(dp976
g46
I0
sg47
I0
sg48
I0
sg49
I0
ssg68
(dp977
g46
I0
sg47
I0
sg48
I0
sg49
I0
ssg70
I0
sg71
I0
sg72
g31
sg74
I0
sg75
I0
sg76
I00
sg77
I0
sg58
g59
sg83
(dp978
g95
I0
sg86
I0
sg87
I0
sg88
I0
sg89
I0
sg85
I0
sg90
I0
sg92
I0
sg93
I0
sg94
I0
sg91
I0
sg96
I0
sg97
I0
sg98
I0
sg99
I0
ssg100
(dp979
sg120
I0
sg121
g31
sg122
I0
sg123
I0
sg124
F0.0
sg125
I0
sg126
I0
sg127
I0
sg128
g943
sg129
I0
sg130
I0
sg131
I0
sg132
I0
sg133
I0
sg134
I0
sg135
I0
sg136
g31
sbssg120
I0
sg121
g31
sg122
I0
sg123
I0
sg124
F8.96774193548387
sg125
I0
sg126
I0
sg127
I0
sg128
g943
sg129
I0
sg130
I0
sg131
I0
sg132
I0
sg133
I0
sg134
I0
sg135
I0
sg136
g154
sba(ijoueur
joueur
p980
(dp981
g27
I0
sg28
I0
sg29
I0
sg30
g31
sg32
I0
sg33
g31
sg34
g0
(g35
g2
Ntp982
Rp983
(dp984
g39
I5
sg40
g318
sg42
g319
sbsg44
(dp985
g46
I0
sg47
I0
sg48
I0
sg49
I0
ssg50
(dp986
g46
I0
sg47
I0
sg48
I0
sg49
I0
ssg52
I13
sg53
g31
sg54
I0
sg55
I0
sg56
I0
sg57
I0
sg58
g59
sg60
I00
sg61
g983
sg62
(dp987
g46
I0
sg47
I0
sg48
I0
sg49
I0
ssg64
(dp988
g46
I0
sg47
I0
sg48
I0
sg49
I0
ssg66
(dp989
g46
I0
sg47
I0
sg48
I0
sg49
I0
ssg68
(dp990
g46
I0
sg47
I0
sg48
I0
sg49
I0
ssg70
I0
sg71
I0
sg72
S'Govogn'
p991
sg74
I5
sg75
I0
sg76
I00
sg77
I280
sg78
(g79
g911
S'N8'
p992
S'DL'
p993
tp994
sg82
g31
sg83
(dp995
g85
I10
sg86
I8
sg87
I8
sg88
I11
sg89
I6
sg90
I5
sg91
I7
sg92
I11
sg93
I9
sg94
I8
sg95
I9
sg96
I8
sg97
I5
sg98
I12
sg99
I6
ssg100
(dp996
S's12'
p997
(ijoueur
joueur
p998
(dp999
g27
I0
sg28
I0
sg29
I0
sg32
I0
sg34
g0
(g35
g2
Ntp1000
Rp1001
(dp1002
g40
g31
sbsg44
(dp1003
g46
I0
sg47
I0
sg48
I0
sg49
I0
ssg50
(dp1004
g46
I0
sg47
I0
sg48
I0
sg49
I0
ssg52
I0
sg53
g31
sg54
I0
sg55
I0
sg56
I0
sg57
I0
sg78
(g79
g911
g31
g31
tp1005
sg60
I00
sg61
g0
(g35
g2
Ntp1006
Rp1007
(dp1008
g40
g31
sbsg62
(dp1009
g46
I0
sg47
I0
sg48
I0
sg49
I0
ssg64
(dp1010
g46
I0
sg47
I0
sg48
I0
sg49
I0
ssg66
(dp1011
g46
I0
sg47
I0
sg48
I0
sg49
I0
ssg68
(dp1012
g46
I0
sg47
I0
sg48
I0
sg49
I0
ssg70
I0
sg71
I0
sg72
g31
sg74
I0
sg75
I0
sg76
I00
sg77
I0
sg58
g59
sg83
(dp1013
g95
I0
sg86
I0
sg87
I0
sg88
I0
sg89
I0
sg85
I0
sg90
I0
sg92
I0
sg93
I0
sg94
I0
sg91
I0
sg96
I0
sg97
I0
sg98
I0
sg99
I0
ssg100
(dp1014
sg120
I0
sg121
g31
sg122
I0
sg123
I0
sg124
F0.0
sg125
I0
sg126
I0
sg127
I0
sg128
g995
sg129
I0
sg130
I0
sg131
I0
sg132
I0
sg133
I0
sg134
I0
sg135
I0
sg136
g31
sbsS's11'
p1015
(ijoueur
joueur
p1016
(dp1017
g27
I0
sg28
I0
sg29
I0
sg32
I0
sg34
g0
(g35
g2
Ntp1018
Rp1019
(dp1020
g40
g31
sbsg44
(dp1021
g46
I0
sg47
I0
sg48
I0
sg49
I0
ssg50
(dp1022
g46
I0
sg47
I0
sg48
I0
sg49
I0
ssg52
I0
sg53
g31
sg54
I0
sg55
I0
sg56
I0
sg57
I0
sg78
g1005
sg60
I00
sg61
g0
(g35
g2
Ntp1023
Rp1024
(dp1025
g40
g31
sbsg62
(dp1026
g46
I0
sg47
I0
sg48
I0
sg49
I0
ssg64
(dp1027
g46
I0
sg47
I0
sg48
I0
sg49
I0
ssg66
(dp1028
g46
I0
sg47
I0
sg48
I0
sg49
I0
ssg68
(dp1029
g46
I0
sg47
I0
sg48
I0
sg49
I0
ssg70
I0
sg71
I0
sg72
g31
sg74
I0
sg75
I0
sg76
I00
sg77
I0
sg58
g59
sg83
(dp1030
g95
I0
sg86
I0
sg87
I0
sg88
I0
sg89
I0
sg85
I0
sg90
I0
sg92
I0
sg93
I0
sg94
I0
sg91
I0
sg96
I0
sg97
I0
sg98
I0
sg99
I0
ssg100
(dp1031
sg120
I0
sg121
g31
sg122
I0
sg123
I0
sg124
F0.0
sg125
I0
sg126
I0
sg127
I0
sg128
g995
sg129
I0
sg130
I0
sg131
I0
sg132
I0
sg133
I0
sg134
I0
sg135
I0
sg136
g31
sbssg120
I0
sg121
g31
sg122
I0
sg123
I0
sg124
F9.580645161290322
sg125
I0
sg126
I0
sg127
I0
sg128
g995
sg129
I0
sg130
I0
sg131
I0
sg132
I0
sg133
I28
sg134
I0
sg135
I0
sg136
g154
sbasS'AR'
p1032
(lp1033
(ijoueur
joueur
p1034
(dp1035
g27
I0
sg28
I0
sg29
I0
sg30
g31
sg32
I0
sg33
g31
sg34
g0
(g35
g2
Ntp1036
Rp1037
(dp1038
g39
I1
sg40
g743
sg42
g266
sbsg44
(dp1039
g46
I0
sg47
I0
sg48
I0
sg49
I0
ssg50
(dp1040
g46
I0
sg47
I0
sg48
I0
sg49
I0
ssg52
I20
sg53
g31
sg54
I0
sg55
I0
sg56
I0
sg57
I0
sg58
g59
sg60
I00
sg61
g1037
sg62
(dp1041
g46
I0
sg47
I0
sg48
I0
sg49
I0
ssg64
(dp1042
g46
I0
sg47
I0
sg48
I0
sg49
I0
ssg66
(dp1043
g46
I0
sg47
I0
sg48
I0
sg49
I0
ssg68
(dp1044
g46
I0
sg47
I0
sg48
I0
sg49
I0
ssg70
I0
sg71
I0
sg72
S'Aerkign'
p1045
sg74
I9
sg75
I0
sg76
I00
sg77
I10
sg78
(g79
g1032
S'CE'
p1046
g31
tp1047
sg82
g31
sg83
(dp1048
g85
I6
sg86
I3
sg87
I9
sg88
I12
sg89
I8
sg90
I6
sg91
I8
sg92
I9
sg93
I4
sg94
I7
sg95
I8
sg96
I7
sg97
I6
sg98
I10
sg99
I3
ssg100
(dp1049
S's12'
p1050
(ijoueur
joueur
p1051
(dp1052
g27
I0
sg28
I0
sg29
I0
sg32
I0
sg34
g0
(g35
g2
Ntp1053
Rp1054
(dp1055
g40
g31
sbsg44
(dp1056
g46
I0
sg47
I0
sg48
I0
sg49
I0
ssg50
(dp1057
g46
I0
sg47
I0
sg48
I0
sg49
I0
ssg52
I0
sg53
g31
sg54
I0
sg55
I0
sg56
I0
sg57
I0
sg78
(g79
g1032
g31
g31
tp1058
sg60
I00
sg61
g0
(g35
g2
Ntp1059
Rp1060
(dp1061
g40
g31
sbsg62
(dp1062
g46
I0
sg47
I0
sg48
I0
sg49
I0
ssg64
(dp1063
g46
I0
sg47
I0
sg48
I0
sg49
I0
ssg66
(dp1064
g46
I0
sg47
I0
sg48
I0
sg49
I0
ssg68
(dp1065
g46
I0
sg47
I0
sg48
I0
sg49
I0
ssg70
I0
sg71
I0
sg72
g31
sg74
I0
sg75
I0
sg76
I00
sg77
I0
sg58
g59
sg83
(dp1066
g95
I0
sg86
I0
sg87
I0
sg88
I0
sg89
I0
sg85
I0
sg90
I0
sg92
I0
sg93
I0
sg94
I0
sg91
I0
sg96
I0
sg97
I0
sg98
I0
sg99
I0
ssg100
(dp1067
sg120
I0
sg121
g31
sg122
I0
sg123
I0
sg124
F0.0
sg125
I0
sg126
I0
sg127
I0
sg128
g1048
sg129
I0
sg130
I0
sg131
I0
sg132
I0
sg133
I0
sg134
I0
sg135
I0
sg136
g31
sbsS's11'
p1068
(ijoueur
joueur
p1069
(dp1070
g27
I0
sg28
I0
sg29
I0
sg32
I0
sg34
g0
(g35
g2
Ntp1071
Rp1072
(dp1073
g40
g31
sbsg44
(dp1074
g46
I0
sg47
I0
sg48
I0
sg49
I0
ssg50
(dp1075
g46
I0
sg47
I0
sg48
I0
sg49
I0
ssg52
I0
sg53
g31
sg54
I0
sg55
I0
sg56
I0
sg57
I0
sg78
g1058
sg60
I00
sg61
g0
(g35
g2
Ntp1076
Rp1077
(dp1078
g40
g31
sbsg62
(dp1079
g46
I0
sg47
I0
sg48
I0
sg49
I0
ssg64
(dp1080
g46
I0
sg47
I0
sg48
I0
sg49
I0
ssg66
(dp1081
g46
I0
sg47
I0
sg48
I0
sg49
I0
ssg68
(dp1082
g46
I0
sg47
I0
sg48
I0
sg49
I0
ssg70
I0
sg71
I0
sg72
g31
sg74
I0
sg75
I0
sg76
I00
sg77
I0
sg58
g59
sg83
(dp1083
g95
I0
sg86
I0
sg87
I0
sg88
I0
sg89
I0
sg85
I0
sg90
I0
sg92
I0
sg93
I0
sg94
I0
sg91
I0
sg96
I0
sg97
I0
sg98
I0
sg99
I0
ssg100
(dp1084
sg120
I0
sg121
g31
sg122
I0
sg123
I0
sg124
F0.0
sg125
I0
sg126
I0
sg127
I0
sg128
g1048
sg129
I0
sg130
I0
sg131
I0
sg132
I0
sg133
I0
sg134
I0
sg135
I0
sg136
g31
sbssg120
I0
sg121
g31
sg122
I0
sg123
I0
sg124
F8.757575757575758
sg125
I0
sg126
I0
sg127
I0
sg128
g1048
sg129
I0
sg130
I0
sg131
I0
sg132
I0
sg133
I1
sg134
I0
sg135
I0
sg136
g154
sba(ijoueur
joueur
p1085
(dp1086
g27
I0
sg28
I0
sg29
I0
sg30
g31
sg32
I0
sg33
g31
sg34
g0
(g35
g2
Ntp1087
Rp1088
(dp1089
g39
I3
sg40
g41
sg42
g43
sbsg44
(dp1090
g46
I0
sg47
I0
sg48
I0
sg49
I0
ssg50
(dp1091
g46
I0
sg47
I0
sg48
I0
sg49
I0
ssg52
I20
sg53
g31
sg54
I0
sg55
I0
sg56
I0
sg57
I0
sg58
g59
sg60
I00
sg61
g1088
sg62
(dp1092
g46
I0
sg47
I0
sg48
I0
sg49
I0
ssg64
(dp1093
g46
I0
sg47
I0
sg48
I0
sg49
I0
ssg66
(dp1094
g46
I0
sg47
I0
sg48
I0
sg49
I0
ssg68
(dp1095
g46
I0
sg47
I0
sg48
I0
sg49
I0
ssg70
I0
sg71
I0
sg72
S'Gnustel'
p1096
sg74
I11
sg75
I0
sg76
I00
sg77
I18
sg78
(g79
g1032
S'AI'
p1097
S'CE'
p1098
tp1099
sg82
g31
sg83
(dp1100
g85
I6
sg86
I6
sg87
I11
sg88
I10
sg89
I8
sg90
I7
sg91
I9
sg92
I11
sg93
I5
sg94
I6
sg95
I9
sg96
I9
sg97
I6
sg98
I12
sg99
I3
ssg100
(dp1101
S's12'
p1102
(ijoueur
joueur
p1103
(dp1104
g27
I0
sg28
I0
sg29
I0
sg32
I0
sg34
g0
(g35
g2
Ntp1105
Rp1106
(dp1107
g40
g31
sbsg44
(dp1108
g46
I0
sg47
I0
sg48
I0
sg49
I0
ssg50
(dp1109
g46
I0
sg47
I0
sg48
I0
sg49
I0
ssg52
I0
sg53
g31
sg54
I0
sg55
I0
sg56
I0
sg57
I0
sg78
(g79
g1032
g31
g31
tp1110
sg60
I00
sg61
g0
(g35
g2
Ntp1111
Rp1112
(dp1113
g40
g31
sbsg62
(dp1114
g46
I0
sg47
I0
sg48
I0
sg49
I0
ssg64
(dp1115
g46
I0
sg47
I0
sg48
I0
sg49
I0
ssg66
(dp1116
g46
I0
sg47
I0
sg48
I0
sg49
I0
ssg68
(dp1117
g46
I0
sg47
I0
sg48
I0
sg49
I0
ssg70
I0
sg71
I0
sg72
g31
sg74
I0
sg75
I0
sg76
I00
sg77
I0
sg58
g59
sg83
(dp1118
g95
I0
sg86
I0
sg87
I0
sg88
I0
sg89
I0
sg85
I0
sg90
I0
sg92
I0
sg93
I0
sg94
I0
sg91
I0
sg96
I0
sg97
I0
sg98
I0
sg99
I0
ssg100
(dp1119
sg120
I0
sg121
g31
sg122
I0
sg123
I0
sg124
F0.0
sg125
I0
sg126
I0
sg127
I0
sg128
g1100
sg129
I0
sg130
I0
sg131
I0
sg132
I0
sg133
I0
sg134
I0
sg135
I0
sg136
g31
sbsS's11'
p1120
(ijoueur
joueur
p1121
(dp1122
g27
I0
sg28
I0
sg29
I0
sg32
I0
sg34
g0
(g35
g2
Ntp1123
Rp1124
(dp1125
g40
g31
sbsg44
(dp1126
g46
I0
sg47
I0
sg48
I0
sg49
I0
ssg50
(dp1127
g46
I0
sg47
I0
sg48
I0
sg49
I0
ssg52
I0
sg53
g31
sg54
I0
sg55
I0
sg56
I0
sg57
I0
sg78
g1110
sg60
I00
sg61
g0
(g35
g2
Ntp1128
Rp1129
(dp1130
g40
g31
sbsg62
(dp1131
g46
I0
sg47
I0
sg48
I0
sg49
I0
ssg64
(dp1132
g46
I0
sg47
I0
sg48
I0
sg49
I0
ssg66
(dp1133
g46
I0
sg47
I0
sg48
I0
sg49
I0
ssg68
(dp1134
g46
I0
sg47
I0
sg48
I0
sg49
I0
ssg70
I0
sg71
I0
sg72
g31
sg74
I0
sg75
I0
sg76
I00
sg77
I0
sg58
g59
sg83
(dp1135
g95
I0
sg86
I0
sg87
I0
sg88
I0
sg89
I0
sg85
I0
sg90
I0
sg92
I0
sg93
I0
sg94
I0
sg91
I0
sg96
I0
sg97
I0
sg98
I0
sg99
I0
ssg100
(dp1136
sg120
I0
sg121
g31
sg122
I0
sg123
I0
sg124
F0.0
sg125
I0
sg126
I0
sg127
I0
sg128
g1100
sg129
I0
sg130
I0
sg131
I0
sg132
I0
sg133
I0
sg134
I0
sg135
I0
sg136
g31
sbssg120
I0
sg121
g31
sg122
I0
sg123
I0
sg124
F9.515151515151516
sg125
I0
sg126
I0
sg127
I0
sg128
g1100
sg129
I0
sg130
I0
sg131
I0
sg132
I0
sg133
I1
sg134
I0
sg135
I0
sg136
g154
sbasS'PI'
p1137
(lp1138
(ijoueur
joueur
p1139
(dp1140
g27
I0
sg28
I0
sg29
I0
sg30
g31
sg32
I0
sg33
g31
sg34
g0
(g35
g2
Ntp1141
Rp1142
(dp1143
g39
I5
sg40
g318
sg42
g319
sbsg44
(dp1144
g46
I0
sg47
I0
sg48
I0
sg49
I0
ssg50
(dp1145
g46
I0
sg47
I0
sg48
I0
sg49
I0
ssg52
I15
sg53
g31
sg54
I0
sg55
I0
sg56
I0
sg57
I0
sg58
g59
sg60
I00
sg61
g1142
sg62
(dp1146
g46
I0
sg47
I0
sg48
I0
sg49
I0
ssg64
(dp1147
g46
I0
sg47
I0
sg48
I0
sg49
I0
ssg66
(dp1148
g46
I0
sg47
I0
sg48
I0
sg49
I0
ssg68
(dp1149
g46
I0
sg47
I0
sg48
I0
sg49
I0
ssg70
I0
sg71
I0
sg72
S'Dardoec'
p1150
sg74
I3
sg75
I0
sg76
I00
sg77
I224
sg78
(g79
g1137
g31
g31
tp1151
sg82
g31
sg83
(dp1152
g85
I10
sg86
I8
sg87
I7
sg88
I12
sg89
I5
sg90
I3
sg91
I7
sg92
I10
sg93
I8
sg94
I8
sg95
I9
sg96
I7
sg97
I5
sg98
I12
sg99
I7
ssg100
(dp1153
S's12'
p1154
(ijoueur
joueur
p1155
(dp1156
g27
I0
sg28
I0
sg29
I0
sg32
I0
sg34
g0
(g35
g2
Ntp1157
Rp1158
(dp1159
g40
g31
sbsg44
(dp1160
g46
I0
sg47
I0
sg48
I0
sg49
I0
ssg50
(dp1161
g46
I0
sg47
I0
sg48
I0
sg49
I0
ssg52
I0
sg53
g31
sg54
I0
sg55
I0
sg56
I0
sg57
I0
sg78
(g79
g1137
g31
g31
tp1162
sg60
I00
sg61
g0
(g35
g2
Ntp1163
Rp1164
(dp1165
g40
g31
sbsg62
(dp1166
g46
I0
sg47
I0
sg48
I0
sg49
I0
ssg64
(dp1167
g46
I0
sg47
I0
sg48
I0
sg49
I0
ssg66
(dp1168
g46
I0
sg47
I0
sg48
I0
sg49
I0
ssg68
(dp1169
g46
I0
sg47
I0
sg48
I0
sg49
I0
ssg70
I0
sg71
I0
sg72
g31
sg74
I0
sg75
I0
sg76
I00
sg77
I0
sg58
g59
sg83
(dp1170
g95
I0
sg86
I0
sg87
I0
sg88
I0
sg89
I0
sg85
I0
sg90
I0
sg92
I0
sg93
I0
sg94
I0
sg91
I0
sg96
I0
sg97
I0
sg98
I0
sg99
I0
ssg100
(dp1171
sg120
I0
sg121
g31
sg122
I0
sg123
I0
sg124
F0.0
sg125
I0
sg126
I0
sg127
I0
sg128
g1152
sg129
I0
sg130
I0
sg131
I0
sg132
I0
sg133
I0
sg134
I0
sg135
I0
sg136
g31
sbsS's11'
p1172
(ijoueur
joueur
p1173
(dp1174
g27
I0
sg28
I0
sg29
I0
sg32
I0
sg34
g0
(g35
g2
Ntp1175
Rp1176
(dp1177
g40
g31
sbsg44
(dp1178
g46
I0
sg47
I0
sg48
I0
sg49
I0
ssg50
(dp1179
g46
I0
sg47
I0
sg48
I0
sg49
I0
ssg52
I0
sg53
g31
sg54
I0
sg55
I0
sg56
I0
sg57
I0
sg78
g1162
sg60
I00
sg61
g0
(g35
g2
Ntp1180
Rp1181
(dp1182
g40
g31
sbsg62
(dp1183
g46
I0
sg47
I0
sg48
I0
sg49
I0
ssg64
(dp1184
g46
I0
sg47
I0
sg48
I0
sg49
I0
ssg66
(dp1185
g46
I0
sg47
I0
sg48
I0
sg49
I0
ssg68
(dp1186
g46
I0
sg47
I0
sg48
I0
sg49
I0
ssg70
I0
sg71
I0
sg72
g31
sg74
I0
sg75
I0
sg76
I00
sg77
I0
sg58
g59
sg83
(dp1187
g95
I0
sg86
I0
sg87
I0
sg88
I0
sg89
I0
sg85
I0
sg90
I0
sg92
I0
sg93
I0
sg94
I0
sg91
I0
sg96
I0
sg97
I0
sg98
I0
sg99
I0
ssg100
(dp1188
sg120
I0
sg121
g31
sg122
I0
sg123
I0
sg124
F0.0
sg125
I0
sg126
I0
sg127
I0
sg128
g1152
sg129
I0
sg130
I0
sg131
I0
sg132
I0
sg133
I0
sg134
I0
sg135
I0
sg136
g31
sbssg120
I0
sg121
g31
sg122
I0
sg123
I0
sg124
F9.296296296296296
sg125
I0
sg126
I0
sg127
I0
sg128
g1152
sg129
I0
sg130
I0
sg131
I0
sg132
I0
sg133
I22
sg134
I0
sg135
I0
sg136
g154
sba(ijoueur
joueur
p1189
(dp1190
g27
I0
sg28
I0
sg29
I0
sg30
g31
sg32
I0
sg33
g31
sg34
g0
(g35
g2
Ntp1191
Rp1192
(dp1193
g39
I5
sg40
g318
sg42
g319
sbsg44
(dp1194
g46
I0
sg47
I0
sg48
I0
sg49
I0
ssg50
(dp1195
g46
I0
sg47
I0
sg48
I0
sg49
I0
ssg52
I21
sg53
g31
sg54
I0
sg55
I0
sg56
I0
sg57
I0
sg58
g59
sg60
I00
sg61
g1192
sg62
(dp1196
g46
I0
sg47
I0
sg48
I0
sg49
I0
ssg64
(dp1197
g46
I0
sg47
I0
sg48
I0
sg49
I0
ssg66
(dp1198
g46
I0
sg47
I0
sg48
I0
sg49
I0
ssg68
(dp1199
g46
I0
sg47
I0
sg48
I0
sg49
I0
ssg70
I0
sg71
I0
sg72
S'Emendol'
p1200
sg74
I9
sg75
I0
sg76
I00
sg77
I224
sg78
(g79
g1137
S'TL'
p1201
g31
tp1202
sg82
g31
sg83
(dp1203
g85
I9
sg86
I7
sg87
I7
sg88
I10
sg89
I6
sg90
I5
sg91
I8
sg92
I9
sg93
I9
sg94
I8
sg95
I8
sg96
I9
sg97
I4
sg98
I10
sg99
I7
ssg100
(dp1204
S's12'
p1205
(ijoueur
joueur
p1206
(dp1207
g27
I0
sg28
I0
sg29
I0
sg32
I0
sg34
g0
(g35
g2
Ntp1208
Rp1209
(dp1210
g40
g31
sbsg44
(dp1211
g46
I0
sg47
I0
sg48
I0
sg49
I0
ssg50
(dp1212
g46
I0
sg47
I0
sg48
I0
sg49
I0
ssg52
I0
sg53
g31
sg54
I0
sg55
I0
sg56
I0
sg57
I0
sg78
(g79
g1137
g31
g31
tp1213
sg60
I00
sg61
g0
(g35
g2
Ntp1214
Rp1215
(dp1216
g40
g31
sbsg62
(dp1217
g46
I0
sg47
I0
sg48
I0
sg49
I0
ssg64
(dp1218
g46
I0
sg47
I0
sg48
I0
sg49
I0
ssg66
(dp1219
g46
I0
sg47
I0
sg48
I0
sg49
I0
ssg68
(dp1220
g46
I0
sg47
I0
sg48
I0
sg49
I0
ssg70
I0
sg71
I0
sg72
g31
sg74
I0
sg75
I0
sg76
I00
sg77
I0
sg58
g59
sg83
(dp1221
g95
I0
sg86
I0
sg87
I0
sg88
I0
sg89
I0
sg85
I0
sg90
I0
sg92
I0
sg93
I0
sg94
I0
sg91
I0
sg96
I0
sg97
I0
sg98
I0
sg99
I0
ssg100
(dp1222
sg120
I0
sg121
g31
sg122
I0
sg123
I0
sg124
F0.0
sg125
I0
sg126
I0
sg127
I0
sg128
g1203
sg129
I0
sg130
I0
sg131
I0
sg132
I0
sg133
I0
sg134
I0
sg135
I0
sg136
g31
sbsS's11'
p1223
(ijoueur
joueur
p1224
(dp1225
g27
I0
sg28
I0
sg29
I0
sg32
I0
sg34
g0
(g35
g2
Ntp1226
Rp1227
(dp1228
g40
g31
sbsg44
(dp1229
g46
I0
sg47
I0
sg48
I0
sg49
I0
ssg50
(dp1230
g46
I0
sg47
I0
sg48
I0
sg49
I0
ssg52
I0
sg53
g31
sg54
I0
sg55
I0
sg56
I0
sg57
I0
sg78
g1213
sg60
I00
sg61
g0
(g35
g2
Ntp1231
Rp1232
(dp1233
g40
g31
sbsg62
(dp1234
g46
I0
sg47
I0
sg48
I0
sg49
I0
ssg64
(dp1235
g46
I0
sg47
I0
sg48
I0
sg49
I0
ssg66
(dp1236
g46
I0
sg47
I0
sg48
I0
sg49
I0
ssg68
(dp1237
g46
I0
sg47
I0
sg48
I0
sg49
I0
ssg70
I0
sg71
I0
sg72
g31
sg74
I0
sg75
I0
sg76
I00
sg77
I0
sg58
g59
sg83
(dp1238
g95
I0
sg86
I0
sg87
I0
sg88
I0
sg89
I0
sg85
I0
sg90
I0
sg92
I0
sg93
I0
sg94
I0
sg91
I0
sg96
I0
sg97
I0
sg98
I0
sg99
I0
ssg100
(dp1239
sg120
I0
sg121
g31
sg122
I0
sg123
I0
sg124
F0.0
sg125
I0
sg126
I0
sg127
I0
sg128
g1203
sg129
I0
sg130
I0
sg131
I0
sg132
I0
sg133
I0
sg134
I0
sg135
I0
sg136
g31
sbssg120
I0
sg121
g31
sg122
I0
sg123
I0
sg124
F8.823529411764707
sg125
I0
sg126
I0
sg127
I0
sg128
g1203
sg129
I0
sg130
I0
sg131
I0
sg132
I0
sg133
I22
sg134
I0
sg135
I0
sg136
g154
sba(ijoueur
joueur
p1240
(dp1241
g27
I0
sg28
I0
sg29
I0
sg30
g31
sg32
I0
sg33
g31
sg34
g0
(g35
g2
Ntp1242
Rp1243
(dp1244
g39
I5
sg40
g318
sg42
g319
sbsg44
(dp1245
g46
I0
sg47
I0
sg48
I0
sg49
I0
ssg50
(dp1246
g46
I0
sg47
I0
sg48
I0
sg49
I0
ssg52
I22
sg53
g31
sg54
I0
sg55
I0
sg56
I0
sg57
I0
sg58
g59
sg60
I00
sg61
g0
(g35
g2
Ntp1247
Rp1248
(dp1249
g39
I3
sg40
S'^^^'
p1250
sg42
g43
sbsg62
(dp1251
g46
I0
sg47
I0
sg48
I0
sg49
I0
ssg64
(dp1252
g46
I0
sg47
I0
sg48
I0
sg49
I0
ssg66
(dp1253
g46
I0
sg47
I0
sg48
I0
sg49
I0
ssg68
(dp1254
g46
I0
sg47
I0
sg48
I0
sg49
I0
ssg70
I0
sg71
I0
sg72
S'Zofner'
p1255
sg74
I12
sg75
I0
sg76
I00
sg77
I24
sg78
(g79
g1137
S'TA'
p1256
g31
tp1257
sg82
g31
sg83
(dp1258
g85
I7
sg86
I10
sg87
I8
sg88
I11
sg89
I2
sg90
I4
sg91
I6
sg92
I9
sg93
I7
sg94
I6
sg95
I6
sg96
I8
sg97
I5
sg98
I8
sg99
I8
ssg100
(dp1259
S's12'
p1260
(ijoueur
joueur
p1261
(dp1262
g27
I0
sg28
I0
sg29
I0
sg32
I0
sg34
g0
(g35
g2
Ntp1263
Rp1264
(dp1265
g40
g31
sbsg44
(dp1266
g46
I0
sg47
I0
sg48
I0
sg49
I0
ssg50
(dp1267
g46
I0
sg47
I0
sg48
I0
sg49
I0
ssg52
I0
sg53
g31
sg54
I0
sg55
I0
sg56
I0
sg57
I0
sg78
(g79
g1137
g31
g31
tp1268
sg60
I00
sg61
g0
(g35
g2
Ntp1269
Rp1270
(dp1271
g40
g31
sbsg62
(dp1272
g46
I0
sg47
I0
sg48
I0
sg49
I0
ssg64
(dp1273
g46
I0
sg47
I0
sg48
I0
sg49
I0
ssg66
(dp1274
g46
I0
sg47
I0
sg48
I0
sg49
I0
ssg68
(dp1275
g46
I0
sg47
I0
sg48
I0
sg49
I0
ssg70
I0
sg71
I0
sg72
g31
sg74
I0
sg75
I0
sg76
I00
sg77
I0
sg58
g59
sg83
(dp1276
g95
I0
sg86
I0
sg87
I0
sg88
I0
sg89
I0
sg85
I0
sg90
I0
sg92
I0
sg93
I0
sg94
I0
sg91
I0
sg96
I0
sg97
I0
sg98
I0
sg99
I0
ssg100
(dp1277
sg120
I0
sg121
g31
sg122
I0
sg123
I0
sg124
F0.0
sg125
I0
sg126
I0
sg127
I0
sg128
g1258
sg129
I0
sg130
I0
sg131
I0
sg132
I0
sg133
I0
sg134
I0
sg135
I0
sg136
g31
sbssg120
I0
sg121
g31
sg122
I0
sg123
I0
sg124
F8.666666666666666
sg125
I0
sg126
I0
sg127
I0
sg128
g1258
sg129
I0
sg130
I0
sg131
I0
sg132
I0
sg133
I2
sg134
I0
sg135
I0
sg136
g154
sba(ijoueur
joueur
p1278
(dp1279
g27
I0
sg28
I0
sg29
I0
sg30
g31
sg32
I0
sg33
g31
sg34
g0
(g35
g2
Ntp1280
Rp1281
(dp1282
g39
I1
sg40
g375
sg42
g266
sbsg44
(dp1283
g46
I0
sg47
I0
sg48
I0
sg49
I0
ssg50
(dp1284
g46
I0
sg47
I0
sg48
I0
sg49
I0
ssg52
I17
sg53
g31
sg54
I0
sg55
I0
sg56
I0
sg57
I0
sg58
g59
sg60
I00
sg61
g1281
sg62
(dp1285
g46
I0
sg47
I0
sg48
I0
sg49
I0
ssg64
(dp1286
g46
I0
sg47
I0
sg48
I0
sg49
I0
ssg66
(dp1287
g46
I0
sg47
I0
sg48
I0
sg49
I0
ssg68
(dp1288
g46
I0
sg47
I0
sg48
I0
sg49
I0
ssg70
I0
sg71
I0
sg72
S'Xajy'
p1289
sg74
I8
sg75
I0
sg76
I00
sg77
I11
sg78
(g79
g1137
g31
g31
tp1290
sg82
g31
sg83
(dp1291
g85
I9
sg86
I11
sg87
I6
sg88
I11
sg89
I5
sg90
I4
sg91
I7
sg92
I9
sg93
I7
sg94
I7
sg95
I7
sg96
I8
sg97
I3
sg98
I9
sg99
I9
ssg100
(dp1292
S's12'
p1293
(ijoueur
joueur
p1294
(dp1295
g27
I0
sg28
I0
sg29
I0
sg32
I0
sg34
g0
(g35
g2
Ntp1296
Rp1297
(dp1298
g40
g31
sbsg44
(dp1299
g46
I0
sg47
I0
sg48
I0
sg49
I0
ssg50
(dp1300
g46
I0
sg47
I0
sg48
I0
sg49
I0
ssg52
I0
sg53
g31
sg54
I0
sg55
I0
sg56
I0
sg57
I0
sg78
(g79
g1137
g31
g31
tp1301
sg60
I00
sg61
g0
(g35
g2
Ntp1302
Rp1303
(dp1304
g40
g31
sbsg62
(dp1305
g46
I0
sg47
I0
sg48
I0
sg49
I0
ssg64
(dp1306
g46
I0
sg47
I0
sg48
I0
sg49
I0
ssg66
(dp1307
g46
I0
sg47
I0
sg48
I0
sg49
I0
ssg68
(dp1308
g46
I0
sg47
I0
sg48
I0
sg49
I0
ssg70
I0
sg71
I0
sg72
g31
sg74
I0
sg75
I0
sg76
I00
sg77
I0
sg58
g59
sg83
(dp1309
g95
I0
sg86
I0
sg87
I0
sg88
I0
sg89
I0
sg85
I0
sg90
I0
sg92
I0
sg93
I0
sg94
I0
sg91
I0
sg96
I0
sg97
I0
sg98
I0
sg99
I0
ssg100
(dp1310
sg120
I0
sg121
g31
sg122
I0
sg123
I0
sg124
F0.0
sg125
I0
sg126
I0
sg127
I0
sg128
g1291
sg129
I0
sg130
I0
sg131
I0
sg132
I0
sg133
I0
sg134
I0
sg135
I0
sg136
g31
sbsS's11'
p1311
(ijoueur
joueur
p1312
(dp1313
g27
I0
sg28
I0
sg29
I0
sg32
I0
sg34
g0
(g35
g2
Ntp1314
Rp1315
(dp1316
g40
g31
sbsg44
(dp1317
g46
I0
sg47
I0
sg48
I0
sg49
I0
ssg50
(dp1318
g46
I0
sg47
I0
sg48
I0
sg49
I0
ssg52
I0
sg53
g31
sg54
I0
sg55
I0
sg56
I0
sg57
I0
sg78
g1301
sg60
I00
sg61
g0
(g35
g2
Ntp1319
Rp1320
(dp1321
g40
g31
sbsg62
(dp1322
g46
I0
sg47
I0
sg48
I0
sg49
I0
ssg64
(dp1323
g46
I0
sg47
I0
sg48
I0
sg49
I0
ssg66
(dp1324
g46
I0
sg47
I0
sg48
I0
sg49
I0
ssg68
(dp1325
g46
I0
sg47
I0
sg48
I0
sg49
I0
ssg70
I0
sg71
I0
sg72
g31
sg74
I0
sg75
I0
sg76
I00
sg77
I0
sg58
g59
sg83
(dp1326
g95
I0
sg86
I0
sg87
I0
sg88
I0
sg89
I0
sg85
I0
sg90
I0
sg92
I0
sg93
I0
sg94
I0
sg91
I0
sg96
I0
sg97
I0
sg98
I0
sg99
I0
ssg100
(dp1327
sg120
I0
sg121
g31
sg122
I0
sg123
I0
sg124
F0.0
sg125
I0
sg126
I0
sg127
I0
sg128
g1291
sg129
I0
sg130
I0
sg131
I0
sg132
I0
sg133
I0
sg134
I0
sg135
I0
sg136
g31
sbssg120
I0
sg121
g31
sg122
I0
sg123
I0
sg124
F9.148148148148149
sg125
I0
sg126
I0
sg127
I0
sg128
g1291
sg129
I0
sg130
I0
sg131
I0
sg132
I0
sg133
I1
sg134
I0
sg135
I0
sg136
g154
sba(ijoueur
joueur
p1328
(dp1329
g27
I0
sg28
I0
sg29
I0
sg30
g31
sg32
I0
sg33
g31
sg34
g0
(g35
g2
Ntp1330
Rp1331
(dp1332
g39
I1
sg40
g265
sg42
g266
sbsg44
(dp1333
g46
I0
sg47
I0
sg48
I0
sg49
I0
ssg50
(dp1334
g46
I0
sg47
I0
sg48
I0
sg49
I0
ssg52
I23
sg53
g31
sg54
I0
sg55
I0
sg56
I0
sg57
I0
sg58
g59
sg60
I00
sg61
g1331
sg62
(dp1335
g46
I0
sg47
I0
sg48
I0
sg49
I0
ssg64
(dp1336
g46
I0
sg47
I0
sg48
I0
sg49
I0
ssg66
(dp1337
g46
I0
sg47
I0
sg48
I0
sg49
I0
ssg68
(dp1338
g46
I0
sg47
I0
sg48
I0
sg49
I0
ssg70
I0
sg71
I0
sg72
S'Hend'
p1339
sg74
I13
sg75
I0
sg76
I00
sg77
I24
sg78
(g79
g1137
g31
g31
tp1340
sg82
g31
sg83
(dp1341
g85
I8
sg86
I10
sg87
I6
sg88
I11
sg89
I2
sg90
I4
sg91
I6
sg92
I8
sg93
I6
sg94
I6
sg95
I7
sg96
I8
sg97
I2
sg98
I10
sg99
I7
ssg100
(dp1342
sg120
I0
sg121
g31
sg122
I0
sg123
I0
sg124
F8.88888888888889
sg125
I0
sg126
I0
sg127
I0
sg128
g1341
sg129
I0
sg130
I0
sg131
I0
sg132
I0
sg133
I2
sg134
I0
sg135
I0
sg136
g154
sbasg99
(lp1343
(ijoueur
joueur
p1344
(dp1345
g27
I0
sg28
I0
sg29
I0
sg30
g31
sg32
I0
sg33
g31
sg34
g0
(g35
g2
Ntp1346
Rp1347
(dp1348
g39
I1
sg40
g375
sg42
g266
sbsg44
(dp1349
g46
I0
sg47
I0
sg48
I0
sg49
I0
ssg50
(dp1350
g46
I0
sg47
I0
sg48
I0
sg49
I0
ssg52
I23
sg53
g31
sg54
I0
sg55
I0
sg56
I0
sg57
I0
sg58
g59
sg60
I00
sg61
g1347
sg62
(dp1351
g46
I0
sg47
I0
sg48
I0
sg49
I0
ssg64
(dp1352
g46
I0
sg47
I0
sg48
I0
sg49
I0
ssg66
(dp1353
g46
I0
sg47
I0
sg48
I0
sg49
I0
ssg68
(dp1354
g46
I0
sg47
I0
sg48
I0
sg49
I0
ssg70
I0
sg71
I0
sg72
S'Kesken'
p1355
sg74
I12
sg75
I0
sg76
I00
sg77
I14
sg78
(g79
g99
S'PI'
p1356
S'TL'
p1357
tp1358
sg82
g31
sg83
(dp1359
g85
I9
sg86
I7
sg87
I7
sg88
I11
sg89
I3
sg90
I2
sg91
I6
sg92
I9
sg93
I5
sg94
I6
sg95
I6
sg96
I8
sg97
I3
sg98
I9
sg99
I9
ssg100
(dp1360
S's12'
p1361
(ijoueur
joueur
p1362
(dp1363
g27
I0
sg28
I0
sg29
I0
sg32
I0
sg34
g0
(g35
g2
Ntp1364
Rp1365
(dp1366
g40
g31
sbsg44
(dp1367
g46
I0
sg47
I0
sg48
I0
sg49
I0
ssg50
(dp1368
g46
I0
sg47
I0
sg48
I0
sg49
I0
ssg52
I0
sg53
g31
sg54
I0
sg55
I0
sg56
I0
sg57
I0
sg78
(g79
g99
g31
g31
tp1369
sg60
I00
sg61
g0
(g35
g2
Ntp1370
Rp1371
(dp1372
g40
g31
sbsg62
(dp1373
g46
I0
sg47
I0
sg48
I0
sg49
I0
ssg64
(dp1374
g46
I0
sg47
I0
sg48
I0
sg49
I0
ssg66
(dp1375
g46
I0
sg47
I0
sg48
I0
sg49
I0
ssg68
(dp1376
g46
I0
sg47
I0
sg48
I0
sg49
I0
ssg70
I0
sg71
I0
sg72
g31
sg74
I0
sg75
I0
sg76
I00
sg77
I0
sg58
g59
sg83
(dp1377
g95
I0
sg86
I0
sg87
I0
sg88
I0
sg89
I0
sg85
I0
sg90
I0
sg92
I0
sg93
I0
sg94
I0
sg91
I0
sg96
I0
sg97
I0
sg98
I0
sg99
I0
ssg100
(dp1378
sg120
I0
sg121
g31
sg122
I0
sg123
I0
sg124
F0.0
sg125
I0
sg126
I0
sg127
I0
sg128
g1359
sg129
I0
sg130
I0
sg131
I0
sg132
I0
sg133
I0
sg134
I0
sg135
I0
sg136
g31
sbssg120
I0
sg121
g31
sg122
I0
sg123
I0
sg124
F8.448275862068966
sg125
I0
sg126
I0
sg127
I0
sg128
g1359
sg129
I0
sg130
I0
sg131
I0
sg132
I0
sg133
I1
sg134
I0
sg135
I0
sg136
g154
sba(ijoueur
joueur
p1379
(dp1380
g27
I0
sg28
I0
sg29
I0
sg30
g31
sg32
I0
sg33
g31
sg34
g0
(g35
g2
Ntp1381
Rp1382
(dp1383
g39
I1
sg40
g743
sg42
g266
sbsg44
(dp1384
g46
I0
sg47
I0
sg48
I0
sg49
I0
ssg50
(dp1385
g46
I0
sg47
I0
sg48
I0
sg49
I0
ssg52
I18
sg53
g31
sg54
I0
sg55
I0
sg56
I0
sg57
I0
sg58
g59
sg60
I00
sg61
g1382
sg62
(dp1386
g46
I0
sg47
I0
sg48
I0
sg49
I0
ssg64
(dp1387
g46
I0
sg47
I0
sg48
I0
sg49
I0
ssg66
(dp1388
g46
I0
sg47
I0
sg48
I0
sg49
I0
ssg68
(dp1389
g46
I0
sg47
I0
sg48
I0
sg49
I0
ssg70
I0
sg71
I0
sg72
S'Angrev'
p1390
sg74
I6
sg75
I0
sg76
I00
sg77
I19
sg78
(g79
g99
S'PI'
p1391
g31
tp1392
sg82
g31
sg83
(dp1393
g85
I7
sg86
I8
sg87
I6
sg88
I10
sg89
I1
sg90
I2
sg91
I6
sg92
I7
sg93
I3
sg94
I7
sg95
I6
sg96
I8
sg97
I1
sg98
I8
sg99
I8
ssg100
(dp1394
S's12'
p1395
(ijoueur
joueur
p1396
(dp1397
g27
I0
sg28
I0
sg29
I0
sg32
I0
sg34
g0
(g35
g2
Ntp1398
Rp1399
(dp1400
g40
g31
sbsg44
(dp1401
g46
I0
sg47
I0
sg48
I0
sg49
I0
ssg50
(dp1402
g46
I0
sg47
I0
sg48
I0
sg49
I0
ssg52
I0
sg53
g31
sg54
I0
sg55
I0
sg56
I0
sg57
I0
sg78
(g79
g99
g31
g31
tp1403
sg60
I00
sg61
g0
(g35
g2
Ntp1404
Rp1405
(dp1406
g40
g31
sbsg62
(dp1407
g46
I0
sg47
I0
sg48
I0
sg49
I0
ssg64
(dp1408
g46
I0
sg47
I0
sg48
I0
sg49
I0
ssg66
(dp1409
g46
I0
sg47
I0
sg48
I0
sg49
I0
ssg68
(dp1410
g46
I0
sg47
I0
sg48
I0
sg49
I0
ssg70
I0
sg71
I0
sg72
g31
sg74
I0
sg75
I0
sg76
I00
sg77
I0
sg58
g59
sg83
(dp1411
g95
I0
sg86
I0
sg87
I0
sg88
I0
sg89
I0
sg85
I0
sg90
I0
sg92
I0
sg93
I0
sg94
I0
sg91
I0
sg96
I0
sg97
I0
sg98
I0
sg99
I0
ssg100
(dp1412
sg120
I0
sg121
g31
sg122
I0
sg123
I0
sg124
F0.0
sg125
I0
sg126
I0
sg127
I0
sg128
g1393
sg129
I0
sg130
I0
sg131
I0
sg132
I0
sg133
I0
sg134
I0
sg135
I0
sg136
g31
sbsS's11'
p1413
(ijoueur
joueur
p1414
(dp1415
g27
I0
sg28
I0
sg29
I0
sg32
I0
sg34
g0
(g35
g2
Ntp1416
Rp1417
(dp1418
g40
g31
sbsg44
(dp1419
g46
I0
sg47
I0
sg48
I0
sg49
I0
ssg50
(dp1420
g46
I0
sg47
I0
sg48
I0
sg49
I0
ssg52
I0
sg53
g31
sg54
I0
sg55
I0
sg56
I0
sg57
I0
sg78
g1403
sg60
I00
sg61
g0
(g35
g2
Ntp1421
Rp1422
(dp1423
g40
g31
sbsg62
(dp1424
g46
I0
sg47
I0
sg48
I0
sg49
I0
ssg64
(dp1425
g46
I0
sg47
I0
sg48
I0
sg49
I0
ssg66
(dp1426
g46
I0
sg47
I0
sg48
I0
sg49
I0
ssg68
(dp1427
g46
I0
sg47
I0
sg48
I0
sg49
I0
ssg70
I0
sg71
I0
sg72
g31
sg74
I0
sg75
I0
sg76
I00
sg77
I0
sg58
g59
sg83
(dp1428
g95
I0
sg86
I0
sg87
I0
sg88
I0
sg89
I0
sg85
I0
sg90
I0
sg92
I0
sg93
I0
sg94
I0
sg91
I0
sg96
I0
sg97
I0
sg98
I0
sg99
I0
ssg100
(dp1429
sg120
I0
sg121
g31
sg122
I0
sg123
I0
sg124
F0.0
sg125
I0
sg126
I0
sg127
I0
sg128
g1393
sg129
I0
sg130
I0
sg131
I0
sg132
I0
sg133
I0
sg134
I0
sg135
I0
sg136
g31
sbssg120
I0
sg121
g31
sg122
I0
sg123
I0
sg124
F7.896551724137931
sg125
I0
sg126
I0
sg127
I0
sg128
g1393
sg129
I0
sg130
I0
sg131
I0
sg132
I0
sg133
I1
sg134
I0
sg135
I0
sg136
g154
sba(ijoueur
joueur
p1430
(dp1431
g27
I0
sg28
I0
sg29
I0
sg30
g31
sg32
I0
sg33
g31
sg34
g0
(g35
g2
Ntp1432
Rp1433
(dp1434
g39
I1
sg40
g743
sg42
g266
sbsg44
(dp1435
g46
I0
sg47
I0
sg48
I0
sg49
I0
ssg50
(dp1436
g46
I0
sg47
I0
sg48
I0
sg49
I0
ssg52
I15
sg53
g31
sg54
I0
sg55
I0
sg56
I0
sg57
I0
sg58
g59
sg60
I00
sg61
g1433
sg62
(dp1437
g46
I0
sg47
I0
sg48
I0
sg49
I0
ssg64
(dp1438
g46
I0
sg47
I0
sg48
I0
sg49
I0
ssg66
(dp1439
g46
I0
sg47
I0
sg48
I0
sg49
I0
ssg68
(dp1440
g46
I0
sg47
I0
sg48
I0
sg49
I0
ssg70
I0
sg71
I0
sg72
S'Nermic'
p1441
sg74
I5
sg75
I0
sg76
I00
sg77
I13
sg78
(g79
g99
g31
g31
tp1442
sg82
g31
sg83
(dp1443
g85
I6
sg86
I10
sg87
I5
sg88
I11
sg89
I5
sg90
I3
sg91
I6
sg92
I6
sg93
I5
sg94
I6
sg95
I7
sg96
I8
sg97
I2
sg98
I9
sg99
I7
ssg100
(dp1444
S's12'
p1445
(ijoueur
joueur
p1446
(dp1447
g27
I0
sg28
I0
sg29
I0
sg32
I0
sg34
g0
(g35
g2
Ntp1448
Rp1449
(dp1450
g40
g31
sbsg44
(dp1451
g46
I0
sg47
I0
sg48
I0
sg49
I0
ssg50
(dp1452
g46
I0
sg47
I0
sg48
I0
sg49
I0
ssg52
I0
sg53
g31
sg54
I0
sg55
I0
sg56
I0
sg57
I0
sg78
(g79
g99
g31
g31
tp1453
sg60
I00
sg61
g0
(g35
g2
Ntp1454
Rp1455
(dp1456
g40
g31
sbsg62
(dp1457
g46
I0
sg47
I0
sg48
I0
sg49
I0
ssg64
(dp1458
g46
I0
sg47
I0
sg48
I0
sg49
I0
ssg66
(dp1459
g46
I0
sg47
I0
sg48
I0
sg49
I0
ssg68
(dp1460
g46
I0
sg47
I0
sg48
I0
sg49
I0
ssg70
I0
sg71
I0
sg72
g31
sg74
I0
sg75
I0
sg76
I00
sg77
I0
sg58
g59
sg83
(dp1461
g95
I0
sg86
I0
sg87
I0
sg88
I0
sg89
I0
sg85
I0
sg90
I0
sg92
I0
sg93
I0
sg94
I0
sg91
I0
sg96
I0
sg97
I0
sg98
I0
sg99
I0
ssg100
(dp1462
sg120
I0
sg121
g31
sg122
I0
sg123
I0
sg124
F0.0
sg125
I0
sg126
I0
sg127
I0
sg128
g1443
sg129
I0
sg130
I0
sg131
I0
sg132
I0
sg133
I0
sg134
I0
sg135
I0
sg136
g31
sbsS's11'
p1463
(ijoueur
joueur
p1464
(dp1465
g27
I0
sg28
I0
sg29
I0
sg32
I0
sg34
g0
(g35
g2
Ntp1466
Rp1467
(dp1468
g40
g31
sbsg44
(dp1469
g46
I0
sg47
I0
sg48
I0
sg49
I0
ssg50
(dp1470
g46
I0
sg47
I0
sg48
I0
sg49
I0
ssg52
I0
sg53
g31
sg54
I0
sg55
I0
sg56
I0
sg57
I0
sg78
g1453
sg60
I00
sg61
g0
(g35
g2
Ntp1471
Rp1472
(dp1473
g40
g31
sbsg62
(dp1474
g46
I0
sg47
I0
sg48
I0
sg49
I0
ssg64
(dp1475
g46
I0
sg47
I0
sg48
I0
sg49
I0
ssg66
(dp1476
g46
I0
sg47
I0
sg48
I0
sg49
I0
ssg68
(dp1477
g46
I0
sg47
I0
sg48
I0
sg49
I0
ssg70
I0
sg71
I0
sg72
g31
sg74
I0
sg75
I0
sg76
I00
sg77
I0
sg58
g59
sg83
(dp1478
g95
I0
sg86
I0
sg87
I0
sg88
I0
sg89
I0
sg85
I0
sg90
I0
sg92
I0
sg93
I0
sg94
I0
sg91
I0
sg96
I0
sg97
I0
sg98
I0
sg99
I0
ssg100
(dp1479
sg120
I0
sg121
g31
sg122
I0
sg123
I0
sg124
F0.0
sg125
I0
sg126
I0
sg127
I0
sg128
g1443
sg129
I0
sg130
I0
sg131
I0
sg132
I0
sg133
I0
sg134
I0
sg135
I0
sg136
g31
sbssg120
I0
sg121
g31
sg122
I0
sg123
I0
sg124
F8.137931034482758
sg125
I0
sg126
I0
sg127
I0
sg128
g1443
sg129
I0
sg130
I0
sg131
I0
sg132
I0
sg133
I1
sg134
I0
sg135
I0
sg136
g154
sbassg72
g59
sS'masse_salariale'
p1480
I180
sS'difference_coupe'
p1481
I0
sS'bonus_offensif_championat'
p1482
I0
sS'nuls_coupe'
p1483
I0
sS'revenus'
p1484
I0
sS'gagnes_coupe'
p1485
I0
sS'budget'
p1486
I0
sS'compo_defaut'
p1487
(iclub
compo
p1488
(dp1489
S'caracs_old'
p1490
(dp1491
S'A'
p1492
F126.75
sS'ME'
p1493
F86.0
sS'E'
p1494
F211.0
sS'OplusAV'
p1495
F91.25
sS'OplusAR'
p1496
F93.75
sS'JP'
p1497
F78.0
sS'PA'
p1498
F78.75
sS'M'
p1499
F85.25
sS'OmoinsAR'
p1500
F93.0
sS'TO_off'
p1501
F68.25
sS'TO_def'
p1502
F62.0
sS'OmoinsAV'
p1503
F105.0
sS'R'
p1504
F166.5
ssS'totaux_old'
p1505
(dp1506
S'T2'
p1507
F141.75
sS'T3'
p1508
F105.5
sS'T1'
p1509
F158.75
ssS'roles'
p1510
(dp1511
S'SA_scd'
p1512
(ijoueur
joueur
p1513
(dp1514
g27
I0
sg28
I0
sg29
I0
sg30
g31
sg32
I0
sg33
g31
sg34
g0
(g35
g2
Ntp1515
Rp1516
(dp1517
g39
I5
sg40
S'xx'
p1518
sg42
S'seigneur'
p1519
sbsg44
(dp1520
S'SR'
p1521
I0
sS'CT'
p1522
I0
sS'CR'
p1523
I0
sS'ST'
p1524
I0
ssg50
(dp1525
g1521
I0
sg1522
I0
sg1523
I0
sg1524
I0
ssg52
I21
sg53
g31
sg54
I0
sg55
I0
sg56
I0
sg57
I0
sg58
S'KKR'
p1526
sg60
I00
sg61
g1516
sg62
(dp1527
g1521
I0
sg1522
I0
sg1523
I0
sg1524
I0
ssg64
(dp1528
g1521
I0
sg1522
I0
sg1523
I0
sg1524
I0
ssg66
(dp1529
g1521
I0
sg1522
I0
sg1523
I0
sg1524
I0
ssg68
(dp1530
g1521
I0
sg1522
I0
sg1523
I0
sg1524
I0
ssg70
I0
sg71
I0
sg72
S'Emendol'
p1531
sg74
I9
sg75
I0
sg76
I00
sg77
I224
sg78
(S'dummy'
p1532
S'PI'
p1533
S'TL'
p1534
g31
tp1535
sg82
g31
sg83
(dp1536
S'RP1'
p1537
I9
sS'ME'
p1538
I7
sS'RP2'
p1539
I7
sS'E'
p1540
I10
sS'TO'
p1541
I9
sS'M'
p1542
I8
sS'JP'
p1543
I5
sS'RP_tot'
p1544
I9
sS'P'
p1545
I6
sS'PA'
p1546
I8
sS'A'
p1547
I8
sS'R'
p1548
I9
sS'TB'
p1549
I4
sS'PL'
p1550
I10
sS'TA'
p1551
I7
ssg100
(dp1552
S's12'
p1553
(ijoueur
joueur
p1554
(dp1555
g27
I0
sg28
I0
sg29
I0
sg32
I0
sg34
g0
(g35
g2
Ntp1556
Rp1557
(dp1558
g40
g31
sbsg44
(dp1559
g1521
I0
sg1522
I0
sg1523
I0
sg1524
I0
ssg50
(dp1560
g1521
I0
sg1522
I0
sg1523
I0
sg1524
I0
ssg52
I0
sg53
g31
sg54
I0
sg55
I0
sg56
I0
sg57
I0
sg78
(g1532
g1533
g31
g31
tp1561
sg60
I00
sg61
g0
(g35
g2
Ntp1562
Rp1563
(dp1564
g40
g31
sbsg62
(dp1565
g1521
I0
sg1522
I0
sg1523
I0
sg1524
I0
ssg64
(dp1566
g1521
I0
sg1522
I0
sg1523
I0
sg1524
I0
ssg66
(dp1567
g1521
I0
sg1522
I0
sg1523
I0
sg1524
I0
ssg68
(dp1568
g1521
I0
sg1522
I0
sg1523
I0
sg1524
I0
ssg70
I0
sg71
I0
sg72
S'Emendol (12)'
p1569
sg74
I0
sg75
I0
sg76
I00
sg77
I0
sg58
g31
sg83
(dp1570
g1547
I0
sg1538
I0
sg1539
I0
sg1540
I0
sg1545
I0
sg1537
I0
sg1543
I0
sg1544
I0
sg1541
I0
sg1546
I0
sg1542
I0
sg1548
I0
sg1549
I0
sg1550
I0
sg1551
I0
ssg100
(dp1571
sg120
I0
sg121
g31
sg122
I0
sg123
I0
sg124
F0.0
sg125
I0
sg126
I0
sg127
I0
sg128
(dp1572
g1537
I9
sg1538
I7
sg1539
I7
sg1540
I10
sg1545
I6
sg1543
I5
sg1542
I8
sg1544
I9
sg1541
I9
sg1546
I8
sg1547
I8
sg1548
I9
sg1549
I4
sg1550
I10
sg1551
I7
ssg129
I0
sg130
I0
sg131
I0
sg132
I0
sg133
I0
sg134
I0
sg135
I0
sg136
g31
sbsS's11'
p1573
(ijoueur
joueur
p1574
(dp1575
g27
I0
sg28
I0
sg29
I0
sg32
I0
sg34
g0
(g35
g2
Ntp1576
Rp1577
(dp1578
g40
g31
sbsg44
(dp1579
g1521
I0
sg1522
I0
sg1523
I0
sg1524
I0
ssg50
(dp1580
g1521
I0
sg1522
I0
sg1523
I0
sg1524
I0
ssg52
I0
sg53
g31
sg54
I0
sg55
I0
sg56
I0
sg57
I0
sg78
g1561
sg60
I00
sg61
g0
(g35
g2
Ntp1581
Rp1582
(dp1583
g40
g31
sbsg62
(dp1584
g1521
I0
sg1522
I0
sg1523
I0
sg1524
I0
ssg64
(dp1585
g1521
I0
sg1522
I0
sg1523
I0
sg1524
I0
ssg66
(dp1586
g1521
I0
sg1522
I0
sg1523
I0
sg1524
I0
ssg68
(dp1587
g1521
I0
sg1522
I0
sg1523
I0
sg1524
I0
ssg70
I0
sg71
I0
sg72
S'Emendol (11)'
p1588
sg74
I0
sg75
I0
sg76
I00
sg77
I0
sg58
g31
sg83
(dp1589
g1547
I0
sg1538
I0
sg1539
I0
sg1540
I0
sg1545
I0
sg1537
I0
sg1543
I0
sg1544
I0
sg1541
I0
sg1546
I0
sg1542
I0
sg1548
I0
sg1549
I0
sg1550
I0
sg1551
I0
ssg100
(dp1590
sg120
I0
sg121
g31
sg122
I0
sg123
I0
sg124
F0.0
sg125
I0
sg126
I0
sg127
I0
sg128
g1572
sg129
I0
sg130
I0
sg131
I0
sg132
I0
sg133
I0
sg134
I0
sg135
I0
sg136
g31
sbssg120
I0
sg121
g31
sg122
I0
sg123
I0
sg124
F8.823529411764707
sg125
I0
sg126
I0
sg127
I0
sg128
g1572
sg129
I0
sg130
I0
sg131
I0
sg132
I0
sg133
I22
sg134
I0
sg135
I0
sg136
S'N'
p1591
sbsS'drop3'
p1592
(ijoueur
joueur
p1593
(dp1594
g27
I0
sg28
I0
sg29
I0
sg30
g31
sg32
I0
sg33
g31
sg34
g0
(g35
g2
Ntp1595
Rp1596
(dp1597
g39
I3
sg40
S'^^^'
p1598
sg42
S'rare'
p1599
sbsg44
(dp1600
g1521
I0
sg1522
I0
sg1523
I0
sg1524
I0
ssg50
(dp1601
g1521
I0
sg1522
I0
sg1523
I0
sg1524
I0
ssg52
I17
sg53
g31
sg54
I0
sg55
I0
sg56
I0
sg57
I0
sg58
g1526
sg60
I00
sg61
g1596
sg62
(dp1602
g1521
I0
sg1522
I0
sg1523
I0
sg1524
I0
ssg64
(dp1603
g1521
I0
sg1522
I0
sg1523
I0
sg1524
I0
ssg66
(dp1604
g1521
I0
sg1522
I0
sg1523
I0
sg1524
I0
ssg68
(dp1605
g1521
I0
sg1522
I0
sg1523
I0
sg1524
I0
ssg70
I0
sg71
I0
sg72
S'Wignik'
p1606
sg74
I4
sg75
I0
sg76
I00
sg77
I19
sg78
(g1532
S'DO'
p1607
S'AR'
p1608
g31
tp1609
sg82
g31
sg83
(dp1610
g1537
I6
sg1538
I5
sg1539
I7
sg1540
I12
sg1541
I4
sg1542
I8
sg1543
I8
sg1544
I7
sg1545
I8
sg1546
I7
sg1547
I8
sg1548
I7
sg1549
I8
sg1550
I10
sg1551
I5
ssg100
(dp1611
S's12'
p1612
(ijoueur
joueur
p1613
(dp1614
g27
I0
sg28
I0
sg29
I0
sg32
I0
sg34
g0
(g35
g2
Ntp1615
Rp1616
(dp1617
g40
g31
sbsg44
(dp1618
g1521
I0
sg1522
I0
sg1523
I0
sg1524
I0
ssg50
(dp1619
g1521
I0
sg1522
I0
sg1523
I0
sg1524
I0
ssg52
I0
sg53
g31
sg54
I0
sg55
I0
sg56
I0
sg57
I0
sg78
(g1532
g1607
g31
g31
tp1620
sg60
I00
sg61
g0
(g35
g2
Ntp1621
Rp1622
(dp1623
g40
g31
sbsg62
(dp1624
g1521
I0
sg1522
I0
sg1523
I0
sg1524
I0
ssg64
(dp1625
g1521
I0
sg1522
I0
sg1523
I0
sg1524
I0
ssg66
(dp1626
g1521
I0
sg1522
I0
sg1523
I0
sg1524
I0
ssg68
(dp1627
g1521
I0
sg1522
I0
sg1523
I0
sg1524
I0
ssg70
I0
sg71
I0
sg72
S'Wignik (12)'
p1628
sg74
I0
sg75
I0
sg76
I00
sg77
I0
sg58
g31
sg83
(dp1629
g1547
I0
sg1538
I0
sg1539
I0
sg1540
I0
sg1545
I0
sg1537
I0
sg1543
I0
sg1544
I0
sg1541
I0
sg1546
I0
sg1542
I0
sg1548
I0
sg1549
I0
sg1550
I0
sg1551
I0
ssg100
(dp1630
sg120
I0
sg121
g31
sg122
I0
sg123
I0
sg124
F0.0
sg125
I0
sg126
I0
sg127
I0
sg128
(dp1631
g1537
I6
sg1538
I5
sg1539
I7
sg1540
I12
sg1545
I8
sg1543
I8
sg1542
I8
sg1544
I7
sg1541
I4
sg1546
I7
sg1547
I8
sg1548
I7
sg1549
I8
sg1550
I10
sg1551
I5
ssg129
I0
sg130
I0
sg131
I0
sg132
I0
sg133
I0
sg134
I0
sg135
I0
sg136
g31
sbsS's11'
p1632
(ijoueur
joueur
p1633
(dp1634
g27
I0
sg28
I0
sg29
I0
sg32
I0
sg34
g0
(g35
g2
Ntp1635
Rp1636
(dp1637
g40
g31
sbsg44
(dp1638
g1521
I0
sg1522
I0
sg1523
I0
sg1524
I0
ssg50
(dp1639
g1521
I0
sg1522
I0
sg1523
I0
sg1524
I0
ssg52
I0
sg53
g31
sg54
I0
sg55
I0
sg56
I0
sg57
I0
sg78
g1620
sg60
I00
sg61
g0
(g35
g2
Ntp1640
Rp1641
(dp1642
g40
g31
sbsg62
(dp1643
g1521
I0
sg1522
I0
sg1523
I0
sg1524
I0
ssg64
(dp1644
g1521
I0
sg1522
I0
sg1523
I0
sg1524
I0
ssg66
(dp1645
g1521
I0
sg1522
I0
sg1523
I0
sg1524
I0
ssg68
(dp1646
g1521
I0
sg1522
I0
sg1523
I0
sg1524
I0
ssg70
I0
sg71
I0
sg72
S'Wignik (11)'
p1647
sg74
I0
sg75
I0
sg76
I00
sg77
I0
sg58
g31
sg83
(dp1648
g1547
I0
sg1538
I0
sg1539
I0
sg1540
I0
sg1545
I0
sg1537
I0
sg1543
I0
sg1544
I0
sg1541
I0
sg1546
I0
sg1542
I0
sg1548
I0
sg1549
I0
sg1550
I0
sg1551
I0
ssg100
(dp1649
sg120
I0
sg121
g31
sg122
I0
sg123
I0
sg124
F0.0
sg125
I0
sg126
I0
sg127
I0
sg128
g1631
sg129
I0
sg130
I0
sg131
I0
sg132
I0
sg133
I0
sg134
I0
sg135
I0
sg136
g31
sbssg120
I0
sg121
g31
sg122
I0
sg123
I0
sg124
F8.454545454545455
sg125
I0
sg126
I0
sg127
I0
sg128
g1631
sg129
I0
sg130
I0
sg131
I0
sg132
I0
sg133
I1
sg134
I0
sg135
I0
sg136
g1591
sbsS'cap'
p1650
(ijoueur
joueur
p1651
(dp1652
g27
I0
sg28
I0
sg29
I0
sg30
g31
sg32
I0
sg33
g31
sg34
g0
(g35
g2
Ntp1653
Rp1654
(dp1655
g39
I4
sg40
S'*'
p1656
sg42
S'heros'
p1657
sbsg44
(dp1658
g1521
I0
sg1522
I0
sg1523
I0
sg1524
I0
ssg50
(dp1659
g1521
I0
sg1522
I0
sg1523
I0
sg1524
I0
ssg52
I13
sg53
g31
sg54
I0
sg55
I0
sg56
I0
sg57
I0
sg58
g1526
sg60
I00
sg61
g1654
sg62
(dp1660
g1521
I0
sg1522
I0
sg1523
I0
sg1524
I0
ssg64
(dp1661
g1521
I0
sg1522
I0
sg1523
I0
sg1524
I0
ssg66
(dp1662
g1521
I0
sg1522
I0
sg1523
I0
sg1524
I0
ssg68
(dp1663
g1521
I0
sg1522
I0
sg1523
I0
sg1524
I0
ssg70
I0
sg71
I0
sg72
S'Amdril'
p1664
sg74
I4
sg75
I0
sg76
I00
sg77
I114
sg78
(g1532
g1607
g31
g31
tp1665
sg82
g31
sg83
(dp1666
g1537
I8
sg1538
I4
sg1539
I8
sg1540
I13
sg1541
I6
sg1542
I7
sg1543
I8
sg1544
I10
sg1545
I10
sg1546
I7
sg1547
I11
sg1548
I8
sg1549
I9
sg1550
I10
sg1551
I6
ssg100
(dp1667
S's12'
p1668
(ijoueur
joueur
p1669
(dp1670
g27
I0
sg28
I0
sg29
I0
sg32
I0
sg34
g0
(g35
g2
Ntp1671
Rp1672
(dp1673
g40
g31
sbsg44
(dp1674
g1521
I0
sg1522
I0
sg1523
I0
sg1524
I0
ssg50
(dp1675
g1521
I0
sg1522
I0
sg1523
I0
sg1524
I0
ssg52
I0
sg53
g31
sg54
I0
sg55
I0
sg56
I0
sg57
I0
sg78
(g1532
g1607
g31
g31
tp1676
sg60
I00
sg61
g0
(g35
g2
Ntp1677
Rp1678
(dp1679
g40
g31
sbsg62
(dp1680
g1521
I0
sg1522
I0
sg1523
I0
sg1524
I0
ssg64
(dp1681
g1521
I0
sg1522
I0
sg1523
I0
sg1524
I0
ssg66
(dp1682
g1521
I0
sg1522
I0
sg1523
I0
sg1524
I0
ssg68
(dp1683
g1521
I0
sg1522
I0
sg1523
I0
sg1524
I0
ssg70
I0
sg71
I0
sg72
S'Amdril (12)'
p1684
sg74
I0
sg75
I0
sg76
I00
sg77
I0
sg58
g31
sg83
(dp1685
g1547
I0
sg1538
I0
sg1539
I0
sg1540
I0
sg1545
I0
sg1537
I0
sg1543
I0
sg1544
I0
sg1541
I0
sg1546
I0
sg1542
I0
sg1548
I0
sg1549
I0
sg1550
I0
sg1551
I0
ssg100
(dp1686
sg120
I0
sg121
g31
sg122
I0
sg123
I0
sg124
F0.0
sg125
I0
sg126
I0
sg127
I0
sg128
(dp1687
g1537
I8
sg1538
I4
sg1539
I8
sg1540
I13
sg1545
I10
sg1543
I8
sg1542
I7
sg1544
I10
sg1541
I6
sg1546
I7
sg1547
I11
sg1548
I8
sg1549
I9
sg1550
I10
sg1551
I6
ssg129
I0
sg130
I0
sg131
I0
sg132
I0
sg133
I0
sg134
I0
sg135
I0
sg136
g31
sbsS's11'
p1688
(ijoueur
joueur
p1689
(dp1690
g27
I0
sg28
I0
sg29
I0
sg32
I0
sg34
g0
(g35
g2
Ntp1691
Rp1692
(dp1693
g40
g31
sbsg44
(dp1694
g1521
I0
sg1522
I0
sg1523
I0
sg1524
I0
ssg50
(dp1695
g1521
I0
sg1522
I0
sg1523
I0
sg1524
I0
ssg52
I0
sg53
g31
sg54
I0
sg55
I0
sg56
I0
sg57
I0
sg78
g1676
sg60
I00
sg61
g0
(g35
g2
Ntp1696
Rp1697
(dp1698
g40
g31
sbsg62
(dp1699
g1521
I0
sg1522
I0
sg1523
I0
sg1524
I0
ssg64
(dp1700
g1521
I0
sg1522
I0
sg1523
I0
sg1524
I0
ssg66
(dp1701
g1521
I0
sg1522
I0
sg1523
I0
sg1524
I0
ssg68
(dp1702
g1521
I0
sg1522
I0
sg1523
I0
sg1524
I0
ssg70
I0
sg71
I0
sg72
S'Amdril (11)'
p1703
sg74
I0
sg75
I0
sg76
I00
sg77
I0
sg58
g31
sg83
(dp1704
g1547
I0
sg1538
I0
sg1539
I0
sg1540
I0
sg1545
I0
sg1537
I0
sg1543
I0
sg1544
I0
sg1541
I0
sg1546
I0
sg1542
I0
sg1548
I0
sg1549
I0
sg1550
I0
sg1551
I0
ssg100
(dp1705
sg120
I0
sg121
g31
sg122
I0
sg123
I0
sg124
F0.0
sg125
I0
sg126
I0
sg127
I0
sg128
g1687
sg129
I0
sg130
I0
sg131
I0
sg132
I0
sg133
I0
sg134
I0
sg135
I0
sg136
g31
sbssg120
I0
sg121
g31
sg122
I0
sg123
I0
sg124
F9.363636363636363
sg125
I0
sg126
I0
sg127
I0
sg128
g1687
sg129
I0
sg130
I0
sg131
I0
sg132
I0
sg133
I11
sg134
I0
sg135
I0
sg136
g1591
sbsS'SA_pcp2'
p1706
(ijoueur
joueur
p1707
(dp1708
g27
I0
sg28
I0
sg29
I0
sg30
g31
sg32
I0
sg33
g31
sg34
g0
(g35
g2
Ntp1709
Rp1710
(dp1711
g39
I5
sg40
g1518
sg42
g1519
sbsg44
(dp1712
g1521
I0
sg1522
I0
sg1523
I0
sg1524
I0
ssg50
(dp1713
g1521
I0
sg1522
I0
sg1523
I0
sg1524
I0
ssg52
I13
sg53
g31
sg54
I0
sg55
I0
sg56
I0
sg57
I0
sg58
g1526
sg60
I00
sg61
g1710
sg62
(dp1714
g1521
I0
sg1522
I0
sg1523
I0
sg1524
I0
ssg64
(dp1715
g1521
I0
sg1522
I0
sg1523
I0
sg1524
I0
ssg66
(dp1716
g1521
I0
sg1522
I0
sg1523
I0
sg1524
I0
ssg68
(dp1717
g1521
I0
sg1522
I0
sg1523
I0
sg1524
I0
ssg70
I0
sg71
I0
sg72
S'Govogn'
p1718
sg74
I5
sg75
I0
sg76
I00
sg77
I280
sg78
(g1532
S'TL'
p1719
S'N8'
p1720
S'DL'
p1721
tp1722
sg82
g31
sg83
(dp1723
g1537
I10
sg1538
I8
sg1539
I8
sg1540
I11
sg1541
I9
sg1542
I7
sg1543
I5
sg1544
I11
sg1545
I6
sg1546
I8
sg1547
I9
sg1548
I8
sg1549
I5
sg1550
I12
sg1551
I6
ssg100
(dp1724
S's12'
p1725
(ijoueur
joueur
p1726
(dp1727
g27
I0
sg28
I0
sg29
I0
sg32
I0
sg34
g0
(g35
g2
Ntp1728
Rp1729
(dp1730
g40
g31
sbsg44
(dp1731
g1521
I0
sg1522
I0
sg1523
I0
sg1524
I0
ssg50
(dp1732
g1521
I0
sg1522
I0
sg1523
I0
sg1524
I0
ssg52
I0
sg53
g31
sg54
I0
sg55
I0
sg56
I0
sg57
I0
sg78
(g1532
g1719
g31
g31
tp1733
sg60
I00
sg61
g0
(g35
g2
Ntp1734
Rp1735
(dp1736
g40
g31
sbsg62
(dp1737
g1521
I0
sg1522
I0
sg1523
I0
sg1524
I0
ssg64
(dp1738
g1521
I0
sg1522
I0
sg1523
I0
sg1524
I0
ssg66
(dp1739
g1521
I0
sg1522
I0
sg1523
I0
sg1524
I0
ssg68
(dp1740
g1521
I0
sg1522
I0
sg1523
I0
sg1524
I0
ssg70
I0
sg71
I0
sg72
S'Govogn (12)'
p1741
sg74
I0
sg75
I0
sg76
I00
sg77
I0
sg58
g31
sg83
(dp1742
g1547
I0
sg1538
I0
sg1539
I0
sg1540
I0
sg1545
I0
sg1537
I0
sg1543
I0
sg1544
I0
sg1541
I0
sg1546
I0
sg1542
I0
sg1548
I0
sg1549
I0
sg1550
I0
sg1551
I0
ssg100
(dp1743
sg120
I0
sg121
g31
sg122
I0
sg123
I0
sg124
F0.0
sg125
I0
sg126
I0
sg127
I0
sg128
(dp1744
g1537
I10
sg1538
I8
sg1539
I8
sg1540
I11
sg1545
I6
sg1543
I5
sg1542
I7
sg1544
I11
sg1541
I9
sg1546
I8
sg1547
I9
sg1548
I8
sg1549
I5
sg1550
I12
sg1551
I6
ssg129
I0
sg130
I0
sg131
I0
sg132
I0
sg133
I0
sg134
I0
sg135
I0
sg136
g31
sbsS's11'
p1745
(ijoueur
joueur
p1746
(dp1747
g27
I0
sg28
I0
sg29
I0
sg32
I0
sg34
g0
(g35
g2
Ntp1748
Rp1749
(dp1750
g40
g31
sbsg44
(dp1751
g1521
I0
sg1522
I0
sg1523
I0
sg1524
I0
ssg50
(dp1752
g1521
I0
sg1522
I0
sg1523
I0
sg1524
I0
ssg52
I0
sg53
g31
sg54
I0
sg55
I0
sg56
I0
sg57
I0
sg78
g1733
sg60
I00
sg61
g0
(g35
g2
Ntp1753
Rp1754
(dp1755
g40
g31
sbsg62
(dp1756
g1521
I0
sg1522
I0
sg1523
I0
sg1524
I0
ssg64
(dp1757
g1521
I0
sg1522
I0
sg1523
I0
sg1524
I0
ssg66
(dp1758
g1521
I0
sg1522
I0
sg1523
I0
sg1524
I0
ssg68
(dp1759
g1521
I0
sg1522
I0
sg1523
I0
sg1524
I0
ssg70
I0
sg71
I0
sg72
S'Govogn (11)'
p1760
sg74
I0
sg75
I0
sg76
I00
sg77
I0
sg58
g31
sg83
(dp1761
g1547
I0
sg1538
I0
sg1539
I0
sg1540
I0
sg1545
I0
sg1537
I0
sg1543
I0
sg1544
I0
sg1541
I0
sg1546
I0
sg1542
I0
sg1548
I0
sg1549
I0
sg1550
I0
sg1551
I0
ssg100
(dp1762
sg120
I0
sg121
g31
sg122
I0
sg123
I0
sg124
F0.0
sg125
I0
sg126
I0
sg127
I0
sg128
g1744
sg129
I0
sg130
I0
sg131
I0
sg132
I0
sg133
I0
sg134
I0
sg135
I0
sg136
g31
sbssg120
I0
sg121
g31
sg122
I0
sg123
I0
sg124
F9.580645161290322
sg125
I0
sg126
I0
sg127
I0
sg128
g1744
sg129
I0
sg130
I0
sg131
I0
sg132
I0
sg133
I28
sg134
I0
sg135
I0
sg136
g1591
sbsS'B4'
p1763
g1651
sS'RJC'
p1764
g1651
sS'B1'
p1765
g1651
sS'B2'
p1766
g1651
sS'B3'
p1767
g1651
sS'drop1'
p1768
(ijoueur
joueur
p1769
(dp1770
g27
I0
sg28
I0
sg29
I0
sg30
g31
sg32
I0
sg33
g31
sg34
g0
(g35
g2
Ntp1771
Rp1772
(dp1773
g39
I4
sg40
S'x'
p1774
sg42
g1657
sbsg44
(dp1775
g1521
I0
sg1522
I0
sg1523
I0
sg1524
I0
ssg50
(dp1776
g1521
I0
sg1522
I0
sg1523
I0
sg1524
I0
ssg52
I23
sg53
g31
sg54
I0
sg55
I0
sg56
I0
sg57
I0
sg58
g1526
sg60
I00
sg61
g0
(g35
g2
Ntp1777
Rp1778
(dp1779
g39
I1
sg40
S'<'
p1780
sg42
S'base'
p1781
sbsg62
(dp1782
g1521
I0
sg1522
I0
sg1523
I0
sg1524
I0
ssg64
(dp1783
g1521
I0
sg1522
I0
sg1523
I0
sg1524
I0
ssg66
(dp1784
g1521
I0
sg1522
I0
sg1523
I0
sg1524
I0
ssg68
(dp1785
g1521
I0
sg1522
I0
sg1523
I0
sg1524
I0
ssg70
I0
sg71
I0
sg72
S'Draskel'
p1786
sg74
I13
sg75
I0
sg76
I00
sg77
I16
sg78
(g1532
S'C2'
p1787
g31
g31
tp1788
sg82
g31
sg83
(dp1789
g1537
I8
sg1538
I5
sg1539
I7
sg1540
I12
sg1541
I4
sg1542
I8
sg1543
I7
sg1544
I9
sg1545
I7
sg1546
I8
sg1547
I7
sg1548
I9
sg1549
I6
sg1550
I8
sg1551
I2
ssg100
(dp1790
sg120
I0
sg121
g31
sg122
I0
sg123
I0
sg124
F8.586206896551724
sg125
I0
sg126
I0
sg127
I0
sg128
(dp1791
g1537
I8
sg1538
I5
sg1539
I7
sg1540
I12
sg1545
I7
sg1543
I7
sg1542
I8
sg1544
I9
sg1541
I4
sg1546
I8
sg1547
I7
sg1548
I9
sg1549
I6
sg1550
I8
sg1551
I2
ssg129
I0
sg130
I0
sg131
I0
sg132
I0
sg133
I1
sg134
I0
sg135
I0
sg136
g1591
sbsS'SA_pcp1'
p1792
(ijoueur
joueur
p1793
(dp1794
g27
I0
sg28
I0
sg29
I0
sg30
g31
sg32
I0
sg33
g31
sg34
g0
(g35
g2
Ntp1795
Rp1796
(dp1797
g39
I5
sg40
g1518
sg42
g1519
sbsg44
(dp1798
g1521
I0
sg1522
I0
sg1523
I0
sg1524
I0
ssg50
(dp1799
g1521
I0
sg1522
I0
sg1523
I0
sg1524
I0
ssg52
I21
sg53
g31
sg54
I0
sg55
I0
sg56
I0
sg57
I0
sg58
g1526
sg60
I00
sg61
g1796
sg62
(dp1800
g1521
I0
sg1522
I0
sg1523
I0
sg1524
I0
ssg64
(dp1801
g1521
I0
sg1522
I0
sg1523
I0
sg1524
I0
ssg66
(dp1802
g1521
I0
sg1522
I0
sg1523
I0
sg1524
I0
ssg68
(dp1803
g1521
I0
sg1522
I0
sg1523
I0
sg1524
I0
ssg70
I0
sg71
I0
sg72
S'Xatagnig'
p1804
sg74
I11
sg75
I0
sg76
I00
sg77
I252
sg78
(g1532
S'DL'
p1805
g31
g31
tp1806
sg82
g31
sg83
(dp1807
g1537
I10
sg1538
I8
sg1539
I7
sg1540
I12
sg1541
I10
sg1542
I7
sg1543
I4
sg1544
I10
sg1545
I4
sg1546
I8
sg1547
I8
sg1548
I7
sg1549
I3
sg1550
I12
sg1551
I4
ssg100
(dp1808
S's12'
p1809
(ijoueur
joueur
p1810
(dp1811
g27
I0
sg28
I0
sg29
I0
sg32
I0
sg34
g0
(g35
g2
Ntp1812
Rp1813
(dp1814
g40
g31
sbsg44
(dp1815
g1521
I0
sg1522
I0
sg1523
I0
sg1524
I0
ssg50
(dp1816
g1521
I0
sg1522
I0
sg1523
I0
sg1524
I0
ssg52
I0
sg53
g31
sg54
I0
sg55
I0
sg56
I0
sg57
I0
sg78
(g1532
g1805
g31
g31
tp1817
sg60
I00
sg61
g0
(g35
g2
Ntp1818
Rp1819
(dp1820
g40
g31
sbsg62
(dp1821
g1521
I0
sg1522
I0
sg1523
I0
sg1524
I0
ssg64
(dp1822
g1521
I0
sg1522
I0
sg1523
I0
sg1524
I0
ssg66
(dp1823
g1521
I0
sg1522
I0
sg1523
I0
sg1524
I0
ssg68
(dp1824
g1521
I0
sg1522
I0
sg1523
I0
sg1524
I0
ssg70
I0
sg71
I0
sg72
S'Xatagnig (12)'
p1825
sg74
I0
sg75
I0
sg76
I00
sg77
I0
sg58
g31
sg83
(dp1826
g1547
I0
sg1538
I0
sg1539
I0
sg1540
I0
sg1545
I0
sg1537
I0
sg1543
I0
sg1544
I0
sg1541
I0
sg1546
I0
sg1542
I0
sg1548
I0
sg1549
I0
sg1550
I0
sg1551
I0
ssg100
(dp1827
sg120
I0
sg121
g31
sg122
I0
sg123
I0
sg124
F0.0
sg125
I0
sg126
I0
sg127
I0
sg128
(dp1828
g1537
I10
sg1538
I8
sg1539
I7
sg1540
I12
sg1545
I4
sg1543
I4
sg1542
I7
sg1544
I10
sg1541
I10
sg1546
I8
sg1547
I8
sg1548
I7
sg1549
I3
sg1550
I12
sg1551
I4
ssg129
I0
sg130
I0
sg131
I0
sg132
I0
sg133
I0
sg134
I0
sg135
I0
sg136
g31
sbsS's11'
p1829
(ijoueur
joueur
p1830
(dp1831
g27
I0
sg28
I0
sg29
I0
sg32
I0
sg34
g0
(g35
g2
Ntp1832
Rp1833
(dp1834
g40
g31
sbsg44
(dp1835
g1521
I0
sg1522
I0
sg1523
I0
sg1524
I0
ssg50
(dp1836
g1521
I0
sg1522
I0
sg1523
I0
sg1524
I0
ssg52
I0
sg53
g31
sg54
I0
sg55
I0
sg56
I0
sg57
I0
sg78
g1817
sg60
I00
sg61
g0
(g35
g2
Ntp1837
Rp1838
(dp1839
g40
g31
sbsg62
(dp1840
g1521
I0
sg1522
I0
sg1523
I0
sg1524
I0
ssg64
(dp1841
g1521
I0
sg1522
I0
sg1523
I0
sg1524
I0
ssg66
(dp1842
g1521
I0
sg1522
I0
sg1523
I0
sg1524
I0
ssg68
(dp1843
g1521
I0
sg1522
I0
sg1523
I0
sg1524
I0
ssg70
I0
sg71
I0
sg72
S'Xatagnig (11)'
p1844
sg74
I0
sg75
I0
sg76
I00
sg77
I0
sg58
g31
sg83
(dp1845
g1547
I0
sg1538
I0
sg1539
I0
sg1540
I0
sg1545
I0
sg1537
I0
sg1543
I0
sg1544
I0
sg1541
I0
sg1546
I0
sg1542
I0
sg1548
I0
sg1549
I0
sg1550
I0
sg1551
I0
ssg100
(dp1846
sg120
I0
sg121
g31
sg122
I0
sg123
I0
sg124
F0.0
sg125
I0
sg126
I0
sg127
I0
sg128
g1828
sg129
I0
sg130
I0
sg131
I0
sg132
I0
sg133
I0
sg134
I0
sg135
I0
sg136
g31
sbssg120
I0
sg121
g31
sg122
I0
sg123
I0
sg124
F9.352941176470589
sg125
I0
sg126
I0
sg127
I0
sg128
g1828
sg129
I0
sg130
I0
sg131
I0
sg132
I0
sg133
I25
sg134
I0
sg135
I0
sg136
g1591
sbsS'RJL'
p1847
g1651
sS'SA_remp1'
p1848
(ijoueur
joueur
p1849
(dp1850
g27
I0
sg28
I0
sg29
I0
sg30
g31
sg32
I0
sg33
g31
sg34
g0
(g35
g2
Ntp1851
Rp1852
(dp1853
g39
I4
sg40
g1656
sg42
g1657
sbsg44
(dp1854
g1521
I0
sg1522
I0
sg1523
I0
sg1524
I0
ssg50
(dp1855
g1521
I0
sg1522
I0
sg1523
I0
sg1524
I0
ssg52
I15
sg53
g31
sg54
I0
sg55
I0
sg56
I0
sg57
I0
sg58
g1526
sg60
I00
sg61
g1852
sg62
(dp1856
g1521
I0
sg1522
I0
sg1523
I0
sg1524
I0
ssg64
(dp1857
g1521
I0
sg1522
I0
sg1523
I0
sg1524
I0
ssg66
(dp1858
g1521
I0
sg1522
I0
sg1523
I0
sg1524
I0
ssg68
(dp1859
g1521
I0
sg1522
I0
sg1523
I0
sg1524
I0
ssg70
I0
sg71
I0
sg72
S'Yskonoer'
p1860
sg74
I6
sg75
I0
sg76
I00
sg77
I96
sg78
(g1532
g1805
S'TL'
p1861
g31
tp1862
sg82
g31
sg83
(dp1863
g1537
I8
sg1538
I8
sg1539
I7
sg1540
I11
sg1541
I8
sg1542
I7
sg1543
I3
sg1544
I9
sg1545
I4
sg1546
I9
sg1547
I8
sg1548
I10
sg1549
I5
sg1550
I11
sg1551
I4
ssg100
(dp1864
S's12'
p1865
(ijoueur
joueur
p1866
(dp1867
g27
I0
sg28
I0
sg29
I0
sg32
I0
sg34
g0
(g35
g2
Ntp1868
Rp1869
(dp1870
g40
g31
sbsg44
(dp1871
g1521
I0
sg1522
I0
sg1523
I0
sg1524
I0
ssg50
(dp1872
g1521
I0
sg1522
I0
sg1523
I0
sg1524
I0
ssg52
I0
sg53
g31
sg54
I0
sg55
I0
sg56
I0
sg57
I0
sg78
(g1532
g1805
g31
g31
tp1873
sg60
I00
sg61
g0
(g35
g2
Ntp1874
Rp1875
(dp1876
g40
g31
sbsg62
(dp1877
g1521
I0
sg1522
I0
sg1523
I0
sg1524
I0
ssg64
(dp1878
g1521
I0
sg1522
I0
sg1523
I0
sg1524
I0
ssg66
(dp1879
g1521
I0
sg1522
I0
sg1523
I0
sg1524
I0
ssg68
(dp1880
g1521
I0
sg1522
I0
sg1523
I0
sg1524
I0
ssg70
I0
sg71
I0
sg72
S'Yskonoer (12)'
p1881
sg74
I0
sg75
I0
sg76
I00
sg77
I0
sg58
g31
sg83
(dp1882
g1547
I0
sg1538
I0
sg1539
I0
sg1540
I0
sg1545
I0
sg1537
I0
sg1543
I0
sg1544
I0
sg1541
I0
sg1546
I0
sg1542
I0
sg1548
I0
sg1549
I0
sg1550
I0
sg1551
I0
ssg100
(dp1883
sg120
I0
sg121
g31
sg122
I0
sg123
I0
sg124
F0.0
sg125
I0
sg126
I0
sg127
I0
sg128
(dp1884
g1537
I8
sg1538
I8
sg1539
I7
sg1540
I11
sg1545
I4
sg1543
I3
sg1542
I7
sg1544
I9
sg1541
I8
sg1546
I9
sg1547
I8
sg1548
I10
sg1549
I5
sg1550
I11
sg1551
I4
ssg129
I0
sg130
I0
sg131
I0
sg132
I0
sg133
I0
sg134
I0
sg135
I0
sg136
g31
sbsS's11'
p1885
(ijoueur
joueur
p1886
(dp1887
g27
I0
sg28
I0
sg29
I0
sg32
I0
sg34
g0
(g35
g2
Ntp1888
Rp1889
(dp1890
g40
g31
sbsg44
(dp1891
g1521
I0
sg1522
I0
sg1523
I0
sg1524
I0
ssg50
(dp1892
g1521
I0
sg1522
I0
sg1523
I0
sg1524
I0
ssg52
I0
sg53
g31
sg54
I0
sg55
I0
sg56
I0
sg57
I0
sg78
g1873
sg60
I00
sg61
g0
(g35
g2
Ntp1893
Rp1894
(dp1895
g40
g31
sbsg62
(dp1896
g1521
I0
sg1522
I0
sg1523
I0
sg1524
I0
ssg64
(dp1897
g1521
I0
sg1522
I0
sg1523
I0
sg1524
I0
ssg66
(dp1898
g1521
I0
sg1522
I0
sg1523
I0
sg1524
I0
ssg68
(dp1899
g1521
I0
sg1522
I0
sg1523
I0
sg1524
I0
ssg70
I0
sg71
I0
sg72
S'Yskonoer (11)'
p1900
sg74
I0
sg75
I0
sg76
I00
sg77
I0
sg58
g31
sg83
(dp1901
g1547
I0
sg1538
I0
sg1539
I0
sg1540
I0
sg1545
I0
sg1537
I0
sg1543
I0
sg1544
I0
sg1541
I0
sg1546
I0
sg1542
I0
sg1548
I0
sg1549
I0
sg1550
I0
sg1551
I0
ssg100
(dp1902
sg120
I0
sg121
g31
sg122
I0
sg123
I0
sg124
F0.0
sg125
I0
sg126
I0
sg127
I0
sg128
g1884
sg129
I0
sg130
I0
sg131
I0
sg132
I0
sg133
I0
sg134
I0
sg135
I0
sg136
g31
sbssg120
I0
sg121
g31
sg122
I0
sg123
I0
sg124
F9.555555555555555
sg125
I0
sg126
I0
sg127
I0
sg128
g1884
sg129
I0
sg130
I0
sg131
I0
sg132
I0
sg133
I9
sg134
I0
sg135
I0
sg136
g1591
sbsS'drop2'
p1903
g1651
sS'SA_remp2'
p1904
(ijoueur
joueur
p1905
(dp1906
g27
I0
sg28
I0
sg29
I0
sg30
g31
sg32
I0
sg33
g31
sg34
g0
(g35
g2
Ntp1907
Rp1908
(dp1909
g39
I1
sg40
S'^'
p1910
sg42
g1781
sbsg44
(dp1911
g1521
I0
sg1522
I0
sg1523
I0
sg1524
I0
ssg50
(dp1912
g1521
I0
sg1522
I0
sg1523
I0
sg1524
I0
ssg52
I21
sg53
g31
sg54
I0
sg55
I0
sg56
I0
sg57
I0
sg58
g1526
sg60
I00
sg61
g1908
sg62
(dp1913
g1521
I0
sg1522
I0
sg1523
I0
sg1524
I0
ssg64
(dp1914
g1521
I0
sg1522
I0
sg1523
I0
sg1524
I0
ssg66
(dp1915
g1521
I0
sg1522
I0
sg1523
I0
sg1524
I0
ssg68
(dp1916
g1521
I0
sg1522
I0
sg1523
I0
sg1524
I0
ssg70
I0
sg71
I0
sg72
S'Throed'
p1917
sg74
I11
sg75
I0
sg76
I00
sg77
I20
sg78
(g1532
g1805
S'PI'
p1918
g31
tp1919
sg82
g31
sg83
(dp1920
g1537
I6
sg1538
I10
sg1539
I6
sg1540
I10
sg1541
I8
sg1542
I8
sg1543
I3
sg1544
I7
sg1545
I3
sg1546
I7
sg1547
I8
sg1548
I10
sg1549
I1
sg1550
I10
sg1551
I4
ssg100
(dp1921
S's12'
p1922
(ijoueur
joueur
p1923
(dp1924
g27
I0
sg28
I0
sg29
I0
sg32
I0
sg34
g0
(g35
g2
Ntp1925
Rp1926
(dp1927
g40
g31
sbsg44
(dp1928
g1521
I0
sg1522
I0
sg1523
I0
sg1524
I0
ssg50
(dp1929
g1521
I0
sg1522
I0
sg1523
I0
sg1524
I0
ssg52
I0
sg53
g31
sg54
I0
sg55
I0
sg56
I0
sg57
I0
sg78
(g1532
g1805
g31
g31
tp1930
sg60
I00
sg61
g0
(g35
g2
Ntp1931
Rp1932
(dp1933
g40
g31
sbsg62
(dp1934
g1521
I0
sg1522
I0
sg1523
I0
sg1524
I0
ssg64
(dp1935
g1521
I0
sg1522
I0
sg1523
I0
sg1524
I0
ssg66
(dp1936
g1521
I0
sg1522
I0
sg1523
I0
sg1524
I0
ssg68
(dp1937
g1521
I0
sg1522
I0
sg1523
I0
sg1524
I0
ssg70
I0
sg71
I0
sg72
S'Throed (12)'
p1938
sg74
I0
sg75
I0
sg76
I00
sg77
I0
sg58
g31
sg83
(dp1939
g1547
I0
sg1538
I0
sg1539
I0
sg1540
I0
sg1545
I0
sg1537
I0
sg1543
I0
sg1544
I0
sg1541
I0
sg1546
I0
sg1542
I0
sg1548
I0
sg1549
I0
sg1550
I0
sg1551
I0
ssg100
(dp1940
sg120
I0
sg121
g31
sg122
I0
sg123
I0
sg124
F0.0
sg125
I0
sg126
I0
sg127
I0
sg128
(dp1941
g1537
I6
sg1538
I10
sg1539
I6
sg1540
I10
sg1545
I3
sg1543
I3
sg1542
I8
sg1544
I7
sg1541
I8
sg1546
I7
sg1547
I8
sg1548
I10
sg1549
I1
sg1550
I10
sg1551
I4
ssg129
I0
sg130
I0
sg131
I0
sg132
I0
sg133
I0
sg134
I0
sg135
I0
sg136
g31
sbsS's11'
p1942
(ijoueur
joueur
p1943
(dp1944
g27
I0
sg28
I0
sg29
I0
sg32
I0
sg34
g0
(g35
g2
Ntp1945
Rp1946
(dp1947
g40
g31
sbsg44
(dp1948
g1521
I0
sg1522
I0
sg1523
I0
sg1524
I0
ssg50
(dp1949
g1521
I0
sg1522
I0
sg1523
I0
sg1524
I0
ssg52
I0
sg53
g31
sg54
I0
sg55
I0
sg56
I0
sg57
I0
sg78
g1930
sg60
I00
sg61
g0
(g35
g2
Ntp1950
Rp1951
(dp1952
g40
g31
sbsg62
(dp1953
g1521
I0
sg1522
I0
sg1523
I0
sg1524
I0
ssg64
(dp1954
g1521
I0
sg1522
I0
sg1523
I0
sg1524
I0
ssg66
(dp1955
g1521
I0
sg1522
I0
sg1523
I0
sg1524
I0
ssg68
(dp1956
g1521
I0
sg1522
I0
sg1523
I0
sg1524
I0
ssg70
I0
sg71
I0
sg72
S'Throed (11)'
p1957
sg74
I0
sg75
I0
sg76
I00
sg77
I0
sg58
g31
sg83
(dp1958
g1547
I0
sg1538
I0
sg1539
I0
sg1540
I0
sg1545
I0
sg1537
I0
sg1543
I0
sg1544
I0
sg1541
I0
sg1546
I0
sg1542
I0
sg1548
I0
sg1549
I0
sg1550
I0
sg1551
I0
ssg100
(dp1959
sg120
I0
sg121
g31
sg122
I0
sg123
I0
sg124
F0.0
sg125
I0
sg126
I0
sg127
I0
sg128
g1941
sg129
I0
sg130
I0
sg131
I0
sg132
I0
sg133
I0
sg134
I0
sg135
I0
sg136
g31
sbssg120
I0
sg121
g31
sg122
I0
sg123
I0
sg124
F9.222222222222221
sg125
I0
sg126
I0
sg127
I0
sg128
g1941
sg129
I0
sg130
I0
sg131
I0
sg132
I0
sg133
I2
sg134
I0
sg135
I0
sg136
g1591
sbssS'totaux'
p1960
(dp1961
g1507
I0
sg1508
I0
sg1509
I0
ssg9
Nsg83
(dp1962
g1492
I0
sg1493
I0
sg1494
I0
sg1495
I0
sg1496
I0
sg1497
I0
sg1498
I0
sg1499
I0
sg1500
I0
sg1501
I0
sg1502
I0
sg1503
I0
sg1504
I0
ssg21
(dp1963
S'n12'
p1964
(ijoueur
joueur
p1965
(dp1966
g27
I0
sg28
I0
sg29
I0
sg30
g31
sg32
I0
sg33
g31
sg34
g0
(g35
g2
Ntp1967
Rp1968
(dp1969
g39
I1
sg40
S'>'
p1970
sg42
g1781
sbsg44
(dp1971
g1521
I0
sg1522
I0
sg1523
I0
sg1524
I0
ssg50
(dp1972
g1521
I0
sg1522
I0
sg1523
I0
sg1524
I0
ssg52
I20
sg53
g31
sg54
I0
sg55
I0
sg56
I0
sg57
I0
sg58
g1526
sg60
I00
sg61
g1968
sg62
(dp1973
g1521
I0
sg1522
I0
sg1523
I0
sg1524
I0
ssg64
(dp1974
g1521
I0
sg1522
I0
sg1523
I0
sg1524
I0
ssg66
(dp1975
g1521
I0
sg1522
I0
sg1523
I0
sg1524
I0
ssg68
(dp1976
g1521
I0
sg1522
I0
sg1523
I0
sg1524
I0
ssg70
I0
sg71
I0
sg72
S'Ymchael'
p1977
sg74
I8
sg75
I0
sg76
I00
sg77
I16
sg78
(g1532
S'C2'
p1978
g31
g31
tp1979
sg82
g31
sg83
(dp1980
g1537
I7
sg1538
I3
sg1539
I7
sg1540
I8
sg1541
I5
sg1542
I12
sg1543
I6
sg1544
I8
sg1545
I8
sg1546
I9
sg1547
I9
sg1548
I8
sg1549
I5
sg1550
I8
sg1551
I4
ssg100
(dp1981
S's12'
p1982
(ijoueur
joueur
p1983
(dp1984
g27
I0
sg28
I0
sg29
I0
sg32
I0
sg34
g0
(g35
g2
Ntp1985
Rp1986
(dp1987
g40
g31
sbsg44
(dp1988
g1521
I0
sg1522
I0
sg1523
I0
sg1524
I0
ssg50
(dp1989
g1521
I0
sg1522
I0
sg1523
I0
sg1524
I0
ssg52
I0
sg53
g31
sg54
I0
sg55
I0
sg56
I0
sg57
I0
sg78
(g1532
S'CE'
p1990
g31
g31
tp1991
sg60
I00
sg61
g0
(g35
g2
Ntp1992
Rp1993
(dp1994
g40
g31
sbsg62
(dp1995
g1521
I0
sg1522
I0
sg1523
I0
sg1524
I0
ssg64
(dp1996
g1521
I0
sg1522
I0
sg1523
I0
sg1524
I0
ssg66
(dp1997
g1521
I0
sg1522
I0
sg1523
I0
sg1524
I0
ssg68
(dp1998
g1521
I0
sg1522
I0
sg1523
I0
sg1524
I0
ssg70
I0
sg71
I0
sg72
S'Ymchael (12)'
p1999
sg74
I0
sg75
I0
sg76
I00
sg77
I0
sg58
g31
sg83
(dp2000
g1547
I0
sg1538
I0
sg1539
I0
sg1540
I0
sg1545
I0
sg1537
I0
sg1543
I0
sg1544
I0
sg1541
I0
sg1546
I0
sg1542
I0
sg1548
I0
sg1549
I0
sg1550
I0
sg1551
I0
ssg100
(dp2001
sg120
I0
sg121
g31
sg122
I0
sg123
I0
sg124
F0.0
sg125
I0
sg126
I0
sg127
I0
sg128
(dp2002
g1537
I7
sg1538
I3
sg1539
I7
sg1540
I8
sg1545
I8
sg1543
I6
sg1542
I12
sg1544
I8
sg1541
I5
sg1546
I9
sg1547
I9
sg1548
I8
sg1549
I5
sg1550
I8
sg1551
I4
ssg129
I0
sg130
I0
sg131
I0
sg132
I0
sg133
I0
sg134
I0
sg135
I0
sg136
g31
sbsS's11'
p2003
(ijoueur
joueur
p2004
(dp2005
g27
I0
sg28
I0
sg29
I0
sg32
I0
sg34
g0
(g35
g2
Ntp2006
Rp2007
(dp2008
g40
g31
sbsg44
(dp2009
g1521
I0
sg1522
I0
sg1523
I0
sg1524
I0
ssg50
(dp2010
g1521
I0
sg1522
I0
sg1523
I0
sg1524
I0
ssg52
I0
sg53
g31
sg54
I0
sg55
I0
sg56
I0
sg57
I0
sg78
g1991
sg60
I00
sg61
g0
(g35
g2
Ntp2011
Rp2012
(dp2013
g40
g31
sbsg62
(dp2014
g1521
I0
sg1522
I0
sg1523
I0
sg1524
I0
ssg64
(dp2015
g1521
I0
sg1522
I0
sg1523
I0
sg1524
I0
ssg66
(dp2016
g1521
I0
sg1522
I0
sg1523
I0
sg1524
I0
ssg68
(dp2017
g1521
I0
sg1522
I0
sg1523
I0
sg1524
I0
ssg70
I0
sg71
I0
sg72
S'Ymchael (11)'
p2018
sg74
I0
sg75
I0
sg76
I00
sg77
I0
sg58
g31
sg83
(dp2019
g1547
I0
sg1538
I0
sg1539
I0
sg1540
I0
sg1545
I0
sg1537
I0
sg1543
I0
sg1544
I0
sg1541
I0
sg1546
I0
sg1542
I0
sg1548
I0
sg1549
I0
sg1550
I0
sg1551
I0
ssg100
(dp2020
sg120
I0
sg121
g31
sg122
I0
sg123
I0
sg124
F0.0
sg125
I0
sg126
I0
sg127
I0
sg128
g2002
sg129
I0
sg130
I0
sg131
I0
sg132
I0
sg133
I0
sg134
I0
sg135
I0
sg136
g31
sbssg120
I0
sg121
g31
sg122
I0
sg123
I0
sg124
F8.620689655172415
sg125
I0
sg126
I0
sg127
I0
sg128
g2002
sg129
I0
sg130
I0
sg131
I0
sg132
I0
sg133
I1
sg134
I0
sg135
I0
sg136
S'CHS'
p2021
sbsS'n13'
p2022
(ijoueur
joueur
p2023
(dp2024
g27
I0
sg28
I0
sg29
I0
sg30
g31
sg32
I0
sg33
g31
sg34
g0
(g35
g2
Ntp2025
Rp2026
(dp2027
g39
I1
sg40
g1780
sg42
g1781
sbsg44
(dp2028
g1521
I0
sg1522
I0
sg1523
I0
sg1524
I0
ssg50
(dp2029
g1521
I0
sg1522
I0
sg1523
I0
sg1524
I0
ssg52
I20
sg53
g31
sg54
I0
sg55
I0
sg56
I0
sg57
I0
sg58
g1526
sg60
I00
sg61
g2026
sg62
(dp2030
g1521
I0
sg1522
I0
sg1523
I0
sg1524
I0
ssg64
(dp2031
g1521
I0
sg1522
I0
sg1523
I0
sg1524
I0
ssg66
(dp2032
g1521
I0
sg1522
I0
sg1523
I0
sg1524
I0
ssg68
(dp2033
g1521
I0
sg1522
I0
sg1523
I0
sg1524
I0
ssg70
I0
sg71
I0
sg72
S'Aerkign'
p2034
sg74
I9
sg75
I0
sg76
I00
sg77
I10
sg78
(g1532
S'AR'
p2035
S'CE'
p2036
g31
tp2037
sg82
g31
sg83
(dp2038
g1537
I6
sg1538
I3
sg1539
I9
sg1540
I12
sg1541
I4
sg1542
I8
sg1543
I6
sg1544
I9
sg1545
I8
sg1546
I7
sg1547
I8
sg1548
I7
sg1549
I6
sg1550
I10
sg1551
I3
ssg100
(dp2039
S's12'
p2040
(ijoueur
joueur
p2041
(dp2042
g27
I0
sg28
I0
sg29
I0
sg32
I0
sg34
g0
(g35
g2
Ntp2043
Rp2044
(dp2045
g40
g31
sbsg44
(dp2046
g1521
I0
sg1522
I0
sg1523
I0
sg1524
I0
ssg50
(dp2047
g1521
I0
sg1522
I0
sg1523
I0
sg1524
I0
ssg52
I0
sg53
g31
sg54
I0
sg55
I0
sg56
I0
sg57
I0
sg78
(g1532
g2035
g31
g31
tp2048
sg60
I00
sg61
g0
(g35
g2
Ntp2049
Rp2050
(dp2051
g40
g31
sbsg62
(dp2052
g1521
I0
sg1522
I0
sg1523
I0
sg1524
I0
ssg64
(dp2053
g1521
I0
sg1522
I0
sg1523
I0
sg1524
I0
ssg66
(dp2054
g1521
I0
sg1522
I0
sg1523
I0
sg1524
I0
ssg68
(dp2055
g1521
I0
sg1522
I0
sg1523
I0
sg1524
I0
ssg70
I0
sg71
I0
sg72
S'Aerkign (12)'
p2056
sg74
I0
sg75
I0
sg76
I00
sg77
I0
sg58
g31
sg83
(dp2057
g1547
I0
sg1538
I0
sg1539
I0
sg1540
I0
sg1545
I0
sg1537
I0
sg1543
I0
sg1544
I0
sg1541
I0
sg1546
I0
sg1542
I0
sg1548
I0
sg1549
I0
sg1550
I0
sg1551
I0
ssg100
(dp2058
sg120
I0
sg121
g31
sg122
I0
sg123
I0
sg124
F0.0
sg125
I0
sg126
I0
sg127
I0
sg128
(dp2059
g1537
I6
sg1538
I3
sg1539
I9
sg1540
I12
sg1545
I8
sg1543
I6
sg1542
I8
sg1544
I9
sg1541
I4
sg1546
I7
sg1547
I8
sg1548
I7
sg1549
I6
sg1550
I10
sg1551
I3
ssg129
I0
sg130
I0
sg131
I0
sg132
I0
sg133
I0
sg134
I0
sg135
I0
sg136
g31
sbsS's11'
p2060
(ijoueur
joueur
p2061
(dp2062
g27
I0
sg28
I0
sg29
I0
sg32
I0
sg34
g0
(g35
g2
Ntp2063
Rp2064
(dp2065
g40
g31
sbsg44
(dp2066
g1521
I0
sg1522
I0
sg1523
I0
sg1524
I0
ssg50
(dp2067
g1521
I0
sg1522
I0
sg1523
I0
sg1524
I0
ssg52
I0
sg53
g31
sg54
I0
sg55
I0
sg56
I0
sg57
I0
sg78
g2048
sg60
I00
sg61
g0
(g35
g2
Ntp2068
Rp2069
(dp2070
g40
g31
sbsg62
(dp2071
g1521
I0
sg1522
I0
sg1523
I0
sg1524
I0
ssg64
(dp2072
g1521
I0
sg1522
I0
sg1523
I0
sg1524
I0
ssg66
(dp2073
g1521
I0
sg1522
I0
sg1523
I0
sg1524
I0
ssg68
(dp2074
g1521
I0
sg1522
I0
sg1523
I0
sg1524
I0
ssg70
I0
sg71
I0
sg72
S'Aerkign (11)'
p2075
sg74
I0
sg75
I0
sg76
I00
sg77
I0
sg58
g31
sg83
(dp2076
g1547
I0
sg1538
I0
sg1539
I0
sg1540
I0
sg1545
I0
sg1537
I0
sg1543
I0
sg1544
I0
sg1541
I0
sg1546
I0
sg1542
I0
sg1548
I0
sg1549
I0
sg1550
I0
sg1551
I0
ssg100
(dp2077
sg120
I0
sg121
g31
sg122
I0
sg123
I0
sg124
F0.0
sg125
I0
sg126
I0
sg127
I0
sg128
g2059
sg129
I0
sg130
I0
sg131
I0
sg132
I0
sg133
I0
sg134
I0
sg135
I0
sg136
g31
sbssg120
I0
sg121
g31
sg122
I0
sg123
I0
sg124
F8.757575757575758
sg125
I0
sg126
I0
sg127
I0
sg128
g2059
sg129
I0
sg130
I0
sg131
I0
sg132
I0
sg133
I1
sg134
I0
sg135
I0
sg136
g1591
sbsS'n10'
p2078
g1651
sS'n11'
p2079
(ijoueur
joueur
p2080
(dp2081
g27
I0
sg28
I0
sg29
I0
sg30
g31
sg32
I0
sg33
g31
sg34
g0
(g35
g2
Ntp2082
Rp2083
(dp2084
g39
I1
sg40
g1970
sg42
g1781
sbsg44
(dp2085
g1521
I0
sg1522
I0
sg1523
I0
sg1524
I0
ssg50
(dp2086
g1521
I0
sg1522
I0
sg1523
I0
sg1524
I0
ssg52
I21
sg53
g31
sg54
I0
sg55
I0
sg56
I0
sg57
I0
sg58
g1526
sg60
I00
sg61
g2083
sg62
(dp2087
g1521
I0
sg1522
I0
sg1523
I0
sg1524
I0
ssg64
(dp2088
g1521
I0
sg1522
I0
sg1523
I0
sg1524
I0
ssg66
(dp2089
g1521
I0
sg1522
I0
sg1523
I0
sg1524
I0
ssg68
(dp2090
g1521
I0
sg1522
I0
sg1523
I0
sg1524
I0
ssg70
I0
sg71
I0
sg72
S'Pregin'
p2091
sg74
I8
sg75
I0
sg76
I00
sg77
I12
sg78
(g1532
S'AI'
p2092
g31
g31
tp2093
sg82
g31
sg83
(dp2094
g1537
I8
sg1538
I3
sg1539
I7
sg1540
I11
sg1541
I6
sg1542
I9
sg1543
I6
sg1544
I9
sg1545
I6
sg1546
I7
sg1547
I9
sg1548
I9
sg1549
I5
sg1550
I8
sg1551
I3
ssg100
(dp2095
S's12'
p2096
(ijoueur
joueur
p2097
(dp2098
g27
I0
sg28
I0
sg29
I0
sg32
I0
sg34
g0
(g35
g2
Ntp2099
Rp2100
(dp2101
g40
g31
sbsg44
(dp2102
g1521
I0
sg1522
I0
sg1523
I0
sg1524
I0
ssg50
(dp2103
g1521
I0
sg1522
I0
sg1523
I0
sg1524
I0
ssg52
I0
sg53
g31
sg54
I0
sg55
I0
sg56
I0
sg57
I0
sg78
(g1532
g2092
g31
g31
tp2104
sg60
I00
sg61
g0
(g35
g2
Ntp2105
Rp2106
(dp2107
g40
g31
sbsg62
(dp2108
g1521
I0
sg1522
I0
sg1523
I0
sg1524
I0
ssg64
(dp2109
g1521
I0
sg1522
I0
sg1523
I0
sg1524
I0
ssg66
(dp2110
g1521
I0
sg1522
I0
sg1523
I0
sg1524
I0
ssg68
(dp2111
g1521
I0
sg1522
I0
sg1523
I0
sg1524
I0
ssg70
I0
sg71
I0
sg72
S'Pregin (12)'
p2112
sg74
I0
sg75
I0
sg76
I00
sg77
I0
sg58
g31
sg83
(dp2113
g1547
I0
sg1538
I0
sg1539
I0
sg1540
I0
sg1545
I0
sg1537
I0
sg1543
I0
sg1544
I0
sg1541
I0
sg1546
I0
sg1542
I0
sg1548
I0
sg1549
I0
sg1550
I0
sg1551
I0
ssg100
(dp2114
sg120
I0
sg121
g31
sg122
I0
sg123
I0
sg124
F0.0
sg125
I0
sg126
I0
sg127
I0
sg128
(dp2115
g1537
I8
sg1538
I3
sg1539
I7
sg1540
I11
sg1545
I6
sg1543
I6
sg1542
I9
sg1544
I9
sg1541
I6
sg1546
I7
sg1547
I9
sg1548
I9
sg1549
I5
sg1550
I8
sg1551
I3
ssg129
I0
sg130
I0
sg131
I0
sg132
I0
sg133
I0
sg134
I0
sg135
I0
sg136
g31
sbsS's11'
p2116
(ijoueur
joueur
p2117
(dp2118
g27
I0
sg28
I0
sg29
I0
sg32
I0
sg34
g0
(g35
g2
Ntp2119
Rp2120
(dp2121
g40
g31
sbsg44
(dp2122
g1521
I0
sg1522
I0
sg1523
I0
sg1524
I0
ssg50
(dp2123
g1521
I0
sg1522
I0
sg1523
I0
sg1524
I0
ssg52
I0
sg53
g31
sg54
I0
sg55
I0
sg56
I0
sg57
I0
sg78
g2104
sg60
I00
sg61
g0
(g35
g2
Ntp2124
Rp2125
(dp2126
g40
g31
sbsg62
(dp2127
g1521
I0
sg1522
I0
sg1523
I0
sg1524
I0
ssg64
(dp2128
g1521
I0
sg1522
I0
sg1523
I0
sg1524
I0
ssg66
(dp2129
g1521
I0
sg1522
I0
sg1523
I0
sg1524
I0
ssg68
(dp2130
g1521
I0
sg1522
I0
sg1523
I0
sg1524
I0
ssg70
I0
sg71
I0
sg72
S'Pregin (11)'
p2131
sg74
I0
sg75
I0
sg76
I00
sg77
I0
sg58
g31
sg83
(dp2132
g1547
I0
sg1538
I0
sg1539
I0
sg1540
I0
sg1545
I0
sg1537
I0
sg1543
I0
sg1544
I0
sg1541
I0
sg1546
I0
sg1542
I0
sg1548
I0
sg1549
I0
sg1550
I0
sg1551
I0
ssg100
(dp2133
sg120
I0
sg121
g31
sg122
I0
sg123
I0
sg124
F0.0
sg125
I0
sg126
I0
sg127
I0
sg128
g2115
sg129
I0
sg130
I0
sg131
I0
sg132
I0
sg133
I0
sg134
I0
sg135
I0
sg136
g31
sbssg120
I0
sg121
g31
sg122
I0
sg123
I0
sg124
F8.741935483870968
sg125
I0
sg126
I0
sg127
I0
sg128
g2115
sg129
I0
sg130
I0
sg131
I0
sg132
I0
sg133
I1
sg134
I0
sg135
I0
sg136
g1591
sbsS'n16'
p2134
(ijoueur
joueur
p2135
(dp2136
g27
I0
sg28
I0
sg29
I0
sg30
g31
sg32
I0
sg33
g31
sg34
g0
(g35
g2
Ntp2137
Rp2138
(dp2139
g39
I1
sg40
g1970
sg42
g1781
sbsg44
(dp2140
g1521
I0
sg1522
I0
sg1523
I0
sg1524
I0
ssg50
(dp2141
g1521
I0
sg1522
I0
sg1523
I0
sg1524
I0
ssg52
I23
sg53
g31
sg54
I0
sg55
I0
sg56
I0
sg57
I0
sg58
g1526
sg60
I00
sg61
g2138
sg62
(dp2142
g1521
I0
sg1522
I0
sg1523
I0
sg1524
I0
ssg64
(dp2143
g1521
I0
sg1522
I0
sg1523
I0
sg1524
I0
ssg66
(dp2144
g1521
I0
sg1522
I0
sg1523
I0
sg1524
I0
ssg68
(dp2145
g1521
I0
sg1522
I0
sg1523
I0
sg1524
I0
ssg70
I0
sg71
I0
sg72
S'Kesken'
p2146
sg74
I12
sg75
I0
sg76
I00
sg77
I14
sg78
(g1532
g1551
S'PI'
p2147
S'TL'
p2148
tp2149
sg82
g31
sg83
(dp2150
g1537
I9
sg1538
I7
sg1539
I7
sg1540
I11
sg1541
I5
sg1542
I6
sg1543
I2
sg1544
I9
sg1545
I3
sg1546
I6
sg1547
I6
sg1548
I8
sg1549
I3
sg1550
I9
sg1551
I9
ssg100
(dp2151
S's12'
p2152
(ijoueur
joueur
p2153
(dp2154
g27
I0
sg28
I0
sg29
I0
sg32
I0
sg34
g0
(g35
g2
Ntp2155
Rp2156
(dp2157
g40
g31
sbsg44
(dp2158
g1521
I0
sg1522
I0
sg1523
I0
sg1524
I0
ssg50
(dp2159
g1521
I0
sg1522
I0
sg1523
I0
sg1524
I0
ssg52
I0
sg53
g31
sg54
I0
sg55
I0
sg56
I0
sg57
I0
sg78
(g1532
g1551
g31
g31
tp2160
sg60
I00
sg61
g0
(g35
g2
Ntp2161
Rp2162
(dp2163
g40
g31
sbsg62
(dp2164
g1521
I0
sg1522
I0
sg1523
I0
sg1524
I0
ssg64
(dp2165
g1521
I0
sg1522
I0
sg1523
I0
sg1524
I0
ssg66
(dp2166
g1521
I0
sg1522
I0
sg1523
I0
sg1524
I0
ssg68
(dp2167
g1521
I0
sg1522
I0
sg1523
I0
sg1524
I0
ssg70
I0
sg71
I0
sg72
S'Kesken (12)'
p2168
sg74
I0
sg75
I0
sg76
I00
sg77
I0
sg58
g31
sg83
(dp2169
g1547
I0
sg1538
I0
sg1539
I0
sg1540
I0
sg1545
I0
sg1537
I0
sg1543
I0
sg1544
I0
sg1541
I0
sg1546
I0
sg1542
I0
sg1548
I0
sg1549
I0
sg1550
I0
sg1551
I0
ssg100
(dp2170
sg120
I0
sg121
g31
sg122
I0
sg123
I0
sg124
F0.0
sg125
I0
sg126
I0
sg127
I0
sg128
(dp2171
g1537
I9
sg1538
I7
sg1539
I7
sg1540
I11
sg1545
I3
sg1543
I2
sg1542
I6
sg1544
I9
sg1541
I5
sg1546
I6
sg1547
I6
sg1548
I8
sg1549
I3
sg1550
I9
sg1551
I9
ssg129
I0
sg130
I0
sg131
I0
sg132
I0
sg133
I0
sg134
I0
sg135
I0
sg136
g31
sbssg120
I0
sg121
g31
sg122
I0
sg123
I0
sg124
F8.448275862068966
sg125
I0
sg126
I0
sg127
I0
sg128
g2171
sg129
I0
sg130
I0
sg131
I0
sg132
I0
sg133
I1
sg134
I0
sg135
I0
sg136
g1591
sbsS'n17'
p2172
(ijoueur
joueur
p2173
(dp2174
g27
I0
sg28
I0
sg29
I0
sg30
g31
sg32
I0
sg33
g31
sg34
g0
(g35
g2
Ntp2175
Rp2176
(dp2177
g39
I1
sg40
g1910
sg42
g1781
sbsg44
(dp2178
g1521
I0
sg1522
I0
sg1523
I0
sg1524
I0
ssg50
(dp2179
g1521
I0
sg1522
I0
sg1523
I0
sg1524
I0
ssg52
I23
sg53
g31
sg54
I0
sg55
I0
sg56
I0
sg57
I0
sg58
g1526
sg60
I00
sg61
g2176
sg62
(dp2180
g1521
I0
sg1522
I0
sg1523
I0
sg1524
I0
ssg64
(dp2181
g1521
I0
sg1522
I0
sg1523
I0
sg1524
I0
ssg66
(dp2182
g1521
I0
sg1522
I0
sg1523
I0
sg1524
I0
ssg68
(dp2183
g1521
I0
sg1522
I0
sg1523
I0
sg1524
I0
ssg70
I0
sg71
I0
sg72
S'Hend'
p2184
sg74
I13
sg75
I0
sg76
I00
sg77
I24
sg78
(g1532
g1533
g31
g31
tp2185
sg82
g31
sg83
(dp2186
g1537
I8
sg1538
I10
sg1539
I6
sg1540
I11
sg1541
I6
sg1542
I6
sg1543
I4
sg1544
I8
sg1545
I2
sg1546
I6
sg1547
I7
sg1548
I8
sg1549
I2
sg1550
I10
sg1551
I7
ssg100
(dp2187
sg120
I0
sg121
g31
sg122
I0
sg123
I0
sg124
F8.88888888888889
sg125
I0
sg126
I0
sg127
I0
sg128
(dp2188
g1537
I8
sg1538
I10
sg1539
I6
sg1540
I11
sg1545
I2
sg1543
I4
sg1542
I6
sg1544
I8
sg1541
I6
sg1546
I6
sg1547
I7
sg1548
I8
sg1549
I2
sg1550
I10
sg1551
I7
ssg129
I0
sg130
I0
sg131
I0
sg132
I0
sg133
I2
sg134
I0
sg135
I0
sg136
g1591
sbsS'n14'
p2189
(ijoueur
joueur
p2190
(dp2191
g27
I0
sg28
I0
sg29
I0
sg30
g31
sg32
I0
sg33
g31
sg34
g0
(g35
g2
Ntp2192
Rp2193
(dp2194
g39
I5
sg40
g1518
sg42
g1519
sbsg44
(dp2195
g1521
I0
sg1522
I0
sg1523
I0
sg1524
I0
ssg50
(dp2196
g1521
I0
sg1522
I0
sg1523
I0
sg1524
I0
ssg52
I14
sg53
g31
sg54
I0
sg55
I0
sg56
I0
sg57
I0
sg58
g1526
sg60
I00
sg61
g2193
sg62
(dp2197
g1521
I0
sg1522
I0
sg1523
I0
sg1524
I0
ssg64
(dp2198
g1521
I0
sg1522
I0
sg1523
I0
sg1524
I0
ssg66
(dp2199
g1521
I0
sg1522
I0
sg1523
I0
sg1524
I0
ssg68
(dp2200
g1521
I0
sg1522
I0
sg1523
I0
sg1524
I0
ssg70
I0
sg71
I0
sg72
S'Jarken'
p2201
sg74
I4
sg75
I0
sg76
I00
sg77
I252
sg78
(g1532
g2092
g31
g31
tp2202
sg82
g31
sg83
(dp2203
g1537
I11
sg1538
I4
sg1539
I8
sg1540
I11
sg1541
I6
sg1542
I10
sg1543
I6
sg1544
I12
sg1545
I8
sg1546
I11
sg1547
I9
sg1548
I7
sg1549
I7
sg1550
I11
sg1551
I5
ssg100
(dp2204
S's12'
p2205
(ijoueur
joueur
p2206
(dp2207
g27
I0
sg28
I0
sg29
I0
sg32
I0
sg34
g0
(g35
g2
Ntp2208
Rp2209
(dp2210
g40
g31
sbsg44
(dp2211
g1521
I0
sg1522
I0
sg1523
I0
sg1524
I0
ssg50
(dp2212
g1521
I0
sg1522
I0
sg1523
I0
sg1524
I0
ssg52
I0
sg53
g31
sg54
I0
sg55
I0
sg56
I0
sg57
I0
sg78
(g1532
g2092
g31
g31
tp2213
sg60
I00
sg61
g0
(g35
g2
Ntp2214
Rp2215
(dp2216
g40
g31
sbsg62
(dp2217
g1521
I0
sg1522
I0
sg1523
I0
sg1524
I0
ssg64
(dp2218
g1521
I0
sg1522
I0
sg1523
I0
sg1524
I0
ssg66
(dp2219
g1521
I0
sg1522
I0
sg1523
I0
sg1524
I0
ssg68
(dp2220
g1521
I0
sg1522
I0
sg1523
I0
sg1524
I0
ssg70
I0
sg71
I0
sg72
S'Jarken (12)'
p2221
sg74
I0
sg75
I0
sg76
I00
sg77
I0
sg58
g31
sg83
(dp2222
g1547
I0
sg1538
I0
sg1539
I0
sg1540
I0
sg1545
I0
sg1537
I0
sg1543
I0
sg1544
I0
sg1541
I0
sg1546
I0
sg1542
I0
sg1548
I0
sg1549
I0
sg1550
I0
sg1551
I0
ssg100
(dp2223
sg120
I0
sg121
g31
sg122
I0
sg123
I0
sg124
F0.0
sg125
I0
sg126
I0
sg127
I0
sg128
(dp2224
g1537
I11
sg1538
I4
sg1539
I8
sg1540
I11
sg1545
I8
sg1543
I6
sg1542
I10
sg1544
I12
sg1541
I6
sg1546
I11
sg1547
I9
sg1548
I7
sg1549
I7
sg1550
I11
sg1551
I5
ssg129
I0
sg130
I0
sg131
I0
sg132
I0
sg133
I0
sg134
I0
sg135
I0
sg136
g31
sbsS's11'
p2225
(ijoueur
joueur
p2226
(dp2227
g27
I0
sg28
I0
sg29
I0
sg32
I0
sg34
g0
(g35
g2
Ntp2228
Rp2229
(dp2230
g40
g31
sbsg44
(dp2231
g1521
I0
sg1522
I0
sg1523
I0
sg1524
I0
ssg50
(dp2232
g1521
I0
sg1522
I0
sg1523
I0
sg1524
I0
ssg52
I0
sg53
g31
sg54
I0
sg55
I0
sg56
I0
sg57
I0
sg78
g2213
sg60
I00
sg61
g0
(g35
g2
Ntp2233
Rp2234
(dp2235
g40
g31
sbsg62
(dp2236
g1521
I0
sg1522
I0
sg1523
I0
sg1524
I0
ssg64
(dp2237
g1521
I0
sg1522
I0
sg1523
I0
sg1524
I0
ssg66
(dp2238
g1521
I0
sg1522
I0
sg1523
I0
sg1524
I0
ssg68
(dp2239
g1521
I0
sg1522
I0
sg1523
I0
sg1524
I0
ssg70
I0
sg71
I0
sg72
S'Jarken (11)'
p2240
sg74
I0
sg75
I0
sg76
I00
sg77
I0
sg58
g31
sg83
(dp2241
g1547
I0
sg1538
I0
sg1539
I0
sg1540
I0
sg1545
I0
sg1537
I0
sg1543
I0
sg1544
I0
sg1541
I0
sg1546
I0
sg1542
I0
sg1548
I0
sg1549
I0
sg1550
I0
sg1551
I0
ssg100
(dp2242
sg120
I0
sg121
g31
sg122
I0
sg123
I0
sg124
F0.0
sg125
I0
sg126
I0
sg127
I0
sg128
g2224
sg129
I0
sg130
I0
sg131
I0
sg132
I0
sg133
I0
sg134
I0
sg135
I0
sg136
g31
sbssg120
I0
sg121
g31
sg122
I0
sg123
I0
sg124
F10.258064516129032
sg125
I0
sg126
I0
sg127
I0
sg128
g2224
sg129
I0
sg130
I0
sg131
I0
sg132
I0
sg133
I25
sg134
I0
sg135
I0
sg136
g1591
sbsS'n15'
p2243
(ijoueur
joueur
p2244
(dp2245
g27
I0
sg28
I0
sg29
I0
sg30
g31
sg32
I0
sg33
g31
sg34
g0
(g35
g2
Ntp2246
Rp2247
(dp2248
g39
I3
sg40
g1598
sg42
g1599
sbsg44
(dp2249
g1521
I0
sg1522
I0
sg1523
I0
sg1524
I0
ssg50
(dp2250
g1521
I0
sg1522
I0
sg1523
I0
sg1524
I0
ssg52
I20
sg53
g31
sg54
I0
sg55
I0
sg56
I0
sg57
I0
sg58
g1526
sg60
I00
sg61
g2247
sg62
(dp2251
g1521
I0
sg1522
I0
sg1523
I0
sg1524
I0
ssg64
(dp2252
g1521
I0
sg1522
I0
sg1523
I0
sg1524
I0
ssg66
(dp2253
g1521
I0
sg1522
I0
sg1523
I0
sg1524
I0
ssg68
(dp2254
g1521
I0
sg1522
I0
sg1523
I0
sg1524
I0
ssg70
I0
sg71
I0
sg72
S'Gnustel'
p2255
sg74
I11
sg75
I0
sg76
I00
sg77
I18
sg78
(g1532
g2035
S'AI'
p2256
S'CE'
p2257
tp2258
sg82
g31
sg83
(dp2259
g1537
I6
sg1538
I6
sg1539
I11
sg1540
I10
sg1541
I5
sg1542
I9
sg1543
I7
sg1544
I11
sg1545
I8
sg1546
I6
sg1547
I9
sg1548
I9
sg1549
I6
sg1550
I12
sg1551
I3
ssg100
(dp2260
S's12'
p2261
(ijoueur
joueur
p2262
(dp2263
g27
I0
sg28
I0
sg29
I0
sg32
I0
sg34
g0
(g35
g2
Ntp2264
Rp2265
(dp2266
g40
g31
sbsg44
(dp2267
g1521
I0
sg1522
I0
sg1523
I0
sg1524
I0
ssg50
(dp2268
g1521
I0
sg1522
I0
sg1523
I0
sg1524
I0
ssg52
I0
sg53
g31
sg54
I0
sg55
I0
sg56
I0
sg57
I0
sg78
(g1532
g2035
g31
g31
tp2269
sg60
I00
sg61
g0
(g35
g2
Ntp2270
Rp2271
(dp2272
g40
g31
sbsg62
(dp2273
g1521
I0
sg1522
I0
sg1523
I0
sg1524
I0
ssg64
(dp2274
g1521
I0
sg1522
I0
sg1523
I0
sg1524
I0
ssg66
(dp2275
g1521
I0
sg1522
I0
sg1523
I0
sg1524
I0
ssg68
(dp2276
g1521
I0
sg1522
I0
sg1523
I0
sg1524
I0
ssg70
I0
sg71
I0
sg72
S'Gnustel (12)'
p2277
sg74
I0
sg75
I0
sg76
I00
sg77
I0
sg58
g31
sg83
(dp2278
g1547
I0
sg1538
I0
sg1539
I0
sg1540
I0
sg1545
I0
sg1537
I0
sg1543
I0
sg1544
I0
sg1541
I0
sg1546
I0
sg1542
I0
sg1548
I0
sg1549
I0
sg1550
I0
sg1551
I0
ssg100
(dp2279
sg120
I0
sg121
g31
sg122
I0
sg123
I0
sg124
F0.0
sg125
I0
sg126
I0
sg127
I0
sg128
(dp2280
g1537
I6
sg1538
I6
sg1539
I11
sg1540
I10
sg1545
I8
sg1543
I7
sg1542
I9
sg1544
I11
sg1541
I5
sg1546
I6
sg1547
I9
sg1548
I9
sg1549
I6
sg1550
I12
sg1551
I3
ssg129
I0
sg130
I0
sg131
I0
sg132
I0
sg133
I0
sg134
I0
sg135
I0
sg136
g31
sbsS's11'
p2281
(ijoueur
joueur
p2282
(dp2283
g27
I0
sg28
I0
sg29
I0
sg32
I0
sg34
g0
(g35
g2
Ntp2284
Rp2285
(dp2286
g40
g31
sbsg44
(dp2287
g1521
I0
sg1522
I0
sg1523
I0
sg1524
I0
ssg50
(dp2288
g1521
I0
sg1522
I0
sg1523
I0
sg1524
I0
ssg52
I0
sg53
g31
sg54
I0
sg55
I0
sg56
I0
sg57
I0
sg78
g2269
sg60
I00
sg61
g0
(g35
g2
Ntp2289
Rp2290
(dp2291
g40
g31
sbsg62
(dp2292
g1521
I0
sg1522
I0
sg1523
I0
sg1524
I0
ssg64
(dp2293
g1521
I0
sg1522
I0
sg1523
I0
sg1524
I0
ssg66
(dp2294
g1521
I0
sg1522
I0
sg1523
I0
sg1524
I0
ssg68
(dp2295
g1521
I0
sg1522
I0
sg1523
I0
sg1524
I0
ssg70
I0
sg71
I0
sg72
S'Gnustel (11)'
p2296
sg74
I0
sg75
I0
sg76
I00
sg77
I0
sg58
g31
sg83
(dp2297
g1547
I0
sg1538
I0
sg1539
I0
sg1540
I0
sg1545
I0
sg1537
I0
sg1543
I0
sg1544
I0
sg1541
I0
sg1546
I0
sg1542
I0
sg1548
I0
sg1549
I0
sg1550
I0
sg1551
I0
ssg100
(dp2298
sg120
I0
sg121
g31
sg122
I0
sg123
I0
sg124
F0.0
sg125
I0
sg126
I0
sg127
I0
sg128
g2280
sg129
I0
sg130
I0
sg131
I0
sg132
I0
sg133
I0
sg134
I0
sg135
I0
sg136
g31
sbssg120
I0
sg121
g31
sg122
I0
sg123
I0
sg124
F9.515151515151516
sg125
I0
sg126
I0
sg127
I0
sg128
g2280
sg129
I0
sg130
I0
sg131
I0
sg132
I0
sg133
I1
sg134
I0
sg135
I0
sg136
g1591
sbsS'n18'
p2299
g1905
sS'n19'
p2300
(ijoueur
joueur
p2301
(dp2302
g27
I0
sg28
I0
sg29
I0
sg30
g31
sg32
I0
sg33
g31
sg34
g0
(g35
g2
Ntp2303
Rp2304
(dp2305
g39
I1
sg40
g1910
sg42
g1781
sbsg44
(dp2306
g1521
I0
sg1522
I0
sg1523
I0
sg1524
I0
ssg50
(dp2307
g1521
I0
sg1522
I0
sg1523
I0
sg1524
I0
ssg52
I26
sg53
g31
sg54
I0
sg55
I0
sg56
I0
sg57
I0
sg58
g1526
sg60
I00
sg61
g2304
sg62
(dp2308
g1521
I0
sg1522
I0
sg1523
I0
sg1524
I0
ssg64
(dp2309
g1521
I0
sg1522
I0
sg1523
I0
sg1524
I0
ssg66
(dp2310
g1521
I0
sg1522
I0
sg1523
I0
sg1524
I0
ssg68
(dp2311
g1521
I0
sg1522
I0
sg1523
I0
sg1524
I0
ssg70
I0
sg71
I0
sg72
S'Snar'
p2312
sg74
I12
sg75
I0
sg76
I00
sg77
I13
sg78
(g1532
S'N8'
p2313
g31
g31
tp2314
sg82
g31
sg83
(dp2315
g1537
I9
sg1538
I9
sg1539
I7
sg1540
I10
sg1541
I7
sg1542
I6
sg1543
I4
sg1544
I9
sg1545
I5
sg1546
I7
sg1547
I8
sg1548
I9
sg1549
I3
sg1550
I11
sg1551
I6
ssg100
(dp2316
S's12'
p2317
(ijoueur
joueur
p2318
(dp2319
g27
I0
sg28
I0
sg29
I0
sg32
I0
sg34
g0
(g35
g2
Ntp2320
Rp2321
(dp2322
g40
g31
sbsg44
(dp2323
g1521
I0
sg1522
I0
sg1523
I0
sg1524
I0
ssg50
(dp2324
g1521
I0
sg1522
I0
sg1523
I0
sg1524
I0
ssg52
I0
sg53
g31
sg54
I0
sg55
I0
sg56
I0
sg57
I0
sg78
(g1532
g2313
g31
g31
tp2325
sg60
I00
sg61
g0
(g35
g2
Ntp2326
Rp2327
(dp2328
g40
g31
sbsg62
(dp2329
g1521
I0
sg1522
I0
sg1523
I0
sg1524
I0
ssg64
(dp2330
g1521
I0
sg1522
I0
sg1523
I0
sg1524
I0
ssg66
(dp2331
g1521
I0
sg1522
I0
sg1523
I0
sg1524
I0
ssg68
(dp2332
g1521
I0
sg1522
I0
sg1523
I0
sg1524
I0
ssg70
I0
sg71
I0
sg72
S'Snar (12)'
p2333
sg74
I0
sg75
I0
sg76
I00
sg77
I0
sg58
g31
sg83
(dp2334
g1547
I0
sg1538
I0
sg1539
I0
sg1540
I0
sg1545
I0
sg1537
I0
sg1543
I0
sg1544
I0
sg1541
I0
sg1546
I0
sg1542
I0
sg1548
I0
sg1549
I0
sg1550
I0
sg1551
I0
ssg100
(dp2335
sg120
I0
sg121
g31
sg122
I0
sg123
I0
sg124
F0.0
sg125
I0
sg126
I0
sg127
I0
sg128
(dp2336
g1537
I9
sg1538
I9
sg1539
I7
sg1540
I10
sg1545
I5
sg1543
I4
sg1542
I6
sg1544
I9
sg1541
I7
sg1546
I7
sg1547
I8
sg1548
I9
sg1549
I3
sg1550
I11
sg1551
I6
ssg129
I0
sg130
I0
sg131
I0
sg132
I0
sg133
I0
sg134
I0
sg135
I0
sg136
g31
sbssg120
I0
sg121
g31
sg122
I0
sg123
I0
sg124
F9.206896551724139
sg125
I0
sg126
I0
sg127
I0
sg128
g2336
sg129
I0
sg130
I0
sg131
I0
sg132
I0
sg133
I1
sg134
I0
sg135
I0
sg136
g1591
sbsS'n22'
p2337
(ijoueur
joueur
p2338
(dp2339
g27
I0
sg28
I0
sg29
I0
sg30
g31
sg32
I0
sg33
g31
sg34
g0
(g35
g2
Ntp2340
Rp2341
(dp2342
g39
I1
sg40
g1910
sg42
g1781
sbsg44
(dp2343
g1521
I0
sg1522
I0
sg1523
I0
sg1524
I0
ssg50
(dp2344
g1521
I0
sg1522
I0
sg1523
I0
sg1524
I0
ssg52
I12
sg53
g31
sg54
I0
sg55
I0
sg56
I0
sg57
I0
sg58
g1526
sg60
I00
sg61
g2341
sg62
(dp2345
g1521
I0
sg1522
I0
sg1523
I0
sg1524
I0
ssg64
(dp2346
g1521
I0
sg1522
I0
sg1523
I0
sg1524
I0
ssg66
(dp2347
g1521
I0
sg1522
I0
sg1523
I0
sg1524
I0
ssg68
(dp2348
g1521
I0
sg1522
I0
sg1523
I0
sg1524
I0
ssg70
I0
sg71
I0
sg72
S'Bisqath'
p2349
sg74
I5
sg75
I0
sg76
I00
sg77
I19
sg78
(g1532
g2092
S'CE'
p2350
g31
tp2351
sg82
g31
sg83
(dp2352
g1537
I7
sg1538
I4
sg1539
I6
sg1540
I11
sg1541
I5
sg1542
I9
sg1543
I6
sg1544
I7
sg1545
I7
sg1546
I7
sg1547
I9
sg1548
I9
sg1549
I6
sg1550
I8
sg1551
I5
ssg100
(dp2353
S's12'
p2354
(ijoueur
joueur
p2355
(dp2356
g27
I0
sg28
I0
sg29
I0
sg32
I0
sg34
g0
(g35
g2
Ntp2357
Rp2358
(dp2359
g40
g31
sbsg44
(dp2360
g1521
I0
sg1522
I0
sg1523
I0
sg1524
I0
ssg50
(dp2361
g1521
I0
sg1522
I0
sg1523
I0
sg1524
I0
ssg52
I0
sg53
g31
sg54
I0
sg55
I0
sg56
I0
sg57
I0
sg78
(g1532
g2092
g31
g31
tp2362
sg60
I00
sg61
g0
(g35
g2
Ntp2363
Rp2364
(dp2365
g40
g31
sbsg62
(dp2366
g1521
I0
sg1522
I0
sg1523
I0
sg1524
I0
ssg64
(dp2367
g1521
I0
sg1522
I0
sg1523
I0
sg1524
I0
ssg66
(dp2368
g1521
I0
sg1522
I0
sg1523
I0
sg1524
I0
ssg68
(dp2369
g1521
I0
sg1522
I0
sg1523
I0
sg1524
I0
ssg70
I0
sg71
I0
sg72
S'Bisqath (12)'
p2370
sg74
I0
sg75
I0
sg76
I00
sg77
I0
sg58
g31
sg83
(dp2371
g1547
I0
sg1538
I0
sg1539
I0
sg1540
I0
sg1545
I0
sg1537
I0
sg1543
I0
sg1544
I0
sg1541
I0
sg1546
I0
sg1542
I0
sg1548
I0
sg1549
I0
sg1550
I0
sg1551
I0
ssg100
(dp2372
sg120
I0
sg121
g31
sg122
I0
sg123
I0
sg124
F0.0
sg125
I0
sg126
I0
sg127
I0
sg128
(dp2373
g1537
I7
sg1538
I4
sg1539
I6
sg1540
I11
sg1545
I7
sg1543
I6
sg1542
I9
sg1544
I7
sg1541
I5
sg1546
I7
sg1547
I9
sg1548
I9
sg1549
I6
sg1550
I8
sg1551
I5
ssg129
I0
sg130
I0
sg131
I0
sg132
I0
sg133
I0
sg134
I0
sg135
I0
sg136
g31
sbsS's11'
p2374
(ijoueur
joueur
p2375
(dp2376
g27
I0
sg28
I0
sg29
I0
sg32
I0
sg34
g0
(g35
g2
Ntp2377
Rp2378
(dp2379
g40
g31
sbsg44
(dp2380
g1521
I0
sg1522
I0
sg1523
I0
sg1524
I0
ssg50
(dp2381
g1521
I0
sg1522
I0
sg1523
I0
sg1524
I0
ssg52
I0
sg53
g31
sg54
I0
sg55
I0
sg56
I0
sg57
I0
sg78
g2362
sg60
I00
sg61
g0
(g35
g2
Ntp2382
Rp2383
(dp2384
g40
g31
sbsg62
(dp2385
g1521
I0
sg1522
I0
sg1523
I0
sg1524
I0
ssg64
(dp2386
g1521
I0
sg1522
I0
sg1523
I0
sg1524
I0
ssg66
(dp2387
g1521
I0
sg1522
I0
sg1523
I0
sg1524
I0
ssg68
(dp2388
g1521
I0
sg1522
I0
sg1523
I0
sg1524
I0
ssg70
I0
sg71
I0
sg72
S'Bisqath (11)'
p2389
sg74
I0
sg75
I0
sg76
I00
sg77
I0
sg58
g31
sg83
(dp2390
g1547
I0
sg1538
I0
sg1539
I0
sg1540
I0
sg1545
I0
sg1537
I0
sg1543
I0
sg1544
I0
sg1541
I0
sg1546
I0
sg1542
I0
sg1548
I0
sg1549
I0
sg1550
I0
sg1551
I0
ssg100
(dp2391
sg120
I0
sg121
g31
sg122
I0
sg123
I0
sg124
F0.0
sg125
I0
sg126
I0
sg127
I0
sg128
g2373
sg129
I0
sg130
I0
sg131
I0
sg132
I0
sg133
I0
sg134
I0
sg135
I0
sg136
g31
sbssg120
I0
sg121
g31
sg122
I0
sg123
I0
sg124
F8.387096774193548
sg125
I0
sg126
I0
sg127
I0
sg128
g2373
sg129
I0
sg130
I0
sg131
I0
sg132
I0
sg133
I1
sg134
I0
sg135
I0
sg136
g1591
sbsS'n21'
p2392
g1769
sS'n20'
p2393
g1593
sS'n8'
p2394
(ijoueur
joueur
p2395
(dp2396
g27
I0
sg28
I0
sg29
I0
sg30
g31
sg32
I0
sg33
g31
sg34
g0
(g35
g2
Ntp2397
Rp2398
(dp2399
g39
I4
sg40
g1656
sg42
g1657
sbsg44
(dp2400
g1521
I0
sg1522
I0
sg1523
I0
sg1524
I0
ssg50
(dp2401
g1521
I0
sg1522
I0
sg1523
I0
sg1524
I0
ssg52
I20
sg53
g31
sg54
I0
sg55
I0
sg56
I0
sg57
I0
sg58
g1526
sg60
I00
sg61
g2398
sg62
(dp2402
g1521
I0
sg1522
I0
sg1523
I0
sg1524
I0
ssg64
(dp2403
g1521
I0
sg1522
I0
sg1523
I0
sg1524
I0
ssg66
(dp2404
g1521
I0
sg1522
I0
sg1523
I0
sg1524
I0
ssg68
(dp2405
g1521
I0
sg1522
I0
sg1523
I0
sg1524
I0
ssg70
I0
sg71
I0
sg72
S'Yndor'
p2406
sg74
I7
sg75
I0
sg76
I00
sg77
I90
sg78
(g1532
g2313
g31
g31
tp2407
sg82
g31
sg83
(dp2408
g1537
I11
sg1538
I9
sg1539
I8
sg1540
I12
sg1541
I8
sg1542
I7
sg1543
I5
sg1544
I12
sg1545
I5
sg1546
I7
sg1547
I8
sg1548
I9
sg1549
I5
sg1550
I10
sg1551
I2
ssg100
(dp2409
S's12'
p2410
(ijoueur
joueur
p2411
(dp2412
g27
I0
sg28
I0
sg29
I0
sg32
I0
sg34
g0
(g35
g2
Ntp2413
Rp2414
(dp2415
g40
g31
sbsg44
(dp2416
g1521
I0
sg1522
I0
sg1523
I0
sg1524
I0
ssg50
(dp2417
g1521
I0
sg1522
I0
sg1523
I0
sg1524
I0
ssg52
I0
sg53
g31
sg54
I0
sg55
I0
sg56
I0
sg57
I0
sg78
(g1532
g2313
g31
g31
tp2418
sg60
I00
sg61
g0
(g35
g2
Ntp2419
Rp2420
(dp2421
g40
g31
sbsg62
(dp2422
g1521
I0
sg1522
I0
sg1523
I0
sg1524
I0
ssg64
(dp2423
g1521
I0
sg1522
I0
sg1523
I0
sg1524
I0
ssg66
(dp2424
g1521
I0
sg1522
I0
sg1523
I0
sg1524
I0
ssg68
(dp2425
g1521
I0
sg1522
I0
sg1523
I0
sg1524
I0
ssg70
I0
sg71
I0
sg72
S'Yndor (12)'
p2426
sg74
I0
sg75
I0
sg76
I00
sg77
I0
sg58
g31
sg83
(dp2427
g1547
I0
sg1538
I0
sg1539
I0
sg1540
I0
sg1545
I0
sg1537
I0
sg1543
I0
sg1544
I0
sg1541
I0
sg1546
I0
sg1542
I0
sg1548
I0
sg1549
I0
sg1550
I0
sg1551
I0
ssg100
(dp2428
sg120
I0
sg121
g31
sg122
I0
sg123
I0
sg124
F0.0
sg125
I0
sg126
I0
sg127
I0
sg128
(dp2429
g1537
I11
sg1538
I9
sg1539
I8
sg1540
I12
sg1545
I5
sg1543
I5
sg1542
I7
sg1544
I12
sg1541
I8
sg1546
I7
sg1547
I8
sg1548
I9
sg1549
I5
sg1550
I10
sg1551
I2
ssg129
I0
sg130
I0
sg131
I0
sg132
I0
sg133
I0
sg134
I0
sg135
I0
sg136
g31
sbsS's11'
p2430
(ijoueur
joueur
p2431
(dp2432
g27
I0
sg28
I0
sg29
I0
sg32
I0
sg34
g0
(g35
g2
Ntp2433
Rp2434
(dp2435
g40
g31
sbsg44
(dp2436
g1521
I0
sg1522
I0
sg1523
I0
sg1524
I0
ssg50
(dp2437
g1521
I0
sg1522
I0
sg1523
I0
sg1524
I0
ssg52
I0
sg53
g31
sg54
I0
sg55
I0
sg56
I0
sg57
I0
sg78
g2418
sg60
I00
sg61
g0
(g35
g2
Ntp2438
Rp2439
(dp2440
g40
g31
sbsg62
(dp2441
g1521
I0
sg1522
I0
sg1523
I0
sg1524
I0
ssg64
(dp2442
g1521
I0
sg1522
I0
sg1523
I0
sg1524
I0
ssg66
(dp2443
g1521
I0
sg1522
I0
sg1523
I0
sg1524
I0
ssg68
(dp2444
g1521
I0
sg1522
I0
sg1523
I0
sg1524
I0
ssg70
I0
sg71
I0
sg72
S'Yndor (11)'
p2445
sg74
I0
sg75
I0
sg76
I00
sg77
I0
sg58
g31
sg83
(dp2446
g1547
I0
sg1538
I0
sg1539
I0
sg1540
I0
sg1545
I0
sg1537
I0
sg1543
I0
sg1544
I0
sg1541
I0
sg1546
I0
sg1542
I0
sg1548
I0
sg1549
I0
sg1550
I0
sg1551
I0
ssg100
(dp2447
sg120
I0
sg121
g31
sg122
I0
sg123
I0
sg124
F0.0
sg125
I0
sg126
I0
sg127
I0
sg128
g2429
sg129
I0
sg130
I0
sg131
I0
sg132
I0
sg133
I0
sg134
I0
sg135
I0
sg136
g31
sbssg120
I0
sg121
g31
sg122
I0
sg123
I0
sg124
F9.862068965517242
sg125
I0
sg126
I0
sg127
I0
sg128
g2429
sg129
I0
sg130
I0
sg131
I0
sg132
I0
sg133
I9
sg134
I0
sg135
I0
sg136
g1591
sbsS'n9'
p2448
(ijoueur
joueur
p2449
(dp2450
g27
I0
sg28
I0
sg29
I0
sg30
g31
sg32
I0
sg33
g31
sg34
g0
(g35
g2
Ntp2451
Rp2452
(dp2453
g39
I1
sg40
g1910
sg42
g1781
sbsg44
(dp2454
g1521
I0
sg1522
I0
sg1523
I0
sg1524
I0
ssg50
(dp2455
g1521
I0
sg1522
I0
sg1523
I0
sg1524
I0
ssg52
I20
sg53
g31
sg54
I0
sg55
I0
sg56
I0
sg57
I0
sg58
g1526
sg60
I00
sg61
g2452
sg62
(dp2456
g1521
I0
sg1522
I0
sg1523
I0
sg1524
I0
ssg64
(dp2457
g1521
I0
sg1522
I0
sg1523
I0
sg1524
I0
ssg66
(dp2458
g1521
I0
sg1522
I0
sg1523
I0
sg1524
I0
ssg68
(dp2459
g1521
I0
sg1522
I0
sg1523
I0
sg1524
I0
ssg70
I0
sg71
I0
sg72
S'Eorkagn'
p2460
sg74
I10
sg75
I0
sg76
I00
sg77
I16
sg78
(g1532
S'DM'
p2461
S'DO'
p2462
g31
tp2463
sg82
g31
sg83
(dp2464
g1537
I7
sg1538
I5
sg1539
I6
sg1540
I11
sg1541
I6
sg1542
I8
sg1543
I6
sg1544
I7
sg1545
I8
sg1546
I9
sg1547
I8
sg1548
I7
sg1549
I7
sg1550
I10
sg1551
I5
ssg100
(dp2465
S's12'
p2466
(ijoueur
joueur
p2467
(dp2468
g27
I0
sg28
I0
sg29
I0
sg32
I0
sg34
g0
(g35
g2
Ntp2469
Rp2470
(dp2471
g40
g31
sbsg44
(dp2472
g1521
I0
sg1522
I0
sg1523
I0
sg1524
I0
ssg50
(dp2473
g1521
I0
sg1522
I0
sg1523
I0
sg1524
I0
ssg52
I0
sg53
g31
sg54
I0
sg55
I0
sg56
I0
sg57
I0
sg78
(g1532
g2461
g31
g31
tp2474
sg60
I00
sg61
g0
(g35
g2
Ntp2475
Rp2476
(dp2477
g40
g31
sbsg62
(dp2478
g1521
I0
sg1522
I0
sg1523
I0
sg1524
I0
ssg64
(dp2479
g1521
I0
sg1522
I0
sg1523
I0
sg1524
I0
ssg66
(dp2480
g1521
I0
sg1522
I0
sg1523
I0
sg1524
I0
ssg68
(dp2481
g1521
I0
sg1522
I0
sg1523
I0
sg1524
I0
ssg70
I0
sg71
I0
sg72
S'Eorkagn (12)'
p2482
sg74
I0
sg75
I0
sg76
I00
sg77
I0
sg58
g31
sg83
(dp2483
g1547
I0
sg1538
I0
sg1539
I0
sg1540
I0
sg1545
I0
sg1537
I0
sg1543
I0
sg1544
I0
sg1541
I0
sg1546
I0
sg1542
I0
sg1548
I0
sg1549
I0
sg1550
I0
sg1551
I0
ssg100
(dp2484
sg120
I0
sg121
g31
sg122
I0
sg123
I0
sg124
F0.0
sg125
I0
sg126
I0
sg127
I0
sg128
(dp2485
g1537
I7
sg1538
I5
sg1539
I6
sg1540
I11
sg1545
I8
sg1543
I6
sg1542
I8
sg1544
I7
sg1541
I6
sg1546
I9
sg1547
I8
sg1548
I7
sg1549
I7
sg1550
I10
sg1551
I5
ssg129
I0
sg130
I0
sg131
I0
sg132
I0
sg133
I0
sg134
I0
sg135
I0
sg136
g31
sbsS's11'
p2486
(ijoueur
joueur
p2487
(dp2488
g27
I0
sg28
I0
sg29
I0
sg32
I0
sg34
g0
(g35
g2
Ntp2489
Rp2490
(dp2491
g40
g31
sbsg44
(dp2492
g1521
I0
sg1522
I0
sg1523
I0
sg1524
I0
ssg50
(dp2493
g1521
I0
sg1522
I0
sg1523
I0
sg1524
I0
ssg52
I0
sg53
g31
sg54
I0
sg55
I0
sg56
I0
sg57
I0
sg78
g2474
sg60
I00
sg61
g0
(g35
g2
Ntp2494
Rp2495
(dp2496
g40
g31
sbsg62
(dp2497
g1521
I0
sg1522
I0
sg1523
I0
sg1524
I0
ssg64
(dp2498
g1521
I0
sg1522
I0
sg1523
I0
sg1524
I0
ssg66
(dp2499
g1521
I0
sg1522
I0
sg1523
I0
sg1524
I0
ssg68
(dp2500
g1521
I0
sg1522
I0
sg1523
I0
sg1524
I0
ssg70
I0
sg71
I0
sg72
S'Eorkagn (11)'
p2501
sg74
I0
sg75
I0
sg76
I00
sg77
I0
sg58
g31
sg83
(dp2502
g1547
I0
sg1538
I0
sg1539
I0
sg1540
I0
sg1545
I0
sg1537
I0
sg1543
I0
sg1544
I0
sg1541
I0
sg1546
I0
sg1542
I0
sg1548
I0
sg1549
I0
sg1550
I0
sg1551
I0
ssg100
(dp2503
sg120
I0
sg121
g31
sg122
I0
sg123
I0
sg124
F0.0
sg125
I0
sg126
I0
sg127
I0
sg128
g2485
sg129
I0
sg130
I0
sg131
I0
sg132
I0
sg133
I0
sg134
I0
sg135
I0
sg136
g31
sbssg120
I0
sg121
g31
sg122
I0
sg123
I0
sg124
F8.482758620689655
sg125
I0
sg126
I0
sg127
I0
sg128
g2485
sg129
I0
sg130
I0
sg131
I0
sg132
I0
sg133
I1
sg134
I0
sg135
I0
sg136
g1591
sbsS'n1'
p2504
(ijoueur
joueur
p2505
(dp2506
g27
I0
sg28
I0
sg29
I0
sg30
g31
sg32
I0
sg33
g31
sg34
g0
(g35
g2
Ntp2507
Rp2508
(dp2509
g39
I1
sg40
g1970
sg42
g1781
sbsg44
(dp2510
g1521
I0
sg1522
I0
sg1523
I0
sg1524
I0
ssg50
(dp2511
g1521
I0
sg1522
I0
sg1523
I0
sg1524
I0
ssg52
I17
sg53
g31
sg54
I0
sg55
I0
sg56
I0
sg57
I0
sg58
g1526
sg60
I00
sg61
g2508
sg62
(dp2512
g1521
I0
sg1522
I0
sg1523
I0
sg1524
I0
ssg64
(dp2513
g1521
I0
sg1522
I0
sg1523
I0
sg1524
I0
ssg66
(dp2514
g1521
I0
sg1522
I0
sg1523
I0
sg1524
I0
ssg68
(dp2515
g1521
I0
sg1522
I0
sg1523
I0
sg1524
I0
ssg70
I0
sg71
I0
sg72
S'Xajy'
p2516
sg74
I8
sg75
I0
sg76
I00
sg77
I11
sg78
(g1532
g1533
g31
g31
tp2517
sg82
g31
sg83
(dp2518
g1537
I9
sg1538
I11
sg1539
I6
sg1540
I11
sg1541
I7
sg1542
I7
sg1543
I4
sg1544
I9
sg1545
I5
sg1546
I7
sg1547
I7
sg1548
I8
sg1549
I3
sg1550
I9
sg1551
I9
ssg100
(dp2519
S's12'
p2520
(ijoueur
joueur
p2521
(dp2522
g27
I0
sg28
I0
sg29
I0
sg32
I0
sg34
g0
(g35
g2
Ntp2523
Rp2524
(dp2525
g40
g31
sbsg44
(dp2526
g1521
I0
sg1522
I0
sg1523
I0
sg1524
I0
ssg50
(dp2527
g1521
I0
sg1522
I0
sg1523
I0
sg1524
I0
ssg52
I0
sg53
g31
sg54
I0
sg55
I0
sg56
I0
sg57
I0
sg78
(g1532
g1533
g31
g31
tp2528
sg60
I00
sg61
g0
(g35
g2
Ntp2529
Rp2530
(dp2531
g40
g31
sbsg62
(dp2532
g1521
I0
sg1522
I0
sg1523
I0
sg1524
I0
ssg64
(dp2533
g1521
I0
sg1522
I0
sg1523
I0
sg1524
I0
ssg66
(dp2534
g1521
I0
sg1522
I0
sg1523
I0
sg1524
I0
ssg68
(dp2535
g1521
I0
sg1522
I0
sg1523
I0
sg1524
I0
ssg70
I0
sg71
I0
sg72
S'Xajy (12)'
p2536
sg74
I0
sg75
I0
sg76
I00
sg77
I0
sg58
g31
sg83
(dp2537
g1547
I0
sg1538
I0
sg1539
I0
sg1540
I0
sg1545
I0
sg1537
I0
sg1543
I0
sg1544
I0
sg1541
I0
sg1546
I0
sg1542
I0
sg1548
I0
sg1549
I0
sg1550
I0
sg1551
I0
ssg100
(dp2538
sg120
I0
sg121
g31
sg122
I0
sg123
I0
sg124
F0.0
sg125
I0
sg126
I0
sg127
I0
sg128
(dp2539
g1537
I9
sg1538
I11
sg1539
I6
sg1540
I11
sg1545
I5
sg1543
I4
sg1542
I7
sg1544
I9
sg1541
I7
sg1546
I7
sg1547
I7
sg1548
I8
sg1549
I3
sg1550
I9
sg1551
I9
ssg129
I0
sg130
I0
sg131
I0
sg132
I0
sg133
I0
sg134
I0
sg135
I0
sg136
g31
sbsS's11'
p2540
(ijoueur
joueur
p2541
(dp2542
g27
I0
sg28
I0
sg29
I0
sg32
I0
sg34
g0
(g35
g2
Ntp2543
Rp2544
(dp2545
g40
g31
sbsg44
(dp2546
g1521
I0
sg1522
I0
sg1523
I0
sg1524
I0
ssg50
(dp2547
g1521
I0
sg1522
I0
sg1523
I0
sg1524
I0
ssg52
I0
sg53
g31
sg54
I0
sg55
I0
sg56
I0
sg57
I0
sg78
g2528
sg60
I00
sg61
g0
(g35
g2
Ntp2548
Rp2549
(dp2550
g40
g31
sbsg62
(dp2551
g1521
I0
sg1522
I0
sg1523
I0
sg1524
I0
ssg64
(dp2552
g1521
I0
sg1522
I0
sg1523
I0
sg1524
I0
ssg66
(dp2553
g1521
I0
sg1522
I0
sg1523
I0
sg1524
I0
ssg68
(dp2554
g1521
I0
sg1522
I0
sg1523
I0
sg1524
I0
ssg70
I0
sg71
I0
sg72
S'Xajy (11)'
p2555
sg74
I0
sg75
I0
sg76
I00
sg77
I0
sg58
g31
sg83
(dp2556
g1547
I0
sg1538
I0
sg1539
I0
sg1540
I0
sg1545
I0
sg1537
I0
sg1543
I0
sg1544
I0
sg1541
I0
sg1546
I0
sg1542
I0
sg1548
I0
sg1549
I0
sg1550
I0
sg1551
I0
ssg100
(dp2557
sg120
I0
sg121
g31
sg122
I0
sg123
I0
sg124
F0.0
sg125
I0
sg126
I0
sg127
I0
sg128
g2539
sg129
I0
sg130
I0
sg131
I0
sg132
I0
sg133
I0
sg134
I0
sg135
I0
sg136
g31
sbssg120
I0
sg121
g31
sg122
I0
sg123
I0
sg124
F9.148148148148149
sg125
I0
sg126
I0
sg127
I0
sg128
g2539
sg129
I0
sg130
I0
sg131
I0
sg132
I0
sg133
I1
sg134
I0
sg135
I0
sg136
g1591
sbsS'n2'
p2558
(ijoueur
joueur
p2559
(dp2560
g27
I0
sg28
I0
sg29
I0
sg30
g31
sg32
I0
sg33
g31
sg34
g0
(g35
g2
Ntp2561
Rp2562
(dp2563
g39
I5
sg40
g1518
sg42
g1519
sbsg44
(dp2564
g1521
I0
sg1522
I0
sg1523
I0
sg1524
I0
ssg50
(dp2565
g1521
I0
sg1522
I0
sg1523
I0
sg1524
I0
ssg52
I22
sg53
g31
sg54
I0
sg55
I0
sg56
I0
sg57
I0
sg58
g1526
sg60
I00
sg61
g0
(g35
g2
Ntp2566
Rp2567
(dp2568
g39
I3
sg40
S'^^^'
p2569
sg42
g1599
sbsg62
(dp2570
g1521
I0
sg1522
I0
sg1523
I0
sg1524
I0
ssg64
(dp2571
g1521
I0
sg1522
I0
sg1523
I0
sg1524
I0
ssg66
(dp2572
g1521
I0
sg1522
I0
sg1523
I0
sg1524
I0
ssg68
(dp2573
g1521
I0
sg1522
I0
sg1523
I0
sg1524
I0
ssg70
I0
sg71
I0
sg72
S'Zofner'
p2574
sg74
I12
sg75
I0
sg76
I00
sg77
I24
sg78
(g1532
g1533
S'TA'
p2575
g31
tp2576
sg82
g31
sg83
(dp2577
g1537
I7
sg1538
I10
sg1539
I8
sg1540
I11
sg1541
I7
sg1542
I6
sg1543
I4
sg1544
I9
sg1545
I2
sg1546
I6
sg1547
I6
sg1548
I8
sg1549
I5
sg1550
I8
sg1551
I8
ssg100
(dp2578
S's12'
p2579
(ijoueur
joueur
p2580
(dp2581
g27
I0
sg28
I0
sg29
I0
sg32
I0
sg34
g0
(g35
g2
Ntp2582
Rp2583
(dp2584
g40
g31
sbsg44
(dp2585
g1521
I0
sg1522
I0
sg1523
I0
sg1524
I0
ssg50
(dp2586
g1521
I0
sg1522
I0
sg1523
I0
sg1524
I0
ssg52
I0
sg53
g31
sg54
I0
sg55
I0
sg56
I0
sg57
I0
sg78
(g1532
g1533
g31
g31
tp2587
sg60
I00
sg61
g0
(g35
g2
Ntp2588
Rp2589
(dp2590
g40
g31
sbsg62
(dp2591
g1521
I0
sg1522
I0
sg1523
I0
sg1524
I0
ssg64
(dp2592
g1521
I0
sg1522
I0
sg1523
I0
sg1524
I0
ssg66
(dp2593
g1521
I0
sg1522
I0
sg1523
I0
sg1524
I0
ssg68
(dp2594
g1521
I0
sg1522
I0
sg1523
I0
sg1524
I0
ssg70
I0
sg71
I0
sg72
S'Zofner (12)'
p2595
sg74
I0
sg75
I0
sg76
I00
sg77
I0
sg58
g31
sg83
(dp2596
g1547
I0
sg1538
I0
sg1539
I0
sg1540
I0
sg1545
I0
sg1537
I0
sg1543
I0
sg1544
I0
sg1541
I0
sg1546
I0
sg1542
I0
sg1548
I0
sg1549
I0
sg1550
I0
sg1551
I0
ssg100
(dp2597
sg120
I0
sg121
g31
sg122
I0
sg123
I0
sg124
F0.0
sg125
I0
sg126
I0
sg127
I0
sg128
(dp2598
g1537
I7
sg1538
I10
sg1539
I8
sg1540
I11
sg1545
I2
sg1543
I4
sg1542
I6
sg1544
I9
sg1541
I7
sg1546
I6
sg1547
I6
sg1548
I8
sg1549
I5
sg1550
I8
sg1551
I8
ssg129
I0
sg130
I0
sg131
I0
sg132
I0
sg133
I0
sg134
I0
sg135
I0
sg136
g31
sbssg120
I0
sg121
g31
sg122
I0
sg123
I0
sg124
F8.666666666666666
sg125
I0
sg126
I0
sg127
I0
sg128
g2598
sg129
I0
sg130
I0
sg131
I0
sg132
I0
sg133
I2
sg134
I0
sg135
I0
sg136
g1591
sbsS'n3'
p2599
(ijoueur
joueur
p2600
(dp2601
g27
I0
sg28
I0
sg29
I0
sg30
g31
sg32
I0
sg33
g31
sg34
g0
(g35
g2
Ntp2602
Rp2603
(dp2604
g39
I5
sg40
g1518
sg42
g1519
sbsg44
(dp2605
g1521
I0
sg1522
I0
sg1523
I0
sg1524
I0
ssg50
(dp2606
g1521
I0
sg1522
I0
sg1523
I0
sg1524
I0
ssg52
I15
sg53
g31
sg54
I0
sg55
I0
sg56
I0
sg57
I0
sg58
g1526
sg60
I00
sg61
g2603
sg62
(dp2607
g1521
I0
sg1522
I0
sg1523
I0
sg1524
I0
ssg64
(dp2608
g1521
I0
sg1522
I0
sg1523
I0
sg1524
I0
ssg66
(dp2609
g1521
I0
sg1522
I0
sg1523
I0
sg1524
I0
ssg68
(dp2610
g1521
I0
sg1522
I0
sg1523
I0
sg1524
I0
ssg70
I0
sg71
I0
sg72
S'Dardoec'
p2611
sg74
I3
sg75
I0
sg76
I00
sg77
I224
sg78
(g1532
g1533
g31
g31
tp2612
sg82
g31
sg83
(dp2613
g1537
I10
sg1538
I8
sg1539
I7
sg1540
I12
sg1541
I8
sg1542
I7
sg1543
I3
sg1544
I10
sg1545
I5
sg1546
I8
sg1547
I9
sg1548
I7
sg1549
I5
sg1550
I12
sg1551
I7
ssg100
(dp2614
S's12'
p2615
(ijoueur
joueur
p2616
(dp2617
g27
I0
sg28
I0
sg29
I0
sg32
I0
sg34
g0
(g35
g2
Ntp2618
Rp2619
(dp2620
g40
g31
sbsg44
(dp2621
g1521
I0
sg1522
I0
sg1523
I0
sg1524
I0
ssg50
(dp2622
g1521
I0
sg1522
I0
sg1523
I0
sg1524
I0
ssg52
I0
sg53
g31
sg54
I0
sg55
I0
sg56
I0
sg57
I0
sg78
(g1532
g1533
g31
g31
tp2623
sg60
I00
sg61
g0
(g35
g2
Ntp2624
Rp2625
(dp2626
g40
g31
sbsg62
(dp2627
g1521
I0
sg1522
I0
sg1523
I0
sg1524
I0
ssg64
(dp2628
g1521
I0
sg1522
I0
sg1523
I0
sg1524
I0
ssg66
(dp2629
g1521
I0
sg1522
I0
sg1523
I0
sg1524
I0
ssg68
(dp2630
g1521
I0
sg1522
I0
sg1523
I0
sg1524
I0
ssg70
I0
sg71
I0
sg72
S'Dardoec (12)'
p2631
sg74
I0
sg75
I0
sg76
I00
sg77
I0
sg58
g31
sg83
(dp2632
g1547
I0
sg1538
I0
sg1539
I0
sg1540
I0
sg1545
I0
sg1537
I0
sg1543
I0
sg1544
I0
sg1541
I0
sg1546
I0
sg1542
I0
sg1548
I0
sg1549
I0
sg1550
I0
sg1551
I0
ssg100
(dp2633
sg120
I0
sg121
g31
sg122
I0
sg123
I0
sg124
F0.0
sg125
I0
sg126
I0
sg127
I0
sg128
(dp2634
g1537
I10
sg1538
I8
sg1539
I7
sg1540
I12
sg1545
I5
sg1543
I3
sg1542
I7
sg1544
I10
sg1541
I8
sg1546
I8
sg1547
I9
sg1548
I7
sg1549
I5
sg1550
I12
sg1551
I7
ssg129
I0
sg130
I0
sg131
I0
sg132
I0
sg133
I0
sg134
I0
sg135
I0
sg136
g31
sbsS's11'
p2635
(ijoueur
joueur
p2636
(dp2637
g27
I0
sg28
I0
sg29
I0
sg32
I0
sg34
g0
(g35
g2
Ntp2638
Rp2639
(dp2640
g40
g31
sbsg44
(dp2641
g1521
I0
sg1522
I0
sg1523
I0
sg1524
I0
ssg50
(dp2642
g1521
I0
sg1522
I0
sg1523
I0
sg1524
I0
ssg52
I0
sg53
g31
sg54
I0
sg55
I0
sg56
I0
sg57
I0
sg78
g2623
sg60
I00
sg61
g0
(g35
g2
Ntp2643
Rp2644
(dp2645
g40
g31
sbsg62
(dp2646
g1521
I0
sg1522
I0
sg1523
I0
sg1524
I0
ssg64
(dp2647
g1521
I0
sg1522
I0
sg1523
I0
sg1524
I0
ssg66
(dp2648
g1521
I0
sg1522
I0
sg1523
I0
sg1524
I0
ssg68
(dp2649
g1521
I0
sg1522
I0
sg1523
I0
sg1524
I0
ssg70
I0
sg71
I0
sg72
S'Dardoec (11)'
p2650
sg74
I0
sg75
I0
sg76
I00
sg77
I0
sg58
g31
sg83
(dp2651
g1547
I0
sg1538
I0
sg1539
I0
sg1540
I0
sg1545
I0
sg1537
I0
sg1543
I0
sg1544
I0
sg1541
I0
sg1546
I0
sg1542
I0
sg1548
I0
sg1549
I0
sg1550
I0
sg1551
I0
ssg100
(dp2652
sg120
I0
sg121
g31
sg122
I0
sg123
I0
sg124
F0.0
sg125
I0
sg126
I0
sg127
I0
sg128
g2634
sg129
I0
sg130
I0
sg131
I0
sg132
I0
sg133
I0
sg134
I0
sg135
I0
sg136
g31
sbssg120
I0
sg121
g31
sg122
I0
sg123
I0
sg124
F9.296296296296296
sg125
I0
sg126
I0
sg127
I0
sg128
g2634
sg129
I0
sg130
I0
sg131
I0
sg132
I0
sg133
I22
sg134
I0
sg135
I0
sg136
g1591
sbsS'n4'
p2653
g1849
sS'n5'
p2654
g1793
sS'n6'
p2655
g1513
sS'n7'
p2656
g1707
ssS'remplacements'
p2657
(dp2658
g2134
S'n0'
p2659
sg2172
g2659
sg2299
g2659
sg2300
g2659
sg2337
g2659
sg2392
g2659
sg2393
g2659
ssbsS'fatigue_prise_en_compte'
p2660
I01
sS'nuls_championat'
p2661
I0
sb.