ccopy_reg
_reconstructor
p0
(cclub
club
p1
c__builtin__
object
p2
Ntp3
Rp4
(dp5
S'joues_championat'
p6
I15
sS'avertissement'
p7
I0
sS'pour_championat'
p8
I259
sS'contre_championat'
p9
I265
sS'_compo_defaut_fatigue'
p10
NsS'perdus_championat'
p11
I7
sS'difference_championat'
p12
I-6
sS'perdus_coupe'
p13
I1
sS'pour_coupe'
p14
I38
sS'gagnes_championat'
p15
I7
sS'bonus_defensif_championat'
p16
I2
sS'contre_coupe'
p17
I36
sS'joues_coupe'
p18
I2
sS'bonus_offensif_coupe'
p19
I0
sS'valeur'
p20
I2371
sS'bonus_defensif_coupe'
p21
I1
sS'joueurs'
p22
(dp23
S'DO'
p24
(lp25
(ijoueur
joueur
p26
(dp27
S'rouges_total'
p28
I0
sS'drop_ratees_total'
p29
I0
sS'drops_total'
p30
I0
sS'xp_total'
p31
F145.0421403469193
sS'poste3'
p32
S''
p33
sS'blessure'
p34
I0
sS'poste1'
p35
g33
sS'points_retraite'
p36
I0
sS'RG_max'
p37
g0
(cjoueur
rang_new
p38
g2
Ntp39
Rp40
(dp41
S'type_nb'
p42
I5
sS'rang'
p43
S'**'
p44
sS'type'
p45
S'seigneur'
p46
sbsS'MJ2_total'
p47
(dp48
S'SR'
p49
I0
sS'CT'
p50
I0
sS'CR'
p51
I0
sS'ST'
p52
I0
ssS'MJ3_total'
p53
(dp54
g49
I0
sg50
I0
sg51
I0
sg52
I0
ssS'rand_retraite'
p55
I10
sS'anciens_clubs'
p56
g33
sS'drop_rates_saison'
p57
I0
sS'xp_saison'
p58
F145.0421403469193
sS'essais_saison'
p59
I1
sS'penalite_ratees_saison'
p60
I0
sS'transformations_saison'
p61
I0
sS'club'
p62
S'CPH'
p63
sS'veut_partir'
p64
I00
sS'RG'
p65
g0
(g38
g2
Ntp66
Rp67
(dp68
g42
I2
sg43
S'<<'
p69
sg45
S'special'
p70
sbsS'MJ1'
p71
(dp72
g49
I0
sg50
I2
sg51
I14
sg52
I0
ssS'MS_probleme'
p73
I00
sS'MJ3'
p74
(dp75
g49
I0
sg50
I0
sg51
I0
sg52
I0
ssS'MJ1_total'
p76
(dp77
g49
I0
sg50
I2
sg51
I14
sg52
I0
ssS'penalites_total'
p78
I0
sS'penalites_saison'
p79
I0
sS'nom'
p80
S"Char'Sdess"
p81
sS'C'
p82
I12
sS'transformations_total'
p83
I0
sS'MJ2'
p84
(dp85
g49
I0
sg50
I0
sg51
I0
sg52
I0
ssS'VAL'
p86
I38
sS'bonus'
p87
I2
sS'retraite'
p88
I00
sS'poste2'
p89
g33
sS'D'
p90
I20
sS'caracs'
p91
(dp92
S'RP1'
p93
I6
sS'ME'
p94
I4
sS'RP2'
p95
I6
sS'E'
p96
I9
sS'P'
p97
I7
sS'JP'
p98
I6
sS'M'
p99
I9
sS'RP_tot'
p100
I7
sS'TO'
p101
I4
sS'PA'
p102
I8
sS'A'
p103
I8
sS'R'
p104
I6
sS'TB'
p105
I8
sS'PL'
p106
I9
sS'TA'
p107
I4
ssS'jj_passe'
p108
(dp109
S's13'
p110
(ijoueur
joueur
p111
(dp112
g28
I0
sg29
I0
sg30
I0
sg34
I0
sg37
g0
(g38
g2
Ntp113
Rp114
(dp115
g43
g33
sbsg47
(dp116
S'SR'
p117
I0
sS'ST'
p118
I0
sS'CR'
p119
I0
sS'CT'
p120
I0
ssg53
(dp121
g117
I0
sg118
I0
sg119
I0
sg120
I0
ssg90
I0
sg56
g33
sg61
I0
sg57
I0
sg59
I0
sg60
I0
sS'postes'
p122
(S'dummy'
p123
g33
g33
g33
tp124
sg62
g33
sg64
I00
sg65
g0
(g38
g2
Ntp125
Rp126
(dp127
g43
g33
sbsg71
(dp128
g117
I0
sg118
I0
sg119
I0
sg120
I0
ssg84
(dp129
g117
I0
sg118
I0
sg119
I0
sg120
I0
ssg74
(dp130
g117
I0
sg118
I0
sg119
I0
sg120
I0
ssg76
(dp131
g117
I0
sg118
I0
sg119
I0
sg120
I0
ssg78
I0
sg79
I0
sg80
g81
sg82
I0
sg83
I0
sg73
I00
sg86
I0
sS'caracs_sans_fatigue'
p132
g92
sg91
(dp133
S'A'
p134
I0
sS'ME'
p135
I0
sS'RP2'
p136
I0
sS'E'
p137
I0
sS'TO'
p138
I0
sS'RP1'
p139
I0
sS'JP'
p140
I0
sS'RP_tot'
p141
I0
sS'P'
p142
I0
sS'PA'
p143
I0
sS'M'
p144
I0
sS'R'
p145
I0
sS'TB'
p146
I0
sS'PL'
p147
I0
sS'TA'
p148
I0
ssg108
(dp149
sS'fatigue'
p150
I0
sS'changements_postes'
p151
g33
sS'blessures_total'
p152
I0
sS'XP'
p153
I0
sS'EV'
p154
F7.742857142857143
sS'penalite_ratees_total'
p155
I0
sS'blessures_saison'
p156
I0
sS'jaunes_total'
p157
I0
sS'transformation_ratees_saison'
p158
I0
sS'rouges_saison'
p159
I0
sS'transformation_ratees_total'
p160
I0
sS'drops_saison'
p161
I0
sS'MS'
p162
I0
sS'essais_total'
p163
I0
sS'jaunes_saison'
p164
I0
sS'ARM'
p165
g33
sbsS's12'
p166
(ijoueur
joueur
p167
(dp168
g28
I0
sg29
I0
sg30
I0
sg34
I0
sg37
g0
(g38
g2
Ntp169
Rp170
(dp171
g43
g33
sbsg47
(dp172
g49
I0
sg50
I0
sg51
I0
sg52
I0
ssg53
(dp173
g49
I0
sg50
I0
sg51
I0
sg52
I0
ssg56
g33
sg57
I0
sg59
I0
sg60
I0
sg61
I0
sg122
(S'dummy'
p174
g24
g33
g33
tp175
sg64
I00
sg65
g0
(g38
g2
Ntp176
Rp177
(dp178
g43
g33
sbsg71
(dp179
g49
I0
sg50
I0
sg51
I0
sg52
I0
ssg73
I00
sg74
(dp180
g49
I0
sg50
I0
sg51
I0
sg52
I0
ssg76
(dp181
g49
I0
sg50
I0
sg51
I0
sg52
I0
ssg78
I0
sg79
I0
sg80
g33
sg82
I0
sg83
I0
sg90
I0
sg86
I0
sg62
g63
sg91
(dp182
g103
I0
sg94
I0
sg95
I0
sg96
I0
sg97
I0
sg93
I0
sg98
I0
sg100
I0
sg101
I0
sg102
I0
sg99
I0
sg104
I0
sg105
I0
sg106
I0
sg107
I0
ssg108
(dp183
sg150
I0
sg151
g33
sg152
I0
sg156
I0
sg153
I0
sg154
F0.0
sg155
I0
sg84
(dp184
g49
I0
sg50
I0
sg51
I0
sg52
I0
ssg157
I0
sg132
g92
sg159
I0
sg160
I0
sg161
I0
sg158
I0
sg162
I0
sg163
I0
sg164
I0
sg165
g33
sbssg150
I0
sg151
g33
sg152
I0
sg153
I0
sg154
F7.742857142857143
sg155
I0
sg122
(g174
g24
g33
g33
tp185
sg156
I0
sg157
I0
sg132
g92
sg159
I0
sg160
I0
sg161
I0
sg158
I0
sg162
I3
sg163
I1
sg164
I0
sg165
S'ARA'
p186
sba(ijoueur
joueur
p187
(dp188
g28
I1
sg29
I3
sg30
I5
sg31
F136.30238399522037
sg32
g33
sg34
I0
sg35
g33
sg36
I0
sg37
g0
(g38
g2
Ntp189
Rp190
(dp191
g42
I4
sg43
S'*'
p192
sg45
S'heros'
p193
sbsg47
(dp194
g49
I0
sg50
I0
sg51
I0
sg52
I0
ssg53
(dp195
g49
I0
sg50
I0
sg51
I0
sg52
I0
ssg55
I10
sg56
g33
sg57
I3
sg58
F136.30238399522037
sg59
I0
sg60
I0
sg61
I0
sg62
g63
sg64
I00
sg65
g0
(g38
g2
Ntp196
Rp197
(dp198
g42
I2
sg43
g69
sg45
g70
sbsg71
(dp199
g49
I0
sg50
I14
sg51
I1
sg52
I0
ssg73
I00
sg74
(dp200
g49
I0
sg50
I0
sg51
I0
sg52
I0
ssg76
(dp201
g49
I0
sg50
I14
sg51
I1
sg52
I0
ssg78
I0
sg79
I0
sg80
S'Artenkh'
p202
sg82
I13
sg83
I0
sg84
(dp203
g49
I0
sg50
I0
sg51
I0
sg52
I0
ssg86
I52
sg87
I3
sg88
I00
sg89
g33
sg90
I25
sg91
(dp204
g93
I6
sg94
I3
sg95
I7
sg96
I10
sg97
I6
sg98
I7
sg99
I10
sg100
I7
sg101
I2
sg102
I8
sg103
I11
sg104
I7
sg105
I7
sg106
I9
sg107
I6
ssg108
(dp205
S's13'
p206
(ijoueur
joueur
p207
(dp208
g28
I0
sg29
I0
sg30
I0
sg34
I0
sg37
g0
(g38
g2
Ntp209
Rp210
(dp211
g43
g33
sbsg47
(dp212
g117
I0
sg118
I0
sg119
I0
sg120
I0
ssg53
(dp213
g117
I0
sg118
I0
sg119
I0
sg120
I0
ssg90
I0
sg56
g33
sg61
I0
sg57
I0
sg59
I0
sg60
I0
sg122
g124
sg62
g33
sg64
I00
sg65
g0
(g38
g2
Ntp214
Rp215
(dp216
g43
g33
sbsg71
(dp217
g117
I0
sg118
I0
sg119
I0
sg120
I0
ssg84
(dp218
g117
I0
sg118
I0
sg119
I0
sg120
I0
ssg74
(dp219
g117
I0
sg118
I0
sg119
I0
sg120
I0
ssg76
(dp220
g117
I0
sg118
I0
sg119
I0
sg120
I0
ssg78
I0
sg79
I0
sg80
g202
sg82
I0
sg83
I0
sg73
I00
sg86
I0
sg132
g204
sg91
(dp221
g134
I0
sg135
I0
sg136
I0
sg137
I0
sg138
I0
sg139
I0
sg140
I0
sg141
I0
sg142
I0
sg143
I0
sg144
I0
sg145
I0
sg146
I0
sg147
I0
sg148
I0
ssg108
(dp222
sg150
I0
sg151
g33
sg152
I0
sg153
I0
sg154
F8.242424242424242
sg155
I0
sg156
I0
sg157
I0
sg158
I0
sg159
I0
sg160
I0
sg161
I0
sg162
I0
sg163
I0
sg164
I0
sg165
g33
sbssg150
I0
sg151
g33
sg152
I0
sg153
I0
sg154
F8.242424242424242
sg155
I0
sg122
(g174
g24
g33
g33
tp223
sg156
I0
sg157
I0
sg132
g204
sg159
I1
sg160
I0
sg161
I5
sg158
I0
sg162
I5
sg163
I0
sg164
I0
sg165
g186
sbasS'DL'
p224
(lp225
(ijoueur
joueur
p226
(dp227
g28
I0
sg29
I0
sg30
I0
sg31
F135.901937092998
sg32
g33
sg34
I0
sg35
g33
sg36
I0
sg37
g0
(g38
g2
Ntp228
Rp229
(dp230
g42
I1
sg43
S'^'
p231
sg45
S'base'
p232
sbsg47
(dp233
g49
I0
sg50
I0
sg51
I0
sg52
I0
ssg53
(dp234
g49
I0
sg50
I0
sg51
I0
sg52
I0
ssg55
I10
sg56
g33
sg57
I0
sg58
F135.901937092998
sg59
I0
sg60
I0
sg61
I0
sg62
g63
sg64
I00
sg65
g229
sg71
(dp235
g49
I0
sg50
I4
sg51
I11
sg52
I0
ssg73
I01
sg74
(dp236
g49
I0
sg50
I0
sg51
I0
sg52
I0
ssg76
(dp237
g49
I0
sg50
I4
sg51
I11
sg52
I0
ssg78
I0
sg79
I0
sg80
S'Gladoiersh'
p238
sg82
I8
sg83
I0
sg84
(dp239
g49
I0
sg50
I0
sg51
I0
sg52
I0
ssg86
I6
sg87
I2
sg88
I00
sg89
g33
sg90
I15
sg91
(dp240
g93
I7
sg94
I9
sg95
I7
sg96
I8
sg97
I5
sg98
I3
sg99
I7
sg100
I8
sg101
I6
sg102
I6
sg103
I6
sg104
I10
sg105
I3
sg106
I8
sg107
I6
ssg108
(dp241
S's13'
p242
(ijoueur
joueur
p243
(dp244
g28
I0
sg29
I0
sg30
I0
sg34
I0
sg37
g0
(g38
g2
Ntp245
Rp246
(dp247
g43
g33
sbsg47
(dp248
g117
I0
sg118
I0
sg119
I0
sg120
I0
ssg53
(dp249
g117
I0
sg118
I0
sg119
I0
sg120
I0
ssg90
I0
sg56
g33
sg61
I0
sg57
I0
sg59
I0
sg60
I0
sg122
g124
sg62
g33
sg64
I00
sg65
g0
(g38
g2
Ntp250
Rp251
(dp252
g43
g33
sbsg71
(dp253
g117
I0
sg118
I0
sg119
I0
sg120
I0
ssg84
(dp254
g117
I0
sg118
I0
sg119
I0
sg120
I0
ssg74
(dp255
g117
I0
sg118
I0
sg119
I0
sg120
I0
ssg76
(dp256
g117
I0
sg118
I0
sg119
I0
sg120
I0
ssg78
I0
sg79
I0
sg80
g238
sg82
I0
sg83
I0
sg73
I00
sg86
I0
sg132
g240
sg91
(dp257
g134
I0
sg135
I0
sg136
I0
sg137
I0
sg138
I0
sg139
I0
sg140
I0
sg141
I0
sg142
I0
sg143
I0
sg144
I0
sg145
I0
sg146
I0
sg147
I0
sg148
I0
ssg108
(dp258
sg150
I0
sg151
g33
sg152
I0
sg153
I0
sg154
F8.407407407407407
sg155
I0
sg156
I0
sg157
I0
sg158
I0
sg159
I0
sg160
I0
sg161
I0
sg162
I0
sg163
I0
sg164
I0
sg165
g33
sbsS's12'
p259
(ijoueur
joueur
p260
(dp261
g28
I0
sg29
I0
sg30
I0
sg34
I0
sg37
g0
(g38
g2
Ntp262
Rp263
(dp264
g43
g33
sbsg47
(dp265
g49
I0
sg50
I0
sg51
I0
sg52
I0
ssg53
(dp266
g49
I0
sg50
I0
sg51
I0
sg52
I0
ssg56
g33
sg57
I0
sg59
I0
sg60
I0
sg61
I0
sg122
(g174
g224
g33
g33
tp267
sg64
I00
sg65
g0
(g38
g2
Ntp268
Rp269
(dp270
g43
g33
sbsg71
(dp271
g49
I0
sg50
I0
sg51
I0
sg52
I0
ssg73
I00
sg74
(dp272
g49
I0
sg50
I0
sg51
I0
sg52
I0
ssg76
(dp273
g49
I0
sg50
I0
sg51
I0
sg52
I0
ssg78
I0
sg79
I0
sg80
g33
sg82
I0
sg83
I0
sg90
I0
sg86
I0
sg62
g63
sg91
(dp274
g103
I0
sg94
I0
sg95
I0
sg96
I0
sg97
I0
sg93
I0
sg98
I0
sg100
I0
sg101
I0
sg102
I0
sg99
I0
sg104
I0
sg105
I0
sg106
I0
sg107
I0
ssg108
(dp275
sg150
I0
sg151
g33
sg152
I0
sg156
I0
sg153
I0
sg154
F0.0
sg155
I0
sg84
(dp276
g49
I0
sg50
I0
sg51
I0
sg52
I0
ssg157
I0
sg132
g240
sg159
I0
sg160
I0
sg161
I0
sg158
I0
sg162
I0
sg163
I0
sg164
I0
sg165
g33
sbsS's11'
p277
(ijoueur
joueur
p278
(dp279
g28
I0
sg29
I0
sg30
I0
sg34
I0
sg37
g0
(g38
g2
Ntp280
Rp281
(dp282
g43
g33
sbsg47
(dp283
g49
I0
sg50
I0
sg51
I0
sg52
I0
ssg53
(dp284
g49
I0
sg50
I0
sg51
I0
sg52
I0
ssg56
g33
sg57
I0
sg59
I0
sg60
I0
sg61
I0
sg122
g267
sg64
I00
sg65
g0
(g38
g2
Ntp285
Rp286
(dp287
g43
g33
sbsg71
(dp288
g49
I0
sg50
I0
sg51
I0
sg52
I0
ssg73
I00
sg74
(dp289
g49
I0
sg50
I0
sg51
I0
sg52
I0
ssg76
(dp290
g49
I0
sg50
I0
sg51
I0
sg52
I0
ssg78
I0
sg79
I0
sg80
g33
sg82
I0
sg83
I0
sg90
I0
sg86
I0
sg62
g63
sg91
(dp291
g103
I0
sg94
I0
sg95
I0
sg96
I0
sg97
I0
sg93
I0
sg98
I0
sg100
I0
sg101
I0
sg102
I0
sg99
I0
sg104
I0
sg105
I0
sg106
I0
sg107
I0
ssg108
(dp292
sg150
I0
sg151
g33
sg152
I0
sg156
I0
sg153
I0
sg154
F0.0
sg155
I0
sg84
(dp293
g49
I0
sg50
I0
sg51
I0
sg52
I0
ssg157
I0
sg132
g240
sg159
I0
sg160
I0
sg161
I0
sg158
I0
sg162
I0
sg163
I0
sg164
I0
sg165
g33
sbssg150
I0
sg151
g33
sg152
I0
sg153
I0
sg154
F8.407407407407407
sg155
I0
sg122
(g174
g224
S'TL'
p294
g33
tp295
sg156
I0
sg157
I0
sg132
g240
sg159
I0
sg160
I0
sg161
I0
sg158
I0
sg162
I0
sg163
I0
sg164
I0
sg165
g186
sba(ijoueur
joueur
p296
(dp297
g28
I0
sg29
I0
sg30
I0
sg31
F63.28014362506695
sg32
g33
sg34
I0
sg35
g33
sg36
I0
sg37
g0
(g38
g2
Ntp298
Rp299
(dp300
g42
I5
sg43
g44
sg45
g46
sbsg47
(dp301
g49
I0
sg50
I0
sg51
I0
sg52
I0
ssg53
(dp302
g49
I0
sg50
I0
sg51
I0
sg52
I0
ssg55
I10
sg56
g33
sg57
I0
sg58
F63.28014362506695
sg59
I0
sg60
I0
sg61
I0
sg62
g63
sg64
I00
sg65
g0
(g38
g2
Ntp303
Rp304
(dp305
g42
I1
sg43
S'<'
p306
sg45
g232
sbsg71
(dp307
g49
I0
sg50
I4
sg51
I3
sg52
I0
ssg73
I01
sg74
(dp308
g49
I0
sg50
I0
sg51
I0
sg52
I0
ssg76
(dp309
g49
I0
sg50
I4
sg51
I3
sg52
I0
ssg78
I0
sg79
I0
sg80
S'Gremens'
p310
sg82
I13
sg83
I0
sg84
(dp311
g49
I0
sg50
I0
sg51
I0
sg52
I0
ssg86
I11
sg87
I0
sg88
I00
sg89
g33
sg90
I22
sg91
(dp312
g93
I6
sg94
I7
sg95
I6
sg96
I8
sg97
I5
sg98
I2
sg99
I7
sg100
I7
sg101
I11
sg102
I7
sg103
I7
sg104
I7
sg105
I4
sg106
I9
sg107
I3
ssg108
(dp313
S's13'
p314
(ijoueur
joueur
p315
(dp316
g28
I0
sg29
I0
sg30
I0
sg34
I0
sg37
g0
(g38
g2
Ntp317
Rp318
(dp319
g43
g33
sbsg47
(dp320
g117
I0
sg118
I0
sg119
I0
sg120
I0
ssg53
(dp321
g117
I0
sg118
I0
sg119
I0
sg120
I0
ssg90
I0
sg56
g33
sg61
I0
sg57
I0
sg59
I0
sg60
I0
sg122
g124
sg62
g33
sg64
I00
sg65
g0
(g38
g2
Ntp322
Rp323
(dp324
g43
g33
sbsg71
(dp325
g117
I0
sg118
I0
sg119
I0
sg120
I0
ssg84
(dp326
g117
I0
sg118
I0
sg119
I0
sg120
I0
ssg74
(dp327
g117
I0
sg118
I0
sg119
I0
sg120
I0
ssg76
(dp328
g117
I0
sg118
I0
sg119
I0
sg120
I0
ssg78
I0
sg79
I0
sg80
g310
sg82
I0
sg83
I0
sg73
I00
sg86
I0
sg132
g312
sg91
(dp329
g134
I0
sg135
I0
sg136
I0
sg137
I0
sg138
I0
sg139
I0
sg140
I0
sg141
I0
sg142
I0
sg143
I0
sg144
I0
sg145
I0
sg146
I0
sg147
I0
sg148
I0
ssg108
(dp330
sg150
I0
sg151
g33
sg152
I0
sg153
I0
sg154
F8.176470588235293
sg155
I0
sg156
I0
sg157
I0
sg158
I0
sg159
I0
sg160
I0
sg161
I0
sg162
I0
sg163
I0
sg164
I0
sg165
g33
sbssg150
I0
sg151
g33
sg152
I0
sg153
I0
sg154
F8.176470588235293
sg155
I0
sg122
(g174
g224
g33
g33
tp331
sg156
I0
sg157
I0
sg132
g312
sg159
I0
sg160
I0
sg161
I0
sg158
I0
sg162
I1
sg163
I0
sg164
I0
sg165
g186
sba(ijoueur
joueur
p332
(dp333
g28
I1
sg29
I0
sg30
I0
sg31
F127.55458060214583
sg32
g33
sg34
I0
sg35
g33
sg36
I0
sg37
g0
(g38
g2
Ntp334
Rp335
(dp336
g42
I2
sg43
S'^^'
p337
sg45
g70
sbsg47
(dp338
g49
I0
sg50
I0
sg51
I0
sg52
I0
ssg53
(dp339
g49
I0
sg50
I0
sg51
I0
sg52
I0
ssg55
I10
sg56
g33
sg57
I0
sg58
F127.55458060214583
sg59
I0
sg60
I0
sg61
I0
sg62
g63
sg64
I01
sg65
g335
sg71
(dp340
g49
I0
sg50
I12
sg51
I2
sg52
I0
ssg73
I01
sg74
(dp341
g49
I0
sg50
I0
sg51
I0
sg52
I0
ssg76
(dp342
g49
I0
sg50
I12
sg51
I2
sg52
I0
ssg78
I0
sg79
I0
sg80
S'Mratoh'
p343
sg82
I9
sg83
I0
sg84
(dp344
g49
I0
sg50
I0
sg51
I0
sg52
I0
ssg86
I10
sg87
I3
sg88
I00
sg89
g33
sg90
I21
sg91
(dp345
g93
I7
sg94
I8
sg95
I6
sg96
I10
sg97
I4
sg98
I6
sg99
I9
sg100
I7
sg101
I11
sg102
I7
sg103
I8
sg104
I7
sg105
I4
sg106
I8
sg107
I3
ssg108
(dp346
S's13'
p347
(ijoueur
joueur
p348
(dp349
g28
I0
sg29
I0
sg30
I0
sg34
I0
sg37
g0
(g38
g2
Ntp350
Rp351
(dp352
g43
g33
sbsg47
(dp353
g117
I0
sg118
I0
sg119
I0
sg120
I0
ssg53
(dp354
g117
I0
sg118
I0
sg119
I0
sg120
I0
ssg90
I0
sg56
g33
sg61
I0
sg57
I0
sg59
I0
sg60
I0
sg122
g124
sg62
g33
sg64
I00
sg65
g0
(g38
g2
Ntp355
Rp356
(dp357
g43
g33
sbsg71
(dp358
g117
I0
sg118
I0
sg119
I0
sg120
I0
ssg84
(dp359
g117
I0
sg118
I0
sg119
I0
sg120
I0
ssg74
(dp360
g117
I0
sg118
I0
sg119
I0
sg120
I0
ssg76
(dp361
g117
I0
sg118
I0
sg119
I0
sg120
I0
ssg78
I0
sg79
I0
sg80
g343
sg82
I0
sg83
I0
sg73
I00
sg86
I0
sg132
g345
sg91
(dp362
g134
I0
sg135
I0
sg136
I0
sg137
I0
sg138
I0
sg139
I0
sg140
I0
sg141
I0
sg142
I0
sg143
I0
sg144
I0
sg145
I0
sg146
I0
sg147
I0
sg148
I0
ssg108
(dp363
sg150
I0
sg151
g33
sg152
I0
sg153
I0
sg154
F8.529411764705882
sg155
I0
sg156
I0
sg157
I0
sg158
I0
sg159
I0
sg160
I0
sg161
I0
sg162
I0
sg163
I0
sg164
I0
sg165
g33
sbsS's12'
p364
(ijoueur
joueur
p365
(dp366
g28
I0
sg29
I0
sg30
I0
sg34
I0
sg37
g0
(g38
g2
Ntp367
Rp368
(dp369
g43
g33
sbsg47
(dp370
g49
I0
sg50
I0
sg51
I0
sg52
I0
ssg53
(dp371
g49
I0
sg50
I0
sg51
I0
sg52
I0
ssg56
g33
sg57
I0
sg59
I0
sg60
I0
sg61
I0
sg122
(g174
g224
g33
g33
tp372
sg64
I00
sg65
g0
(g38
g2
Ntp373
Rp374
(dp375
g43
g33
sbsg71
(dp376
g49
I0
sg50
I0
sg51
I0
sg52
I0
ssg73
I00
sg74
(dp377
g49
I0
sg50
I0
sg51
I0
sg52
I0
ssg76
(dp378
g49
I0
sg50
I0
sg51
I0
sg52
I0
ssg78
I0
sg79
I0
sg80
g33
sg82
I0
sg83
I0
sg90
I0
sg86
I0
sg62
g63
sg91
(dp379
g103
I0
sg94
I0
sg95
I0
sg96
I0
sg97
I0
sg93
I0
sg98
I0
sg100
I0
sg101
I0
sg102
I0
sg99
I0
sg104
I0
sg105
I0
sg106
I0
sg107
I0
ssg108
(dp380
sg150
I0
sg151
g33
sg152
I0
sg156
I0
sg153
I0
sg154
F0.0
sg155
I0
sg84
(dp381
g49
I0
sg50
I0
sg51
I0
sg52
I0
ssg157
I0
sg132
g345
sg159
I0
sg160
I0
sg161
I0
sg158
I0
sg162
I0
sg163
I0
sg164
I0
sg165
g33
sbsS's11'
p382
(ijoueur
joueur
p383
(dp384
g28
I0
sg29
I0
sg30
I0
sg34
I0
sg37
g0
(g38
g2
Ntp385
Rp386
(dp387
g43
g33
sbsg47
(dp388
g49
I0
sg50
I0
sg51
I0
sg52
I0
ssg53
(dp389
g49
I0
sg50
I0
sg51
I0
sg52
I0
ssg56
g33
sg57
I0
sg59
I0
sg60
I0
sg61
I0
sg122
g372
sg64
I00
sg65
g0
(g38
g2
Ntp390
Rp391
(dp392
g43
g33
sbsg71
(dp393
g49
I0
sg50
I0
sg51
I0
sg52
I0
ssg73
I00
sg74
(dp394
g49
I0
sg50
I0
sg51
I0
sg52
I0
ssg76
(dp395
g49
I0
sg50
I0
sg51
I0
sg52
I0
ssg78
I0
sg79
I0
sg80
g33
sg82
I0
sg83
I0
sg90
I0
sg86
I0
sg62
g63
sg91
(dp396
g103
I0
sg94
I0
sg95
I0
sg96
I0
sg97
I0
sg93
I0
sg98
I0
sg100
I0
sg101
I0
sg102
I0
sg99
I0
sg104
I0
sg105
I0
sg106
I0
sg107
I0
ssg108
(dp397
sg150
I0
sg151
g33
sg152
I0
sg156
I0
sg153
I0
sg154
F0.0
sg155
I0
sg84
(dp398
g49
I0
sg50
I0
sg51
I0
sg52
I0
ssg157
I0
sg132
g345
sg159
I0
sg160
I0
sg161
I0
sg158
I0
sg162
I0
sg163
I0
sg164
I0
sg165
g33
sbssg150
I0
sg151
g33
sg152
I0
sg153
I0
sg154
F8.529411764705882
sg155
I0
sg122
(g174
g224
g33
g33
tp399
sg156
I0
sg157
I1
sg132
g345
sg159
I1
sg160
I0
sg161
I0
sg158
I0
sg162
I1
sg163
I0
sg164
I1
sg165
g186
sba(ijoueur
joueur
p400
(dp401
g28
I0
sg29
I0
sg30
I0
sg31
F198.93633152495778
sg32
g33
sg34
I0
sg35
g33
sg36
I0
sg37
g0
(g38
g2
Ntp402
Rp403
(dp404
g42
I4
sg43
S'x'
p405
sg45
g193
sbsg47
(dp406
g49
I0
sg50
I0
sg51
I0
sg52
I0
ssg53
(dp407
g49
I0
sg50
I0
sg51
I0
sg52
I0
ssg55
I10
sg56
g33
sg57
I0
sg58
F198.93633152495778
sg59
I1
sg60
I0
sg61
I0
sg62
g63
sg64
I00
sg65
g403
sg71
(dp408
g49
I6
sg50
I14
sg51
I1
sg52
I0
ssg73
I00
sg74
(dp409
g49
I0
sg50
I0
sg51
I0
sg52
I0
ssg76
(dp410
g49
I6
sg50
I14
sg51
I1
sg52
I0
ssg78
I0
sg79
I0
sg80
S'Trendesh'
p411
sg82
I6
sg83
I0
sg84
(dp412
g49
I0
sg50
I0
sg51
I0
sg52
I0
ssg86
I209
sg87
I3
sg88
I00
sg89
g33
sg90
I17
sg91
(dp413
g93
I9
sg94
I8
sg95
I8
sg96
I11
sg97
I5
sg98
I5
sg99
I8
sg100
I10
sg101
I12
sg102
I10
sg103
I10
sg104
I9
sg105
I7
sg106
I10
sg107
I6
ssg108
(dp414
S's13'
p415
(ijoueur
joueur
p416
(dp417
g28
I0
sg29
I0
sg30
I0
sg34
I0
sg37
g0
(g38
g2
Ntp418
Rp419
(dp420
g43
g33
sbsg47
(dp421
g117
I0
sg118
I0
sg119
I0
sg120
I0
ssg53
(dp422
g117
I0
sg118
I0
sg119
I0
sg120
I0
ssg90
I0
sg56
g33
sg61
I0
sg57
I0
sg59
I0
sg60
I0
sg122
g124
sg62
g33
sg64
I00
sg65
g0
(g38
g2
Ntp423
Rp424
(dp425
g43
g33
sbsg71
(dp426
g117
I0
sg118
I0
sg119
I0
sg120
I0
ssg84
(dp427
g117
I0
sg118
I0
sg119
I0
sg120
I0
ssg74
(dp428
g117
I0
sg118
I0
sg119
I0
sg120
I0
ssg76
(dp429
g117
I0
sg118
I0
sg119
I0
sg120
I0
ssg78
I0
sg79
I0
sg80
g411
sg82
I0
sg83
I0
sg73
I00
sg86
I0
sg132
g413
sg91
(dp430
g134
I0
sg135
I0
sg136
I0
sg137
I0
sg138
I0
sg139
I0
sg140
I0
sg141
I0
sg142
I0
sg143
I0
sg144
I0
sg145
I0
sg146
I0
sg147
I0
sg148
I0
ssg108
(dp431
sg150
I0
sg151
g33
sg152
I0
sg153
I0
sg154
F10.029411764705882
sg155
I0
sg156
I0
sg157
I0
sg158
I0
sg159
I0
sg160
I0
sg161
I0
sg162
I0
sg163
I0
sg164
I0
sg165
g33
sbsS's12'
p432
(ijoueur
joueur
p433
(dp434
g28
I0
sg29
I0
sg30
I0
sg34
I0
sg37
g0
(g38
g2
Ntp435
Rp436
(dp437
g43
g33
sbsg47
(dp438
g49
I0
sg50
I0
sg51
I0
sg52
I0
ssg53
(dp439
g49
I0
sg50
I0
sg51
I0
sg52
I0
ssg56
g33
sg57
I0
sg59
I0
sg60
I0
sg61
I0
sg122
(g174
g224
g33
g33
tp440
sg64
I00
sg65
g0
(g38
g2
Ntp441
Rp442
(dp443
g43
g33
sbsg71
(dp444
g49
I0
sg50
I0
sg51
I0
sg52
I0
ssg73
I00
sg74
(dp445
g49
I0
sg50
I0
sg51
I0
sg52
I0
ssg76
(dp446
g49
I0
sg50
I0
sg51
I0
sg52
I0
ssg78
I0
sg79
I0
sg80
g33
sg82
I0
sg83
I0
sg90
I0
sg86
I0
sg62
g63
sg91
(dp447
g103
I0
sg94
I0
sg95
I0
sg96
I0
sg97
I0
sg93
I0
sg98
I0
sg100
I0
sg101
I0
sg102
I0
sg99
I0
sg104
I0
sg105
I0
sg106
I0
sg107
I0
ssg108
(dp448
sg150
I0
sg151
g33
sg152
I0
sg156
I0
sg153
I0
sg154
F0.0
sg155
I0
sg84
(dp449
g49
I0
sg50
I0
sg51
I0
sg52
I0
ssg157
I0
sg132
g413
sg159
I0
sg160
I0
sg161
I0
sg158
I0
sg162
I0
sg163
I0
sg164
I0
sg165
g33
sbsS's11'
p450
(ijoueur
joueur
p451
(dp452
g28
I0
sg29
I0
sg30
I0
sg34
I0
sg37
g0
(g38
g2
Ntp453
Rp454
(dp455
g43
g33
sbsg47
(dp456
g49
I0
sg50
I0
sg51
I0
sg52
I0
ssg53
(dp457
g49
I0
sg50
I0
sg51
I0
sg52
I0
ssg56
g33
sg57
I0
sg59
I0
sg60
I0
sg61
I0
sg122
g440
sg64
I00
sg65
g0
(g38
g2
Ntp458
Rp459
(dp460
g43
g33
sbsg71
(dp461
g49
I0
sg50
I0
sg51
I0
sg52
I0
ssg73
I00
sg74
(dp462
g49
I0
sg50
I0
sg51
I0
sg52
I0
ssg76
(dp463
g49
I0
sg50
I0
sg51
I0
sg52
I0
ssg78
I0
sg79
I0
sg80
g33
sg82
I0
sg83
I0
sg90
I0
sg86
I0
sg62
g63
sg91
(dp464
g103
I0
sg94
I0
sg95
I0
sg96
I0
sg97
I0
sg93
I0
sg98
I0
sg100
I0
sg101
I0
sg102
I0
sg99
I0
sg104
I0
sg105
I0
sg106
I0
sg107
I0
ssg108
(dp465
sg150
I0
sg151
g33
sg152
I0
sg156
I0
sg153
I0
sg154
F0.0
sg155
I0
sg84
(dp466
g49
I0
sg50
I0
sg51
I0
sg52
I0
ssg157
I0
sg132
g413
sg159
I0
sg160
I0
sg161
I0
sg158
I0
sg162
I0
sg163
I0
sg164
I0
sg165
g33
sbssg150
I0
sg151
g33
sg152
I0
sg153
I0
sg154
F10.029411764705882
sg155
I0
sg122
(g174
g224
g33
g33
tp467
sg156
I0
sg157
I0
sg132
g413
sg159
I0
sg160
I0
sg161
I0
sg158
I0
sg162
I20
sg163
I1
sg164
I0
sg165
g186
sbasS'DM'
p468
(lp469
(ijoueur
joueur
p470
(dp471
g28
I0
sg29
I0
sg30
I0
sg31
F54.198685132643405
sg32
g33
sg34
I0
sg35
g33
sg36
I0
sg37
g0
(g38
g2
Ntp472
Rp473
(dp474
g42
I1
sg43
g231
sg45
g232
sbsg47
(dp475
g49
I0
sg50
I0
sg51
I0
sg52
I0
ssg53
(dp476
g49
I0
sg50
I0
sg51
I0
sg52
I0
ssg90
I14
sg56
g33
sg154
F7.064516129032258
sg57
I0
sg58
F54.198685132643405
sg59
I1
sg60
I0
sg61
I0
sg62
g63
sg64
I00
sg65
g473
sg71
(dp477
g49
I0
sg50
I5
sg51
I1
sg52
I0
ssg73
I00
sg74
(dp478
g49
I0
sg50
I0
sg51
I0
sg52
I0
ssg76
(dp479
g49
I0
sg50
I5
sg51
I1
sg52
I0
ssg78
I0
sg79
I0
sg80
S'Klager'
p480
sg82
I4
sg83
I0
sS'random_retraite'
p481
I5
sg86
I7
sg87
I1
sg88
I00
sg89
g33
sg91
(dp482
g93
I5
sg94
I4
sg95
I8
sg96
I8
sg97
I7
sg98
I6
sg99
I7
sg100
I8
sg101
I3
sg102
I7
sg103
I7
sg104
I6
sg105
I8
sg106
I6
sg107
I5
ssg108
(dp483
S's13'
p484
(ijoueur
joueur
p485
(dp486
g28
I0
sg29
I0
sg30
I0
sg34
I0
sg37
g0
(g38
g2
Ntp487
Rp488
(dp489
g43
g33
sbsg47
(dp490
g117
I0
sg118
I0
sg119
I0
sg120
I0
ssg53
(dp491
g117
I0
sg118
I0
sg119
I0
sg120
I0
ssg90
I0
sg56
g33
sg61
I0
sg57
I0
sg59
I0
sg60
I0
sg122
g124
sg62
g33
sg64
I00
sg65
g0
(g38
g2
Ntp492
Rp493
(dp494
g43
g33
sbsg71
(dp495
g117
I0
sg118
I0
sg119
I0
sg120
I0
ssg84
(dp496
g117
I0
sg118
I0
sg119
I0
sg120
I0
ssg74
(dp497
g117
I0
sg118
I0
sg119
I0
sg120
I0
ssg76
(dp498
g117
I0
sg118
I0
sg119
I0
sg120
I0
ssg78
I0
sg79
I0
sg80
g480
sg82
I0
sg83
I0
sg73
I00
sg86
I0
sg132
g482
sg91
(dp499
g134
I0
sg135
I0
sg136
I0
sg137
I0
sg138
I0
sg139
I0
sg140
I0
sg141
I0
sg142
I0
sg143
I0
sg144
I0
sg145
I0
sg146
I0
sg147
I0
sg148
I0
ssg108
(dp500
sg150
I0
sg151
g33
sg152
I0
sg153
I0
sg154
F7.064516129032258
sg155
I0
sg156
I0
sg157
I0
sg158
I0
sg159
I0
sg160
I0
sg161
I0
sg162
I0
sg163
I0
sg164
I0
sg165
g33
sbsS's12'
p501
(ijoueur
joueur
p502
(dp503
g28
I0
sg29
I0
sg30
I0
sg34
I0
sg37
g0
(g38
g2
Ntp504
Rp505
(dp506
g43
g33
sbsg47
(dp507
g49
I0
sg50
I0
sg51
I0
sg52
I0
ssg53
(dp508
g49
I0
sg50
I0
sg51
I0
sg52
I0
ssg56
g33
sg57
I0
sg59
I0
sg60
I0
sg61
I0
sg122
(g174
g468
g33
g33
tp509
sg64
I00
sg65
g0
(g38
g2
Ntp510
Rp511
(dp512
g43
g33
sbsg71
(dp513
g49
I0
sg50
I0
sg51
I0
sg52
I0
ssg73
I00
sg74
(dp514
g49
I0
sg50
I0
sg51
I0
sg52
I0
ssg76
(dp515
g49
I0
sg50
I0
sg51
I0
sg52
I0
ssg78
I0
sg79
I0
sg80
g33
sg82
I0
sg83
I0
sg90
I0
sg86
I0
sg62
g63
sg91
(dp516
g103
I0
sg94
I0
sg95
I0
sg96
I0
sg97
I0
sg93
I0
sg98
I0
sg100
I0
sg101
I0
sg102
I0
sg99
I0
sg104
I0
sg105
I0
sg106
I0
sg107
I0
ssg108
(dp517
sg150
I0
sg151
g33
sg152
I0
sg156
I0
sg153
I0
sg154
F0.0
sg155
I0
sg84
(dp518
g49
I0
sg50
I0
sg51
I0
sg52
I0
ssg157
I0
sg132
g482
sg159
I0
sg160
I0
sg161
I0
sg158
I0
sg162
I0
sg163
I0
sg164
I0
sg165
g33
sbsS's11'
p519
(ijoueur
joueur
p520
(dp521
g28
I0
sg29
I0
sg30
I0
sg34
I0
sg37
g0
(g38
g2
Ntp522
Rp523
(dp524
g43
g33
sbsg47
(dp525
g49
I0
sg50
I0
sg51
I0
sg52
I0
ssg53
(dp526
g49
I0
sg50
I0
sg51
I0
sg52
I0
ssg56
g33
sg57
I0
sg59
I0
sg60
I0
sg61
I0
sg122
g509
sg64
I00
sg65
g0
(g38
g2
Ntp527
Rp528
(dp529
g43
g33
sbsg71
(dp530
g49
I0
sg50
I0
sg51
I0
sg52
I0
ssg73
I00
sg74
(dp531
g49
I0
sg50
I0
sg51
I0
sg52
I0
ssg76
(dp532
g49
I0
sg50
I0
sg51
I0
sg52
I0
ssg78
I0
sg79
I0
sg80
g33
sg82
I0
sg83
I0
sg90
I0
sg86
I0
sg62
g63
sg91
(dp533
g103
I0
sg94
I0
sg95
I0
sg96
I0
sg97
I0
sg93
I0
sg98
I0
sg100
I0
sg101
I0
sg102
I0
sg99
I0
sg104
I0
sg105
I0
sg106
I0
sg107
I0
ssg108
(dp534
sg150
I0
sg151
g33
sg152
I0
sg156
I0
sg153
I0
sg154
F0.0
sg155
I0
sg84
(dp535
g49
I0
sg50
I0
sg51
I0
sg52
I0
ssg157
I0
sg132
g482
sg159
I0
sg160
I0
sg161
I0
sg158
I0
sg162
I0
sg163
I0
sg164
I0
sg165
g33
sbssg150
I0
sg151
g33
sg152
I0
sg153
I0
sg84
(dp536
g49
I0
sg50
I0
sg51
I0
sg52
I0
ssg155
I0
sg122
(g174
g468
g33
g33
tp537
sg156
I0
sg157
I0
sg132
g482
sg159
I0
sg160
I0
sg161
I0
sg158
I0
sg162
I0
sg163
I1
sg164
I0
sg165
g186
sba(ijoueur
joueur
p538
(dp539
g28
I0
sg29
I0
sg30
I0
sg31
F127.93875195589466
sg32
g33
sg34
I0
sg35
g33
sg36
I0
sg37
g0
(g38
g2
Ntp540
Rp541
(dp542
g42
I4
sg43
g192
sg45
g193
sbsg47
(dp543
g49
I0
sg50
I1
sg51
I1
sg52
I0
ssg53
(dp544
g49
I0
sg50
I0
sg51
I0
sg52
I0
ssg55
I10
sg56
g33
sg57
I0
sg58
F127.93875195589466
sg59
I2
sg60
I0
sg61
I0
sg62
g63
sg64
I00
sg65
g0
(g38
g2
Ntp545
Rp546
(dp547
g42
I1
sg43
g306
sg45
g232
sbsg71
(dp548
g49
I0
sg50
I12
sg51
I0
sg52
I0
ssg73
I01
sg74
(dp549
g49
I0
sg50
I0
sg51
I0
sg52
I0
ssg76
(dp550
g49
I0
sg50
I12
sg51
I0
sg52
I0
ssg78
I0
sg79
I0
sg80
S'Niersd'
p551
sg82
I13
sg83
I0
sg84
(dp552
g49
I0
sg50
I1
sg51
I1
sg52
I0
ssg86
I12
sg87
I3
sg88
I00
sg89
g33
sg90
I22
sg91
(dp553
g93
I6
sg94
I4
sg95
I9
sg96
I9
sg97
I8
sg98
I6
sg99
I7
sg100
I9
sg101
I4
sg102
I10
sg103
I8
sg104
I7
sg105
I9
sg106
I9
sg107
I5
ssg108
(dp554
S's13'
p555
(ijoueur
joueur
p556
(dp557
g28
I0
sg29
I0
sg30
I0
sg34
I0
sg37
g0
(g38
g2
Ntp558
Rp559
(dp560
g43
g33
sbsg47
(dp561
g117
I0
sg118
I0
sg119
I0
sg120
I0
ssg53
(dp562
g117
I0
sg118
I0
sg119
I0
sg120
I0
ssg90
I0
sg56
g33
sg61
I0
sg57
I0
sg59
I0
sg60
I0
sg122
g124
sg62
g33
sg64
I00
sg65
g0
(g38
g2
Ntp563
Rp564
(dp565
g43
g33
sbsg71
(dp566
g117
I0
sg118
I0
sg119
I0
sg120
I0
ssg84
(dp567
g117
I0
sg118
I0
sg119
I0
sg120
I0
ssg74
(dp568
g117
I0
sg118
I0
sg119
I0
sg120
I0
ssg76
(dp569
g117
I0
sg118
I0
sg119
I0
sg120
I0
ssg78
I0
sg79
I0
sg80
g551
sg82
I0
sg83
I0
sg73
I00
sg86
I0
sg132
g553
sg91
(dp570
g134
I0
sg135
I0
sg136
I0
sg137
I0
sg138
I0
sg139
I0
sg140
I0
sg141
I0
sg142
I0
sg143
I0
sg144
I0
sg145
I0
sg146
I0
sg147
I0
sg148
I0
ssg108
(dp571
sg150
I0
sg151
g33
sg152
I0
sg153
I0
sg154
F8.451612903225806
sg155
I0
sg156
I0
sg157
I0
sg158
I0
sg159
I0
sg160
I0
sg161
I0
sg162
I0
sg163
I0
sg164
I0
sg165
g33
sbssg150
I0
sg151
g33
sg152
I0
sg153
I0
sg154
F8.451612903225806
sg155
I0
sg122
(g174
g468
S'DO'
p572
S'CE'
p573
tp574
sg156
I0
sg157
I0
sg132
g553
sg159
I0
sg160
I0
sg161
I0
sg158
I0
sg162
I1
sg163
I2
sg164
I0
sg165
g186
sbasS'AI'
p575
(lp576
(ijoueur
joueur
p577
(dp578
g28
I0
sg29
I0
sg30
I0
sg31
F26.15478828544223
sg32
g33
sg34
I0
sg35
g33
sg36
I0
sg37
g0
(g38
g2
Ntp579
Rp580
(dp581
g42
I2
sg43
g69
sg45
g70
sbsg47
(dp582
g49
I0
sg50
I0
sg51
I0
sg52
I0
ssg53
(dp583
g49
I0
sg50
I0
sg51
I0
sg52
I0
ssg55
I10
sg56
g33
sg57
I0
sg58
F26.15478828544223
sg59
I1
sg60
I0
sg61
I0
sg62
g63
sg64
I00
sg65
g0
(g38
g2
Ntp584
Rp585
(dp586
g42
I1
sg43
g231
sg45
g232
sbsg71
(dp587
g49
I0
sg50
I2
sg51
I1
sg52
I0
ssg73
I01
sg74
(dp588
g49
I0
sg50
I0
sg51
I0
sg52
I0
ssg76
(dp589
g49
I0
sg50
I2
sg51
I1
sg52
I0
ssg78
I0
sg79
I0
sg80
S"Bysm'Akar"
p590
sg82
I13
sg83
I0
sg84
(dp591
g49
I0
sg50
I0
sg51
I0
sg52
I0
ssg86
I5
sg87
I0
sg88
I00
sg89
g33
sg90
I23
sg91
(dp592
g93
I9
sg94
I6
sg95
I7
sg96
I9
sg97
I9
sg98
I7
sg99
I10
sg100
I9
sg101
I4
sg102
I9
sg103
I9
sg104
I7
sg105
I7
sg106
I7
sg107
I1
ssg108
(dp593
S's13'
p594
(ijoueur
joueur
p595
(dp596
g28
I0
sg29
I0
sg30
I0
sg34
I0
sg37
g0
(g38
g2
Ntp597
Rp598
(dp599
g43
g33
sbsg47
(dp600
g117
I0
sg118
I0
sg119
I0
sg120
I0
ssg53
(dp601
g117
I0
sg118
I0
sg119
I0
sg120
I0
ssg90
I0
sg56
g33
sg61
I0
sg57
I0
sg59
I0
sg60
I0
sg122
g124
sg62
g33
sg64
I00
sg65
g0
(g38
g2
Ntp602
Rp603
(dp604
g43
g33
sbsg71
(dp605
g117
I0
sg118
I0
sg119
I0
sg120
I0
ssg84
(dp606
g117
I0
sg118
I0
sg119
I0
sg120
I0
ssg74
(dp607
g117
I0
sg118
I0
sg119
I0
sg120
I0
ssg76
(dp608
g117
I0
sg118
I0
sg119
I0
sg120
I0
ssg78
I0
sg79
I0
sg80
g590
sg82
I0
sg83
I0
sg73
I00
sg86
I0
sg132
g592
sg91
(dp609
g134
I0
sg135
I0
sg136
I0
sg137
I0
sg138
I0
sg139
I0
sg140
I0
sg141
I0
sg142
I0
sg143
I0
sg144
I0
sg145
I0
sg146
I0
sg147
I0
sg148
I0
ssg108
(dp610
sg150
I0
sg151
g33
sg152
I0
sg153
I0
sg154
F8.774193548387096
sg155
I0
sg156
I0
sg157
I0
sg158
I0
sg159
I0
sg160
I0
sg161
I0
sg162
I0
sg163
I0
sg164
I0
sg165
g33
sbssg150
I0
sg151
g33
sg152
I0
sg153
I0
sg154
F8.774193548387096
sg155
I0
sg122
(g174
g575
g33
g33
tp611
sg156
I0
sg157
I0
sg132
g592
sg159
I0
sg160
I0
sg161
I0
sg158
I0
sg162
I0
sg163
I1
sg164
I0
sg165
g186
sba(ijoueur
joueur
p612
(dp613
g28
I0
sg29
I0
sg30
I0
sg31
F17.37690022165704
sg32
g33
sg34
I0
sg35
g33
sg36
I-6
sg37
g0
(g38
g2
Ntp614
Rp615
(dp616
g42
I2
sg43
g337
sg45
g70
sbsg47
(dp617
g49
I0
sg50
I0
sg51
I0
sg52
I0
ssg53
(dp618
g49
I0
sg50
I0
sg51
I0
sg52
I0
ssg90
I12
sg56
g33
sg154
F8.225806451612904
sg57
I0
sg58
F17.37690022165704
sg59
I0
sg60
I0
sg61
I0
sg62
g63
sg64
I01
sg65
g615
sg71
(dp619
g49
I0
sg50
I0
sg51
I2
sg52
I0
ssg73
I01
sg74
(dp620
g49
I0
sg50
I0
sg51
I0
sg52
I0
ssg76
(dp621
g49
I0
sg50
I0
sg51
I2
sg52
I0
ssg78
I0
sg79
I0
sg80
S'Herhualesh'
p622
sg82
I4
sg83
I0
sg481
I10
sg86
I12
sg87
I0
sg88
I00
sg89
g33
sg91
(dp623
g93
I9
sg94
I5
sg95
I7
sg96
I10
sg97
I8
sg98
I6
sg99
I8
sg100
I9
sg101
I5
sg102
I8
sg103
I8
sg104
I7
sg105
I7
sg106
I7
sg107
I3
ssg108
(dp624
S's13'
p625
(ijoueur
joueur
p626
(dp627
g28
I0
sg29
I0
sg30
I0
sg34
I0
sg37
g0
(g38
g2
Ntp628
Rp629
(dp630
g43
g33
sbsg47
(dp631
g117
I0
sg118
I0
sg119
I0
sg120
I0
ssg53
(dp632
g117
I0
sg118
I0
sg119
I0
sg120
I0
ssg90
I0
sg56
g33
sg61
I0
sg57
I0
sg59
I0
sg60
I0
sg122
g124
sg62
g33
sg64
I00
sg65
g0
(g38
g2
Ntp633
Rp634
(dp635
g43
g33
sbsg71
(dp636
g117
I0
sg118
I0
sg119
I0
sg120
I0
ssg84
(dp637
g117
I0
sg118
I0
sg119
I0
sg120
I0
ssg74
(dp638
g117
I0
sg118
I0
sg119
I0
sg120
I0
ssg76
(dp639
g117
I0
sg118
I0
sg119
I0
sg120
I0
ssg78
I0
sg79
I0
sg80
g622
sg82
I0
sg83
I0
sg73
I00
sg86
I0
sg132
g623
sg91
(dp640
g134
I0
sg135
I0
sg136
I0
sg137
I0
sg138
I0
sg139
I0
sg140
I0
sg141
I0
sg142
I0
sg143
I0
sg144
I0
sg145
I0
sg146
I0
sg147
I0
sg148
I0
ssg108
(dp641
sg150
I0
sg151
g33
sg152
I0
sg153
I0
sg154
F8.225806451612904
sg155
I0
sg156
I0
sg157
I0
sg158
I0
sg159
I0
sg160
I0
sg161
I0
sg162
I0
sg163
I0
sg164
I0
sg165
g33
sbsS's12'
p642
(ijoueur
joueur
p643
(dp644
g28
I0
sg29
I0
sg30
I0
sg34
I0
sg37
g0
(g38
g2
Ntp645
Rp646
(dp647
g43
g33
sbsg47
(dp648
g49
I0
sg50
I0
sg51
I0
sg52
I0
ssg53
(dp649
g49
I0
sg50
I0
sg51
I0
sg52
I0
ssg56
g33
sg57
I0
sg59
I0
sg60
I0
sg61
I0
sg122
(g174
g575
g33
g33
tp650
sg64
I00
sg65
g0
(g38
g2
Ntp651
Rp652
(dp653
g43
g33
sbsg71
(dp654
g49
I0
sg50
I0
sg51
I0
sg52
I0
ssg73
I00
sg74
(dp655
g49
I0
sg50
I0
sg51
I0
sg52
I0
ssg76
(dp656
g49
I0
sg50
I0
sg51
I0
sg52
I0
ssg78
I0
sg79
I0
sg80
g33
sg82
I0
sg83
I0
sg90
I0
sg86
I0
sg62
g63
sg91
(dp657
g103
I0
sg94
I0
sg95
I0
sg96
I0
sg97
I0
sg93
I0
sg98
I0
sg100
I0
sg101
I0
sg102
I0
sg99
I0
sg104
I0
sg105
I0
sg106
I0
sg107
I0
ssg108
(dp658
sg150
I0
sg151
g33
sg152
I0
sg156
I0
sg153
I0
sg154
F0.0
sg155
I0
sg84
(dp659
g49
I0
sg50
I0
sg51
I0
sg52
I0
ssg157
I0
sg132
g623
sg159
I0
sg160
I0
sg161
I0
sg158
I0
sg162
I0
sg163
I0
sg164
I0
sg165
g33
sbsS's11'
p660
(ijoueur
joueur
p661
(dp662
g28
I0
sg29
I0
sg30
I0
sg34
I0
sg37
g0
(g38
g2
Ntp663
Rp664
(dp665
g43
g33
sbsg47
(dp666
g49
I0
sg50
I0
sg51
I0
sg52
I0
ssg53
(dp667
g49
I0
sg50
I0
sg51
I0
sg52
I0
ssg56
g33
sg57
I0
sg59
I0
sg60
I0
sg61
I0
sg122
g650
sg64
I00
sg65
g0
(g38
g2
Ntp668
Rp669
(dp670
g43
g33
sbsg71
(dp671
g49
I0
sg50
I0
sg51
I0
sg52
I0
ssg73
I00
sg74
(dp672
g49
I0
sg50
I0
sg51
I0
sg52
I0
ssg76
(dp673
g49
I0
sg50
I0
sg51
I0
sg52
I0
ssg78
I0
sg79
I0
sg80
g33
sg82
I0
sg83
I0
sg90
I0
sg86
I0
sg62
g63
sg91
(dp674
g103
I0
sg94
I0
sg95
I0
sg96
I0
sg97
I0
sg93
I0
sg98
I0
sg100
I0
sg101
I0
sg102
I0
sg99
I0
sg104
I0
sg105
I0
sg106
I0
sg107
I0
ssg108
(dp675
sg150
I0
sg151
g33
sg152
I0
sg156
I0
sg153
I0
sg154
F0.0
sg155
I0
sg84
(dp676
g49
I0
sg50
I0
sg51
I0
sg52
I0
ssg157
I0
sg132
g623
sg159
I0
sg160
I0
sg161
I0
sg158
I0
sg162
I0
sg163
I0
sg164
I0
sg165
g33
sbssg150
I0
sg151
g33
sg152
I0
sg153
I0
sg84
(dp677
g49
I0
sg50
I0
sg51
I0
sg52
I0
ssg155
I0
sg122
(g174
g575
g33
g33
tp678
sg156
I0
sg157
I0
sg132
g623
sg159
I0
sg160
I0
sg161
I0
sg158
I0
sg162
I1
sg163
I0
sg164
I0
sg165
S'ARA'
p679
sba(ijoueur
joueur
p680
(dp681
g28
I0
sg29
I0
sg30
I0
sg31
F200.0244414643391
sg32
g33
sg34
I0
sg35
g33
sg36
I0
sg37
g0
(g38
g2
Ntp682
Rp683
(dp684
g42
I4
sg43
g405
sg45
g193
sbsg47
(dp685
g49
I0
sg50
I1
sg51
I0
sg52
I0
ssg53
(dp686
g49
I0
sg50
I0
sg51
I0
sg52
I0
ssg55
I10
sg56
g33
sg57
I0
sg58
F200.0244414643391
sg59
I0
sg60
I0
sg61
I0
sg62
g63
sg64
I00
sg65
g683
sg71
(dp687
g49
I0
sg50
I13
sg51
I0
sg52
I7
ssg73
I01
sg74
(dp688
g49
I0
sg50
I0
sg51
I0
sg52
I0
ssg76
(dp689
g49
I0
sg50
I13
sg51
I0
sg52
I7
ssg78
I0
sg79
I0
sg80
S"Qel Harm'Deril"
p690
sg82
I9
sg83
I0
sg84
(dp691
g49
I0
sg50
I1
sg51
I0
sg52
I0
ssg86
I190
sg87
I3
sg88
I00
sg89
g33
sg90
I17
sg91
(dp692
g93
I8
sg94
I6
sg95
I9
sg96
I12
sg97
I10
sg98
I8
sg99
I10
sg100
I10
sg101
I9
sg102
I10
sg103
I15
sg104
I7
sg105
I8
sg106
I10
sg107
I4
ssg108
(dp693
S's13'
p694
(ijoueur
joueur
p695
(dp696
g28
I0
sg29
I0
sg30
I0
sg34
I0
sg37
g0
(g38
g2
Ntp697
Rp698
(dp699
g43
g33
sbsg47
(dp700
g117
I0
sg118
I0
sg119
I0
sg120
I0
ssg53
(dp701
g117
I0
sg118
I0
sg119
I0
sg120
I0
ssg90
I0
sg56
g33
sg61
I0
sg57
I0
sg59
I0
sg60
I0
sg122
g124
sg62
g33
sg64
I00
sg65
g0
(g38
g2
Ntp702
Rp703
(dp704
g43
g33
sbsg71
(dp705
g117
I0
sg118
I0
sg119
I0
sg120
I0
ssg84
(dp706
g117
I0
sg118
I0
sg119
I0
sg120
I0
ssg74
(dp707
g117
I0
sg118
I0
sg119
I0
sg120
I0
ssg76
(dp708
g117
I0
sg118
I0
sg119
I0
sg120
I0
ssg78
I0
sg79
I0
sg80
g690
sg82
I0
sg83
I0
sg73
I00
sg86
I0
sg132
g692
sg91
(dp709
g134
I0
sg135
I0
sg136
I0
sg137
I0
sg138
I0
sg139
I0
sg140
I0
sg141
I0
sg142
I0
sg143
I0
sg144
I0
sg145
I0
sg146
I0
sg147
I0
sg148
I0
ssg108
(dp710
sg150
I0
sg151
g33
sg152
I0
sg153
I0
sg154
F11.064516129032258
sg155
I0
sg156
I0
sg157
I0
sg158
I0
sg159
I0
sg160
I0
sg161
I0
sg162
I0
sg163
I0
sg164
I0
sg165
g33
sbsS's12'
p711
(ijoueur
joueur
p712
(dp713
g28
I0
sg29
I0
sg30
I0
sg34
I0
sg37
g0
(g38
g2
Ntp714
Rp715
(dp716
g43
g33
sbsg47
(dp717
g49
I0
sg50
I0
sg51
I0
sg52
I0
ssg53
(dp718
g49
I0
sg50
I0
sg51
I0
sg52
I0
ssg56
g33
sg57
I0
sg59
I0
sg60
I0
sg61
I0
sg122
(g174
g575
g33
g33
tp719
sg64
I00
sg65
g0
(g38
g2
Ntp720
Rp721
(dp722
g43
g33
sbsg71
(dp723
g49
I0
sg50
I0
sg51
I0
sg52
I0
ssg73
I00
sg74
(dp724
g49
I0
sg50
I0
sg51
I0
sg52
I0
ssg76
(dp725
g49
I0
sg50
I0
sg51
I0
sg52
I0
ssg78
I0
sg79
I0
sg80
g33
sg82
I0
sg83
I0
sg90
I0
sg86
I0
sg62
g63
sg91
(dp726
g103
I0
sg94
I0
sg95
I0
sg96
I0
sg97
I0
sg93
I0
sg98
I0
sg100
I0
sg101
I0
sg102
I0
sg99
I0
sg104
I0
sg105
I0
sg106
I0
sg107
I0
ssg108
(dp727
sg150
I0
sg151
g33
sg152
I0
sg156
I0
sg153
I0
sg154
F0.0
sg155
I0
sg84
(dp728
g49
I0
sg50
I0
sg51
I0
sg52
I0
ssg157
I0
sg132
g692
sg159
I0
sg160
I0
sg161
I0
sg158
I0
sg162
I0
sg163
I0
sg164
I0
sg165
g33
sbsS's11'
p729
(ijoueur
joueur
p730
(dp731
g28
I0
sg29
I0
sg30
I0
sg34
I0
sg37
g0
(g38
g2
Ntp732
Rp733
(dp734
g43
g33
sbsg47
(dp735
g49
I0
sg50
I0
sg51
I0
sg52
I0
ssg53
(dp736
g49
I0
sg50
I0
sg51
I0
sg52
I0
ssg56
g33
sg57
I0
sg59
I0
sg60
I0
sg61
I0
sg122
g719
sg64
I00
sg65
g0
(g38
g2
Ntp737
Rp738
(dp739
g43
g33
sbsg71
(dp740
g49
I0
sg50
I0
sg51
I0
sg52
I0
ssg73
I00
sg74
(dp741
g49
I0
sg50
I0
sg51
I0
sg52
I0
ssg76
(dp742
g49
I0
sg50
I0
sg51
I0
sg52
I0
ssg78
I0
sg79
I0
sg80
g33
sg82
I0
sg83
I0
sg90
I0
sg86
I0
sg62
g63
sg91
(dp743
g103
I0
sg94
I0
sg95
I0
sg96
I0
sg97
I0
sg93
I0
sg98
I0
sg100
I0
sg101
I0
sg102
I0
sg99
I0
sg104
I0
sg105
I0
sg106
I0
sg107
I0
ssg108
(dp744
sg150
I0
sg151
g33
sg152
I0
sg156
I0
sg153
I0
sg154
F0.0
sg155
I0
sg84
(dp745
g49
I0
sg50
I0
sg51
I0
sg52
I0
ssg157
I0
sg132
g692
sg159
I0
sg160
I0
sg161
I0
sg158
I0
sg162
I0
sg163
I0
sg164
I0
sg165
g33
sbssg150
I6
sg151
g33
sg152
I0
sg153
I0
sg154
F11.064516129032258
sg155
I0
sg122
(g174
g575
S'AR'
p746
g33
tp747
sg156
I0
sg157
I0
sg132
g692
sg159
I0
sg160
I0
sg161
I0
sg158
I0
sg162
I19
sg163
I0
sg164
I0
sg165
g186
sba(ijoueur
joueur
p748
(dp749
S'EV_saison_11'
p750
F10.612903225806452
sg28
I0
sS'EV_saison_12'
p751
F10.870967741935484
sg151
g33
sg30
I0
sg31
F200.25179626388368
sg32
g33
sg34
I0
sg35
g33
sg36
I0
sg37
g0
(g38
g2
Ntp752
Rp753
(dp754
g42
I4
sg43
S'x'
p755
sg45
S'heros'
p756
sbsg47
(dp757
S'SR'
p758
I0
sS'ST'
p759
I0
sS'CR'
p760
I0
sS'CT'
p761
I14
ssg53
(dp762
g758
I0
sg759
I0
sg760
I0
sg761
I0
ssS'xp'
p763
I0
sg55
I10
sg56
S'vide 13'
p764
sg57
I0
sg58
F200.25179626388368
sg59
I5
sg60
I2
sg61
I5
sg87
I3
sg64
I00
sg65
g753
sg71
(dp765
S'SR'
p766
I7
sS'CT'
p767
I0
sS'CR'
p768
I0
sS'ST'
p769
I0
ssg84
(dp770
g766
I0
sg767
I14
sg768
I0
sg769
I0
ssg74
(dp771
g766
I0
sg767
I0
sg768
I0
sg769
I0
ssg76
(dp772
g758
I7
sg759
I10
sg760
I0
sg761
I0
ssg78
I7
sg79
I7
sg80
S'Quaz'
p773
sg82
I4
sg83
I5
sg73
I00
sg86
I161
sg62
g63
sg88
I00
sg89
g33
sg90
I15
sg91
(dp774
S'RP1'
p775
I9
sS'ME'
p776
I4
sS'RP2'
p777
I10
sS'E'
p778
I10
sS'TO'
p779
I10
sS'M'
p780
I9
sS'JP'
p781
I8
sS'RP_tot'
p782
I11
sS'P'
p783
I11
sS'PA'
p784
I12
sS'A'
p785
I13
sS'R'
p786
I8
sS'TB'
p787
I10
sS'PL'
p788
I10
sS'TA'
p789
I3
ssg108
(dp790
S's13'
p791
(ijoueur
joueur
p792
(dp793
g28
I0
sg29
I0
sg30
I0
sg34
I0
sg37
g0
(g38
g2
Ntp794
Rp795
(dp796
g43
g33
sbsg47
(dp797
g117
I0
sg118
I0
sg119
I0
sg120
I0
ssg53
(dp798
g117
I0
sg118
I0
sg119
I0
sg120
I0
ssg90
I0
sg56
g33
sg61
I0
sg57
I0
sg59
I0
sg60
I0
sg122
g124
sg62
g33
sg64
I00
sg65
g0
(g38
g2
Ntp799
Rp800
(dp801
g43
g33
sbsg71
(dp802
g117
I0
sg118
I0
sg119
I0
sg120
I0
ssg84
(dp803
g117
I0
sg118
I0
sg119
I0
sg120
I0
ssg74
(dp804
g117
I0
sg118
I0
sg119
I0
sg120
I0
ssg76
(dp805
g117
I0
sg118
I0
sg119
I0
sg120
I0
ssg78
I0
sg79
I0
sg80
g773
sg82
I0
sg83
I0
sg73
I00
sg86
I0
sg132
g774
sg91
(dp806
g134
I0
sg135
I0
sg136
I0
sg137
I0
sg138
I0
sg139
I0
sg140
I0
sg141
I0
sg142
I0
sg143
I0
sg144
I0
sg145
I0
sg146
I0
sg147
I0
sg148
I0
ssg108
(dp807
sg150
I0
sg151
g33
sg152
I0
sg153
I0
sg154
F10.709677419354838
sg155
I0
sg156
I0
sg157
I0
sg158
I0
sg159
I0
sg160
I0
sg161
I0
sg162
I0
sg163
I0
sg164
I0
sg165
g33
sbsS's12'
p808
(ijoueur
joueur
p809
(dp810
g750
F10.612903225806452
sg28
I0
sg151
g33
sg30
I0
sg32
g33
sg34
I0
sg35
g33
sg37
g0
(g38
g2
Ntp811
Rp812
(dp813
g42
I4
sg43
S'x'
p814
sg45
S'heros'
p815
sbsg47
(dp816
S'SR'
p817
I0
sS'ST'
p818
I0
sS'CR'
p819
I0
sS'CT'
p820
I0
ssg53
(dp821
g817
I0
sg818
I0
sg819
I0
sg820
I0
ssg84
(dp822
S'SR'
p823
I0
sS'CT'
p824
I0
sS'CR'
p825
I0
sS'ST'
p826
I0
ssg56
g33
sg57
I0
sg59
I1
sg60
I0
sg61
I0
sg62
S'vide'
p827
sg64
I00
sg65
g812
sg71
(dp828
g823
I0
sg824
I0
sg825
I0
sg826
I7
ssg73
I00
sg74
(dp829
g823
I0
sg824
I0
sg825
I0
sg826
I0
ssg76
(dp830
g817
I0
sg818
I10
sg819
I0
sg820
I0
ssg78
I0
sg79
I0
sg80
S'Quaz'
p831
sg82
I4
sg83
I0
sg90
I15
sg86
I161
sg122
(S'dummy'
p832
S'AI'
p833
S'CE'
p834
g33
tp835
sg89
g33
sg91
(dp836
S'RP1'
p837
I9
sS'ME'
p838
I4
sS'RP2'
p839
I10
sS'E'
p840
I10
sS'TO'
p841
I10
sS'M'
p842
I9
sS'JP'
p843
I8
sS'RP_tot'
p844
I12
sS'P'
p845
I11
sS'PA'
p846
I12
sS'A'
p847
I13
sS'R'
p848
I7
sS'TB'
p849
I9
sS'PL'
p850
I10
sS'TA'
p851
I3
ssg108
(dp852
S's11'
p853
(ijoueur
joueur
p854
(dp855
g28
I0
sg30
I0
sg32
g33
sg34
I0
sg35
g33
sg37
g0
(g38
g2
Ntp856
Rp857
(dp858
g42
I4
sg43
S'x'
p859
sg45
S'heros'
p860
sbsg47
(dp861
S'SR'
p862
I0
sS'CT'
p863
I0
sS'CR'
p864
I0
sS'ST'
p865
I0
ssg53
(dp866
g862
I0
sg863
I0
sg864
I0
sg865
I0
ssg56
g33
sg57
I0
sg73
I00
sg59
I1
sg60
I0
sg61
I0
sg62
S'vide'
p867
sg64
I00
sg65
g857
sg71
(dp868
g862
I0
sg863
I0
sg864
I0
sg865
I3
ssg84
(dp869
g862
I0
sg863
I0
sg864
I0
sg865
I0
ssg74
(dp870
g862
I0
sg863
I0
sg864
I0
sg865
I0
ssg76
(dp871
g862
I0
sg863
I0
sg864
I0
sg865
I3
ssg78
I0
sg79
I0
sg80
S'Quaz'
p872
sg82
I4
sg83
I0
sg90
I15
sg86
I161
sg122
(S'dummy'
p873
S'AI'
p874
S'CE'
p875
g33
tp876
sg89
g33
sg91
(dp877
S'RP1'
p878
I9
sS'ME'
p879
I4
sS'RP2'
p880
I10
sS'E'
p881
I9
sS'P'
p882
I10
sS'JP'
p883
I8
sS'M'
p884
I9
sS'RP_tot'
p885
I12
sS'TO'
p886
I10
sS'PA'
p887
I11
sS'A'
p888
I13
sS'R'
p889
I7
sS'TB'
p890
I8
sS'PL'
p891
I10
sS'TA'
p892
I3
ssg150
I0
sg29
I0
sg152
I0
sg153
I0
sg154
F10.612903225806452
sg155
I0
sg156
I0
sg157
I0
sS'caracs_saison_11'
p893
(dp894
S'RP1'
p895
I9
sS'ME'
p896
I4
sS'RP2'
p897
I10
sS'E'
p898
I9
sS'P'
p899
I10
sS'JP'
p900
I8
sS'M'
p901
I9
sS'RP_tot'
p902
I12
sS'TO'
p903
I10
sS'PA'
p904
I11
sS'A'
p905
I13
sS'R'
p906
I7
sS'TB'
p907
I8
sS'PL'
p908
I10
sS'TA'
p909
I3
ssg132
g877
sg159
I0
sg160
I0
sg161
I0
sg158
I0
sg162
I15
sg163
I1
sg164
I0
sg165
S'ARA'
p910
sbssg150
I10
sg29
I0
sg152
I0
sg153
I0
sg154
F10.870967741935484
sg155
I0
sg156
I0
sg157
I0
sg893
(dp911
g837
I9
sg838
I4
sg839
I10
sg840
I9
sg845
I10
sg843
I8
sg842
I9
sg844
I12
sg841
I10
sg846
I11
sg847
I13
sg848
I7
sg849
I8
sg850
I10
sg851
I3
ssg132
g836
sg159
I0
sg160
I0
sg161
I0
sg158
I0
sg162
I15
sg163
I2
sg164
I0
sg165
S'ARA'
p912
sbsS's11'
p913
(ijoueur
joueur
p914
(dp915
g28
I0
sg30
I0
sg32
g33
sg34
I0
sg35
g33
sg37
g0
(g38
g2
Ntp916
Rp917
(dp918
g42
I4
sg43
S'x'
p919
sg45
S'heros'
p920
sbsg47
(dp921
S'SR'
p922
I0
sS'CT'
p923
I0
sS'CR'
p924
I0
sS'ST'
p925
I0
ssg53
(dp926
g922
I0
sg923
I0
sg924
I0
sg925
I0
ssg56
g33
sg57
I0
sg73
I00
sg59
I1
sg60
I0
sg61
I0
sg62
S'vide'
p927
sg64
I00
sg65
g917
sg71
(dp928
g922
I0
sg923
I0
sg924
I0
sg925
I3
ssg84
(dp929
g922
I0
sg923
I0
sg924
I0
sg925
I0
ssg74
(dp930
g922
I0
sg923
I0
sg924
I0
sg925
I0
ssg76
(dp931
g922
I0
sg923
I0
sg924
I0
sg925
I3
ssg78
I0
sg79
I0
sg80
S'Quaz'
p932
sg82
I4
sg83
I0
sg90
I15
sg86
I161
sg122
(S'dummy'
p933
S'AI'
p934
S'CE'
p935
g33
tp936
sg89
g33
sg91
(dp937
S'RP1'
p938
I9
sS'ME'
p939
I4
sS'RP2'
p940
I10
sS'E'
p941
I9
sS'P'
p942
I10
sS'JP'
p943
I8
sS'M'
p944
I9
sS'RP_tot'
p945
I12
sS'TO'
p946
I10
sS'PA'
p947
I11
sS'A'
p948
I13
sS'R'
p949
I7
sS'TB'
p950
I8
sS'PL'
p951
I10
sS'TA'
p952
I3
ssg150
I0
sg29
I0
sg152
I0
sg153
I0
sg154
F10.612903225806452
sg155
I0
sg156
I0
sg157
I0
sg893
(dp953
S'RP1'
p954
I9
sS'ME'
p955
I4
sS'RP2'
p956
I10
sS'E'
p957
I9
sS'P'
p958
I10
sS'JP'
p959
I8
sS'M'
p960
I9
sS'RP_tot'
p961
I12
sS'TO'
p962
I10
sS'PA'
p963
I11
sS'A'
p964
I13
sS'R'
p965
I7
sS'TB'
p966
I8
sS'PL'
p967
I10
sS'TA'
p968
I3
ssg132
g937
sg159
I0
sg160
I0
sg161
I0
sg158
I0
sg162
I15
sg163
I1
sg164
I0
sg165
S'ARA'
p969
sbssg150
I1
sg29
I0
sg152
I0
sg153
I0
sg154
F10.709677419354838
sg155
I2
sg122
(S'dummy'
p970
S'AI'
p971
S'CE'
p972
g33
tp973
sg156
I0
sg157
I0
sg893
(dp974
g775
I9
sg776
I4
sg777
I10
sg778
I9
sg783
I10
sg781
I8
sg780
I9
sg782
I12
sg779
I10
sg784
I11
sg785
I13
sg786
I7
sg787
I8
sg788
I10
sg789
I3
ssg132
g774
sg159
I0
sS'caracs_saison_12'
p975
(dp976
sg160
I1
sg161
I0
sg158
I1
sg162
I15
sg163
I7
sg164
I0
sg165
S'ARA'
p977
sbasS'espoirs'
p978
(lp979
sS'CE'
p980
(lp981
(ijoueur
joueur
p982
(dp983
g28
I0
sg29
I0
sg30
I0
sg31
F36.07404400606927
sg32
g33
sg34
I0
sg35
g33
sg36
I0
sg37
g0
(g38
g2
Ntp984
Rp985
(dp986
g42
I4
sg43
g192
sg45
g193
sbsg47
(dp987
g49
I0
sg50
I0
sg51
I0
sg52
I0
ssg53
(dp988
g49
I0
sg50
I0
sg51
I0
sg52
I0
ssg55
I10
sg56
g33
sg57
I0
sg58
F36.07404400606927
sg59
I0
sg60
I0
sg61
I0
sg62
g63
sg64
I00
sg65
g0
(g38
g2
Ntp989
Rp990
(dp991
g42
I2
sg43
g337
sg45
g70
sbsg71
(dp992
g49
I0
sg50
I1
sg51
I3
sg52
I0
ssg73
I01
sg74
(dp993
g49
I0
sg50
I0
sg51
I0
sg52
I0
ssg76
(dp994
g49
I0
sg50
I1
sg51
I3
sg52
I0
ssg78
I0
sg79
I0
sg80
S'Chrestir'
p995
sg82
I13
sg83
I0
sg84
(dp996
g49
I0
sg50
I0
sg51
I0
sg52
I0
ssg86
I12
sg87
I0
sg88
I00
sg89
g33
sg90
I25
sg91
(dp997
g93
I8
sg94
I4
sg95
I7
sg96
I10
sg97
I9
sg98
I7
sg99
I8
sg100
I9
sg101
I4
sg102
I9
sg103
I9
sg104
I8
sg105
I7
sg106
I9
sg107
I3
ssg108
(dp998
S's13'
p999
(ijoueur
joueur
p1000
(dp1001
g28
I0
sg29
I0
sg30
I0
sg34
I0
sg37
g0
(g38
g2
Ntp1002
Rp1003
(dp1004
g43
g33
sbsg47
(dp1005
g117
I0
sg118
I0
sg119
I0
sg120
I0
ssg53
(dp1006
g117
I0
sg118
I0
sg119
I0
sg120
I0
ssg90
I0
sg56
g33
sg61
I0
sg57
I0
sg59
I0
sg60
I0
sg122
g124
sg62
g33
sg64
I00
sg65
g0
(g38
g2
Ntp1007
Rp1008
(dp1009
g43
g33
sbsg71
(dp1010
g117
I0
sg118
I0
sg119
I0
sg120
I0
ssg84
(dp1011
g117
I0
sg118
I0
sg119
I0
sg120
I0
ssg74
(dp1012
g117
I0
sg118
I0
sg119
I0
sg120
I0
ssg76
(dp1013
g117
I0
sg118
I0
sg119
I0
sg120
I0
ssg78
I0
sg79
I0
sg80
g995
sg82
I0
sg83
I0
sg73
I00
sg86
I0
sg132
g997
sg91
(dp1014
g134
I0
sg135
I0
sg136
I0
sg137
I0
sg138
I0
sg139
I0
sg140
I0
sg141
I0
sg142
I0
sg143
I0
sg144
I0
sg145
I0
sg146
I0
sg147
I0
sg148
I0
ssg108
(dp1015
sg150
I0
sg151
g33
sg152
I0
sg153
I0
sg154
F8.89655172413793
sg155
I0
sg156
I0
sg157
I0
sg158
I0
sg159
I0
sg160
I0
sg161
I0
sg162
I0
sg163
I0
sg164
I0
sg165
g33
sbssg150
I0
sg151
g33
sg152
I0
sg153
I0
sg154
F8.89655172413793
sg155
I0
sg122
(g174
S'C2'
p1016
g33
g33
tp1017
sg156
I0
sg157
I0
sg132
g997
sg159
I0
sg160
I0
sg161
I0
sg158
I0
sg162
I1
sg163
I0
sg164
I0
sg165
g186
sba(ijoueur
joueur
p1018
(dp1019
g28
I0
sg29
I2
sg30
I4
sg31
F109.73099503781893
sg32
g33
sg34
I0
sg35
g33
sg36
I-8
sg37
g0
(g38
g2
Ntp1020
Rp1021
(dp1022
g42
I5
sg43
S'xx'
p1023
sg45
g46
sbsg47
(dp1024
g49
I0
sg50
I1
sg51
I0
sg52
I0
ssg53
(dp1025
g49
I0
sg50
I0
sg51
I0
sg52
I0
ssg90
I12
sg56
g33
sg154
F10.0
sg57
I2
sg58
F109.73099503781893
sg59
I3
sg60
I5
sg61
I13
sg62
g63
sg64
I00
sg65
g1021
sg71
(dp1026
g49
I0
sg50
I11
sg51
I0
sg52
I0
ssg73
I00
sg74
(dp1027
g49
I0
sg50
I0
sg51
I0
sg52
I0
ssg76
(dp1028
g49
I0
sg50
I11
sg51
I0
sg52
I0
ssg78
I35
sg79
I35
sg80
S'Romendt'
p1029
sg82
I5
sg83
I13
sg481
I7
sg86
I184
sg87
I1
sg88
I00
sg89
g33
sg91
(dp1030
g93
I10
sg94
I6
sg95
I10
sg96
I10
sg97
I11
sg98
I10
sg99
I8
sg100
I12
sg101
I7
sg102
I10
sg103
I10
sg104
I8
sg105
I10
sg106
I10
sg107
I5
ssg108
(dp1031
S's13'
p1032
(ijoueur
joueur
p1033
(dp1034
g28
I0
sg29
I0
sg30
I0
sg34
I0
sg37
g0
(g38
g2
Ntp1035
Rp1036
(dp1037
g43
g33
sbsg47
(dp1038
g117
I0
sg118
I0
sg119
I0
sg120
I0
ssg53
(dp1039
g117
I0
sg118
I0
sg119
I0
sg120
I0
ssg90
I0
sg56
g33
sg61
I0
sg57
I0
sg59
I0
sg60
I0
sg122
g124
sg62
g33
sg64
I00
sg65
g0
(g38
g2
Ntp1040
Rp1041
(dp1042
g43
g33
sbsg71
(dp1043
g117
I0
sg118
I0
sg119
I0
sg120
I0
ssg84
(dp1044
g117
I0
sg118
I0
sg119
I0
sg120
I0
ssg74
(dp1045
g117
I0
sg118
I0
sg119
I0
sg120
I0
ssg76
(dp1046
g117
I0
sg118
I0
sg119
I0
sg120
I0
ssg78
I0
sg79
I0
sg80
g1029
sg82
I0
sg83
I0
sg73
I00
sg86
I0
sg132
g1030
sg91
(dp1047
g134
I0
sg135
I0
sg136
I0
sg137
I0
sg138
I0
sg139
I0
sg140
I0
sg141
I0
sg142
I0
sg143
I0
sg144
I0
sg145
I0
sg146
I0
sg147
I0
sg148
I0
ssg108
(dp1048
sg150
I0
sg151
g33
sg152
I0
sg153
I0
sg154
F10.0
sg155
I0
sg156
I0
sg157
I0
sg158
I0
sg159
I0
sg160
I0
sg161
I0
sg162
I0
sg163
I0
sg164
I0
sg165
g33
sbsS's12'
p1049
(ijoueur
joueur
p1050
(dp1051
g28
I0
sg29
I0
sg30
I0
sg34
I0
sg37
g0
(g38
g2
Ntp1052
Rp1053
(dp1054
g43
g33
sbsg47
(dp1055
g49
I0
sg50
I0
sg51
I0
sg52
I0
ssg53
(dp1056
g49
I0
sg50
I0
sg51
I0
sg52
I0
ssg56
g33
sg57
I0
sg59
I0
sg60
I0
sg61
I0
sg122
(g174
g980
g33
g33
tp1057
sg64
I00
sg65
g0
(g38
g2
Ntp1058
Rp1059
(dp1060
g43
g33
sbsg71
(dp1061
g49
I0
sg50
I0
sg51
I0
sg52
I0
ssg73
I00
sg74
(dp1062
g49
I0
sg50
I0
sg51
I0
sg52
I0
ssg76
(dp1063
g49
I0
sg50
I0
sg51
I0
sg52
I0
ssg78
I0
sg79
I0
sg80
g33
sg82
I0
sg83
I0
sg90
I0
sg86
I0
sg62
g63
sg91
(dp1064
g103
I0
sg94
I0
sg95
I0
sg96
I0
sg97
I0
sg93
I0
sg98
I0
sg100
I0
sg101
I0
sg102
I0
sg99
I0
sg104
I0
sg105
I0
sg106
I0
sg107
I0
ssg108
(dp1065
sg150
I0
sg151
g33
sg152
I0
sg156
I0
sg153
I0
sg154
F0.0
sg155
I0
sg84
(dp1066
g49
I0
sg50
I0
sg51
I0
sg52
I0
ssg157
I0
sg132
g1030
sg159
I0
sg160
I0
sg161
I0
sg158
I0
sg162
I0
sg163
I0
sg164
I0
sg165
g33
sbsS's11'
p1067
(ijoueur
joueur
p1068
(dp1069
g28
I0
sg29
I0
sg30
I0
sg34
I0
sg37
g0
(g38
g2
Ntp1070
Rp1071
(dp1072
g43
g33
sbsg47
(dp1073
g49
I0
sg50
I0
sg51
I0
sg52
I0
ssg53
(dp1074
g49
I0
sg50
I0
sg51
I0
sg52
I0
ssg56
g33
sg57
I0
sg59
I0
sg60
I0
sg61
I0
sg122
g1057
sg64
I00
sg65
g0
(g38
g2
Ntp1075
Rp1076
(dp1077
g43
g33
sbsg71
(dp1078
g49
I0
sg50
I0
sg51
I0
sg52
I0
ssg73
I00
sg74
(dp1079
g49
I0
sg50
I0
sg51
I0
sg52
I0
ssg76
(dp1080
g49
I0
sg50
I0
sg51
I0
sg52
I0
ssg78
I0
sg79
I0
sg80
g33
sg82
I0
sg83
I0
sg90
I0
sg86
I0
sg62
g63
sg91
(dp1081
g103
I0
sg94
I0
sg95
I0
sg96
I0
sg97
I0
sg93
I0
sg98
I0
sg100
I0
sg101
I0
sg102
I0
sg99
I0
sg104
I0
sg105
I0
sg106
I0
sg107
I0
ssg108
(dp1082
sg150
I0
sg151
g33
sg152
I0
sg156
I0
sg153
I0
sg154
F0.0
sg155
I0
sg84
(dp1083
g49
I0
sg50
I0
sg51
I0
sg52
I0
ssg157
I0
sg132
g1030
sg159
I0
sg160
I0
sg161
I0
sg158
I0
sg162
I0
sg163
I0
sg164
I0
sg165
g33
sbssg150
I0
sg151
g33
sg152
I1
sg153
I0
sg84
(dp1084
g49
I0
sg50
I1
sg51
I0
sg52
I0
ssg155
I5
sg122
(g174
S'C1'
p1085
S'AI'
p1086
g33
tp1087
sg156
I1
sg157
I0
sg132
g1030
sg159
I0
sg160
I2
sg161
I4
sg158
I2
sg162
I18
sg163
I3
sg164
I0
sg165
S'EMP'
p1088
sba(ijoueur
joueur
p1089
(dp1090
g28
I0
sg29
I0
sg30
I0
sg31
F72.24716222630178
sg32
g33
sg34
I0
sg35
g33
sg36
I1
sg37
g0
(g38
g2
Ntp1091
Rp1092
(dp1093
g42
I2
sg43
g69
sg45
g70
sbsg47
(dp1094
g49
I0
sg50
I1
sg51
I6
sg52
I0
ssg53
(dp1095
g49
I0
sg50
I0
sg51
I0
sg52
I0
ssg90
I13
sg56
g33
sg154
F8.862068965517242
sg57
I0
sg58
F72.24716222630178
sg59
I0
sg60
I0
sg61
I0
sg62
g63
sg64
I00
sg65
g1092
sg71
(dp1096
g49
I0
sg50
I0
sg51
I1
sg52
I0
ssg73
I00
sg74
(dp1097
g49
I0
sg50
I0
sg51
I0
sg52
I0
ssg76
(dp1098
g49
I0
sg50
I0
sg51
I1
sg52
I0
ssg78
I0
sg79
I0
sg80
S"Varsh'Ed"
p1099
sg82
I4
sg83
I0
sg481
I5
sg86
I45
sg87
I0
sg88
I00
sg89
g33
sg91
(dp1100
g93
I9
sg94
I5
sg95
I7
sg96
I9
sg97
I7
sg98
I7
sg99
I11
sg100
I9
sg101
I5
sg102
I8
sg103
I9
sg104
I8
sg105
I7
sg106
I9
sg107
I6
ssg108
(dp1101
S's13'
p1102
(ijoueur
joueur
p1103
(dp1104
g28
I0
sg29
I0
sg30
I0
sg34
I0
sg37
g0
(g38
g2
Ntp1105
Rp1106
(dp1107
g43
g33
sbsg47
(dp1108
g117
I0
sg118
I0
sg119
I0
sg120
I0
ssg53
(dp1109
g117
I0
sg118
I0
sg119
I0
sg120
I0
ssg90
I0
sg56
g33
sg61
I0
sg57
I0
sg59
I0
sg60
I0
sg122
g124
sg62
g33
sg64
I00
sg65
g0
(g38
g2
Ntp1110
Rp1111
(dp1112
g43
g33
sbsg71
(dp1113
g117
I0
sg118
I0
sg119
I0
sg120
I0
ssg84
(dp1114
g117
I0
sg118
I0
sg119
I0
sg120
I0
ssg74
(dp1115
g117
I0
sg118
I0
sg119
I0
sg120
I0
ssg76
(dp1116
g117
I0
sg118
I0
sg119
I0
sg120
I0
ssg78
I0
sg79
I0
sg80
g1099
sg82
I0
sg83
I0
sg73
I00
sg86
I0
sg132
g1100
sg91
(dp1117
g134
I0
sg135
I0
sg136
I0
sg137
I0
sg138
I0
sg139
I0
sg140
I0
sg141
I0
sg142
I0
sg143
I0
sg144
I0
sg145
I0
sg146
I0
sg147
I0
sg148
I0
ssg108
(dp1118
sg150
I0
sg151
g33
sg152
I0
sg153
I0
sg154
F8.862068965517242
sg155
I0
sg156
I0
sg157
I0
sg158
I0
sg159
I0
sg160
I0
sg161
I0
sg162
I0
sg163
I0
sg164
I0
sg165
g33
sbsS's12'
p1119
(ijoueur
joueur
p1120
(dp1121
g28
I0
sg29
I0
sg30
I0
sg34
I0
sg37
g0
(g38
g2
Ntp1122
Rp1123
(dp1124
g43
g33
sbsg47
(dp1125
g49
I0
sg50
I0
sg51
I0
sg52
I0
ssg53
(dp1126
g49
I0
sg50
I0
sg51
I0
sg52
I0
ssg56
g33
sg57
I0
sg59
I0
sg60
I0
sg61
I0
sg122
(g174
g980
g33
g33
tp1127
sg64
I00
sg65
g0
(g38
g2
Ntp1128
Rp1129
(dp1130
g43
g33
sbsg71
(dp1131
g49
I0
sg50
I0
sg51
I0
sg52
I0
ssg73
I00
sg74
(dp1132
g49
I0
sg50
I0
sg51
I0
sg52
I0
ssg76
(dp1133
g49
I0
sg50
I0
sg51
I0
sg52
I0
ssg78
I0
sg79
I0
sg80
g33
sg82
I0
sg83
I0
sg90
I0
sg86
I0
sg62
g63
sg91
(dp1134
g103
I0
sg94
I0
sg95
I0
sg96
I0
sg97
I0
sg93
I0
sg98
I0
sg100
I0
sg101
I0
sg102
I0
sg99
I0
sg104
I0
sg105
I0
sg106
I0
sg107
I0
ssg108
(dp1135
sg150
I0
sg151
g33
sg152
I0
sg156
I0
sg153
I0
sg154
F0.0
sg155
I0
sg84
(dp1136
g49
I0
sg50
I0
sg51
I0
sg52
I0
ssg157
I0
sg132
g1100
sg159
I0
sg160
I0
sg161
I0
sg158
I0
sg162
I0
sg163
I0
sg164
I0
sg165
g33
sbsS's11'
p1137
(ijoueur
joueur
p1138
(dp1139
g28
I0
sg29
I0
sg30
I0
sg34
I0
sg37
g0
(g38
g2
Ntp1140
Rp1141
(dp1142
g43
g33
sbsg47
(dp1143
g49
I0
sg50
I0
sg51
I0
sg52
I0
ssg53
(dp1144
g49
I0
sg50
I0
sg51
I0
sg52
I0
ssg56
g33
sg57
I0
sg59
I0
sg60
I0
sg61
I0
sg122
g1127
sg64
I00
sg65
g0
(g38
g2
Ntp1145
Rp1146
(dp1147
g43
g33
sbsg71
(dp1148
g49
I0
sg50
I0
sg51
I0
sg52
I0
ssg73
I00
sg74
(dp1149
g49
I0
sg50
I0
sg51
I0
sg52
I0
ssg76
(dp1150
g49
I0
sg50
I0
sg51
I0
sg52
I0
ssg78
I0
sg79
I0
sg80
g33
sg82
I0
sg83
I0
sg90
I0
sg86
I0
sg62
g63
sg91
(dp1151
g103
I0
sg94
I0
sg95
I0
sg96
I0
sg97
I0
sg93
I0
sg98
I0
sg100
I0
sg101
I0
sg102
I0
sg99
I0
sg104
I0
sg105
I0
sg106
I0
sg107
I0
ssg108
(dp1152
sg150
I0
sg151
g33
sg152
I0
sg156
I0
sg153
I0
sg154
F0.0
sg155
I0
sg84
(dp1153
g49
I0
sg50
I0
sg51
I0
sg52
I0
ssg157
I0
sg132
g1100
sg159
I0
sg160
I0
sg161
I0
sg158
I0
sg162
I0
sg163
I0
sg164
I0
sg165
g33
sbssg150
I0
sg151
g33
sg152
I0
sg153
I0
sg84
(dp1154
g49
I0
sg50
I1
sg51
I6
sg52
I0
ssg155
I0
sg122
(g174
S'C2'
p1155
S'AI'
p1156
g33
tp1157
sg156
I0
sg157
I0
sg132
g1100
sg159
I0
sg160
I0
sg161
I0
sg158
I0
sg162
I4
sg163
I0
sg164
I0
sg165
g186
sba(ijoueur
joueur
p1158
(dp1159
g28
I0
sg29
I0
sg30
I0
sg31
F26.15478828544223
sg32
g33
sg34
I0
sg35
g33
sg36
I0
sg37
g0
(g38
g2
Ntp1160
Rp1161
(dp1162
g42
I2
sg43
g337
sg45
g70
sbsg47
(dp1163
g49
I0
sg50
I2
sg51
I0
sg52
I0
ssg53
(dp1164
g49
I0
sg50
I0
sg51
I0
sg52
I0
ssg55
I10
sg56
g33
sg57
I0
sg58
F26.15478828544223
sg59
I0
sg60
I0
sg61
I0
sg62
g63
sg64
I01
sg65
g1161
sg71
(dp1165
g49
I0
sg50
I0
sg51
I1
sg52
I0
ssg73
I01
sg74
(dp1166
g49
I0
sg50
I0
sg51
I0
sg52
I0
ssg76
(dp1167
g49
I0
sg50
I0
sg51
I1
sg52
I0
ssg78
I0
sg79
I0
sg80
S'Qlara'
p1168
sg82
I9
sg83
I0
sg84
(dp1169
g49
I0
sg50
I2
sg51
I0
sg52
I0
ssg86
I9
sg87
I0
sg88
I00
sg89
g33
sg90
I20
sg91
(dp1170
g93
I8
sg94
I2
sg95
I8
sg96
I9
sg97
I8
sg98
I9
sg99
I8
sg100
I10
sg101
I5
sg102
I8
sg103
I9
sg104
I7
sg105
I7
sg106
I9
sg107
I4
ssg108
(dp1171
S's13'
p1172
(ijoueur
joueur
p1173
(dp1174
g28
I0
sg29
I0
sg30
I0
sg34
I0
sg37
g0
(g38
g2
Ntp1175
Rp1176
(dp1177
g43
g33
sbsg47
(dp1178
g117
I0
sg118
I0
sg119
I0
sg120
I0
ssg53
(dp1179
g117
I0
sg118
I0
sg119
I0
sg120
I0
ssg90
I0
sg56
g33
sg61
I0
sg57
I0
sg59
I0
sg60
I0
sg122
g124
sg62
g33
sg64
I00
sg65
g0
(g38
g2
Ntp1180
Rp1181
(dp1182
g43
g33
sbsg71
(dp1183
g117
I0
sg118
I0
sg119
I0
sg120
I0
ssg84
(dp1184
g117
I0
sg118
I0
sg119
I0
sg120
I0
ssg74
(dp1185
g117
I0
sg118
I0
sg119
I0
sg120
I0
ssg76
(dp1186
g117
I0
sg118
I0
sg119
I0
sg120
I0
ssg78
I0
sg79
I0
sg80
g1168
sg82
I0
sg83
I0
sg73
I00
sg86
I0
sg132
g1170
sg91
(dp1187
g134
I0
sg135
I0
sg136
I0
sg137
I0
sg138
I0
sg139
I0
sg140
I0
sg141
I0
sg142
I0
sg143
I0
sg144
I0
sg145
I0
sg146
I0
sg147
I0
sg148
I0
ssg108
(dp1188
sg150
I0
sg151
g33
sg152
I0
sg153
I0
sg154
F8.7
sg155
I0
sg156
I0
sg157
I0
sg158
I0
sg159
I0
sg160
I0
sg161
I0
sg162
I0
sg163
I0
sg164
I0
sg165
g33
sbsS's12'
p1189
(ijoueur
joueur
p1190
(dp1191
g28
I0
sg29
I0
sg30
I0
sg34
I0
sg37
g0
(g38
g2
Ntp1192
Rp1193
(dp1194
g43
g33
sbsg47
(dp1195
g49
I0
sg50
I0
sg51
I0
sg52
I0
ssg53
(dp1196
g49
I0
sg50
I0
sg51
I0
sg52
I0
ssg56
g33
sg57
I0
sg59
I0
sg60
I0
sg61
I0
sg122
(g174
g980
g33
g33
tp1197
sg64
I00
sg65
g0
(g38
g2
Ntp1198
Rp1199
(dp1200
g43
g33
sbsg71
(dp1201
g49
I0
sg50
I0
sg51
I0
sg52
I0
ssg73
I00
sg74
(dp1202
g49
I0
sg50
I0
sg51
I0
sg52
I0
ssg76
(dp1203
g49
I0
sg50
I0
sg51
I0
sg52
I0
ssg78
I0
sg79
I0
sg80
g33
sg82
I0
sg83
I0
sg90
I0
sg86
I0
sg62
g63
sg91
(dp1204
g103
I0
sg94
I0
sg95
I0
sg96
I0
sg97
I0
sg93
I0
sg98
I0
sg100
I0
sg101
I0
sg102
I0
sg99
I0
sg104
I0
sg105
I0
sg106
I0
sg107
I0
ssg108
(dp1205
sg150
I0
sg151
g33
sg152
I0
sg156
I0
sg153
I0
sg154
F0.0
sg155
I0
sg84
(dp1206
g49
I0
sg50
I0
sg51
I0
sg52
I0
ssg157
I0
sg132
g1170
sg159
I0
sg160
I0
sg161
I0
sg158
I0
sg162
I0
sg163
I0
sg164
I0
sg165
g33
sbsS's11'
p1207
(ijoueur
joueur
p1208
(dp1209
g28
I0
sg29
I0
sg30
I0
sg34
I0
sg37
g0
(g38
g2
Ntp1210
Rp1211
(dp1212
g43
g33
sbsg47
(dp1213
g49
I0
sg50
I0
sg51
I0
sg52
I0
ssg53
(dp1214
g49
I0
sg50
I0
sg51
I0
sg52
I0
ssg56
g33
sg57
I0
sg59
I0
sg60
I0
sg61
I0
sg122
g1197
sg64
I00
sg65
g0
(g38
g2
Ntp1215
Rp1216
(dp1217
g43
g33
sbsg71
(dp1218
g49
I0
sg50
I0
sg51
I0
sg52
I0
ssg73
I00
sg74
(dp1219
g49
I0
sg50
I0
sg51
I0
sg52
I0
ssg76
(dp1220
g49
I0
sg50
I0
sg51
I0
sg52
I0
ssg78
I0
sg79
I0
sg80
g33
sg82
I0
sg83
I0
sg90
I0
sg86
I0
sg62
g63
sg91
(dp1221
g103
I0
sg94
I0
sg95
I0
sg96
I0
sg97
I0
sg93
I0
sg98
I0
sg100
I0
sg101
I0
sg102
I0
sg99
I0
sg104
I0
sg105
I0
sg106
I0
sg107
I0
ssg108
(dp1222
sg150
I0
sg151
g33
sg152
I0
sg156
I0
sg153
I0
sg154
F0.0
sg155
I0
sg84
(dp1223
g49
I0
sg50
I0
sg51
I0
sg52
I0
ssg157
I0
sg132
g1170
sg159
I0
sg160
I0
sg161
I0
sg158
I0
sg162
I0
sg163
I0
sg164
I0
sg165
g33
sbssg150
I0
sg151
g33
sg152
I0
sg153
I0
sg154
F8.7
sg155
I0
sg122
(g174
S'C1'
p1224
S'AR'
p1225
g33
tp1226
sg156
I0
sg157
I0
sg132
g1170
sg159
I0
sg160
I0
sg161
I0
sg158
I0
sg162
I0
sg163
I0
sg164
I0
sg165
g186
sba(ijoueur
joueur
p1227
(dp1228
g28
I0
sg29
I0
sg30
I0
sg31
F145.1764478986132
sg32
g33
sg34
I0
sg35
g33
sg36
I0
sg37
g0
(g38
g2
Ntp1229
Rp1230
(dp1231
g42
I3
sg43
S'^^^'
p1232
sg45
S'rare'
p1233
sbsg47
(dp1234
g49
I0
sg50
I0
sg51
I0
sg52
I0
ssg53
(dp1235
g49
I0
sg50
I0
sg51
I0
sg52
I0
ssg55
I10
sg56
g33
sg57
I0
sg58
F145.1764478986132
sg59
I0
sg60
I0
sg61
I0
sg62
g63
sg64
I00
sg65
g1230
sg71
(dp1236
g49
I0
sg50
I5
sg51
I11
sg52
I0
ssg73
I00
sg74
(dp1237
g49
I0
sg50
I0
sg51
I0
sg52
I0
ssg76
(dp1238
g49
I0
sg50
I5
sg51
I11
sg52
I0
ssg78
I1
sg79
I1
sg80
S'Xhend Frhe'
p1239
sg82
I4
sg83
I0
sg84
(dp1240
g49
I0
sg50
I0
sg51
I0
sg52
I0
ssg86
I62
sg87
I1
sg88
I00
sg89
g33
sg90
I16
sg91
(dp1241
g93
I8
sg94
I5
sg95
I9
sg96
I9
sg97
I9
sg98
I7
sg99
I10
sg100
I10
sg101
I3
sg102
I9
sg103
I10
sg104
I9
sg105
I8
sg106
I9
sg107
I7
ssg108
(dp1242
S's13'
p1243
(ijoueur
joueur
p1244
(dp1245
g28
I0
sg29
I0
sg30
I0
sg34
I0
sg37
g0
(g38
g2
Ntp1246
Rp1247
(dp1248
g43
g33
sbsg47
(dp1249
g117
I0
sg118
I0
sg119
I0
sg120
I0
ssg53
(dp1250
g117
I0
sg118
I0
sg119
I0
sg120
I0
ssg90
I0
sg56
g33
sg61
I0
sg57
I0
sg59
I0
sg60
I0
sg122
g124
sg62
g33
sg64
I00
sg65
g0
(g38
g2
Ntp1251
Rp1252
(dp1253
g43
g33
sbsg71
(dp1254
g117
I0
sg118
I0
sg119
I0
sg120
I0
ssg84
(dp1255
g117
I0
sg118
I0
sg119
I0
sg120
I0
ssg74
(dp1256
g117
I0
sg118
I0
sg119
I0
sg120
I0
ssg76
(dp1257
g117
I0
sg118
I0
sg119
I0
sg120
I0
ssg78
I0
sg79
I0
sg80
g1239
sg82
I0
sg83
I0
sg73
I00
sg86
I0
sg132
g1241
sg91
(dp1258
g134
I0
sg135
I0
sg136
I0
sg137
I0
sg138
I0
sg139
I0
sg140
I0
sg141
I0
sg142
I0
sg143
I0
sg144
I0
sg145
I0
sg146
I0
sg147
I0
sg148
I0
ssg108
(dp1259
sg150
I0
sg151
g33
sg152
I0
sg153
I0
sg154
F9.344827586206897
sg155
I0
sg156
I0
sg157
I0
sg158
I0
sg159
I0
sg160
I0
sg161
I0
sg162
I0
sg163
I0
sg164
I0
sg165
g33
sbsS's12'
p1260
(ijoueur
joueur
p1261
(dp1262
g28
I0
sg29
I0
sg30
I0
sg34
I0
sg37
g0
(g38
g2
Ntp1263
Rp1264
(dp1265
g43
g33
sbsg47
(dp1266
g49
I0
sg50
I0
sg51
I0
sg52
I0
ssg53
(dp1267
g49
I0
sg50
I0
sg51
I0
sg52
I0
ssg56
g33
sg57
I0
sg59
I0
sg60
I0
sg61
I0
sg122
(g174
g980
g33
g33
tp1268
sg64
I00
sg65
g0
(g38
g2
Ntp1269
Rp1270
(dp1271
g43
g33
sbsg71
(dp1272
g49
I0
sg50
I0
sg51
I0
sg52
I0
ssg73
I00
sg74
(dp1273
g49
I0
sg50
I0
sg51
I0
sg52
I0
ssg76
(dp1274
g49
I0
sg50
I0
sg51
I0
sg52
I0
ssg78
I0
sg79
I0
sg80
g33
sg82
I0
sg83
I0
sg90
I0
sg86
I0
sg62
g63
sg91
(dp1275
g103
I0
sg94
I0
sg95
I0
sg96
I0
sg97
I0
sg93
I0
sg98
I0
sg100
I0
sg101
I0
sg102
I0
sg99
I0
sg104
I0
sg105
I0
sg106
I0
sg107
I0
ssg108
(dp1276
sg150
I0
sg151
g33
sg152
I0
sg156
I0
sg153
I0
sg154
F0.0
sg155
I0
sg84
(dp1277
g49
I0
sg50
I0
sg51
I0
sg52
I0
ssg157
I0
sg132
g1241
sg159
I0
sg160
I0
sg161
I0
sg158
I0
sg162
I0
sg163
I0
sg164
I0
sg165
g33
sbsS's11'
p1278
(ijoueur
joueur
p1279
(dp1280
g28
I0
sg29
I0
sg30
I0
sg34
I0
sg37
g0
(g38
g2
Ntp1281
Rp1282
(dp1283
g43
g33
sbsg47
(dp1284
g49
I0
sg50
I0
sg51
I0
sg52
I0
ssg53
(dp1285
g49
I0
sg50
I0
sg51
I0
sg52
I0
ssg56
g33
sg57
I0
sg59
I0
sg60
I0
sg61
I0
sg122
g1268
sg64
I00
sg65
g0
(g38
g2
Ntp1286
Rp1287
(dp1288
g43
g33
sbsg71
(dp1289
g49
I0
sg50
I0
sg51
I0
sg52
I0
ssg73
I00
sg74
(dp1290
g49
I0
sg50
I0
sg51
I0
sg52
I0
ssg76
(dp1291
g49
I0
sg50
I0
sg51
I0
sg52
I0
ssg78
I0
sg79
I0
sg80
g33
sg82
I0
sg83
I0
sg90
I0
sg86
I0
sg62
g63
sg91
(dp1292
g103
I0
sg94
I0
sg95
I0
sg96
I0
sg97
I0
sg93
I0
sg98
I0
sg100
I0
sg101
I0
sg102
I0
sg99
I0
sg104
I0
sg105
I0
sg106
I0
sg107
I0
ssg108
(dp1293
sg150
I0
sg151
g33
sg152
I0
sg156
I0
sg153
I0
sg154
F0.0
sg155
I0
sg84
(dp1294
g49
I0
sg50
I0
sg51
I0
sg52
I0
ssg157
I0
sg132
g1241
sg159
I0
sg160
I0
sg161
I0
sg158
I0
sg162
I0
sg163
I0
sg164
I0
sg165
g33
sbssg150
I0
sg151
g33
sg152
I0
sg153
I0
sg154
F9.344827586206897
sg155
I0
sg122
(g174
S'C2'
p1295
g33
g33
tp1296
sg156
I0
sg157
I0
sg132
g1241
sg159
I0
sg160
I0
sg161
I0
sg158
I0
sg162
I6
sg163
I0
sg164
I0
sg165
g186
sba(ijoueur
joueur
p1297
(dp1298
g28
I0
sg751
F8.827586206896552
sg151
g33
sg30
I0
sg31
F135.98061599230493
sg32
g33
sg34
I0
sg35
g33
sg36
I0
sg37
g0
(g38
g2
Ntp1299
Rp1300
(dp1301
g42
I2
sg43
S'<<'
p1302
sg45
S'special'
p1303
sbsg47
(dp1304
S'SR'
p1305
I0
sS'ST'
p1306
I0
sS'CR'
p1307
I8
sS'CT'
p1308
I5
ssg53
(dp1309
g1305
I0
sg1306
I0
sg1307
I0
sg1308
I0
ssg763
I0
sg55
I10
sg56
S'vide 13'
p1310
sg57
I0
sg58
F135.98061599230493
sg59
I1
sg60
I0
sg61
I0
sg87
I1
sg64
I00
sg65
g1300
sg71
(dp1311
g766
I0
sg767
I1
sg768
I1
sg769
I0
ssg84
(dp1312
g766
I0
sg767
I5
sg768
I8
sg769
I0
ssg74
(dp1313
g766
I0
sg767
I0
sg768
I0
sg769
I0
ssg76
(dp1314
g1305
I1
sg1306
I0
sg1307
I1
sg1308
I1
ssg78
I0
sg79
I0
sg80
S'Estoej'
p1315
sg82
I12
sg83
I0
sg73
I01
sg86
I48
sg62
g63
sg88
I00
sg89
g33
sg90
I22
sg91
(dp1316
S'RP1'
p1317
I8
sS'ME'
p1318
I5
sS'RP2'
p1319
I7
sS'E'
p1320
I10
sS'TO'
p1321
I5
sS'M'
p1322
I10
sS'JP'
p1323
I8
sS'RP_tot'
p1324
I9
sS'P'
p1325
I8
sS'PA'
p1326
I9
sS'A'
p1327
I10
sS'R'
p1328
I7
sS'TB'
p1329
I8
sS'PL'
p1330
I10
sS'TA'
p1331
I4
ssg108
(dp1332
S's13'
p1333
(ijoueur
joueur
p1334
(dp1335
g28
I0
sg29
I0
sg30
I0
sg34
I0
sg37
g0
(g38
g2
Ntp1336
Rp1337
(dp1338
g43
g33
sbsg47
(dp1339
g117
I0
sg118
I0
sg119
I0
sg120
I0
ssg53
(dp1340
g117
I0
sg118
I0
sg119
I0
sg120
I0
ssg90
I0
sg56
g33
sg61
I0
sg57
I0
sg59
I0
sg60
I0
sg122
g124
sg62
g33
sg64
I00
sg65
g0
(g38
g2
Ntp1341
Rp1342
(dp1343
g43
g33
sbsg71
(dp1344
g117
I0
sg118
I0
sg119
I0
sg120
I0
ssg84
(dp1345
g117
I0
sg118
I0
sg119
I0
sg120
I0
ssg74
(dp1346
g117
I0
sg118
I0
sg119
I0
sg120
I0
ssg76
(dp1347
g117
I0
sg118
I0
sg119
I0
sg120
I0
ssg78
I0
sg79
I0
sg80
g1315
sg82
I0
sg83
I0
sg73
I00
sg86
I0
sg132
g1316
sg91
(dp1348
g134
I0
sg135
I0
sg136
I0
sg137
I0
sg138
I0
sg139
I0
sg140
I0
sg141
I0
sg142
I0
sg143
I0
sg144
I0
sg145
I0
sg146
I0
sg147
I0
sg148
I0
ssg108
(dp1349
sg150
I0
sg151
g33
sg152
I0
sg153
I0
sg154
F9.344827586206897
sg155
I0
sg156
I0
sg157
I0
sg158
I0
sg159
I0
sg160
I0
sg161
I0
sg162
I0
sg163
I0
sg164
I0
sg165
g33
sbsg808
(ijoueur
joueur
p1350
(dp1351
g28
I0
sg151
g33
sg30
I0
sg32
g33
sg34
I0
sg35
g33
sg37
g0
(g38
g2
Ntp1352
Rp1353
(dp1354
g42
I2
sg43
S'<<'
p1355
sg45
S'special'
p1356
sbsg47
(dp1357
S'SR'
p1358
I0
sS'ST'
p1359
I0
sS'CR'
p1360
I0
sS'CT'
p1361
I0
ssg53
(dp1362
g1358
I0
sg1359
I0
sg1360
I0
sg1361
I0
ssg84
(dp1363
g1358
I0
sg1359
I0
sg1360
I0
sg1361
I0
ssg56
g33
sg57
I0
sg59
I0
sg60
I0
sg61
I0
sg62
g827
sg64
I00
sg65
g1353
sg71
(dp1364
g1358
I1
sg1359
I0
sg1360
I0
sg1361
I0
ssg73
I00
sg74
(dp1365
g1358
I0
sg1359
I0
sg1360
I0
sg1361
I0
ssg76
(dp1366
g1358
I1
sg1359
I0
sg1360
I0
sg1361
I0
ssg78
I0
sg79
I0
sg80
S'Estoej'
p1367
sg82
I12
sg83
I0
sg90
I22
sg86
I48
sg122
(S'dummy'
p1368
S'C2'
p1369
S'AI'
p1370
g33
tp1371
sg89
g33
sg91
(dp1372
S'RP1'
p1373
I8
sS'ME'
p1374
I5
sS'RP2'
p1375
I7
sS'E'
p1376
I10
sS'TO'
p1377
I5
sS'M'
p1378
I10
sS'JP'
p1379
I7
sS'RP_tot'
p1380
I8
sS'P'
p1381
I8
sS'PA'
p1382
I9
sS'A'
p1383
I9
sS'R'
p1384
I7
sS'TB'
p1385
I8
sS'PL'
p1386
I9
sS'TA'
p1387
I4
ssg108
(dp1388
sg150
I0
sg29
I0
sg152
I0
sg153
I0
sg154
F8.827586206896552
sg155
I0
sg156
I0
sg157
I0
sg132
g1372
sg159
I0
sg160
I0
sg161
I0
sg158
I0
sg162
I4
sg163
I0
sg164
I0
sg165
S'ARA'
p1389
sbssg150
I0
sg29
I0
sg152
I0
sg153
I0
sg154
F9.344827586206897
sg155
I0
sg122
(S'dummy'
p1390
S'C2'
p1391
S'AI'
p1392
g33
tp1393
sg156
I0
sg157
I0
sg132
g1316
sg159
I0
sg975
(dp1394
sg160
I0
sg161
I0
sg158
I0
sg162
I4
sg163
I1
sg164
I0
sg165
S'ARA'
p1395
sbasS'N8'
p1396
(lp1397
(ijoueur
joueur
p1398
(dp1399
g28
I0
sg29
I0
sg30
I0
sg31
F35.47232753038826
sg32
g33
sg34
I0
sg35
g33
sg36
I0
sg37
g0
(g38
g2
Ntp1400
Rp1401
(dp1402
g42
I4
sg43
g192
sg45
g193
sbsg47
(dp1403
g49
I0
sg50
I0
sg51
I0
sg52
I0
ssg53
(dp1404
g49
I0
sg50
I0
sg51
I0
sg52
I0
ssg55
I10
sg56
g33
sg57
I0
sg58
F35.47232753038826
sg59
I0
sg60
I0
sg61
I0
sg62
g63
sg64
I00
sg65
g0
(g38
g2
Ntp1405
Rp1406
(dp1407
g42
I1
sg43
g231
sg45
g232
sbsg71
(dp1408
g49
I0
sg50
I3
sg51
I1
sg52
I0
ssg73
I00
sg74
(dp1409
g49
I0
sg50
I0
sg51
I0
sg52
I0
ssg76
(dp1410
g49
I0
sg50
I3
sg51
I1
sg52
I0
ssg78
I0
sg79
I0
sg80
S'Rebalet'
p1411
sg82
I13
sg83
I0
sg84
(dp1412
g49
I0
sg50
I0
sg51
I0
sg52
I0
ssg86
I33
sg87
I0
sg88
I00
sg89
g33
sg90
I26
sg91
(dp1413
g93
I7
sg94
I8
sg95
I6
sg96
I10
sg97
I4
sg98
I5
sg99
I8
sg100
I7
sg101
I8
sg102
I6
sg103
I7
sg104
I7
sg105
I3
sg106
I9
sg107
I3
ssg108
(dp1414
S's13'
p1415
(ijoueur
joueur
p1416
(dp1417
g28
I0
sg29
I0
sg30
I0
sg34
I0
sg37
g0
(g38
g2
Ntp1418
Rp1419
(dp1420
g43
g33
sbsg47
(dp1421
g117
I0
sg118
I0
sg119
I0
sg120
I0
ssg53
(dp1422
g117
I0
sg118
I0
sg119
I0
sg120
I0
ssg90
I0
sg56
g33
sg61
I0
sg57
I0
sg59
I0
sg60
I0
sg122
g124
sg62
g33
sg64
I00
sg65
g0
(g38
g2
Ntp1423
Rp1424
(dp1425
g43
g33
sbsg71
(dp1426
g117
I0
sg118
I0
sg119
I0
sg120
I0
ssg84
(dp1427
g117
I0
sg118
I0
sg119
I0
sg120
I0
ssg74
(dp1428
g117
I0
sg118
I0
sg119
I0
sg120
I0
ssg76
(dp1429
g117
I0
sg118
I0
sg119
I0
sg120
I0
ssg78
I0
sg79
I0
sg80
g1411
sg82
I0
sg83
I0
sg73
I00
sg86
I0
sg132
g1413
sg91
(dp1430
g134
I0
sg135
I0
sg136
I0
sg137
I0
sg138
I0
sg139
I0
sg140
I0
sg141
I0
sg142
I0
sg143
I0
sg144
I0
sg145
I0
sg146
I0
sg147
I0
sg148
I0
ssg108
(dp1431
sg150
I0
sg151
g33
sg152
I0
sg153
I0
sg154
F7.888888888888889
sg155
I0
sg156
I0
sg157
I0
sg158
I0
sg159
I0
sg160
I0
sg161
I0
sg162
I0
sg163
I0
sg164
I0
sg165
g33
sbssg150
I0
sg151
g33
sg152
I0
sg153
I0
sg154
F7.888888888888889
sg155
I0
sg122
(g174
g1396
g33
g33
tp1432
sg156
I0
sg157
I0
sg132
g1413
sg159
I0
sg160
I0
sg161
I0
sg158
I0
sg162
I3
sg163
I0
sg164
I0
sg165
S'B'
p1433
sba(ijoueur
joueur
p1434
(dp1435
g28
I0
sg29
I0
sg30
I0
sg31
F127.93875195589466
sg32
g33
sg34
I0
sg35
g33
sg36
I0
sg37
g0
(g38
g2
Ntp1436
Rp1437
(dp1438
g42
I3
sg43
g1232
sg45
g1233
sbsg47
(dp1439
g49
I0
sg50
I0
sg51
I0
sg52
I0
ssg53
(dp1440
g49
I0
sg50
I0
sg51
I0
sg52
I0
ssg55
I10
sg56
g33
sg57
I0
sg58
F127.93875195589466
sg59
I0
sg60
I0
sg61
I0
sg62
g63
sg64
I00
sg65
g0
(g38
g2
Ntp1441
Rp1442
(dp1443
g42
I2
sg43
g337
sg45
g70
sbsg71
(dp1444
g49
I0
sg50
I13
sg51
I1
sg52
I0
ssg73
I01
sg74
(dp1445
g49
I0
sg50
I0
sg51
I0
sg52
I0
ssg76
(dp1446
g49
I0
sg50
I13
sg51
I1
sg52
I0
ssg78
I0
sg79
I0
sg80
S'Rhinmel'
p1447
sg82
I13
sg83
I0
sg84
(dp1448
g49
I0
sg50
I0
sg51
I0
sg52
I0
ssg86
I12
sg87
I3
sg88
I00
sg89
g33
sg90
I24
sg91
(dp1449
g93
I8
sg94
I8
sg95
I7
sg96
I10
sg97
I6
sg98
I4
sg99
I7
sg100
I9
sg101
I11
sg102
I7
sg103
I9
sg104
I7
sg105
I4
sg106
I8
sg107
I5
ssg108
(dp1450
S's13'
p1451
(ijoueur
joueur
p1452
(dp1453
g28
I0
sg29
I0
sg30
I0
sg34
I0
sg37
g0
(g38
g2
Ntp1454
Rp1455
(dp1456
g43
g33
sbsg47
(dp1457
g117
I0
sg118
I0
sg119
I0
sg120
I0
ssg53
(dp1458
g117
I0
sg118
I0
sg119
I0
sg120
I0
ssg90
I0
sg56
g33
sg61
I0
sg57
I0
sg59
I0
sg60
I0
sg122
g124
sg62
g33
sg64
I00
sg65
g0
(g38
g2
Ntp1459
Rp1460
(dp1461
g43
g33
sbsg71
(dp1462
g117
I0
sg118
I0
sg119
I0
sg120
I0
ssg84
(dp1463
g117
I0
sg118
I0
sg119
I0
sg120
I0
ssg74
(dp1464
g117
I0
sg118
I0
sg119
I0
sg120
I0
ssg76
(dp1465
g117
I0
sg118
I0
sg119
I0
sg120
I0
ssg78
I0
sg79
I0
sg80
g1447
sg82
I0
sg83
I0
sg73
I00
sg86
I0
sg132
g1449
sg91
(dp1466
g134
I0
sg135
I0
sg136
I0
sg137
I0
sg138
I0
sg139
I0
sg140
I0
sg141
I0
sg142
I0
sg143
I0
sg144
I0
sg145
I0
sg146
I0
sg147
I0
sg148
I0
ssg108
(dp1467
sg150
I0
sg151
g33
sg152
I0
sg153
I0
sg154
F8.777777777777779
sg155
I0
sg156
I0
sg157
I0
sg158
I0
sg159
I0
sg160
I0
sg161
I0
sg162
I0
sg163
I0
sg164
I0
sg165
g33
sbssg150
I0
sg151
g33
sg152
I0
sg153
I0
sg154
F8.777777777777779
sg155
I0
sg122
(g174
g1396
S'DL'
p1468
g33
tp1469
sg156
I0
sg157
I1
sg132
g1449
sg159
I0
sg160
I0
sg161
I0
sg158
I0
sg162
I1
sg163
I0
sg164
I1
sg165
g186
sbasS'TL'
p1470
(lp1471
(ijoueur
joueur
p1472
(dp1473
g28
I1
sg29
I0
sg30
I0
sg31
F130.84409170208693
sg32
g33
sg34
I0
sg35
g33
sg36
I0
sg37
g0
(g38
g2
Ntp1474
Rp1475
(dp1476
g42
I3
sg43
g1232
sg45
g1233
sbsg47
(dp1477
g49
I1
sg50
I1
sg51
I0
sg52
I1
ssg53
(dp1478
g49
I0
sg50
I0
sg51
I0
sg52
I0
ssg55
I10
sg56
g33
sg57
I0
sg58
F130.84409170208693
sg59
I0
sg60
I0
sg61
I0
sg62
g63
sg64
I00
sg65
g1475
sg71
(dp1479
g49
I1
sg50
I10
sg51
I0
sg52
I0
ssg73
I00
sg74
(dp1480
g49
I0
sg50
I0
sg51
I0
sg52
I0
ssg76
(dp1481
g49
I1
sg50
I10
sg51
I0
sg52
I0
ssg78
I0
sg79
I0
sg80
S'Klendis'
p1482
sg82
I4
sg83
I0
sg84
(dp1483
g49
I1
sg50
I1
sg51
I0
sg52
I1
ssg86
I58
sg87
I2
sg88
I00
sg89
g33
sg90
I17
sg91
(dp1484
g93
I8
sg94
I7
sg95
I7
sg96
I10
sg97
I6
sg98
I6
sg99
I8
sg100
I9
sg101
I10
sg102
I8
sg103
I10
sg104
I10
sg105
I6
sg106
I10
sg107
I7
ssg108
(dp1485
S's13'
p1486
(ijoueur
joueur
p1487
(dp1488
g28
I0
sg29
I0
sg30
I0
sg34
I0
sg37
g0
(g38
g2
Ntp1489
Rp1490
(dp1491
g43
g33
sbsg47
(dp1492
g117
I0
sg118
I0
sg119
I0
sg120
I0
ssg53
(dp1493
g117
I0
sg118
I0
sg119
I0
sg120
I0
ssg90
I0
sg56
g33
sg61
I0
sg57
I0
sg59
I0
sg60
I0
sg122
g124
sg62
g33
sg64
I00
sg65
g0
(g38
g2
Ntp1494
Rp1495
(dp1496
g43
g33
sbsg71
(dp1497
g117
I0
sg118
I0
sg119
I0
sg120
I0
ssg84
(dp1498
g117
I0
sg118
I0
sg119
I0
sg120
I0
ssg74
(dp1499
g117
I0
sg118
I0
sg119
I0
sg120
I0
ssg76
(dp1500
g117
I0
sg118
I0
sg119
I0
sg120
I0
ssg78
I0
sg79
I0
sg80
g1482
sg82
I0
sg83
I0
sg73
I00
sg86
I0
sg132
g1484
sg91
(dp1501
g134
I0
sg135
I0
sg136
I0
sg137
I0
sg138
I0
sg139
I0
sg140
I0
sg141
I0
sg142
I0
sg143
I0
sg144
I0
sg145
I0
sg146
I0
sg147
I0
sg148
I0
ssg108
(dp1502
sg150
I0
sg151
g33
sg152
I0
sg153
I0
sg154
F9.578947368421053
sg155
I0
sg156
I0
sg157
I0
sg158
I0
sg159
I0
sg160
I0
sg161
I0
sg162
I0
sg163
I0
sg164
I0
sg165
g33
sbsS's12'
p1503
(ijoueur
joueur
p1504
(dp1505
g28
I0
sg29
I0
sg30
I0
sg34
I0
sg37
g0
(g38
g2
Ntp1506
Rp1507
(dp1508
g43
g33
sbsg47
(dp1509
g49
I0
sg50
I0
sg51
I0
sg52
I0
ssg53
(dp1510
g49
I0
sg50
I0
sg51
I0
sg52
I0
ssg56
g33
sg57
I0
sg59
I0
sg60
I0
sg61
I0
sg122
(g174
g1470
g33
g33
tp1511
sg64
I00
sg65
g0
(g38
g2
Ntp1512
Rp1513
(dp1514
g43
g33
sbsg71
(dp1515
g49
I0
sg50
I0
sg51
I0
sg52
I0
ssg73
I00
sg74
(dp1516
g49
I0
sg50
I0
sg51
I0
sg52
I0
ssg76
(dp1517
g49
I0
sg50
I0
sg51
I0
sg52
I0
ssg78
I0
sg79
I0
sg80
g33
sg82
I0
sg83
I0
sg90
I0
sg86
I0
sg62
g63
sg91
(dp1518
g103
I0
sg94
I0
sg95
I0
sg96
I0
sg97
I0
sg93
I0
sg98
I0
sg100
I0
sg101
I0
sg102
I0
sg99
I0
sg104
I0
sg105
I0
sg106
I0
sg107
I0
ssg108
(dp1519
sg150
I0
sg151
g33
sg152
I0
sg156
I0
sg153
I0
sg154
F0.0
sg155
I0
sg84
(dp1520
g49
I0
sg50
I0
sg51
I0
sg52
I0
ssg157
I0
sg132
g1484
sg159
I0
sg160
I0
sg161
I0
sg158
I0
sg162
I0
sg163
I0
sg164
I0
sg165
g33
sbsS's11'
p1521
(ijoueur
joueur
p1522
(dp1523
g28
I0
sg29
I0
sg30
I0
sg34
I0
sg37
g0
(g38
g2
Ntp1524
Rp1525
(dp1526
g43
g33
sbsg47
(dp1527
g49
I0
sg50
I0
sg51
I0
sg52
I0
ssg53
(dp1528
g49
I0
sg50
I0
sg51
I0
sg52
I0
ssg56
g33
sg57
I0
sg59
I0
sg60
I0
sg61
I0
sg122
g1511
sg64
I00
sg65
g0
(g38
g2
Ntp1529
Rp1530
(dp1531
g43
g33
sbsg71
(dp1532
g49
I0
sg50
I0
sg51
I0
sg52
I0
ssg73
I00
sg74
(dp1533
g49
I0
sg50
I0
sg51
I0
sg52
I0
ssg76
(dp1534
g49
I0
sg50
I0
sg51
I0
sg52
I0
ssg78
I0
sg79
I0
sg80
g33
sg82
I0
sg83
I0
sg90
I0
sg86
I0
sg62
g63
sg91
(dp1535
g103
I0
sg94
I0
sg95
I0
sg96
I0
sg97
I0
sg93
I0
sg98
I0
sg100
I0
sg101
I0
sg102
I0
sg99
I0
sg104
I0
sg105
I0
sg106
I0
sg107
I0
ssg108
(dp1536
sg150
I0
sg151
g33
sg152
I0
sg156
I0
sg153
I0
sg154
F0.0
sg155
I0
sg84
(dp1537
g49
I0
sg50
I0
sg51
I0
sg52
I0
ssg157
I0
sg132
g1484
sg159
I0
sg160
I0
sg161
I0
sg158
I0
sg162
I0
sg163
I0
sg164
I0
sg165
g33
sbssg150
I0
sg151
g33
sg152
I1
sg153
I0
sg154
F9.578947368421053
sg155
I0
sg122
(g174
g1470
S'N8'
p1538
g33
tp1539
sg156
I1
sg157
I0
sg132
g1484
sg159
I1
sg160
I0
sg161
I0
sg158
I0
sg162
I5
sg163
I0
sg164
I0
sg165
g186
sba(ijoueur
joueur
p1540
(dp1541
g28
I0
sg29
I0
sg30
I0
sg31
F127.73956382041716
sg32
g33
sg34
I0
sg35
g33
sg36
I0
sg37
g0
(g38
g2
Ntp1542
Rp1543
(dp1544
g42
I4
sg43
g405
sg45
g193
sbsg47
(dp1545
g49
I0
sg50
I0
sg51
I0
sg52
I0
ssg53
(dp1546
g49
I0
sg50
I0
sg51
I0
sg52
I0
ssg55
I10
sg56
g33
sg57
I0
sg58
F127.73956382041716
sg59
I0
sg60
I0
sg61
I0
sg62
g63
sg64
I00
sg65
g0
(g38
g2
Ntp1547
Rp1548
(dp1549
g42
I1
sg43
g231
sg45
g232
sbsg71
(dp1550
g49
I0
sg50
I6
sg51
I8
sg52
I0
ssg73
I01
sg74
(dp1551
g49
I0
sg50
I0
sg51
I0
sg52
I0
ssg76
(dp1552
g49
I0
sg50
I6
sg51
I8
sg52
I0
ssg78
I0
sg79
I0
sg80
S'Ormud'
p1553
sg82
I13
sg83
I0
sg84
(dp1554
g49
I0
sg50
I0
sg51
I0
sg52
I0
ssg86
I8
sg87
I2
sg88
I00
sg89
g33
sg90
I26
sg91
(dp1555
g93
I7
sg94
I8
sg95
I6
sg96
I8
sg97
I3
sg98
I4
sg99
I7
sg100
I7
sg101
I7
sg102
I6
sg103
I8
sg104
I9
sg105
I4
sg106
I11
sg107
I5
ssg108
(dp1556
S's13'
p1557
(ijoueur
joueur
p1558
(dp1559
g28
I0
sg29
I0
sg30
I0
sg34
I0
sg37
g0
(g38
g2
Ntp1560
Rp1561
(dp1562
g43
g33
sbsg47
(dp1563
g117
I0
sg118
I0
sg119
I0
sg120
I0
ssg53
(dp1564
g117
I0
sg118
I0
sg119
I0
sg120
I0
ssg90
I0
sg56
g33
sg61
I0
sg57
I0
sg59
I0
sg60
I0
sg122
g124
sg62
g33
sg64
I00
sg65
g0
(g38
g2
Ntp1565
Rp1566
(dp1567
g43
g33
sbsg71
(dp1568
g117
I0
sg118
I0
sg119
I0
sg120
I0
ssg84
(dp1569
g117
I0
sg118
I0
sg119
I0
sg120
I0
ssg74
(dp1570
g117
I0
sg118
I0
sg119
I0
sg120
I0
ssg76
(dp1571
g117
I0
sg118
I0
sg119
I0
sg120
I0
ssg78
I0
sg79
I0
sg80
g1553
sg82
I0
sg83
I0
sg73
I00
sg86
I0
sg132
g1555
sg91
(dp1572
g134
I0
sg135
I0
sg136
I0
sg137
I0
sg138
I0
sg139
I0
sg140
I0
sg141
I0
sg142
I0
sg143
I0
sg144
I0
sg145
I0
sg146
I0
sg147
I0
sg148
I0
ssg108
(dp1573
sg150
I0
sg151
g33
sg152
I0
sg153
I0
sg154
F8.612903225806452
sg155
I0
sg156
I0
sg157
I0
sg158
I0
sg159
I0
sg160
I0
sg161
I0
sg162
I0
sg163
I0
sg164
I0
sg165
g33
sbssg150
I0
sg151
g33
sg152
I0
sg153
I0
sg154
F8.612903225806452
sg155
I0
sg122
(g174
g1470
S'DL'
p1574
g33
tp1575
sg156
I0
sg157
I0
sg132
g1555
sg159
I0
sg160
I0
sg161
I0
sg158
I0
sg162
I0
sg163
I0
sg164
I0
sg165
g186
sba(ijoueur
joueur
p1576
(dp1577
g28
I0
sg29
I0
sg30
I0
sg31
F90.65226532689813
sg32
g33
sg34
I0
sg35
g33
sg36
I0
sg37
g0
(g38
g2
Ntp1578
Rp1579
(dp1580
g42
I2
sg43
g69
sg45
g70
sbsg47
(dp1581
g49
I0
sg50
I0
sg51
I0
sg52
I0
ssg53
(dp1582
g49
I0
sg50
I0
sg51
I0
sg52
I0
ssg55
I10
sg56
g33
sg57
I0
sg58
F90.65226532689813
sg59
I0
sg60
I0
sg61
I0
sg62
g63
sg64
I01
sg65
g1579
sg71
(dp1583
g49
I0
sg50
I4
sg51
I6
sg52
I0
ssg73
I00
sg74
(dp1584
g49
I0
sg50
I0
sg51
I0
sg52
I0
ssg76
(dp1585
g49
I0
sg50
I4
sg51
I6
sg52
I0
ssg78
I0
sg79
I0
sg80
S'Ven Katesh'
p1586
sg82
I10
sg83
I0
sg84
(dp1587
g49
I0
sg50
I0
sg51
I0
sg52
I0
ssg86
I40
sg87
I1
sg88
I00
sg89
g33
sg90
I19
sg91
(dp1588
g93
I6
sg94
I8
sg95
I5
sg96
I12
sg97
I5
sg98
I4
sg99
I9
sg100
I6
sg101
I9
sg102
I7
sg103
I9
sg104
I7
sg105
I3
sg106
I10
sg107
I5
ssg108
(dp1589
S's13'
p1590
(ijoueur
joueur
p1591
(dp1592
g28
I0
sg29
I0
sg30
I0
sg34
I0
sg37
g0
(g38
g2
Ntp1593
Rp1594
(dp1595
g43
g33
sbsg47
(dp1596
g117
I0
sg118
I0
sg119
I0
sg120
I0
ssg53
(dp1597
g117
I0
sg118
I0
sg119
I0
sg120
I0
ssg90
I0
sg56
g33
sg61
I0
sg57
I0
sg59
I0
sg60
I0
sg122
g124
sg62
g33
sg64
I00
sg65
g0
(g38
g2
Ntp1598
Rp1599
(dp1600
g43
g33
sbsg71
(dp1601
g117
I0
sg118
I0
sg119
I0
sg120
I0
ssg84
(dp1602
g117
I0
sg118
I0
sg119
I0
sg120
I0
ssg74
(dp1603
g117
I0
sg118
I0
sg119
I0
sg120
I0
ssg76
(dp1604
g117
I0
sg118
I0
sg119
I0
sg120
I0
ssg78
I0
sg79
I0
sg80
g1586
sg82
I0
sg83
I0
sg73
I00
sg86
I0
sg132
g1588
sg91
(dp1605
g134
I0
sg135
I0
sg136
I0
sg137
I0
sg138
I0
sg139
I0
sg140
I0
sg141
I0
sg142
I0
sg143
I0
sg144
I0
sg145
I0
sg146
I0
sg147
I0
sg148
I0
ssg108
(dp1606
sg150
I0
sg151
g33
sg152
I0
sg153
I0
sg154
F8.578947368421053
sg155
I0
sg156
I0
sg157
I0
sg158
I0
sg159
I0
sg160
I0
sg161
I0
sg162
I0
sg163
I0
sg164
I0
sg165
g33
sbsS's12'
p1607
(ijoueur
joueur
p1608
(dp1609
g28
I0
sg29
I0
sg30
I0
sg34
I0
sg37
g0
(g38
g2
Ntp1610
Rp1611
(dp1612
g43
g33
sbsg47
(dp1613
g49
I0
sg50
I0
sg51
I0
sg52
I0
ssg53
(dp1614
g49
I0
sg50
I0
sg51
I0
sg52
I0
ssg56
g33
sg57
I0
sg59
I0
sg60
I0
sg61
I0
sg122
(g174
g1470
g33
g33
tp1615
sg64
I00
sg65
g0
(g38
g2
Ntp1616
Rp1617
(dp1618
g43
g33
sbsg71
(dp1619
g49
I0
sg50
I0
sg51
I0
sg52
I0
ssg73
I00
sg74
(dp1620
g49
I0
sg50
I0
sg51
I0
sg52
I0
ssg76
(dp1621
g49
I0
sg50
I0
sg51
I0
sg52
I0
ssg78
I0
sg79
I0
sg80
g33
sg82
I0
sg83
I0
sg90
I0
sg86
I0
sg62
g63
sg91
(dp1622
g103
I0
sg94
I0
sg95
I0
sg96
I0
sg97
I0
sg93
I0
sg98
I0
sg100
I0
sg101
I0
sg102
I0
sg99
I0
sg104
I0
sg105
I0
sg106
I0
sg107
I0
ssg108
(dp1623
sg150
I0
sg151
g33
sg152
I0
sg156
I0
sg153
I0
sg154
F0.0
sg155
I0
sg84
(dp1624
g49
I0
sg50
I0
sg51
I0
sg52
I0
ssg157
I0
sg132
g1588
sg159
I0
sg160
I0
sg161
I0
sg158
I0
sg162
I0
sg163
I0
sg164
I0
sg165
g33
sbsS's11'
p1625
(ijoueur
joueur
p1626
(dp1627
g28
I0
sg29
I0
sg30
I0
sg34
I0
sg37
g0
(g38
g2
Ntp1628
Rp1629
(dp1630
g43
g33
sbsg47
(dp1631
g49
I0
sg50
I0
sg51
I0
sg52
I0
ssg53
(dp1632
g49
I0
sg50
I0
sg51
I0
sg52
I0
ssg56
g33
sg57
I0
sg59
I0
sg60
I0
sg61
I0
sg122
g1615
sg64
I00
sg65
g0
(g38
g2
Ntp1633
Rp1634
(dp1635
g43
g33
sbsg71
(dp1636
g49
I0
sg50
I0
sg51
I0
sg52
I0
ssg73
I00
sg74
(dp1637
g49
I0
sg50
I0
sg51
I0
sg52
I0
ssg76
(dp1638
g49
I0
sg50
I0
sg51
I0
sg52
I0
ssg78
I0
sg79
I0
sg80
g33
sg82
I0
sg83
I0
sg90
I0
sg86
I0
sg62
g63
sg91
(dp1639
g103
I0
sg94
I0
sg95
I0
sg96
I0
sg97
I0
sg93
I0
sg98
I0
sg100
I0
sg101
I0
sg102
I0
sg99
I0
sg104
I0
sg105
I0
sg106
I0
sg107
I0
ssg108
(dp1640
sg150
I0
sg151
g33
sg152
I0
sg156
I0
sg153
I0
sg154
F0.0
sg155
I0
sg84
(dp1641
g49
I0
sg50
I0
sg51
I0
sg52
I0
ssg157
I0
sg132
g1588
sg159
I0
sg160
I0
sg161
I0
sg158
I0
sg162
I0
sg163
I0
sg164
I0
sg165
g33
sbssg150
I0
sg151
g33
sg152
I0
sg153
I0
sg154
F8.578947368421053
sg155
I0
sg122
(g174
g1470
g33
g33
tp1642
sg156
I0
sg157
I0
sg132
g1588
sg159
I0
sg160
I0
sg161
I0
sg158
I0
sg162
I4
sg163
I0
sg164
I0
sg165
g186
sba(ijoueur
joueur
p1643
(dp1644
g750
F7.709677419354839
sg28
I0
sg751
F8.290322580645162
sg151
g33
sg30
I0
sg31
F117.92332039565999
sg32
g33
sg34
I0
sg35
g33
sg36
I0
sg37
g0
(g38
g2
Ntp1645
Rp1646
(dp1647
g42
I4
sg43
S'x'
p1648
sg45
S'heros'
p1649
sbsg47
(dp1650
S'SR'
p1651
I0
sS'CT'
p1652
I0
sS'CR'
p1653
I0
sS'ST'
p1654
I0
ssg53
(dp1655
g1651
I0
sg1652
I0
sg1653
I0
sg1654
I0
ssg763
I0
sg55
I10
sg56
S'vide 13'
p1656
sg57
I0
sg58
F117.92332039565999
sg59
I0
sg60
I0
sg61
I0
sg87
I2
sg64
I00
sg65
g0
(g38
g2
Ntp1657
Rp1658
(dp1659
g42
I3
sg43
S'^^^'
p1660
sg45
S'rare'
p1661
sbsg71
(dp1662
g766
I0
sg767
I12
sg768
I1
sg769
I0
ssg84
(dp1663
g766
I0
sg767
I0
sg768
I0
sg769
I0
ssg74
(dp1664
g766
I0
sg767
I0
sg768
I0
sg769
I0
ssg76
(dp1665
g1651
I0
sg1652
I12
sg1653
I1
sg1654
I0
ssg78
I0
sg79
I0
sg80
S'Har Hel'
p1666
sg82
I10
sg83
I0
sg73
I01
sg86
I45
sg62
g63
sg88
I00
sg89
g33
sg90
I22
sg91
(dp1667
S'RP1'
p1668
I9
sS'ME'
p1669
I9
sS'RP2'
p1670
I8
sS'E'
p1671
I10
sS'P'
p1672
I6
sS'JP'
p1673
I5
sS'M'
p1674
I9
sS'RP_tot'
p1675
I10
sS'TO'
p1676
I9
sS'PA'
p1677
I8
sS'A'
p1678
I10
sS'R'
p1679
I7
sS'TB'
p1680
I6
sS'PL'
p1681
I12
sS'TA'
p1682
I6
ssg108
(dp1683
S's13'
p1684
(ijoueur
joueur
p1685
(dp1686
g28
I0
sg29
I0
sg30
I0
sg34
I0
sg37
g0
(g38
g2
Ntp1687
Rp1688
(dp1689
g43
g33
sbsg47
(dp1690
g117
I0
sg118
I0
sg119
I0
sg120
I0
ssg53
(dp1691
g117
I0
sg118
I0
sg119
I0
sg120
I0
ssg90
I0
sg56
g33
sg61
I0
sg57
I0
sg59
I0
sg60
I0
sg122
g124
sg62
g33
sg64
I00
sg65
g0
(g38
g2
Ntp1692
Rp1693
(dp1694
g43
g33
sbsg71
(dp1695
g117
I0
sg118
I0
sg119
I0
sg120
I0
ssg84
(dp1696
g117
I0
sg118
I0
sg119
I0
sg120
I0
ssg74
(dp1697
g117
I0
sg118
I0
sg119
I0
sg120
I0
ssg76
(dp1698
g117
I0
sg118
I0
sg119
I0
sg120
I0
ssg78
I0
sg79
I0
sg80
g1666
sg82
I0
sg83
I0
sg73
I00
sg86
I0
sg132
g1667
sg91
(dp1699
g134
I0
sg135
I0
sg136
I0
sg137
I0
sg138
I0
sg139
I0
sg140
I0
sg141
I0
sg142
I0
sg143
I0
sg144
I0
sg145
I0
sg146
I0
sg147
I0
sg148
I0
ssg108
(dp1700
sg150
I0
sg151
g33
sg152
I0
sg153
I0
sg154
F9.32258064516129
sg155
I0
sg156
I0
sg157
I0
sg158
I0
sg159
I0
sg160
I0
sg161
I0
sg162
I0
sg163
I0
sg164
I0
sg165
g33
sbsg808
(ijoueur
joueur
p1701
(dp1702
g750
F7.709677419354839
sg28
I0
sg151
g33
sg30
I0
sg32
g33
sg34
I0
sg35
g33
sg37
g0
(g38
g2
Ntp1703
Rp1704
(dp1705
g42
I4
sg43
S'x'
p1706
sg45
S'heros'
p1707
sbsg47
(dp1708
S'SR'
p1709
I0
sS'CT'
p1710
I0
sS'CR'
p1711
I0
sS'ST'
p1712
I0
ssg53
(dp1713
g1709
I0
sg1710
I0
sg1711
I0
sg1712
I0
ssg84
(dp1714
g823
I0
sg824
I0
sg825
I0
sg826
I0
ssg56
g33
sg57
I0
sg59
I0
sg60
I0
sg61
I0
sg62
g827
sg64
I00
sg65
g0
(g38
g2
Ntp1715
Rp1716
(dp1717
g42
I2
sg43
S'^^'
p1718
sg45
S'special'
p1719
sbsg71
(dp1720
g823
I0
sg824
I0
sg825
I0
sg826
I0
ssg73
I01
sg74
(dp1721
g823
I0
sg824
I0
sg825
I0
sg826
I0
ssg76
(dp1722
g1709
I0
sg1710
I0
sg1711
I0
sg1712
I0
ssg78
I0
sg79
I0
sg80
S'Har Hel'
p1723
sg82
I10
sg83
I0
sg90
I22
sg86
I6
sg122
(S'dummy'
p1724
S'TL'
p1725
S'PI'
p1726
g33
tp1727
sg89
g33
sg91
(dp1728
S'RP1'
p1729
I7
sS'ME'
p1730
I8
sS'RP2'
p1731
I7
sS'E'
p1732
I10
sS'P'
p1733
I6
sS'JP'
p1734
I4
sS'M'
p1735
I8
sS'RP_tot'
p1736
I7
sS'TO'
p1737
I8
sS'PA'
p1738
I7
sS'A'
p1739
I9
sS'R'
p1740
I7
sS'TB'
p1741
I5
sS'PL'
p1742
I10
sS'TA'
p1743
I5
ssg108
(dp1744
g853
(ijoueur
joueur
p1745
(dp1746
g28
I0
sg30
I0
sg32
g33
sg34
I0
sg35
g33
sg37
g0
(g38
g2
Ntp1747
Rp1748
(dp1749
g42
I4
sg43
S'x'
p1750
sg45
S'heros'
p1751
sbsg47
(dp1752
S'SR'
p1753
I0
sS'ST'
p1754
I0
sS'CR'
p1755
I0
sS'CT'
p1756
I0
ssg53
(dp1757
g1753
I0
sg1754
I0
sg1755
I0
sg1756
I0
ssg56
g33
sg57
I0
sg73
I00
sg59
I0
sg60
I0
sg61
I0
sg62
S'vide'
p1758
sg64
I01
sg65
g0
(g38
g2
Ntp1759
Rp1760
(dp1761
g42
I1
sg43
S'^'
p1762
sg45
S'base'
p1763
sbsg71
(dp1764
g1753
I0
sg1754
I0
sg1755
I0
sg1756
I0
ssg84
(dp1765
g1753
I0
sg1754
I0
sg1755
I0
sg1756
I0
ssg74
(dp1766
g1753
I0
sg1754
I0
sg1755
I0
sg1756
I0
ssg76
(dp1767
g1753
I0
sg1754
I0
sg1755
I0
sg1756
I0
ssg78
I0
sg79
I0
sg80
S'Har Hel'
p1768
sg82
I10
sg83
I0
sg90
I22
sg86
I5
sg122
(S'dummy'
p1769
S'TL'
p1770
S'PI'
p1771
g33
tp1772
sg89
g33
sg91
(dp1773
S'RP1'
p1774
I6
sS'ME'
p1775
I8
sS'RP2'
p1776
I6
sS'E'
p1777
I9
sS'TO'
p1778
I7
sS'M'
p1779
I8
sS'JP'
p1780
I3
sS'RP_tot'
p1781
I6
sS'P'
p1782
I5
sS'PA'
p1783
I6
sS'A'
p1784
I8
sS'R'
p1785
I7
sS'TB'
p1786
I4
sS'PL'
p1787
I9
sS'TA'
p1788
I5
ssg150
I0
sg29
I0
sg152
I0
sg153
I0
sg154
F7.709677419354839
sg155
I0
sg156
I0
sg157
I0
sg893
(dp1789
S'RP1'
p1790
I6
sS'ME'
p1791
I8
sS'RP2'
p1792
I6
sS'E'
p1793
I9
sS'TO'
p1794
I7
sS'M'
p1795
I8
sS'JP'
p1796
I3
sS'RP_tot'
p1797
I6
sS'P'
p1798
I5
sS'PA'
p1799
I6
sS'A'
p1800
I8
sS'R'
p1801
I7
sS'TB'
p1802
I4
sS'PL'
p1803
I9
sS'TA'
p1804
I5
ssg132
g1773
sg159
I0
sg160
I0
sg161
I0
sg158
I0
sg162
I1
sg163
I0
sg164
I0
sg165
S'ARA'
p1805
sbssg150
I0
sg29
I0
sg152
I0
sg153
I0
sg154
F8.290322580645162
sg155
I0
sg156
I0
sg157
I0
sg893
(dp1806
g1729
I6
sg1730
I8
sg1731
I6
sg1732
I9
sg1737
I7
sg1735
I8
sg1734
I3
sg1736
I6
sg1733
I5
sg1738
I6
sg1739
I8
sg1740
I7
sg1741
I4
sg1742
I9
sg1743
I5
ssg132
g1728
sg159
I0
sg160
I0
sg161
I0
sg158
I0
sg162
I1
sg163
I0
sg164
I0
sg165
S'ARA'
p1807
sbsg913
(ijoueur
joueur
p1808
(dp1809
g28
I0
sg30
I0
sg32
g33
sg34
I0
sg35
g33
sg37
g0
(g38
g2
Ntp1810
Rp1811
(dp1812
g42
I4
sg43
S'x'
p1813
sg45
S'heros'
p1814
sbsg47
(dp1815
S'SR'
p1816
I0
sS'ST'
p1817
I0
sS'CR'
p1818
I0
sS'CT'
p1819
I0
ssg53
(dp1820
g1816
I0
sg1817
I0
sg1818
I0
sg1819
I0
ssg56
g33
sg57
I0
sg73
I00
sg59
I0
sg60
I0
sg61
I0
sg62
S'vide'
p1821
sg64
I01
sg65
g0
(g38
g2
Ntp1822
Rp1823
(dp1824
g42
I1
sg43
S'^'
p1825
sg45
S'base'
p1826
sbsg71
(dp1827
g1816
I0
sg1817
I0
sg1818
I0
sg1819
I0
ssg84
(dp1828
g1816
I0
sg1817
I0
sg1818
I0
sg1819
I0
ssg74
(dp1829
g1816
I0
sg1817
I0
sg1818
I0
sg1819
I0
ssg76
(dp1830
g1816
I0
sg1817
I0
sg1818
I0
sg1819
I0
ssg78
I0
sg79
I0
sg80
S'Har Hel'
p1831
sg82
I10
sg83
I0
sg90
I22
sg86
I5
sg122
(S'dummy'
p1832
S'TL'
p1833
S'PI'
p1834
g33
tp1835
sg89
g33
sg91
(dp1836
S'RP1'
p1837
I6
sS'ME'
p1838
I8
sS'RP2'
p1839
I6
sS'E'
p1840
I9
sS'TO'
p1841
I7
sS'M'
p1842
I8
sS'JP'
p1843
I3
sS'RP_tot'
p1844
I6
sS'P'
p1845
I5
sS'PA'
p1846
I6
sS'A'
p1847
I8
sS'R'
p1848
I7
sS'TB'
p1849
I4
sS'PL'
p1850
I9
sS'TA'
p1851
I5
ssg150
I0
sg29
I0
sg152
I0
sg153
I0
sg154
F7.709677419354839
sg155
I0
sg156
I0
sg157
I0
sg893
(dp1852
S'RP1'
p1853
I6
sS'ME'
p1854
I8
sS'RP2'
p1855
I6
sS'E'
p1856
I9
sS'TO'
p1857
I7
sS'M'
p1858
I8
sS'JP'
p1859
I3
sS'RP_tot'
p1860
I6
sS'P'
p1861
I5
sS'PA'
p1862
I6
sS'A'
p1863
I8
sS'R'
p1864
I7
sS'TB'
p1865
I4
sS'PL'
p1866
I9
sS'TA'
p1867
I5
ssg132
g1836
sg159
I0
sg160
I0
sg161
I0
sg158
I0
sg162
I1
sg163
I0
sg164
I0
sg165
S'ARA'
p1868
sbssg150
I0
sg29
I0
sg152
I0
sg153
I0
sg154
F9.32258064516129
sg155
I0
sg122
(S'dummy'
p1869
S'TL'
p1870
S'PI'
p1871
g33
tp1872
sg156
I0
sg157
I0
sg893
(dp1873
g1668
I6
sg1669
I8
sg1670
I6
sg1671
I9
sg1676
I7
sg1674
I8
sg1673
I3
sg1675
I6
sg1672
I5
sg1677
I6
sg1678
I8
sg1679
I7
sg1680
I4
sg1681
I9
sg1682
I5
ssg132
g1667
sg159
I0
sg975
(dp1874
sg160
I0
sg161
I0
sg158
I0
sg162
I4
sg163
I0
sg164
I0
sg165
S'ARA'
p1875
sbasS'AR'
p1876
(lp1877
(ijoueur
joueur
p1878
(dp1879
g28
I0
sg29
I0
sg30
I0
sg31
F189.72449982593022
sg32
g33
sg34
I0
sg35
g33
sg36
I0
sg37
g0
(g38
g2
Ntp1880
Rp1881
(dp1882
g42
I4
sg43
g405
sg45
g193
sbsg47
(dp1883
g49
I2
sg50
I2
sg51
I0
sg52
I2
ssg53
(dp1884
g49
I0
sg50
I0
sg51
I0
sg52
I0
ssg55
I10
sg56
g33
sg57
I0
sg58
F189.72449982593022
sg59
I0
sg60
I0
sg61
I0
sg62
g63
sg64
I00
sg65
g1881
sg71
(dp1885
g49
I2
sg50
I12
sg51
I0
sg52
I0
ssg73
I00
sg74
(dp1886
g49
I0
sg50
I0
sg51
I0
sg52
I0
ssg76
(dp1887
g49
I2
sg50
I12
sg51
I0
sg52
I0
ssg78
I0
sg79
I0
sg80
S'Ysmen Dar'
p1888
sg82
I8
sg83
I0
sg84
(dp1889
g49
I2
sg50
I2
sg51
I0
sg52
I2
ssg86
I190
sg87
I3
sg88
I00
sg89
g33
sg90
I17
sg91
(dp1890
g93
I7
sg94
I5
sg95
I10
sg96
I12
sg97
I9
sg98
I9
sg99
I10
sg100
I10
sg101
I7
sg102
I13
sg103
I11
sg104
I9
sg105
I9
sg106
I11
sg107
I4
ssg108
(dp1891
S's13'
p1892
(ijoueur
joueur
p1893
(dp1894
g28
I0
sg29
I0
sg30
I0
sg34
I0
sg37
g0
(g38
g2
Ntp1895
Rp1896
(dp1897
g43
g33
sbsg47
(dp1898
g117
I0
sg118
I0
sg119
I0
sg120
I0
ssg53
(dp1899
g117
I0
sg118
I0
sg119
I0
sg120
I0
ssg90
I0
sg56
g33
sg61
I0
sg57
I0
sg59
I0
sg60
I0
sg122
g124
sg62
g33
sg64
I00
sg65
g0
(g38
g2
Ntp1900
Rp1901
(dp1902
g43
g33
sbsg71
(dp1903
g117
I0
sg118
I0
sg119
I0
sg120
I0
ssg84
(dp1904
g117
I0
sg118
I0
sg119
I0
sg120
I0
ssg74
(dp1905
g117
I0
sg118
I0
sg119
I0
sg120
I0
ssg76
(dp1906
g117
I0
sg118
I0
sg119
I0
sg120
I0
ssg78
I0
sg79
I0
sg80
g1888
sg82
I0
sg83
I0
sg73
I00
sg86
I0
sg132
g1890
sg91
(dp1907
g134
I0
sg135
I0
sg136
I0
sg137
I0
sg138
I0
sg139
I0
sg140
I0
sg141
I0
sg142
I0
sg143
I0
sg144
I0
sg145
I0
sg146
I0
sg147
I0
sg148
I0
ssg108
(dp1908
sg150
I0
sg151
g33
sg152
I0
sg153
I0
sg154
F10.727272727272727
sg155
I0
sg156
I0
sg157
I0
sg158
I0
sg159
I0
sg160
I0
sg161
I0
sg162
I0
sg163
I0
sg164
I0
sg165
g33
sbsS's12'
p1909
(ijoueur
joueur
p1910
(dp1911
g28
I0
sg29
I0
sg30
I0
sg34
I0
sg37
g0
(g38
g2
Ntp1912
Rp1913
(dp1914
g43
g33
sbsg47
(dp1915
g49
I0
sg50
I0
sg51
I0
sg52
I0
ssg53
(dp1916
g49
I0
sg50
I0
sg51
I0
sg52
I0
ssg56
g33
sg57
I0
sg59
I0
sg60
I0
sg61
I0
sg122
(g174
g1876
g33
g33
tp1917
sg64
I00
sg65
g0
(g38
g2
Ntp1918
Rp1919
(dp1920
g43
g33
sbsg71
(dp1921
g49
I0
sg50
I0
sg51
I0
sg52
I0
ssg73
I00
sg74
(dp1922
g49
I0
sg50
I0
sg51
I0
sg52
I0
ssg76
(dp1923
g49
I0
sg50
I0
sg51
I0
sg52
I0
ssg78
I0
sg79
I0
sg80
g33
sg82
I0
sg83
I0
sg90
I0
sg86
I0
sg62
g63
sg91
(dp1924
g103
I0
sg94
I0
sg95
I0
sg96
I0
sg97
I0
sg93
I0
sg98
I0
sg100
I0
sg101
I0
sg102
I0
sg99
I0
sg104
I0
sg105
I0
sg106
I0
sg107
I0
ssg108
(dp1925
sg150
I0
sg151
g33
sg152
I0
sg156
I0
sg153
I0
sg154
F0.0
sg155
I0
sg84
(dp1926
g49
I0
sg50
I0
sg51
I0
sg52
I0
ssg157
I0
sg132
g1890
sg159
I0
sg160
I0
sg161
I0
sg158
I0
sg162
I0
sg163
I0
sg164
I0
sg165
g33
sbsS's11'
p1927
(ijoueur
joueur
p1928
(dp1929
g28
I0
sg29
I0
sg30
I0
sg34
I0
sg37
g0
(g38
g2
Ntp1930
Rp1931
(dp1932
g43
g33
sbsg47
(dp1933
g49
I0
sg50
I0
sg51
I0
sg52
I0
ssg53
(dp1934
g49
I0
sg50
I0
sg51
I0
sg52
I0
ssg56
g33
sg57
I0
sg59
I0
sg60
I0
sg61
I0
sg122
g1917
sg64
I00
sg65
g0
(g38
g2
Ntp1935
Rp1936
(dp1937
g43
g33
sbsg71
(dp1938
g49
I0
sg50
I0
sg51
I0
sg52
I0
ssg73
I00
sg74
(dp1939
g49
I0
sg50
I0
sg51
I0
sg52
I0
ssg76
(dp1940
g49
I0
sg50
I0
sg51
I0
sg52
I0
ssg78
I0
sg79
I0
sg80
g33
sg82
I0
sg83
I0
sg90
I0
sg86
I0
sg62
g63
sg91
(dp1941
g103
I0
sg94
I0
sg95
I0
sg96
I0
sg97
I0
sg93
I0
sg98
I0
sg100
I0
sg101
I0
sg102
I0
sg99
I0
sg104
I0
sg105
I0
sg106
I0
sg107
I0
ssg108
(dp1942
sg150
I0
sg151
g33
sg152
I0
sg156
I0
sg153
I0
sg154
F0.0
sg155
I0
sg84
(dp1943
g49
I0
sg50
I0
sg51
I0
sg52
I0
ssg157
I0
sg132
g1890
sg159
I0
sg160
I0
sg161
I0
sg158
I0
sg162
I0
sg163
I0
sg164
I0
sg165
g33
sbssg150
I0
sg151
g33
sg152
I0
sg153
I0
sg154
F10.727272727272727
sg155
I0
sg122
(g174
g1876
S'CE'
p1944
g33
tp1945
sg156
I0
sg157
I0
sg132
g1890
sg159
I0
sg160
I0
sg161
I0
sg158
I0
sg162
I19
sg163
I0
sg164
I0
sg165
g186
sba(ijoueur
joueur
p1946
(dp1947
g28
I0
sg29
I0
sg30
I0
sg31
F128.33919885811702
sg32
g33
sg34
I0
sg35
g33
sg36
I0
sg37
g0
(g38
g2
Ntp1948
Rp1949
(dp1950
g42
I4
sg43
g192
sg45
g193
sbsg47
(dp1951
g49
I0
sg50
I12
sg51
I0
sg52
I0
ssg53
(dp1952
g49
I0
sg50
I0
sg51
I0
sg52
I0
ssg55
I10
sg56
g33
sg57
I0
sg58
F128.33919885811702
sg59
I3
sg60
I0
sg61
I0
sg62
g63
sg64
I00
sg65
g1949
sg71
(dp1953
g49
I0
sg50
I2
sg51
I0
sg52
I0
ssg73
I00
sg74
(dp1954
g49
I0
sg50
I0
sg51
I0
sg52
I0
ssg76
(dp1955
g49
I0
sg50
I2
sg51
I0
sg52
I0
ssg78
I0
sg79
I0
sg80
S'Xaqerh'
p1956
sg82
I7
sg83
I0
sg84
(dp1957
g49
I0
sg50
I12
sg51
I0
sg52
I0
ssg86
I195
sg87
I3
sg88
I00
sg89
g33
sg90
I19
sg91
(dp1958
g93
I8
sg94
I7
sg95
I9
sg96
I8
sg97
I7
sg98
I7
sg99
I13
sg100
I10
sg101
I6
sg102
I9
sg103
I10
sg104
I7
sg105
I6
sg106
I12
sg107
I5
ssg108
(dp1959
S's13'
p1960
(ijoueur
joueur
p1961
(dp1962
g28
I0
sg29
I0
sg30
I0
sg34
I0
sg37
g0
(g38
g2
Ntp1963
Rp1964
(dp1965
g43
g33
sbsg47
(dp1966
g117
I0
sg118
I0
sg119
I0
sg120
I0
ssg53
(dp1967
g117
I0
sg118
I0
sg119
I0
sg120
I0
ssg90
I0
sg56
g33
sg61
I0
sg57
I0
sg59
I0
sg60
I0
sg122
g124
sg62
g33
sg64
I00
sg65
g0
(g38
g2
Ntp1968
Rp1969
(dp1970
g43
g33
sbsg71
(dp1971
g117
I0
sg118
I0
sg119
I0
sg120
I0
ssg84
(dp1972
g117
I0
sg118
I0
sg119
I0
sg120
I0
ssg74
(dp1973
g117
I0
sg118
I0
sg119
I0
sg120
I0
ssg76
(dp1974
g117
I0
sg118
I0
sg119
I0
sg120
I0
ssg78
I0
sg79
I0
sg80
g1956
sg82
I0
sg83
I0
sg73
I00
sg86
I0
sg132
g1958
sg91
(dp1975
g134
I0
sg135
I0
sg136
I0
sg137
I0
sg138
I0
sg139
I0
sg140
I0
sg141
I0
sg142
I0
sg143
I0
sg144
I0
sg145
I0
sg146
I0
sg147
I0
sg148
I0
ssg108
(dp1976
sg150
I0
sg151
g33
sg152
I0
sg153
I0
sg154
F9.93939393939394
sg155
I0
sg156
I0
sg157
I0
sg158
I0
sg159
I0
sg160
I0
sg161
I0
sg162
I0
sg163
I0
sg164
I0
sg165
g33
sbsS's12'
p1977
(ijoueur
joueur
p1978
(dp1979
g28
I0
sg29
I0
sg30
I0
sg34
I0
sg37
g0
(g38
g2
Ntp1980
Rp1981
(dp1982
g43
g33
sbsg47
(dp1983
g49
I0
sg50
I0
sg51
I0
sg52
I0
ssg53
(dp1984
g49
I0
sg50
I0
sg51
I0
sg52
I0
ssg56
g33
sg57
I0
sg59
I0
sg60
I0
sg61
I0
sg122
(g174
g1876
g33
g33
tp1985
sg64
I00
sg65
g0
(g38
g2
Ntp1986
Rp1987
(dp1988
g43
g33
sbsg71
(dp1989
g49
I0
sg50
I0
sg51
I0
sg52
I0
ssg73
I00
sg74
(dp1990
g49
I0
sg50
I0
sg51
I0
sg52
I0
ssg76
(dp1991
g49
I0
sg50
I0
sg51
I0
sg52
I0
ssg78
I0
sg79
I0
sg80
g33
sg82
I0
sg83
I0
sg90
I0
sg86
I0
sg62
g63
sg91
(dp1992
g103
I0
sg94
I0
sg95
I0
sg96
I0
sg97
I0
sg93
I0
sg98
I0
sg100
I0
sg101
I0
sg102
I0
sg99
I0
sg104
I0
sg105
I0
sg106
I0
sg107
I0
ssg108
(dp1993
sg150
I0
sg151
g33
sg152
I0
sg156
I0
sg153
I0
sg154
F0.0
sg155
I0
sg84
(dp1994
g49
I0
sg50
I0
sg51
I0
sg52
I0
ssg157
I0
sg132
g1958
sg159
I0
sg160
I0
sg161
I0
sg158
I0
sg162
I0
sg163
I0
sg164
I0
sg165
g33
sbsS's11'
p1995
(ijoueur
joueur
p1996
(dp1997
g28
I0
sg29
I0
sg30
I0
sg34
I0
sg37
g0
(g38
g2
Ntp1998
Rp1999
(dp2000
g43
g33
sbsg47
(dp2001
g49
I0
sg50
I0
sg51
I0
sg52
I0
ssg53
(dp2002
g49
I0
sg50
I0
sg51
I0
sg52
I0
ssg56
g33
sg57
I0
sg59
I0
sg60
I0
sg61
I0
sg122
g1985
sg64
I00
sg65
g0
(g38
g2
Ntp2003
Rp2004
(dp2005
g43
g33
sbsg71
(dp2006
g49
I0
sg50
I0
sg51
I0
sg52
I0
ssg73
I00
sg74
(dp2007
g49
I0
sg50
I0
sg51
I0
sg52
I0
ssg76
(dp2008
g49
I0
sg50
I0
sg51
I0
sg52
I0
ssg78
I0
sg79
I0
sg80
g33
sg82
I0
sg83
I0
sg90
I0
sg86
I0
sg62
g63
sg91
(dp2009
g103
I0
sg94
I0
sg95
I0
sg96
I0
sg97
I0
sg93
I0
sg98
I0
sg100
I0
sg101
I0
sg102
I0
sg99
I0
sg104
I0
sg105
I0
sg106
I0
sg107
I0
ssg108
(dp2010
sg150
I0
sg151
g33
sg152
I0
sg156
I0
sg153
I0
sg154
F0.0
sg155
I0
sg84
(dp2011
g49
I0
sg50
I0
sg51
I0
sg52
I0
ssg157
I0
sg132
g1958
sg159
I0
sg160
I0
sg161
I0
sg158
I0
sg162
I0
sg163
I0
sg164
I0
sg165
g33
sbssg150
I0
sg151
g33
sg152
I0
sg153
I0
sg154
F9.93939393939394
sg155
I0
sg122
(g174
g1876
S'AI'
p2012
g33
tp2013
sg156
I0
sg157
I0
sg132
g1958
sg159
I0
sg160
I0
sg161
I0
sg158
I0
sg162
I19
sg163
I3
sg164
I0
sg165
g186
sbasS'PI'
p2014
(lp2015
(ijoueur
joueur
p2016
(dp2017
g28
I0
sg29
I0
sg30
I0
sg31
F35.42929909105742
sg32
g33
sg34
I0
sg35
g33
sg36
I0
sg37
g0
(g38
g2
Ntp2018
Rp2019
(dp2020
g42
I3
sg43
g1232
sg45
g1233
sbsg47
(dp2021
g49
I0
sg50
I0
sg51
I0
sg52
I0
ssg53
(dp2022
g49
I0
sg50
I0
sg51
I0
sg52
I0
ssg55
I10
sg56
g33
sg57
I0
sg58
F35.42929909105742
sg59
I0
sg60
I0
sg61
I0
sg62
g63
sg64
I00
sg65
g0
(g38
g2
Ntp2023
Rp2024
(dp2025
g42
I1
sg43
g231
sg45
g232
sbsg71
(dp2026
g49
I0
sg50
I1
sg51
I3
sg52
I0
ssg73
I00
sg74
(dp2027
g49
I0
sg50
I0
sg51
I0
sg52
I0
ssg76
(dp2028
g49
I0
sg50
I1
sg51
I3
sg52
I0
ssg78
I0
sg79
I0
sg80
S'Ismed'
p2029
sg82
I13
sg83
I0
sg84
(dp2030
g49
I0
sg50
I0
sg51
I0
sg52
I0
ssg86
I10
sg87
I0
sg88
I00
sg89
g33
sg90
I26
sg91
(dp2031
g93
I8
sg94
I11
sg95
I6
sg96
I8
sg97
I3
sg98
I2
sg99
I7
sg100
I8
sg101
I6
sg102
I6
sg103
I6
sg104
I6
sg105
I3
sg106
I8
sg107
I6
ssg108
(dp2032
S's13'
p2033
(ijoueur
joueur
p2034
(dp2035
g28
I0
sg29
I0
sg30
I0
sg34
I0
sg37
g0
(g38
g2
Ntp2036
Rp2037
(dp2038
g43
g33
sbsg47
(dp2039
g117
I0
sg118
I0
sg119
I0
sg120
I0
ssg53
(dp2040
g117
I0
sg118
I0
sg119
I0
sg120
I0
ssg90
I0
sg56
g33
sg61
I0
sg57
I0
sg59
I0
sg60
I0
sg122
g124
sg62
g33
sg64
I00
sg65
g0
(g38
g2
Ntp2041
Rp2042
(dp2043
g43
g33
sbsg71
(dp2044
g117
I0
sg118
I0
sg119
I0
sg120
I0
ssg84
(dp2045
g117
I0
sg118
I0
sg119
I0
sg120
I0
ssg74
(dp2046
g117
I0
sg118
I0
sg119
I0
sg120
I0
ssg76
(dp2047
g117
I0
sg118
I0
sg119
I0
sg120
I0
ssg78
I0
sg79
I0
sg80
g2029
sg82
I0
sg83
I0
sg73
I00
sg86
I0
sg132
g2031
sg91
(dp2048
g134
I0
sg135
I0
sg136
I0
sg137
I0
sg138
I0
sg139
I0
sg140
I0
sg141
I0
sg142
I0
sg143
I0
sg144
I0
sg145
I0
sg146
I0
sg147
I0
sg148
I0
ssg108
(dp2049
sg150
I0
sg151
g33
sg152
I0
sg153
I0
sg154
F7.851851851851852
sg155
I0
sg156
I0
sg157
I0
sg158
I0
sg159
I0
sg160
I0
sg161
I0
sg162
I0
sg163
I0
sg164
I0
sg165
g33
sbssg150
I0
sg151
g33
sg152
I0
sg153
I0
sg154
F7.851851851851852
sg155
I0
sg122
(g174
g2014
S'DL'
p2050
g33
tp2051
sg156
I0
sg157
I0
sg132
g2031
sg159
I0
sg160
I0
sg161
I0
sg158
I0
sg162
I1
sg163
I0
sg164
I0
sg165
g186
sba(ijoueur
joueur
p2052
(dp2053
g28
I0
sg29
I0
sg30
I0
sg31
F135.91839487877482
sg32
g33
sg34
I0
sg35
g33
sg36
I0
sg37
g0
(g38
g2
Ntp2054
Rp2055
(dp2056
g42
I1
sg43
S'>'
p2057
sg45
g232
sbsg47
(dp2058
g49
I0
sg50
I0
sg51
I0
sg52
I0
ssg53
(dp2059
g49
I0
sg50
I0
sg51
I0
sg52
I0
ssg55
I10
sg56
g33
sg57
I0
sg58
F135.91839487877482
sg59
I0
sg60
I0
sg61
I0
sg62
g63
sg64
I00
sg65
g2055
sg71
(dp2060
g49
I0
sg50
I4
sg51
I11
sg52
I0
ssg73
I01
sg74
(dp2061
g49
I0
sg50
I0
sg51
I0
sg52
I0
ssg76
(dp2062
g49
I0
sg50
I4
sg51
I11
sg52
I0
ssg78
I0
sg79
I0
sg80
S'Thenderdt'
p2063
sg82
I13
sg83
I0
sg84
(dp2064
g49
I0
sg50
I0
sg51
I0
sg52
I0
ssg86
I12
sg87
I2
sg88
I00
sg89
g33
sg90
I20
sg91
(dp2065
g93
I8
sg94
I9
sg95
I7
sg96
I9
sg97
I5
sg98
I1
sg99
I7
sg100
I9
sg101
I6
sg102
I8
sg103
I6
sg104
I8
sg105
I5
sg106
I7
sg107
I6
ssg108
(dp2066
S's13'
p2067
(ijoueur
joueur
p2068
(dp2069
g28
I0
sg29
I0
sg30
I0
sg34
I0
sg37
g0
(g38
g2
Ntp2070
Rp2071
(dp2072
g43
g33
sbsg47
(dp2073
g117
I0
sg118
I0
sg119
I0
sg120
I0
ssg53
(dp2074
g117
I0
sg118
I0
sg119
I0
sg120
I0
ssg90
I0
sg56
g33
sg61
I0
sg57
I0
sg59
I0
sg60
I0
sg122
g124
sg62
g33
sg64
I00
sg65
g0
(g38
g2
Ntp2075
Rp2076
(dp2077
g43
g33
sbsg71
(dp2078
g117
I0
sg118
I0
sg119
I0
sg120
I0
ssg84
(dp2079
g117
I0
sg118
I0
sg119
I0
sg120
I0
ssg74
(dp2080
g117
I0
sg118
I0
sg119
I0
sg120
I0
ssg76
(dp2081
g117
I0
sg118
I0
sg119
I0
sg120
I0
ssg78
I0
sg79
I0
sg80
g2063
sg82
I0
sg83
I0
sg73
I00
sg86
I0
sg132
g2065
sg91
(dp2082
g134
I0
sg135
I0
sg136
I0
sg137
I0
sg138
I0
sg139
I0
sg140
I0
sg141
I0
sg142
I0
sg143
I0
sg144
I0
sg145
I0
sg146
I0
sg147
I0
sg148
I0
ssg108
(dp2083
sg150
I0
sg151
g33
sg152
I0
sg153
I0
sg154
F8.148148148148149
sg155
I0
sg156
I0
sg157
I0
sg158
I0
sg159
I0
sg160
I0
sg161
I0
sg162
I0
sg163
I0
sg164
I0
sg165
g33
sbssg150
I0
sg151
g33
sg152
I0
sg153
I0
sg154
F8.148148148148149
sg155
I0
sg122
(g174
g2014
g33
g33
tp2084
sg156
I0
sg157
I0
sg132
g2065
sg159
I0
sg160
I0
sg161
I0
sg158
I0
sg162
I1
sg163
I0
sg164
I0
sg165
g1088
sba(ijoueur
joueur
p2085
(dp2086
g28
I0
sg29
I0
sg30
I0
sg31
F8.917092342723679
sg32
g33
sg34
I0
sg35
g33
sg36
I0
sg37
g0
(g38
g2
Ntp2087
Rp2088
(dp2089
g42
I1
sg43
g2057
sg45
g232
sbsg47
(dp2090
g49
I0
sg50
I0
sg51
I0
sg52
I0
ssg53
(dp2091
g49
I0
sg50
I0
sg51
I0
sg52
I0
ssg55
I10
sg56
g33
sg57
I0
sg58
F8.917092342723679
sg59
I0
sg60
I0
sg61
I0
sg62
g63
sg64
I01
sg65
g2088
sg71
(dp2092
g49
I0
sg50
I0
sg51
I1
sg52
I0
ssg73
I00
sg74
(dp2093
g49
I0
sg50
I0
sg51
I0
sg52
I0
ssg76
(dp2094
g49
I0
sg50
I0
sg51
I1
sg52
I0
ssg78
I0
sg79
I0
sg80
S'Dkom'
p2095
sg82
I6
sg83
I0
sg84
(dp2096
g49
I0
sg50
I0
sg51
I0
sg52
I0
ssg86
I20
sg87
I0
sg88
I00
sg89
g33
sg90
I17
sg91
(dp2097
g93
I8
sg94
I6
sg95
I6
sg96
I8
sg97
I4
sg98
I4
sg99
I7
sg100
I8
sg101
I7
sg102
I6
sg103
I6
sg104
I8
sg105
I1
sg106
I7
sg107
I8
ssg108
(dp2098
S's13'
p2099
(ijoueur
joueur
p2100
(dp2101
g28
I0
sg29
I0
sg30
I0
sg34
I0
sg37
g0
(g38
g2
Ntp2102
Rp2103
(dp2104
g43
g33
sbsg47
(dp2105
g117
I0
sg118
I0
sg119
I0
sg120
I0
ssg53
(dp2106
g117
I0
sg118
I0
sg119
I0
sg120
I0
ssg90
I0
sg56
g33
sg61
I0
sg57
I0
sg59
I0
sg60
I0
sg122
g124
sg62
g33
sg64
I00
sg65
g0
(g38
g2
Ntp2107
Rp2108
(dp2109
g43
g33
sbsg71
(dp2110
g117
I0
sg118
I0
sg119
I0
sg120
I0
ssg84
(dp2111
g117
I0
sg118
I0
sg119
I0
sg120
I0
ssg74
(dp2112
g117
I0
sg118
I0
sg119
I0
sg120
I0
ssg76
(dp2113
g117
I0
sg118
I0
sg119
I0
sg120
I0
ssg78
I0
sg79
I0
sg80
g2095
sg82
I0
sg83
I0
sg73
I00
sg86
I0
sg132
g2097
sg91
(dp2114
g134
I0
sg135
I0
sg136
I0
sg137
I0
sg138
I0
sg139
I0
sg140
I0
sg141
I0
sg142
I0
sg143
I0
sg144
I0
sg145
I0
sg146
I0
sg147
I0
sg148
I0
ssg108
(dp2115
sg150
I0
sg151
g33
sg152
I0
sg153
I0
sg154
F7.275862068965517
sg155
I0
sg156
I0
sg157
I0
sg158
I0
sg159
I0
sg160
I0
sg161
I0
sg162
I0
sg163
I0
sg164
I0
sg165
g33
sbsS's12'
p2116
(ijoueur
joueur
p2117
(dp2118
g28
I0
sg29
I0
sg30
I0
sg34
I0
sg37
g0
(g38
g2
Ntp2119
Rp2120
(dp2121
g43
g33
sbsg47
(dp2122
g49
I0
sg50
I0
sg51
I0
sg52
I0
ssg53
(dp2123
g49
I0
sg50
I0
sg51
I0
sg52
I0
ssg56
g33
sg57
I0
sg59
I0
sg60
I0
sg61
I0
sg122
(g174
g2014
g33
g33
tp2124
sg64
I00
sg65
g0
(g38
g2
Ntp2125
Rp2126
(dp2127
g43
g33
sbsg71
(dp2128
g49
I0
sg50
I0
sg51
I0
sg52
I0
ssg73
I00
sg74
(dp2129
g49
I0
sg50
I0
sg51
I0
sg52
I0
ssg76
(dp2130
g49
I0
sg50
I0
sg51
I0
sg52
I0
ssg78
I0
sg79
I0
sg80
g33
sg82
I0
sg83
I0
sg90
I0
sg86
I0
sg62
g63
sg91
(dp2131
g103
I0
sg94
I0
sg95
I0
sg96
I0
sg97
I0
sg93
I0
sg98
I0
sg100
I0
sg101
I0
sg102
I0
sg99
I0
sg104
I0
sg105
I0
sg106
I0
sg107
I0
ssg108
(dp2132
sg150
I0
sg151
g33
sg152
I0
sg156
I0
sg153
I0
sg154
F0.0
sg155
I0
sg84
(dp2133
g49
I0
sg50
I0
sg51
I0
sg52
I0
ssg157
I0
sg132
g2097
sg159
I0
sg160
I0
sg161
I0
sg158
I0
sg162
I0
sg163
I0
sg164
I0
sg165
g33
sbsS's11'
p2134
(ijoueur
joueur
p2135
(dp2136
g28
I0
sg29
I0
sg30
I0
sg34
I0
sg37
g0
(g38
g2
Ntp2137
Rp2138
(dp2139
g43
g33
sbsg47
(dp2140
g49
I0
sg50
I0
sg51
I0
sg52
I0
ssg53
(dp2141
g49
I0
sg50
I0
sg51
I0
sg52
I0
ssg56
g33
sg57
I0
sg59
I0
sg60
I0
sg61
I0
sg122
g2124
sg64
I00
sg65
g0
(g38
g2
Ntp2142
Rp2143
(dp2144
g43
g33
sbsg71
(dp2145
g49
I0
sg50
I0
sg51
I0
sg52
I0
ssg73
I00
sg74
(dp2146
g49
I0
sg50
I0
sg51
I0
sg52
I0
ssg76
(dp2147
g49
I0
sg50
I0
sg51
I0
sg52
I0
ssg78
I0
sg79
I0
sg80
g33
sg82
I0
sg83
I0
sg90
I0
sg86
I0
sg62
g63
sg91
(dp2148
g103
I0
sg94
I0
sg95
I0
sg96
I0
sg97
I0
sg93
I0
sg98
I0
sg100
I0
sg101
I0
sg102
I0
sg99
I0
sg104
I0
sg105
I0
sg106
I0
sg107
I0
ssg108
(dp2149
sg150
I0
sg151
g33
sg152
I0
sg156
I0
sg153
I0
sg154
F0.0
sg155
I0
sg84
(dp2150
g49
I0
sg50
I0
sg51
I0
sg52
I0
ssg157
I0
sg132
g2097
sg159
I0
sg160
I0
sg161
I0
sg158
I0
sg162
I0
sg163
I0
sg164
I0
sg165
g33
sbssg150
I0
sg151
g33
sg152
I0
sg153
I0
sg154
F7.275862068965517
sg155
I0
sg122
(g174
g2014
S'TA'
p2151
g33
tp2152
sg156
I0
sg157
I0
sg132
g2097
sg159
I0
sg160
I0
sg161
I0
sg158
I0
sg162
I2
sg163
I0
sg164
I0
sg165
S'O'
p2153
sba(ijoueur
joueur
p2154
(dp2155
g28
I0
sg29
I0
sg30
I0
sg31
F146.30758627732536
sg32
g33
sg34
I0
sg35
g33
sg36
I0
sg37
g0
(g38
g2
Ntp2156
Rp2157
(dp2158
g42
I3
sg43
g1232
sg45
g1233
sbsg47
(dp2159
g49
I0
sg50
I0
sg51
I0
sg52
I0
ssg53
(dp2160
g49
I0
sg50
I0
sg51
I0
sg52
I0
ssg55
I10
sg56
g33
sg57
I0
sg58
F146.30758627732536
sg59
I0
sg60
I0
sg61
I0
sg62
g63
sg64
I00
sg65
g2157
sg71
(dp2161
g49
I1
sg50
I15
sg51
I0
sg52
I0
ssg73
I00
sg74
(dp2162
g49
I0
sg50
I0
sg51
I0
sg52
I0
ssg76
(dp2163
g49
I1
sg50
I15
sg51
I0
sg52
I0
ssg78
I0
sg79
I0
sg80
S'Stalesh'
p2164
sg82
I7
sg83
I0
sg84
(dp2165
g49
I0
sg50
I0
sg51
I0
sg52
I0
ssg86
I94
sg87
I3
sg88
I00
sg89
g33
sg90
I20
sg91
(dp2166
g93
I9
sg94
I11
sg95
I7
sg96
I9
sg97
I6
sg98
I5
sg99
I7
sg100
I9
sg101
I9
sg102
I7
sg103
I9
sg104
I10
sg105
I4
sg106
I9
sg107
I7
ssg108
(dp2167
S's13'
p2168
(ijoueur
joueur
p2169
(dp2170
g28
I0
sg29
I0
sg30
I0
sg34
I0
sg37
g0
(g38
g2
Ntp2171
Rp2172
(dp2173
g43
g33
sbsg47
(dp2174
g117
I0
sg118
I0
sg119
I0
sg120
I0
ssg53
(dp2175
g117
I0
sg118
I0
sg119
I0
sg120
I0
ssg90
I0
sg56
g33
sg61
I0
sg57
I0
sg59
I0
sg60
I0
sg122
g124
sg62
g33
sg64
I00
sg65
g0
(g38
g2
Ntp2176
Rp2177
(dp2178
g43
g33
sbsg71
(dp2179
g117
I0
sg118
I0
sg119
I0
sg120
I0
ssg84
(dp2180
g117
I0
sg118
I0
sg119
I0
sg120
I0
ssg74
(dp2181
g117
I0
sg118
I0
sg119
I0
sg120
I0
ssg76
(dp2182
g117
I0
sg118
I0
sg119
I0
sg120
I0
ssg78
I0
sg79
I0
sg80
g2164
sg82
I0
sg83
I0
sg73
I00
sg86
I0
sg132
g2166
sg91
(dp2183
g134
I0
sg135
I0
sg136
I0
sg137
I0
sg138
I0
sg139
I0
sg140
I0
sg141
I0
sg142
I0
sg143
I0
sg144
I0
sg145
I0
sg146
I0
sg147
I0
sg148
I0
ssg108
(dp2184
sg150
I0
sg151
g33
sg152
I0
sg153
I0
sg154
F9.444444444444445
sg155
I0
sg156
I0
sg157
I0
sg158
I0
sg159
I0
sg160
I0
sg161
I0
sg162
I0
sg163
I0
sg164
I0
sg165
g33
sbsS's12'
p2185
(ijoueur
joueur
p2186
(dp2187
g28
I0
sg29
I0
sg30
I0
sg34
I0
sg37
g0
(g38
g2
Ntp2188
Rp2189
(dp2190
g43
g33
sbsg47
(dp2191
g49
I0
sg50
I0
sg51
I0
sg52
I0
ssg53
(dp2192
g49
I0
sg50
I0
sg51
I0
sg52
I0
ssg56
g33
sg57
I0
sg59
I0
sg60
I0
sg61
I0
sg122
(g174
g2014
g33
g33
tp2193
sg64
I00
sg65
g0
(g38
g2
Ntp2194
Rp2195
(dp2196
g43
g33
sbsg71
(dp2197
g49
I0
sg50
I0
sg51
I0
sg52
I0
ssg73
I00
sg74
(dp2198
g49
I0
sg50
I0
sg51
I0
sg52
I0
ssg76
(dp2199
g49
I0
sg50
I0
sg51
I0
sg52
I0
ssg78
I0
sg79
I0
sg80
g33
sg82
I0
sg83
I0
sg90
I0
sg86
I0
sg62
g63
sg91
(dp2200
g103
I0
sg94
I0
sg95
I0
sg96
I0
sg97
I0
sg93
I0
sg98
I0
sg100
I0
sg101
I0
sg102
I0
sg99
I0
sg104
I0
sg105
I0
sg106
I0
sg107
I0
ssg108
(dp2201
sg150
I0
sg151
g33
sg152
I0
sg156
I0
sg153
I0
sg154
F0.0
sg155
I0
sg84
(dp2202
g49
I0
sg50
I0
sg51
I0
sg52
I0
ssg157
I0
sg132
g2166
sg159
I0
sg160
I0
sg161
I0
sg158
I0
sg162
I0
sg163
I0
sg164
I0
sg165
g33
sbsS's11'
p2203
(ijoueur
joueur
p2204
(dp2205
g28
I0
sg29
I0
sg30
I0
sg34
I0
sg37
g0
(g38
g2
Ntp2206
Rp2207
(dp2208
g43
g33
sbsg47
(dp2209
g49
I0
sg50
I0
sg51
I0
sg52
I0
ssg53
(dp2210
g49
I0
sg50
I0
sg51
I0
sg52
I0
ssg56
g33
sg57
I0
sg59
I0
sg60
I0
sg61
I0
sg122
g2193
sg64
I00
sg65
g0
(g38
g2
Ntp2211
Rp2212
(dp2213
g43
g33
sbsg71
(dp2214
g49
I0
sg50
I0
sg51
I0
sg52
I0
ssg73
I00
sg74
(dp2215
g49
I0
sg50
I0
sg51
I0
sg52
I0
ssg76
(dp2216
g49
I0
sg50
I0
sg51
I0
sg52
I0
ssg78
I0
sg79
I0
sg80
g33
sg82
I0
sg83
I0
sg90
I0
sg86
I0
sg62
g63
sg91
(dp2217
g103
I0
sg94
I0
sg95
I0
sg96
I0
sg97
I0
sg93
I0
sg98
I0
sg100
I0
sg101
I0
sg102
I0
sg99
I0
sg104
I0
sg105
I0
sg106
I0
sg107
I0
ssg108
(dp2218
sg150
I0
sg151
g33
sg152
I0
sg156
I0
sg153
I0
sg154
F0.0
sg155
I0
sg84
(dp2219
g49
I0
sg50
I0
sg51
I0
sg52
I0
ssg157
I0
sg132
g2166
sg159
I0
sg160
I0
sg161
I0
sg158
I0
sg162
I0
sg163
I0
sg164
I0
sg165
g33
sbssg150
I0
sg151
g33
sg152
I0
sg153
I0
sg154
F9.444444444444445
sg155
I0
sg122
(g174
g2014
g33
g33
tp2220
sg156
I0
sg157
I0
sg132
g2166
sg159
I0
sg160
I0
sg161
I0
sg158
I0
sg162
I9
sg163
I0
sg164
I0
sg165
g186
sba(ijoueur
joueur
p2221
(dp2222
g28
I1
sg29
I0
sg30
I0
sg31
F178.9979258339578
sg32
g33
sg34
I0
sg35
g33
sg36
I0
sg37
g0
(g38
g2
Ntp2223
Rp2224
(dp2225
g42
I4
sg43
g192
sg45
g193
sbsg47
(dp2226
g49
I1
sg50
I0
sg51
I0
sg52
I0
ssg53
(dp2227
g49
I0
sg50
I0
sg51
I0
sg52
I0
ssg55
I10
sg56
g33
sg57
I0
sg58
F178.9979258339578
sg59
I2
sg60
I0
sg61
I0
sg62
g63
sg64
I01
sg65
g2224
sg71
(dp2228
g49
I0
sg50
I14
sg51
I0
sg52
I4
ssg73
I00
sg74
(dp2229
g49
I0
sg50
I0
sg51
I0
sg52
I0
ssg76
(dp2230
g49
I0
sg50
I14
sg51
I0
sg52
I4
ssg78
I0
sg79
I0
sg80
S"Zarh Me'Hendil"
p2231
sg82
I9
sg83
I0
sg84
(dp2232
g49
I1
sg50
I0
sg51
I0
sg52
I0
ssg86
I241
sg87
I3
sg88
I00
sg89
g33
sg90
I23
sg91
(dp2233
g93
I9
sg94
I11
sg95
I8
sg96
I8
sg97
I5
sg98
I2
sg99
I9
sg100
I10
sg101
I9
sg102
I8
sg103
I11
sg104
I11
sg105
I3
sg106
I11
sg107
I9
ssg108
(dp2234
S's13'
p2235
(ijoueur
joueur
p2236
(dp2237
g28
I0
sg29
I0
sg30
I0
sg34
I0
sg37
g0
(g38
g2
Ntp2238
Rp2239
(dp2240
g43
g33
sbsg47
(dp2241
g117
I0
sg118
I0
sg119
I0
sg120
I0
ssg53
(dp2242
g117
I0
sg118
I0
sg119
I0
sg120
I0
ssg90
I0
sg56
g33
sg61
I0
sg57
I0
sg59
I0
sg60
I0
sg122
g124
sg62
g33
sg64
I00
sg65
g0
(g38
g2
Ntp2243
Rp2244
(dp2245
g43
g33
sbsg71
(dp2246
g117
I0
sg118
I0
sg119
I0
sg120
I0
ssg84
(dp2247
g117
I0
sg118
I0
sg119
I0
sg120
I0
ssg74
(dp2248
g117
I0
sg118
I0
sg119
I0
sg120
I0
ssg76
(dp2249
g117
I0
sg118
I0
sg119
I0
sg120
I0
ssg78
I0
sg79
I0
sg80
g2231
sg82
I0
sg83
I0
sg73
I00
sg86
I0
sg132
g2233
sg91
(dp2250
g134
I0
sg135
I0
sg136
I0
sg137
I0
sg138
I0
sg139
I0
sg140
I0
sg141
I0
sg142
I0
sg143
I0
sg144
I0
sg145
I0
sg146
I0
sg147
I0
sg148
I0
ssg108
(dp2251
sg150
I0
sg151
g33
sg152
I0
sg153
I0
sg154
F10.222222222222221
sg155
I0
sg156
I0
sg157
I0
sg158
I0
sg159
I0
sg160
I0
sg161
I0
sg162
I0
sg163
I0
sg164
I0
sg165
g33
sbsS's12'
p2252
(ijoueur
joueur
p2253
(dp2254
g28
I0
sg29
I0
sg30
I0
sg34
I0
sg37
g0
(g38
g2
Ntp2255
Rp2256
(dp2257
g43
g33
sbsg47
(dp2258
g49
I0
sg50
I0
sg51
I0
sg52
I0
ssg53
(dp2259
g49
I0
sg50
I0
sg51
I0
sg52
I0
ssg56
g33
sg57
I0
sg59
I0
sg60
I0
sg61
I0
sg122
(g174
g2014
g33
g33
tp2260
sg64
I00
sg65
g0
(g38
g2
Ntp2261
Rp2262
(dp2263
g43
g33
sbsg71
(dp2264
g49
I0
sg50
I0
sg51
I0
sg52
I0
ssg73
I00
sg74
(dp2265
g49
I0
sg50
I0
sg51
I0
sg52
I0
ssg76
(dp2266
g49
I0
sg50
I0
sg51
I0
sg52
I0
ssg78
I0
sg79
I0
sg80
g33
sg82
I0
sg83
I0
sg90
I0
sg86
I0
sg62
g63
sg91
(dp2267
g103
I0
sg94
I0
sg95
I0
sg96
I0
sg97
I0
sg93
I0
sg98
I0
sg100
I0
sg101
I0
sg102
I0
sg99
I0
sg104
I0
sg105
I0
sg106
I0
sg107
I0
ssg108
(dp2268
sg150
I0
sg151
g33
sg152
I0
sg156
I0
sg153
I0
sg154
F0.0
sg155
I0
sg84
(dp2269
g49
I0
sg50
I0
sg51
I0
sg52
I0
ssg157
I0
sg132
g2233
sg159
I0
sg160
I0
sg161
I0
sg158
I0
sg162
I0
sg163
I0
sg164
I0
sg165
g33
sbsS's11'
p2270
(ijoueur
joueur
p2271
(dp2272
g28
I0
sg29
I0
sg30
I0
sg34
I0
sg37
g0
(g38
g2
Ntp2273
Rp2274
(dp2275
g43
g33
sbsg47
(dp2276
g49
I0
sg50
I0
sg51
I0
sg52
I0
ssg53
(dp2277
g49
I0
sg50
I0
sg51
I0
sg52
I0
ssg56
g33
sg57
I0
sg59
I0
sg60
I0
sg61
I0
sg122
g2260
sg64
I00
sg65
g0
(g38
g2
Ntp2278
Rp2279
(dp2280
g43
g33
sbsg71
(dp2281
g49
I0
sg50
I0
sg51
I0
sg52
I0
ssg73
I00
sg74
(dp2282
g49
I0
sg50
I0
sg51
I0
sg52
I0
ssg76
(dp2283
g49
I0
sg50
I0
sg51
I0
sg52
I0
ssg78
I0
sg79
I0
sg80
g33
sg82
I0
sg83
I0
sg90
I0
sg86
I0
sg62
g63
sg91
(dp2284
g103
I0
sg94
I0
sg95
I0
sg96
I0
sg97
I0
sg93
I0
sg98
I0
sg100
I0
sg101
I0
sg102
I0
sg99
I0
sg104
I0
sg105
I0
sg106
I0
sg107
I0
ssg108
(dp2285
sg150
I0
sg151
g33
sg152
I0
sg156
I0
sg153
I0
sg154
F0.0
sg155
I0
sg84
(dp2286
g49
I0
sg50
I0
sg51
I0
sg52
I0
ssg157
I0
sg132
g2233
sg159
I0
sg160
I0
sg161
I0
sg158
I0
sg162
I0
sg163
I0
sg164
I0
sg165
g33
sbssg150
I0
sg151
g33
sg152
I0
sg153
I0
sg154
F10.222222222222221
sg155
I0
sg122
(g174
g2014
S'TA'
p2287
g33
tp2288
sg156
I0
sg157
I0
sg132
g2233
sg159
I1
sg160
I0
sg161
I0
sg158
I0
sg162
I24
sg163
I2
sg164
I0
sg165
g186
sbasg107
(lp2289
(ijoueur
joueur
p2290
(dp2291
g28
I1
sg29
I0
sg30
I0
sg31
F137.1170869219022
sg32
g33
sg34
I0
sg35
g33
sg36
I0
sg37
g0
(g38
g2
Ntp2292
Rp2293
(dp2294
g42
I4
sg43
g405
sg45
g193
sbsg47
(dp2295
g49
I0
sg50
I0
sg51
I0
sg52
I0
ssg53
(dp2296
g49
I0
sg50
I0
sg51
I0
sg52
I0
ssg55
I10
sg56
g33
sg57
I0
sg58
F137.1170869219022
sg59
I0
sg60
I0
sg61
I0
sg62
g63
sg64
I00
sg65
g2293
sg71
(dp2297
g49
I0
sg50
I5
sg51
I10
sg52
I0
ssg73
I00
sg74
(dp2298
g49
I0
sg50
I0
sg51
I0
sg52
I0
ssg76
(dp2299
g49
I0
sg50
I5
sg51
I10
sg52
I0
ssg78
I0
sg79
I0
sg80
S'Wizzgoth'
p2300
sg82
I8
sg83
I0
sg84
(dp2301
g49
I0
sg50
I0
sg51
I0
sg52
I0
ssg86
I171
sg87
I1
sg88
I00
sg89
g33
sg90
I18
sg91
(dp2302
g93
I8
sg94
I9
sg95
I8
sg96
I10
sg97
I5
sg98
I5
sg99
I9
sg100
I10
sg101
I9
sg102
I9
sg103
I12
sg104
I7
sg105
I6
sg106
I10
sg107
I8
ssg108
(dp2303
S's13'
p2304
(ijoueur
joueur
p2305
(dp2306
g28
I0
sg29
I0
sg30
I0
sg34
I0
sg37
g0
(g38
g2
Ntp2307
Rp2308
(dp2309
g43
g33
sbsg47
(dp2310
g117
I0
sg118
I0
sg119
I0
sg120
I0
ssg53
(dp2311
g117
I0
sg118
I0
sg119
I0
sg120
I0
ssg90
I0
sg56
g33
sg61
I0
sg57
I0
sg59
I0
sg60
I0
sg122
g124
sg62
g33
sg64
I00
sg65
g0
(g38
g2
Ntp2312
Rp2313
(dp2314
g43
g33
sbsg71
(dp2315
g117
I0
sg118
I0
sg119
I0
sg120
I0
ssg84
(dp2316
g117
I0
sg118
I0
sg119
I0
sg120
I0
ssg74
(dp2317
g117
I0
sg118
I0
sg119
I0
sg120
I0
ssg76
(dp2318
g117
I0
sg118
I0
sg119
I0
sg120
I0
ssg78
I0
sg79
I0
sg80
g2300
sg82
I0
sg83
I0
sg73
I00
sg86
I0
sg132
g2302
sg91
(dp2319
g134
I0
sg135
I0
sg136
I0
sg137
I0
sg138
I0
sg139
I0
sg140
I0
sg141
I0
sg142
I0
sg143
I0
sg144
I0
sg145
I0
sg146
I0
sg147
I0
sg148
I0
ssg108
(dp2320
sg150
I0
sg151
g33
sg152
I0
sg153
I0
sg154
F9.068965517241379
sg155
I0
sg156
I0
sg157
I0
sg158
I0
sg159
I0
sg160
I0
sg161
I0
sg162
I0
sg163
I0
sg164
I0
sg165
g33
sbsS's12'
p2321
(ijoueur
joueur
p2322
(dp2323
g28
I0
sg29
I0
sg30
I0
sg34
I0
sg37
g0
(g38
g2
Ntp2324
Rp2325
(dp2326
g43
g33
sbsg47
(dp2327
g49
I0
sg50
I0
sg51
I0
sg52
I0
ssg53
(dp2328
g49
I0
sg50
I0
sg51
I0
sg52
I0
ssg56
g33
sg57
I0
sg59
I0
sg60
I0
sg61
I0
sg122
(g174
g107
g33
g33
tp2329
sg64
I00
sg65
g0
(g38
g2
Ntp2330
Rp2331
(dp2332
g43
g33
sbsg71
(dp2333
g49
I0
sg50
I0
sg51
I0
sg52
I0
ssg73
I00
sg74
(dp2334
g49
I0
sg50
I0
sg51
I0
sg52
I0
ssg76
(dp2335
g49
I0
sg50
I0
sg51
I0
sg52
I0
ssg78
I0
sg79
I0
sg80
g33
sg82
I0
sg83
I0
sg90
I0
sg86
I0
sg62
g63
sg91
(dp2336
g103
I0
sg94
I0
sg95
I0
sg96
I0
sg97
I0
sg93
I0
sg98
I0
sg100
I0
sg101
I0
sg102
I0
sg99
I0
sg104
I0
sg105
I0
sg106
I0
sg107
I0
ssg108
(dp2337
sg150
I0
sg151
g33
sg152
I0
sg156
I0
sg153
I0
sg154
F0.0
sg155
I0
sg84
(dp2338
g49
I0
sg50
I0
sg51
I0
sg52
I0
ssg157
I0
sg132
g2302
sg159
I0
sg160
I0
sg161
I0
sg158
I0
sg162
I0
sg163
I0
sg164
I0
sg165
g33
sbsS's11'
p2339
(ijoueur
joueur
p2340
(dp2341
g28
I0
sg29
I0
sg30
I0
sg34
I0
sg37
g0
(g38
g2
Ntp2342
Rp2343
(dp2344
g43
g33
sbsg47
(dp2345
g49
I0
sg50
I0
sg51
I0
sg52
I0
ssg53
(dp2346
g49
I0
sg50
I0
sg51
I0
sg52
I0
ssg56
g33
sg57
I0
sg59
I0
sg60
I0
sg61
I0
sg122
g2329
sg64
I00
sg65
g0
(g38
g2
Ntp2347
Rp2348
(dp2349
g43
g33
sbsg71
(dp2350
g49
I0
sg50
I0
sg51
I0
sg52
I0
ssg73
I00
sg74
(dp2351
g49
I0
sg50
I0
sg51
I0
sg52
I0
ssg76
(dp2352
g49
I0
sg50
I0
sg51
I0
sg52
I0
ssg78
I0
sg79
I0
sg80
g33
sg82
I0
sg83
I0
sg90
I0
sg86
I0
sg62
g63
sg91
(dp2353
g103
I0
sg94
I0
sg95
I0
sg96
I0
sg97
I0
sg93
I0
sg98
I0
sg100
I0
sg101
I0
sg102
I0
sg99
I0
sg104
I0
sg105
I0
sg106
I0
sg107
I0
ssg108
(dp2354
sg150
I0
sg151
g33
sg152
I0
sg156
I0
sg153
I0
sg154
F0.0
sg155
I0
sg84
(dp2355
g49
I0
sg50
I0
sg51
I0
sg52
I0
ssg157
I0
sg132
g2302
sg159
I0
sg160
I0
sg161
I0
sg158
I0
sg162
I0
sg163
I0
sg164
I0
sg165
g33
sbssg150
I0
sg151
g33
sg152
I0
sg153
I0
sg154
F9.068965517241379
sg155
I0
sg122
(g174
g107
g33
g33
tp2356
sg156
I0
sg157
I0
sg132
g2302
sg159
I1
sg160
I0
sg161
I0
sg158
I0
sg162
I17
sg163
I0
sg164
I0
sg165
g186
sba(ijoueur
joueur
p2357
(dp2358
g28
I0
sg29
I0
sg30
I0
sg31
F127.1656991329238
sg32
g33
sg34
I0
sg35
g33
sg36
I0
sg37
g0
(g38
g2
Ntp2359
Rp2360
(dp2361
g42
I4
sg43
g192
sg45
g193
sbsg47
(dp2362
g49
I0
sg50
I2
sg51
I0
sg52
I0
ssg53
(dp2363
g49
I0
sg50
I0
sg51
I0
sg52
I0
ssg55
I10
sg56
g33
sg57
I0
sg58
F127.1656991329238
sg59
I1
sg60
I0
sg61
I0
sg62
g63
sg64
I00
sg65
g2360
sg71
(dp2364
g49
I0
sg50
I11
sg51
I1
sg52
I0
ssg73
I00
sg74
(dp2365
g49
I0
sg50
I0
sg51
I0
sg52
I0
ssg76
(dp2366
g49
I0
sg50
I11
sg51
I1
sg52
I0
ssg78
I0
sg79
I0
sg80
S'Darhzyel'
p2367
sg82
I7
sg83
I0
sg84
(dp2368
g49
I0
sg50
I2
sg51
I0
sg52
I0
ssg86
I160
sg87
I2
sg88
I00
sg89
g33
sg90
I18
sg91
(dp2369
g93
I9
sg94
I8
sg95
I6
sg96
I8
sg97
I4
sg98
I2
sg99
I7
sg100
I9
sg101
I8
sg102
I8
sg103
I8
sg104
I10
sg105
I3
sg106
I11
sg107
I10
ssg108
(dp2370
S's13'
p2371
(ijoueur
joueur
p2372
(dp2373
g28
I0
sg29
I0
sg30
I0
sg34
I0
sg37
g0
(g38
g2
Ntp2374
Rp2375
(dp2376
g43
g33
sbsg47
(dp2377
g117
I0
sg118
I0
sg119
I0
sg120
I0
ssg53
(dp2378
g117
I0
sg118
I0
sg119
I0
sg120
I0
ssg90
I0
sg56
g33
sg61
I0
sg57
I0
sg59
I0
sg60
I0
sg122
g124
sg62
g33
sg64
I00
sg65
g0
(g38
g2
Ntp2379
Rp2380
(dp2381
g43
g33
sbsg71
(dp2382
g117
I0
sg118
I0
sg119
I0
sg120
I0
ssg84
(dp2383
g117
I0
sg118
I0
sg119
I0
sg120
I0
ssg74
(dp2384
g117
I0
sg118
I0
sg119
I0
sg120
I0
ssg76
(dp2385
g117
I0
sg118
I0
sg119
I0
sg120
I0
ssg78
I0
sg79
I0
sg80
g2367
sg82
I0
sg83
I0
sg73
I00
sg86
I0
sg132
g2369
sg91
(dp2386
g134
I0
sg135
I0
sg136
I0
sg137
I0
sg138
I0
sg139
I0
sg140
I0
sg141
I0
sg142
I0
sg143
I0
sg144
I0
sg145
I0
sg146
I0
sg147
I0
sg148
I0
ssg108
(dp2387
sg150
I0
sg151
g33
sg152
I0
sg153
I0
sg154
F9.206896551724139
sg155
I0
sg156
I0
sg157
I0
sg158
I0
sg159
I0
sg160
I0
sg161
I0
sg162
I0
sg163
I0
sg164
I0
sg165
g33
sbsS's12'
p2388
(ijoueur
joueur
p2389
(dp2390
g28
I0
sg29
I0
sg30
I0
sg34
I0
sg37
g0
(g38
g2
Ntp2391
Rp2392
(dp2393
g43
g33
sbsg47
(dp2394
g49
I0
sg50
I0
sg51
I0
sg52
I0
ssg53
(dp2395
g49
I0
sg50
I0
sg51
I0
sg52
I0
ssg56
g33
sg57
I0
sg59
I0
sg60
I0
sg61
I0
sg122
(g174
g107
g33
g33
tp2396
sg64
I00
sg65
g0
(g38
g2
Ntp2397
Rp2398
(dp2399
g43
g33
sbsg71
(dp2400
g49
I0
sg50
I0
sg51
I0
sg52
I0
ssg73
I00
sg74
(dp2401
g49
I0
sg50
I0
sg51
I0
sg52
I0
ssg76
(dp2402
g49
I0
sg50
I0
sg51
I0
sg52
I0
ssg78
I0
sg79
I0
sg80
g33
sg82
I0
sg83
I0
sg90
I0
sg86
I0
sg62
g63
sg91
(dp2403
g103
I0
sg94
I0
sg95
I0
sg96
I0
sg97
I0
sg93
I0
sg98
I0
sg100
I0
sg101
I0
sg102
I0
sg99
I0
sg104
I0
sg105
I0
sg106
I0
sg107
I0
ssg108
(dp2404
sg150
I0
sg151
g33
sg152
I0
sg156
I0
sg153
I0
sg154
F0.0
sg155
I0
sg84
(dp2405
g49
I0
sg50
I0
sg51
I0
sg52
I0
ssg157
I0
sg132
g2369
sg159
I0
sg160
I0
sg161
I0
sg158
I0
sg162
I0
sg163
I0
sg164
I0
sg165
g33
sbsS's11'
p2406
(ijoueur
joueur
p2407
(dp2408
g28
I0
sg29
I0
sg30
I0
sg34
I0
sg37
g0
(g38
g2
Ntp2409
Rp2410
(dp2411
g43
g33
sbsg47
(dp2412
g49
I0
sg50
I0
sg51
I0
sg52
I0
ssg53
(dp2413
g49
I0
sg50
I0
sg51
I0
sg52
I0
ssg56
g33
sg57
I0
sg59
I0
sg60
I0
sg61
I0
sg122
g2396
sg64
I00
sg65
g0
(g38
g2
Ntp2414
Rp2415
(dp2416
g43
g33
sbsg71
(dp2417
g49
I0
sg50
I0
sg51
I0
sg52
I0
ssg73
I00
sg74
(dp2418
g49
I0
sg50
I0
sg51
I0
sg52
I0
ssg76
(dp2419
g49
I0
sg50
I0
sg51
I0
sg52
I0
ssg78
I0
sg79
I0
sg80
g33
sg82
I0
sg83
I0
sg90
I0
sg86
I0
sg62
g63
sg91
(dp2420
g103
I0
sg94
I0
sg95
I0
sg96
I0
sg97
I0
sg93
I0
sg98
I0
sg100
I0
sg101
I0
sg102
I0
sg99
I0
sg104
I0
sg105
I0
sg106
I0
sg107
I0
ssg108
(dp2421
sg150
I0
sg151
g33
sg152
I0
sg156
I0
sg153
I0
sg154
F0.0
sg155
I0
sg84
(dp2422
g49
I0
sg50
I0
sg51
I0
sg52
I0
ssg157
I0
sg132
g2369
sg159
I0
sg160
I0
sg161
I0
sg158
I0
sg162
I0
sg163
I0
sg164
I0
sg165
g33
sbssg150
I0
sg151
g33
sg152
I0
sg153
I0
sg154
F9.206896551724139
sg155
I0
sg122
(g174
g107
S'TL'
p2423
g33
tp2424
sg156
I0
sg157
I0
sg132
g2369
sg159
I0
sg160
I0
sg161
I0
sg158
I0
sg162
I16
sg163
I1
sg164
I0
sg165
S'HB'
p2425
sba(ijoueur
joueur
p2426
(dp2427
g28
I0
sg29
I0
sg30
I0
sg31
F82.22911734282881
sg32
g33
sg34
I0
sg35
g33
sg36
I0
sg37
g0
(g38
g2
Ntp2428
Rp2429
(dp2430
g42
I2
sg43
g337
sg45
g70
sbsg47
(dp2431
g49
I0
sg50
I0
sg51
I2
sg52
I0
ssg53
(dp2432
g49
I0
sg50
I0
sg51
I0
sg52
I0
ssg55
I10
sg56
g33
sg57
I0
sg58
F82.22911734282881
sg59
I0
sg60
I0
sg61
I0
sg62
g63
sg64
I01
sg65
g2429
sg71
(dp2433
g49
I0
sg50
I1
sg51
I6
sg52
I0
ssg73
I01
sg74
(dp2434
g49
I0
sg50
I0
sg51
I0
sg52
I0
ssg76
(dp2435
g49
I0
sg50
I1
sg51
I6
sg52
I0
ssg78
I0
sg79
I0
sg80
S'Pratish'
p2436
sg82
I11
sg83
I0
sg84
(dp2437
g49
I0
sg50
I0
sg51
I2
sg52
I0
ssg86
I9
sg87
I0
sg88
I00
sg89
g33
sg90
I20
sg91
(dp2438
g93
I8
sg94
I7
sg95
I6
sg96
I10
sg97
I6
sg98
I1
sg99
I7
sg100
I8
sg101
I6
sg102
I7
sg103
I8
sg104
I8
sg105
I2
sg106
I9
sg107
I8
ssg108
(dp2439
S's13'
p2440
(ijoueur
joueur
p2441
(dp2442
g28
I0
sg29
I0
sg30
I0
sg34
I0
sg37
g0
(g38
g2
Ntp2443
Rp2444
(dp2445
g43
g33
sbsg47
(dp2446
g117
I0
sg118
I0
sg119
I0
sg120
I0
ssg53
(dp2447
g117
I0
sg118
I0
sg119
I0
sg120
I0
ssg90
I0
sg56
g33
sg61
I0
sg57
I0
sg59
I0
sg60
I0
sg122
g124
sg62
g33
sg64
I00
sg65
g0
(g38
g2
Ntp2448
Rp2449
(dp2450
g43
g33
sbsg71
(dp2451
g117
I0
sg118
I0
sg119
I0
sg120
I0
ssg84
(dp2452
g117
I0
sg118
I0
sg119
I0
sg120
I0
ssg74
(dp2453
g117
I0
sg118
I0
sg119
I0
sg120
I0
ssg76
(dp2454
g117
I0
sg118
I0
sg119
I0
sg120
I0
ssg78
I0
sg79
I0
sg80
g2436
sg82
I0
sg83
I0
sg73
I00
sg86
I0
sg132
g2438
sg91
(dp2455
g134
I0
sg135
I0
sg136
I0
sg137
I0
sg138
I0
sg139
I0
sg140
I0
sg141
I0
sg142
I0
sg143
I0
sg144
I0
sg145
I0
sg146
I0
sg147
I0
sg148
I0
ssg108
(dp2456
sg150
I0
sg151
g33
sg152
I0
sg153
I0
sg154
F8.241379310344827
sg155
I0
sg156
I0
sg157
I0
sg158
I0
sg159
I0
sg160
I0
sg161
I0
sg162
I0
sg163
I0
sg164
I0
sg165
g33
sbsS's12'
p2457
(ijoueur
joueur
p2458
(dp2459
g28
I0
sg29
I0
sg30
I0
sg34
I0
sg37
g0
(g38
g2
Ntp2460
Rp2461
(dp2462
g43
g33
sbsg47
(dp2463
g49
I0
sg50
I0
sg51
I0
sg52
I0
ssg53
(dp2464
g49
I0
sg50
I0
sg51
I0
sg52
I0
ssg56
g33
sg57
I0
sg59
I0
sg60
I0
sg61
I0
sg122
(g174
g107
g33
g33
tp2465
sg64
I00
sg65
g0
(g38
g2
Ntp2466
Rp2467
(dp2468
g43
g33
sbsg71
(dp2469
g49
I0
sg50
I0
sg51
I0
sg52
I0
ssg73
I00
sg74
(dp2470
g49
I0
sg50
I0
sg51
I0
sg52
I0
ssg76
(dp2471
g49
I0
sg50
I0
sg51
I0
sg52
I0
ssg78
I0
sg79
I0
sg80
g33
sg82
I0
sg83
I0
sg90
I0
sg86
I0
sg62
g63
sg91
(dp2472
g103
I0
sg94
I0
sg95
I0
sg96
I0
sg97
I0
sg93
I0
sg98
I0
sg100
I0
sg101
I0
sg102
I0
sg99
I0
sg104
I0
sg105
I0
sg106
I0
sg107
I0
ssg108
(dp2473
sg150
I0
sg151
g33
sg152
I0
sg156
I0
sg153
I0
sg154
F0.0
sg155
I0
sg84
(dp2474
g49
I0
sg50
I0
sg51
I0
sg52
I0
ssg157
I0
sg132
g2438
sg159
I0
sg160
I0
sg161
I0
sg158
I0
sg162
I0
sg163
I0
sg164
I0
sg165
g33
sbsS's11'
p2475
(ijoueur
joueur
p2476
(dp2477
g28
I0
sg29
I0
sg30
I0
sg34
I0
sg37
g0
(g38
g2
Ntp2478
Rp2479
(dp2480
g43
g33
sbsg47
(dp2481
g49
I0
sg50
I0
sg51
I0
sg52
I0
ssg53
(dp2482
g49
I0
sg50
I0
sg51
I0
sg52
I0
ssg56
g33
sg57
I0
sg59
I0
sg60
I0
sg61
I0
sg122
g2465
sg64
I00
sg65
g0
(g38
g2
Ntp2483
Rp2484
(dp2485
g43
g33
sbsg71
(dp2486
g49
I0
sg50
I0
sg51
I0
sg52
I0
ssg73
I00
sg74
(dp2487
g49
I0
sg50
I0
sg51
I0
sg52
I0
ssg76
(dp2488
g49
I0
sg50
I0
sg51
I0
sg52
I0
ssg78
I0
sg79
I0
sg80
g33
sg82
I0
sg83
I0
sg90
I0
sg86
I0
sg62
g63
sg91
(dp2489
g103
I0
sg94
I0
sg95
I0
sg96
I0
sg97
I0
sg93
I0
sg98
I0
sg100
I0
sg101
I0
sg102
I0
sg99
I0
sg104
I0
sg105
I0
sg106
I0
sg107
I0
ssg108
(dp2490
sg150
I0
sg151
g33
sg152
I0
sg156
I0
sg153
I0
sg154
F0.0
sg155
I0
sg84
(dp2491
g49
I0
sg50
I0
sg51
I0
sg52
I0
ssg157
I0
sg132
g2438
sg159
I0
sg160
I0
sg161
I0
sg158
I0
sg162
I0
sg163
I0
sg164
I0
sg165
g33
sbssg150
I0
sg151
g33
sg152
I0
sg153
I0
sg154
F8.241379310344827
sg155
I0
sg122
(g174
g107
S'PI'
p2492
g33
tp2493
sg156
I0
sg157
I0
sg132
g2438
sg159
I0
sg160
I0
sg161
I0
sg158
I0
sg162
I0
sg163
I0
sg164
I0
sg165
g186
sbassg80
g63
sS'besoins'
p2494
(lp2495
(S'PI'
p2496
F8.5
tp2497
a(S'DL'
p2498
F9.0
tp2499
a(S'N8'
p2500
F9.0
tp2501
a(S'DM'
p2502
F9.0
tp2503
a(S'DO'
p2504
F9.5
tp2505
a(S'C1'
p2506
F9.5
tp2507
a(S'PI'
p2508
F10.0
tp2509
a(S'TA'
p2510
F8.5
tp2511
a(S'DL'
p2512
F8.5
tp2513
a(S'TL'
p2514
F8.5
tp2515
a(S'AR'
p2516
F8.8
tp2517
asS'masse_salariale'
p2518
I224
sS'difference_coupe'
p2519
I2
sS'bonus_offensif_championat'
p2520
I1
sS'nuls_coupe'
p2521
I0
sS'revenus'
p2522
I0
sS'gagnes_coupe'
p2523
I1
sS'budget'
p2524
I149
sS'compo_defaut'
p2525
(iclub
compo
p2526
(dp2527
S'caracs_old'
p2528
(dp2529
S'A'
p2530
I0
sS'ME'
p2531
I0
sS'E'
p2532
I0
sS'OplusAV'
p2533
I0
sS'OplusAR'
p2534
I0
sS'JP'
p2535
I0
sS'PA'
p2536
I0
sS'M'
p2537
I0
sS'OmoinsAR'
p2538
I0
sS'TO_off'
p2539
I0
sS'TO_def'
p2540
I0
sS'OmoinsAV'
p2541
I0
sS'R'
p2542
I0
ssS'totaux_old'
p2543
(dp2544
S'T2'
p2545
I0
sS'T3'
p2546
I0
sS'T1'
p2547
I0
ssS'roles'
p2548
(dp2549
S'SA_scd'
p2550
(ijoueur
joueur
p2551
(dp2552
g28
I0
sg29
I0
sg30
I0
sg32
g33
sg34
I0
sg35
g33
sg37
g0
(g38
g2
Ntp2553
Rp2554
(dp2555
g43
g33
sbsg47
(dp2556
S'SR'
p2557
I0
sS'ST'
p2558
I0
sS'CR'
p2559
I0
sS'CT'
p2560
I0
ssg53
(dp2561
g2557
I0
sg2558
I0
sg2559
I0
sg2560
I0
ssg56
g33
sg57
I0
sg59
I0
sg60
I0
sg61
I0
sg62
g33
sg64
I00
sg65
g0
(g38
g2
Ntp2562
Rp2563
(dp2564
g43
g33
sbsg71
(dp2565
g2557
I0
sg2558
I0
sg2559
I0
sg2560
I0
ssg73
I00
sg74
(dp2566
g2557
I0
sg2558
I0
sg2559
I0
sg2560
I0
ssg76
(dp2567
g2557
I0
sg2558
I0
sg2559
I0
sg2560
I0
ssg78
I0
sg79
I0
sg80
g33
sg82
I0
sg83
I0
sg90
I0
sg86
I0
sg122
(S'dummy'
p2568
g33
g33
g33
tp2569
sg89
g33
sg91
(dp2570
g2530
I0
sg2531
I0
sS'RP2'
p2571
I0
sg2532
I0
sS'TO'
p2572
I0
sS'RP1'
p2573
I0
sg2535
I0
sS'RP_tot'
p2574
I0
sS'P'
p2575
I0
sg2536
I0
sg2537
I0
sg2542
I0
sS'TB'
p2576
I0
sS'PL'
p2577
I0
sS'TA'
p2578
I0
ssg108
(dp2579
sg150
I0
sg151
g33
sg152
I0
sg156
I0
sg153
I0
sg154
I0
sg155
I0
sg84
(dp2580
g2557
I0
sg2558
I0
sg2559
I0
sg2560
I0
ssg157
I0
sg132
g2570
sg159
I0
sg160
I0
sg161
I0
sg158
I0
sg162
I0
sg163
I0
sg164
I0
sg165
g33
sbsS'drop3'
p2581
g2551
sS'cap'
p2582
g2551
sS'SA_pcp2'
p2583
g2551
sS'B4'
p2584
g2551
sS'RJC'
p2585
g2551
sS'B1'
p2586
g2551
sS'B2'
p2587
g2551
sS'B3'
p2588
g2551
sS'drop1'
p2589
g2551
sS'SA_pcp1'
p2590
g2551
sS'RJL'
p2591
g2551
sS'SA_remp1'
p2592
g2551
sS'drop2'
p2593
g2551
sS'SA_remp2'
p2594
g2551
ssg80
S'CPH_defaut'
p2595
sS'totaux'
p2596
(dp2597
g2545
I0
sg2546
I0
sg2547
I0
ssg10
Nsg91
(dp2598
g2530
I0
sg2531
I0
sg2532
I0
sg2533
I0
sg2534
I0
sg2535
I0
sg2536
I0
sg2537
I0
sg2538
I0
sg2539
I0
sg2540
I0
sg2541
I0
sg2542
I0
ssg22
(dp2599
S'n12'
p2600
g2551
sS'n13'
p2601
g2551
sS'n10'
p2602
g2551
sS'n11'
p2603
g2551
sS'n16'
p2604
g2551
sS'n17'
p2605
g2551
sS'n14'
p2606
g2551
sS'n15'
p2607
g2551
sS'n18'
p2608
g2551
sS'n19'
p2609
g2551
sS'n22'
p2610
g2551
sS'n21'
p2611
g2551
sS'n20'
p2612
g2551
sS'n8'
p2613
g2551
sS'n9'
p2614
g2551
sS'n1'
p2615
g2551
sS'n2'
p2616
g2551
sS'n3'
p2617
g2551
sS'n4'
p2618
g2551
sS'n5'
p2619
g2551
sS'n6'
p2620
g2551
sS'n7'
p2621
g2551
ssS'remplacements'
p2622
(dp2623
g2604
S'n0'
p2624
sg2605
g2624
sg2608
g2624
sg2609
g2624
sg2610
g2624
sg2611
g2624
sg2612
g2624
ssbsS'fatigue_prise_en_compte'
p2625
I01
sS'nuls_championat'
p2626
I1
sb.