(iclub
compo
p0
(dp1
S'caracs_old'
p2
(dp3
S'A'
p4
F190.0
sS'ME'
p5
F85.0
sS'E'
p6
I208
sS'OplusAV'
p7
F46.0
sS'TO_off'
p8
F108.5
sS'OplusAR'
p9
F67.5
sS'M'
p10
F55.0
sS'JP'
p11
F97.0
sS'OmoinsAR'
p12
F69.0
sS'PA'
p13
F122.0
sS'TO_def'
p14
F101.0
sS'OmoinsAV'
p15
F60.0
sS'R'
p16
F117.0
ssS'totaux_old'
p17
(dp18
S'T2'
p19
F204.5
sS'T3'
p20
F104.0
sS'T1'
p21
F153.375
ssS'roles'
p22
(dp23
S'drop1'
p24
(ijoueur
joueur
p25
(dp26
S'rouges_total'
p27
I0
sS'drops_total'
p28
I0
sS'blessure'
p29
I0
sS'RG_max'
p30
(ijoueur
rang
p31
(dp32
S'type_nb'
p33
I5
sS'rang'
p34
S'**'
p35
sS'type'
p36
S'seigneur'
p37
sbsS'MJ2_total'
p38
(dp39
S'SR'
p40
I0
sS'ST'
p41
I0
sS'CR'
p42
I0
sS'CT'
p43
I0
ssS'MJ3_total'
p44
(dp45
g40
I0
sg41
I0
sg42
I0
sg43
I0
ssS'anciens_clubs'
p46
S''
p47
sS'drop_rates_saison'
p48
I0
sS'essais_saison'
p49
I0
sS'penalite_ratees_saison'
p50
I0
sS'transformations_saison'
p51
I0
sS'postes'
p52
(S'dummy'
p53
S'AR'
p54
S'CE'
p55
S'AI'
p56
tp57
sS'RG'
p58
(ijoueur
rang
p59
(dp60
g33
I5
sg34
S'**'
p61
sg36
g37
sbsS'MJ1'
p62
(dp63
g40
I0
sg41
I0
sg42
I0
sg43
I0
ssS'MJ2'
p64
(dp65
g40
I0
sg41
I0
sg42
I0
sg43
I0
ssS'MJ3'
p66
(dp67
g40
I0
sg41
I0
sg42
I0
sg43
I0
ssS'MJ1_total'
p68
(dp69
g40
I0
sg41
I0
sg42
I0
sg43
I0
ssS'penalites_total'
p70
I0
sS'penalites_saison'
p71
I0
sS'nom'
p72
S'Luometh'
p73
sS'C'
p74
I10
sS'transformations_total'
p75
I0
sS'D'
p76
I24
sS'VAL'
p77
I130
sS'club'
p78
S'CAT'
p79
sS'caracs'
p80
(dp81
S'A'
p82
I15
sS'ME'
p83
I4
sS'RP2'
p84
I11
sS'E'
p85
I11
sS'TO'
p86
I11
sS'RP1'
p87
I7
sS'JP'
p88
I10
sS'RP_tot'
p89
I11
sS'P'
p90
I9
sS'PA'
p91
I11
sS'M'
p92
I10
sS'R'
p93
I8
sS'TB'
p94
I10
sS'PL'
p95
I12
sS'TA'
p96
I4
ssS'fatigue'
p97
I0
sS'drop_ratees_total'
p98
I0
sS'blessures_total'
p99
I0
sS'XP'
p100
I0
sS'EV'
p101
F11.515151515151516
sS'penalite_ratees_total'
p102
I0
sS'blessures_saison'
p103
I0
sS'jaunes_total'
p104
I0
sS'caracs_sans_fatigue'
p105
g81
sS'rouges_saison'
p106
I0
sS'transformation_ratees_total'
p107
I0
sS'drops_saison'
p108
I0
sS'transformation_ratees_saison'
p109
I0
sS'MS'
p110
I13
sS'essais_total'
p111
I0
sS'jaunes_saison'
p112
I0
sS'ARM'
p113
S'EN'
p114
sbsS'SA_scd'
p115
(ijoueur
joueur
p116
(dp117
g27
I0
sg28
I0
sg29
I0
sg30
(ijoueur
rang
p118
(dp119
g33
I2
sg34
S'<<'
p120
sg36
S'special'
p121
sbsg38
(dp122
g40
I0
sg41
I0
sg42
I0
sg43
I0
ssg44
(dp123
g40
I0
sg41
I0
sg42
I0
sg43
I0
ssg46
g47
sg48
I0
sg49
I0
sg50
I0
sg51
I0
sg52
(g53
S'N8'
p124
S'DL'
p125
g47
tp126
sg58
(ijoueur
rang
p127
(dp128
g33
I2
sg34
S'<<'
p129
sg36
g121
sbsg62
(dp130
g40
I0
sg41
I0
sg42
I0
sg43
I0
ssg64
(dp131
g40
I0
sg41
I0
sg42
I0
sg43
I0
ssg66
(dp132
g40
I0
sg41
I0
sg42
I0
sg43
I0
ssg68
(dp133
g40
I0
sg41
I0
sg42
I0
sg43
I0
ssg70
I0
sg71
I0
sg72
S'Famyed'
p134
sg74
I6
sg75
I0
sg76
I13
sg77
I11
sg78
g79
sg80
(dp135
g82
I11
sg83
I8
sg84
I6
sg85
I11
sg86
I11
sg87
I9
sg88
I4
sg89
I9
sg90
I4
sg91
I9
sg92
I8
sg93
I8
sg94
I5
sg95
I9
sg96
I4
ssg97
I0
sg98
I0
sg99
I0
sg100
I0
sg101
F9.472222222222221
sg102
I0
sg103
I0
sg104
I0
sg105
g135
sg106
I0
sg107
I0
sg108
I0
sg109
I0
sg110
I1
sg111
I0
sg112
I0
sg113
S'EN'
p136
sbsS'RJL'
p137
(ijoueur
joueur
p138
(dp139
g27
I0
sg28
I0
sg29
I0
sg30
(ijoueur
rang
p140
(dp141
g33
I5
sg34
S'**'
p142
sg36
g37
sbsg38
(dp143
g40
I0
sg41
I0
sg42
I0
sg43
I0
ssg44
(dp144
g40
I0
sg41
I0
sg42
I0
sg43
I0
ssg46
g47
sg48
I0
sg49
I0
sg50
I0
sg51
I0
sg52
(g53
S'DO'
p145
S'AR'
p146
g47
tp147
sg58
(ijoueur
rang
p148
(dp149
g33
I5
sg34
S'**'
p150
sg36
g37
sbsg62
(dp151
g40
I0
sg41
I0
sg42
I0
sg43
I0
ssg64
(dp152
g40
I0
sg41
I0
sg42
I0
sg43
I0
ssg66
(dp153
g40
I0
sg41
I0
sg42
I0
sg43
I0
ssg68
(dp154
g40
I0
sg41
I0
sg42
I0
sg43
I0
ssg70
I0
sg71
I0
sg72
S'Veiamaor'
p155
sg74
I8
sg75
I0
sg76
I18
sg77
I130
sg78
g79
sg80
(dp156
g82
I13
sg83
I5
sg84
I11
sg85
I12
sg86
I9
sg87
I7
sg88
I11
sg89
I11
sg90
I13
sg91
I13
sg92
I10
sg93
I6
sg94
I13
sg95
I12
sg96
I5
ssg97
I0
sg98
I0
sg99
I0
sg100
I0
sg101
F11.857142857142858
sg102
I0
sg103
I0
sg104
I0
sg105
g156
sg106
I0
sg107
I0
sg108
I0
sg109
I0
sg110
I13
sg111
I0
sg112
I0
sg113
S'EN'
p157
sbsS'cap'
p158
g138
sS'B4'
p159
g138
sS'RJC'
p160
g138
sS'B1'
p161
g138
sS'B2'
p162
g138
sS'B3'
p163
g138
sS'SA_pcp2'
p164
(ijoueur
joueur
p165
(dp166
g27
I0
sg28
I0
sg29
I0
sg30
(ijoueur
rang
p167
(dp168
g33
I2
sg34
S'<<'
p169
sg36
g121
sbsg38
(dp170
g40
I0
sg41
I0
sg42
I0
sg43
I0
ssg44
(dp171
g40
I0
sg41
I0
sg42
I0
sg43
I0
ssg46
g47
sg48
I0
sg49
I0
sg50
I0
sg51
I0
sg52
(g53
S'DL'
p172
S'PI'
p173
g47
tp174
sg58
(ijoueur
rang
p175
(dp176
g33
I2
sg34
S'<<'
p177
sg36
g121
sbsg62
(dp178
g40
I0
sg41
I0
sg42
I0
sg43
I0
ssg64
(dp179
g40
I0
sg41
I0
sg42
I0
sg43
I0
ssg66
(dp180
g40
I0
sg41
I0
sg42
I0
sg43
I0
ssg68
(dp181
g40
I0
sg41
I0
sg42
I0
sg43
I0
ssg70
I0
sg71
I0
sg72
S'Zyvlor'
p182
sg74
I6
sg75
I0
sg76
I13
sg77
I11
sg78
g79
sg80
(dp183
g82
I11
sg83
I11
sg84
I6
sg85
I8
sg86
I12
sg87
I8
sg88
I3
sg89
I8
sg90
I4
sg91
I9
sg92
I7
sg93
I9
sg94
I2
sg95
I9
sg96
I3
ssg97
I0
sg98
I0
sg99
I0
sg100
I0
sg101
F9.676470588235293
sg102
I0
sg103
I0
sg104
I0
sg105
g183
sg106
I0
sg107
I0
sg108
I0
sg109
I0
sg110
I1
sg111
I0
sg112
I0
sg113
S'EN'
p184
sbsS'SA_pcp1'
p185
(ijoueur
joueur
p186
(dp187
g27
I0
sg28
I0
sg29
I0
sg30
(ijoueur
rang
p188
(dp189
g33
I4
sg34
S'*'
p190
sg36
S'heros'
p191
sbsg38
(dp192
g40
I0
sg41
I0
sg42
I0
sg43
I0
ssg44
(dp193
g40
I0
sg41
I0
sg42
I0
sg43
I0
ssg46
g47
sg48
I0
sg49
I0
sg50
I0
sg51
I0
sg52
(g53
S'DL'
p194
g47
g47
tp195
sg58
(ijoueur
rang
p196
(dp197
g33
I4
sg34
S'*'
p198
sg36
g191
sbsg62
(dp199
g40
I0
sg41
I0
sg42
I0
sg43
I0
ssg64
(dp200
g40
I0
sg41
I0
sg42
I0
sg43
I0
ssg66
(dp201
g40
I0
sg41
I0
sg42
I0
sg43
I0
ssg68
(dp202
g40
I0
sg41
I0
sg42
I0
sg43
I0
ssg70
I0
sg71
I0
sg72
S'Vomleth'
p203
sg74
I1
sg75
I0
sg76
I16
sg77
I60
sg78
g79
sg80
(dp204
g82
I11
sg83
I9
sg84
I8
sg85
I11
sg86
I12
sg87
I8
sg88
I5
sg89
I9
sg90
I7
sg91
I12
sg92
I8
sg93
I8
sg94
I5
sg95
I10
sg96
I5
ssg97
I0
sg98
I0
sg99
I0
sg100
I0
sg101
F9.941176470588236
sg102
I0
sg103
I0
sg104
I0
sg105
g204
sg106
I0
sg107
I0
sg108
I0
sg109
I0
sg110
I6
sg111
I0
sg112
I0
sg113
S'EN'
p205
sbsS'drop3'
p206
g138
sS'SA_remp1'
p207
(ijoueur
joueur
p208
(dp209
g27
I0
sg28
I0
sg29
I0
sg30
(ijoueur
rang
p210
(dp211
g33
I4
sg34
S'*'
p212
sg36
g191
sbsg38
(dp213
g40
I0
sg41
I0
sg42
I0
sg43
I0
ssg44
(dp214
g40
I0
sg41
I0
sg42
I0
sg43
I0
ssg46
g47
sg48
I0
sg49
I0
sg50
I0
sg51
I0
sg52
(g53
S'TL'
p215
S'N8'
p216
g47
tp217
sg58
(ijoueur
rang
p218
(dp219
g33
I4
sg34
S'*'
p220
sg36
g191
sbsg62
(dp221
g40
I0
sg41
I0
sg42
I0
sg43
I0
ssg64
(dp222
g40
I0
sg41
I0
sg42
I0
sg43
I0
ssg66
(dp223
g40
I0
sg41
I0
sg42
I0
sg43
I0
ssg68
(dp224
g40
I0
sg41
I0
sg42
I0
sg43
I0
ssg70
I0
sg71
I0
sg72
S'Amthyed'
p225
sg74
I7
sg75
I0
sg76
I14
sg77
I60
sg78
g79
sg80
(dp226
g82
I10
sg83
I10
sg84
I10
sg85
I11
sg86
I11
sg87
I9
sg88
I7
sg89
I12
sg90
I8
sg91
I10
sg92
I10
sg93
I9
sg94
I7
sg95
I12
sg96
I4
ssg97
I0
sg98
I0
sg99
I0
sg100
I0
sg101
F10.578947368421053
sg102
I0
sg103
I0
sg104
I0
sg105
g226
sg106
I0
sg107
I0
sg108
I0
sg109
I0
sg110
I6
sg111
I0
sg112
I0
sg113
S'EN'
p227
sbsS'drop2'
p228
(ijoueur
joueur
p229
(dp230
g27
I0
sg28
I0
sg29
I0
sg30
(ijoueur
rang
p231
(dp232
g33
I5
sg34
S'**'
p233
sg36
g37
sbsg38
(dp234
g40
I0
sg41
I0
sg42
I0
sg43
I0
ssg44
(dp235
g40
I0
sg41
I0
sg42
I0
sg43
I0
ssg46
g47
sg48
I0
sg49
I0
sg50
I0
sg51
I0
sg52
(g53
S'C2'
p236
g47
g47
tp237
sg58
(ijoueur
rang
p238
(dp239
g33
I4
sg34
S'*'
p240
sg36
g191
sbsg62
(dp241
g40
I0
sg41
I0
sg42
I0
sg43
I0
ssg64
(dp242
g40
I0
sg41
I0
sg42
I0
sg43
I0
ssg66
(dp243
g40
I0
sg41
I0
sg42
I0
sg43
I0
ssg68
(dp244
g40
I0
sg41
I0
sg42
I0
sg43
I0
ssg70
I0
sg71
I0
sg72
S'Uelbaed'
p245
sg74
I10
sg75
I0
sg76
I21
sg77
I60
sg78
g79
sg80
(dp246
g82
I10
sg83
I5
sg84
I8
sg85
I10
sg86
I8
sg87
I11
sg88
I10
sg89
I12
sg90
I9
sg91
I12
sg92
I9
sg93
I8
sg94
I9
sg95
I10
sg96
I6
ssg97
I0
sg98
I0
sg99
I0
sg100
I0
sg101
F10.344827586206897
sg102
I0
sg103
I0
sg104
I0
sg105
g246
sg106
I0
sg107
I0
sg108
I0
sg109
I0
sg110
I6
sg111
I0
sg112
I0
sg113
S'EN'
p247
sbsS'SA_remp2'
p248
(ijoueur
joueur
p249
(dp250
g27
I0
sg28
I0
sg29
I0
sg30
(ijoueur
rang
p251
(dp252
g33
I4
sg34
S'*'
p253
sg36
g191
sbsg38
(dp254
g40
I0
sg41
I0
sg42
I0
sg43
I0
ssg44
(dp255
g40
I0
sg41
I0
sg42
I0
sg43
I0
ssg46
g47
sg48
I0
sg49
I0
sg50
I0
sg51
I0
sg52
(g53
S'PI'
p256
g47
g47
tp257
sg58
(ijoueur
rang
p258
(dp259
g33
I4
sg34
S'*'
p260
sg36
g191
sbsg62
(dp261
g40
I0
sg41
I0
sg42
I0
sg43
I0
ssg64
(dp262
g40
I0
sg41
I0
sg42
I0
sg43
I0
ssg66
(dp263
g40
I0
sg41
I0
sg42
I0
sg43
I0
ssg68
(dp264
g40
I0
sg41
I0
sg42
I0
sg43
I0
ssg70
I0
sg71
I0
sg72
S'Thodenyl'
p265
sg74
I5
sg75
I0
sg76
I14
sg77
I60
sg78
g79
sg80
(dp266
g82
I11
sg83
I8
sg84
I8
sg85
I11
sg86
I11
sg87
I9
sg88
I5
sg89
I10
sg90
I9
sg91
I10
sg92
I9
sg93
I8
sg94
I8
sg95
I12
sg96
I8
ssg97
I0
sg98
I0
sg99
I0
sg100
I0
sg101
F9.941176470588236
sg102
I0
sg103
I0
sg104
I0
sg105
g266
sg106
I0
sg107
I0
sg108
I0
sg109
I0
sg110
I6
sg111
I0
sg112
I0
sg113
S'EN'
p267
sbssS'totaux'
p268
(dp269
g19
I0
sg20
I0
sg21
I0
ssS'_compo_defaut_fatigue'
p270
Nsg80
(dp271
g4
I0
sg5
I0
sg6
I0
sg7
I0
sg8
I0
sg9
I0
sg10
I0
sg11
I0
sg12
I0
sg13
I0
sg14
I0
sg15
I0
sg16
I0
ssS'joueurs'
p272
(dp273
S'n12'
p274
g25
sS'n13'
p275
g229
sS'n10'
p276
g138
sS'n11'
p277
(ijoueur
joueur
p278
(dp279
g27
I0
sg28
I0
sg29
I0
sg30
(ijoueur
rang
p280
(dp281
g33
I4
sg34
S'*'
p282
sg36
g191
sbsg38
(dp283
g40
I0
sg41
I0
sg42
I0
sg43
I0
ssg44
(dp284
g40
I0
sg41
I0
sg42
I0
sg43
I0
ssg46
g47
sg48
I0
sg49
I0
sg50
I0
sg51
I0
sg52
(g53
S'C1'
p285
S'AI'
p286
g47
tp287
sg58
(ijoueur
rang
p288
(dp289
g33
I4
sg34
S'*'
p290
sg36
g191
sbsg62
(dp291
g40
I0
sg41
I0
sg42
I0
sg43
I0
ssg64
(dp292
g40
I0
sg41
I0
sg42
I0
sg43
I0
ssg66
(dp293
g40
I0
sg41
I0
sg42
I0
sg43
I0
ssg68
(dp294
g40
I0
sg41
I0
sg42
I0
sg43
I0
ssg70
I0
sg71
I0
sg72
S'Flamoed'
p295
sg74
I10
sg75
I0
sg76
I20
sg77
I60
sg78
g79
sg80
(dp296
g82
I12
sg83
I2
sg84
I10
sg85
I10
sg86
I9
sg87
I9
sg88
I9
sg89
I12
sg90
I10
sg91
I12
sg92
I11
sg93
I9
sg94
I10
sg95
I10
sg96
I6
ssg97
I0
sg98
I0
sg99
I0
sg100
I0
sg101
F10.766666666666667
sg102
I0
sg103
I0
sg104
I0
sg105
g296
sg106
I0
sg107
I0
sg108
I0
sg109
I0
sg110
I6
sg111
I0
sg112
I0
sg113
S'EN'
p297
sbsS'n16'
p298
(ijoueur
joueur
p299
(dp300
g27
I0
sg28
I0
sg29
I0
sg30
(ijoueur
rang
p301
(dp302
g33
I3
sg34
S'^^^'
p303
sg36
S'rare'
p304
sbsg38
(dp305
g40
I0
sg41
I0
sg42
I0
sg43
I0
ssg44
(dp306
g40
I0
sg41
I0
sg42
I0
sg43
I0
ssg46
g47
sg48
I0
sg49
I0
sg50
I0
sg51
I0
sg52
(g53
S'TA'
p307
g47
g47
tp308
sg58
(ijoueur
rang
p309
(dp310
g33
I3
sg34
S'^^^'
p311
sg36
g304
sbsg62
(dp312
g40
I0
sg41
I0
sg42
I0
sg43
I0
ssg64
(dp313
g40
I0
sg41
I0
sg42
I0
sg43
I0
ssg66
(dp314
g40
I0
sg41
I0
sg42
I0
sg43
I0
ssg68
(dp315
g40
I0
sg41
I0
sg42
I0
sg43
I0
ssg70
I0
sg71
I0
sg72
S'Iaemor'
p316
sg74
I11
sg75
I0
sg76
I19
sg77
I13
sg78
g79
sg80
(dp317
g82
I8
sg83
I10
sg84
I8
sg85
I10
sg86
I5
sg87
I6
sg88
I4
sg89
I8
sg90
I4
sg91
I9
sg92
I8
sg93
I9
sg94
I4
sg95
I8
sg96
I10
ssg97
I0
sg98
I0
sg99
I0
sg100
I0
sg101
F9.0
sg102
I0
sg103
I0
sg104
I0
sg105
g317
sg106
I0
sg107
I0
sg108
I0
sg109
I0
sg110
I1
sg111
I0
sg112
I0
sg113
S'EN'
p318
sbsS'n17'
p319
(ijoueur
joueur
p320
(dp321
g27
I0
sg28
I0
sg29
I0
sg30
(ijoueur
rang
p322
(dp323
g33
I4
sg34
S'*'
p324
sg36
g191
sbsg38
(dp325
g40
I0
sg41
I0
sg42
I0
sg43
I0
ssg44
(dp326
g40
I0
sg41
I0
sg42
I0
sg43
I0
ssg46
g47
sg48
I0
sg49
I0
sg50
I0
sg51
I0
sg52
(g53
S'PI'
p327
S'TA'
p328
S'DL'
p329
tp330
sg58
(ijoueur
rang
p331
(dp332
g33
I3
sg34
S'^^^'
p333
sg36
g304
sbsg62
(dp334
g40
I0
sg41
I0
sg42
I0
sg43
I0
ssg64
(dp335
g40
I0
sg41
I0
sg42
I0
sg43
I0
ssg66
(dp336
g40
I0
sg41
I0
sg42
I0
sg43
I0
ssg68
(dp337
g40
I0
sg41
I0
sg42
I0
sg43
I0
ssg70
I0
sg71
I0
sg72
S'Imear'
p338
sg74
I11
sg75
I0
sg76
I21
sg77
I13
sg78
g79
sg80
(dp339
g82
I11
sg83
I9
sg84
I6
sg85
I10
sg86
I8
sg87
I7
sg88
I4
sg89
I7
sg90
I5
sg91
I9
sg92
I8
sg93
I7
sg94
I3
sg95
I11
sg96
I8
ssg97
I0
sg98
I0
sg99
I0
sg100
I0
sg101
F8.814814814814815
sg102
I0
sg103
I0
sg104
I0
sg105
g339
sg106
I0
sg107
I0
sg108
I0
sg109
I0
sg110
I1
sg111
I0
sg112
I0
sg113
S'EN'
p340
sbsS'n14'
p341
(ijoueur
joueur
p342
(dp343
g27
I0
sg28
I0
sg29
I0
sg30
(ijoueur
rang
p344
(dp345
g33
I5
sg34
S'**'
p346
sg36
g37
sbsg38
(dp347
g40
I0
sg41
I0
sg42
I0
sg43
I0
ssg44
(dp348
g40
I0
sg41
I0
sg42
I0
sg43
I0
ssg46
g47
sg48
I0
sg49
I0
sg50
I0
sg51
I0
sg52
(g53
S'AR'
p349
S'AI'
p350
g47
tp351
sg58
(ijoueur
rang
p352
(dp353
g33
I5
sg34
S'**'
p354
sg36
g37
sbsg62
(dp355
g40
I0
sg41
I0
sg42
I0
sg43
I0
ssg64
(dp356
g40
I0
sg41
I0
sg42
I0
sg43
I0
ssg66
(dp357
g40
I0
sg41
I0
sg42
I0
sg43
I0
ssg68
(dp358
g40
I0
sg41
I0
sg42
I0
sg43
I0
ssg70
I0
sg71
I0
sg72
S'Ameray'
p359
sg74
I4
sg75
I0
sg76
I15
sg77
I110
sg78
g79
sg80
(dp360
g82
I10
sg83
I5
sg84
I11
sg85
I11
sg86
I9
sg87
I10
sg88
I7
sg89
I14
sg90
I9
sg91
I9
sg92
I10
sg93
I10
sg94
I7
sg95
I10
sg96
I6
ssg97
I0
sg98
I0
sg99
I0
sg100
I0
sg101
F10.393939393939394
sg102
I0
sg103
I0
sg104
I0
sg105
g360
sg106
I0
sg107
I0
sg108
I0
sg109
I0
sg110
I1
sg111
I0
sg112
I0
sg113
S'B'
p361
sbsS'n15'
p362
(ijoueur
joueur
p363
(dp364
g27
I0
sg28
I0
sg29
I0
sg30
(ijoueur
rang
p365
(dp366
g33
I2
sg34
S'<<'
p367
sg36
g121
sbsg38
(dp368
g40
I0
sg41
I0
sg42
I0
sg43
I0
ssg44
(dp369
g40
I0
sg41
I0
sg42
I0
sg43
I0
ssg46
g47
sg48
I0
sg49
I0
sg50
I0
sg51
I0
sg52
(g53
S'AR'
p370
S'CE'
p371
g47
tp372
sg58
(ijoueur
rang
p373
(dp374
g33
I2
sg34
S'<<'
p375
sg36
g121
sbsg62
(dp376
g40
I0
sg41
I0
sg42
I0
sg43
I0
ssg64
(dp377
g40
I0
sg41
I0
sg42
I0
sg43
I0
ssg66
(dp378
g40
I0
sg41
I0
sg42
I0
sg43
I0
ssg68
(dp379
g40
I0
sg41
I0
sg42
I0
sg43
I0
ssg70
I0
sg71
I0
sg72
S'Chinal'
p380
sg74
I2
sg75
I0
sg76
I13
sg77
I11
sg78
g79
sg80
(dp381
g82
I13
sg83
I3
sg84
I7
sg85
I10
sg86
I8
sg87
I7
sg88
I7
sg89
I7
sg90
I9
sg91
I12
sg92
I9
sg93
I7
sg94
I8
sg95
I11
sg96
I3
ssg97
I0
sg98
I0
sg99
I0
sg100
I0
sg101
F10.0
sg102
I0
sg103
I0
sg104
I0
sg105
g381
sg106
I0
sg107
I0
sg108
I0
sg109
I0
sg110
I1
sg111
I0
sg112
I0
sg113
S'EN'
p382
sbsS'n18'
p383
(ijoueur
joueur
p384
(dp385
g27
I0
sg28
I0
sg29
I0
sg30
(ijoueur
rang
p386
(dp387
g33
I4
sg34
S'*'
p388
sg36
g191
sbsg38
(dp389
g40
I0
sg41
I0
sg42
I0
sg43
I0
ssg44
(dp390
g40
I0
sg41
I0
sg42
I0
sg43
I0
ssg46
g47
sg48
I0
sg49
I0
sg50
I0
sg51
I0
sg52
(g53
S'DL'
p391
g47
g47
tp392
sg58
(ijoueur
rang
p393
(dp394
g33
I4
sg34
S'*'
p395
sg36
g191
sbsg62
(dp396
g40
I0
sg41
I0
sg42
I0
sg43
I0
ssg64
(dp397
g40
I0
sg41
I0
sg42
I0
sg43
I0
ssg66
(dp398
g40
I0
sg41
I0
sg42
I0
sg43
I0
ssg68
(dp399
g40
I0
sg41
I0
sg42
I0
sg43
I0
ssg70
I0
sg71
I0
sg72
S'Klendaeth'
p400
sg74
I8
sg75
I0
sg76
I19
sg77
I60
sg78
g79
sg80
(dp401
g82
I12
sg83
I9
sg84
I8
sg85
I11
sg86
I10
sg87
I8
sg88
I4
sg89
I9
sg90
I8
sg91
I10
sg92
I8
sg93
I7
sg94
I6
sg95
I10
sg96
I3
ssg97
I0
sg98
I0
sg99
I0
sg100
I0
sg101
F9.323529411764707
sg102
I0
sg103
I0
sg104
I0
sg105
g401
sg106
I0
sg107
I0
sg108
I0
sg109
I0
sg110
I6
sg111
I0
sg112
I0
sg113
S'EN'
p402
sbsS'n19'
p403
(ijoueur
joueur
p404
(dp405
g27
I0
sg28
I0
sg29
I0
sg30
(ijoueur
rang
p406
(dp407
g33
I5
sg34
S'xx'
p408
sg36
g37
sbsg38
(dp409
g40
I0
sg41
I0
sg42
I0
sg43
I0
ssg44
(dp410
g40
I0
sg41
I0
sg42
I0
sg43
I0
ssg46
g47
sg48
I0
sg49
I0
sg50
I0
sg51
I0
sg52
(g53
S'TL'
p411
g47
g47
tp412
sg58
(ijoueur
rang
p413
(dp414
g33
I4
sg34
S'x'
p415
sg36
g191
sbsg62
(dp416
g40
I0
sg41
I0
sg42
I0
sg43
I0
ssg64
(dp417
g40
I0
sg41
I0
sg42
I0
sg43
I0
ssg66
(dp418
g40
I0
sg41
I0
sg42
I0
sg43
I0
ssg68
(dp419
g40
I0
sg41
I0
sg42
I0
sg43
I0
ssg70
I0
sg71
I0
sg72
S'Mediart'
p420
sg74
I9
sg75
I0
sg76
I23
sg77
I90
sg78
g79
sg80
(dp421
g82
I9
sg83
I9
sg84
I7
sg85
I10
sg86
I9
sg87
I9
sg88
I5
sg89
I9
sg90
I6
sg91
I7
sg92
I8
sg93
I9
sg94
I4
sg95
I8
sg96
I5
ssg97
I0
sg98
I0
sg99
I0
sg100
I0
sg101
F8.842105263157896
sg102
I0
sg103
I0
sg104
I0
sg105
g421
sg106
I0
sg107
I0
sg108
I0
sg109
I0
sg110
I9
sg111
I0
sg112
I0
sg113
S'EMP'
p422
sbsS'n22'
p423
(ijoueur
joueur
p424
(dp425
g27
I0
sg28
I0
sg29
I0
sg30
(ijoueur
rang
p426
(dp427
g33
I2
sg34
S'^^'
p428
sg36
g121
sbsg38
(dp429
g40
I0
sg41
I0
sg42
I0
sg43
I0
ssg44
(dp430
g40
I0
sg41
I0
sg42
I0
sg43
I0
ssg46
g47
sg48
I0
sg49
I0
sg50
I0
sg51
I0
sg52
(g53
S'C1'
p431
S'AI'
p432
g47
tp433
sg58
(ijoueur
rang
p434
(dp435
g33
I2
sg34
S'^^'
p436
sg36
g121
sbsg62
(dp437
g40
I0
sg41
I0
sg42
I0
sg43
I0
ssg64
(dp438
g40
I0
sg41
I0
sg42
I0
sg43
I0
ssg66
(dp439
g40
I0
sg41
I0
sg42
I0
sg43
I0
ssg68
(dp440
g40
I0
sg41
I0
sg42
I0
sg43
I0
ssg70
I0
sg71
I0
sg72
S'Yomaed'
p441
sg74
I7
sg75
I0
sg76
I18
sg77
I28
sg78
g79
sg80
(dp442
g82
I10
sg83
I3
sg84
I7
sg85
I9
sg86
I5
sg87
I6
sg88
I8
sg89
I7
sg90
I9
sg91
I11
sg92
I13
sg93
I3
sg94
I8
sg95
I9
sg96
I4
ssg97
I0
sg98
I0
sg99
I0
sg100
I0
sg101
F9.066666666666666
sg102
I0
sg103
I0
sg104
I0
sg105
g442
sg106
I0
sg107
I0
sg108
I0
sg109
I0
sg110
I3
sg111
I0
sg112
I0
sg113
S'EN'
p443
sbsS'n21'
p444
(ijoueur
joueur
p445
(dp446
g27
I0
sg28
I0
sg29
I0
sg30
(ijoueur
rang
p447
(dp448
g33
I2
sg34
S'^^'
p449
sg36
g121
sbsg38
(dp450
g40
I0
sg41
I0
sg42
I0
sg43
I0
ssg44
(dp451
g40
I0
sg41
I0
sg42
I0
sg43
I0
ssg46
g47
sg48
I0
sg49
I0
sg50
I0
sg51
I0
sg52
(g53
S'C2'
p452
S'AR'
p453
S'AI'
p454
tp455
sg58
(ijoueur
rang
p456
(dp457
g33
I2
sg34
S'^^'
p458
sg36
g121
sbsg62
(dp459
g40
I0
sg41
I0
sg42
I0
sg43
I0
ssg64
(dp460
g40
I0
sg41
I0
sg42
I0
sg43
I0
ssg66
(dp461
g40
I0
sg41
I0
sg42
I0
sg43
I0
ssg68
(dp462
g40
I0
sg41
I0
sg42
I0
sg43
I0
ssg70
I0
sg71
I0
sg72
S'Kledyr'
p463
sg74
I8
sg75
I0
sg76
I15
sg77
I28
sg78
g79
sg80
(dp464
g82
I11
sg83
I3
sg84
I8
sg85
I8
sg86
I6
sg87
I7
sg88
I8
sg89
I8
sg90
I9
sg91
I10
sg92
I11
sg93
I4
sg94
I7
sg95
I12
sg96
I3
ssg97
I0
sg98
I0
sg99
I0
sg100
I0
sg101
F9.448275862068966
sg102
I0
sg103
I0
sg104
I0
sg105
g464
sg106
I0
sg107
I0
sg108
I0
sg109
I0
sg110
I3
sg111
I0
sg112
I0
sg113
S'EN'
p465
sbsS'n20'
p466
(ijoueur
joueur
p467
(dp468
g27
I0
sg28
I0
sg29
I0
sg30
(ijoueur
rang
p469
(dp470
g33
I3
sg34
S'^^^'
p471
sg36
g304
sbsg38
(dp472
g40
I0
sg41
I0
sg42
I0
sg43
I0
ssg44
(dp473
g40
I0
sg41
I0
sg42
I0
sg43
I0
ssg46
g47
sg48
I0
sg49
I0
sg50
I0
sg51
I0
sg52
(g53
S'DM'
p474
S'DO'
p475
g47
tp476
sg58
(ijoueur
rang
p477
(dp478
g33
I3
sg34
S'^^^'
p479
sg36
g304
sbsg62
(dp480
g40
I0
sg41
I0
sg42
I0
sg43
I0
ssg64
(dp481
g40
I0
sg41
I0
sg42
I0
sg43
I0
ssg66
(dp482
g40
I0
sg41
I0
sg42
I0
sg43
I0
ssg68
(dp483
g40
I0
sg41
I0
sg42
I0
sg43
I0
ssg70
I0
sg71
I0
sg72
S'Paezol'
p484
sg74
I1
sg75
I0
sg76
I13
sg77
I13
sg78
g79
sg80
(dp485
g82
I11
sg83
I4
sg84
I9
sg85
I12
sg86
I6
sg87
I7
sg88
I8
sg89
I9
sg90
I9
sg91
I9
sg92
I8
sg93
I6
sg94
I7
sg95
I11
sg96
I7
ssg97
I0
sg98
I0
sg99
I0
sg100
I0
sg101
F9.517241379310345
sg102
I0
sg103
I0
sg104
I0
sg105
g485
sg106
I0
sg107
I0
sg108
I0
sg109
I0
sg110
I1
sg111
I0
sg112
I0
sg113
S'EN'
p486
sbsS'n8'
p487
g116
sS'n9'
p488
(ijoueur
joueur
p489
(dp490
g27
I0
sg28
I0
sg29
I0
sg30
(ijoueur
rang
p491
(dp492
g33
I2
sg34
S'<<'
p493
sg36
g121
sbsg38
(dp494
g40
I0
sg41
I0
sg42
I0
sg43
I0
ssg44
(dp495
g40
I0
sg41
I0
sg42
I0
sg43
I0
ssg46
g47
sg48
I0
sg49
I0
sg50
I0
sg51
I0
sg52
(g53
S'DO'
p496
S'DM'
p497
g47
tp498
sg58
(ijoueur
rang
p499
(dp500
g33
I2
sg34
S'<<'
p501
sg36
g121
sbsg62
(dp502
g40
I0
sg41
I0
sg42
I0
sg43
I0
ssg64
(dp503
g40
I0
sg41
I0
sg42
I0
sg43
I0
ssg66
(dp504
g40
I0
sg41
I0
sg42
I0
sg43
I0
ssg68
(dp505
g40
I0
sg41
I0
sg42
I0
sg43
I0
ssg70
I0
sg71
I0
sg72
S'Antoel'
p506
sg74
I8
sg75
I0
sg76
I18
sg77
I11
sg78
g79
sg80
(dp507
g82
I12
sg83
I5
sg84
I6
sg85
I10
sg86
I7
sg87
I6
sg88
I7
sg89
I6
sg90
I10
sg91
I12
sg92
I11
sg93
I5
sg94
I9
sg95
I8
sg96
I3
ssg97
I0
sg98
I0
sg99
I0
sg100
I0
sg101
F9.363636363636363
sg102
I0
sg103
I0
sg104
I0
sg105
g507
sg106
I0
sg107
I0
sg108
I0
sg109
I0
sg110
I1
sg111
I0
sg112
I0
sg113
S'EN'
p508
sbsS'n1'
p509
g249
sS'n2'
p510
(ijoueur
joueur
p511
(dp512
g27
I0
sg28
I0
sg29
I0
sg30
(ijoueur
rang
p513
(dp514
g33
I4
sg34
S'*'
p515
sg36
g191
sbsg38
(dp516
g40
I0
sg41
I0
sg42
I0
sg43
I0
ssg44
(dp517
g40
I0
sg41
I0
sg42
I0
sg43
I0
ssg46
g47
sg48
I0
sg49
I0
sg50
I0
sg51
I0
sg52
(g53
S'TA'
p518
g47
g47
tp519
sg58
(ijoueur
rang
p520
(dp521
g33
I4
sg34
S'*'
p522
sg36
g191
sbsg62
(dp523
g40
I0
sg41
I0
sg42
I0
sg43
I0
ssg64
(dp524
g40
I0
sg41
I0
sg42
I0
sg43
I0
ssg66
(dp525
g40
I0
sg41
I0
sg42
I0
sg43
I0
ssg68
(dp526
g40
I0
sg41
I0
sg42
I0
sg43
I0
ssg70
I0
sg71
I0
sg72
S'Kyessmaeth'
p527
sg74
I11
sg75
I0
sg76
I23
sg77
I60
sg78
g79
sg80
(dp528
g82
I10
sg83
I9
sg84
I8
sg85
I10
sg86
I7
sg87
I9
sg88
I6
sg89
I10
sg90
I5
sg91
I10
sg92
I8
sg93
I8
sg94
I7
sg95
I9
sg96
I10
ssg97
I0
sg98
I0
sg99
I0
sg100
I0
sg101
F9.275862068965518
sg102
I0
sg103
I0
sg104
I0
sg105
g528
sg106
I0
sg107
I0
sg108
I0
sg109
I0
sg110
I6
sg111
I0
sg112
I0
sg113
S'EN'
p529
sbsS'n3'
p530
(ijoueur
joueur
p531
(dp532
g27
I0
sg28
I0
sg29
I0
sg30
(ijoueur
rang
p533
(dp534
g33
I4
sg34
S'*'
p535
sg36
g191
sbsg38
(dp536
g40
I0
sg41
I0
sg42
I0
sg43
I0
ssg44
(dp537
g40
I0
sg41
I0
sg42
I0
sg43
I0
ssg46
g47
sg48
I0
sg49
I0
sg50
I0
sg51
I0
sg52
(g53
g96
S'PI'
p538
g47
tp539
sg58
(ijoueur
rang
p540
(dp541
g33
I4
sg34
S'*'
p542
sg36
g191
sbsg62
(dp543
g40
I0
sg41
I0
sg42
I0
sg43
I0
ssg64
(dp544
g40
I0
sg41
I0
sg42
I0
sg43
I0
ssg66
(dp545
g40
I0
sg41
I0
sg42
I0
sg43
I0
ssg68
(dp546
g40
I0
sg41
I0
sg42
I0
sg43
I0
ssg70
I0
sg71
I0
sg72
S'Baetor'
p547
sg74
I1
sg75
I0
sg76
I13
sg77
I60
sg78
g79
sg80
(dp548
g82
I13
sg83
I10
sg84
I8
sg85
I12
sg86
I5
sg87
I11
sg88
I6
sg89
I12
sg90
I6
sg91
I9
sg92
I8
sg93
I6
sg94
I6
sg95
I9
sg96
I9
ssg97
I0
sg98
I0
sg99
I0
sg100
I0
sg101
F9.666666666666666
sg102
I0
sg103
I0
sg104
I0
sg105
g548
sg106
I0
sg107
I0
sg108
I0
sg109
I0
sg110
I6
sg111
I0
sg112
I0
sg113
S'EN'
p549
sbsS'n4'
p550
g186
sS'n5'
p551
g165
sS'n6'
p552
(ijoueur
joueur
p553
(dp554
g27
I0
sg28
I0
sg29
I0
sg30
(ijoueur
rang
p555
(dp556
g33
I3
sg34
S'^^^'
p557
sg36
g304
sbsg38
(dp558
g40
I0
sg41
I0
sg42
I0
sg43
I0
ssg44
(dp559
g40
I0
sg41
I0
sg42
I0
sg43
I0
ssg46
g47
sg48
I0
sg49
I0
sg50
I0
sg51
I0
sg52
(g53
S'TL'
p560
S'DL'
p561
g47
tp562
sg58
(ijoueur
rang
p563
(dp564
g33
I3
sg34
S'^^^'
p565
sg36
g304
sbsg62
(dp566
g40
I0
sg41
I0
sg42
I0
sg43
I0
ssg64
(dp567
g40
I0
sg41
I0
sg42
I0
sg43
I0
ssg66
(dp568
g40
I0
sg41
I0
sg42
I0
sg43
I0
ssg68
(dp569
g40
I0
sg41
I0
sg42
I0
sg43
I0
ssg70
I0
sg71
I0
sg72
S'Braor'
p570
sg74
I11
sg75
I0
sg76
I24
sg77
I13
sg78
g79
sg80
(dp571
g82
I9
sg83
I10
sg84
I6
sg85
I10
sg86
I10
sg87
I8
sg88
I5
sg89
I8
sg90
I5
sg91
I8
sg92
I8
sg93
I8
sg94
I3
sg95
I11
sg96
I5
ssg97
I0
sg98
I0
sg99
I0
sg100
I0
sg101
F9.236842105263158
sg102
I0
sg103
I0
sg104
I0
sg105
g571
sg106
I0
sg107
I0
sg108
I0
sg109
I0
sg110
I1
sg111
I0
sg112
I0
sg113
S'EN'
p572
sbsS'n7'
p573
g208
ssS'remplacements'
p574
(dp575
g298
S'n0'
p576
sg319
g576
sg383
g576
sg403
g576
sg423
g576
sg444
g576
sg466
g576
ssb.