(iclub
compo
p0
(dp1
S'caracs_old'
p2
(dp3
S'A'
p4
F190.0
sS'ME'
p5
F83.0
sS'E'
p6
I208
sS'OplusAV'
p7
F47.0
sS'TO_off'
p8
F108.5
sS'OplusAR'
p9
F68.0
sS'M'
p10
F55.0
sS'JP'
p11
F97.0
sS'OmoinsAR'
p12
F67.5
sS'PA'
p13
F121.5
sS'TO_def'
p14
F101.0
sS'OmoinsAV'
p15
F54.0
sS'R'
p16
F119.5
ssS'totaux_old'
p17
(dp18
S'T2'
p19
F204.25
sS'T3'
p20
F104.0
sS'T1'
p21
F153.625
ssS'roles'
p22
(dp23
S'drop1'
p24
(ijoueur
joueur
p25
(dp26
S'rouges_total'
p27
I0
sS'drops_total'
p28
I0
sS'blessure'
p29
I0
sS'RG_max'
p30
(ijoueur
rang
p31
(dp32
S'type_nb'
p33
I5
sS'rang'
p34
S'**'
p35
sS'type'
p36
S'seigneur'
p37
sbsS'MJ2_total'
p38
(dp39
S'SR'
p40
I0
sS'CT'
p41
I1
sS'CR'
p42
I0
sS'ST'
p43
I0
ssS'MJ3_total'
p44
(dp45
g40
I0
sg41
I0
sg42
I0
sg43
I0
ssS'drop_rates_total'
p46
I0
sS'drop_rates_saison'
p47
I0
sS'essais_saison'
p48
I0
sS'penalite_ratees_saison'
p49
I0
sS'transformations_saison'
p50
I0
sS'postes'
p51
(S'dummy'
p52
S'AR'
p53
S'CE'
p54
S'AI'
p55
tp56
sS'RG'
p57
(ijoueur
rang
p58
(dp59
g33
I5
sg34
S'**'
p60
sg36
g37
sbsS'MJ1'
p61
(dp62
g40
I0
sg41
I0
sg42
I0
sg43
I0
ssS'MJ2'
p63
(dp64
g40
I0
sg41
I1
sg42
I0
sg43
I0
ssS'MJ3'
p65
(dp66
g40
I0
sg41
I0
sg42
I0
sg43
I0
ssS'MJ1_total'
p67
(dp68
g40
I0
sg41
I0
sg42
I0
sg43
I0
ssS'penalites_total'
p69
I0
sS'penalites_saison'
p70
I0
sS'nom'
p71
S'Luometh'
p72
sS'C'
p73
I10
sS'transformations_total'
p74
I0
sS'D'
p75
I24
sS'VAL'
p76
I130
sS'club'
p77
S'CAT'
p78
sS'caracs'
p79
(dp80
S'A'
p81
I15
sS'ME'
p82
I4
sS'RP2'
p83
I11
sS'E'
p84
I11
sS'P'
p85
I9
sS'RP1'
p86
I7
sS'JP'
p87
I10
sS'RP_tot'
p88
I11
sS'TO'
p89
I11
sS'PA'
p90
I11
sS'M'
p91
I10
sS'R'
p92
I8
sS'TB'
p93
I10
sS'PL'
p94
I12
sS'TA'
p95
I4
ssS'fatigue'
p96
I3
sS'drop_ratees_total'
p97
I0
sS'blessures_total'
p98
I0
sS'XP'
p99
I0
sS'EV'
p100
F11.515151515151516
sS'penalite_ratees_total'
p101
I0
sS'blessures_saison'
p102
I0
sS'jaunes_total'
p103
I0
sS'caracs_sans_fatigue'
p104
g80
sS'rouges_saison'
p105
I0
sS'anciens_clubs'
p106
S''
p107
sS'transformation_ratees_total'
p108
I0
sS'drops_saison'
p109
I0
sS'transformation_ratees_saison'
p110
I0
sS'MS'
p111
I13
sS'essais_total'
p112
I0
sS'jaunes_saison'
p113
I0
sS'ARM'
p114
S'EN'
p115
sbsS'SA_scd'
p116
(ijoueur
joueur
p117
(dp118
g27
I0
sg28
I0
sg29
I0
sg30
(ijoueur
rang
p119
(dp120
g33
I2
sg34
S'<<'
p121
sg36
S'special'
p122
sbsg38
(dp123
g40
I0
sg41
I0
sg42
I0
sg43
I0
ssg44
(dp124
g40
I0
sg41
I0
sg42
I0
sg43
I0
ssg46
I0
sg47
I0
sg48
I0
sg49
I0
sg50
I0
sg51
(g52
S'N8'
p125
S'DL'
p126
g107
tp127
sg57
(ijoueur
rang
p128
(dp129
g33
I2
sg34
S'<<'
p130
sg36
g122
sbsg61
(dp131
g40
I0
sg41
I1
sg42
I0
sg43
I0
ssg63
(dp132
g40
I0
sg41
I0
sg42
I0
sg43
I0
ssg65
(dp133
g40
I0
sg41
I0
sg42
I0
sg43
I0
ssg67
(dp134
g40
I0
sg41
I1
sg42
I0
sg43
I0
ssg69
I0
sg70
I0
sg71
S'Famyed'
p135
sg73
I6
sg74
I0
sg75
I13
sg76
I11
sg77
g78
sg79
(dp136
g81
I11
sg82
I8
sg83
I6
sg84
I11
sg85
I4
sg86
I9
sg87
I4
sg88
I9
sg89
I11
sg90
I9
sg91
I8
sg92
I8
sg93
I5
sg94
I9
sg95
I4
ssg96
I4
sg97
I0
sg98
I0
sg99
I0
sg100
F9.472222222222221
sg101
I0
sg102
I0
sg103
I0
sg104
g136
sg105
I0
sg106
g107
sg108
I0
sg109
I0
sg110
I0
sg111
I1
sg112
I0
sg113
I0
sg114
S'EN'
p137
sbsS'RJL'
p138
(ijoueur
joueur
p139
(dp140
g27
I0
sg28
I0
sg29
I0
sg30
(ijoueur
rang
p141
(dp142
g33
I5
sg34
S'**'
p143
sg36
g37
sbsg38
(dp144
g40
I0
sg41
I0
sg42
I0
sg43
I0
ssg44
(dp145
g40
I0
sg41
I0
sg42
I0
sg43
I0
ssg46
I0
sg47
I0
sg48
I0
sg49
I0
sg50
I0
sg51
(g52
S'DO'
p146
S'AR'
p147
g107
tp148
sg57
(ijoueur
rang
p149
(dp150
g33
I5
sg34
S'**'
p151
sg36
g37
sbsg61
(dp152
g40
I0
sg41
I1
sg42
I0
sg43
I0
ssg63
(dp153
g40
I0
sg41
I0
sg42
I0
sg43
I0
ssg65
(dp154
g40
I0
sg41
I0
sg42
I0
sg43
I0
ssg67
(dp155
g40
I0
sg41
I1
sg42
I0
sg43
I0
ssg69
I4
sg70
I4
sg71
S'Veiamaor'
p156
sg73
I8
sg74
I0
sg75
I18
sg76
I130
sg77
g78
sg79
(dp157
g81
I13
sg82
I5
sg83
I11
sg84
I12
sg85
I13
sg86
I7
sg87
I11
sg88
I11
sg89
I9
sg90
I13
sg91
I10
sg92
I6
sg93
I13
sg94
I12
sg95
I5
ssg96
I5
sg97
I0
sg98
I0
sg99
I0
sg100
F11.857142857142858
sg101
I0
sg102
I0
sg103
I0
sg104
g157
sg105
I0
sg106
g107
sg108
I0
sg109
I0
sg110
I0
sg111
I13
sg112
I0
sg113
I0
sg114
S'EN'
p158
sbsS'cap'
p159
g139
sS'B4'
p160
g139
sS'RJC'
p161
g139
sS'B1'
p162
g139
sS'B2'
p163
g139
sS'B3'
p164
g139
sS'SA_pcp2'
p165
(ijoueur
joueur
p166
(dp167
g27
I0
sg28
I0
sg29
I0
sg30
(ijoueur
rang
p168
(dp169
g33
I2
sg34
S'<<'
p170
sg36
g122
sbsg38
(dp171
g40
I0
sg41
I0
sg42
I0
sg43
I0
ssg44
(dp172
g40
I0
sg41
I0
sg42
I0
sg43
I0
ssg46
I0
sg47
I0
sg48
I0
sg49
I0
sg50
I0
sg51
(g52
S'DL'
p173
S'PI'
p174
g107
tp175
sg57
(ijoueur
rang
p176
(dp177
g33
I2
sg34
S'<<'
p178
sg36
g122
sbsg61
(dp179
g40
I0
sg41
I1
sg42
I0
sg43
I0
ssg63
(dp180
g40
I0
sg41
I0
sg42
I0
sg43
I0
ssg65
(dp181
g40
I0
sg41
I0
sg42
I0
sg43
I0
ssg67
(dp182
g40
I0
sg41
I1
sg42
I0
sg43
I0
ssg69
I0
sg70
I0
sg71
S'Zyvlor'
p183
sg73
I6
sg74
I0
sg75
I13
sg76
I11
sg77
g78
sg79
(dp184
g81
I11
sg82
I11
sg83
I6
sg84
I8
sg85
I4
sg86
I8
sg87
I3
sg88
I8
sg89
I12
sg90
I9
sg91
I7
sg92
I9
sg93
I2
sg94
I9
sg95
I3
ssg96
I4
sg97
I0
sg98
I0
sg99
I0
sg100
F9.676470588235293
sg101
I0
sg102
I0
sg103
I0
sg104
g184
sg105
I0
sg106
g107
sg108
I0
sg109
I0
sg110
I0
sg111
I1
sg112
I0
sg113
I0
sg114
S'EN'
p185
sbsS'SA_pcp1'
p186
(ijoueur
joueur
p187
(dp188
g27
I0
sg28
I0
sg29
I0
sg30
(ijoueur
rang
p189
(dp190
g33
I4
sg34
S'*'
p191
sg36
S'heros'
p192
sbsg38
(dp193
g40
I0
sg41
I0
sg42
I0
sg43
I0
ssg44
(dp194
g40
I0
sg41
I0
sg42
I0
sg43
I0
ssg46
I0
sg47
I0
sg48
I0
sg49
I0
sg50
I0
sg51
(g52
S'DL'
p195
g107
g107
tp196
sg57
(ijoueur
rang
p197
(dp198
g33
I4
sg34
S'*'
p199
sg36
g192
sbsg61
(dp200
g40
I0
sg41
I1
sg42
I0
sg43
I0
ssg63
(dp201
g40
I0
sg41
I0
sg42
I0
sg43
I0
ssg65
(dp202
g40
I0
sg41
I0
sg42
I0
sg43
I0
ssg67
(dp203
g40
I0
sg41
I1
sg42
I0
sg43
I0
ssg69
I0
sg70
I0
sg71
S'Vomleth'
p204
sg73
I1
sg74
I0
sg75
I16
sg76
I60
sg77
g78
sg79
(dp205
g81
I11
sg82
I9
sg83
I8
sg84
I11
sg85
I7
sg86
I8
sg87
I5
sg88
I9
sg89
I12
sg90
I12
sg91
I8
sg92
I8
sg93
I5
sg94
I10
sg95
I5
ssg96
I4
sg97
I0
sg98
I0
sg99
I0
sg100
F9.941176470588236
sg101
I0
sg102
I0
sg103
I0
sg104
g205
sg105
I0
sg106
g107
sg108
I0
sg109
I0
sg110
I0
sg111
I6
sg112
I0
sg113
I0
sg114
S'EN'
p206
sbsS'drop3'
p207
g139
sS'SA_remp1'
p208
(ijoueur
joueur
p209
(dp210
g27
I0
sg28
I0
sg29
I0
sg30
(ijoueur
rang
p211
(dp212
g33
I4
sg34
S'*'
p213
sg36
g192
sbsg38
(dp214
g40
I0
sg41
I0
sg42
I0
sg43
I0
ssg44
(dp215
g40
I0
sg41
I0
sg42
I0
sg43
I0
ssg46
I0
sg47
I0
sg48
I0
sg49
I0
sg50
I0
sg51
(g52
S'TL'
p216
S'N8'
p217
g107
tp218
sg57
(ijoueur
rang
p219
(dp220
g33
I4
sg34
S'*'
p221
sg36
g192
sbsg61
(dp222
g40
I0
sg41
I1
sg42
I0
sg43
I0
ssg63
(dp223
g40
I0
sg41
I0
sg42
I0
sg43
I0
ssg65
(dp224
g40
I0
sg41
I0
sg42
I0
sg43
I0
ssg67
(dp225
g40
I0
sg41
I1
sg42
I0
sg43
I0
ssg69
I0
sg70
I0
sg71
S'Amthyed'
p226
sg73
I7
sg74
I0
sg75
I14
sg76
I60
sg77
g78
sg79
(dp227
g81
I10
sg82
I10
sg83
I10
sg84
I11
sg85
I8
sg86
I9
sg87
I7
sg88
I12
sg89
I11
sg90
I10
sg91
I10
sg92
I9
sg93
I7
sg94
I12
sg95
I4
ssg96
I3
sg97
I0
sg98
I0
sg99
I0
sg100
F10.578947368421053
sg101
I0
sg102
I0
sg103
I0
sg104
g227
sg105
I0
sg106
g107
sg108
I0
sg109
I0
sg110
I0
sg111
I6
sg112
I0
sg113
I0
sg114
S'EN'
p228
sbsS'drop2'
p229
(ijoueur
joueur
p230
(dp231
g27
I0
sg28
I0
sg29
I0
sg30
(ijoueur
rang
p232
(dp233
g33
I5
sg34
S'**'
p234
sg36
g37
sbsg38
(dp235
g40
I0
sg41
I0
sg42
I0
sg43
I0
ssg44
(dp236
g40
I0
sg41
I0
sg42
I0
sg43
I0
ssg46
I0
sg47
I0
sg48
I0
sg49
I0
sg50
I0
sg51
(g52
S'C2'
p237
g107
g107
tp238
sg57
(ijoueur
rang
p239
(dp240
g33
I4
sg34
S'*'
p241
sg36
g192
sbsg61
(dp242
g40
I0
sg41
I1
sg42
I0
sg43
I0
ssg63
(dp243
g40
I0
sg41
I0
sg42
I0
sg43
I0
ssg65
(dp244
g40
I0
sg41
I0
sg42
I0
sg43
I0
ssg67
(dp245
g40
I0
sg41
I1
sg42
I0
sg43
I0
ssg69
I0
sg70
I0
sg71
S'Uelbaed'
p246
sg73
I10
sg74
I0
sg75
I21
sg76
I60
sg77
g78
sg79
(dp247
g81
I10
sg82
I5
sg83
I8
sg84
I10
sg85
I9
sg86
I11
sg87
I10
sg88
I12
sg89
I8
sg90
I12
sg91
I9
sg92
I8
sg93
I9
sg94
I10
sg95
I6
ssg96
I4
sg97
I0
sg98
I0
sg99
I0
sg100
F10.344827586206897
sg101
I0
sg102
I0
sg103
I0
sg104
g247
sg105
I0
sg106
g107
sg108
I0
sg109
I0
sg110
I0
sg111
I6
sg112
I0
sg113
I0
sg114
S'EN'
p248
sbsS'SA_remp2'
p249
(ijoueur
joueur
p250
(dp251
g27
I0
sg28
I0
sg29
I0
sg30
(ijoueur
rang
p252
(dp253
g33
I4
sg34
S'*'
p254
sg36
g192
sbsg38
(dp255
g40
I0
sg41
I0
sg42
I0
sg43
I0
ssg44
(dp256
g40
I0
sg41
I0
sg42
I0
sg43
I0
ssg46
I0
sg47
I0
sg48
I0
sg49
I0
sg50
I0
sg51
(g52
S'PI'
p257
g107
g107
tp258
sg57
(ijoueur
rang
p259
(dp260
g33
I4
sg34
S'*'
p261
sg36
g192
sbsg61
(dp262
g40
I0
sg41
I1
sg42
I0
sg43
I0
ssg63
(dp263
g40
I0
sg41
I0
sg42
I0
sg43
I0
ssg65
(dp264
g40
I0
sg41
I0
sg42
I0
sg43
I0
ssg67
(dp265
g40
I0
sg41
I1
sg42
I0
sg43
I0
ssg69
I0
sg70
I0
sg71
S'Thodenyl'
p266
sg73
I5
sg74
I0
sg75
I14
sg76
I60
sg77
g78
sg79
(dp267
g81
I11
sg82
I8
sg83
I8
sg84
I11
sg85
I9
sg86
I9
sg87
I5
sg88
I10
sg89
I11
sg90
I10
sg91
I9
sg92
I8
sg93
I8
sg94
I12
sg95
I8
ssg96
I2
sg97
I0
sg98
I0
sg99
I0
sg100
F9.941176470588236
sg101
I0
sg102
I0
sg103
I0
sg104
g267
sg105
I0
sg106
g107
sg108
I0
sg109
I0
sg110
I0
sg111
I6
sg112
I0
sg113
I0
sg114
S'EN'
p268
sbssS'totaux'
p269
(dp270
g19
I0
sg20
I0
sg21
I0
ssS'_compo_defaut_fatigue'
p271
Nsg79
(dp272
g4
I0
sg5
I0
sg6
I0
sg7
I0
sg8
I0
sg9
I0
sg10
I0
sg11
I0
sg12
I0
sg13
I0
sg14
I0
sg15
I0
sg16
I0
ssS'joueurs'
p273
(dp274
S'n12'
p275
g25
sS'n13'
p276
g230
sS'n10'
p277
g139
sS'n11'
p278
(ijoueur
joueur
p279
(dp280
g27
I0
sg28
I0
sg29
I0
sg30
(ijoueur
rang
p281
(dp282
g33
I4
sg34
S'*'
p283
sg36
g192
sbsg38
(dp284
g40
I0
sg41
I1
sg42
I0
sg43
I0
ssg44
(dp285
g40
I0
sg41
I0
sg42
I0
sg43
I0
ssg46
I0
sg47
I0
sg48
I0
sg49
I0
sg50
I0
sg51
(g52
S'C1'
p286
S'AI'
p287
g107
tp288
sg57
(ijoueur
rang
p289
(dp290
g33
I4
sg34
S'*'
p291
sg36
g192
sbsg61
(dp292
g40
I0
sg41
I0
sg42
I0
sg43
I0
ssg63
(dp293
g40
I0
sg41
I1
sg42
I0
sg43
I0
ssg65
(dp294
g40
I0
sg41
I0
sg42
I0
sg43
I0
ssg67
(dp295
g40
I0
sg41
I0
sg42
I0
sg43
I0
ssg69
I0
sg70
I0
sg71
S'Flamoed'
p296
sg73
I10
sg74
I0
sg75
I20
sg76
I60
sg77
g78
sg79
(dp297
g81
I12
sg82
I2
sg83
I10
sg84
I10
sg85
I10
sg86
I9
sg87
I9
sg88
I12
sg89
I9
sg90
I12
sg91
I11
sg92
I9
sg93
I10
sg94
I10
sg95
I6
ssg96
I4
sg97
I0
sg98
I0
sg99
I0
sg100
F10.766666666666667
sg101
I0
sg102
I0
sg103
I0
sg104
g297
sg105
I0
sg106
g107
sg108
I0
sg109
I0
sg110
I0
sg111
I6
sg112
I0
sg113
I0
sg114
S'EN'
p298
sbsS'n16'
p299
(ijoueur
joueur
p300
(dp301
g27
I0
sg28
I0
sg29
I0
sg30
(ijoueur
rang
p302
(dp303
g33
I3
sg34
S'^^^'
p304
sg36
S'rare'
p305
sbsg38
(dp306
g40
I0
sg41
I0
sg42
I0
sg43
I0
ssg44
(dp307
g40
I0
sg41
I0
sg42
I0
sg43
I0
ssg46
I0
sg47
I0
sg48
I0
sg49
I0
sg50
I0
sg51
(g52
S'TA'
p308
g107
g107
tp309
sg57
(ijoueur
rang
p310
(dp311
g33
I3
sg34
S'^^^'
p312
sg36
g305
sbsg61
(dp313
g40
I0
sg41
I0
sg42
I1
sg43
I0
ssg63
(dp314
g40
I0
sg41
I0
sg42
I0
sg43
I0
ssg65
(dp315
g40
I0
sg41
I0
sg42
I0
sg43
I0
ssg67
(dp316
g40
I0
sg41
I0
sg42
I1
sg43
I0
ssg69
I0
sg70
I0
sg71
S'Iaemor'
p317
sg73
I11
sg74
I0
sg75
I19
sg76
I13
sg77
g78
sg79
(dp318
g81
I8
sg82
I10
sg83
I8
sg84
I10
sg85
I4
sg86
I6
sg87
I4
sg88
I8
sg89
I5
sg90
I9
sg91
I8
sg92
I9
sg93
I4
sg94
I8
sg95
I10
ssg96
I2
sg97
I0
sg98
I0
sg99
I0
sg100
F9.0
sg101
I0
sg102
I0
sg103
I0
sg104
g318
sg105
I0
sg106
g107
sg108
I0
sg109
I0
sg110
I0
sg111
I1
sg112
I0
sg113
I0
sg114
S'EN'
p319
sbsS'n17'
p320
(ijoueur
joueur
p321
(dp322
g27
I0
sg28
I0
sg29
I0
sg30
(ijoueur
rang
p323
(dp324
g33
I4
sg34
S'*'
p325
sg36
g192
sbsg38
(dp326
g40
I0
sg41
I0
sg42
I0
sg43
I0
ssg44
(dp327
g40
I0
sg41
I0
sg42
I0
sg43
I0
ssg46
I0
sg47
I0
sg48
I0
sg49
I0
sg50
I0
sg51
(g52
S'PI'
p328
S'TA'
p329
S'DL'
p330
tp331
sg57
(ijoueur
rang
p332
(dp333
g33
I3
sg34
S'^^^'
p334
sg36
g305
sbsg61
(dp335
g40
I0
sg41
I0
sg42
I1
sg43
I0
ssg63
(dp336
g40
I0
sg41
I0
sg42
I0
sg43
I0
ssg65
(dp337
g40
I0
sg41
I0
sg42
I0
sg43
I0
ssg67
(dp338
g40
I0
sg41
I0
sg42
I1
sg43
I0
ssg69
I0
sg70
I0
sg71
S'Imear'
p339
sg73
I11
sg74
I0
sg75
I21
sg76
I13
sg77
g78
sg79
(dp340
g81
I11
sg82
I9
sg83
I6
sg84
I10
sg85
I5
sg86
I7
sg87
I4
sg88
I7
sg89
I8
sg90
I9
sg91
I8
sg92
I7
sg93
I3
sg94
I11
sg95
I8
ssg96
I3
sg97
I0
sg98
I0
sg99
I0
sg100
F8.814814814814815
sg101
I0
sg102
I0
sg103
I0
sg104
g340
sg105
I0
sg106
g107
sg108
I0
sg109
I0
sg110
I0
sg111
I1
sg112
I0
sg113
I0
sg114
S'EN'
p341
sbsS'n14'
p342
(ijoueur
joueur
p343
(dp344
g27
I0
sg28
I0
sg29
I0
sg30
(ijoueur
rang
p345
(dp346
g33
I5
sg34
S'**'
p347
sg36
g37
sbsg38
(dp348
g40
I0
sg41
I1
sg42
I0
sg43
I0
ssg44
(dp349
g40
I0
sg41
I0
sg42
I0
sg43
I0
ssg46
I0
sg47
I0
sg48
I0
sg49
I0
sg50
I0
sg51
(g52
S'AR'
p350
S'AI'
p351
g107
tp352
sg57
(ijoueur
rang
p353
(dp354
g33
I5
sg34
S'**'
p355
sg36
g37
sbsg61
(dp356
g40
I0
sg41
I0
sg42
I0
sg43
I0
ssg63
(dp357
g40
I0
sg41
I1
sg42
I0
sg43
I0
ssg65
(dp358
g40
I0
sg41
I0
sg42
I0
sg43
I0
ssg67
(dp359
g40
I0
sg41
I0
sg42
I0
sg43
I0
ssg69
I0
sg70
I0
sg71
S'Ameray'
p360
sg73
I4
sg74
I0
sg75
I15
sg76
I110
sg77
g78
sg79
(dp361
g81
I10
sg82
I5
sg83
I11
sg84
I11
sg85
I9
sg86
I10
sg87
I7
sg88
I14
sg89
I9
sg90
I9
sg91
I10
sg92
I10
sg93
I7
sg94
I10
sg95
I6
ssg96
I5
sg97
I0
sg98
I0
sg99
I0
sg100
F10.393939393939394
sg101
I0
sg102
I0
sg103
I0
sg104
g361
sg105
I0
sg106
g107
sg108
I0
sg109
I0
sg110
I0
sg111
I1
sg112
I0
sg113
I0
sg114
S'B'
p362
sbsS'n15'
p363
(ijoueur
joueur
p364
(dp365
g27
I0
sg28
I0
sg29
I0
sg30
(ijoueur
rang
p366
(dp367
g33
I2
sg34
S'<<'
p368
sg36
g122
sbsg38
(dp369
g40
I0
sg41
I0
sg42
I0
sg43
I0
ssg44
(dp370
g40
I0
sg41
I0
sg42
I0
sg43
I0
ssg46
I0
sg47
I0
sg48
I0
sg49
I0
sg50
I0
sg51
(g52
S'AR'
p371
S'CE'
p372
g107
tp373
sg57
(ijoueur
rang
p374
(dp375
g33
I2
sg34
S'<<'
p376
sg36
g122
sbsg61
(dp377
g40
I0
sg41
I1
sg42
I0
sg43
I0
ssg63
(dp378
g40
I0
sg41
I0
sg42
I0
sg43
I0
ssg65
(dp379
g40
I0
sg41
I0
sg42
I0
sg43
I0
ssg67
(dp380
g40
I0
sg41
I1
sg42
I0
sg43
I0
ssg69
I0
sg70
I0
sg71
S'Chinal'
p381
sg73
I2
sg74
I0
sg75
I13
sg76
I11
sg77
g78
sg79
(dp382
g81
I13
sg82
I3
sg83
I7
sg84
I10
sg85
I9
sg86
I7
sg87
I7
sg88
I7
sg89
I8
sg90
I12
sg91
I9
sg92
I7
sg93
I8
sg94
I11
sg95
I3
ssg96
I2
sg97
I0
sg98
I0
sg99
I0
sg100
F10.0
sg101
I0
sg102
I0
sg103
I0
sg104
g382
sg105
I0
sg106
g107
sg108
I0
sg109
I0
sg110
I0
sg111
I1
sg112
I0
sg113
I0
sg114
S'EN'
p383
sbsS'n18'
p384
(ijoueur
joueur
p385
(dp386
g27
I0
sg28
I0
sg29
I0
sg30
(ijoueur
rang
p387
(dp388
g33
I4
sg34
S'*'
p389
sg36
g192
sbsg38
(dp390
g40
I0
sg41
I0
sg42
I0
sg43
I0
ssg44
(dp391
g40
I0
sg41
I0
sg42
I0
sg43
I0
ssg46
I0
sg47
I0
sg48
I0
sg49
I0
sg50
I0
sg51
(g52
S'DL'
p392
g107
g107
tp393
sg57
(ijoueur
rang
p394
(dp395
g33
I4
sg34
S'*'
p396
sg36
g192
sbsg61
(dp397
g40
I0
sg41
I0
sg42
I1
sg43
I0
ssg63
(dp398
g40
I0
sg41
I0
sg42
I0
sg43
I0
ssg65
(dp399
g40
I0
sg41
I0
sg42
I0
sg43
I0
ssg67
(dp400
g40
I0
sg41
I0
sg42
I1
sg43
I0
ssg69
I0
sg70
I0
sg71
S'Klendaeth'
p401
sg73
I8
sg74
I0
sg75
I19
sg76
I60
sg77
g78
sg79
(dp402
g81
I12
sg82
I9
sg83
I8
sg84
I11
sg85
I8
sg86
I8
sg87
I4
sg88
I9
sg89
I10
sg90
I10
sg91
I8
sg92
I7
sg93
I6
sg94
I10
sg95
I3
ssg96
I1
sg97
I0
sg98
I0
sg99
I0
sg100
F9.323529411764707
sg101
I0
sg102
I0
sg103
I0
sg104
g402
sg105
I0
sg106
g107
sg108
I0
sg109
I0
sg110
I0
sg111
I6
sg112
I0
sg113
I0
sg114
S'EN'
p403
sbsS'n19'
p404
(ijoueur
joueur
p405
(dp406
g27
I0
sg28
I0
sg29
I0
sg30
(ijoueur
rang
p407
(dp408
g33
I2
sg34
S'^^'
p409
sg36
g122
sbsg38
(dp410
g40
I0
sg41
I0
sg42
I0
sg43
I0
ssg44
(dp411
g40
I0
sg41
I0
sg42
I0
sg43
I0
ssg46
I0
sg47
I0
sg48
I0
sg49
I0
sg50
I0
sg51
(g52
S'N8'
p412
S'TL'
p413
g107
tp414
sg57
(ijoueur
rang
p415
(dp416
g33
I1
sg34
S'^'
p417
sg36
S'base'
p418
sbsg61
(dp419
g40
I0
sg41
I0
sg42
I0
sg43
I0
ssg63
(dp420
g40
I0
sg41
I0
sg42
I0
sg43
I0
ssg65
(dp421
g40
I0
sg41
I0
sg42
I0
sg43
I0
ssg67
(dp422
g40
I0
sg41
I0
sg42
I0
sg43
I0
ssg69
I0
sg70
I0
sg71
S'Zentraol'
p423
sg73
I11
sg74
I0
sg75
I25
sg76
I7
sg77
g78
sg79
(dp424
g81
I9
sg82
I7
sg83
I6
sg84
I10
sg85
I4
sg86
I8
sg87
I4
sg88
I8
sg89
I10
sg90
I8
sg91
I8
sg92
I8
sg93
I4
sg94
I9
sg95
I4
ssg96
I0
sg97
I0
sg98
I0
sg99
I0
sg100
F8.75
sg101
I0
sg102
I0
sg103
I0
sg104
g424
sg105
I0
sg106
g107
sg108
I0
sg109
I0
sg110
I0
sg111
I1
sg112
I0
sg113
I0
sg114
S'EN'
p425
sbsS'n22'
p426
(ijoueur
joueur
p427
(dp428
g27
I0
sg28
I0
sg29
I0
sg30
(ijoueur
rang
p429
(dp430
g33
I2
sg34
S'^^'
p431
sg36
g122
sbsg38
(dp432
g40
I0
sg41
I0
sg42
I1
sg43
I0
ssg44
(dp433
g40
I0
sg41
I0
sg42
I0
sg43
I0
ssg46
I0
sg47
I0
sg48
I0
sg49
I0
sg50
I0
sg51
(g52
S'C1'
p434
S'AI'
p435
g107
tp436
sg57
(ijoueur
rang
p437
(dp438
g33
I2
sg34
S'^^'
p439
sg36
g122
sbsg61
(dp440
g40
I0
sg41
I0
sg42
I0
sg43
I0
ssg63
(dp441
g40
I0
sg41
I0
sg42
I1
sg43
I0
ssg65
(dp442
g40
I0
sg41
I0
sg42
I0
sg43
I0
ssg67
(dp443
g40
I0
sg41
I0
sg42
I0
sg43
I0
ssg69
I0
sg70
I0
sg71
S'Yomaed'
p444
sg73
I7
sg74
I0
sg75
I18
sg76
I28
sg77
g78
sg79
(dp445
g81
I10
sg82
I3
sg83
I7
sg84
I9
sg85
I9
sg86
I6
sg87
I8
sg88
I7
sg89
I5
sg90
I11
sg91
I13
sg92
I3
sg93
I8
sg94
I9
sg95
I4
ssg96
I0
sg97
I0
sg98
I0
sg99
I0
sg100
F9.066666666666666
sg101
I0
sg102
I0
sg103
I0
sg104
g445
sg105
I0
sg106
g107
sg108
I0
sg109
I0
sg110
I0
sg111
I3
sg112
I0
sg113
I0
sg114
S'EN'
p446
sbsS'n21'
p447
(ijoueur
joueur
p448
(dp449
g27
I0
sg28
I0
sg29
I0
sg30
(ijoueur
rang
p450
(dp451
g33
I2
sg34
S'^^'
p452
sg36
g122
sbsg38
(dp453
g40
I0
sg41
I0
sg42
I0
sg43
I0
ssg44
(dp454
g40
I0
sg41
I0
sg42
I0
sg43
I0
ssg46
I0
sg47
I0
sg48
I0
sg49
I0
sg50
I0
sg51
(g52
S'C2'
p455
S'AR'
p456
S'AI'
p457
tp458
sg57
(ijoueur
rang
p459
(dp460
g33
I2
sg34
S'^^'
p461
sg36
g122
sbsg61
(dp462
g40
I0
sg41
I0
sg42
I1
sg43
I0
ssg63
(dp463
g40
I0
sg41
I0
sg42
I0
sg43
I0
ssg65
(dp464
g40
I0
sg41
I0
sg42
I0
sg43
I0
ssg67
(dp465
g40
I0
sg41
I0
sg42
I1
sg43
I0
ssg69
I0
sg70
I0
sg71
S'Kledyr'
p466
sg73
I8
sg74
I0
sg75
I15
sg76
I28
sg77
g78
sg79
(dp467
g81
I11
sg82
I3
sg83
I8
sg84
I8
sg85
I9
sg86
I7
sg87
I8
sg88
I8
sg89
I6
sg90
I10
sg91
I11
sg92
I4
sg93
I7
sg94
I12
sg95
I3
ssg96
I3
sg97
I0
sg98
I0
sg99
I0
sg100
F9.448275862068966
sg101
I0
sg102
I0
sg103
I0
sg104
g467
sg105
I0
sg106
g107
sg108
I0
sg109
I0
sg110
I0
sg111
I3
sg112
I0
sg113
I0
sg114
S'EN'
p468
sbsS'n20'
p469
(ijoueur
joueur
p470
(dp471
g27
I0
sg28
I0
sg29
I0
sg30
(ijoueur
rang
p472
(dp473
g33
I3
sg34
S'^^^'
p474
sg36
g305
sbsg38
(dp475
g40
I0
sg41
I0
sg42
I1
sg43
I0
ssg44
(dp476
g40
I0
sg41
I0
sg42
I0
sg43
I0
ssg46
I0
sg47
I0
sg48
I0
sg49
I0
sg50
I0
sg51
(g52
S'DM'
p477
S'DO'
p478
g107
tp479
sg57
(ijoueur
rang
p480
(dp481
g33
I3
sg34
S'^^^'
p482
sg36
g305
sbsg61
(dp483
g40
I0
sg41
I0
sg42
I0
sg43
I0
ssg63
(dp484
g40
I0
sg41
I0
sg42
I1
sg43
I0
ssg65
(dp485
g40
I0
sg41
I0
sg42
I0
sg43
I0
ssg67
(dp486
g40
I0
sg41
I0
sg42
I0
sg43
I0
ssg69
I0
sg70
I0
sg71
S'Paezol'
p487
sg73
I1
sg74
I0
sg75
I13
sg76
I13
sg77
g78
sg79
(dp488
g81
I11
sg82
I4
sg83
I9
sg84
I12
sg85
I9
sg86
I7
sg87
I8
sg88
I9
sg89
I6
sg90
I9
sg91
I8
sg92
I6
sg93
I7
sg94
I11
sg95
I7
ssg96
I1
sg97
I0
sg98
I0
sg99
I0
sg100
F9.517241379310345
sg101
I0
sg102
I0
sg103
I0
sg104
g488
sg105
I0
sg106
g107
sg108
I0
sg109
I0
sg110
I0
sg111
I1
sg112
I0
sg113
I0
sg114
S'EN'
p489
sbsS'n8'
p490
g117
sS'n9'
p491
(ijoueur
joueur
p492
(dp493
g27
I0
sg28
I0
sg29
I0
sg30
(ijoueur
rang
p494
(dp495
g33
I2
sg34
S'<<'
p496
sg36
g122
sbsg38
(dp497
g40
I0
sg41
I1
sg42
I0
sg43
I0
ssg44
(dp498
g40
I0
sg41
I0
sg42
I0
sg43
I0
ssg46
I0
sg47
I0
sg48
I0
sg49
I0
sg50
I0
sg51
(g52
S'DO'
p499
S'DM'
p500
g107
tp501
sg57
(ijoueur
rang
p502
(dp503
g33
I2
sg34
S'<<'
p504
sg36
g122
sbsg61
(dp505
g40
I0
sg41
I0
sg42
I0
sg43
I0
ssg63
(dp506
g40
I0
sg41
I1
sg42
I0
sg43
I0
ssg65
(dp507
g40
I0
sg41
I0
sg42
I0
sg43
I0
ssg67
(dp508
g40
I0
sg41
I0
sg42
I0
sg43
I0
ssg69
I0
sg70
I0
sg71
S'Antoel'
p509
sg73
I8
sg74
I0
sg75
I18
sg76
I11
sg77
g78
sg79
(dp510
g81
I12
sg82
I5
sg83
I6
sg84
I10
sg85
I10
sg86
I6
sg87
I7
sg88
I6
sg89
I7
sg90
I12
sg91
I11
sg92
I5
sg93
I9
sg94
I8
sg95
I3
ssg96
I3
sg97
I0
sg98
I0
sg99
I0
sg100
F9.363636363636363
sg101
I0
sg102
I0
sg103
I0
sg104
g510
sg105
I0
sg106
g107
sg108
I0
sg109
I0
sg110
I0
sg111
I1
sg112
I0
sg113
I0
sg114
S'EN'
p511
sbsS'n1'
p512
g250
sS'n2'
p513
(ijoueur
joueur
p514
(dp515
g27
I0
sg28
I0
sg29
I0
sg30
(ijoueur
rang
p516
(dp517
g33
I4
sg34
S'*'
p518
sg36
g192
sbsg38
(dp519
g40
I0
sg41
I0
sg42
I0
sg43
I0
ssg44
(dp520
g40
I0
sg41
I0
sg42
I0
sg43
I0
ssg46
I0
sg47
I0
sg48
I0
sg49
I0
sg50
I0
sg51
(g52
S'TA'
p521
g107
g107
tp522
sg57
(ijoueur
rang
p523
(dp524
g33
I4
sg34
S'*'
p525
sg36
g192
sbsg61
(dp526
g40
I0
sg41
I1
sg42
I0
sg43
I0
ssg63
(dp527
g40
I0
sg41
I0
sg42
I0
sg43
I0
ssg65
(dp528
g40
I0
sg41
I0
sg42
I0
sg43
I0
ssg67
(dp529
g40
I0
sg41
I1
sg42
I0
sg43
I0
ssg69
I0
sg70
I0
sg71
S'Kyessmaeth'
p530
sg73
I11
sg74
I0
sg75
I23
sg76
I60
sg77
g78
sg79
(dp531
g81
I10
sg82
I9
sg83
I8
sg84
I10
sg85
I5
sg86
I9
sg87
I6
sg88
I10
sg89
I7
sg90
I10
sg91
I8
sg92
I8
sg93
I7
sg94
I9
sg95
I10
ssg96
I4
sg97
I0
sg98
I0
sg99
I0
sg100
F9.275862068965518
sg101
I0
sg102
I0
sg103
I0
sg104
g531
sg105
I0
sg106
g107
sg108
I0
sg109
I0
sg110
I0
sg111
I6
sg112
I0
sg113
I0
sg114
S'EN'
p532
sbsS'n3'
p533
(ijoueur
joueur
p534
(dp535
g27
I0
sg28
I0
sg29
I0
sg30
(ijoueur
rang
p536
(dp537
g33
I4
sg34
S'*'
p538
sg36
g192
sbsg38
(dp539
g40
I0
sg41
I1
sg42
I0
sg43
I0
ssg44
(dp540
g40
I0
sg41
I0
sg42
I0
sg43
I0
ssg46
I0
sg47
I0
sg48
I0
sg49
I0
sg50
I0
sg51
(g52
g95
S'PI'
p541
g107
tp542
sg57
(ijoueur
rang
p543
(dp544
g33
I4
sg34
S'*'
p545
sg36
g192
sbsg61
(dp546
g40
I0
sg41
I0
sg42
I0
sg43
I0
ssg63
(dp547
g40
I0
sg41
I1
sg42
I0
sg43
I0
ssg65
(dp548
g40
I0
sg41
I0
sg42
I0
sg43
I0
ssg67
(dp549
g40
I0
sg41
I0
sg42
I0
sg43
I0
ssg69
I0
sg70
I0
sg71
S'Baetor'
p550
sg73
I1
sg74
I0
sg75
I13
sg76
I60
sg77
g78
sg79
(dp551
g81
I13
sg82
I10
sg83
I8
sg84
I12
sg85
I6
sg86
I11
sg87
I6
sg88
I12
sg89
I5
sg90
I9
sg91
I8
sg92
I6
sg93
I6
sg94
I9
sg95
I9
ssg96
I3
sg97
I0
sg98
I0
sg99
I0
sg100
F9.666666666666666
sg101
I0
sg102
I0
sg103
I0
sg104
g551
sg105
I0
sg106
g107
sg108
I0
sg109
I0
sg110
I0
sg111
I6
sg112
I0
sg113
I0
sg114
S'EN'
p552
sbsS'n4'
p553
g187
sS'n5'
p554
g166
sS'n6'
p555
(ijoueur
joueur
p556
(dp557
g27
I0
sg28
I0
sg29
I0
sg30
(ijoueur
rang
p558
(dp559
g33
I5
sg34
S'xx'
p560
sg36
g37
sbsg38
(dp561
g40
I0
sg41
I0
sg42
I0
sg43
I0
ssg44
(dp562
g40
I0
sg41
I0
sg42
I0
sg43
I0
ssg46
I0
sg47
I0
sg48
I0
sg49
I0
sg50
I0
sg51
(g52
S'TL'
p563
g107
g107
tp564
sg57
(ijoueur
rang
p565
(dp566
g33
I4
sg34
S'x'
p567
sg36
g192
sbsg61
(dp568
g40
I0
sg41
I0
sg42
I1
sg43
I0
ssg63
(dp569
g40
I0
sg41
I0
sg42
I0
sg43
I0
ssg65
(dp570
g40
I0
sg41
I0
sg42
I0
sg43
I0
ssg67
(dp571
g40
I0
sg41
I0
sg42
I1
sg43
I0
ssg69
I0
sg70
I0
sg71
S'Mediart'
p572
sg73
I9
sg74
I0
sg75
I23
sg76
I90
sg77
g78
sg79
(dp573
g81
I9
sg82
I9
sg83
I7
sg84
I10
sg85
I6
sg86
I9
sg87
I5
sg88
I9
sg89
I9
sg90
I7
sg91
I8
sg92
I9
sg93
I4
sg94
I8
sg95
I5
ssg96
I2
sg97
I0
sg98
I0
sg99
I0
sg100
F8.842105263157896
sg101
I0
sg102
I0
sg103
I0
sg104
g573
sg105
I0
sg106
g107
sg108
I0
sg109
I0
sg110
I0
sg111
I9
sg112
I0
sg113
I0
sg114
S'EMP'
p574
sbsS'n7'
p575
g209
ssS'remplacements'
p576
(dp577
g299
S'n0'
p578
sg320
g578
sg384
g578
sg404
g578
sg426
g578
sg447
g578
sg469
g578
ssb.