ccopy_reg
_reconstructor
p0
(csaison
saison
p1
c__builtin__
object
p2
Ntp3
Rp4
(dp5
S'nom'
p6
S'saison_14_s'
p7
sS'journees'
p8
(lp9
S''
p10
asS'repos_effectues'
p11
(lp12
sS'dict_indice_journees'
p13
(dp14
sS'c_ou_s'
p15
S's'
p16
sS'dat'
p17
I14
sS'noms_championats'
p18
(lp19
sS'_journees'
p20
g9
sS'quarts_inities'
p21
(dp22
S'tournoi'
p23
I01
ssS'finale_initiee'
p24
(dp25
g23
I00
ssS'demies_initiees'
p26
(dp27
g23
I00
ssS'nombre_journees_repos'
p28
I0
sS'calendriers'
p29
(lp30
sb.