(iclub
compo
p0
(dp1
S'caracs_old'
p2
(dp3
S'A'
p4
F183.25
sS'ME'
p5
F109.5
sS'E'
p6
F212.5
sS'OplusAV'
p7
F104.75
sS'TO_off'
p8
F156.0
sS'OplusAR'
p9
F127.5
sS'M'
p10
F96.75
sS'JP'
p11
F102.75
sS'OmoinsAR'
p12
F110.0
sS'PA'
p13
F120.5
sS'TO_def'
p14
F147.5
sS'OmoinsAV'
p15
F103.75
sS'R'
p16
F201.25
ssS'totaux_old'
p17
(dp18
S'T2'
p19
F203.25
sS'T3'
p20
F106.25
sS'T1'
p21
F231.25
ssS'roles'
p22
(dp23
S'SA_scd'
p24
(ijoueur
joueur
p25
(dp26
S'rouges_total'
p27
I0
sS'EV_saison_12'
p28
F9.558823529411764
sS'residu_experience'
p29
F12.0
sS'changements_postes'
p30
S''
p31
sS'drops_total'
p32
I0
sS'xp_total'
p33
F218.75578221220385
sS'poste3'
p34
g31
sS'blessure'
p35
I0
sS'poste1'
p36
g31
sS'points_retraite'
p37
I0
sS'RG_max'
p38
ccopy_reg
_reconstructor
p39
(cjoueur
rang_new
p40
c__builtin__
object
p41
Ntp42
Rp43
(dp44
S'type_nb'
p45
I5
sS'rang'
p46
S'**'
p47
sS'type'
p48
S'seigneur'
p49
sbsS'caracs_saison_13'
p50
(dp51
sS'MJ2_total'
p52
(dp53
S'SR'
p54
I0
sS'ST'
p55
I0
sS'CR'
p56
I0
sS'CT'
p57
I0
ssS'EV_saison_13'
p58
F10.058823529411764
sS'xp'
p59
I0
sS'rand_retraite'
p60
I10
sS'anciens_clubs'
p61
g31
sS'carte_evolution'
p62
(dp63
S'couleur'
p64
I4
sS'valeur'
p65
I8
sS'r_n'
p66
S'r'
p67
ssS'drop_rates_saison'
p68
I0
sS'xp_saison'
p69
F218.75578221220385
sS'nouveau_bonus_evolution'
p70
I01
sS'num_dernier_bonus'
p71
I6
sS'essais_saison'
p72
I0
sS'penalite_ratees_saison'
p73
I0
sS'transformations_saison'
p74
I0
sS'bonus'
p75
I2
sS'veut_partir'
p76
I00
sS'experience_total'
p77
F20.0
sS'MJ1'
p78
(dp79
S'SR'
p80
I0
sS'ST'
p81
I0
sS'CR'
p82
I0
sS'CT'
p83
I0
ssS'MJ2'
p84
(dp85
g80
I0
sg81
I0
sg82
I0
sg83
I0
ssS'MJ3'
p86
(dp87
g80
I0
sg81
I0
sg82
I0
sg83
I0
ssS'MJ1_total'
p88
(dp89
g54
I0
sg55
I14
sg56
I0
sg57
I25
ssS'penalites_total'
p90
I0
sS'postes_maitrises'
p91
(lp92
S'dummy'
p93
aI01
aI01
aI00
asS'penalites_saison'
p94
I0
sS'nom'
p95
S'Haeltodil'
p96
sS'C'
p97
I12
sS'transformations_total'
p98
I0
sS'MS_probleme'
p99
I00
sS'VAL'
p100
I145
sS'club'
p101
S'HTH'
p102
sS'retraite'
p103
I00
sS'poste2'
p104
g31
sS'D'
p105
I21
sS'caracs'
p106
(dp107
S'RP1'
p108
I7
sS'ME'
p109
I10
sS'RP2'
p110
I9
sS'E'
p111
I11
sS'P'
p112
I10
sS'JP'
p113
I9
sS'M'
p114
I9
sS'RP_tot'
p115
I9
sS'TO'
p116
I14
sS'PA'
p117
I13
sS'A'
p118
I11
sS'R'
p119
I9
sS'TB'
p120
I8
sS'PL'
p121
I10
sS'TA'
p122
I8
ssS'RG'
p123
g43
sS'fatigue'
p124
I0
sS'drop_ratees_total'
p125
I0
sS'blessures_total'
p126
I0
sS'experience_saison'
p127
I0
sS'XP'
p128
I0
sS'EV'
p129
F10.764705882352942
sS'penalite_ratees_total'
p130
I0
sS'postes'
p131
(S'dummy'
p132
S'PI'
p133
S'DL'
p134
g31
tp135
sS'MJ3_total'
p136
(dp137
g54
I0
sg55
I0
sg56
I0
sg57
I0
ssS'evolution'
p138
I0
sS'blessures_saison'
p139
I0
sS'jj_passe'
p140
(dp141
S's13'
p142
(ijoueur
joueur
p143
(dp144
g27
I0
sg29
F14.0
sg125
I0
sg32
I0
sg71
I6
sg35
I0
sg38
g43
sg52
(dp145
S'SR'
p146
I0
sS'ST'
p147
I0
sS'CR'
p148
I0
sS'CT'
p149
I0
ssg136
g137
sg61
g31
sS'MS'
p150
I7
sg62
(dp151
S'couleur'
p152
I1
sS'valeur'
p153
I1
sS'r_n'
p154
S'n'
p155
ssg68
I0
sg72
I1
sg73
I0
sg74
I0
sg101
g102
sg76
I00
sg123
g39
(g40
g41
Ntp156
Rp157
(dp158
g45
I4
sg46
S'*'
p159
sg48
S'heros'
p160
sbsg77
F0.0
sg99
I00
sg86
(dp161
S'SR'
p162
I0
sS'ST'
p163
I0
sS'CR'
p164
I0
sS'CT'
p165
I0
ssg88
g89
sg90
I0
sg91
(lp166
S'dummy'
p167
aI01
aI01
aI00
asg78
(dp168
g162
I0
sg163
I7
sg164
I0
sg165
I13
ssg95
S'Haeltodil (13)'
p169
sg97
I12
sg98
I0
sg105
I21
sg100
I75
sg131
g135
sg106
(dp170
S'A'
p171
I0
sS'ME'
p172
I0
sS'RP2'
p173
I0
sS'E'
p174
I0
sS'TO'
p175
I0
sS'RP1'
p176
I0
sS'JP'
p177
I0
sS'RP_tot'
p178
I0
sS'P'
p179
I0
sS'PA'
p180
I0
sS'M'
p181
I0
sS'R'
p182
I0
sS'TB'
p183
I0
sS'PL'
p184
I0
sS'TA'
p185
I0
ssg140
(dp186
sg124
I0
sg30
g31
sg126
I0
sg127
F20.0
sg128
I0
sg129
F10.058823529411764
sg130
I0
sg138
I0
sg84
(dp187
g162
I0
sg163
I0
sg164
I0
sg165
I0
ssS'jaunes_total'
p188
I0
sS'caracs_sans_fatigue'
p189
(dp190
S'A'
p191
I10
sS'ME'
p192
I10
sS'RP2'
p193
I8
sS'E'
p194
I10
sS'P'
p195
I9
sS'RP1'
p196
I7
sS'JP'
p197
I8
sS'RP_tot'
p198
I9
sS'TO'
p199
I13
sS'PA'
p200
I12
sS'M'
p201
I9
sS'R'
p202
I8
sS'TB'
p203
I8
sS'PL'
p204
I9
sS'TA'
p205
I8
ssS'rouges_saison'
p206
I0
sS'transformation_ratees_total'
p207
I0
sS'drops_saison'
p208
I0
sS'transformation_ratees_saison'
p209
I0
sg75
I0
sS'essais_total'
p210
I0
sg139
I0
sg94
I0
sS'jaunes_saison'
p211
I0
sS'ARM'
p212
S'HE'
p213
sbsS's12'
p214
(ijoueur
joueur
p215
(dp216
g27
I0
sg29
F9.0
sg30
g31
sg32
I0
sg71
I4
sg34
g31
sg35
I0
sg36
g31
sg38
g39
(g40
g41
Ntp217
Rp218
(dp219
g45
I5
sg46
S'**'
p220
sg48
S'seigneur'
p221
sbsg52
(dp222
S'SR'
p223
I0
sS'ST'
p224
I0
sS'CR'
p225
I0
sS'CT'
p226
I0
ssg136
(dp227
g223
I0
sg224
I0
sg225
I0
sg226
I0
ssg61
g31
sg62
(dp228
g152
I1
sg153
I1
sg154
g155
ssg68
I0
sg72
I0
sg73
I0
sg74
I0
sg101
S'HTH'
p229
sg76
I00
sg77
F19.0
sg78
(dp230
g223
I0
sg224
I7
sg225
I0
sg226
I12
ssg99
I01
sg86
(dp231
g223
I0
sg224
I0
sg225
I0
sg226
I0
ssg88
(dp232
g223
I0
sg224
I7
sg225
I0
sg226
I12
ssg90
I0
sg91
(lp233
g167
aI01
aI01
aI00
asg94
I0
sg95
S'Haeltodil (12)'
p234
sg97
I12
sg98
I0
sg105
I21
sg100
I40
sg75
I0
sg104
g31
sg106
(dp235
S'RP1'
p236
I7
sS'ME'
p237
I9
sS'RP2'
p238
I6
sS'E'
p239
I10
sS'TO'
p240
I12
sS'M'
p241
I9
sS'JP'
p242
I5
sS'RP_tot'
p243
I7
sS'P'
p244
I6
sS'PA'
p245
I11
sS'A'
p246
I9
sS'R'
p247
I9
sS'TB'
p248
I5
sS'PL'
p249
I9
sS'TA'
p250
I7
ssg123
g39
(g40
g41
Ntp251
Rp252
(dp253
g45
I3
sg46
S'^^^'
p254
sg48
S'rare'
p255
sbsg124
I7
sg125
I0
sg126
I0
sg127
F19.0
sg128
I0
sg129
F9.558823529411764
sg130
I0
sg131
(S'dummy'
p256
S'PI'
p257
S'DL'
p258
g31
tp259
sg138
I0
sg84
(dp260
g223
I0
sg224
I0
sg225
I0
sg226
I0
ssg140
(dp261
sg188
I0
sg189
g235
sg206
I0
sg207
I0
sg208
I0
sg209
I0
sg150
I4
sg210
I0
sg139
I0
sg211
I0
sg212
S'HE'
p262
sbssg188
I0
sg189
(dp263
g108
I7
sg109
I10
sg110
I9
sg111
I11
sg116
I14
sg114
I9
sg113
I9
sg115
I9
sg112
I10
sg117
I13
sg118
I11
sg119
I9
sg120
I8
sg121
I10
sg122
I8
ssg206
I0
sS'caracs_saison_12'
p264
(dp265
sg207
I0
sg208
I0
sg209
I0
sg150
I14
sg210
I1
sg211
I0
sg212
g213
sbsS'RJL'
p266
(ijoueur
joueur
p267
(dp268
S'EV_saison_11'
p269
F9.620689655172415
sg27
I0
sg28
F10.379310344827585
sg29
F1.5
sg30
g31
sg32
I0
sg33
F220.16218110983374
sg35
I0
sg37
I0
sg38
g39
(g40
g41
Ntp270
Rp271
(dp272
g45
I5
sg46
S'**'
p273
sg48
S'seigneur'
p274
sbsg50
(dp275
sg52
(dp276
S'SR'
p277
I0
sS'ST'
p278
I0
sS'CR'
p279
I0
sS'CT'
p280
I0
ssg58
F10.96551724137931
sg59
I0
sg60
I10
sS'drop_rates_total'
p281
I0
sg62
(dp282
g64
Nsg65
I14
sg66
S'n'
p283
ssg68
I0
sg69
F220.16218110983374
sg70
I01
sg71
I7
sg72
I0
sg73
I0
sg74
I0
sg75
I2
sg76
I00
sg77
F16.5
sg78
(dp284
g80
I0
sg81
I0
sg82
I0
sg83
I0
ssg84
(dp285
g80
I0
sg81
I0
sg82
I0
sg83
I0
ssg86
(dp286
g80
I0
sg81
I0
sg82
I0
sg83
I0
ssg88
(dp287
g277
I6
sg278
I1
sg279
I15
sg280
I28
ssg90
I0
sg91
(lp288
g93
aI01
aI00
aI00
asg94
I0
sg95
S'Zimloeth'
p289
sg97
I11
sg98
I0
sg99
I00
sg100
I141
sg101
g102
sg103
I00
sg105
I23
sg106
(dp290
S'A'
p291
I14
sS'ME'
p292
I7
sS'RP2'
p293
I10
sS'E'
p294
I12
sS'P'
p295
I12
sS'RP1'
p296
I8
sS'JP'
p297
I9
sS'RP_tot'
p298
I11
sS'TO'
p299
I8
sS'PA'
p300
I14
sS'M'
p301
I10
sS'R'
p302
I6
sS'TB'
p303
I9
sS'PL'
p304
I11
sS'TA'
p305
I5
ssg189
(dp306
g291
I14
sg292
I7
sg293
I10
sg294
I12
sg299
I8
sg296
I8
sg297
I9
sg298
I11
sg295
I12
sg300
I14
sg301
I10
sg302
I6
sg303
I9
sg304
I11
sg305
I5
ssg123
g271
sg124
I0
sg125
I0
sg126
I0
sg127
I0
sg128
I0
sg129
F11.689655172413794
sg130
I0
sg131
(S'dummy'
p307
S'DM'
p308
g31
g31
tp309
sg136
(dp310
g277
I0
sg278
I0
sg279
I0
sg280
I0
ssg138
I7
sg139
I0
sg140
(dp311
S's13'
p312
(ijoueur
joueur
p313
(dp314
g27
I0
sg29
F3.5
sg125
I0
sg32
I0
sg71
I7
sg35
I0
sg38
g271
sg52
(dp315
g146
I0
sg147
I0
sg148
I0
sg149
I0
ssg136
g310
sg61
g31
sg150
I13
sg62
(dp316
g152
I1
sg153
I1
sg154
g155
ssg68
I0
sg72
I1
sg73
I0
sg74
I0
sg101
g102
sg76
I00
sg123
g271
sg77
F0.0
sg99
I00
sg86
(dp317
g162
I0
sg163
I0
sg164
I0
sg165
I0
ssg88
g287
sg90
I0
sg91
(lp318
g167
aI01
aI00
aI00
asg78
(dp319
g162
I6
sg163
I1
sg164
I1
sg165
I12
ssg95
S'Zimloeth (13)'
p320
sg97
I11
sg98
I0
sg105
I23
sg100
I141
sg131
g309
sg106
(dp321
g171
I0
sg172
I0
sg173
I0
sg174
I0
sg175
I0
sg176
I0
sg177
I0
sg178
I0
sg179
I0
sg180
I0
sg181
I0
sg182
I0
sg183
I0
sg184
I0
sg185
I0
ssg140
(dp322
sg124
I0
sg30
g31
sg126
I0
sg127
F16.5
sg128
I0
sg129
F10.96551724137931
sg130
I0
sg138
I0
sg84
(dp323
g162
I0
sg163
I0
sg164
I0
sg165
I0
ssg188
I0
sg189
(dp324
g191
I13
sg192
I7
sg193
I9
sg194
I12
sg195
I9
sg196
I7
sg197
I9
sg198
I9
sg199
I8
sg200
I14
sg201
I10
sg202
I6
sg203
I9
sg204
I10
sg205
I5
ssg206
I0
sg207
I0
sg208
I0
sg209
I0
sg75
I0
sg210
I0
sg139
I0
sg94
I0
sg211
I0
sg212
S'HE'
p325
sbsg214
(ijoueur
joueur
p326
(dp327
g269
F9.620689655172415
sg27
I0
sg29
F7.0
sg30
g31
sg32
I0
sg71
I5
sg35
I0
sg38
g39
(g40
g41
Ntp328
Rp329
(dp330
g45
I5
sg46
S'**'
p331
sg48
S'seigneur'
p332
sbsg52
(dp333
S'SR'
p334
I0
sS'ST'
p335
I0
sS'CR'
p336
I0
sS'CT'
p337
I0
ssg136
(dp338
g334
I0
sg335
I0
sg336
I0
sg337
I0
ssg281
I0
sg150
I6
sg62
(dp339
g152
I1
sg153
I1
sg154
g155
ssg68
I0
sg72
I0
sg73
I0
sg74
I0
sg101
g229
sg76
I00
sg123
g39
(g40
g41
Ntp340
Rp341
(dp342
g45
I4
sg46
S'*'
p343
sg48
S'heros'
p344
sbsg77
F2.5
sg99
I01
sg86
(dp345
S'SR'
p346
I0
sS'ST'
p347
I0
sS'CR'
p348
I0
sS'CT'
p349
I0
ssg88
(dp350
g334
I0
sg335
I0
sg336
I14
sg337
I16
ssg90
I0
sg91
(lp351
g167
aI01
aI00
aI00
asg78
(dp352
g346
I0
sg347
I0
sg348
I0
sg349
I14
ssg95
S'Zimloeth (12)'
p353
sg97
I11
sg98
I0
sg105
I23
sg100
I71
sg131
(S'dummy'
p354
S'DM'
p355
g31
g31
tp356
sg106
(dp357
S'A'
p358
I12
sS'ME'
p359
I7
sS'RP2'
p360
I8
sS'E'
p361
I11
sS'TO'
p362
I7
sS'RP1'
p363
I7
sS'JP'
p364
I9
sS'RP_tot'
p365
I8
sS'P'
p366
I10
sS'PA'
p367
I13
sS'M'
p368
I10
sS'R'
p369
I5
sS'TB'
p370
I10
sS'PL'
p371
I9
sS'TA'
p372
I5
ssg140
(dp373
S's11'
p374
(ijoueur
joueur
p375
(dp376
g27
I0
sg32
I0
sg35
I0
sg38
g39
(g40
g41
Ntp377
Rp378
(dp379
g45
I5
sg46
S'**'
p380
sg48
S'seigneur'
p381
sbsg52
(dp382
S'SR'
p383
I0
sS'ST'
p384
I0
sS'CR'
p385
I0
sS'CT'
p386
I0
ssg136
(dp387
g383
I0
sg384
I0
sg385
I0
sg386
I0
ssg281
I0
sg68
I0
sg99
I01
sg72
I0
sg73
I0
sg74
I0
sg131
(S'dummy'
p388
S'DM'
p389
g31
g31
tp390
sg76
I00
sg123
g39
(g40
g41
Ntp391
Rp392
(dp393
g45
I2
sg46
S'^^'
p394
sg48
S'special'
p395
sbsg78
(dp396
g383
I0
sg384
I0
sg385
I14
sg386
I2
ssg84
(dp397
g383
I0
sg384
I0
sg385
I0
sg386
I0
ssg86
(dp398
g383
I0
sg384
I0
sg385
I0
sg386
I0
ssg88
(dp399
g383
I0
sg384
I0
sg385
I14
sg386
I2
ssg90
I0
sg94
I0
sg95
S'Zimloeth'
p400
sg97
I11
sg98
I0
sg105
I23
sg100
I23
sg101
S'HTH'
p401
sg106
(dp402
S'A'
p403
I11
sS'ME'
p404
I6
sS'RP2'
p405
I6
sS'E'
p406
I10
sS'TO'
p407
I6
sS'RP1'
p408
I6
sS'JP'
p409
I7
sS'RP_tot'
p410
I6
sS'P'
p411
I9
sS'PA'
p412
I14
sS'M'
p413
I9
sS'R'
p414
I5
sS'TB'
p415
I7
sS'PL'
p416
I8
sS'TA'
p417
I4
ssg124
I0
sg125
I0
sg126
I0
sg128
I0
sg129
F9.620689655172415
sg130
I0
sg139
I0
sg188
I0
sS'caracs_saison_11'
p418
(dp419
S'A'
p420
I11
sS'ME'
p421
I6
sS'RP2'
p422
I6
sS'E'
p423
I10
sS'TO'
p424
I6
sS'RP1'
p425
I6
sS'JP'
p426
I7
sS'RP_tot'
p427
I6
sS'P'
p428
I9
sS'PA'
p429
I14
sS'M'
p430
I9
sS'R'
p431
I5
sS'TB'
p432
I7
sS'PL'
p433
I8
sS'TA'
p434
I4
ssg189
g402
sg206
I0
sg61
g31
sg207
I0
sg208
I0
sg209
I0
sg150
I2
sg210
I0
sg211
I0
sg212
S'HE'
p435
sbssg124
I0
sg125
I0
sg126
I0
sg127
F14.0
sg128
I0
sg129
F10.379310344827585
sg130
I0
sg138
I0
sg84
(dp436
g346
I0
sg347
I0
sg348
I0
sg349
I0
ssg188
I0
sg418
(dp437
S'A'
p438
I11
sS'ME'
p439
I6
sS'RP2'
p440
I6
sS'E'
p441
I10
sS'P'
p442
I9
sS'RP1'
p443
I6
sS'JP'
p444
I7
sS'RP_tot'
p445
I6
sS'TO'
p446
I6
sS'PA'
p447
I14
sS'M'
p448
I9
sS'R'
p449
I5
sS'TB'
p450
I7
sS'PL'
p451
I8
sS'TA'
p452
I4
ssg189
g357
sg206
I0
sg61
g31
sg207
I0
sg208
I0
sg209
I0
sg75
I0
sg210
I0
sg139
I0
sg94
I0
sg211
I0
sg212
S'HE'
p453
sbsS's11'
p454
(ijoueur
joueur
p455
(dp456
g27
I0
sg29
F5.0
sg32
I0
sg71
I3
sg35
I0
sg38
g39
(g40
g41
Ntp457
Rp458
(dp459
g45
I5
sg46
S'**'
p460
sg48
S'seigneur'
p461
sbsg52
(dp462
S'SR'
p463
I0
sS'ST'
p464
I0
sS'CR'
p465
I0
sS'CT'
p466
I0
ssg136
(dp467
g463
I0
sg464
I0
sg465
I0
sg466
I0
ssg281
I0
sg150
I2
sg62
(dp468
g152
I1
sg153
I1
sg154
g155
ssg68
I0
sg72
I0
sg73
I0
sg74
I0
sg101
S'HTH'
p469
sg76
I00
sg123
g39
(g40
g41
Ntp470
Rp471
(dp472
g45
I2
sg46
S'^^'
p473
sg48
S'special'
p474
sbsg77
F9.0
sg99
I01
sg86
(dp475
g463
I0
sg464
I0
sg465
I0
sg466
I0
ssg88
(dp476
g463
I0
sg464
I0
sg465
I14
sg466
I2
ssg90
I0
sg91
(lp477
g167
aI01
aI00
aI00
asg94
I0
sg95
S'Zimloeth (11)'
p478
sg97
I11
sg98
I0
sg105
I23
sg100
I23
sg131
(S'dummy'
p479
S'DM'
p480
g31
g31
tp481
sg78
(dp482
g463
I0
sg464
I0
sg465
I14
sg466
I2
ssg106
(dp483
S'A'
p484
I11
sS'ME'
p485
I6
sS'RP2'
p486
I6
sS'E'
p487
I10
sS'TO'
p488
I6
sS'RP1'
p489
I6
sS'JP'
p490
I7
sS'RP_tot'
p491
I6
sS'P'
p492
I9
sS'PA'
p493
I14
sS'M'
p494
I9
sS'R'
p495
I5
sS'TB'
p496
I7
sS'PL'
p497
I8
sS'TA'
p498
I4
ssg124
I0
sg125
I0
sg126
I0
sg127
F9.0
sg128
I0
sg129
F9.620689655172415
sg130
I0
sg138
I0
sg84
(dp499
g463
I0
sg464
I0
sg465
I0
sg466
I0
ssg188
I0
sg418
(dp500
S'A'
p501
I11
sS'ME'
p502
I6
sS'RP2'
p503
I6
sS'E'
p504
I10
sS'TO'
p505
I6
sS'RP1'
p506
I6
sS'JP'
p507
I7
sS'RP_tot'
p508
I6
sS'P'
p509
I9
sS'PA'
p510
I14
sS'M'
p511
I9
sS'R'
p512
I5
sS'TB'
p513
I7
sS'PL'
p514
I8
sS'TA'
p515
I4
ssg189
g483
sg206
I0
sg61
g31
sg207
I0
sg208
I0
sg209
I0
sg75
I0
sg210
I0
sg139
I0
sg211
I0
sg212
S'HE'
p516
sbssg188
I0
sg418
(dp517
S'A'
p518
I11
sS'ME'
p519
I6
sS'RP2'
p520
I6
sS'E'
p521
I10
sS'P'
p522
I9
sS'RP1'
p523
I6
sS'JP'
p524
I7
sS'RP_tot'
p525
I6
sS'TO'
p526
I6
sS'PA'
p527
I14
sS'M'
p528
I9
sS'R'
p529
I5
sS'TB'
p530
I7
sS'PL'
p531
I8
sS'TA'
p532
I4
ssg206
I0
sg264
(dp533
sg207
I0
sg61
g31
sg208
I0
sg209
I0
sg150
I13
sg210
I1
sg211
I0
sg212
g325
sbsS'cap'
p534
(ijoueur
joueur
p535
(dp536
g269
F10.558823529411764
sg27
I0
sg28
F11.058823529411764
sg29
F8.0
sg30
g31
sg32
I0
sg33
F239.46381138014866
sg35
I0
sg37
I0
sg38
g39
(g40
g41
Ntp537
Rp538
(dp539
g45
I4
sg46
S'*'
p540
sg48
S'heros'
p541
sbsg50
(dp542
sg52
(dp543
S'SR'
p544
I0
sS'ST'
p545
I0
sS'CR'
p546
I0
sS'CT'
p547
I0
ssg58
F11.5
sg59
I0
sg60
I10
sg281
I0
sg62
(dp548
g64
I3
sg65
I10
sg66
g283
ssg68
I0
sg69
F239.46381138014866
sg70
I00
sg71
I7
sg72
I0
sg73
I0
sg74
I0
sg75
I4
sg76
I00
sg77
F22.0
sg78
(dp549
g80
I0
sg81
I0
sg82
I0
sg83
I0
ssg84
(dp550
g80
I0
sg81
I0
sg82
I0
sg83
I0
ssg86
(dp551
g80
I0
sg81
I0
sg82
I0
sg83
I0
ssg88
(dp552
g544
I0
sg545
I22
sg546
I0
sg547
I42
ssg90
I0
sg91
(lp553
g93
aI01
aI00
aI00
asg94
I0
sg95
S'Daethyl'
p554
sg97
I8
sg98
I0
sg99
I00
sg100
I78
sg101
g102
sg103
I00
sg105
I23
sg106
(dp555
S'A'
p556
I14
sS'ME'
p557
I16
sS'RP2'
p558
I8
sS'E'
p559
I14
sS'P'
p560
I9
sS'RP1'
p561
I10
sS'JP'
p562
I6
sS'RP_tot'
p563
I11
sS'TO'
p564
I16
sS'PA'
p565
I9
sS'M'
p566
I11
sS'R'
p567
I8
sS'TB'
p568
I8
sS'PL'
p569
I10
sS'TA'
p570
I7
ssg189
(dp571
g556
I14
sg557
I16
sg558
I8
sg559
I14
sg564
I16
sg561
I10
sg562
I6
sg563
I11
sg560
I9
sg565
I9
sg566
I11
sg567
I8
sg568
I8
sg569
I10
sg570
I7
ssg123
g39
(g40
g41
Ntp572
Rp573
(dp574
g45
I4
sg46
g540
sg48
g541
sbsg124
I0
sg125
I0
sg126
I0
sg127
I0
sg128
I0
sg129
F12.352941176470589
sg130
I0
sg131
(g307
S'DL'
p575
g31
g31
tp576
sg136
(dp577
g544
I0
sg545
I0
sg546
I0
sg547
I0
ssg138
I7
sg139
I0
sg140
(dp578
S's13'
p579
(ijoueur
joueur
p580
(dp581
g27
I0
sg29
F8.0
sg125
I0
sg32
I0
sg71
I7
sg35
I0
sg38
g538
sg52
(dp582
g146
I0
sg147
I0
sg148
I0
sg149
I0
ssg136
g577
sg61
g31
sg150
I23
sg62
(dp583
g152
I1
sg153
I1
sg154
g155
ssg68
I0
sg72
I3
sg73
I0
sg74
I0
sg101
g102
sg76
I00
sg123
g573
sg77
F0.0
sg99
I00
sg86
(dp584
g162
I0
sg163
I0
sg164
I0
sg165
I0
ssg88
g552
sg90
I0
sg91
(lp585
g167
aI01
aI00
aI00
asg78
(dp586
g162
I0
sg163
I7
sg164
I0
sg165
I15
ssg95
S'Daethyl (13)'
p587
sg97
I8
sg98
I0
sg105
I23
sg100
I78
sg131
g576
sg106
(dp588
g171
I0
sg172
I0
sg173
I0
sg174
I0
sg175
I0
sg176
I0
sg177
I0
sg178
I0
sg179
I0
sg180
I0
sg181
I0
sg182
I0
sg183
I0
sg184
I0
sg185
I0
ssg140
(dp589
sg124
I0
sg30
g31
sg126
I0
sg127
F22.0
sg128
I0
sg129
F11.5
sg130
I0
sg138
I0
sg84
(dp590
g162
I0
sg163
I0
sg164
I0
sg165
I0
ssg188
I0
sg189
(dp591
g191
I13
sg192
I15
sg193
I8
sg194
I13
sg195
I8
sg196
I9
sg197
I6
sg198
I10
sg199
I14
sg200
I9
sg201
I10
sg202
I8
sg203
I9
sg204
I10
sg205
I7
ssg206
I0
sg207
I0
sg208
I0
sg209
I0
sg75
I0
sg210
I0
sg139
I0
sg94
I0
sg211
I0
sg212
S'HE'
p592
sbsg214
(ijoueur
joueur
p593
(dp594
g269
F10.558823529411764
sg27
I0
sg29
F12.0
sg30
g31
sg32
I0
sg71
I5
sg35
I0
sg38
g39
(g40
g41
Ntp595
Rp596
(dp597
g45
I4
sg46
S'*'
p598
sg48
S'heros'
p599
sbsg52
(dp600
S'SR'
p601
I0
sS'ST'
p602
I0
sS'CR'
p603
I0
sS'CT'
p604
I0
ssg136
(dp605
g601
I0
sg602
I0
sg603
I0
sg604
I0
ssg281
I0
sg150
I23
sg62
(dp606
g152
I1
sg153
I1
sg154
g155
ssg68
I0
sg72
I1
sg73
I0
sg74
I0
sg101
g229
sg76
I00
sg123
g39
(g40
g41
Ntp607
Rp608
(dp609
g45
I4
sg46
g598
sg48
g599
sbsg77
F19.0
sg99
I00
sg86
(dp610
g346
I0
sg347
I0
sg348
I0
sg349
I0
ssg88
(dp611
g601
I0
sg602
I15
sg603
I0
sg604
I27
ssg90
I0
sg91
(lp612
g167
aI01
aI00
aI00
asg78
(dp613
g346
I0
sg347
I7
sg348
I0
sg349
I13
ssg95
S'Daethyl (12)'
p614
sg97
I8
sg98
I0
sg105
I23
sg100
I78
sg131
(g354
S'DL'
p615
g31
g31
tp616
sg106
(dp617
S'A'
p618
I13
sS'ME'
p619
I14
sS'RP2'
p620
I8
sS'E'
p621
I12
sS'TO'
p622
I13
sS'RP1'
p623
I9
sS'JP'
p624
I7
sS'RP_tot'
p625
I10
sS'P'
p626
I8
sS'PA'
p627
I9
sS'M'
p628
I10
sS'R'
p629
I8
sS'TB'
p630
I10
sS'PL'
p631
I10
sS'TA'
p632
I7
ssg140
(dp633
g374
(ijoueur
joueur
p634
(dp635
g27
I0
sg32
I0
sg35
I0
sg38
g39
(g40
g41
Ntp636
Rp637
(dp638
g45
I4
sg46
S'*'
p639
sg48
S'heros'
p640
sbsg52
(dp641
S'SR'
p642
I0
sS'ST'
p643
I0
sS'CR'
p644
I0
sS'CT'
p645
I0
ssg136
(dp646
g642
I0
sg643
I0
sg644
I0
sg645
I0
ssg281
I0
sg68
I0
sg99
I01
sg72
I0
sg73
I0
sg74
I0
sg131
(S'dummy'
p647
S'DL'
p648
g31
g31
tp649
sg76
I01
sg123
g39
(g40
g41
Ntp650
Rp651
(dp652
g45
I4
sg46
g639
sg48
g640
sbsg78
(dp653
g642
I0
sg643
I8
sg644
I0
sg645
I14
ssg84
(dp654
g642
I0
sg643
I0
sg644
I0
sg645
I0
ssg86
(dp655
g642
I0
sg643
I0
sg644
I0
sg645
I0
ssg88
(dp656
g642
I0
sg643
I8
sg644
I0
sg645
I14
ssg90
I0
sg94
I0
sg95
S'Daethyl'
p657
sg97
I8
sg98
I0
sg105
I23
sg100
I78
sg101
S'HTH'
p658
sg106
(dp659
S'A'
p660
I13
sS'ME'
p661
I11
sS'RP2'
p662
I8
sS'E'
p663
I12
sS'TO'
p664
I13
sS'RP1'
p665
I8
sS'JP'
p666
I8
sS'RP_tot'
p667
I9
sS'P'
p668
I7
sS'PA'
p669
I9
sS'M'
p670
I9
sS'R'
p671
I8
sS'TB'
p672
I9
sS'PL'
p673
I10
sS'TA'
p674
I7
ssg124
I0
sg125
I0
sg126
I0
sg128
I0
sg129
F10.558823529411764
sg130
I0
sg139
I0
sg188
I1
sg418
(dp675
S'A'
p676
I13
sS'ME'
p677
I11
sS'RP2'
p678
I8
sS'E'
p679
I12
sS'TO'
p680
I13
sS'RP1'
p681
I8
sS'JP'
p682
I8
sS'RP_tot'
p683
I9
sS'P'
p684
I7
sS'PA'
p685
I9
sS'M'
p686
I9
sS'R'
p687
I8
sS'TB'
p688
I9
sS'PL'
p689
I10
sS'TA'
p690
I7
ssg189
g659
sg206
I0
sg61
g31
sg207
I0
sg208
I0
sg209
I0
sg150
I7
sg210
I0
sg211
I1
sg212
S'HE'
p691
sbssg124
I13
sg125
I0
sg126
I0
sg127
F20.0
sg128
I0
sg129
F11.058823529411764
sg130
I0
sg138
I0
sg84
(dp692
g346
I0
sg347
I0
sg348
I0
sg349
I0
ssg188
I1
sg418
(dp693
S'A'
p694
I13
sS'ME'
p695
I11
sS'RP2'
p696
I8
sS'E'
p697
I12
sS'P'
p698
I7
sS'RP1'
p699
I8
sS'JP'
p700
I8
sS'RP_tot'
p701
I9
sS'TO'
p702
I13
sS'PA'
p703
I9
sS'M'
p704
I9
sS'R'
p705
I8
sS'TB'
p706
I9
sS'PL'
p707
I10
sS'TA'
p708
I7
ssg189
g617
sg206
I0
sg61
g31
sg207
I0
sg208
I0
sg209
I0
sg75
I0
sg210
I1
sg139
I0
sg94
I0
sg211
I0
sg212
S'HE'
p709
sbsg454
(ijoueur
joueur
p710
(dp711
g27
I0
sg29
F0.0
sg32
I0
sg71
I4
sg35
I0
sg38
g39
(g40
g41
Ntp712
Rp713
(dp714
g45
I4
sg46
S'*'
p715
sg48
S'heros'
p716
sbsg52
(dp717
S'SR'
p718
I0
sS'ST'
p719
I0
sS'CR'
p720
I0
sS'CT'
p721
I0
ssg136
(dp722
g718
I0
sg719
I0
sg720
I0
sg721
I0
ssg281
I0
sg150
I7
sg62
(dp723
g152
I1
sg153
I1
sg154
g155
ssg68
I0
sg72
I0
sg73
I0
sg74
I0
sg101
S'HTH'
p724
sg76
I01
sg123
g39
(g40
g41
Ntp725
Rp726
(dp727
g45
I4
sg46
g715
sg48
g716
sbsg77
F22.0
sg99
I01
sg86
(dp728
g718
I0
sg719
I0
sg720
I0
sg721
I0
ssg88
(dp729
g718
I0
sg719
I8
sg720
I0
sg721
I14
ssg90
I0
sg91
(lp730
g167
aI01
aI00
aI00
asg94
I0
sg95
S'Daethyl (11)'
p731
sg97
I8
sg98
I0
sg105
I23
sg100
I78
sg131
(S'dummy'
p732
S'DL'
p733
g31
g31
tp734
sg78
(dp735
g718
I0
sg719
I8
sg720
I0
sg721
I14
ssg106
(dp736
S'A'
p737
I13
sS'ME'
p738
I11
sS'RP2'
p739
I8
sS'E'
p740
I12
sS'TO'
p741
I13
sS'RP1'
p742
I8
sS'JP'
p743
I8
sS'RP_tot'
p744
I9
sS'P'
p745
I7
sS'PA'
p746
I9
sS'M'
p747
I9
sS'R'
p748
I8
sS'TB'
p749
I9
sS'PL'
p750
I10
sS'TA'
p751
I7
ssg124
I0
sg125
I0
sg126
I0
sg127
F22.0
sg128
I0
sg129
F10.558823529411764
sg130
I0
sg138
I0
sg84
(dp752
g718
I0
sg719
I0
sg720
I0
sg721
I0
ssg188
I1
sg418
(dp753
S'A'
p754
I13
sS'ME'
p755
I11
sS'RP2'
p756
I8
sS'E'
p757
I12
sS'TO'
p758
I13
sS'RP1'
p759
I8
sS'JP'
p760
I8
sS'RP_tot'
p761
I9
sS'P'
p762
I7
sS'PA'
p763
I9
sS'M'
p764
I9
sS'R'
p765
I8
sS'TB'
p766
I9
sS'PL'
p767
I10
sS'TA'
p768
I7
ssg189
g736
sg206
I0
sg61
g31
sg207
I0
sg208
I0
sg209
I0
sg75
I0
sg210
I0
sg139
I0
sg211
I1
sg212
S'HE'
p769
sbssg188
I2
sg418
(dp770
S'A'
p771
I13
sS'ME'
p772
I11
sS'RP2'
p773
I8
sS'E'
p774
I12
sS'P'
p775
I7
sS'RP1'
p776
I8
sS'JP'
p777
I8
sS'RP_tot'
p778
I9
sS'TO'
p779
I13
sS'PA'
p780
I9
sS'M'
p781
I9
sS'R'
p782
I8
sS'TB'
p783
I9
sS'PL'
p784
I10
sS'TA'
p785
I7
ssg206
I0
sg264
(dp786
sg207
I0
sg61
g31
sg208
I0
sg209
I0
sg150
I23
sg210
I4
sg211
I0
sg212
g592
sbsS'B4'
p787
(ijoueur
joueur
p788
(dp789
g269
F10.971428571428572
sg27
I0
sg28
F10.8
sg29
F11.0
sg30
g31
sg32
I21
sg33
F138.32892516544885
sg35
I0
sg37
I0
sg38
g39
(g40
g41
Ntp790
Rp791
(dp792
g45
I6
sg46
S'***'
p793
sg48
S'personnage'
p794
sbsg50
(dp795
sg52
(dp796
g277
I0
sg278
I0
sg279
I0
sg280
I0
ssg58
F11.0
sg59
I0
sg60
I10
sg281
I0
sg62
(dp797
g64
I4
sg65
I4
sg66
g67
ssg68
I0
sg69
F138.32892516544885
sg70
I00
sg71
I5
sg72
I0
sg73
I0
sg74
I0
sg75
I1
sg76
I00
sg77
F13.0
sg78
(dp798
g80
I0
sg81
I0
sg82
I0
sg83
I0
ssg84
(dp799
g80
I0
sg81
I0
sg82
I0
sg83
I0
ssg86
(dp800
g80
I0
sg81
I0
sg82
I0
sg83
I0
ssg88
(dp801
g277
I0
sg278
I0
sg279
I0
sg280
I40
ssg90
I230
sg91
(lp802
g93
aI01
aI00
aI00
asg94
I0
sg95
S'Naestra'
p803
sg97
I8
sg98
I113
sg99
I00
sg100
I828
sg101
g102
sg103
I00
sg105
I17
sg106
(dp804
g291
I11
sg292
I3
sg293
I10
sg294
I11
sg295
I11
sg296
I8
sg297
I12
sg298
I11
sg299
I4
sg300
I12
sg301
I9
sg302
I9
sg303
I13
sg304
I10
sg305
I5
ssg189
(dp805
g291
I11
sg292
I3
sg293
I10
sg294
I11
sg299
I4
sg296
I8
sg297
I12
sg298
I11
sg295
I11
sg300
I12
sg301
I9
sg302
I9
sg303
I13
sg304
I10
sg305
I5
ssg123
g39
(g40
g41
Ntp806
Rp807
(dp808
g45
I6
sg46
S'***'
p809
sg48
g794
sbsg124
I0
sg125
I1
sg126
I1
sg127
I0
sg128
I0
sg129
F11.057142857142857
sg130
I3
sg131
(g307
S'DO'
p810
g31
g31
tp811
sg136
(dp812
g277
I0
sg278
I0
sg279
I0
sg280
I0
ssg138
I0
sg139
I0
sg140
(dp813
S's13'
p814
(ijoueur
joueur
p815
(dp816
g27
I0
sg29
F11.0
sg125
I0
sg32
I0
sg71
I5
sg35
I0
sg38
g791
sg52
(dp817
g146
I0
sg147
I0
sg148
I0
sg149
I0
ssg136
g812
sg61
S'MRB 10'
p818
sg150
I38
sg62
(dp819
g152
I1
sg153
I1
sg154
g155
ssg68
I0
sg72
I1
sg73
I1
sg74
I16
sg101
g102
sg76
I00
sg123
g807
sg77
F0.0
sg99
I00
sg86
(dp820
g162
I0
sg163
I0
sg164
I0
sg165
I0
ssg88
g801
sg90
I0
sg91
(lp821
g167
aI01
aI00
aI00
asg78
(dp822
g162
I0
sg163
I0
sg164
I0
sg165
I13
ssg95
S'Naestra (13)'
p823
sg97
I8
sg98
I0
sg105
I17
sg100
I828
sg131
g811
sg106
(dp824
g171
I0
sg172
I0
sg173
I0
sg174
I0
sg175
I0
sg176
I0
sg177
I0
sg178
I0
sg179
I0
sg180
I0
sg181
I0
sg182
I0
sg183
I0
sg184
I0
sg185
I0
ssg140
(dp825
sg124
I0
sg30
g31
sg126
I0
sg127
F13.0
sg128
I0
sg129
F11.0
sg130
I0
sg138
I0
sg84
(dp826
g162
I0
sg163
I0
sg164
I0
sg165
I0
ssg188
I0
sg189
(dp827
g191
I11
sg192
I3
sg193
I10
sg194
I11
sg195
I11
sg196
I8
sg197
I12
sg198
I11
sg199
I4
sg200
I12
sg201
I9
sg202
I9
sg203
I12
sg204
I10
sg205
I5
ssg206
I0
sg207
I0
sg208
I4
sg209
I0
sg75
I0
sg210
I0
sg139
I0
sg94
I45
sg211
I0
sg212
S'ES'
p828
sbsg214
(ijoueur
joueur
p829
(dp830
g269
F10.971428571428572
sg27
I0
sg29
F7.0
sg30
g31
sg32
I17
sg71
I4
sg35
I0
sg38
g39
(g40
g41
Ntp831
Rp832
(dp833
g45
I6
sg46
S'***'
p834
sg48
S'personnage'
p835
sbsg52
(dp836
g334
I0
sg335
I0
sg336
I0
sg337
I0
ssg136
(dp837
g334
I0
sg335
I0
sg336
I0
sg337
I0
ssg281
I0
sg150
I38
sg62
(dp838
g152
I1
sg153
I1
sg154
g155
ssg68
I1
sg72
I1
sg73
I0
sg74
I27
sg101
g229
sg76
I00
sg123
g39
(g40
g41
Ntp839
Rp840
(dp841
g45
I6
sg46
S'***'
p842
sg48
g835
sbsg77
F2.5
sg99
I00
sg86
(dp843
g346
I0
sg347
I0
sg348
I0
sg349
I0
ssg88
(dp844
g334
I0
sg335
I0
sg336
I0
sg337
I27
ssg90
I185
sg91
(lp845
g167
aI01
aI00
aI00
asg78
(dp846
g346
I0
sg347
I0
sg348
I0
sg349
I13
ssg95
S'Naestra (12)'
p847
sg97
I8
sg98
I97
sg105
I17
sg100
I828
sg131
(g354
S'DO'
p848
g31
g31
tp849
sg106
(dp850
g358
I11
sg359
I3
sg360
I10
sg361
I11
sg362
I4
sg363
I8
sg364
I11
sg365
I11
sg366
I11
sg367
I12
sg368
I9
sg369
I9
sg370
I11
sg371
I10
sg372
I5
ssg140
(dp851
g374
(ijoueur
joueur
p852
(dp853
g27
I0
sg32
I13
sg35
I0
sg38
g39
(g40
g41
Ntp854
Rp855
(dp856
g45
I6
sg46
S'***'
p857
sg48
S'personnage'
p858
sbsg52
(dp859
S'SR'
p860
I0
sS'ST'
p861
I0
sS'CR'
p862
I0
sS'CT'
p863
I0
ssg136
(dp864
g860
I0
sg861
I0
sg862
I0
sg863
I0
ssg281
I0
sg68
I0
sg99
I00
sg72
I0
sg73
I2
sg74
I8
sg131
(S'dummy'
p865
S'DO'
p866
g31
g31
tp867
sg76
I00
sg123
g39
(g40
g41
Ntp868
Rp869
(dp870
g45
I6
sg46
S'***'
p871
sg48
g858
sbsg78
(dp872
g860
I0
sg861
I0
sg862
I0
sg863
I14
ssg84
(dp873
g860
I0
sg861
I0
sg862
I0
sg863
I0
ssg86
(dp874
g860
I0
sg861
I0
sg862
I0
sg863
I0
ssg88
(dp875
g860
I0
sg861
I0
sg862
I0
sg863
I14
ssg90
I143
sg94
I48
sg95
S'Naestra'
p876
sg97
I8
sg98
I70
sg105
I17
sg100
I828
sg101
S'HTH'
p877
sg106
(dp878
S'A'
p879
I12
sS'ME'
p880
I3
sS'RP2'
p881
I10
sS'E'
p882
I11
sS'TO'
p883
I4
sS'RP1'
p884
I8
sS'JP'
p885
I11
sS'RP_tot'
p886
I11
sS'P'
p887
I11
sS'PA'
p888
I12
sS'M'
p889
I10
sS'R'
p890
I9
sS'TB'
p891
I11
sS'PL'
p892
I10
sS'TA'
p893
I5
ssg124
I0
sg125
I0
sg126
I0
sg128
I0
sg129
F10.971428571428572
sg130
I2
sg139
I0
sg188
I0
sg418
(dp894
S'A'
p895
I12
sS'ME'
p896
I3
sS'RP2'
p897
I10
sS'E'
p898
I11
sS'TO'
p899
I4
sS'RP1'
p900
I8
sS'JP'
p901
I11
sS'RP_tot'
p902
I11
sS'P'
p903
I11
sS'PA'
p904
I12
sS'M'
p905
I10
sS'R'
p906
I9
sS'TB'
p907
I11
sS'PL'
p908
I10
sS'TA'
p909
I5
ssg189
g878
sg206
I0
sg61
S'MRB 10'
p910
sg207
I0
sg208
I6
sg209
I0
sg150
I38
sg210
I4
sg211
I0
sg212
S'ES'
p911
sbssg124
I0
sg125
I1
sg126
I0
sg127
F13.0
sg128
I0
sg129
F10.8
sg130
I2
sg138
I0
sg84
(dp912
g346
I0
sg347
I0
sg348
I0
sg349
I0
ssg188
I2
sg418
(dp913
g438
I12
sg439
I3
sg440
I10
sg441
I11
sg442
I11
sg443
I8
sg444
I11
sg445
I11
sg446
I4
sg447
I12
sg448
I10
sg449
I9
sg450
I11
sg451
I10
sg452
I5
ssg189
g850
sg206
I0
sg61
S'MRB 10'
p914
sg207
I1
sg208
I4
sg209
I1
sg75
I0
sg210
I5
sg139
I0
sg94
I42
sg211
I2
sg212
S'ES'
p915
sbsg454
(ijoueur
joueur
p916
(dp917
g27
I0
sg29
F1.0
sg32
I13
sg71
I3
sg35
I0
sg38
g39
(g40
g41
Ntp918
Rp919
(dp920
g45
I6
sg46
S'***'
p921
sg48
S'personnage'
p922
sbsg52
(dp923
S'SR'
p924
I0
sS'ST'
p925
I0
sS'CR'
p926
I0
sS'CT'
p927
I0
ssg136
(dp928
g924
I0
sg925
I0
sg926
I0
sg927
I0
ssg281
I0
sg150
I38
sg62
(dp929
g152
I1
sg153
I1
sg154
g155
ssg68
I0
sg72
I0
sg73
I2
sg74
I8
sg101
S'HTH'
p930
sg76
I00
sg123
g39
(g40
g41
Ntp931
Rp932
(dp933
g45
I6
sg46
S'***'
p934
sg48
g922
sbsg77
F14.0
sg99
I00
sg86
(dp935
g924
I0
sg925
I0
sg926
I0
sg927
I0
ssg88
(dp936
g924
I0
sg925
I0
sg926
I0
sg927
I14
ssg90
I143
sg91
(lp937
g167
aI01
aI00
aI00
asg94
I48
sg95
S'Naestra (11)'
p938
sg97
I8
sg98
I70
sg105
I17
sg100
I828
sg131
(S'dummy'
p939
S'DO'
p940
g31
g31
tp941
sg78
(dp942
g924
I0
sg925
I0
sg926
I0
sg927
I14
ssg106
(dp943
S'A'
p944
I12
sS'ME'
p945
I3
sS'RP2'
p946
I10
sS'E'
p947
I11
sS'TO'
p948
I4
sS'RP1'
p949
I8
sS'JP'
p950
I11
sS'RP_tot'
p951
I11
sS'P'
p952
I11
sS'PA'
p953
I12
sS'M'
p954
I10
sS'R'
p955
I9
sS'TB'
p956
I11
sS'PL'
p957
I10
sS'TA'
p958
I5
ssg124
I0
sg125
I0
sg126
I0
sg127
F14.0
sg128
I0
sg129
F10.971428571428572
sg130
I2
sg138
I0
sg84
(dp959
g924
I0
sg925
I0
sg926
I0
sg927
I0
ssg188
I0
sg418
(dp960
S'A'
p961
I12
sS'ME'
p962
I3
sS'RP2'
p963
I10
sS'E'
p964
I11
sS'TO'
p965
I4
sS'RP1'
p966
I8
sS'JP'
p967
I11
sS'RP_tot'
p968
I11
sS'P'
p969
I11
sS'PA'
p970
I12
sS'M'
p971
I10
sS'R'
p972
I9
sS'TB'
p973
I11
sS'PL'
p974
I10
sS'TA'
p975
I5
ssg189
g943
sg206
I0
sg61
S'MRB 10'
p976
sg207
I0
sg208
I6
sg209
I0
sg75
I0
sg210
I4
sg139
I0
sg211
I0
sg212
S'ES'
p977
sbssg188
I2
sg418
(dp978
g518
I12
sg519
I3
sg520
I10
sg521
I11
sg522
I11
sg523
I8
sg524
I11
sg525
I11
sg526
I4
sg527
I12
sg528
I10
sg529
I9
sg530
I11
sg531
I10
sg532
I5
ssg206
I0
sg264
(dp979
sg207
I1
sg61
g818
sg208
I0
sg209
I0
sg150
I38
sg210
I6
sg211
I0
sg212
g828
sbsS'RJC'
p980
g788
sS'B1'
p981
g788
sS'B2'
p982
g788
sS'B3'
p983
g788
sS'SA_pcp2'
p984
(ijoueur
joueur
p985
(dp986
g269
F10.441176470588236
sg27
I0
sg28
F11.088235294117647
sg29
F15.5
sg30
g31
sg32
I0
sg33
F220.12630064389077
sg35
I0
sg37
I0
sg38
g39
(g40
g41
Ntp987
Rp988
(dp989
g45
I5
sg46
S'**'
p990
sg48
S'seigneur'
p991
sbsg50
(dp992
sg52
(dp993
S'SR'
p994
I0
sS'CT'
p995
I0
sS'CR'
p996
I0
sS'ST'
p997
I0
ssg58
F11.088235294117647
sg59
I0
sg60
I10
sg281
I0
sg62
(dp998
g64
I3
sg65
I2
sg66
g283
ssg68
I0
sg69
F220.12630064389077
sg70
I00
sg71
I6
sg72
I0
sg73
I0
sg74
I0
sg75
I3
sg76
I00
sg77
F21.0
sg78
(dp999
g80
I0
sg81
I0
sg82
I0
sg83
I0
ssg84
(dp1000
g80
I0
sg81
I0
sg82
I0
sg83
I0
ssg86
(dp1001
g80
I0
sg81
I0
sg82
I0
sg83
I0
ssg88
(dp1002
g994
I0
sg995
I33
sg996
I9
sg997
I19
ssg90
I0
sg91
(lp1003
g93
aI01
aI00
aI00
asg94
I0
sg95
S'Tretab'
p1004
sg97
I8
sg98
I0
sg99
I00
sg100
I150
sg101
g102
sg103
I00
sg105
I26
sg106
(dp1005
S'A'
p1006
I11
sS'ME'
p1007
I10
sS'RP2'
p1008
I9
sS'E'
p1009
I13
sS'TO'
p1010
I16
sS'RP1'
p1011
I11
sS'JP'
p1012
I4
sS'RP_tot'
p1013
I12
sS'P'
p1014
I5
sS'PA'
p1015
I11
sS'M'
p1016
I8
sS'R'
p1017
I10
sS'TB'
p1018
I4
sS'PL'
p1019
I9
sS'TA'
p1020
I4
ssg189
(dp1021
g1006
I11
sg1007
I10
sg1008
I9
sg1009
I13
sg1014
I5
sg1011
I11
sg1012
I4
sg1013
I12
sg1010
I16
sg1015
I11
sg1016
I8
sg1017
I10
sg1018
I4
sg1019
I9
sg1020
I4
ssg123
g988
sg124
I0
sg125
I0
sg126
I1
sg127
I0
sg128
I0
sg129
F11.735294117647058
sg130
I0
sg131
(S'dummy'
p1022
S'DL'
p1023
g31
g31
tp1024
sg136
(dp1025
g994
I0
sg995
I0
sg996
I0
sg997
I0
ssg138
I4
sg139
I0
sg140
(dp1026
S's13'
p1027
(ijoueur
joueur
p1028
(dp1029
g27
I0
sg29
F15.5
sg125
I0
sg32
I0
sg71
I6
sg35
I0
sg38
g988
sg52
(dp1030
g146
I0
sg147
I0
sg148
I0
sg149
I0
ssg136
g1025
sg61
S'ED 12'
p1031
sg150
I20
sg62
(dp1032
g152
I1
sg153
I1
sg154
g155
ssg68
I0
sg72
I6
sg73
I0
sg74
I0
sg101
g102
sg76
I00
sg123
g988
sg77
F0.0
sg99
I00
sg86
(dp1033
g162
I0
sg163
I0
sg164
I0
sg165
I0
ssg88
g1002
sg90
I0
sg91
(lp1034
g167
aI01
aI00
aI00
asg78
(dp1035
g162
I0
sg163
I7
sg164
I0
sg165
I14
ssg95
S'Tretab (13)'
p1036
sg97
I8
sg98
I0
sg105
I26
sg100
I150
sg131
g1024
sg106
(dp1037
g171
I0
sg172
I0
sg173
I0
sg174
I0
sg175
I0
sg176
I0
sg177
I0
sg178
I0
sg179
I0
sg180
I0
sg181
I0
sg182
I0
sg183
I0
sg184
I0
sg185
I0
ssg140
(dp1038
sg124
I0
sg30
g31
sg126
I0
sg127
F21.0
sg128
I0
sg129
F11.088235294117647
sg130
I0
sg138
I0
sg84
(dp1039
g162
I0
sg163
I0
sg164
I0
sg165
I0
ssg188
I0
sg189
(dp1040
g191
I11
sg192
I9
sg193
I9
sg194
I13
sg195
I5
sg196
I10
sg197
I4
sg198
I11
sg199
I15
sg200
I11
sg201
I8
sg202
I9
sg203
I4
sg204
I9
sg205
I4
ssg206
I0
sg207
I0
sg208
I0
sg209
I0
sg75
I0
sg210
I0
sg139
I0
sg94
I0
sg211
I0
sg212
S'B'
p1041
sbsg214
(ijoueur
joueur
p1042
(dp1043
g269
F10.441176470588236
sg27
I0
sg29
F4.5
sg30
g31
sg32
I0
sg71
I5
sg35
I0
sg38
g39
(g40
g41
Ntp1044
Rp1045
(dp1046
g45
I5
sg46
S'**'
p1047
sg48
S'seigneur'
p1048
sbsg52
(dp1049
S'SR'
p1050
I0
sS'CT'
p1051
I0
sS'CR'
p1052
I0
sS'ST'
p1053
I0
ssg136
(dp1054
g1050
I0
sg1051
I0
sg1052
I0
sg1053
I0
ssg281
I0
sg150
I20
sg62
(dp1055
g152
I1
sg153
I1
sg154
g155
ssg68
I0
sg72
I3
sg73
I0
sg74
I0
sg101
g229
sg76
I00
sg123
g1045
sg77
F19.0
sg99
I00
sg86
(dp1056
g346
I0
sg347
I0
sg348
I0
sg349
I0
ssg88
(dp1057
g1050
I0
sg1051
I19
sg1052
I9
sg1053
I12
ssg90
I0
sg91
(lp1058
g167
aI01
aI00
aI00
asg78
(dp1059
g346
I0
sg347
I7
sg348
I0
sg349
I14
ssg95
S'Tretab (12)'
p1060
sg97
I8
sg98
I0
sg105
I26
sg100
I150
sg131
(S'dummy'
p1061
S'DL'
p1062
g31
g31
tp1063
sg106
(dp1064
S'A'
p1065
I11
sS'ME'
p1066
I9
sS'RP2'
p1067
I8
sS'E'
p1068
I13
sS'P'
p1069
I5
sS'RP1'
p1070
I10
sS'JP'
p1071
I4
sS'RP_tot'
p1072
I11
sS'TO'
p1073
I15
sS'PA'
p1074
I11
sS'M'
p1075
I8
sS'R'
p1076
I9
sS'TB'
p1077
I4
sS'PL'
p1078
I9
sS'TA'
p1079
I4
ssg140
(dp1080
g374
(ijoueur
joueur
p1081
(dp1082
g27
I0
sg32
I0
sg35
I0
sg38
g39
(g40
g41
Ntp1083
Rp1084
(dp1085
g45
I5
sg46
S'**'
p1086
sg48
S'seigneur'
p1087
sbsg52
(dp1088
S'SR'
p1089
I0
sS'CT'
p1090
I0
sS'CR'
p1091
I0
sS'ST'
p1092
I0
ssg136
(dp1093
g1089
I0
sg1090
I0
sg1091
I0
sg1092
I0
ssg281
I0
sg68
I0
sg99
I01
sg72
I0
sg73
I0
sg74
I0
sg131
(S'dummy'
p1094
S'DL'
p1095
g31
g31
tp1096
sg76
I01
sg123
g39
(g40
g41
Ntp1097
Rp1098
(dp1099
g45
I4
sg46
S'*'
p1100
sg48
S'heros'
p1101
sbsg78
(dp1102
g1089
I0
sg1090
I5
sg1091
I9
sg1092
I5
ssg84
(dp1103
g1089
I0
sg1090
I0
sg1091
I0
sg1092
I0
ssg86
(dp1104
g1089
I0
sg1090
I0
sg1091
I0
sg1092
I0
ssg88
(dp1105
g1089
I0
sg1090
I5
sg1091
I9
sg1092
I5
ssg90
I0
sg94
I0
sg95
S'Tretab'
p1106
sg97
I8
sg98
I0
sg105
I26
sg100
I60
sg101
S'ED'
p1107
sg106
(dp1108
S'A'
p1109
I10
sS'ME'
p1110
I9
sS'RP2'
p1111
I7
sS'E'
p1112
I12
sS'P'
p1113
I5
sS'RP1'
p1114
I10
sS'JP'
p1115
I4
sS'RP_tot'
p1116
I10
sS'TO'
p1117
I14
sS'PA'
p1118
I10
sS'M'
p1119
I8
sS'R'
p1120
I9
sS'TB'
p1121
I4
sS'PL'
p1122
I8
sS'TA'
p1123
I4
ssg124
I0
sg125
I0
sg126
I0
sg128
I0
sg129
F10.441176470588236
sg130
I0
sg139
I0
sg188
I0
sg418
(dp1124
S'A'
p1125
I10
sS'ME'
p1126
I9
sS'RP2'
p1127
I7
sS'E'
p1128
I12
sS'P'
p1129
I5
sS'RP1'
p1130
I10
sS'JP'
p1131
I4
sS'RP_tot'
p1132
I10
sS'TO'
p1133
I14
sS'PA'
p1134
I10
sS'M'
p1135
I8
sS'R'
p1136
I9
sS'TB'
p1137
I4
sS'PL'
p1138
I8
sS'TA'
p1139
I4
ssg189
g1108
sg206
I0
sg61
g31
sg207
I0
sg208
I0
sg209
I0
sg150
I6
sg210
I0
sg211
I0
sg212
S'B'
p1140
sbssg124
I10
sg125
I0
sg126
I0
sg127
F21.0
sg128
I0
sg129
F11.088235294117647
sg130
I0
sg138
I0
sg84
(dp1141
g346
I0
sg347
I0
sg348
I0
sg349
I0
ssg188
I0
sg418
(dp1142
S'A'
p1143
I10
sS'ME'
p1144
I9
sS'RP2'
p1145
I7
sS'E'
p1146
I12
sS'TO'
p1147
I14
sS'RP1'
p1148
I10
sS'JP'
p1149
I4
sS'RP_tot'
p1150
I10
sS'P'
p1151
I5
sS'PA'
p1152
I10
sS'M'
p1153
I8
sS'R'
p1154
I9
sS'TB'
p1155
I4
sS'PL'
p1156
I8
sS'TA'
p1157
I4
ssg189
g1064
sg206
I0
sg61
S'ED 12'
p1158
sg207
I0
sg208
I0
sg209
I0
sg75
I0
sg210
I3
sg139
I0
sg94
I0
sg211
I0
sg212
S'B'
p1159
sbsg454
(ijoueur
joueur
p1160
(dp1161
g27
I0
sg29
F1.5
sg32
I0
sg71
I3
sg35
I0
sg38
g39
(g40
g41
Ntp1162
Rp1163
(dp1164
g45
I5
sg46
S'**'
p1165
sg48
S'seigneur'
p1166
sbsg52
(dp1167
S'SR'
p1168
I0
sS'CT'
p1169
I0
sS'CR'
p1170
I0
sS'ST'
p1171
I0
ssg136
(dp1172
g1168
I0
sg1169
I0
sg1170
I0
sg1171
I0
ssg281
I0
sg150
I6
sg62
(dp1173
g152
I1
sg153
I1
sg154
g155
ssg68
I0
sg72
I0
sg73
I0
sg74
I0
sg101
S'ED'
p1174
sg76
I01
sg123
g39
(g40
g41
Ntp1175
Rp1176
(dp1177
g45
I4
sg46
S'*'
p1178
sg48
S'heros'
p1179
sbsg77
F14.5
sg99
I01
sg86
(dp1180
g1168
I0
sg1169
I0
sg1170
I0
sg1171
I0
ssg88
(dp1181
g1168
I0
sg1169
I5
sg1170
I9
sg1171
I5
ssg90
I0
sg91
(lp1182
g167
aI01
aI00
aI00
asg94
I0
sg95
S'Tretab (11)'
p1183
sg97
I8
sg98
I0
sg105
I26
sg100
I60
sg131
(S'dummy'
p1184
S'DL'
p1185
g31
g31
tp1186
sg78
(dp1187
g1168
I0
sg1169
I5
sg1170
I9
sg1171
I5
ssg106
(dp1188
S'A'
p1189
I10
sS'ME'
p1190
I9
sS'RP2'
p1191
I7
sS'E'
p1192
I12
sS'P'
p1193
I5
sS'RP1'
p1194
I10
sS'JP'
p1195
I4
sS'RP_tot'
p1196
I10
sS'TO'
p1197
I14
sS'PA'
p1198
I10
sS'M'
p1199
I8
sS'R'
p1200
I9
sS'TB'
p1201
I4
sS'PL'
p1202
I8
sS'TA'
p1203
I4
ssg124
I0
sg125
I0
sg126
I0
sg127
F14.5
sg128
I0
sg129
F10.441176470588236
sg130
I0
sg138
I0
sg84
(dp1204
g1168
I0
sg1169
I0
sg1170
I0
sg1171
I0
ssg188
I0
sg418
(dp1205
S'A'
p1206
I10
sS'ME'
p1207
I9
sS'RP2'
p1208
I7
sS'E'
p1209
I12
sS'P'
p1210
I5
sS'RP1'
p1211
I10
sS'JP'
p1212
I4
sS'RP_tot'
p1213
I10
sS'TO'
p1214
I14
sS'PA'
p1215
I10
sS'M'
p1216
I8
sS'R'
p1217
I9
sS'TB'
p1218
I4
sS'PL'
p1219
I8
sS'TA'
p1220
I4
ssg189
g1188
sg206
I0
sg61
g31
sg207
I0
sg208
I0
sg209
I0
sg75
I0
sg210
I0
sg139
I0
sg211
I0
sg212
S'B'
p1221
sbssg188
I0
sg418
(dp1222
S'A'
p1223
I10
sS'ME'
p1224
I9
sS'RP2'
p1225
I7
sS'E'
p1226
I12
sS'TO'
p1227
I14
sS'RP1'
p1228
I10
sS'JP'
p1229
I4
sS'RP_tot'
p1230
I10
sS'P'
p1231
I5
sS'PA'
p1232
I10
sS'M'
p1233
I8
sS'R'
p1234
I9
sS'TB'
p1235
I4
sS'PL'
p1236
I8
sS'TA'
p1237
I4
ssg206
I0
sg264
(dp1238
sg207
I0
sg61
g1031
sg208
I0
sg209
I0
sg150
I20
sg210
I9
sg211
I0
sg212
g1041
sbsS'SA_pcp1'
p1239
g535
sS'drop3'
p1240
(ijoueur
joueur
p1241
(dp1242
g27
I0
sg29
F0.0
sg125
I0
sg32
I0
sg33
F21.509437837704148
sg34
g31
sg35
I0
sg36
g31
sg37
I0
sg38
g39
(g40
g41
Ntp1243
Rp1244
(dp1245
g45
I4
sg46
S'*'
p1246
sg48
S'heros'
p1247
sbsg50
(dp1248
sg52
(dp1249
S'SR'
p1250
I0
sS'ST'
p1251
I0
sS'CR'
p1252
I0
sS'CT'
p1253
I0
ssg58
F9.241379310344827
sg59
I0
sg60
I10
sg61
g31
sg62
(dp1254
g64
Nsg65
I14
sg66
g67
ssg68
I0
sg69
F21.509437837704148
sg70
I01
sg71
I1
sg72
I0
sg73
I0
sg74
I0
sg75
I1
sg76
I00
sg77
F1.0
sg78
(dp1255
g80
I0
sg81
I0
sg82
I0
sg83
I0
ssg84
(dp1256
g80
I0
sg81
I0
sg82
I0
sg83
I0
ssg86
(dp1257
g80
I0
sg81
I0
sg82
I0
sg83
I0
ssg88
(dp1258
g1250
I0
sg1251
I0
sg1252
I2
sg1253
I0
ssg90
I0
sg91
(lp1259
g93
aI01
aI00
aI00
asg94
I0
sg95
S'Plasten'
p1260
sg97
I13
sg98
I0
sg99
I00
sg100
I64
sg101
g102
sg103
I00
sg104
g31
sg105
I26
sg106
(dp1261
S'RP1'
p1262
I7
sS'ME'
p1263
I2
sS'RP2'
p1264
I7
sS'E'
p1265
I8
sS'P'
p1266
I9
sS'JP'
p1267
I8
sS'M'
p1268
I10
sS'RP_tot'
p1269
I9
sS'TO'
p1270
I6
sS'PA'
p1271
I8
sS'A'
p1272
I11
sS'R'
p1273
I6
sS'TB'
p1274
I9
sS'PL'
p1275
I8
sS'TA'
p1276
I5
ssg123
g1244
sg124
I0
sg30
g31
sg126
I0
sg127
I0
sg128
I0
sg129
F10.709677419354838
sg130
I0
sg131
(S'dummy'
p1277
S'C2'
p1278
S'DO'
p1279
g31
tp1280
sg136
(dp1281
g1250
I0
sg1251
I0
sg1252
I0
sg1253
I0
ssg138
S'rang'
p1282
sg139
I0
sg140
(dp1283
S's13'
p1284
(ijoueur
joueur
p1285
(dp1286
g27
I0
sg29
F0.0
sg125
I0
sg32
I0
sg71
I2
sg35
I0
sg38
g1244
sg52
(dp1287
g146
I0
sg147
I0
sg148
I0
sg149
I0
ssg136
g1281
sg61
g31
sg150
I1
sg62
(dp1288
g152
I1
sg153
I1
sg154
g155
ssg68
I0
sg72
I0
sg73
I0
sg74
I0
sg101
g102
sg76
I00
sg123
g39
(g40
g41
Ntp1289
Rp1290
(dp1291
g45
I2
sg46
S'<<'
p1292
sg48
S'special'
p1293
sbsg77
F1.0
sg99
I00
sg86
(dp1294
g1250
I0
sg1251
I0
sg1252
I0
sg1253
I0
ssg88
g1258
sg90
I0
sg91
(lp1295
g167
aI01
aI00
aI00
asg78
(dp1296
g1250
I0
sg1251
I0
sg1252
I2
sg1253
I0
ssg95
S'Plasten (13)'
p1297
sg97
I13
sg98
I0
sg105
I26
sg100
I19
sg131
(S'dummy'
p1298
g1278
g31
g31
tp1299
sg106
(dp1300
g171
I0
sg172
I0
sg173
I0
sg174
I0
sg175
I0
sg176
I0
sg177
I0
sg178
I0
sg179
I0
sg180
I0
sg181
I0
sg182
I0
sg183
I0
sg184
I0
sg185
I0
ssg140
(dp1301
sg124
I0
sg30
g31
sg126
I0
sg127
F1.0
sg128
I0
sg129
F9.241379310344827
sg130
I0
sg138
I0
sg84
(dp1302
g1250
I0
sg1251
I0
sg1252
I0
sg1253
I0
ssg188
I0
sg189
(dp1303
g191
I11
sg192
I3
sg193
I7
sg194
I9
sg195
I9
sg196
I8
sg197
I8
sg198
I9
sg199
I6
sg200
I8
sg201
I11
sg202
I8
sg203
I9
sg204
I9
sg205
I6
ssg206
I0
sg207
I0
sg208
I0
sg209
I0
sg75
I0
sg210
I0
sg139
I0
sg94
I0
sg211
I0
sg212
S'HE'
p1304
sbssg188
I0
sg189
(dp1305
g1262
I9
sg1263
I4
sg1264
I9
sg1265
I10
sg1270
I8
sg1268
I12
sg1267
I10
sg1269
I11
sg1266
I11
sg1271
I10
sg1272
I13
sg1273
I8
sg1274
I11
sg1275
I10
sg1276
I7
ssg206
I0
sg207
I0
sg208
I0
sg209
I0
sg150
I5
sg210
I0
sg211
I0
sg212
g1304
sbsS'SA_remp1'
p1306
(ijoueur
joueur
p1307
(dp1308
g269
F10.0
sg27
I2
sg28
F11.710526315789474
sg29
F15.0
sg30
g31
sg32
I0
sg33
I0
sg35
I0
sg37
I0
sg38
g39
(g40
g41
Ntp1309
Rp1310
(dp1311
g45
I5
sg46
S'**'
p1312
sg48
S'seigneur'
p1313
sbsg50
(dp1314
sg52
(dp1315
S'SR'
p1316
I0
sS'ST'
p1317
I0
sS'CR'
p1318
I0
sS'CT'
p1319
I0
ssg58
F12.0
sg59
I0
sg60
I10
sg281
I0
sg62
(dp1320
S'couleur'
p1321
I2
sS'valeur'
p1322
I11
sS'r_n'
p1323
S'r'
p1324
ssg68
I0
sg69
I0
sg70
I00
sg71
I6
sg72
I0
sg73
I0
sg74
I0
sg75
I3
sg76
I00
sg77
F21.0
sg78
(dp1325
S'SR'
p1326
I0
sS'ST'
p1327
I0
sS'CR'
p1328
I0
sS'CT'
p1329
I0
ssg84
(dp1330
g1326
I0
sg1327
I0
sg1328
I0
sg1329
I0
ssg86
(dp1331
g1326
I0
sg1327
I0
sg1328
I0
sg1329
I0
ssg88
(dp1332
g1316
I0
sg1317
I18
sg1318
I2
sg1319
I37
ssg90
I0
sg91
(lp1333
S'dummy'
p1334
aI01
aI00
aI00
asg94
I0
sg95
S'Le Catel'
p1335
sg97
I8
sg98
I0
sg99
I00
sg100
I116
sg101
S'HTH'
p1336
sg103
I00
sg105
I24
sg106
(dp1337
S'A'
p1338
I13
sS'ME'
p1339
I12
sS'RP2'
p1340
I10
sS'E'
p1341
I11
sS'P'
p1342
I4
sS'RP1'
p1343
I9
sS'JP'
p1344
I5
sS'RP_tot'
p1345
I11
sS'TO'
p1346
I12
sS'PA'
p1347
I10
sS'M'
p1348
I8
sS'R'
p1349
I13
sS'TB'
p1350
I5
sS'PL'
p1351
I13
sS'TA'
p1352
I5
ssg189
(dp1353
g1338
I13
sg1339
I12
sg1340
I10
sg1341
I11
sg1346
I12
sg1343
I9
sg1344
I5
sg1345
I11
sg1342
I4
sg1347
I10
sg1348
I8
sg1349
I13
sg1350
I5
sg1351
I13
sg1352
I5
ssg123
g1310
sg124
I0
sg125
I0
sg126
I0
sg127
I0
sg128
I0
sg129
F12.0
sg130
I0
sg131
(S'dummy'
p1354
S'TL'
p1355
g31
g31
tp1356
sg136
(dp1357
g1316
I0
sg1317
I0
sg1318
I0
sg1319
I0
ssg138
I0
sg139
I0
sg140
(dp1358
S's13'
p1359
(ijoueur
joueur
p1360
(dp1361
g27
I0
sg29
F15.0
sg125
I0
sg32
I0
sg71
I6
sg35
I0
sg38
g1310
sg52
(dp1362
S'SR'
p1363
I0
sS'ST'
p1364
I0
sS'CR'
p1365
I0
sS'CT'
p1366
I0
ssg136
g1357
sg61
g31
sg150
I11
sg62
(dp1367
S'couleur'
p1368
I1
sS'valeur'
p1369
I1
sS'r_n'
p1370
S'n'
p1371
ssg68
I0
sg72
I1
sg73
I0
sg74
I0
sg101
g1336
sg76
I00
sg123
g1310
sg77
F0.0
sg99
I00
sg86
(dp1372
S'SR'
p1373
I0
sS'ST'
p1374
I0
sS'CR'
p1375
I0
sS'CT'
p1376
I0
ssg88
g1332
sg90
I0
sg91
(lp1377
S'dummy'
p1378
aI01
aI00
aI00
asg78
(dp1379
g1373
I0
sg1374
I7
sg1375
I0
sg1376
I14
ssg95
S'Le Catel (13)'
p1380
sg97
I8
sg98
I0
sg105
I24
sg100
I116
sg131
g1356
sg106
(dp1381
S'A'
p1382
I0
sS'ME'
p1383
I0
sS'RP2'
p1384
I0
sS'E'
p1385
I0
sS'TO'
p1386
I0
sS'RP1'
p1387
I0
sS'JP'
p1388
I0
sS'RP_tot'
p1389
I0
sS'P'
p1390
I0
sS'PA'
p1391
I0
sS'M'
p1392
I0
sS'R'
p1393
I0
sS'TB'
p1394
I0
sS'PL'
p1395
I0
sS'TA'
p1396
I0
ssg140
(dp1397
sg124
I0
sg30
g31
sg126
I0
sg127
F21.0
sg128
I0
sg129
F12.0
sg130
I0
sg138
I0
sg84
(dp1398
g1373
I0
sg1374
I0
sg1375
I0
sg1376
I0
ssg188
I0
sg189
(dp1399
S'A'
p1400
I13
sS'ME'
p1401
I12
sS'RP2'
p1402
I10
sS'E'
p1403
I11
sS'P'
p1404
I4
sS'RP1'
p1405
I9
sS'JP'
p1406
I5
sS'RP_tot'
p1407
I11
sS'TO'
p1408
I12
sS'PA'
p1409
I10
sS'M'
p1410
I8
sS'R'
p1411
I13
sS'TB'
p1412
I5
sS'PL'
p1413
I13
sS'TA'
p1414
I5
ssg206
I0
sg207
I0
sg208
I0
sg209
I0
sg75
I0
sg210
I0
sg139
I0
sg94
I0
sg211
I0
sg212
S'B'
p1415
sbsS's12'
p1416
(ijoueur
joueur
p1417
(dp1418
g269
F10.0
sg27
I2
sg29
F4.0
sg30
g31
sg32
I0
sg71
I5
sg35
I0
sg38
g39
(g40
g41
Ntp1419
Rp1420
(dp1421
g45
I5
sg46
S'**'
p1422
sg48
S'seigneur'
p1423
sbsg52
(dp1424
S'SR'
p1425
I0
sS'ST'
p1426
I0
sS'CR'
p1427
I0
sS'CT'
p1428
I0
ssg136
(dp1429
g1425
I0
sg1426
I0
sg1427
I0
sg1428
I0
ssg281
I0
sg150
I11
sg62
(dp1430
g1368
I1
sg1369
I1
sg1370
g1371
ssg68
I0
sg72
I4
sg73
I0
sg74
I0
sg101
S'HTH'
p1431
sg76
I00
sg123
g1420
sg77
F19.0
sg99
I01
sg86
(dp1432
S'SR'
p1433
I0
sS'ST'
p1434
I0
sS'CR'
p1435
I0
sS'CT'
p1436
I0
ssg88
(dp1437
g1425
I0
sg1426
I11
sg1427
I2
sg1428
I23
ssg90
I0
sg91
(lp1438
g1378
aI01
aI00
aI00
asg78
(dp1439
g1433
I0
sg1434
I7
sg1435
I0
sg1436
I12
ssg95
S'Le Catel (12)'
p1440
sg97
I8
sg98
I0
sg105
I24
sg100
I116
sg131
(S'dummy'
p1441
S'TL'
p1442
g31
g31
tp1443
sg106
(dp1444
S'A'
p1445
I13
sS'ME'
p1446
I12
sS'RP2'
p1447
I10
sS'E'
p1448
I11
sS'TO'
p1449
I12
sS'RP1'
p1450
I9
sS'JP'
p1451
I5
sS'RP_tot'
p1452
I12
sS'P'
p1453
I4
sS'PA'
p1454
I10
sS'M'
p1455
I8
sS'R'
p1456
I12
sS'TB'
p1457
I5
sS'PL'
p1458
I12
sS'TA'
p1459
I5
ssg140
(dp1460
S's11'
p1461
(ijoueur
joueur
p1462
(dp1463
g27
I2
sg32
I0
sg35
I0
sg38
g39
(g40
g41
Ntp1464
Rp1465
(dp1466
g45
I5
sg46
S'**'
p1467
sg48
S'seigneur'
p1468
sbsg52
(dp1469
S'SR'
p1470
I0
sS'ST'
p1471
I0
sS'CR'
p1472
I0
sS'CT'
p1473
I0
ssg136
(dp1474
g1470
I0
sg1471
I0
sg1472
I0
sg1473
I0
ssg281
I0
sg68
I0
sg99
I01
sg72
I1
sg73
I0
sg74
I0
sg131
(S'dummy'
p1475
S'TL'
p1476
g31
g31
tp1477
sg76
I00
sg123
g39
(g40
g41
Ntp1478
Rp1479
(dp1480
g45
I4
sg46
S'*'
p1481
sg48
S'heros'
p1482
sbsg78
(dp1483
g1470
I0
sg1471
I4
sg1472
I2
sg1473
I11
ssg84
(dp1484
g1470
I0
sg1471
I0
sg1472
I0
sg1473
I0
ssg86
(dp1485
g1470
I0
sg1471
I0
sg1472
I0
sg1473
I0
ssg88
(dp1486
g1470
I0
sg1471
I4
sg1472
I2
sg1473
I11
ssg90
I0
sg94
I0
sg95
S'Le Catel'
p1487
sg97
I8
sg98
I0
sg105
I24
sg100
I66
sg101
S'HTH'
p1488
sg106
(dp1489
S'A'
p1490
I10
sS'ME'
p1491
I10
sS'RP2'
p1492
I8
sS'E'
p1493
I10
sS'TO'
p1494
I10
sS'RP1'
p1495
I8
sS'JP'
p1496
I5
sS'RP_tot'
p1497
I9
sS'P'
p1498
I4
sS'PA'
p1499
I9
sS'M'
p1500
I8
sS'R'
p1501
I11
sS'TB'
p1502
I5
sS'PL'
p1503
I10
sS'TA'
p1504
I5
ssg124
I0
sg125
I0
sg126
I0
sg128
I0
sg129
F10.0
sg130
I0
sg139
I0
sg188
I0
sg418
(dp1505
S'A'
p1506
I10
sS'ME'
p1507
I10
sS'RP2'
p1508
I8
sS'E'
p1509
I10
sS'TO'
p1510
I10
sS'RP1'
p1511
I8
sS'JP'
p1512
I5
sS'RP_tot'
p1513
I9
sS'P'
p1514
I4
sS'PA'
p1515
I9
sS'M'
p1516
I8
sS'R'
p1517
I11
sS'TB'
p1518
I5
sS'PL'
p1519
I10
sS'TA'
p1520
I5
ssg189
g1489
sg206
I2
sg61
g31
sg207
I0
sg208
I0
sg209
I0
sg150
I6
sg210
I1
sg211
I0
sg212
S'B'
p1521
sbssg124
I8
sg125
I0
sg126
I0
sg127
F19.0
sg128
I0
sg129
F11.710526315789474
sg130
I0
sg138
I0
sg84
(dp1522
g1433
I0
sg1434
I0
sg1435
I0
sg1436
I0
ssg188
I0
sg418
(dp1523
S'A'
p1524
I10
sS'ME'
p1525
I10
sS'RP2'
p1526
I8
sS'E'
p1527
I10
sS'P'
p1528
I4
sS'RP1'
p1529
I8
sS'JP'
p1530
I5
sS'RP_tot'
p1531
I9
sS'TO'
p1532
I10
sS'PA'
p1533
I9
sS'M'
p1534
I8
sS'R'
p1535
I11
sS'TB'
p1536
I5
sS'PL'
p1537
I10
sS'TA'
p1538
I5
ssg189
g1444
sg206
I0
sg61
g31
sg207
I0
sg208
I0
sg209
I0
sg75
I0
sg210
I5
sg139
I0
sg94
I0
sg211
I0
sg212
S'B'
p1539
sbsS's11'
p1540
(ijoueur
joueur
p1541
(dp1542
g27
I2
sg29
F3.0
sg32
I0
sg71
I3
sg35
I0
sg38
g39
(g40
g41
Ntp1543
Rp1544
(dp1545
g45
I5
sg46
S'**'
p1546
sg48
S'seigneur'
p1547
sbsg52
(dp1548
S'SR'
p1549
I0
sS'ST'
p1550
I0
sS'CR'
p1551
I0
sS'CT'
p1552
I0
ssg136
(dp1553
g1549
I0
sg1550
I0
sg1551
I0
sg1552
I0
ssg281
I0
sg150
I6
sg62
(dp1554
g1368
I1
sg1369
I1
sg1370
g1371
ssg68
I0
sg72
I1
sg73
I0
sg74
I0
sg101
S'HTH'
p1555
sg76
I00
sg123
g39
(g40
g41
Ntp1556
Rp1557
(dp1558
g45
I4
sg46
S'*'
p1559
sg48
S'heros'
p1560
sbsg77
F16.0
sg99
I01
sg86
(dp1561
g1549
I0
sg1550
I0
sg1551
I0
sg1552
I0
ssg88
(dp1562
g1549
I0
sg1550
I4
sg1551
I2
sg1552
I11
ssg90
I0
sg91
(lp1563
g1378
aI01
aI00
aI00
asg94
I0
sg95
S'Le Catel (11)'
p1564
sg97
I8
sg98
I0
sg105
I24
sg100
I66
sg131
(S'dummy'
p1565
S'TL'
p1566
g31
g31
tp1567
sg78
(dp1568
g1549
I0
sg1550
I4
sg1551
I2
sg1552
I11
ssg106
(dp1569
S'A'
p1570
I10
sS'ME'
p1571
I10
sS'RP2'
p1572
I8
sS'E'
p1573
I10
sS'TO'
p1574
I10
sS'RP1'
p1575
I8
sS'JP'
p1576
I5
sS'RP_tot'
p1577
I9
sS'P'
p1578
I4
sS'PA'
p1579
I9
sS'M'
p1580
I8
sS'R'
p1581
I11
sS'TB'
p1582
I5
sS'PL'
p1583
I10
sS'TA'
p1584
I5
ssg124
I0
sg125
I0
sg126
I0
sg127
F16.0
sg128
I0
sg129
F10.0
sg130
I0
sg138
I0
sg84
(dp1585
g1549
I0
sg1550
I0
sg1551
I0
sg1552
I0
ssg188
I0
sg418
(dp1586
S'A'
p1587
I10
sS'ME'
p1588
I10
sS'RP2'
p1589
I8
sS'E'
p1590
I10
sS'TO'
p1591
I10
sS'RP1'
p1592
I8
sS'JP'
p1593
I5
sS'RP_tot'
p1594
I9
sS'P'
p1595
I4
sS'PA'
p1596
I9
sS'M'
p1597
I8
sS'R'
p1598
I11
sS'TB'
p1599
I5
sS'PL'
p1600
I10
sS'TA'
p1601
I5
ssg189
g1569
sg206
I2
sg61
g31
sg207
I0
sg208
I0
sg209
I0
sg75
I0
sg210
I1
sg139
I0
sg211
I0
sg212
S'B'
p1602
sbssg188
I0
sg418
(dp1603
S'A'
p1604
I10
sS'ME'
p1605
I10
sS'RP2'
p1606
I8
sS'E'
p1607
I10
sS'P'
p1608
I4
sS'RP1'
p1609
I8
sS'JP'
p1610
I5
sS'RP_tot'
p1611
I9
sS'TO'
p1612
I10
sS'PA'
p1613
I9
sS'M'
p1614
I8
sS'R'
p1615
I11
sS'TB'
p1616
I5
sS'PL'
p1617
I10
sS'TA'
p1618
I5
ssg206
I0
sg264
(dp1619
sg207
I0
sg61
g31
sg208
I0
sg209
I0
sg150
I11
sg210
I6
sg211
I0
sg212
g1415
sbsS'drop1'
p1620
(ijoueur
joueur
p1621
(dp1622
g269
F11.741935483870968
sg27
I1
sg28
F11.741935483870968
sg29
F4.0
sg30
g31
sg32
I6
sg33
F227.19821974911318
sg35
I0
sg37
I0
sg38
g39
(g40
g41
Ntp1623
Rp1624
(dp1625
g45
I5
sg46
S'**'
p1626
sg48
g274
sbsg50
(dp1627
sg52
(dp1628
g277
I0
sg278
I0
sg279
I0
sg280
I10
ssg58
F11.741935483870968
sg59
I0
sS'random_retraite'
p1629
I2
sg281
I0
sg62
(dp1630
g64
I1
sg65
I5
sg66
g283
ssg68
I0
sg69
F227.19821974911318
sg70
I00
sg71
I5
sg72
I0
sg73
I0
sg74
I0
sg75
I3
sg76
I00
sg77
F21.0
sg78
(dp1631
g80
I0
sg81
I0
sg82
I0
sg83
I0
ssg99
I00
sg86
(dp1632
g80
I0
sg81
I0
sg82
I0
sg83
I0
ssg88
(dp1633
g277
I0
sg278
I19
sg279
I0
sg280
I9
ssg90
I24
sg91
(lp1634
g93
aI01
aI01
aI01
asg94
I0
sg95
S'Uthimol'
p1635
sg97
I4
sg98
I16
sg105
I14
sg100
I633
sg101
g102
sg103
I00
sg106
(dp1636
g291
I12
sg292
I6
sg293
I11
sg294
I12
sg295
I10
sg296
I11
sg297
I11
sg298
I14
sg299
I9
sg300
I14
sg301
I10
sg302
I4
sg303
I10
sg304
I11
sg305
I6
ssg189
(dp1637
g291
I12
sg292
I6
sg293
I11
sg294
I12
sg299
I9
sg296
I11
sg297
I11
sg298
I14
sg295
I10
sg300
I14
sg301
I10
sg302
I4
sg303
I10
sg304
I11
sg305
I6
ssg123
g39
(g40
g41
Ntp1638
Rp1639
(dp1640
g45
I5
sg46
S'**'
p1641
sg48
g274
sbsg124
I0
sg125
I0
sg126
I1
sg127
I0
sg128
I0
sg129
F11.774193548387096
sg130
I0
sg131
(g307
S'AI'
p1642
S'AR'
p1643
S'DM'
p1644
tp1645
sg136
(dp1646
g277
I0
sg278
I0
sg279
I0
sg280
I19
ssg138
I1
sg84
(dp1647
g80
I0
sg81
I0
sg82
I0
sg83
I0
ssg140
(dp1648
S's13'
p1649
(ijoueur
joueur
p1650
(dp1651
g27
I0
sg29
F4.0
sg125
I0
sg32
I0
sg71
I5
sg35
I0
sg38
g1624
sg52
(dp1652
g146
I0
sg147
I0
sg148
I0
sg149
I0
ssg136
g1646
sg61
S'MRB 9;MDL 11'
p1653
sg150
I50
sg62
(dp1654
g152
I1
sg153
I1
sg154
g155
ssg68
I0
sg72
I4
sg73
I0
sg74
I0
sg101
g102
sg76
I00
sg123
g1639
sg77
F0.0
sg99
I00
sg86
(dp1655
g162
I0
sg163
I0
sg164
I0
sg165
I4
ssg88
g1633
sg90
I0
sg91
(lp1656
g167
aI01
aI01
aI01
asg78
(dp1657
g162
I0
sg163
I7
sg164
I0
sg165
I0
ssg95
S'Uthimol (13)'
p1658
sg97
I4
sg98
I0
sg105
I14
sg100
I633
sg131
g1645
sg106
(dp1659
g171
I0
sg172
I0
sg173
I0
sg174
I0
sg175
I0
sg176
I0
sg177
I0
sg178
I0
sg179
I0
sg180
I0
sg181
I0
sg182
I0
sg183
I0
sg184
I0
sg185
I0
ssg140
(dp1660
sg124
I0
sg30
g31
sg126
I0
sg127
F21.0
sg128
I0
sg129
F11.741935483870968
sg130
I0
sg138
I0
sg84
(dp1661
g162
I0
sg163
I0
sg164
I0
sg165
I10
ssg188
I0
sg189
(dp1662
g191
I12
sg192
I6
sg193
I11
sg194
I12
sg195
I10
sg196
I11
sg197
I10
sg198
I14
sg199
I9
sg200
I14
sg201
I10
sg202
I4
sg203
I9
sg204
I11
sg205
I6
ssg206
I0
sg207
I0
sg208
I1
sg209
I0
sg75
I0
sg210
I0
sg139
I0
sg94
I0
sg211
I0
sg212
S'EN'
p1663
sbsg214
(ijoueur
joueur
p1664
(dp1665
g269
F11.741935483870968
sg27
I1
sg29
F11.0
sg30
g31
sg32
I5
sg71
I3
sg35
I0
sg38
g39
(g40
g41
Ntp1666
Rp1667
(dp1668
g45
I5
sg46
S'**'
p1669
sg48
g332
sbsg52
(dp1670
g334
I0
sg335
I0
sg336
I0
sg337
I0
ssg136
(dp1671
g334
I0
sg335
I0
sg336
I0
sg337
I15
ssg281
I0
sg150
I50
sg62
(dp1672
g152
I1
sg153
I1
sg154
g155
ssg68
I0
sg72
I5
sg73
I0
sg74
I0
sg101
g229
sg76
I00
sg123
g39
(g40
g41
Ntp1673
Rp1674
(dp1675
g45
I5
sg46
S'**'
p1676
sg48
g332
sbsg77
F2.5
sg99
I00
sg86
(dp1677
g346
I0
sg347
I0
sg348
I0
sg349
I1
ssg88
(dp1678
g334
I0
sg335
I12
sg336
I0
sg337
I9
ssg90
I24
sg91
(lp1679
g167
aI01
aI01
aI01
asg78
(dp1680
g346
I0
sg347
I7
sg348
I0
sg349
I9
ssg95
S'Uthimol (12)'
p1681
sg97
I4
sg98
I16
sg105
I14
sg100
I633
sg131
(g354
S'AI'
p1682
S'AR'
p1683
S'DM'
p1684
tp1685
sg106
(dp1686
g358
I12
sg359
I6
sg360
I10
sg361
I12
sg362
I9
sg363
I11
sg364
I10
sg365
I14
sg366
I10
sg367
I14
sg368
I10
sg369
I4
sg370
I8
sg371
I11
sg372
I6
ssg140
(dp1687
g374
(ijoueur
joueur
p1688
(dp1689
g27
I1
sg32
I0
sg35
I0
sg38
g39
(g40
g41
Ntp1690
Rp1691
(dp1692
g45
I5
sg46
S'**'
p1693
sg48
S'seigneur'
p1694
sbsg52
(dp1695
S'SR'
p1696
I0
sS'ST'
p1697
I0
sS'CR'
p1698
I0
sS'CT'
p1699
I0
ssg136
(dp1700
g1696
I0
sg1697
I0
sg1698
I0
sg1699
I14
ssg281
I0
sg68
I0
sg99
I00
sg72
I1
sg73
I0
sg74
I0
sg131
(S'dummy'
p1701
S'AI'
p1702
S'AR'
p1703
S'DM'
p1704
tp1705
sg76
I00
sg123
g39
(g40
g41
Ntp1706
Rp1707
(dp1708
g45
I5
sg46
S'**'
p1709
sg48
g1694
sbsg78
(dp1710
g1696
I0
sg1697
I5
sg1698
I0
sg1699
I0
ssg84
(dp1711
g1696
I0
sg1697
I0
sg1698
I0
sg1699
I0
ssg86
(dp1712
g1696
I0
sg1697
I0
sg1698
I0
sg1699
I14
ssg88
(dp1713
g1696
I0
sg1697
I5
sg1698
I0
sg1699
I0
ssg90
I24
sg94
I0
sg95
S'Uthimol'
p1714
sg97
I4
sg98
I16
sg105
I14
sg100
I633
sg101
S'HTH'
p1715
sg106
(dp1716
S'A'
p1717
I13
sS'ME'
p1718
I6
sS'RP2'
p1719
I10
sS'E'
p1720
I12
sS'TO'
p1721
I9
sS'RP1'
p1722
I10
sS'JP'
p1723
I9
sS'RP_tot'
p1724
I13
sS'P'
p1725
I11
sS'PA'
p1726
I14
sS'M'
p1727
I10
sS'R'
p1728
I4
sS'TB'
p1729
I7
sS'PL'
p1730
I11
sS'TA'
p1731
I6
ssg124
I0
sg125
I0
sg126
I0
sg128
I0
sg129
F11.741935483870968
sg130
I0
sg139
I0
sg188
I0
sg418
(dp1732
S'A'
p1733
I13
sS'ME'
p1734
I6
sS'RP2'
p1735
I10
sS'E'
p1736
I12
sS'TO'
p1737
I9
sS'RP1'
p1738
I10
sS'JP'
p1739
I9
sS'RP_tot'
p1740
I13
sS'P'
p1741
I11
sS'PA'
p1742
I14
sS'M'
p1743
I10
sS'R'
p1744
I4
sS'TB'
p1745
I7
sS'PL'
p1746
I11
sS'TA'
p1747
I6
ssg189
g1716
sg206
I1
sg61
S'MRB 9;MDL 11'
p1748
sg207
I0
sg208
I0
sg209
I0
sg150
I50
sg210
I18
sg211
I0
sg212
S'EN'
p1749
sbssg124
I3
sg125
I0
sg126
I1
sg127
F17.0
sg128
I0
sg129
F11.741935483870968
sg130
I0
sg138
I0
sg84
(dp1750
g346
I0
sg347
I0
sg348
I0
sg349
I0
ssg188
I0
sg418
(dp1751
g438
I13
sg439
I6
sg440
I10
sg441
I12
sg442
I11
sg443
I10
sg444
I9
sg445
I13
sg446
I9
sg447
I14
sg448
I10
sg449
I4
sg450
I7
sg451
I11
sg452
I6
ssg189
g1686
sg206
I0
sg61
S'MRB 9;MDL 11'
p1752
sg207
I0
sg208
I5
sg209
I0
sg75
I0
sg210
I23
sg139
I1
sg94
I0
sg211
I0
sg212
S'EN'
p1753
sbsg454
(ijoueur
joueur
p1754
(dp1755
g27
I1
sg29
F4.0
sg32
I0
sg71
I2
sg35
I0
sg38
g39
(g40
g41
Ntp1756
Rp1757
(dp1758
g45
I5
sg46
S'**'
p1759
sg48
S'seigneur'
p1760
sbsg52
(dp1761
S'SR'
p1762
I0
sS'ST'
p1763
I0
sS'CR'
p1764
I0
sS'CT'
p1765
I0
ssg136
(dp1766
g1762
I0
sg1763
I0
sg1764
I0
sg1765
I14
ssg281
I0
sg150
I50
sg62
(dp1767
g152
I1
sg153
I1
sg154
g155
ssg68
I0
sg72
I1
sg73
I0
sg74
I0
sg101
S'HTH'
p1768
sg76
I00
sg123
g39
(g40
g41
Ntp1769
Rp1770
(dp1771
g45
I5
sg46
S'**'
p1772
sg48
g1760
sbsg77
F19.0
sg99
I00
sg86
(dp1773
g1762
I0
sg1763
I0
sg1764
I0
sg1765
I14
ssg88
(dp1774
g1762
I0
sg1763
I5
sg1764
I0
sg1765
I0
ssg90
I24
sg91
(lp1775
g167
aI01
aI01
aI01
asg94
I0
sg95
S'Uthimol (11)'
p1776
sg97
I4
sg98
I16
sg105
I14
sg100
I633
sg131
(S'dummy'
p1777
S'AI'
p1778
S'AR'
p1779
S'DM'
p1780
tp1781
sg78
(dp1782
g1762
I0
sg1763
I5
sg1764
I0
sg1765
I0
ssg106
(dp1783
S'A'
p1784
I13
sS'ME'
p1785
I6
sS'RP2'
p1786
I10
sS'E'
p1787
I12
sS'TO'
p1788
I9
sS'RP1'
p1789
I10
sS'JP'
p1790
I9
sS'RP_tot'
p1791
I13
sS'P'
p1792
I11
sS'PA'
p1793
I14
sS'M'
p1794
I10
sS'R'
p1795
I4
sS'TB'
p1796
I7
sS'PL'
p1797
I11
sS'TA'
p1798
I6
ssg124
I0
sg125
I0
sg126
I0
sg127
F19.0
sg128
I0
sg129
F11.741935483870968
sg130
I0
sg138
I0
sg84
(dp1799
g1762
I0
sg1763
I0
sg1764
I0
sg1765
I0
ssg188
I0
sg418
(dp1800
S'A'
p1801
I13
sS'ME'
p1802
I6
sS'RP2'
p1803
I10
sS'E'
p1804
I12
sS'TO'
p1805
I9
sS'RP1'
p1806
I10
sS'JP'
p1807
I9
sS'RP_tot'
p1808
I13
sS'P'
p1809
I11
sS'PA'
p1810
I14
sS'M'
p1811
I10
sS'R'
p1812
I4
sS'TB'
p1813
I7
sS'PL'
p1814
I11
sS'TA'
p1815
I6
ssg189
g1783
sg206
I1
sg61
S'MRB 9;MDL 11'
p1816
sg207
I0
sg208
I0
sg209
I0
sg75
I0
sg210
I18
sg139
I0
sg211
I0
sg212
S'EN'
p1817
sbssg188
I0
sg418
(dp1818
g518
I13
sg519
I6
sg520
I10
sg521
I12
sg522
I11
sg523
I10
sg524
I9
sg525
I13
sg526
I9
sg527
I14
sg528
I10
sg529
I4
sg530
I7
sg531
I11
sg532
I6
ssg206
I0
sg264
(dp1819
sg207
I0
sg61
g1653
sg208
I0
sg209
I0
sg150
I50
sg210
I27
sg139
I0
sg211
I0
sg212
g1663
sbsS'drop2'
p1820
g1621
sS'SA_remp2'
p1821
(ijoueur
joueur
p1822
(dp1823
g27
I0
sg29
I0
sg125
I0
sg32
I0
sg71
I0
sg34
g31
sg35
I0
sg36
g31
sg38
g39
(g40
g41
Ntp1824
Rp1825
(dp1826
g45
I4
sg46
S'*'
p1827
sg48
S'heros'
p1828
sbsg52
(dp1829
S'SR'
p1830
I0
sS'CT'
p1831
I0
sS'CR'
p1832
I0
sS'ST'
p1833
I0
ssg136
(dp1834
g1830
I0
sg1831
I0
sg1832
I0
sg1833
I0
ssg75
I0
sg61
g31
sg62
(dp1835
S'couleur'
p1836
I1
sS'r_nr'
p1837
S'n'
p1838
sS'valeur'
p1839
I0
ssg68
I0
sg69
I0
sg70
I01
sg33
I0
sg72
I0
sg73
I0
sg74
I0
sg131
(S'dummy'
p1840
S'N8'
p1841
S'TL'
p1842
S'DL'
p1843
tp1844
sg76
I00
sg123
g39
(g40
g41
Ntp1845
Rp1846
(dp1847
g45
I2
sg46
S'<<'
p1848
sg48
S'special'
p1849
sbsg78
(dp1850
g1830
I0
sg1831
I0
sg1832
I0
sg1833
I0
ssg99
I00
sg86
(dp1851
g1830
I0
sg1831
I0
sg1832
I0
sg1833
I0
ssg88
(dp1852
g1830
I0
sg1831
I0
sg1832
I0
sg1833
I0
ssg90
I0
sg91
(lp1853
g1840
aI01
aI01
aI01
asg77
I0
sg95
S'Laela'
p1854
sg97
I14
sg98
I0
sg105
cnumpy.core.multiarray
scalar
p1855
(cnumpy
dtype
p1856
(S'i4'
p1857
I0
I1
tp1858
Rp1859
(I3
S'<'
p1860
NNNI-1
I-1
I0
tp1861
bS'\x19\x00\x00\x00'
p1862
tp1863
Rp1864
sg100
I31
sg101
g1336
sg103
I00
sg104
g31
sg211
I0
sg106
(dp1865
S'RP1'
p1866
I10
sS'ME'
p1867
I8
sS'RP2'
p1868
I5
sS'E'
p1869
I9
sS'P'
p1870
I7
sS'JP'
p1871
I4
sS'M'
p1872
I8
sS'RP_tot'
p1873
I10
sS'TO'
p1874
I12
sS'PA'
p1875
I8
sS'A'
p1876
I9
sS'R'
p1877
I8
sS'TB'
p1878
I2
sS'PL'
p1879
I11
sS'TA'
p1880
I6
ssg140
(dp1881
sg124
I0
sg30
g31
sg126
I0
sg127
I0
sg129
F9.666666666666666
sg130
I0
sg138
I0
sg84
(dp1882
g1830
I0
sg1831
I0
sg1832
I0
sg1833
I0
ssg188
I0
sg189
g1865
sg206
I0
sg207
I0
sg208
I0
sg209
I0
sg150
I3
sg210
I0
sg139
I0
sg94
I0
sg212
S'HE'
p1883
sbssg95
csip
_unpickle_type
p1884
(S'PyQt4.QtCore'
p1885
S'QString'
p1886
(VHTH_MDL
p1887
tp1888
tp1889
Rp1890
sS'totaux'
p1891
(dp1892
g19
I0
sg20
I0
sg21
I0
ssS'_compo_defaut_fatigue'
p1893
Nsg106
(dp1894
g4
I0
sg5
I0
sg6
I0
sg7
I0
sg8
I0
sg9
I0
sg10
I0
sg11
I0
sg12
I0
sg13
I0
sg14
I0
sg15
I0
sg16
I0
ssS'joueurs'
p1895
(dp1896
S'n12'
p1897
(ijoueur
joueur
p1898
(dp1899
g269
F11.793103448275861
sg27
I0
sg28
F11.793103448275861
sg29
F14.5
sg30
g31
sg32
I0
sg33
F221.47844035584757
sg35
I0
sg37
I0
sg38
g39
(g40
g41
Ntp1900
Rp1901
(dp1902
g45
I6
sg46
S'***'
p1903
sg48
g794
sbsg50
(dp1904
sg52
(dp1905
g277
I0
sg278
I6
sg279
I0
sg280
I19
ssg58
F11.89655172413793
sg59
I0
sg60
I10
sg281
I0
sg62
(dp1906
g64
I3
sg65
I7
sg66
g283
ssg68
I0
sg69
F221.47844035584757
sg70
I00
sg71
I7
sg72
I0
sg73
I0
sg74
I0
sg75
I3
sg76
I00
sg77
F21.0
sg78
(dp1907
g80
I0
sg81
I0
sg82
I0
sg83
I0
ssg84
(dp1908
g80
I0
sg81
I0
sg82
I0
sg83
I0
ssg86
(dp1909
g80
I0
sg81
I0
sg82
I0
sg83
I0
ssg88
(dp1910
g277
I0
sg278
I14
sg279
I0
sg280
I21
ssg90
I0
sg91
(lp1911
g93
aI01
aI01
aI01
asg94
I0
sg95
S'Karl Franz'
p1912
sg97
I9
sg98
I0
sg99
I00
sg100
I397
sg101
g102
sg103
I00
sg105
I21
sg106
(dp1913
g291
I13
sg292
I7
sg293
I13
sg294
I12
sg295
I12
sg296
I10
sg297
I9
sg298
I14
sg299
I9
sg300
I12
sg301
I10
sg302
I9
sg303
I8
sg304
I15
sg305
I4
ssg189
(dp1914
g291
I13
sg292
I7
sg293
I13
sg294
I12
sg299
I9
sg296
I10
sg297
I9
sg298
I14
sg295
I12
sg300
I12
sg301
I10
sg302
I9
sg303
I8
sg304
I15
sg305
I4
ssg123
g39
(g40
g41
Ntp1915
Rp1916
(dp1917
g45
I6
sg46
S'***'
p1918
sg48
g794
sbsg124
I0
sg125
I0
sg126
I0
sg127
I0
sg128
I0
sg129
F12.482758620689655
sg130
I0
sg131
(g307
S'C2'
p1919
S'AR'
p1920
S'AI'
p1921
tp1922
sg136
(dp1923
g277
I0
sg278
I0
sg279
I1
sg280
I1
ssg138
I5
sg139
I0
sg140
(dp1924
S's13'
p1925
(ijoueur
joueur
p1926
(dp1927
g27
I0
sg29
F14.5
sg125
I0
sg32
I0
sg71
I7
sg35
I0
sg38
g1901
sg52
(dp1928
g146
I0
sg147
I0
sg148
I0
sg149
I0
ssg136
g1923
sg61
g31
sg150
I26
sg62
(dp1929
g152
I1
sg153
I1
sg154
g155
ssg68
I0
sg72
I6
sg73
I0
sg74
I0
sg101
g102
sg76
I00
sg123
g1916
sg77
F0.0
sg99
I00
sg86
(dp1930
g162
I0
sg163
I0
sg164
I0
sg165
I0
ssg88
g1910
sg90
I0
sg91
(lp1931
g167
aI01
aI01
aI01
asg78
(dp1932
g162
I0
sg163
I7
sg164
I0
sg165
I14
ssg95
S'Karl Franz (13)'
p1933
sg97
I9
sg98
I0
sg105
I21
sg100
I397
sg131
g1922
sg106
(dp1934
g171
I0
sg172
I0
sg173
I0
sg174
I0
sg175
I0
sg176
I0
sg177
I0
sg178
I0
sg179
I0
sg180
I0
sg181
I0
sg182
I0
sg183
I0
sg184
I0
sg185
I0
ssg140
(dp1935
sg124
I0
sg30
g31
sg126
I0
sg127
F21.0
sg128
I0
sg129
F11.89655172413793
sg130
I0
sg138
I0
sg84
(dp1936
g162
I0
sg163
I0
sg164
I0
sg165
I0
ssg188
I0
sg189
(dp1937
g191
I13
sg192
I7
sg193
I12
sg194
I12
sg195
I11
sg196
I10
sg197
I9
sg198
I13
sg199
I9
sg200
I11
sg201
I10
sg202
I8
sg203
I8
sg204
I14
sg205
I4
ssg206
I0
sg207
I0
sg208
I0
sg209
I0
sg75
I0
sg210
I0
sg139
I0
sg94
I0
sg211
I0
sg212
S'EMP'
p1938
sbsg214
(ijoueur
joueur
p1939
(dp1940
g269
F11.793103448275861
sg27
I0
sg29
F3.5
sg30
g31
sg32
I0
sg71
I6
sg35
I0
sg38
g39
(g40
g41
Ntp1941
Rp1942
(dp1943
g45
I6
sg46
S'***'
p1944
sg48
g835
sbsg52
(dp1945
g334
I0
sg335
I6
sg336
I0
sg337
I19
ssg136
(dp1946
g334
I0
sg335
I0
sg336
I1
sg337
I1
ssg281
I0
sg150
I26
sg62
(dp1947
g152
I1
sg153
I1
sg154
g155
ssg68
I0
sg72
I5
sg73
I0
sg74
I0
sg101
g229
sg76
I00
sg123
g39
(g40
g41
Ntp1948
Rp1949
(dp1950
g45
I6
sg46
S'***'
p1951
sg48
g835
sbsg77
F2.5
sg99
I00
sg86
(dp1952
g346
I0
sg347
I0
sg348
I0
sg349
I1
ssg88
(dp1953
g334
I0
sg335
I7
sg336
I0
sg337
I7
ssg90
I0
sg91
(lp1954
g167
aI01
aI01
aI01
asg78
(dp1955
g346
I0
sg347
I1
sg348
I0
sg349
I6
ssg95
S'Karl Franz (12)'
p1956
sg97
I9
sg98
I0
sg105
I21
sg100
I397
sg131
(g354
S'C2'
p1957
S'AR'
p1958
S'AI'
p1959
tp1960
sg106
(dp1961
g358
I13
sg359
I7
sg360
I10
sg361
I12
sg362
I9
sg363
I10
sg364
I8
sg365
I13
sg366
I9
sg367
I11
sg368
I10
sg369
I8
sg370
I7
sg371
I14
sg372
I4
ssg140
(dp1962
g374
(ijoueur
joueur
p1963
(dp1964
g27
I0
sg32
I0
sg35
I0
sg38
g39
(g40
g41
Ntp1965
Rp1966
(dp1967
g45
I6
sg46
S'***'
p1968
sg48
S'personnage'
p1969
sbsg52
(dp1970
S'SR'
p1971
I0
sS'ST'
p1972
I0
sS'CR'
p1973
I0
sS'CT'
p1974
I12
ssg136
(dp1975
g1971
I0
sg1972
I0
sg1973
I1
sg1974
I0
ssg281
I0
sg68
I0
sg99
I00
sg72
I2
sg73
I0
sg74
I0
sg131
(S'dummy'
p1976
S'C2'
p1977
S'AR'
p1978
S'AI'
p1979
tp1980
sg76
I00
sg123
g39
(g40
g41
Ntp1981
Rp1982
(dp1983
g45
I6
sg46
S'***'
p1984
sg48
g1969
sbsg78
(dp1985
g1971
I0
sg1972
I6
sg1973
I0
sg1974
I1
ssg84
(dp1986
g1971
I0
sg1972
I0
sg1973
I0
sg1974
I12
ssg86
(dp1987
g1971
I0
sg1972
I0
sg1973
I1
sg1974
I0
ssg88
(dp1988
g1971
I0
sg1972
I6
sg1973
I0
sg1974
I1
ssg90
I0
sg94
I0
sg95
S'Karl Franz'
p1989
sg97
I9
sg98
I0
sg105
I21
sg100
I397
sg101
S'HTH'
p1990
sg106
(dp1991
S'A'
p1992
I12
sS'ME'
p1993
I7
sS'RP2'
p1994
I10
sS'E'
p1995
I12
sS'TO'
p1996
I9
sS'RP1'
p1997
I11
sS'JP'
p1998
I8
sS'RP_tot'
p1999
I14
sS'P'
p2000
I10
sS'PA'
p2001
I11
sS'M'
p2002
I10
sS'R'
p2003
I7
sS'TB'
p2004
I7
sS'PL'
p2005
I14
sS'TA'
p2006
I4
ssg124
I0
sg125
I0
sg126
I0
sg128
I0
sg129
F11.793103448275861
sg130
I0
sg139
I0
sg188
I0
sg418
(dp2007
S'A'
p2008
I12
sS'ME'
p2009
I7
sS'RP2'
p2010
I10
sS'E'
p2011
I12
sS'TO'
p2012
I9
sS'RP1'
p2013
I11
sS'JP'
p2014
I8
sS'RP_tot'
p2015
I14
sS'P'
p2016
I10
sS'PA'
p2017
I11
sS'M'
p2018
I10
sS'R'
p2019
I7
sS'TB'
p2020
I7
sS'PL'
p2021
I14
sS'TA'
p2022
I4
ssg189
g1991
sg206
I0
sg61
g31
sg207
I0
sg208
I0
sg209
I0
sg150
I26
sg210
I5
sg211
I0
sg212
S'EMP'
p2023
sbssg124
I15
sg125
I0
sg126
I0
sg127
F21.0
sg128
I0
sg129
F11.793103448275861
sg130
I0
sg138
I0
sg84
(dp2024
g346
I0
sg347
I6
sg348
I0
sg349
I7
ssg188
I1
sg418
(dp2025
g438
I12
sg439
I7
sg440
I10
sg441
I12
sg442
I10
sg443
I11
sg444
I8
sg445
I14
sg446
I9
sg447
I11
sg448
I10
sg449
I7
sg450
I7
sg451
I14
sg452
I4
ssg189
g1961
sg206
I0
sg61
g31
sg207
I0
sg208
I0
sg209
I0
sg75
I0
sg210
I10
sg139
I0
sg94
I0
sg211
I1
sg212
S'EMP'
p2026
sbsg454
(ijoueur
joueur
p2027
(dp2028
g27
I0
sg29
F1.5
sg32
I0
sg71
I4
sg35
I0
sg38
g39
(g40
g41
Ntp2029
Rp2030
(dp2031
g45
I6
sg46
S'***'
p2032
sg48
S'personnage'
p2033
sbsg52
(dp2034
S'SR'
p2035
I0
sS'ST'
p2036
I0
sS'CR'
p2037
I0
sS'CT'
p2038
I12
ssg136
(dp2039
g2035
I0
sg2036
I0
sg2037
I1
sg2038
I0
ssg281
I0
sg150
I26
sg62
(dp2040
g152
I1
sg153
I1
sg154
g155
ssg68
I0
sg72
I2
sg73
I0
sg74
I0
sg101
S'HTH'
p2041
sg76
I00
sg123
g39
(g40
g41
Ntp2042
Rp2043
(dp2044
g45
I6
sg46
S'***'
p2045
sg48
g2033
sbsg77
F19.5
sg99
I00
sg86
(dp2046
g2035
I0
sg2036
I0
sg2037
I1
sg2038
I0
ssg88
(dp2047
g2035
I0
sg2036
I6
sg2037
I0
sg2038
I1
ssg90
I0
sg91
(lp2048
g167
aI01
aI01
aI01
asg94
I0
sg95
S'Karl Franz (11)'
p2049
sg97
I9
sg98
I0
sg105
I21
sg100
I397
sg131
(S'dummy'
p2050
S'C2'
p2051
S'AR'
p2052
S'AI'
p2053
tp2054
sg78
(dp2055
g2035
I0
sg2036
I6
sg2037
I0
sg2038
I1
ssg106
(dp2056
S'A'
p2057
I12
sS'ME'
p2058
I7
sS'RP2'
p2059
I10
sS'E'
p2060
I12
sS'TO'
p2061
I9
sS'RP1'
p2062
I11
sS'JP'
p2063
I8
sS'RP_tot'
p2064
I14
sS'P'
p2065
I10
sS'PA'
p2066
I11
sS'M'
p2067
I10
sS'R'
p2068
I7
sS'TB'
p2069
I7
sS'PL'
p2070
I14
sS'TA'
p2071
I4
ssg124
I0
sg125
I0
sg126
I0
sg127
F19.5
sg128
I0
sg129
F11.793103448275861
sg130
I0
sg138
I0
sg84
(dp2072
g2035
I0
sg2036
I0
sg2037
I0
sg2038
I12
ssg188
I0
sg418
(dp2073
S'A'
p2074
I12
sS'ME'
p2075
I7
sS'RP2'
p2076
I10
sS'E'
p2077
I12
sS'TO'
p2078
I9
sS'RP1'
p2079
I11
sS'JP'
p2080
I8
sS'RP_tot'
p2081
I14
sS'P'
p2082
I10
sS'PA'
p2083
I11
sS'M'
p2084
I10
sS'R'
p2085
I7
sS'TB'
p2086
I7
sS'PL'
p2087
I14
sS'TA'
p2088
I4
ssg189
g2056
sg206
I0
sg61
g31
sg207
I0
sg208
I0
sg209
I0
sg75
I0
sg210
I5
sg139
I0
sg211
I0
sg212
S'EMP'
p2089
sbssg188
I1
sg418
(dp2090
g518
I12
sg519
I7
sg520
I10
sg521
I12
sg522
I10
sg523
I11
sg524
I8
sg525
I14
sg526
I9
sg527
I11
sg528
I10
sg529
I7
sg530
I7
sg531
I14
sg532
I4
ssg206
I0
sg264
(dp2091
sg207
I0
sg61
g31
sg208
I0
sg209
I0
sg150
I26
sg210
I16
sg211
I0
sg212
g1938
sbsS'n13'
p2092
(ijoueur
joueur
p2093
(dp2094
g269
F12.2
sg27
I1
sg28
F12.3
sg29
F12.0
sg30
g31
sg32
I0
sg33
F225.87916682075797
sg35
I0
sg37
I0
sg38
g39
(g40
g41
Ntp2095
Rp2096
(dp2097
g45
I5
sg46
S'xx'
p2098
sg48
S'seigneur'
p2099
sbsg50
(dp2100
sg52
(dp2101
S'SR'
p2102
I0
sS'CT'
p2103
I0
sS'CR'
p2104
I0
sS'ST'
p2105
I0
ssg58
F12.033333333333333
sg59
I0
sg60
I10
sg281
I0
sg62
(dp2106
g64
I4
sg65
I12
sg66
g67
ssg68
I0
sS'transformations'
p2107
I0
sS'penalites'
p2108
I0
sg70
I00
sg71
I6
sg72
I0
sg73
I0
sg74
I0
sg75
I3
sg76
I00
sg77
F20.0
sg78
(dp2109
g80
I0
sg81
I0
sg82
I0
sg83
I0
ssg84
(dp2110
g80
I0
sg81
I0
sg82
I0
sg83
I0
ssg86
(dp2111
g80
I0
sg81
I0
sg82
I0
sg83
I0
ssg88
(dp2112
g2102
I0
sg2103
I26
sg2104
I0
sg2105
I20
ssg90
I26
sg91
(lp2113
g93
aI01
aI01
aI01
asg94
I0
sg95
S'Von Dokhoff'
p2114
sg97
I7
sg98
I15
sg99
I00
sg100
I562
sg101
g102
sg103
I00
sg105
I19
sg106
(dp2115
S'A'
p2116
I14
sS'ME'
p2117
I8
sS'RP2'
p2118
I14
sS'E'
p2119
I12
sS'TO'
p2120
I9
sS'RP1'
p2121
I7
sS'JP'
p2122
I6
sS'RP_tot'
p2123
I14
sS'P'
p2124
I10
sS'PA'
p2125
I15
sS'M'
p2126
I9
sS'R'
p2127
I6
sS'TB'
p2128
I10
sS'PL'
p2129
I14
sS'TA'
p2130
I5
ssg189
(dp2131
g2116
I14
sg2117
I8
sg2118
I14
sg2119
I12
sg2124
I10
sg2121
I7
sg2122
I6
sg2123
I14
sg2120
I9
sg2125
I15
sg2126
I9
sg2127
I6
sg2128
I10
sg2129
I14
sg2130
I5
ssg123
g39
(g40
g41
Ntp2132
Rp2133
(dp2134
g45
I5
sg46
S'xx'
p2135
sg48
g2099
sbsg124
I0
sg125
I0
sg126
I1
sg127
I0
sg128
I0
sg129
F12.033333333333333
sg130
I2
sg131
(S'dummy'
p2136
S'C1'
p2137
S'DO'
p2138
S'DM'
p2139
tp2140
sg136
(dp2141
g2102
I0
sg2103
I15
sg2104
I0
sg2105
I0
ssg69
F225.87916682075797
sg138
I0
sS'drops'
p2142
I0
sg139
I0
sg140
(dp2143
S's13'
p2144
(ijoueur
joueur
p2145
(dp2146
g27
I0
sg29
F12.0
sg125
I0
sg32
I0
sg71
I6
sg35
I0
sg38
g2096
sg52
(dp2147
g146
I0
sg147
I0
sg148
I0
sg149
I0
ssg136
g2141
sg61
S'QNL 12'
p2148
sg150
I89
sg62
(dp2149
g152
I1
sg153
I1
sg154
g155
ssg68
I0
sg72
I3
sg73
I0
sg74
I0
sg101
g102
sg76
I00
sg123
g2133
sg77
F0.0
sg99
I00
sg86
(dp2150
g162
I0
sg163
I0
sg164
I0
sg165
I0
ssg88
g2112
sg90
I0
sg91
(lp2151
g167
aI01
aI01
aI01
asg78
(dp2152
g162
I0
sg163
I6
sg164
I0
sg165
I14
ssg95
S'Von Dokhoff (13)'
p2153
sg97
I7
sg98
I0
sg105
I19
sg100
I562
sg131
g2140
sg106
(dp2154
g171
I0
sg172
I0
sg173
I0
sg174
I0
sg175
I0
sg176
I0
sg177
I0
sg178
I0
sg179
I0
sg180
I0
sg181
I0
sg182
I0
sg183
I0
sg184
I0
sg185
I0
ssg140
(dp2155
sg124
I0
sg30
g31
sg126
I0
sg127
F20.0
sg128
I0
sg129
F12.033333333333333
sg130
I0
sg138
I0
sg84
(dp2156
g162
I0
sg163
I0
sg164
I0
sg165
I0
ssg188
I0
sg189
(dp2157
g191
I14
sg192
I8
sg193
I14
sg194
I12
sg195
I10
sg196
I7
sg197
I6
sg198
I14
sg199
I9
sg200
I15
sg201
I9
sg202
I6
sg203
I9
sg204
I14
sg205
I5
ssg206
I0
sg207
I0
sg208
I0
sg209
I0
sg75
I0
sg210
I0
sg139
I0
sg94
I0
sg211
I0
sg212
S'CV'
p2158
sbsg214
(ijoueur
joueur
p2159
(dp2160
g269
F12.2
sg27
I0
sg29
F3.0
sg30
g31
sg32
I0
sg71
I5
sg35
I0
sg38
g39
(g40
g41
Ntp2161
Rp2162
(dp2163
g45
I5
sg46
S'xx'
p2164
sg48
S'seigneur'
p2165
sbsg52
(dp2166
S'SR'
p2167
I0
sS'CT'
p2168
I0
sS'CR'
p2169
I0
sS'ST'
p2170
I0
ssg136
(dp2171
g2167
I0
sg2168
I15
sg2169
I0
sg2170
I0
ssg281
I0
sg150
I89
sg62
(dp2172
g152
I1
sg153
I1
sg154
g155
ssg68
I0
sg2107
I0
sg2108
I0
sg72
I5
sg73
I2
sg74
I15
sg101
g229
sg76
I00
sg77
F2.5
sg78
(dp2173
g346
I0
sg347
I6
sg348
I0
sg349
I12
ssg99
I00
sg86
(dp2174
g346
I0
sg347
I0
sg348
I0
sg349
I1
ssg88
(dp2175
g2167
I0
sg2168
I12
sg2169
I0
sg2170
I13
ssg90
I26
sg91
(lp2176
g167
aI01
aI01
aI01
asg94
I22
sg95
S'Von Dokhoff (12)'
p2177
sg97
I7
sg98
I15
sg105
I19
sg100
I562
sg131
(S'dummy'
p2178
S'C1'
p2179
S'DO'
p2180
S'DM'
p2181
tp2182
sg106
(dp2183
S'A'
p2184
I14
sS'ME'
p2185
I8
sS'RP2'
p2186
I15
sS'E'
p2187
I12
sS'P'
p2188
I10
sS'RP1'
p2189
I7
sS'JP'
p2190
I8
sS'RP_tot'
p2191
I15
sS'TO'
p2192
I9
sS'PA'
p2193
I15
sS'M'
p2194
I9
sS'R'
p2195
I6
sS'TB'
p2196
I10
sS'PL'
p2197
I14
sS'TA'
p2198
I5
ssg123
g39
(g40
g41
Ntp2199
Rp2200
(dp2201
g45
I5
sg46
S'xx'
p2202
sg48
g2165
sbsg124
I14
sg125
I0
sg126
I1
sg127
F19.0
sg128
I0
sg129
F12.3
sg130
I2
sg138
I0
sg2142
I0
sg84
(dp2203
g346
I0
sg347
I0
sg348
I0
sg349
I0
ssg140
(dp2204
g374
(ijoueur
joueur
p2205
(dp2206
g27
I0
sg32
I0
sg35
I0
sg38
g39
(g40
g41
Ntp2207
Rp2208
(dp2209
g45
I5
sg46
S'xx'
p2210
sg48
S'seigneur'
p2211
sbsg52
(dp2212
S'SR'
p2213
I0
sS'CT'
p2214
I0
sS'CR'
p2215
I0
sS'ST'
p2216
I0
ssg136
(dp2217
g2213
I0
sg2214
I14
sg2215
I0
sg2216
I0
ssg84
(dp2218
g2213
I0
sg2214
I0
sg2215
I0
sg2216
I0
ssg281
I0
sg68
I0
sg2107
I0
sg2108
I0
sg72
I0
sg73
I0
sg74
I0
sg131
(S'dummy'
p2219
S'C1'
p2220
S'DO'
p2221
S'DM'
p2222
tp2223
sg76
I01
sg123
g39
(g40
g41
Ntp2224
Rp2225
(dp2226
g45
I5
sg46
S'xx'
p2227
sg48
g2211
sbsg78
(dp2228
g2213
I0
sg2214
I0
sg2215
I0
sg2216
I6
ssg99
I01
sg86
(dp2229
g2213
I0
sg2214
I14
sg2215
I0
sg2216
I0
ssg88
(dp2230
g2213
I0
sg2214
I0
sg2215
I0
sg2216
I6
ssg90
I4
sg94
I4
sg95
S'Von Dokhoff'
p2231
sg97
I7
sg98
I0
sg105
I19
sg100
I500
sg101
S'QNL'
p2232
sg106
(dp2233
S'A'
p2234
I14
sS'ME'
p2235
I8
sS'RP2'
p2236
I14
sS'E'
p2237
I14
sS'P'
p2238
I10
sS'RP1'
p2239
I7
sS'JP'
p2240
I8
sS'RP_tot'
p2241
I14
sS'TO'
p2242
I9
sS'PA'
p2243
I15
sS'M'
p2244
I10
sS'R'
p2245
I6
sS'TB'
p2246
I9
sS'PL'
p2247
I12
sS'TA'
p2248
I5
ssg124
I0
sg125
I0
sg126
I1
sg128
I0
sg129
F12.2
sg130
I0
sg2142
I0
sg139
I1
sg188
I0
sg418
(dp2249
S'A'
p2250
I14
sS'ME'
p2251
I8
sS'RP2'
p2252
I14
sS'E'
p2253
I14
sS'P'
p2254
I10
sS'RP1'
p2255
I7
sS'JP'
p2256
I8
sS'RP_tot'
p2257
I14
sS'TO'
p2258
I9
sS'PA'
p2259
I15
sS'M'
p2260
I10
sS'R'
p2261
I6
sS'TB'
p2262
I9
sS'PL'
p2263
I12
sS'TA'
p2264
I5
ssg189
g2233
sg206
I0
sg61
g31
sg207
I0
sg208
I0
sg209
I0
sg150
I43
sg210
I7
sg211
I0
sg212
S'CV'
p2265
sbssg188
I0
sg418
(dp2266
S'A'
p2267
I14
sS'ME'
p2268
I8
sS'RP2'
p2269
I14
sS'E'
p2270
I14
sS'TO'
p2271
I9
sS'RP1'
p2272
I7
sS'JP'
p2273
I8
sS'RP_tot'
p2274
I14
sS'P'
p2275
I10
sS'PA'
p2276
I15
sS'M'
p2277
I10
sS'R'
p2278
I6
sS'TB'
p2279
I9
sS'PL'
p2280
I12
sS'TA'
p2281
I5
ssg189
g2183
sg206
I0
sg61
S'QNL 12'
p2282
sg207
I2
sg208
I0
sg209
I2
sg75
I0
sg210
I12
sg139
I0
sg211
I0
sg212
S'CV'
p2283
sbsg454
(ijoueur
joueur
p2284
(dp2285
g27
I0
sg29
F4.0
sg32
I0
sg71
I3
sg35
I0
sg38
g39
(g40
g41
Ntp2286
Rp2287
(dp2288
g45
I5
sg46
S'xx'
p2289
sg48
S'seigneur'
p2290
sbsg52
(dp2291
S'SR'
p2292
I0
sS'CT'
p2293
I0
sS'CR'
p2294
I0
sS'ST'
p2295
I0
ssg136
(dp2296
g2292
I0
sg2293
I14
sg2294
I0
sg2295
I0
ssg281
I0
sg150
I43
sg62
(dp2297
g152
I1
sg153
I1
sg154
g155
ssg68
I0
sg2107
I0
sg2108
I0
sg72
I0
sg73
I0
sg74
I0
sg101
S'QNL'
p2298
sg76
I01
sg77
F20.0
sg78
(dp2299
g2292
I0
sg2293
I0
sg2294
I0
sg2295
I6
ssg99
I01
sg86
(dp2300
g2292
I0
sg2293
I14
sg2294
I0
sg2295
I0
ssg88
(dp2301
g2292
I0
sg2293
I0
sg2294
I0
sg2295
I6
ssg90
I4
sg91
(lp2302
g167
aI01
aI01
aI01
asg94
I4
sg95
S'Von Dokhoff (11)'
p2303
sg97
I7
sg98
I0
sg105
I19
sg100
I500
sg131
(S'dummy'
p2304
S'C1'
p2305
S'DO'
p2306
S'DM'
p2307
tp2308
sg106
(dp2309
S'A'
p2310
I14
sS'ME'
p2311
I8
sS'RP2'
p2312
I14
sS'E'
p2313
I14
sS'P'
p2314
I10
sS'RP1'
p2315
I7
sS'JP'
p2316
I8
sS'RP_tot'
p2317
I14
sS'TO'
p2318
I9
sS'PA'
p2319
I15
sS'M'
p2320
I10
sS'R'
p2321
I6
sS'TB'
p2322
I9
sS'PL'
p2323
I12
sS'TA'
p2324
I5
ssg123
g39
(g40
g41
Ntp2325
Rp2326
(dp2327
g45
I5
sg46
S'xx'
p2328
sg48
g2290
sbsg124
I0
sg125
I0
sg126
I1
sg127
F20.0
sg128
I0
sg129
F12.2
sg130
I0
sg138
I0
sg2142
I0
sg84
(dp2329
g2292
I0
sg2293
I0
sg2294
I0
sg2295
I0
ssg188
I0
sg418
(dp2330
S'A'
p2331
I14
sS'ME'
p2332
I8
sS'RP2'
p2333
I14
sS'E'
p2334
I14
sS'P'
p2335
I10
sS'RP1'
p2336
I7
sS'JP'
p2337
I8
sS'RP_tot'
p2338
I14
sS'TO'
p2339
I9
sS'PA'
p2340
I15
sS'M'
p2341
I10
sS'R'
p2342
I6
sS'TB'
p2343
I9
sS'PL'
p2344
I12
sS'TA'
p2345
I5
ssg189
g2309
sg206
I0
sg61
g31
sg207
I0
sg208
I0
sg209
I0
sg75
I0
sg210
I7
sg139
I1
sg211
I0
sg212
S'CV'
p2346
sbssg188
I2
sg418
(dp2347
S'A'
p2348
I14
sS'ME'
p2349
I8
sS'RP2'
p2350
I14
sS'E'
p2351
I14
sS'TO'
p2352
I9
sS'RP1'
p2353
I7
sS'JP'
p2354
I8
sS'RP_tot'
p2355
I14
sS'P'
p2356
I10
sS'PA'
p2357
I15
sS'M'
p2358
I10
sS'R'
p2359
I6
sS'TB'
p2360
I9
sS'PL'
p2361
I12
sS'TA'
p2362
I5
ssg206
I0
sg264
(dp2363
sg207
I2
sg61
g2148
sg208
I0
sg209
I0
sg150
I89
sg210
I15
sg211
I0
sg212
g2158
sbsS'n10'
p2364
g788
sS'n11'
p2365
(ijoueur
joueur
p2366
(dp2367
g269
F9.129032258064516
sg27
I0
sg28
F9.290322580645162
sg29
F1.0
sg30
g31
sg32
I0
sg33
F137.99684117496344
sg35
I0
sg37
I0
sg38
g39
(g40
g41
Ntp2368
Rp2369
(dp2370
g45
I5
sg46
S'**'
p2371
sg48
g274
sbsg50
(dp2372
sg52
(dp2373
g277
I0
sg278
I0
sg279
I0
sg280
I0
ssg58
F10.225806451612904
sg59
I0
sg60
I10
sg281
I0
sg62
(dp2374
g64
I3
sg65
I12
sg66
g283
ssg68
I0
sg69
F137.99684117496344
sg70
I01
sg71
I4
sg72
I0
sg73
I0
sg74
I0
sg75
I2
sg76
I00
sg77
F13.0
sg78
(dp2375
g80
I0
sg81
I0
sg82
I0
sg83
I0
ssg84
(dp2376
g80
I0
sg81
I0
sg82
I0
sg83
I0
ssg86
(dp2377
g80
I0
sg81
I0
sg82
I0
sg83
I0
ssg88
(dp2378
g277
I0
sg278
I0
sg279
I2
sg280
I14
ssg90
I0
sg91
(lp2379
g93
aI01
aI00
aI00
asg94
I0
sg95
S'Harthaeth'
p2380
sg97
I11
sg98
I0
sg99
I00
sg100
I136
sg101
g102
sg103
I00
sg105
I25
sg106
(dp2381
g291
I15
sg292
I6
sg293
I9
sg294
I10
sg295
I11
sg296
I9
sg297
I9
sg298
I11
sg299
I10
sg300
I12
sg301
I11
sg302
I7
sg303
I8
sg304
I11
sg305
I6
ssg189
(dp2382
g291
I15
sg292
I6
sg293
I9
sg294
I10
sg299
I10
sg296
I9
sg297
I9
sg298
I11
sg295
I11
sg300
I12
sg301
I11
sg302
I7
sg303
I8
sg304
I11
sg305
I6
ssg123
g2369
sg124
I0
sg125
I0
sg126
I1
sg127
I0
sg128
I0
sg129
F11.548387096774194
sg130
I0
sg131
(g307
S'AI'
p2383
g31
g31
tp2384
sg136
(dp2385
g277
I0
sg278
I0
sg279
I0
sg280
I0
ssg138
I5
sg139
I0
sg140
(dp2386
S's13'
p2387
(ijoueur
joueur
p2388
(dp2389
g27
I0
sg29
F3.0
sg125
I0
sg32
I0
sg71
I4
sg35
I0
sg38
g2369
sg52
(dp2390
g146
I0
sg147
I0
sg148
I0
sg149
I0
ssg136
g2385
sg61
g31
sg150
I6
sg62
(dp2391
g152
I1
sg153
I1
sg154
g155
ssg68
I0
sg72
I3
sg73
I0
sg74
I0
sg101
g102
sg76
I00
sg123
g39
(g40
g41
Ntp2392
Rp2393
(dp2394
g45
I4
sg46
g159
sg48
g160
sbsg77
F0.0
sg99
I00
sg86
(dp2395
g162
I0
sg163
I0
sg164
I0
sg165
I0
ssg88
g2378
sg90
I0
sg91
(lp2396
g167
aI01
aI00
aI00
asg78
(dp2397
g162
I0
sg163
I0
sg164
I0
sg165
I13
ssg95
S'Harthaeth (13)'
p2398
sg97
I11
sg98
I0
sg105
I25
sg100
I66
sg131
g2384
sg106
(dp2399
g171
I0
sg172
I0
sg173
I0
sg174
I0
sg175
I0
sg176
I0
sg177
I0
sg178
I0
sg179
I0
sg180
I0
sg181
I0
sg182
I0
sg183
I0
sg184
I0
sg185
I0
ssg140
(dp2400
sg124
I0
sg30
g31
sg126
I0
sg127
F13.0
sg128
I0
sg129
F10.225806451612904
sg130
I0
sg138
I0
sg84
(dp2401
g162
I0
sg163
I0
sg164
I0
sg165
I0
ssg188
I0
sg189
(dp2402
g191
I13
sg192
I6
sg193
I8
sg194
I9
sg195
I10
sg196
I9
sg197
I8
sg198
I10
sg199
I9
sg200
I11
sg201
I10
sg202
I6
sg203
I9
sg204
I9
sg205
I6
ssg206
I0
sg207
I0
sg208
I0
sg209
I0
sg75
I0
sg210
I0
sg139
I0
sg94
I0
sg211
I0
sg212
S'HE'
p2403
sbsg214
(ijoueur
joueur
p2404
(dp2405
g269
F9.129032258064516
sg27
I0
sg29
F1.0
sg30
g31
sg32
I0
sg71
I2
sg35
I0
sg38
g39
(g40
g41
Ntp2406
Rp2407
(dp2408
g45
I5
sg46
S'**'
p2409
sg48
g332
sbsg52
(dp2410
g334
I0
sg335
I0
sg336
I0
sg337
I0
ssg136
(dp2411
g334
I0
sg335
I0
sg336
I0
sg337
I0
ssg281
I0
sg150
I3
sg62
(dp2412
g152
I1
sg153
I1
sg154
g155
ssg68
I0
sg72
I0
sg73
I0
sg74
I0
sg101
g229
sg76
I00
sg123
g39
(g40
g41
Ntp2413
Rp2414
(dp2415
g45
I3
sg46
S'^^^'
p2416
sg48
S'rare'
p2417
sbsg77
F2.5
sg99
I01
sg86
(dp2418
g346
I0
sg347
I0
sg348
I0
sg349
I0
ssg88
(dp2419
g334
I0
sg335
I0
sg336
I2
sg337
I1
ssg90
I0
sg91
(lp2420
g167
aI01
aI00
aI00
asg78
(dp2421
g346
I0
sg347
I0
sg348
I1
sg349
I0
ssg95
S'Harthaeth (12)'
p2422
sg97
I11
sg98
I0
sg105
I25
sg100
I31
sg131
(g354
S'AI'
p2423
g31
g31
tp2424
sg106
(dp2425
g358
I12
sg359
I5
sg360
I6
sg361
I9
sg362
I8
sg363
I8
sg364
I6
sg365
I8
sg366
I8
sg367
I10
sg368
I10
sg369
I6
sg370
I6
sg371
I8
sg372
I5
ssg140
(dp2426
g374
(ijoueur
joueur
p2427
(dp2428
g27
I0
sg32
I0
sg35
I0
sg38
g39
(g40
g41
Ntp2429
Rp2430
(dp2431
g45
I5
sg46
S'**'
p2432
sg48
S'seigneur'
p2433
sbsg52
(dp2434
S'SR'
p2435
I0
sS'ST'
p2436
I0
sS'CR'
p2437
I0
sS'CT'
p2438
I0
ssg136
(dp2439
g2435
I0
sg2436
I0
sg2437
I0
sg2438
I0
ssg281
I0
sg68
I0
sg99
I01
sg72
I0
sg73
I0
sg74
I0
sg131
(S'dummy'
p2440
S'AI'
p2441
g31
g31
tp2442
sg76
I00
sg123
g39
(g40
g41
Ntp2443
Rp2444
(dp2445
g45
I1
sg46
S'^'
p2446
sg48
S'base'
p2447
sbsg78
(dp2448
g2435
I0
sg2436
I0
sg2437
I1
sg2438
I1
ssg84
(dp2449
g2435
I0
sg2436
I0
sg2437
I0
sg2438
I0
ssg86
(dp2450
g2435
I0
sg2436
I0
sg2437
I0
sg2438
I0
ssg88
(dp2451
g2435
I0
sg2436
I0
sg2437
I1
sg2438
I1
ssg90
I0
sg94
I0
sg95
S'Harthaeth'
p2452
sg97
I11
sg98
I0
sg105
I25
sg100
I17
sg101
S'HTH'
p2453
sg106
(dp2454
S'A'
p2455
I12
sS'ME'
p2456
I4
sS'RP2'
p2457
I7
sS'E'
p2458
I8
sS'TO'
p2459
I7
sS'RP1'
p2460
I9
sS'JP'
p2461
I7
sS'RP_tot'
p2462
I9
sS'P'
p2463
I8
sS'PA'
p2464
I9
sS'M'
p2465
I9
sS'R'
p2466
I6
sS'TB'
p2467
I6
sS'PL'
p2468
I8
sS'TA'
p2469
I5
ssg124
I0
sg125
I0
sg126
I0
sg128
I0
sg129
F9.129032258064516
sg130
I0
sg139
I0
sg188
I0
sg418
(dp2470
S'A'
p2471
I12
sS'ME'
p2472
I4
sS'RP2'
p2473
I7
sS'E'
p2474
I8
sS'TO'
p2475
I7
sS'RP1'
p2476
I9
sS'JP'
p2477
I7
sS'RP_tot'
p2478
I9
sS'P'
p2479
I8
sS'PA'
p2480
I9
sS'M'
p2481
I9
sS'R'
p2482
I6
sS'TB'
p2483
I6
sS'PL'
p2484
I8
sS'TA'
p2485
I5
ssg189
g2454
sg206
I0
sg61
g31
sg207
I0
sg208
I0
sg209
I0
sg150
I2
sg210
I0
sg211
I0
sg212
S'HE'
p2486
sbssg124
I0
sg125
I0
sg126
I0
sg127
F0.5
sg128
I0
sg129
F9.290322580645162
sg130
I0
sg138
I0
sg84
(dp2487
g346
I0
sg347
I0
sg348
I0
sg349
I0
ssg188
I0
sg418
(dp2488
g438
I12
sg439
I4
sg440
I7
sg441
I8
sg442
I8
sg443
I9
sg444
I7
sg445
I9
sg446
I7
sg447
I9
sg448
I9
sg449
I6
sg450
I6
sg451
I8
sg452
I5
ssg189
g2425
sg206
I0
sg61
g31
sg207
I0
sg208
I0
sg209
I0
sg75
I0
sg210
I0
sg139
I0
sg94
I0
sg211
I0
sg212
S'HE'
p2489
sbsg454
(ijoueur
joueur
p2490
(dp2491
g27
I0
sg29
F0.5
sg32
I0
sg71
I2
sg35
I0
sg38
g39
(g40
g41
Ntp2492
Rp2493
(dp2494
g45
I5
sg46
S'**'
p2495
sg48
S'seigneur'
p2496
sbsg52
(dp2497
S'SR'
p2498
I0
sS'ST'
p2499
I0
sS'CR'
p2500
I0
sS'CT'
p2501
I0
ssg136
(dp2502
g2498
I0
sg2499
I0
sg2500
I0
sg2501
I0
ssg281
I0
sg150
I2
sg62
(dp2503
g152
I1
sg153
I1
sg154
g155
ssg68
I0
sg72
I0
sg73
I0
sg74
I0
sg101
S'HTH'
p2504
sg76
I00
sg123
g39
(g40
g41
Ntp2505
Rp2506
(dp2507
g45
I1
sg46
S'^'
p2508
sg48
S'base'
p2509
sbsg77
F1.5
sg99
I01
sg86
(dp2510
g2498
I0
sg2499
I0
sg2500
I0
sg2501
I0
ssg88
(dp2511
g2498
I0
sg2499
I0
sg2500
I1
sg2501
I1
ssg90
I0
sg91
(lp2512
g167
aI01
aI00
aI00
asg94
I0
sg95
S'Harthaeth (11)'
p2513
sg97
I11
sg98
I0
sg105
I25
sg100
I17
sg131
(S'dummy'
p2514
S'AI'
p2515
g31
g31
tp2516
sg78
(dp2517
g2498
I0
sg2499
I0
sg2500
I1
sg2501
I1
ssg106
(dp2518
S'A'
p2519
I12
sS'ME'
p2520
I4
sS'RP2'
p2521
I7
sS'E'
p2522
I8
sS'TO'
p2523
I7
sS'RP1'
p2524
I9
sS'JP'
p2525
I7
sS'RP_tot'
p2526
I9
sS'P'
p2527
I8
sS'PA'
p2528
I9
sS'M'
p2529
I9
sS'R'
p2530
I6
sS'TB'
p2531
I6
sS'PL'
p2532
I8
sS'TA'
p2533
I5
ssg124
I0
sg125
I0
sg126
I0
sg127
F1.5
sg128
I0
sg129
F9.129032258064516
sg130
I0
sg138
I0
sg84
(dp2534
g2498
I0
sg2499
I0
sg2500
I0
sg2501
I0
ssg188
I0
sg418
(dp2535
S'A'
p2536
I12
sS'ME'
p2537
I4
sS'RP2'
p2538
I7
sS'E'
p2539
I8
sS'TO'
p2540
I7
sS'RP1'
p2541
I9
sS'JP'
p2542
I7
sS'RP_tot'
p2543
I9
sS'P'
p2544
I8
sS'PA'
p2545
I9
sS'M'
p2546
I9
sS'R'
p2547
I6
sS'TB'
p2548
I6
sS'PL'
p2549
I8
sS'TA'
p2550
I5
ssg189
g2518
sg206
I0
sg61
g31
sg207
I0
sg208
I0
sg209
I0
sg75
I0
sg210
I0
sg139
I0
sg211
I0
sg212
S'HE'
p2551
sbssg188
I0
sg418
(dp2552
g518
I12
sg519
I4
sg520
I7
sg521
I8
sg522
I8
sg523
I9
sg524
I7
sg525
I9
sg526
I7
sg527
I9
sg528
I9
sg529
I6
sg530
I6
sg531
I8
sg532
I5
ssg206
I0
sg264
(dp2553
sg207
I0
sg61
g31
sg208
I0
sg209
I0
sg150
I13
sg210
I3
sg211
I0
sg212
g2403
sbsS'n16'
p2554
(ijoueur
joueur
p2555
(dp2556
g269
F8.655172413793103
sg27
I0
sg28
F8.586206896551724
sg29
F8.5
sg30
g31
sg32
I0
sg33
F158.3371230415361
sg35
I0
sg37
I0
sg38
g39
(g40
g41
Ntp2557
Rp2558
(dp2559
g45
I2
sg46
S'<<'
p2560
sg48
S'special'
p2561
sbsg50
(dp2562
sg52
(dp2563
S'SR'
p2564
I0
sS'CT'
p2565
I2
sS'CR'
p2566
I11
sS'ST'
p2567
I0
ssg58
F8.724137931034482
sg59
I0
sg60
I10
sg61
S'AL 12'
p2568
sg62
(dp2569
g64
I1
sg65
I11
sg66
g283
ssg68
I0
sg69
F158.3371230415361
sg70
I00
sg71
I2
sg72
I0
sg73
I0
sg74
I0
sg75
I1
sg76
I00
sg77
F8.5
sg78
(dp2570
g80
I0
sg81
I0
sg82
I0
sg83
I0
ssg84
(dp2571
g80
I0
sg81
I0
sg82
I0
sg83
I0
ssg86
(dp2572
g80
I0
sg81
I0
sg82
I0
sg83
I0
ssg88
(dp2573
g2564
I0
sg2565
I2
sg2566
I26
sg2567
I0
ssg90
I0
sg91
(lp2574
g93
aI01
aI01
aI00
asg94
I0
sg95
S'Hegard'
p2575
sg97
I5
sg98
I0
sg99
I00
sg100
I60
sg101
g102
sg103
I00
sg105
I16
sg106
(dp2576
S'A'
p2577
I6
sS'ME'
p2578
I11
sS'RP2'
p2579
I5
sS'E'
p2580
I7
sS'TO'
p2581
I5
sS'RP1'
p2582
I9
sS'JP'
p2583
I2
sS'RP_tot'
p2584
I9
sS'P'
p2585
I3
sS'PA'
p2586
I6
sS'M'
p2587
I8
sS'R'
p2588
I12
sS'TB'
p2589
I3
sS'PL'
p2590
I7
sS'TA'
p2591
I12
ssg189
(dp2592
g2577
I6
sg2578
I11
sg2579
I5
sg2580
I7
sg2585
I3
sg2582
I9
sg2583
I2
sg2584
I9
sg2581
I5
sg2586
I6
sg2587
I8
sg2588
I12
sg2589
I3
sg2590
I7
sg2591
I12
ssg123
g39
(g40
g41
Ntp2593
Rp2594
(dp2595
g45
I2
sg46
S'<<'
p2596
sg48
g2561
sbsg124
I0
sg125
I0
sg126
I0
sg127
I0
sg128
I0
sg129
F9.344827586206897
sg130
I0
sg131
(S'dummy'
p2597
S'TA'
p2598
S'PI'
p2599
g31
tp2600
sg136
(dp2601
g2564
I0
sg2565
I0
sg2566
I0
sg2567
I0
ssg138
I4
sS'pas_meme_type'
p2602
(lp2603
S'EV'
p2604
asg139
I0
sg140
(dp2605
S's13'
p2606
(ijoueur
joueur
p2607
(dp2608
g27
I0
sg29
F8.5
sg125
I0
sg32
I0
sg71
I2
sg35
I0
sg38
g2558
sg52
(dp2609
g146
I0
sg147
I0
sg148
I0
sg149
I0
ssg136
g2601
sg61
g2568
sg150
I4
sg62
(dp2610
g152
I1
sg153
I1
sg154
g155
ssg68
I0
sg72
I1
sg73
I0
sg74
I0
sg101
g102
sg76
I00
sg123
g2594
sg77
F0.0
sg99
I00
sg86
(dp2611
g162
I0
sg163
I0
sg164
I0
sg165
I0
ssg88
g2573
sg90
I0
sg91
(lp2612
g167
aI01
aI01
aI00
asg78
(dp2613
g162
I0
sg163
I0
sg164
I9
sg165
I1
ssg95
S'Hegard (13)'
p2614
sg97
I5
sg98
I0
sg105
I16
sg100
I60
sg131
g2600
sg106
(dp2615
g171
I0
sg172
I0
sg173
I0
sg174
I0
sg175
I0
sg176
I0
sg177
I0
sg178
I0
sg179
I0
sg180
I0
sg181
I0
sg182
I0
sg183
I0
sg184
I0
sg185
I0
ssg140
(dp2616
sg124
I0
sg30
g31
sg126
I0
sg127
F8.5
sg128
I0
sg129
F8.724137931034482
sg130
I0
sg138
I0
sg84
(dp2617
g162
I0
sg163
I0
sg164
I4
sg165
I1
ssg188
I0
sg189
(dp2618
g191
I6
sg192
I11
sg193
I5
sg194
I7
sg195
I3
sg196
I9
sg197
I2
sg198
I9
sg199
I5
sg200
I6
sg201
I8
sg202
I11
sg203
I3
sg204
I7
sg205
I9
ssg206
I0
sg207
I0
sg208
I0
sg209
I0
sg75
I0
sg210
I0
sg139
I0
sg94
I0
sg211
I0
sg212
S'B'
p2619
sbsg214
(ijoueur
joueur
p2620
(dp2621
g269
F8.655172413793103
sg27
I0
sg29
F0.0
sg30
g31
sg32
I0
sg71
I2
sg35
I0
sg38
g39
(g40
g41
Ntp2622
Rp2623
(dp2624
g45
I2
sg46
S'<<'
p2625
sg48
S'special'
p2626
sbsg52
(dp2627
S'SR'
p2628
I0
sS'CT'
p2629
I1
sS'CR'
p2630
I7
sS'ST'
p2631
I0
ssg136
(dp2632
g2628
I0
sg2629
I0
sg2630
I0
sg2631
I0
ssg61
S'AL 12'
p2633
sg150
I4
sg62
(dp2634
g152
I1
sg153
I1
sg154
g155
ssg68
I0
sg72
I0
sg73
I0
sg74
I0
sg101
g229
sg76
I00
sg123
g39
(g40
g41
Ntp2635
Rp2636
(dp2637
g45
I2
sg46
S'<<'
p2638
sg48
g2626
sbsg77
F19.0
sg99
I00
sg86
(dp2639
g346
I0
sg347
I0
sg348
I0
sg349
I0
ssg88
(dp2640
g2628
I0
sg2629
I1
sg2630
I17
sg2631
I0
ssg90
I0
sg91
(lp2641
g167
aI01
aI01
aI00
asg78
(dp2642
g346
I0
sg347
I0
sg348
I4
sg349
I0
ssg95
S'Hegard (12)'
p2643
sg97
I5
sg98
I0
sg105
I16
sg100
I60
sg131
(S'dummy'
p2644
S'TA'
p2645
S'PI'
p2646
g31
tp2647
sg106
(dp2648
S'A'
p2649
I6
sS'ME'
p2650
I11
sS'RP2'
p2651
I5
sS'E'
p2652
I7
sS'P'
p2653
I3
sS'RP1'
p2654
I8
sS'JP'
p2655
I2
sS'RP_tot'
p2656
I8
sS'TO'
p2657
I5
sS'PA'
p2658
I6
sS'M'
p2659
I8
sS'R'
p2660
I11
sS'TB'
p2661
I3
sS'PL'
p2662
I7
sS'TA'
p2663
I9
ssg189
g2648
sg140
(dp2664
g374
(ijoueur
joueur
p2665
(dp2666
g27
I0
sg32
I0
sg35
I0
sg38
g39
(g40
g41
Ntp2667
Rp2668
(dp2669
g45
I2
sg46
S'<<'
p2670
sg48
S'special'
p2671
sbsg52
(dp2672
S'SR'
p2673
I0
sS'CT'
p2674
I0
sS'CR'
p2675
I3
sS'ST'
p2676
I0
ssg136
(dp2677
g2673
I0
sg2674
I0
sg2675
I0
sg2676
I0
ssg61
g31
sg68
I0
sg99
I00
sg72
I0
sg73
I0
sg74
I0
sg131
(S'dummy'
p2678
S'TA'
p2679
S'PI'
p2680
g31
tp2681
sg76
I01
sg123
g39
(g40
g41
Ntp2682
Rp2683
(dp2684
g45
I2
sg46
S'<<'
p2685
sg48
g2671
sbsg78
(dp2686
g2673
I0
sg2674
I1
sg2675
I13
sg2676
I0
ssg84
(dp2687
g2673
I0
sg2674
I0
sg2675
I3
sg2676
I0
ssg86
(dp2688
g2673
I0
sg2674
I0
sg2675
I0
sg2676
I0
ssg88
(dp2689
g2673
I0
sg2674
I1
sg2675
I13
sg2676
I0
ssg90
I0
sg94
I0
sg95
S'Hegard'
p2690
sg97
I5
sg98
I0
sg105
I16
sg100
I28
sg101
S'AL'
p2691
sg106
(dp2692
S'A'
p2693
I6
sS'ME'
p2694
I11
sS'RP2'
p2695
I6
sS'E'
p2696
I7
sS'P'
p2697
I3
sS'RP1'
p2698
I8
sS'JP'
p2699
I2
sS'RP_tot'
p2700
I8
sS'TO'
p2701
I5
sS'PA'
p2702
I6
sS'M'
p2703
I8
sS'R'
p2704
I10
sS'TB'
p2705
I3
sS'PL'
p2706
I8
sS'TA'
p2707
I10
ssg189
g2692
sg124
I0
sg125
I0
sg126
I0
sg128
I0
sg129
F8.655172413793103
sg130
I0
sg2602
(lp2708
S'EV'
p2709
asg139
I0
sg188
I1
sg418
(dp2710
S'A'
p2711
I6
sS'ME'
p2712
I11
sS'RP2'
p2713
I6
sS'E'
p2714
I7
sS'P'
p2715
I3
sS'RP1'
p2716
I8
sS'JP'
p2717
I2
sS'RP_tot'
p2718
I8
sS'TO'
p2719
I5
sS'PA'
p2720
I6
sS'M'
p2721
I8
sS'R'
p2722
I10
sS'TB'
p2723
I3
sS'PL'
p2724
I8
sS'TA'
p2725
I10
ssS'attribute_error'
p2726
(lp2727
sg206
I0
sg207
I0
sg208
I0
sg209
I0
sg150
I3
sg210
I0
sg211
I1
sg212
S'B'
p2728
sbssg124
I0
sg125
I0
sg126
I0
sg127
F5.0
sg128
I0
sg129
F8.586206896551724
sg130
I0
sg138
I0
sg2602
(lp2729
S'EV'
p2730
asg84
(dp2731
g346
I0
sg347
I0
sg348
I4
sg349
I1
ssg188
I1
sg418
(dp2732
S'A'
p2733
I6
sS'ME'
p2734
I11
sS'RP2'
p2735
I6
sS'E'
p2736
I7
sS'TO'
p2737
I5
sS'RP1'
p2738
I8
sS'JP'
p2739
I2
sS'RP_tot'
p2740
I8
sS'P'
p2741
I3
sS'PA'
p2742
I6
sS'M'
p2743
I8
sS'R'
p2744
I10
sS'TB'
p2745
I3
sS'PL'
p2746
I8
sS'TA'
p2747
I10
ssg2726
(lp2748
sg206
I0
sg207
I0
sg208
I0
sg209
I0
sg75
I0
sg210
I0
sg139
I0
sg94
I0
sg211
I0
sg212
S'B'
p2749
sbsg454
(ijoueur
joueur
p2750
(dp2751
g27
I0
sg29
F3.0
sg32
I0
sg71
I1
sg35
I0
sg38
g39
(g40
g41
Ntp2752
Rp2753
(dp2754
g45
I2
sg46
S'<<'
p2755
sg48
S'special'
p2756
sbsg52
(dp2757
S'SR'
p2758
I0
sS'CT'
p2759
I0
sS'CR'
p2760
I3
sS'ST'
p2761
I0
ssg136
(dp2762
g2758
I0
sg2759
I0
sg2760
I0
sg2761
I0
ssg61
g31
sg150
I3
sg62
(dp2763
g152
I1
sg153
I1
sg154
g155
ssg68
I0
sg72
I0
sg73
I0
sg74
I0
sg101
S'AL'
p2764
sg76
I01
sg123
g39
(g40
g41
Ntp2765
Rp2766
(dp2767
g45
I2
sg46
S'<<'
p2768
sg48
g2756
sbsg77
F9.0
sg99
I00
sg86
(dp2769
g2758
I0
sg2759
I0
sg2760
I0
sg2761
I0
ssg88
(dp2770
g2758
I0
sg2759
I1
sg2760
I13
sg2761
I0
ssg90
I0
sg91
(lp2771
g167
aI01
aI01
aI00
asg94
I0
sg95
S'Hegard (11)'
p2772
sg97
I5
sg98
I0
sg105
I16
sg100
I28
sg131
(S'dummy'
p2773
S'TA'
p2774
S'PI'
p2775
g31
tp2776
sg78
(dp2777
g2758
I0
sg2759
I1
sg2760
I13
sg2761
I0
ssg106
(dp2778
S'A'
p2779
I6
sS'ME'
p2780
I11
sS'RP2'
p2781
I6
sS'E'
p2782
I7
sS'P'
p2783
I3
sS'RP1'
p2784
I8
sS'JP'
p2785
I2
sS'RP_tot'
p2786
I8
sS'TO'
p2787
I5
sS'PA'
p2788
I6
sS'M'
p2789
I8
sS'R'
p2790
I10
sS'TB'
p2791
I3
sS'PL'
p2792
I8
sS'TA'
p2793
I10
ssg189
g2778
sg124
I0
sg125
I0
sg126
I0
sg127
F9.0
sg128
I0
sg129
F8.655172413793103
sg130
I0
sg138
I0
sg2602
(lp2794
S'EV'
p2795
asg84
(dp2796
g2758
I0
sg2759
I0
sg2760
I3
sg2761
I0
ssg188
I1
sg418
(dp2797
S'A'
p2798
I6
sS'ME'
p2799
I11
sS'RP2'
p2800
I6
sS'E'
p2801
I7
sS'P'
p2802
I3
sS'RP1'
p2803
I8
sS'JP'
p2804
I2
sS'RP_tot'
p2805
I8
sS'TO'
p2806
I5
sS'PA'
p2807
I6
sS'M'
p2808
I8
sS'R'
p2809
I10
sS'TB'
p2810
I3
sS'PL'
p2811
I8
sS'TA'
p2812
I10
ssg2726
(lp2813
sg206
I0
sg207
I0
sg208
I0
sg209
I0
sg75
I0
sg210
I0
sg139
I0
sg211
I1
sg212
S'B'
p2814
sbssg188
I1
sg418
(dp2815
S'A'
p2816
I6
sS'ME'
p2817
I11
sS'RP2'
p2818
I6
sS'E'
p2819
I7
sS'TO'
p2820
I5
sS'RP1'
p2821
I8
sS'JP'
p2822
I2
sS'RP_tot'
p2823
I8
sS'P'
p2824
I3
sS'PA'
p2825
I6
sS'M'
p2826
I8
sS'R'
p2827
I10
sS'TB'
p2828
I3
sS'PL'
p2829
I8
sS'TA'
p2830
I10
ssg2726
(lp2831
sg206
I0
sg264
(dp2832
sg207
I0
sg208
I0
sg209
I0
sg150
I4
sg210
I1
sg211
I0
sg212
g2619
sbsS'n17'
p2833
(ijoueur
joueur
p2834
(dp2835
g269
F9.777777777777779
sg27
I1
sg28
F9.481481481481481
sg29
F9.0
sg30
g31
sg32
I0
sg33
F147.82682658083502
sg35
I0
sg37
I3
sg38
g39
(g40
g41
Ntp2836
Rp2837
(dp2838
g45
I4
sg46
g540
sg48
g541
sbsg50
(dp2839
sg52
(dp2840
g544
I0
sg545
I0
sg546
I0
sg547
I0
ssg58
F9.444444444444445
sg59
I0
sg1629
I3
sg281
I0
sg62
(dp2841
g64
I4
sg65
I10
sg66
g67
ssg68
I0
sg69
F147.82682658083502
sg70
I00
sg71
I3
sg72
I0
sg73
I0
sg74
I0
sg75
I1
sg76
I00
sg77
F10.5
sg78
(dp2842
g80
I0
sg81
I0
sg82
I0
sg83
I0
ssg99
I00
sg86
(dp2843
g80
I0
sg81
I0
sg82
I0
sg83
I0
ssg88
(dp2844
g544
I0
sg545
I0
sg546
I8
sg547
I32
ssg90
I0
sg91
(lp2845
g93
aI01
aI01
aI00
asg94
I0
sg95
S'Mortord'
p2846
sg97
I4
sg98
I0
sg105
I11
sg100
I310
sg101
g102
sg103
I00
sg106
(dp2847
g556
I5
sg557
I9
sg558
I5
sg559
I9
sg560
I3
sg561
I12
sg562
I2
sg563
I12
sg564
I3
sg565
I6
sg566
I6
sg567
I10
sg568
I0
sg569
I9
sg570
I7
ssg189
(dp2848
g556
I5
sg557
I9
sg558
I5
sg559
I9
sg564
I3
sg561
I12
sg562
I2
sg563
I12
sg560
I3
sg565
I6
sg566
I6
sg567
I10
sg568
I0
sg569
I9
sg570
I7
ssg123
g39
(g40
g41
Ntp2849
Rp2850
(dp2851
g45
I4
sg46
g540
sg48
g541
sbsg124
I0
sg125
I0
sg126
I0
sg127
I0
sg128
I0
sg129
F9.148148148148149
sg130
I0
sg131
(g307
S'PI'
p2852
S'N8'
p2853
g31
tp2854
sg136
(dp2855
g544
I0
sg545
I0
sg546
I0
sg547
I0
ssg138
I-2
sg84
(dp2856
g80
I0
sg81
I0
sg82
I0
sg83
I0
ssg140
(dp2857
S's13'
p2858
(ijoueur
joueur
p2859
(dp2860
g27
I0
sg29
F9.0
sg125
I0
sg32
I0
sg71
I3
sg35
I0
sg38
g2837
sg52
(dp2861
g146
I0
sg147
I0
sg148
I0
sg149
I0
ssg136
g2855
sg61
S'MDL 8'
p2862
sg150
I40
sg62
(dp2863
g152
I1
sg153
I1
sg154
g155
ssg68
I0
sg72
I1
sg73
I0
sg74
I0
sg101
g102
sg76
I00
sg123
g2850
sg77
F0.0
sg99
I00
sg86
(dp2864
g162
I0
sg163
I0
sg164
I0
sg165
I0
ssg88
g2844
sg90
I0
sg91
(lp2865
g167
aI01
aI01
aI00
asg78
(dp2866
g162
I0
sg163
I0
sg164
I7
sg165
I7
ssg95
S'Mortord (13)'
p2867
sg97
I4
sg98
I0
sg105
I11
sg100
I310
sg131
g2854
sg106
(dp2868
g171
I0
sg172
I0
sg173
I0
sg174
I0
sg175
I0
sg176
I0
sg177
I0
sg178
I0
sg179
I0
sg180
I0
sg181
I0
sg182
I0
sg183
I0
sg184
I0
sg185
I0
ssg140
(dp2869
sg124
I0
sg30
g31
sg126
I0
sg127
F10.5
sg128
I0
sg129
F9.444444444444445
sg130
I0
sg138
I0
sg84
(dp2870
g162
I0
sg163
I0
sg164
I0
sg165
I0
ssg188
I0
sg189
(dp2871
g191
I5
sg192
I9
sg193
I5
sg194
I11
sg195
I3
sg196
I12
sg197
I2
sg198
I12
sg199
I3
sg200
I6
sg201
I6
sg202
I10
sg203
I0
sg204
I9
sg205
I7
ssg206
I0
sg207
I0
sg208
I0
sg209
I0
sg75
I0
sg210
I0
sg139
I0
sg94
I0
sg211
I0
sg212
S'OG'
p2872
sbsg214
(ijoueur
joueur
p2873
(dp2874
g269
F9.777777777777779
sg27
I0
sg29
F9.5
sg30
g31
sg32
I0
sg71
I2
sg35
I0
sg38
g39
(g40
g41
Ntp2875
Rp2876
(dp2877
g45
I4
sg46
g598
sg48
g599
sbsg52
(dp2878
g601
I0
sg602
I0
sg603
I0
sg604
I0
ssg136
(dp2879
g601
I0
sg602
I0
sg603
I0
sg604
I0
ssg281
I0
sg150
I40
sg62
(dp2880
g152
I1
sg153
I1
sg154
g155
ssg68
I0
sg72
I3
sg73
I0
sg74
I0
sg101
g229
sg76
I00
sg123
g39
(g40
g41
Ntp2881
Rp2882
(dp2883
g45
I4
sg46
g598
sg48
g599
sbsg77
F2.0
sg99
I00
sg86
(dp2884
g346
I0
sg347
I0
sg348
I0
sg349
I0
ssg88
(dp2885
g601
I0
sg602
I0
sg603
I1
sg604
I25
ssg90
I0
sg91
(lp2886
g167
aI01
aI01
aI00
asg78
(dp2887
g346
I0
sg347
I0
sg348
I0
sg349
I13
ssg95
S'Mortord (12)'
p2888
sg97
I4
sg98
I0
sg105
I11
sg100
I310
sg131
(g354
S'PI'
p2889
S'N8'
p2890
g31
tp2891
sg106
(dp2892
g618
I5
sg619
I9
sg620
I6
sg621
I11
sg622
I3
sg623
I12
sg624
I2
sg625
I12
sg626
I3
sg627
I6
sg628
I7
sg629
I10
sg630
I0
sg631
I9
sg632
I7
ssg140
(dp2893
g374
(ijoueur
joueur
p2894
(dp2895
g27
I0
sg32
I0
sg35
I0
sg38
g39
(g40
g41
Ntp2896
Rp2897
(dp2898
g45
I4
sg46
S'*'
p2899
sg48
S'heros'
p2900
sbsg52
(dp2901
S'SR'
p2902
I0
sS'ST'
p2903
I0
sS'CR'
p2904
I0
sS'CT'
p2905
I0
ssg136
(dp2906
g2902
I0
sg2903
I0
sg2904
I0
sg2905
I0
ssg281
I0
sg68
I0
sg99
I00
sg72
I0
sg73
I0
sg74
I0
sg131
(S'dummy'
p2907
S'PI'
p2908
S'N8'
p2909
g31
tp2910
sg76
I00
sg123
g39
(g40
g41
Ntp2911
Rp2912
(dp2913
g45
I4
sg46
g2899
sg48
g2900
sbsg78
(dp2914
g2902
I0
sg2903
I0
sg2904
I1
sg2905
I12
ssg84
(dp2915
g2902
I0
sg2903
I0
sg2904
I0
sg2905
I0
ssg86
(dp2916
g2902
I0
sg2903
I0
sg2904
I0
sg2905
I0
ssg88
(dp2917
g2902
I0
sg2903
I0
sg2904
I1
sg2905
I12
ssg90
I0
sg94
I0
sg95
S'Mortord'
p2918
sg97
I4
sg98
I0
sg105
I11
sg100
I310
sg101
S'HTH'
p2919
sg106
(dp2920
S'A'
p2921
I5
sS'ME'
p2922
I9
sS'RP2'
p2923
I7
sS'E'
p2924
I11
sS'TO'
p2925
I3
sS'RP1'
p2926
I12
sS'JP'
p2927
I2
sS'RP_tot'
p2928
I12
sS'P'
p2929
I3
sS'PA'
p2930
I6
sS'M'
p2931
I9
sS'R'
p2932
I11
sS'TB'
p2933
I0
sS'PL'
p2934
I9
sS'TA'
p2935
I8
ssg124
I0
sg125
I0
sg126
I0
sg128
I0
sg129
F9.777777777777779
sg130
I0
sg139
I0
sg188
I0
sg418
(dp2936
S'A'
p2937
I5
sS'ME'
p2938
I9
sS'RP2'
p2939
I7
sS'E'
p2940
I11
sS'TO'
p2941
I3
sS'RP1'
p2942
I12
sS'JP'
p2943
I2
sS'RP_tot'
p2944
I12
sS'P'
p2945
I3
sS'PA'
p2946
I6
sS'M'
p2947
I9
sS'R'
p2948
I11
sS'TB'
p2949
I0
sS'PL'
p2950
I9
sS'TA'
p2951
I8
ssg189
g2920
sg206
I0
sg61
S'MDL 8'
p2952
sg207
I0
sg208
I0
sg209
I0
sg150
I40
sg210
I7
sg211
I0
sg212
S'OG'
p2953
sbssg124
I0
sg125
I0
sg126
I0
sg127
F13.0
sg128
I0
sg129
F9.481481481481481
sg130
I0
sg138
I0
sg84
(dp2954
g346
I0
sg347
I0
sg348
I0
sg349
I0
ssg188
I0
sg418
(dp2955
g694
I5
sg695
I9
sg696
I7
sg697
I11
sg698
I3
sg699
I12
sg700
I2
sg701
I12
sg702
I3
sg703
I6
sg704
I9
sg705
I11
sg706
I0
sg707
I9
sg708
I8
ssg189
g2892
sg206
I0
sg61
S'MDL 8'
p2956
sg207
I0
sg208
I0
sg209
I0
sg75
I0
sg210
I10
sg139
I0
sg94
I0
sg211
I0
sg212
S'OG'
p2957
sbsg454
(ijoueur
joueur
p2958
(dp2959
g27
I0
sg29
F5.5
sg32
I0
sg71
I1
sg35
I0
sg38
g39
(g40
g41
Ntp2960
Rp2961
(dp2962
g45
I4
sg46
S'*'
p2963
sg48
S'heros'
p2964
sbsg52
(dp2965
S'SR'
p2966
I0
sS'ST'
p2967
I0
sS'CR'
p2968
I0
sS'CT'
p2969
I0
ssg136
(dp2970
g2966
I0
sg2967
I0
sg2968
I0
sg2969
I0
ssg281
I0
sg150
I40
sg62
(dp2971
g152
I1
sg153
I1
sg154
g155
ssg68
I0
sg72
I0
sg73
I0
sg74
I0
sg101
S'HTH'
p2972
sg76
I00
sg123
g39
(g40
g41
Ntp2973
Rp2974
(dp2975
g45
I4
sg46
g2963
sg48
g2964
sbsg77
F12.5
sg99
I00
sg86
(dp2976
g2966
I0
sg2967
I0
sg2968
I0
sg2969
I0
ssg88
(dp2977
g2966
I0
sg2967
I0
sg2968
I1
sg2969
I12
ssg90
I0
sg91
(lp2978
g167
aI01
aI01
aI00
asg94
I0
sg95
S'Mortord (11)'
p2979
sg97
I4
sg98
I0
sg105
I11
sg100
I310
sg131
(S'dummy'
p2980
S'PI'
p2981
S'N8'
p2982
g31
tp2983
sg78
(dp2984
g2966
I0
sg2967
I0
sg2968
I1
sg2969
I12
ssg106
(dp2985
S'A'
p2986
I5
sS'ME'
p2987
I9
sS'RP2'
p2988
I7
sS'E'
p2989
I11
sS'TO'
p2990
I3
sS'RP1'
p2991
I12
sS'JP'
p2992
I2
sS'RP_tot'
p2993
I12
sS'P'
p2994
I3
sS'PA'
p2995
I6
sS'M'
p2996
I9
sS'R'
p2997
I11
sS'TB'
p2998
I0
sS'PL'
p2999
I9
sS'TA'
p3000
I8
ssg124
I0
sg125
I0
sg126
I0
sg127
F12.5
sg128
I0
sg129
F9.777777777777779
sg130
I0
sg138
I0
sg84
(dp3001
g2966
I0
sg2967
I0
sg2968
I0
sg2969
I0
ssg188
I0
sg418
(dp3002
S'A'
p3003
I5
sS'ME'
p3004
I9
sS'RP2'
p3005
I7
sS'E'
p3006
I11
sS'TO'
p3007
I3
sS'RP1'
p3008
I12
sS'JP'
p3009
I2
sS'RP_tot'
p3010
I12
sS'P'
p3011
I3
sS'PA'
p3012
I6
sS'M'
p3013
I9
sS'R'
p3014
I11
sS'TB'
p3015
I0
sS'PL'
p3016
I9
sS'TA'
p3017
I8
ssg189
g2985
sg206
I0
sg61
S'MDL 8'
p3018
sg207
I0
sg208
I0
sg209
I0
sg75
I0
sg210
I7
sg139
I0
sg211
I0
sg212
S'OG'
p3019
sbssg188
I1
sg418
(dp3020
g771
I5
sg772
I9
sg773
I7
sg774
I11
sg775
I3
sg776
I12
sg777
I2
sg778
I12
sg779
I3
sg780
I6
sg781
I9
sg782
I11
sg783
I0
sg784
I9
sg785
I8
ssg206
I0
sg264
(dp3021
sg207
I0
sg61
g2862
sg208
I0
sg209
I0
sg150
I40
sg210
I11
sg139
I0
sg211
I0
sg212
g2872
sbsS'n14'
p3022
(ijoueur
joueur
p3023
(dp3024
g269
F11.793103448275861
sg27
I0
sg28
F11.793103448275861
sg29
F14.0
sg30
g31
sg32
I0
sg33
F214.83581240438988
sg35
I0
sg37
I0
sg38
g39
(g40
g41
Ntp3025
Rp3026
(dp3027
g45
I5
sg46
S'xx'
p3028
sg48
g274
sbsg50
(dp3029
sg52
(dp3030
g277
I5
sg278
I0
sg279
I0
sg280
I0
ssg58
F11.310344827586206
sg59
I0
sg60
I10
sg281
I0
sg62
(dp3031
g64
I1
sg65
I7
sg66
g283
ssg68
I0
sg69
F214.83581240438988
sg70
I00
sg71
I4
sg72
I0
sg73
I0
sg74
I0
sg75
I2
sg76
I00
sg77
F17.5
sg78
(dp3032
g80
I0
sg81
I0
sg82
I0
sg83
I0
ssg84
(dp3033
g80
I0
sg81
I0
sg82
I0
sg83
I0
ssg86
(dp3034
g80
I0
sg81
I0
sg82
I0
sg83
I0
ssg88
(dp3035
g277
I7
sg278
I3
sg279
I0
sg280
I10
ssg90
I0
sg91
(lp3036
g93
aI01
aI01
aI01
asg94
I0
sg95
S'Skergn'
p3037
sg97
I3
sg98
I0
sg99
I00
sg100
I1603
sg101
g102
sg103
I00
sg105
I15
sg106
(dp3038
g291
I16
sg292
I6
sg293
I15
sg294
I10
sg295
I9
sg296
I6
sg297
I4
sg298
I15
sg299
I11
sg300
I13
sg301
I11
sg302
I10
sg303
I4
sg304
I10
sg305
I8
ssg189
(dp3039
g291
I16
sg292
I6
sg293
I15
sg294
I10
sg299
I11
sg296
I6
sg297
I4
sg298
I15
sg295
I9
sg300
I13
sg301
I11
sg302
I10
sg303
I4
sg304
I10
sg305
I8
ssg123
g39
(g40
g41
Ntp3040
Rp3041
(dp3042
g45
I5
sg46
S'xx'
p3043
sg48
g274
sbsg124
I0
sg125
I0
sg126
I0
sg127
I0
sg128
I0
sg129
F11.96551724137931
sg130
I0
sg131
(g307
S'C2'
p3044
S'AR'
p3045
S'AI'
p3046
tp3047
sg136
(dp3048
g277
I5
sg278
I2
sg279
I0
sg280
I32
ssg138
I4
sg139
I0
sg140
(dp3049
S's13'
p3050
(ijoueur
joueur
p3051
(dp3052
g27
I0
sg29
F14.0
sg125
I0
sg32
I0
sg71
I4
sg35
I0
sg38
g3026
sg52
(dp3053
g146
I0
sg147
I0
sg148
I0
sg149
I0
ssg136
g3048
sg61
S'SN 11'
p3054
sg150
I155
sg62
(dp3055
g152
I1
sg153
I1
sg154
g155
ssg68
I0
sg72
I0
sg73
I0
sg74
I0
sg101
g102
sg76
I00
sg123
g3041
sg77
F0.0
sg99
I00
sg86
(dp3056
g162
I3
sg163
I1
sg164
I0
sg165
I14
ssg88
g3035
sg90
I0
sg91
(lp3057
g167
aI01
aI01
aI01
asg78
(dp3058
g162
I0
sg163
I0
sg164
I0
sg165
I0
ssg95
S'Skergn (13)'
p3059
sg97
I3
sg98
I0
sg105
I15
sg100
I1603
sg131
g3047
sg106
(dp3060
g171
I0
sg172
I0
sg173
I0
sg174
I0
sg175
I0
sg176
I0
sg177
I0
sg178
I0
sg179
I0
sg180
I0
sg181
I0
sg182
I0
sg183
I0
sg184
I0
sg185
I0
ssg140
(dp3061
sg124
I0
sg30
g31
sg126
I0
sg127
F17.5
sg128
I0
sg129
F11.310344827586206
sg130
I0
sg138
I0
sg84
(dp3062
g162
I2
sg163
I0
sg164
I0
sg165
I0
ssg188
I0
sg189
(dp3063
g191
I15
sg192
I6
sg193
I14
sg194
I10
sg195
I9
sg196
I6
sg197
I4
sg198
I14
sg199
I11
sg200
I13
sg201
I11
sg202
I10
sg203
I4
sg204
I8
sg205
I8
ssg206
I0
sg207
I0
sg208
I0
sg209
I0
sg75
I0
sg210
I0
sg139
I0
sg94
I0
sg211
I0
sg212
S'S'
p3064
sbsg214
(ijoueur
joueur
p3065
(dp3066
g269
F11.793103448275861
sg27
I0
sg29
F9.5
sg30
g31
sg32
I0
sg71
I3
sg35
I0
sg38
g39
(g40
g41
Ntp3067
Rp3068
(dp3069
g45
I5
sg46
S'xx'
p3070
sg48
g332
sbsg52
(dp3071
g334
I3
sg335
I0
sg336
I0
sg337
I0
ssg136
(dp3072
g334
I2
sg335
I1
sg336
I0
sg337
I18
ssg281
I0
sg150
I155
sg62
(dp3073
g152
I1
sg153
I1
sg154
g155
ssg68
I0
sg72
I7
sg73
I0
sg74
I0
sg101
g229
sg76
I00
sg123
g39
(g40
g41
Ntp3074
Rp3075
(dp3076
g45
I5
sg46
S'xx'
p3077
sg48
g332
sbsg77
F2.5
sg99
I00
sg86
(dp3078
g346
I2
sg347
I1
sg348
I0
sg349
I6
ssg88
(dp3079
g334
I7
sg335
I3
sg336
I0
sg337
I10
ssg90
I0
sg91
(lp3080
g167
aI01
aI01
aI01
asg78
(dp3081
g346
I0
sg347
I1
sg348
I0
sg349
I8
ssg95
S'Skergn (12)'
p3082
sg97
I3
sg98
I0
sg105
I15
sg100
I1603
sg131
(g354
S'C2'
p3083
S'AR'
p3084
S'AI'
p3085
tp3086
sg106
(dp3087
g358
I15
sg359
I6
sg360
I14
sg361
I10
sg362
I11
sg363
I6
sg364
I4
sg365
I14
sg366
I9
sg367
I14
sg368
I11
sg369
I10
sg370
I4
sg371
I10
sg372
I8
ssg140
(dp3088
g374
(ijoueur
joueur
p3089
(dp3090
g27
I0
sg32
I0
sg35
I0
sg38
g39
(g40
g41
Ntp3091
Rp3092
(dp3093
g45
I5
sg46
S'xx'
p3094
sg48
S'seigneur'
p3095
sbsg52
(dp3096
S'SR'
p3097
I0
sS'ST'
p3098
I0
sS'CR'
p3099
I0
sS'CT'
p3100
I0
ssg136
(dp3101
g3097
I0
sg3098
I0
sg3099
I0
sg3100
I12
ssg281
I0
sg68
I0
sg99
I00
sg72
I0
sg73
I0
sg74
I0
sg131
(S'dummy'
p3102
S'C2'
p3103
S'AR'
p3104
S'AI'
p3105
tp3106
sg76
I00
sg123
g39
(g40
g41
Ntp3107
Rp3108
(dp3109
g45
I5
sg46
S'xx'
p3110
sg48
g3095
sbsg78
(dp3111
g3097
I7
sg3098
I2
sg3099
I0
sg3100
I2
ssg84
(dp3112
g3097
I0
sg3098
I0
sg3099
I0
sg3100
I0
ssg86
(dp3113
g3097
I0
sg3098
I0
sg3099
I0
sg3100
I12
ssg88
(dp3114
g3097
I7
sg3098
I2
sg3099
I0
sg3100
I2
ssg90
I0
sg94
I0
sg95
S'Skergn'
p3115
sg97
I3
sg98
I0
sg105
I15
sg100
I1603
sg101
S'HTH'
p3116
sg106
(dp3117
S'A'
p3118
I15
sS'ME'
p3119
I6
sS'RP2'
p3120
I14
sS'E'
p3121
I10
sS'TO'
p3122
I11
sS'RP1'
p3123
I6
sS'JP'
p3124
I4
sS'RP_tot'
p3125
I14
sS'P'
p3126
I9
sS'PA'
p3127
I14
sS'M'
p3128
I11
sS'R'
p3129
I10
sS'TB'
p3130
I4
sS'PL'
p3131
I10
sS'TA'
p3132
I8
ssg124
I0
sg125
I0
sg126
I0
sg128
I0
sg129
F11.793103448275861
sg130
I0
sg139
I0
sg188
I1
sg418
(dp3133
S'A'
p3134
I15
sS'ME'
p3135
I6
sS'RP2'
p3136
I14
sS'E'
p3137
I10
sS'TO'
p3138
I11
sS'RP1'
p3139
I6
sS'JP'
p3140
I4
sS'RP_tot'
p3141
I14
sS'P'
p3142
I9
sS'PA'
p3143
I14
sS'M'
p3144
I11
sS'R'
p3145
I10
sS'TB'
p3146
I4
sS'PL'
p3147
I10
sS'TA'
p3148
I8
ssg189
g3117
sg206
I0
sg61
S'SN 11'
p3149
sg207
I0
sg208
I0
sg209
I0
sg150
I155
sg210
I46
sg211
I1
sg212
S'S'
p3150
sbssg124
I6
sg125
I0
sg126
I0
sg127
F18.0
sg128
I0
sg129
F11.793103448275861
sg130
I0
sg138
I0
sg84
(dp3151
g346
I2
sg347
I0
sg348
I0
sg349
I0
ssg188
I1
sg418
(dp3152
g438
I15
sg439
I6
sg440
I14
sg441
I10
sg442
I9
sg443
I6
sg444
I4
sg445
I14
sg446
I11
sg447
I14
sg448
I11
sg449
I10
sg450
I4
sg451
I10
sg452
I8
ssg189
g3087
sg206
I0
sg61
S'SN 11'
p3153
sg207
I0
sg208
I0
sg209
I0
sg75
I0
sg210
I53
sg139
I0
sg94
I0
sg211
I0
sg212
S'S'
p3154
sbsg454
(ijoueur
joueur
p3155
(dp3156
g27
I0
sg29
F2.5
sg32
I0
sg71
I2
sg35
I0
sg38
g39
(g40
g41
Ntp3157
Rp3158
(dp3159
g45
I5
sg46
S'xx'
p3160
sg48
S'seigneur'
p3161
sbsg52
(dp3162
S'SR'
p3163
I0
sS'ST'
p3164
I0
sS'CR'
p3165
I0
sS'CT'
p3166
I0
ssg136
(dp3167
g3163
I0
sg3164
I0
sg3165
I0
sg3166
I12
ssg281
I0
sg150
I155
sg62
(dp3168
g152
I1
sg153
I1
sg154
g155
ssg68
I0
sg72
I0
sg73
I0
sg74
I0
sg101
S'HTH'
p3169
sg76
I00
sg123
g39
(g40
g41
Ntp3170
Rp3171
(dp3172
g45
I5
sg46
S'xx'
p3173
sg48
g3161
sbsg77
F19.5
sg99
I00
sg86
(dp3174
g3163
I0
sg3164
I0
sg3165
I0
sg3166
I12
ssg88
(dp3175
g3163
I7
sg3164
I2
sg3165
I0
sg3166
I2
ssg90
I0
sg91
(lp3176
g167
aI01
aI01
aI01
asg94
I0
sg95
S'Skergn (11)'
p3177
sg97
I3
sg98
I0
sg105
I15
sg100
I1603
sg131
(S'dummy'
p3178
S'C2'
p3179
S'AR'
p3180
S'AI'
p3181
tp3182
sg78
(dp3183
g3163
I7
sg3164
I2
sg3165
I0
sg3166
I2
ssg106
(dp3184
S'A'
p3185
I15
sS'ME'
p3186
I6
sS'RP2'
p3187
I14
sS'E'
p3188
I10
sS'TO'
p3189
I11
sS'RP1'
p3190
I6
sS'JP'
p3191
I4
sS'RP_tot'
p3192
I14
sS'P'
p3193
I9
sS'PA'
p3194
I14
sS'M'
p3195
I11
sS'R'
p3196
I10
sS'TB'
p3197
I4
sS'PL'
p3198
I10
sS'TA'
p3199
I8
ssg124
I0
sg125
I0
sg126
I0
sg127
F19.5
sg128
I0
sg129
F11.793103448275861
sg130
I0
sg138
I0
sg84
(dp3200
g3163
I0
sg3164
I0
sg3165
I0
sg3166
I0
ssg188
I1
sg418
(dp3201
S'A'
p3202
I15
sS'ME'
p3203
I6
sS'RP2'
p3204
I14
sS'E'
p3205
I10
sS'TO'
p3206
I11
sS'RP1'
p3207
I6
sS'JP'
p3208
I4
sS'RP_tot'
p3209
I14
sS'P'
p3210
I9
sS'PA'
p3211
I14
sS'M'
p3212
I11
sS'R'
p3213
I10
sS'TB'
p3214
I4
sS'PL'
p3215
I10
sS'TA'
p3216
I8
ssg189
g3184
sg206
I0
sg61
S'SN 11'
p3217
sg207
I0
sg208
I0
sg209
I0
sg75
I0
sg210
I46
sg139
I0
sg211
I1
sg212
S'S'
p3218
sbssg188
I3
sg418
(dp3219
g518
I15
sg519
I6
sg520
I14
sg521
I10
sg522
I9
sg523
I6
sg524
I4
sg525
I14
sg526
I11
sg527
I14
sg528
I11
sg529
I10
sg530
I4
sg531
I10
sg532
I8
ssg206
I0
sg264
(dp3220
sg207
I0
sg61
g3054
sg208
I0
sg209
I0
sg150
I155
sg210
I53
sg211
I0
sg212
g3064
sbsS'n15'
p3221
g1621
sS'n18'
p3222
(ijoueur
joueur
p3223
(dp3224
g27
I0
sg29
I0
sg125
I0
sg32
I0
sg71
I0
sg34
g31
sg35
I0
sg36
g31
sg38
g39
(g40
g41
Ntp3225
Rp3226
(dp3227
g45
I4
sg46
S'*'
p3228
sg48
S'heros'
p3229
sbsg52
(dp3230
S'SR'
p3231
I0
sS'CT'
p3232
I0
sS'CR'
p3233
I0
sS'ST'
p3234
I0
ssg136
(dp3235
g3231
I0
sg3232
I0
sg3233
I0
sg3234
I0
ssg75
I0
sg61
g31
sg62
(dp3236
S'couleur'
p3237
I1
sS'r_nr'
p3238
S'n'
p3239
sS'valeur'
p3240
I0
ssg68
I0
sg69
I0
sg70
I01
sg33
I0
sg72
I0
sg73
I0
sg74
I0
sg131
(S'dummy'
p3241
S'N8'
p3242
S'TL'
p3243
S'DL'
p3244
tp3245
sg76
I00
sg123
g39
(g40
g41
Ntp3246
Rp3247
(dp3248
g45
I2
sg46
S'<<'
p3249
sg48
S'special'
p3250
sbsg78
(dp3251
g3231
I0
sg3232
I0
sg3233
I0
sg3234
I0
ssg99
I00
sg86
(dp3252
g3231
I0
sg3232
I0
sg3233
I0
sg3234
I0
ssg88
(dp3253
g3231
I0
sg3232
I0
sg3233
I0
sg3234
I0
ssg90
I0
sg91
(lp3254
g3241
aI01
aI01
aI01
asg77
I0
sg95
S'Laela'
p3255
sg97
I14
sg98
I0
sg105
g1855
(g1859
S'\x19\x00\x00\x00'
p3256
tp3257
Rp3258
sg100
I31
sg101
S'HTH'
p3259
sg103
I00
sg104
g31
sg211
I0
sg106
(dp3260
S'RP1'
p3261
I10
sS'ME'
p3262
I8
sS'RP2'
p3263
I5
sS'E'
p3264
I9
sS'TO'
p3265
I12
sS'M'
p3266
I8
sS'JP'
p3267
I4
sS'RP_tot'
p3268
I10
sS'P'
p3269
I7
sS'PA'
p3270
I8
sS'A'
p3271
I9
sS'R'
p3272
I8
sS'TB'
p3273
I2
sS'PL'
p3274
I11
sS'TA'
p3275
I6
ssg140
(dp3276
sg124
I0
sg30
g31
sg126
I0
sg127
I0
sg129
F9.666666666666666
sg130
I0
sg138
I0
sg84
(dp3277
g3231
I0
sg3232
I0
sg3233
I0
sg3234
I0
ssg188
I0
sg189
(dp3278
g3261
I10
sg3262
I8
sg3263
I5
sg3264
I9
sg3269
I7
sg3267
I4
sg3266
I8
sg3268
I10
sg3265
I12
sg3270
I8
sg3271
I9
sg3272
I8
sg3273
I2
sg3274
I11
sg3275
I6
ssg206
I0
sg207
I0
sg208
I0
sg209
I0
sg150
I3
sg210
I0
sg139
I0
sg94
I0
sg212
S'HE'
p3279
sbsS'n19'
p3280
(ijoueur
joueur
p3281
(dp3282
g269
F9.833333333333334
sg27
I0
sg28
F9.833333333333334
sg29
F6.5
sg30
g31
sg32
I0
sg33
F136.62874254767814
sg35
I0
sg37
I0
sg38
g39
(g40
g41
Ntp3283
Rp3284
(dp3285
g45
I4
sg46
g540
sg48
g541
sbsg50
(dp3286
sg52
(dp3287
g544
I0
sg545
I0
sg546
I10
sg547
I11
ssg58
F9.63888888888889
sg59
I0
sg60
I10
sg281
I0
sg62
(dp3288
g64
I4
sg65
I3
sg66
g67
ssg68
I0
sg69
F136.62874254767814
sg70
I00
sg71
I3
sg72
I0
sg73
I0
sg74
I0
sg75
I0
sg76
I00
sg77
F8.5
sg78
(dp3289
g80
I0
sg81
I0
sg82
I0
sg83
I0
ssg84
(dp3290
g80
I0
sg81
I0
sg82
I0
sg83
I0
ssg86
(dp3291
g80
I0
sg81
I0
sg82
I0
sg83
I0
ssg88
(dp3292
g544
I0
sg545
I0
sg546
I9
sg547
I7
ssg90
I0
sg91
(lp3293
g93
aI01
aI01
aI00
asg94
I0
sg95
S'Ibign'
p3294
sg97
I6
sg98
I0
sg99
I00
sg100
I181
sg101
g102
sg103
I00
sg105
I18
sg106
(dp3295
g556
I10
sg557
I8
sg558
I6
sg559
I10
sg560
I3
sg561
I10
sg562
I4
sg563
I10
sg564
I10
sg565
I8
sg566
I8
sg567
I9
sg568
I3
sg569
I10
sg570
I4
ssg189
(dp3296
g556
I10
sg557
I8
sg558
I6
sg559
I10
sg564
I10
sg561
I10
sg562
I4
sg563
I10
sg560
I3
sg565
I8
sg566
I8
sg567
I9
sg568
I3
sg569
I10
sg570
I4
ssg123
g39
(g40
g41
Ntp3297
Rp3298
(dp3299
g45
I4
sg46
g540
sg48
g541
sbsg124
I0
sg125
I0
sg126
I1
sg127
I0
sg128
I0
sg129
F9.527777777777779
sg130
I0
sg131
(g307
S'N8'
p3300
S'TL'
p3301
g31
tp3302
sg136
(dp3303
g544
I0
sg545
I0
sg546
I0
sg547
I0
ssg138
I-1
sg139
I0
sg140
(dp3304
S's13'
p3305
(ijoueur
joueur
p3306
(dp3307
g27
I0
sg29
F6.5
sg125
I0
sg32
I0
sg71
I3
sg35
I0
sg38
g3284
sg52
(dp3308
g146
I0
sg147
I0
sg148
I0
sg149
I0
ssg136
g3303
sg61
S'MRB 9;MDL 11'
p3309
sg150
I18
sg62
(dp3310
g152
I1
sg153
I1
sg154
g155
ssg68
I0
sg72
I0
sg73
I0
sg74
I0
sg101
g102
sg76
I00
sg123
g3298
sg77
F0.0
sg99
I00
sg86
(dp3311
g162
I0
sg163
I0
sg164
I0
sg165
I0
ssg88
g3292
sg90
I0
sg91
(lp3312
g167
aI01
aI01
aI00
asg78
(dp3313
g162
I0
sg163
I0
sg164
I4
sg165
I4
ssg95
S'Ibign (13)'
p3314
sg97
I6
sg98
I0
sg105
I18
sg100
I181
sg131
g3302
sg106
(dp3315
g171
I0
sg172
I0
sg173
I0
sg174
I0
sg175
I0
sg176
I0
sg177
I0
sg178
I0
sg179
I0
sg180
I0
sg181
I0
sg182
I0
sg183
I0
sg184
I0
sg185
I0
ssg140
(dp3316
sg124
I0
sg30
g31
sg126
I0
sg127
F8.5
sg128
I0
sg129
F9.63888888888889
sg130
I0
sg138
I0
sg84
(dp3317
g162
I0
sg163
I0
sg164
I5
sg165
I0
ssg188
I0
sg189
(dp3318
g191
I10
sg192
I8
sg193
I6
sg194
I11
sg195
I3
sg196
I10
sg197
I4
sg198
I10
sg199
I10
sg200
I8
sg201
I8
sg202
I9
sg203
I3
sg204
I10
sg205
I4
ssg206
I0
sg207
I0
sg208
I0
sg209
I0
sg75
I0
sg210
I0
sg139
I0
sg94
I0
sg211
I0
sg212
S'HB'
p3319
sbsg214
(ijoueur
joueur
p3320
(dp3321
g269
F9.833333333333334
sg27
I0
sg29
F7.0
sg30
g31
sg32
I0
sg71
I2
sg35
I0
sg38
g39
(g40
g41
Ntp3322
Rp3323
(dp3324
g45
I4
sg46
g598
sg48
g599
sbsg52
(dp3325
g601
I0
sg602
I0
sg603
I5
sg604
I11
ssg136
(dp3326
g601
I0
sg602
I0
sg603
I0
sg604
I0
ssg281
I0
sg150
I18
sg62
(dp3327
g152
I1
sg153
I1
sg154
g155
ssg68
I0
sg72
I2
sg73
I0
sg74
I0
sg101
g229
sg76
I00
sg123
g39
(g40
g41
Ntp3328
Rp3329
(dp3330
g45
I4
sg46
g598
sg48
g599
sbsg77
F2.5
sg99
I00
sg86
(dp3331
g346
I0
sg347
I0
sg348
I0
sg349
I0
ssg88
(dp3332
g601
I0
sg602
I0
sg603
I5
sg604
I3
ssg90
I0
sg91
(lp3333
g167
aI01
aI01
aI00
asg78
(dp3334
g346
I0
sg347
I0
sg348
I4
sg349
I3
ssg95
S'Ibign (12)'
p3335
sg97
I6
sg98
I0
sg105
I18
sg100
I181
sg131
(g354
S'N8'
p3336
S'TL'
p3337
g31
tp3338
sg106
(dp3339
g618
I10
sg619
I8
sg620
I6
sg621
I11
sg622
I10
sg623
I10
sg624
I4
sg625
I10
sg626
I3
sg627
I8
sg628
I8
sg629
I10
sg630
I3
sg631
I10
sg632
I4
ssg140
(dp3340
g374
(ijoueur
joueur
p3341
(dp3342
g27
I0
sg32
I0
sg35
I0
sg38
g39
(g40
g41
Ntp3343
Rp3344
(dp3345
g45
I4
sg46
S'*'
p3346
sg48
S'heros'
p3347
sbsg52
(dp3348
S'SR'
p3349
I0
sS'ST'
p3350
I0
sS'CR'
p3351
I1
sS'CT'
p3352
I8
ssg136
(dp3353
g3349
I0
sg3350
I0
sg3351
I0
sg3352
I0
ssg281
I0
sg68
I0
sg99
I00
sg72
I1
sg73
I0
sg74
I0
sg131
(S'dummy'
p3354
S'N8'
p3355
S'TL'
p3356
g31
tp3357
sg76
I01
sg123
g39
(g40
g41
Ntp3358
Rp3359
(dp3360
g45
I4
sg46
g3346
sg48
g3347
sbsg78
(dp3361
g3349
I0
sg3350
I0
sg3351
I1
sg3352
I0
ssg84
(dp3362
g3349
I0
sg3350
I0
sg3351
I1
sg3352
I8
ssg86
(dp3363
g3349
I0
sg3350
I0
sg3351
I0
sg3352
I0
ssg88
(dp3364
g3349
I0
sg3350
I0
sg3351
I1
sg3352
I0
ssg90
I0
sg94
I0
sg95
S'Ibign'
p3365
sg97
I6
sg98
I0
sg105
I18
sg100
I181
sg101
S'HTH'
p3366
sg106
(dp3367
S'A'
p3368
I10
sS'ME'
p3369
I8
sS'RP2'
p3370
I6
sS'E'
p3371
I11
sS'TO'
p3372
I10
sS'RP1'
p3373
I10
sS'JP'
p3374
I4
sS'RP_tot'
p3375
I10
sS'P'
p3376
I3
sS'PA'
p3377
I8
sS'M'
p3378
I8
sS'R'
p3379
I10
sS'TB'
p3380
I3
sS'PL'
p3381
I10
sS'TA'
p3382
I4
ssg124
I0
sg125
I0
sg126
I0
sg128
I0
sg129
F9.833333333333334
sg130
I0
sg139
I0
sg188
I0
sg418
(dp3383
S'A'
p3384
I10
sS'ME'
p3385
I8
sS'RP2'
p3386
I6
sS'E'
p3387
I11
sS'TO'
p3388
I10
sS'RP1'
p3389
I10
sS'JP'
p3390
I4
sS'RP_tot'
p3391
I10
sS'P'
p3392
I3
sS'PA'
p3393
I8
sS'M'
p3394
I8
sS'R'
p3395
I10
sS'TB'
p3396
I3
sS'PL'
p3397
I10
sS'TA'
p3398
I4
ssg189
g3367
sg206
I0
sg61
S'MRB 9;MDL 11'
p3399
sg207
I0
sg208
I0
sg209
I0
sg150
I18
sg210
I4
sg211
I0
sg212
S'HB'
p3400
sbssg124
I0
sg125
I0
sg126
I0
sg127
F10.0
sg128
I0
sg129
F9.833333333333334
sg130
I0
sg138
I0
sg84
(dp3401
g346
I0
sg347
I0
sg348
I4
sg349
I3
ssg188
I0
sg418
(dp3402
g694
I10
sg695
I8
sg696
I6
sg697
I11
sg698
I3
sg699
I10
sg700
I4
sg701
I10
sg702
I10
sg703
I8
sg704
I8
sg705
I10
sg706
I3
sg707
I10
sg708
I4
ssg189
g3339
sg206
I0
sg61
S'MRB 9;MDL 11'
p3403
sg207
I0
sg208
I0
sg209
I0
sg75
I0
sg210
I6
sg139
I0
sg94
I0
sg211
I0
sg212
S'HB'
p3404
sbsg454
(ijoueur
joueur
p3405
(dp3406
g27
I0
sg29
F4.0
sg32
I0
sg71
I1
sg35
I0
sg38
g39
(g40
g41
Ntp3407
Rp3408
(dp3409
g45
I4
sg46
S'*'
p3410
sg48
S'heros'
p3411
sbsg52
(dp3412
S'SR'
p3413
I0
sS'ST'
p3414
I0
sS'CR'
p3415
I1
sS'CT'
p3416
I8
ssg136
(dp3417
g3413
I0
sg3414
I0
sg3415
I0
sg3416
I0
ssg281
I0
sg150
I18
sg62
(dp3418
g152
I1
sg153
I1
sg154
g155
ssg68
I0
sg72
I1
sg73
I0
sg74
I0
sg101
S'HTH'
p3419
sg76
I01
sg123
g39
(g40
g41
Ntp3420
Rp3421
(dp3422
g45
I4
sg46
g3410
sg48
g3411
sbsg77
F9.0
sg99
I00
sg86
(dp3423
g3413
I0
sg3414
I0
sg3415
I0
sg3416
I0
ssg88
(dp3424
g3413
I0
sg3414
I0
sg3415
I1
sg3416
I0
ssg90
I0
sg91
(lp3425
g167
aI01
aI01
aI00
asg94
I0
sg95
S'Ibign (11)'
p3426
sg97
I6
sg98
I0
sg105
I18
sg100
I181
sg131
(S'dummy'
p3427
S'N8'
p3428
S'TL'
p3429
g31
tp3430
sg78
(dp3431
g3413
I0
sg3414
I0
sg3415
I1
sg3416
I0
ssg106
(dp3432
S'A'
p3433
I10
sS'ME'
p3434
I8
sS'RP2'
p3435
I6
sS'E'
p3436
I11
sS'TO'
p3437
I10
sS'RP1'
p3438
I10
sS'JP'
p3439
I4
sS'RP_tot'
p3440
I10
sS'P'
p3441
I3
sS'PA'
p3442
I8
sS'M'
p3443
I8
sS'R'
p3444
I10
sS'TB'
p3445
I3
sS'PL'
p3446
I10
sS'TA'
p3447
I4
ssg124
I0
sg125
I0
sg126
I0
sg127
F9.0
sg128
I0
sg129
F9.833333333333334
sg130
I0
sg138
I0
sg84
(dp3448
g3413
I0
sg3414
I0
sg3415
I1
sg3416
I8
ssg188
I0
sg418
(dp3449
S'A'
p3450
I10
sS'ME'
p3451
I8
sS'RP2'
p3452
I6
sS'E'
p3453
I11
sS'TO'
p3454
I10
sS'RP1'
p3455
I10
sS'JP'
p3456
I4
sS'RP_tot'
p3457
I10
sS'P'
p3458
I3
sS'PA'
p3459
I8
sS'M'
p3460
I8
sS'R'
p3461
I10
sS'TB'
p3462
I3
sS'PL'
p3463
I10
sS'TA'
p3464
I4
ssg189
g3432
sg206
I0
sg61
S'MRB 9;MDL 11'
p3465
sg207
I0
sg208
I0
sg209
I0
sg75
I0
sg210
I4
sg139
I0
sg211
I0
sg212
S'HB'
p3466
sbssg188
I0
sg418
(dp3467
g771
I10
sg772
I8
sg773
I6
sg774
I11
sg775
I3
sg776
I10
sg777
I4
sg778
I10
sg779
I10
sg780
I8
sg781
I8
sg782
I10
sg783
I3
sg784
I10
sg785
I4
ssg206
I0
sg264
(dp3468
sg207
I0
sg61
g3309
sg208
I0
sg209
I0
sg150
I18
sg210
I6
sg211
I0
sg212
g3319
sbsS'n22'
p3469
(ijoueur
joueur
p3470
(dp3471
g27
I0
sg29
F1.5
sg125
I0
sg32
I0
sg33
F139.42732503981478
sg34
g31
sg35
I0
sg36
g31
sg37
I0
sg38
g39
(g40
g41
Ntp3472
Rp3473
(dp3474
g45
I1
sg46
S'>'
p3475
sg48
S'base'
p3476
sbsg50
(dp3477
sg52
(dp3478
g1250
I0
sg1251
I0
sg1252
I0
sg1253
I0
ssg58
F10.161290322580646
sg59
I0
sg60
I10
sg61
g31
sg62
(dp3479
g64
I1
sg65
I12
sg66
g283
ssg68
I0
sg69
F139.42732503981478
sg70
I01
sg71
I3
sg72
I0
sg73
I0
sg74
I0
sg75
I3
sg76
I00
sg77
F8.5
sg78
(dp3480
g80
I0
sg81
I0
sg82
I0
sg83
I0
ssg84
(dp3481
g80
I0
sg81
I0
sg82
I0
sg83
I0
ssg86
(dp3482
g80
I0
sg81
I0
sg82
I0
sg83
I0
ssg88
(dp3483
g1250
I0
sg1251
I0
sg1252
I9
sg1253
I4
ssg90
I0
sg91
(lp3484
g93
aI01
aI00
aI00
asg94
I0
sg95
S'Haohaeldil'
p3485
sg97
I13
sg98
I0
sg99
I00
sg100
I17
sg101
g102
sg103
I00
sg104
g31
sg105
I21
sg106
(dp3486
g1262
I8
sg1263
I3
sg1264
I12
sg1265
I10
sg1266
I9
sg1267
I9
sg1268
I11
sg1269
I13
sg1270
I6
sg1271
I12
sg1272
I11
sg1273
I7
sg1274
I6
sg1275
I9
sg1276
I3
ssg123
g3473
sg124
I0
sg30
g31
sg126
I0
sg127
I0
sg128
I0
sg129
F10.838709677419354
sg130
I0
sg131
(g1298
S'AI'
p3487
g31
g31
tp3488
sg136
(dp3489
g1250
I0
sg1251
I0
sg1252
I0
sg1253
I0
ssg138
I6
sg139
I0
sg140
(dp3490
S's13'
p3491
(ijoueur
joueur
p3492
(dp3493
g27
I0
sg29
F4.5
sg125
I0
sg32
I0
sg71
I3
sg35
I0
sg38
g3473
sg52
(dp3494
g146
I0
sg147
I0
sg148
I0
sg149
I0
ssg136
g3489
sg61
g31
sg150
I1
sg62
(dp3495
g152
I1
sg153
I1
sg154
g155
ssg68
I0
sg72
I0
sg73
I0
sg74
I0
sg101
g102
sg76
I00
sg123
g3473
sg77
F8.5
sg99
I00
sg86
(dp3496
g1250
I0
sg1251
I0
sg1252
I0
sg1253
I0
ssg88
g3483
sg90
I0
sg91
(lp3497
g167
aI01
aI00
aI00
asg78
(dp3498
g1250
I0
sg1251
I0
sg1252
I9
sg1253
I4
ssg95
S'Haohaeldil (13)'
p3499
sg97
I13
sg98
I0
sg105
I21
sg100
I17
sg131
g3488
sg106
(dp3500
g171
I0
sg172
I0
sg173
I0
sg174
I0
sg175
I0
sg176
I0
sg177
I0
sg178
I0
sg179
I0
sg180
I0
sg181
I0
sg182
I0
sg183
I0
sg184
I0
sg185
I0
ssg140
(dp3501
sg124
I0
sg30
g31
sg126
I0
sg127
F8.5
sg128
I0
sg129
F10.161290322580646
sg130
I0
sg138
I0
sg84
(dp3502
g1250
I0
sg1251
I0
sg1252
I0
sg1253
I0
ssg188
I0
sg189
(dp3503
g191
I10
sg192
I3
sg193
I11
sg194
I10
sg195
I8
sg196
I8
sg197
I8
sg198
I12
sg199
I6
sg200
I11
sg201
I11
sg202
I7
sg203
I6
sg204
I8
sg205
I3
ssg206
I0
sg207
I0
sg208
I0
sg209
I0
sg75
I0
sg210
I0
sg139
I0
sg94
I0
sg211
I0
sg212
g1304
sbssg188
I0
sg189
(dp3504
g1262
I8
sg1263
I3
sg1264
I12
sg1265
I10
sg1270
I6
sg1268
I11
sg1267
I9
sg1269
I13
sg1266
I9
sg1271
I12
sg1272
I11
sg1273
I7
sg1274
I6
sg1275
I9
sg1276
I3
ssg206
I0
sg207
I0
sg208
I0
sg209
I0
sg150
I1
sg210
I0
sg211
I0
sg212
g1304
sbsS'n21'
p3505
(ijoueur
joueur
p3506
(dp3507
g27
I0
sg28
F10.212121212121213
sg29
F4.0
sg30
g31
sg32
I0
sg33
F141.3628335546339
sg34
g31
sg35
I0
sg36
g31
sg37
I0
sg38
g39
(g40
g41
Ntp3508
Rp3509
(dp3510
g45
I1
sg46
S'<'
p3511
sg48
S'base'
p3512
sbsg50
(dp3513
sg52
(dp3514
g54
I0
sg55
I0
sg56
I0
sg57
I0
ssg58
F10.454545454545455
sg59
I0
sg60
I10
sg61
g31
sg62
(dp3515
g64
Nsg65
I14
sg66
g67
ssg68
I0
sg69
F141.3628335546339
sg70
I01
sg71
I5
sg72
I0
sg73
I0
sg74
I0
sg75
I1
sg76
I00
sg77
F9.0
sg78
(dp3516
g80
I0
sg81
I0
sg82
I0
sg83
I0
ssg84
(dp3517
g80
I0
sg81
I0
sg82
I0
sg83
I0
ssg86
(dp3518
g80
I0
sg81
I0
sg82
I0
sg83
I0
ssg88
(dp3519
g54
I7
sg55
I0
sg56
I5
sg57
I14
ssg90
I0
sg91
(lp3520
g93
aI01
aI00
aI00
asg94
I0
sg95
S'Omenssoe'
p3521
sg97
I12
sg98
I0
sg99
I00
sg100
I36
sg101
g102
sg103
I00
sg104
g31
sg105
I23
sg106
(dp3522
g108
I8
sg109
I4
sg110
I11
sg111
I10
sg112
I10
sg113
I8
sg114
I11
sg115
I12
sg116
I7
sg117
I10
sg118
I13
sg119
I6
sg120
I9
sg121
I10
sg122
I5
ssg123
g39
(g40
g41
Ntp3523
Rp3524
(dp3525
g45
I2
sg46
S'^^'
p3526
sg48
S'special'
p3527
sbsg124
I0
sg125
I0
sg126
I0
sg127
I0
sg128
I0
sg129
F10.727272727272727
sg130
I0
sg131
(g132
S'AR'
p3528
g31
g31
tp3529
sg136
(dp3530
g54
I0
sg55
I0
sg56
I0
sg57
I0
ssg138
g1282
sg139
I0
sg140
(dp3531
S's13'
p3532
(ijoueur
joueur
p3533
(dp3534
g27
I0
sg29
F5.0
sg125
I0
sg32
I0
sg71
I5
sg35
I0
sg38
g3509
sg52
(dp3535
g146
I0
sg147
I0
sg148
I0
sg149
I0
ssg136
g3530
sg61
g31
sg150
I3
sg62
(dp3536
g152
I1
sg153
I1
sg154
g155
ssg68
I0
sg72
I0
sg73
I0
sg74
I0
sg101
g102
sg76
I00
sg123
g3509
sg77
F0.0
sg99
I00
sg86
(dp3537
g162
I0
sg163
I0
sg164
I0
sg165
I0
ssg88
g3519
sg90
I0
sg91
(lp3538
g167
aI01
aI00
aI00
asg78
(dp3539
g162
I7
sg163
I0
sg164
I1
sg165
I5
ssg95
S'Omenssoe (13)'
p3540
sg97
I12
sg98
I0
sg105
I23
sg100
I36
sg131
g3529
sg106
(dp3541
g171
I0
sg172
I0
sg173
I0
sg174
I0
sg175
I0
sg176
I0
sg177
I0
sg178
I0
sg179
I0
sg180
I0
sg181
I0
sg182
I0
sg183
I0
sg184
I0
sg185
I0
ssg140
(dp3542
sg124
I0
sg30
g31
sg126
I0
sg127
F9.0
sg128
I0
sg129
F10.454545454545455
sg130
I0
sg138
I0
sg84
(dp3543
g162
I0
sg163
I0
sg164
I0
sg165
I0
ssg188
I0
sg189
(dp3544
g191
I12
sg192
I4
sg193
I11
sg194
I10
sg195
I10
sg196
I8
sg197
I8
sg198
I12
sg199
I6
sg200
I9
sg201
I11
sg202
I6
sg203
I9
sg204
I10
sg205
I5
ssg206
I0
sg207
I0
sg208
I0
sg209
I0
sg75
I0
sg210
I0
sg139
I0
sg94
I0
sg211
I0
sg212
g213
sbsg214
(ijoueur
joueur
p3545
(dp3546
g27
I0
sg29
F1.0
sg30
g31
sg32
I0
sg71
I4
sg34
g31
sg35
I0
sg36
g31
sg38
g39
(g40
g41
Ntp3547
Rp3548
(dp3549
g45
I1
sg46
S'<'
p3550
sg48
S'base'
p3551
sbsg52
(dp3552
g223
I0
sg224
I0
sg225
I0
sg226
I0
ssg136
(dp3553
g223
I0
sg224
I0
sg225
I0
sg226
I0
ssg61
g31
sg62
(dp3554
g152
I1
sg153
I1
sg154
g155
ssg68
I0
sg72
I2
sg73
I0
sg74
I0
sg101
g229
sg76
I00
sg77
F11.0
sg78
(dp3555
g223
I0
sg224
I0
sg225
I4
sg226
I9
ssg99
I01
sg86
(dp3556
g223
I0
sg224
I0
sg225
I0
sg226
I0
ssg88
(dp3557
g223
I0
sg224
I0
sg225
I4
sg226
I9
ssg90
I0
sg91
(lp3558
g167
aI01
aI00
aI00
asg94
I0
sg95
S'Omenssoe (12)'
p3559
sg97
I12
sg98
I0
sg105
I23
sg100
I36
sg75
I0
sg104
g31
sg106
(dp3560
g236
I8
sg237
I4
sg238
I10
sg239
I10
sg240
I6
sg241
I11
sg242
I8
sg243
I11
sg244
I10
sg245
I8
sg246
I12
sg247
I6
sg248
I8
sg249
I10
sg250
I5
ssg123
g3548
sg124
I0
sg125
I0
sg126
I0
sg127
F11.0
sg128
I0
sg129
F10.212121212121213
sg130
I0
sg131
(g256
S'AR'
p3561
g31
g31
tp3562
sg138
I0
sg84
(dp3563
g223
I0
sg224
I0
sg225
I0
sg226
I0
ssg140
(dp3564
sg188
I0
sg189
g3560
sg206
I0
sg207
I0
sg208
I0
sg209
I0
sg150
I3
sg210
I2
sg139
I0
sg211
I0
sg212
g262
sbssg188
I0
sg189
(dp3565
g108
I8
sg109
I4
sg110
I11
sg111
I10
sg116
I7
sg114
I11
sg113
I8
sg115
I12
sg112
I10
sg117
I10
sg118
I13
sg119
I6
sg120
I9
sg121
I10
sg122
I5
ssg206
I0
sg264
(dp3566
sg207
I0
sg208
I0
sg209
I0
sg150
I3
sg210
I2
sg211
I0
sg212
g213
sbsS'n20'
p3567
g1241
sS'n8'
p3568
(ijoueur
joueur
p3569
(dp3570
g269
F12.137931034482758
sg27
I0
sg28
F11.793103448275861
sg29
F8.0
sg30
g31
sg32
I0
sg33
F173.26381028346435
sg35
I0
sg37
I0
sg38
g39
(g40
g41
Ntp3571
Rp3572
(dp3573
g45
I5
sg46
S'xx'
p3574
sg48
g274
sbsg50
(dp3575
sg52
(dp3576
g544
I1
sg545
I0
sg546
I0
sg547
I0
ssg58
F11.379310344827585
sg59
I0
sg60
I10
sg281
I0
sg62
(dp3577
g64
I1
sg65
I6
sg66
g283
ssg68
I0
sg69
F173.26381028346435
sg70
I00
sg71
I5
sg72
I0
sg73
I0
sg74
I0
sg75
I2
sg76
I00
sg77
F16.0
sg78
(dp3578
g80
I0
sg81
I0
sg82
I0
sg83
I0
ssg84
(dp3579
g80
I0
sg81
I0
sg82
I0
sg83
I0
ssg86
(dp3580
g80
I0
sg81
I0
sg82
I0
sg83
I0
ssg88
(dp3581
g544
I0
sg545
I17
sg546
I1
sg547
I36
ssg90
I0
sg91
(lp3582
g93
aI01
aI01
aI00
asg94
I0
sg95
S"Rak'Daq"
p3583
sg97
I5
sg98
I0
sg99
I00
sg100
I525
sg101
g102
sg103
I00
sg105
I15
sg106
(dp3584
g556
I9
sg557
I14
sg558
I10
sg559
I13
sg560
I4
sg561
I14
sg562
I2
sg563
I15
sg564
I8
sg565
I7
sg566
I6
sg567
I13
sg568
I2
sg569
I9
sg570
I8
ssg189
(dp3585
g556
I9
sg557
I14
sg558
I10
sg559
I13
sg564
I8
sg561
I14
sg562
I2
sg563
I15
sg560
I4
sg565
I7
sg566
I6
sg567
I13
sg568
I2
sg569
I9
sg570
I8
ssg123
g39
(g40
g41
Ntp3586
Rp3587
(dp3588
g45
I5
sg46
S'xx'
p3589
sg48
g274
sbsg124
I0
sg125
I0
sg126
I1
sg127
I0
sg128
I0
sg129
F11.89655172413793
sg130
I0
sg131
(g307
S'N8'
p3590
S'TL'
p3591
g31
tp3592
sg136
(dp3593
g544
I0
sg545
I0
sg546
I0
sg547
I0
ssg138
I4
sg139
I0
sg140
(dp3594
S's13'
p3595
(ijoueur
joueur
p3596
(dp3597
g27
I0
sg29
F8.0
sg125
I0
sg32
I0
sg71
I5
sg35
I0
sg38
g3572
sg52
(dp3598
g146
I0
sg147
I0
sg148
I0
sg149
I0
ssg136
g3593
sg61
g31
sg150
I70
sg62
(dp3599
g152
I1
sg153
I1
sg154
g155
ssg68
I0
sg72
I1
sg73
I0
sg74
I0
sg101
g102
sg76
I00
sg123
g3587
sg77
F0.0
sg99
I00
sg86
(dp3600
g162
I0
sg163
I0
sg164
I0
sg165
I0
ssg88
g3581
sg90
I0
sg91
(lp3601
g167
aI01
aI01
aI00
asg78
(dp3602
g162
I0
sg163
I6
sg164
I0
sg165
I10
ssg95
S"Rak'Daq (13)"
p3603
sg97
I5
sg98
I0
sg105
I15
sg100
I525
sg131
g3592
sg106
(dp3604
g171
I0
sg172
I0
sg173
I0
sg174
I0
sg175
I0
sg176
I0
sg177
I0
sg178
I0
sg179
I0
sg180
I0
sg181
I0
sg182
I0
sg183
I0
sg184
I0
sg185
I0
ssg140
(dp3605
sg124
I0
sg30
g31
sg126
I0
sg127
F16.0
sg128
I0
sg129
F11.379310344827585
sg130
I0
sg138
I0
sg84
(dp3606
g162
I0
sg163
I0
sg164
I0
sg165
I0
ssg188
I0
sg189
(dp3607
g191
I9
sg192
I13
sg193
I9
sg194
I13
sg195
I4
sg196
I14
sg197
I2
sg198
I15
sg199
I8
sg200
I7
sg201
I6
sg202
I12
sg203
I2
sg204
I8
sg205
I8
ssg206
I0
sg207
I0
sg208
I0
sg209
I0
sg75
I0
sg210
I0
sg139
I0
sg94
I0
sg211
I0
sg212
S'HL'
p3608
sbsg214
(ijoueur
joueur
p3609
(dp3610
g269
F12.137931034482758
sg27
I0
sg29
F4.0
sg30
g31
sg32
I0
sg71
I4
sg35
I0
sg38
g39
(g40
g41
Ntp3611
Rp3612
(dp3613
g45
I5
sg46
S'xx'
p3614
sg48
g332
sbsg52
(dp3615
g601
I1
sg602
I0
sg603
I0
sg604
I0
ssg136
(dp3616
g601
I0
sg602
I0
sg603
I0
sg604
I0
ssg281
I0
sg150
I70
sg62
(dp3617
g152
I1
sg153
I1
sg154
g155
ssg68
I0
sg72
I2
sg73
I0
sg74
I0
sg101
g229
sg76
I00
sg123
g39
(g40
g41
Ntp3618
Rp3619
(dp3620
g45
I5
sg46
S'xx'
p3621
sg48
g332
sbsg77
F2.5
sg99
I00
sg86
(dp3622
g346
I0
sg347
I0
sg348
I0
sg349
I0
ssg88
(dp3623
g601
I0
sg602
I11
sg603
I1
sg604
I26
ssg90
I0
sg91
(lp3624
g167
aI01
aI01
aI00
asg78
(dp3625
g346
I0
sg347
I5
sg348
I0
sg349
I13
ssg95
S"Rak'Daq (12)"
p3626
sg97
I5
sg98
I0
sg105
I15
sg100
I525
sg131
(g354
S'N8'
p3627
S'TL'
p3628
g31
tp3629
sg106
(dp3630
g618
I11
sg619
I13
sg620
I9
sg621
I13
sg622
I8
sg623
I14
sg624
I2
sg625
I16
sg626
I4
sg627
I7
sg628
I7
sg629
I12
sg630
I2
sg631
I8
sg632
I8
ssg140
(dp3631
g374
(ijoueur
joueur
p3632
(dp3633
g27
I0
sg32
I0
sg35
I0
sg38
g39
(g40
g41
Ntp3634
Rp3635
(dp3636
g45
I5
sg46
S'xx'
p3637
sg48
S'seigneur'
p3638
sbsg52
(dp3639
S'SR'
p3640
I0
sS'ST'
p3641
I0
sS'CR'
p3642
I0
sS'CT'
p3643
I0
ssg136
(dp3644
g3640
I0
sg3641
I0
sg3642
I0
sg3643
I0
ssg281
I0
sg68
I0
sg99
I00
sg72
I1
sg73
I0
sg74
I0
sg131
(S'dummy'
p3645
S'N8'
p3646
S'TL'
p3647
g31
tp3648
sg76
I00
sg123
g39
(g40
g41
Ntp3649
Rp3650
(dp3651
g45
I5
sg46
S'xx'
p3652
sg48
g3638
sbsg78
(dp3653
g3640
I0
sg3641
I6
sg3642
I1
sg3643
I13
ssg84
(dp3654
g3640
I0
sg3641
I0
sg3642
I0
sg3643
I0
ssg86
(dp3655
g3640
I0
sg3641
I0
sg3642
I0
sg3643
I0
ssg88
(dp3656
g3640
I0
sg3641
I6
sg3642
I1
sg3643
I13
ssg90
I0
sg94
I0
sg95
S"Rak'Daq"
p3657
sg97
I5
sg98
I0
sg105
I15
sg100
I525
sg101
S'HTH'
p3658
sg106
(dp3659
S'A'
p3660
I11
sS'ME'
p3661
I13
sS'RP2'
p3662
I9
sS'E'
p3663
I13
sS'TO'
p3664
I9
sS'RP1'
p3665
I15
sS'JP'
p3666
I2
sS'RP_tot'
p3667
I17
sS'P'
p3668
I4
sS'PA'
p3669
I7
sS'M'
p3670
I7
sS'R'
p3671
I12
sS'TB'
p3672
I2
sS'PL'
p3673
I9
sS'TA'
p3674
I8
ssg124
I0
sg125
I0
sg126
I0
sg128
I0
sg129
F12.137931034482758
sg130
I0
sg139
I0
sg188
I0
sg418
(dp3675
S'A'
p3676
I11
sS'ME'
p3677
I13
sS'RP2'
p3678
I9
sS'E'
p3679
I13
sS'TO'
p3680
I9
sS'RP1'
p3681
I15
sS'JP'
p3682
I2
sS'RP_tot'
p3683
I17
sS'P'
p3684
I4
sS'PA'
p3685
I7
sS'M'
p3686
I7
sS'R'
p3687
I12
sS'TB'
p3688
I2
sS'PL'
p3689
I9
sS'TA'
p3690
I8
ssg189
g3659
sg206
I0
sg61
g31
sg207
I0
sg208
I0
sg209
I0
sg150
I70
sg210
I17
sg211
I0
sg212
S'HL'
p3691
sbssg124
I8
sg125
I0
sg126
I0
sg127
F18.5
sg128
I0
sg129
F11.793103448275861
sg130
I0
sg138
I0
sg84
(dp3692
g346
I1
sg347
I0
sg348
I0
sg349
I0
ssg188
I1
sg418
(dp3693
g694
I11
sg695
I13
sg696
I9
sg697
I13
sg698
I4
sg699
I15
sg700
I2
sg701
I17
sg702
I9
sg703
I7
sg704
I7
sg705
I12
sg706
I2
sg707
I9
sg708
I8
ssg189
g3630
sg206
I0
sg61
g31
sg207
I0
sg208
I0
sg209
I0
sg75
I0
sg210
I19
sg139
I0
sg94
I0
sg211
I1
sg212
S'HL'
p3694
sbsg454
(ijoueur
joueur
p3695
(dp3696
g27
I0
sg29
F6.5
sg32
I0
sg71
I2
sg35
I0
sg38
g39
(g40
g41
Ntp3697
Rp3698
(dp3699
g45
I5
sg46
S'xx'
p3700
sg48
S'seigneur'
p3701
sbsg52
(dp3702
S'SR'
p3703
I0
sS'ST'
p3704
I0
sS'CR'
p3705
I0
sS'CT'
p3706
I0
ssg136
(dp3707
g3703
I0
sg3704
I0
sg3705
I0
sg3706
I0
ssg281
I0
sg150
I70
sg62
(dp3708
g152
I1
sg153
I1
sg154
g155
ssg68
I0
sg72
I1
sg73
I0
sg74
I0
sg101
S'HTH'
p3709
sg76
I00
sg123
g39
(g40
g41
Ntp3710
Rp3711
(dp3712
g45
I5
sg46
S'xx'
p3713
sg48
g3701
sbsg77
F19.5
sg99
I00
sg86
(dp3714
g3703
I0
sg3704
I0
sg3705
I0
sg3706
I0
ssg88
(dp3715
g3703
I0
sg3704
I6
sg3705
I1
sg3706
I13
ssg90
I0
sg91
(lp3716
g167
aI01
aI01
aI00
asg94
I0
sg95
S"Rak'Daq (11)"
p3717
sg97
I5
sg98
I0
sg105
I15
sg100
I525
sg131
(S'dummy'
p3718
S'N8'
p3719
S'TL'
p3720
g31
tp3721
sg78
(dp3722
g3703
I0
sg3704
I6
sg3705
I1
sg3706
I13
ssg106
(dp3723
S'A'
p3724
I11
sS'ME'
p3725
I13
sS'RP2'
p3726
I9
sS'E'
p3727
I13
sS'TO'
p3728
I9
sS'RP1'
p3729
I15
sS'JP'
p3730
I2
sS'RP_tot'
p3731
I17
sS'P'
p3732
I4
sS'PA'
p3733
I7
sS'M'
p3734
I7
sS'R'
p3735
I12
sS'TB'
p3736
I2
sS'PL'
p3737
I9
sS'TA'
p3738
I8
ssg124
I0
sg125
I0
sg126
I0
sg127
F19.5
sg128
I0
sg129
F12.137931034482758
sg130
I0
sg138
I0
sg84
(dp3739
g3703
I0
sg3704
I0
sg3705
I0
sg3706
I0
ssg188
I0
sg418
(dp3740
S'A'
p3741
I11
sS'ME'
p3742
I13
sS'RP2'
p3743
I9
sS'E'
p3744
I13
sS'TO'
p3745
I9
sS'RP1'
p3746
I15
sS'JP'
p3747
I2
sS'RP_tot'
p3748
I17
sS'P'
p3749
I4
sS'PA'
p3750
I7
sS'M'
p3751
I7
sS'R'
p3752
I12
sS'TB'
p3753
I2
sS'PL'
p3754
I9
sS'TA'
p3755
I8
ssg189
g3723
sg206
I0
sg61
g31
sg207
I0
sg208
I0
sg209
I0
sg75
I0
sg210
I17
sg139
I0
sg211
I0
sg212
S'HL'
p3756
sbssg188
I1
sg418
(dp3757
g771
I11
sg772
I13
sg773
I9
sg774
I13
sg775
I4
sg776
I15
sg777
I2
sg778
I17
sg779
I9
sg780
I7
sg781
I7
sg782
I12
sg783
I2
sg784
I9
sg785
I8
ssg206
I0
sg264
(dp3758
sg207
I0
sg61
g31
sg208
I0
sg209
I0
sg150
I70
sg210
I20
sg211
I0
sg212
g3608
sbsS'n9'
p3759
g267
sS'n1'
p3760
(ijoueur
joueur
p3761
(dp3762
g269
F8.172413793103448
sg27
I0
sg28
F8.620689655172415
sg29
F11.5
sg30
g31
sg32
I0
sg33
F230.4808209976792
sg35
I0
sg37
I0
sg38
g39
(g40
g41
Ntp3763
Rp3764
(dp3765
g45
I4
sg46
g540
sg48
g541
sbsg50
(dp3766
sg52
(dp3767
g544
I1
sg545
I0
sg546
I10
sg547
I15
ssg58
F9.379310344827585
sg59
I0
sg60
I10
sg281
I0
sg62
(dp3768
g64
I2
sg65
I10
sg66
g67
ssg68
I0
sg69
F230.4808209976792
sg70
I01
sg71
I5
sg72
I0
sg73
I0
sg74
I0
sg75
I1
sg76
I00
sg77
F16.0
sg78
(dp3769
g80
I0
sg81
I0
sg82
I0
sg83
I0
ssg84
(dp3770
g80
I0
sg81
I0
sg82
I0
sg83
I0
ssg86
(dp3771
g80
I0
sg81
I0
sg82
I0
sg83
I0
ssg88
(dp3772
g544
I14
sg545
I0
sg546
I0
sg547
I1
ssg90
I0
sg91
(lp3773
g93
aI01
aI01
aI00
asg94
I0
sg95
S'Jitaeth'
p3774
sg97
I11
sg98
I0
sg99
I00
sg100
I67
sg101
g102
sg103
I00
sg105
I26
sg106
(dp3775
g556
I9
sg557
I10
sg558
I8
sg559
I12
sg560
I10
sg561
I9
sg562
I6
sg563
I10
sg564
I8
sg565
I10
sg566
I9
sg567
I7
sg568
I4
sg569
I9
sg570
I8
ssg189
(dp3776
g556
I9
sg557
I10
sg558
I8
sg559
I12
sg564
I8
sg561
I9
sg562
I6
sg563
I10
sg560
I10
sg565
I10
sg566
I9
sg567
I7
sg568
I4
sg569
I9
sg570
I8
ssg123
g3764
sg124
I0
sg125
I0
sg126
I3
sg127
I0
sg128
I0
sg129
F9.137931034482758
sg130
I0
sg131
(g307
S'TA'
p3777
S'PI'
p3778
g31
tp3779
sg136
(dp3780
g544
I0
sg545
I0
sg546
I0
sg547
I0
ssg138
I-2
sg139
I0
sg140
(dp3781
S's13'
p3782
(ijoueur
joueur
p3783
(dp3784
g27
I0
sg29
F1.5
sg125
I0
sg32
I0
sg71
I6
sg35
I0
sg38
g3764
sg52
(dp3785
g146
I0
sg147
I0
sg148
I0
sg149
I0
ssg136
g3780
sg61
g31
sg150
I5
sg62
(dp3786
g152
I1
sg153
I1
sg154
g155
ssg68
I0
sg72
I0
sg73
I0
sg74
I0
sg101
g102
sg76
I00
sg123
g3764
sg77
F0.0
sg99
I00
sg86
(dp3787
g162
I0
sg163
I0
sg164
I0
sg165
I0
ssg88
g3772
sg90
I0
sg91
(lp3788
g167
aI01
aI01
aI00
asg78
(dp3789
g162
I7
sg163
I0
sg164
I0
sg165
I0
ssg95
S'Jitaeth (13)'
p3790
sg97
I11
sg98
I0
sg105
I26
sg100
I67
sg131
g3779
sg106
(dp3791
g171
I0
sg172
I0
sg173
I0
sg174
I0
sg175
I0
sg176
I0
sg177
I0
sg178
I0
sg179
I0
sg180
I0
sg181
I0
sg182
I0
sg183
I0
sg184
I0
sg185
I0
ssg140
(dp3792
sg124
I0
sg30
g31
sg126
I0
sg127
F16.0
sg128
I0
sg129
F9.379310344827585
sg130
I0
sg138
I0
sg84
(dp3793
g162
I0
sg163
I0
sg164
I3
sg165
I11
ssg188
I0
sg189
(dp3794
g191
I9
sg192
I11
sg193
I8
sg194
I12
sg195
I9
sg196
I10
sg197
I6
sg198
I11
sg199
I8
sg200
I10
sg201
I9
sg202
I7
sg203
I4
sg204
I9
sg205
I8
ssg206
I0
sg207
I0
sg208
I0
sg209
I0
sg75
I0
sg210
I0
sg139
I0
sg94
I0
sg211
I0
sg212
S'HE'
p3795
sbsg214
(ijoueur
joueur
p3796
(dp3797
g269
F8.172413793103448
sg27
I0
sg29
F2.5
sg30
g31
sg32
I0
sg71
I4
sg35
I0
sg38
g39
(g40
g41
Ntp3798
Rp3799
(dp3800
g45
I4
sg46
g598
sg48
g599
sbsg52
(dp3801
g601
I1
sg602
I0
sg603
I7
sg604
I4
ssg136
(dp3802
g601
I0
sg602
I0
sg603
I0
sg604
I0
ssg281
I0
sg150
I2
sg62
(dp3803
g152
I1
sg153
I1
sg154
g155
ssg68
I0
sg72
I0
sg73
I0
sg74
I0
sg101
g229
sg76
I00
sg123
g39
(g40
g41
Ntp3804
Rp3805
(dp3806
g45
I3
sg46
g2416
sg48
g2417
sbsg77
F19.0
sg99
I00
sg86
(dp3807
g346
I0
sg347
I0
sg348
I0
sg349
I0
ssg88
(dp3808
g601
I7
sg602
I0
sg603
I0
sg604
I1
ssg90
I0
sg91
(lp3809
g167
aI01
aI01
aI00
asg78
(dp3810
g346
I7
sg347
I0
sg348
I0
sg349
I0
ssg95
S'Jitaeth (12)'
p3811
sg97
I11
sg98
I0
sg105
I26
sg100
I32
sg131
(g354
S'TA'
p3812
S'PI'
p3813
g31
tp3814
sg106
(dp3815
g618
I8
sg619
I10
sg620
I6
sg621
I12
sg622
I7
sg623
I9
sg624
I4
sg625
I9
sg626
I6
sg627
I9
sg628
I9
sg629
I7
sg630
I2
sg631
I8
sg632
I7
ssg140
(dp3816
g374
(ijoueur
joueur
p3817
(dp3818
g27
I0
sg32
I0
sg35
I0
sg38
g39
(g40
g41
Ntp3819
Rp3820
(dp3821
g45
I4
sg46
S'*'
p3822
sg48
S'heros'
p3823
sbsg52
(dp3824
S'SR'
p3825
I1
sS'ST'
p3826
I0
sS'CR'
p3827
I0
sS'CT'
p3828
I0
ssg136
(dp3829
g3825
I0
sg3826
I0
sg3827
I0
sg3828
I0
ssg281
I0
sg68
I0
sg99
I01
sg72
I0
sg73
I0
sg74
I0
sg131
(S'dummy'
p3830
S'TA'
p3831
S'PI'
p3832
g31
tp3833
sg76
I01
sg123
g39
(g40
g41
Ntp3834
Rp3835
(dp3836
g45
I1
sg46
S'>'
p3837
sg48
S'base'
p3838
sbsg78
(dp3839
g3825
I0
sg3826
I0
sg3827
I0
sg3828
I1
ssg84
(dp3840
g3825
I1
sg3826
I0
sg3827
I0
sg3828
I0
ssg86
(dp3841
g3825
I0
sg3826
I0
sg3827
I0
sg3828
I0
ssg88
(dp3842
g3825
I0
sg3826
I0
sg3827
I0
sg3828
I1
ssg90
I0
sg94
I0
sg95
S'Jitaeth'
p3843
sg97
I11
sg98
I0
sg105
I26
sg100
I17
sg101
S'HTH'
p3844
sg106
(dp3845
S'A'
p3846
I9
sS'ME'
p3847
I9
sS'RP2'
p3848
I6
sS'E'
p3849
I10
sS'TO'
p3850
I6
sS'RP1'
p3851
I8
sS'JP'
p3852
I4
sS'RP_tot'
p3853
I8
sS'P'
p3854
I6
sS'PA'
p3855
I8
sS'M'
p3856
I8
sS'R'
p3857
I8
sS'TB'
p3858
I2
sS'PL'
p3859
I7
sS'TA'
p3860
I7
ssg124
I0
sg125
I0
sg126
I0
sg128
I0
sg129
F8.172413793103448
sg130
I0
sg139
I0
sg188
I0
sg418
(dp3861
S'A'
p3862
I9
sS'ME'
p3863
I9
sS'RP2'
p3864
I6
sS'E'
p3865
I10
sS'TO'
p3866
I6
sS'RP1'
p3867
I8
sS'JP'
p3868
I4
sS'RP_tot'
p3869
I8
sS'P'
p3870
I6
sS'PA'
p3871
I8
sS'M'
p3872
I8
sS'R'
p3873
I8
sS'TB'
p3874
I2
sS'PL'
p3875
I7
sS'TA'
p3876
I7
ssg189
g3845
sg206
I0
sg61
g31
sg207
I0
sg208
I0
sg209
I0
sg150
I1
sg210
I0
sg211
I0
sg212
S'HE'
p3877
sbssg124
I3
sg125
I0
sg126
I2
sg127
F11.0
sg128
I0
sg129
F8.620689655172415
sg130
I0
sg138
I0
sg84
(dp3878
g346
I0
sg347
I0
sg348
I7
sg349
I4
ssg188
I1
sg418
(dp3879
g694
I9
sg695
I9
sg696
I6
sg697
I10
sg698
I6
sg699
I8
sg700
I4
sg701
I8
sg702
I6
sg703
I8
sg704
I8
sg705
I8
sg706
I2
sg707
I7
sg708
I7
ssg189
g3815
sg206
I0
sg61
g31
sg207
I0
sg208
I0
sg209
I0
sg75
I0
sg210
I0
sg139
I2
sg94
I0
sg211
I1
sg212
S'HE'
p3880
sbsg454
(ijoueur
joueur
p3881
(dp3882
g27
I0
sg29
F0.5
sg32
I0
sg71
I2
sg35
I0
sg38
g39
(g40
g41
Ntp3883
Rp3884
(dp3885
g45
I4
sg46
S'*'
p3886
sg48
S'heros'
p3887
sbsg52
(dp3888
S'SR'
p3889
I1
sS'ST'
p3890
I0
sS'CR'
p3891
I0
sS'CT'
p3892
I0
ssg136
(dp3893
g3889
I0
sg3890
I0
sg3891
I0
sg3892
I0
ssg281
I0
sg150
I1
sg62
(dp3894
g152
I1
sg153
I1
sg154
g155
ssg68
I0
sg72
I0
sg73
I0
sg74
I0
sg101
S'HTH'
p3895
sg76
I01
sg123
g39
(g40
g41
Ntp3896
Rp3897
(dp3898
g45
I1
sg46
S'>'
p3899
sg48
S'base'
p3900
sbsg77
F1.5
sg99
I01
sg86
(dp3901
g3889
I0
sg3890
I0
sg3891
I0
sg3892
I0
ssg88
(dp3902
g3889
I0
sg3890
I0
sg3891
I0
sg3892
I1
ssg90
I0
sg91
(lp3903
g167
aI01
aI01
aI00
asg94
I0
sg95
S'Jitaeth (11)'
p3904
sg97
I11
sg98
I0
sg105
I26
sg100
I17
sg131
(S'dummy'
p3905
S'TA'
p3906
S'PI'
p3907
g31
tp3908
sg78
(dp3909
g3889
I0
sg3890
I0
sg3891
I0
sg3892
I1
ssg106
(dp3910
S'A'
p3911
I9
sS'ME'
p3912
I9
sS'RP2'
p3913
I6
sS'E'
p3914
I10
sS'TO'
p3915
I6
sS'RP1'
p3916
I8
sS'JP'
p3917
I4
sS'RP_tot'
p3918
I8
sS'P'
p3919
I6
sS'PA'
p3920
I8
sS'M'
p3921
I8
sS'R'
p3922
I8
sS'TB'
p3923
I2
sS'PL'
p3924
I7
sS'TA'
p3925
I7
ssg124
I0
sg125
I0
sg126
I0
sg127
F1.5
sg128
I0
sg129
F8.172413793103448
sg130
I0
sg138
I0
sg84
(dp3926
g3889
I1
sg3890
I0
sg3891
I0
sg3892
I0
ssg188
I0
sg418
(dp3927
S'A'
p3928
I9
sS'ME'
p3929
I9
sS'RP2'
p3930
I6
sS'E'
p3931
I10
sS'TO'
p3932
I6
sS'RP1'
p3933
I8
sS'JP'
p3934
I4
sS'RP_tot'
p3935
I8
sS'P'
p3936
I6
sS'PA'
p3937
I8
sS'M'
p3938
I8
sS'R'
p3939
I8
sS'TB'
p3940
I2
sS'PL'
p3941
I7
sS'TA'
p3942
I7
ssg189
g3910
sg206
I0
sg61
g31
sg207
I0
sg208
I0
sg209
I0
sg75
I0
sg210
I0
sg139
I0
sg211
I0
sg212
S'HE'
p3943
sbssg188
I2
sg418
(dp3944
g771
I9
sg772
I9
sg773
I6
sg774
I10
sg775
I6
sg776
I8
sg777
I4
sg778
I8
sg779
I6
sg780
I8
sg781
I8
sg782
I8
sg783
I2
sg784
I7
sg785
I7
ssg206
I0
sg264
(dp3945
sg207
I0
sg61
g31
sg208
I0
sg209
I0
sg150
I5
sg210
I0
sg211
I0
sg212
g3795
sbsS'n2'
p3946
(ijoueur
joueur
p3947
(dp3948
g269
F10.689655172413794
sg27
I0
sg28
F10.793103448275861
sg29
F12.5
sg30
g31
sg32
I0
sg33
F238.48239009112373
sg35
I0
sg37
I0
sg38
g39
(g40
g41
Ntp3949
Rp3950
(dp3951
g45
I5
sg46
S'**'
p3952
sg48
g274
sbsg50
(dp3953
sg52
(dp3954
g544
I0
sg545
I0
sg546
I0
sg547
I0
ssg58
F10.793103448275861
sg59
I0
sg60
I10
sg281
I0
sg62
(dp3955
g64
I1
sg65
I10
sg66
g283
ssg68
I0
sg69
F238.48239009112373
sg70
I00
sg71
I5
sg72
I0
sg73
I0
sg74
I0
sg75
I3
sg76
I00
sg77
F17.5
sg78
(dp3956
g80
I0
sg81
I0
sg82
I0
sg83
I0
ssg84
(dp3957
g80
I0
sg81
I0
sg82
I0
sg83
I0
ssg86
(dp3958
g80
I0
sg81
I0
sg82
I0
sg83
I0
ssg88
(dp3959
g544
I20
sg545
I1
sg546
I1
sg547
I43
ssg90
I0
sg91
(lp3960
g93
aI01
aI00
aI00
asg94
I0
sg95
S'Uurghizul'
p3961
sg97
I6
sg98
I0
sg99
I00
sg100
I120
sg101
g102
sg103
I00
sg105
I15
sg106
(dp3962
g556
I13
sg557
I13
sg558
I10
sg559
I11
sg560
I3
sg561
I9
sg562
I2
sg563
I11
sg564
I8
sg565
I8
sg566
I7
sg567
I13
sg568
I1
sg569
I10
sg570
I11
ssg189
(dp3963
g556
I13
sg557
I13
sg558
I10
sg559
I11
sg564
I8
sg561
I9
sg562
I2
sg563
I11
sg560
I3
sg565
I8
sg566
I7
sg567
I13
sg568
I1
sg569
I10
sg570
I11
ssg123
g39
(g40
g41
Ntp3964
Rp3965
(dp3966
g45
I5
sg46
S'**'
p3967
sg48
g274
sbsg124
I0
sg125
I0
sg126
I1
sg127
I0
sg128
I0
sg129
F11.379310344827585
sg130
I0
sg131
(g307
S'TA'
p3968
g31
g31
tp3969
sg136
(dp3970
g544
I0
sg545
I0
sg546
I0
sg547
I0
ssg138
I6
sg139
I0
sg140
(dp3971
S's13'
p3972
(ijoueur
joueur
p3973
(dp3974
g27
I0
sg29
F12.5
sg125
I0
sg32
I0
sg71
I5
sg35
I0
sg38
g3950
sg52
(dp3975
g146
I0
sg147
I0
sg148
I0
sg149
I0
ssg136
g3970
sg61
g31
sg150
I12
sg62
(dp3976
g152
I1
sg153
I1
sg154
g155
ssg68
I0
sg72
I0
sg73
I0
sg74
I0
sg101
g102
sg76
I00
sg123
g3965
sg77
F0.0
sg99
I00
sg86
(dp3977
g162
I0
sg163
I0
sg164
I0
sg165
I0
ssg88
g3959
sg90
I0
sg91
(lp3978
g167
aI01
aI00
aI00
asg78
(dp3979
g162
I6
sg163
I0
sg164
I1
sg165
I14
ssg95
S'Uurghizul (13)'
p3980
sg97
I6
sg98
I0
sg105
I15
sg100
I120
sg131
g3969
sg106
(dp3981
g171
I0
sg172
I0
sg173
I0
sg174
I0
sg175
I0
sg176
I0
sg177
I0
sg178
I0
sg179
I0
sg180
I0
sg181
I0
sg182
I0
sg183
I0
sg184
I0
sg185
I0
ssg140
(dp3982
sg124
I0
sg30
g31
sg126
I0
sg127
F17.5
sg128
I0
sg129
F10.793103448275861
sg130
I0
sg138
I0
sg84
(dp3983
g162
I0
sg163
I0
sg164
I0
sg165
I0
ssg188
I0
sg189
(dp3984
g191
I12
sg192
I12
sg193
I7
sg194
I11
sg195
I3
sg196
I9
sg197
I2
sg198
I9
sg199
I8
sg200
I8
sg201
I7
sg202
I13
sg203
I1
sg204
I9
sg205
I11
ssg206
I0
sg207
I0
sg208
I0
sg209
I0
sg75
I0
sg210
I0
sg139
I0
sg94
I0
sg211
I0
sg212
S'HB'
p3985
sbsg214
(ijoueur
joueur
p3986
(dp3987
g269
F10.689655172413794
sg27
I0
sg29
F6.0
sg30
g31
sg32
I0
sg71
I4
sg35
I0
sg38
g39
(g40
g41
Ntp3988
Rp3989
(dp3990
g45
I5
sg46
S'**'
p3991
sg48
g332
sbsg52
(dp3992
g601
I0
sg602
I0
sg603
I0
sg604
I0
ssg136
(dp3993
g601
I0
sg602
I0
sg603
I0
sg604
I0
ssg281
I0
sg150
I12
sg62
(dp3994
g152
I1
sg153
I1
sg154
g155
ssg68
I0
sg72
I2
sg73
I0
sg74
I0
sg101
g229
sg76
I00
sg123
g39
(g40
g41
Ntp3995
Rp3996
(dp3997
g45
I5
sg46
S'**'
p3998
sg48
g332
sbsg77
F19.0
sg99
I00
sg86
(dp3999
g346
I0
sg347
I0
sg348
I0
sg349
I0
ssg88
(dp4000
g601
I13
sg602
I1
sg603
I0
sg604
I29
ssg90
I0
sg91
(lp4001
g167
aI01
aI00
aI00
asg78
(dp4002
g346
I5
sg347
I1
sg348
I0
sg349
I14
ssg95
S'Uurghizul (12)'
p4003
sg97
I6
sg98
I0
sg105
I15
sg100
I120
sg131
(g354
S'TA'
p4004
g31
g31
tp4005
sg106
(dp4006
g618
I12
sg619
I12
sg620
I7
sg621
I11
sg622
I8
sg623
I9
sg624
I2
sg625
I9
sg626
I3
sg627
I8
sg628
I7
sg629
I13
sg630
I1
sg631
I9
sg632
I11
ssg140
(dp4007
g374
(ijoueur
joueur
p4008
(dp4009
g27
I0
sg32
I0
sg35
I0
sg38
g39
(g40
g41
Ntp4010
Rp4011
(dp4012
g45
I5
sg46
S'**'
p4013
sg48
S'seigneur'
p4014
sbsg52
(dp4015
S'SR'
p4016
I0
sS'ST'
p4017
I0
sS'CR'
p4018
I0
sS'CT'
p4019
I0
ssg136
(dp4020
g4016
I0
sg4017
I0
sg4018
I0
sg4019
I0
ssg281
I0
sg68
I0
sg99
I00
sg72
I1
sg73
I0
sg74
I0
sg131
(S'dummy'
p4021
S'TA'
p4022
g31
g31
tp4023
sg76
I00
sg123
g39
(g40
g41
Ntp4024
Rp4025
(dp4026
g45
I5
sg46
S'**'
p4027
sg48
g4014
sbsg78
(dp4028
g4016
I7
sg4017
I0
sg4018
I0
sg4019
I15
ssg84
(dp4029
g4016
I0
sg4017
I0
sg4018
I0
sg4019
I0
ssg86
(dp4030
g4016
I0
sg4017
I0
sg4018
I0
sg4019
I0
ssg88
(dp4031
g4016
I7
sg4017
I0
sg4018
I0
sg4019
I15
ssg90
I0
sg94
I0
sg95
S'Uurghizul'
p4032
sg97
I6
sg98
I0
sg105
I15
sg100
I120
sg101
S'HTH'
p4033
sg106
(dp4034
S'A'
p4035
I11
sS'ME'
p4036
I11
sS'RP2'
p4037
I7
sS'E'
p4038
I11
sS'TO'
p4039
I8
sS'RP1'
p4040
I9
sS'JP'
p4041
I2
sS'RP_tot'
p4042
I9
sS'P'
p4043
I3
sS'PA'
p4044
I8
sS'M'
p4045
I7
sS'R'
p4046
I12
sS'TB'
p4047
I1
sS'PL'
p4048
I10
sS'TA'
p4049
I12
ssg124
I0
sg125
I0
sg126
I1
sg128
I0
sg129
F10.689655172413794
sg130
I0
sg139
I1
sg188
I1
sg418
(dp4050
S'A'
p4051
I11
sS'ME'
p4052
I11
sS'RP2'
p4053
I7
sS'E'
p4054
I11
sS'TO'
p4055
I8
sS'RP1'
p4056
I9
sS'JP'
p4057
I2
sS'RP_tot'
p4058
I9
sS'P'
p4059
I3
sS'PA'
p4060
I8
sS'M'
p4061
I7
sS'R'
p4062
I12
sS'TB'
p4063
I1
sS'PL'
p4064
I10
sS'TA'
p4065
I12
ssg189
g4034
sg206
I0
sg61
g31
sg207
I0
sg208
I0
sg209
I0
sg150
I12
sg210
I9
sg211
I1
sg212
S'HB'
p4066
sbssg124
I2
sg125
I0
sg126
I1
sg127
F17.5
sg128
I0
sg129
F10.793103448275861
sg130
I0
sg138
I0
sg84
(dp4067
g346
I0
sg347
I0
sg348
I0
sg349
I0
ssg188
I1
sg418
(dp4068
g694
I11
sg695
I11
sg696
I7
sg697
I11
sg698
I3
sg699
I9
sg700
I2
sg701
I9
sg702
I8
sg703
I8
sg704
I7
sg705
I12
sg706
I1
sg707
I10
sg708
I12
ssg189
g4006
sg206
I0
sg61
g31
sg207
I0
sg208
I0
sg209
I0
sg75
I0
sg210
I11
sg139
I0
sg94
I0
sg211
I0
sg212
S'HB'
p4069
sbsg454
(ijoueur
joueur
p4070
(dp4071
g27
I0
sg29
F7.5
sg32
I0
sg71
I2
sg35
I0
sg38
g39
(g40
g41
Ntp4072
Rp4073
(dp4074
g45
I5
sg46
S'**'
p4075
sg48
S'seigneur'
p4076
sbsg52
(dp4077
S'SR'
p4078
I0
sS'ST'
p4079
I0
sS'CR'
p4080
I0
sS'CT'
p4081
I0
ssg136
(dp4082
g4078
I0
sg4079
I0
sg4080
I0
sg4081
I0
ssg281
I0
sg150
I12
sg62
(dp4083
g152
I1
sg153
I1
sg154
g155
ssg68
I0
sg72
I1
sg73
I0
sg74
I0
sg101
S'HTH'
p4084
sg76
I00
sg123
g39
(g40
g41
Ntp4085
Rp4086
(dp4087
g45
I5
sg46
S'**'
p4088
sg48
g4076
sbsg77
F18.5
sg99
I00
sg86
(dp4089
g4078
I0
sg4079
I0
sg4080
I0
sg4081
I0
ssg88
(dp4090
g4078
I7
sg4079
I0
sg4080
I0
sg4081
I15
ssg90
I0
sg91
(lp4091
g167
aI01
aI00
aI00
asg94
I0
sg95
S'Uurghizul (11)'
p4092
sg97
I6
sg98
I0
sg105
I15
sg100
I120
sg131
(S'dummy'
p4093
S'TA'
p4094
g31
g31
tp4095
sg78
(dp4096
g4078
I7
sg4079
I0
sg4080
I0
sg4081
I15
ssg106
(dp4097
S'A'
p4098
I11
sS'ME'
p4099
I11
sS'RP2'
p4100
I7
sS'E'
p4101
I11
sS'TO'
p4102
I8
sS'RP1'
p4103
I9
sS'JP'
p4104
I2
sS'RP_tot'
p4105
I9
sS'P'
p4106
I3
sS'PA'
p4107
I8
sS'M'
p4108
I7
sS'R'
p4109
I12
sS'TB'
p4110
I1
sS'PL'
p4111
I10
sS'TA'
p4112
I12
ssg124
I0
sg125
I0
sg126
I1
sg127
F18.5
sg128
I0
sg129
F10.689655172413794
sg130
I0
sg138
I0
sg84
(dp4113
g4078
I0
sg4079
I0
sg4080
I0
sg4081
I0
ssg188
I1
sg418
(dp4114
S'A'
p4115
I11
sS'ME'
p4116
I11
sS'RP2'
p4117
I7
sS'E'
p4118
I11
sS'TO'
p4119
I8
sS'RP1'
p4120
I9
sS'JP'
p4121
I2
sS'RP_tot'
p4122
I9
sS'P'
p4123
I3
sS'PA'
p4124
I8
sS'M'
p4125
I7
sS'R'
p4126
I12
sS'TB'
p4127
I1
sS'PL'
p4128
I10
sS'TA'
p4129
I12
ssg189
g4097
sg206
I0
sg61
g31
sg207
I0
sg208
I0
sg209
I0
sg75
I0
sg210
I9
sg139
I1
sg211
I1
sg212
S'HB'
p4130
sbssg188
I1
sg418
(dp4131
g771
I11
sg772
I11
sg773
I7
sg774
I11
sg775
I3
sg776
I9
sg777
I2
sg778
I9
sg779
I8
sg780
I8
sg781
I7
sg782
I12
sg783
I1
sg784
I10
sg785
I12
ssg206
I0
sg264
(dp4132
sg207
I0
sg61
g31
sg208
I0
sg209
I0
sg150
I12
sg210
I11
sg211
I0
sg212
g3985
sbsS'n3'
p4133
g25
sS'n4'
p4134
g535
sS'n5'
p4135
g985
sS'n6'
p4136
(ijoueur
joueur
p4137
(dp4138
g269
F10.0
sg27
I2
sg28
F11.710526315789474
sg29
F15.0
sg30
g31
sg32
I0
sg33
F220.12630064389077
sg35
I0
sg37
I0
sg38
g39
(g40
g41
Ntp4139
Rp4140
(dp4141
g45
I5
sg46
S'**'
p4142
sg48
g274
sbsg50
(dp4143
sg52
(dp4144
g544
I0
sg545
I0
sg546
I0
sg547
I0
ssg58
F12.0
sg59
I0
sg60
I10
sg281
I0
sg62
(dp4145
g64
I2
sg65
I11
sg66
g67
ssg68
I0
sg69
F220.12630064389077
sg70
I00
sg71
I6
sg72
I0
sg73
I0
sg74
I0
sg75
I3
sg76
I00
sg77
F21.0
sg78
(dp4146
g80
I0
sg81
I0
sg82
I0
sg83
I0
ssg84
(dp4147
g80
I0
sg81
I0
sg82
I0
sg83
I0
ssg86
(dp4148
g80
I0
sg81
I0
sg82
I0
sg83
I0
ssg88
(dp4149
g544
I0
sg545
I18
sg546
I2
sg547
I37
ssg90
I0
sg91
(lp4150
g93
aI01
aI00
aI00
asg94
I0
sg95
S'Le Catel'
p4151
sg97
I8
sg98
I0
sg99
I00
sg100
I116
sg101
g102
sg103
I00
sg105
I24
sg106
(dp4152
g556
I13
sg557
I12
sg558
I10
sg559
I11
sg560
I4
sg561
I9
sg562
I5
sg563
I11
sg564
I12
sg565
I10
sg566
I8
sg567
I13
sg568
I5
sg569
I13
sg570
I5
ssg189
(dp4153
g556
I13
sg557
I12
sg558
I10
sg559
I11
sg564
I12
sg561
I9
sg562
I5
sg563
I11
sg560
I4
sg565
I10
sg566
I8
sg567
I13
sg568
I5
sg569
I13
sg570
I5
ssg123
g4140
sg124
I0
sg125
I0
sg126
I0
sg127
I0
sg128
I0
sg129
F12.0
sg130
I0
sg131
(g307
S'TL'
p4154
g31
g31
tp4155
sg136
(dp4156
g544
I0
sg545
I0
sg546
I0
sg547
I0
ssg138
I0
sg139
I0
sg140
(dp4157
S's13'
p4158
(ijoueur
joueur
p4159
(dp4160
g27
I0
sg29
F15.0
sg125
I0
sg32
I0
sg71
I6
sg35
I0
sg38
g4140
sg52
(dp4161
g146
I0
sg147
I0
sg148
I0
sg149
I0
ssg136
g4156
sg61
g31
sg150
I11
sg62
(dp4162
g152
I1
sg153
I1
sg154
g155
ssg68
I0
sg72
I1
sg73
I0
sg74
I0
sg101
g102
sg76
I00
sg123
g4140
sg77
F0.0
sg99
I00
sg86
(dp4163
g162
I0
sg163
I0
sg164
I0
sg165
I0
ssg88
g4149
sg90
I0
sg91
(lp4164
g167
aI01
aI00
aI00
asg78
(dp4165
g162
I0
sg163
I7
sg164
I0
sg165
I14
ssg95
S'Le Catel (13)'
p4166
sg97
I8
sg98
I0
sg105
I24
sg100
I116
sg131
g4155
sg106
(dp4167
g171
I0
sg172
I0
sg173
I0
sg174
I0
sg175
I0
sg176
I0
sg177
I0
sg178
I0
sg179
I0
sg180
I0
sg181
I0
sg182
I0
sg183
I0
sg184
I0
sg185
I0
ssg140
(dp4168
sg124
I0
sg30
g31
sg126
I0
sg127
F21.0
sg128
I0
sg129
F12.0
sg130
I0
sg138
I0
sg84
(dp4169
g162
I0
sg163
I0
sg164
I0
sg165
I0
ssg188
I0
sg189
(dp4170
g191
I13
sg192
I12
sg193
I10
sg194
I11
sg195
I4
sg196
I9
sg197
I5
sg198
I11
sg199
I12
sg200
I10
sg201
I8
sg202
I13
sg203
I5
sg204
I13
sg205
I5
ssg206
I0
sg207
I0
sg208
I0
sg209
I0
sg75
I0
sg210
I0
sg139
I0
sg94
I0
sg211
I0
sg212
S'B'
p4171
sbsg214
(ijoueur
joueur
p4172
(dp4173
g269
F10.0
sg27
I2
sg29
F4.0
sg30
g31
sg32
I0
sg71
I5
sg35
I0
sg38
g39
(g40
g41
Ntp4174
Rp4175
(dp4176
g45
I5
sg46
S'**'
p4177
sg48
g332
sbsg52
(dp4178
g601
I0
sg602
I0
sg603
I0
sg604
I0
ssg136
(dp4179
g601
I0
sg602
I0
sg603
I0
sg604
I0
ssg281
I0
sg150
I11
sg62
(dp4180
g152
I1
sg153
I1
sg154
g155
ssg68
I0
sg72
I4
sg73
I0
sg74
I0
sg101
g229
sg76
I00
sg123
g4175
sg77
F19.0
sg99
I01
sg86
(dp4181
g346
I0
sg347
I0
sg348
I0
sg349
I0
ssg88
(dp4182
g601
I0
sg602
I11
sg603
I2
sg604
I23
ssg90
I0
sg91
(lp4183
g167
aI01
aI00
aI00
asg78
(dp4184
g346
I0
sg347
I7
sg348
I0
sg349
I12
ssg95
S'Le Catel (12)'
p4185
sg97
I8
sg98
I0
sg105
I24
sg100
I116
sg131
(g354
S'TL'
p4186
g31
g31
tp4187
sg106
(dp4188
g618
I13
sg619
I12
sg620
I10
sg621
I11
sg622
I12
sg623
I9
sg624
I5
sg625
I12
sg626
I4
sg627
I10
sg628
I8
sg629
I12
sg630
I5
sg631
I12
sg632
I5
ssg140
(dp4189
g374
(ijoueur
joueur
p4190
(dp4191
g27
I2
sg32
I0
sg35
I0
sg38
g39
(g40
g41
Ntp4192
Rp4193
(dp4194
g45
I5
sg46
S'**'
p4195
sg48
S'seigneur'
p4196
sbsg52
(dp4197
S'SR'
p4198
I0
sS'ST'
p4199
I0
sS'CR'
p4200
I0
sS'CT'
p4201
I0
ssg136
(dp4202
g4198
I0
sg4199
I0
sg4200
I0
sg4201
I0
ssg281
I0
sg68
I0
sg99
I01
sg72
I1
sg73
I0
sg74
I0
sg131
(S'dummy'
p4203
S'TL'
p4204
g31
g31
tp4205
sg76
I00
sg123
g39
(g40
g41
Ntp4206
Rp4207
(dp4208
g45
I4
sg46
S'*'
p4209
sg48
S'heros'
p4210
sbsg78
(dp4211
g4198
I0
sg4199
I4
sg4200
I2
sg4201
I11
ssg84
(dp4212
g4198
I0
sg4199
I0
sg4200
I0
sg4201
I0
ssg86
(dp4213
g4198
I0
sg4199
I0
sg4200
I0
sg4201
I0
ssg88
(dp4214
g4198
I0
sg4199
I4
sg4200
I2
sg4201
I11
ssg90
I0
sg94
I0
sg95
S'Le Catel'
p4215
sg97
I8
sg98
I0
sg105
I24
sg100
I66
sg101
S'HTH'
p4216
sg106
(dp4217
S'A'
p4218
I10
sS'ME'
p4219
I10
sS'RP2'
p4220
I8
sS'E'
p4221
I10
sS'TO'
p4222
I10
sS'RP1'
p4223
I8
sS'JP'
p4224
I5
sS'RP_tot'
p4225
I9
sS'P'
p4226
I4
sS'PA'
p4227
I9
sS'M'
p4228
I8
sS'R'
p4229
I11
sS'TB'
p4230
I5
sS'PL'
p4231
I10
sS'TA'
p4232
I5
ssg124
I0
sg125
I0
sg126
I0
sg128
I0
sg129
F10.0
sg130
I0
sg139
I0
sg188
I0
sg418
(dp4233
S'A'
p4234
I10
sS'ME'
p4235
I10
sS'RP2'
p4236
I8
sS'E'
p4237
I10
sS'TO'
p4238
I10
sS'RP1'
p4239
I8
sS'JP'
p4240
I5
sS'RP_tot'
p4241
I9
sS'P'
p4242
I4
sS'PA'
p4243
I9
sS'M'
p4244
I8
sS'R'
p4245
I11
sS'TB'
p4246
I5
sS'PL'
p4247
I10
sS'TA'
p4248
I5
ssg189
g4217
sg206
I2
sg61
g31
sg207
I0
sg208
I0
sg209
I0
sg150
I6
sg210
I1
sg211
I0
sg212
S'B'
p4249
sbssg124
I8
sg125
I0
sg126
I0
sg127
F19.0
sg128
I0
sg129
F11.710526315789474
sg130
I0
sg138
I0
sg84
(dp4250
g346
I0
sg347
I0
sg348
I0
sg349
I0
ssg188
I0
sg418
(dp4251
g694
I10
sg695
I10
sg696
I8
sg697
I10
sg698
I4
sg699
I8
sg700
I5
sg701
I9
sg702
I10
sg703
I9
sg704
I8
sg705
I11
sg706
I5
sg707
I10
sg708
I5
ssg189
g4188
sg206
I0
sg61
g31
sg207
I0
sg208
I0
sg209
I0
sg75
I0
sg210
I5
sg139
I0
sg94
I0
sg211
I0
sg212
S'B'
p4252
sbsg454
(ijoueur
joueur
p4253
(dp4254
g27
I2
sg29
F3.0
sg32
I0
sg71
I3
sg35
I0
sg38
g39
(g40
g41
Ntp4255
Rp4256
(dp4257
g45
I5
sg46
S'**'
p4258
sg48
S'seigneur'
p4259
sbsg52
(dp4260
S'SR'
p4261
I0
sS'ST'
p4262
I0
sS'CR'
p4263
I0
sS'CT'
p4264
I0
ssg136
(dp4265
g4261
I0
sg4262
I0
sg4263
I0
sg4264
I0
ssg281
I0
sg150
I6
sg62
(dp4266
g152
I1
sg153
I1
sg154
g155
ssg68
I0
sg72
I1
sg73
I0
sg74
I0
sg101
S'HTH'
p4267
sg76
I00
sg123
g39
(g40
g41
Ntp4268
Rp4269
(dp4270
g45
I4
sg46
S'*'
p4271
sg48
S'heros'
p4272
sbsg77
F16.0
sg99
I01
sg86
(dp4273
g4261
I0
sg4262
I0
sg4263
I0
sg4264
I0
ssg88
(dp4274
g4261
I0
sg4262
I4
sg4263
I2
sg4264
I11
ssg90
I0
sg91
(lp4275
g167
aI01
aI00
aI00
asg94
I0
sg95
S'Le Catel (11)'
p4276
sg97
I8
sg98
I0
sg105
I24
sg100
I66
sg131
(S'dummy'
p4277
S'TL'
p4278
g31
g31
tp4279
sg78
(dp4280
g4261
I0
sg4262
I4
sg4263
I2
sg4264
I11
ssg106
(dp4281
S'A'
p4282
I10
sS'ME'
p4283
I10
sS'RP2'
p4284
I8
sS'E'
p4285
I10
sS'TO'
p4286
I10
sS'RP1'
p4287
I8
sS'JP'
p4288
I5
sS'RP_tot'
p4289
I9
sS'P'
p4290
I4
sS'PA'
p4291
I9
sS'M'
p4292
I8
sS'R'
p4293
I11
sS'TB'
p4294
I5
sS'PL'
p4295
I10
sS'TA'
p4296
I5
ssg124
I0
sg125
I0
sg126
I0
sg127
F16.0
sg128
I0
sg129
F10.0
sg130
I0
sg138
I0
sg84
(dp4297
g4261
I0
sg4262
I0
sg4263
I0
sg4264
I0
ssg188
I0
sg418
(dp4298
S'A'
p4299
I10
sS'ME'
p4300
I10
sS'RP2'
p4301
I8
sS'E'
p4302
I10
sS'TO'
p4303
I10
sS'RP1'
p4304
I8
sS'JP'
p4305
I5
sS'RP_tot'
p4306
I9
sS'P'
p4307
I4
sS'PA'
p4308
I9
sS'M'
p4309
I8
sS'R'
p4310
I11
sS'TB'
p4311
I5
sS'PL'
p4312
I10
sS'TA'
p4313
I5
ssg189
g4281
sg206
I2
sg61
g31
sg207
I0
sg208
I0
sg209
I0
sg75
I0
sg210
I1
sg139
I0
sg211
I0
sg212
S'B'
p4314
sbssg188
I0
sg418
(dp4315
g771
I10
sg772
I10
sg773
I8
sg774
I10
sg775
I4
sg776
I8
sg777
I5
sg778
I9
sg779
I10
sg780
I9
sg781
I8
sg782
I11
sg783
I5
sg784
I10
sg785
I5
ssg206
I0
sg264
(dp4316
sg207
I0
sg61
g31
sg208
I0
sg209
I0
sg150
I11
sg210
I6
sg211
I0
sg212
g4171
sbsS'n7'
p4317
(ijoueur
joueur
p4318
(dp4319
g269
F10.0
sg27
I0
sg28
F10.448275862068966
sg29
F4.0
sg30
g31
sg32
I0
sg33
F171.51904586287435
sg35
I0
sg37
I1
sg38
g39
(g40
g41
Ntp4320
Rp4321
(dp4322
g45
I5
sg46
S'xx'
p4323
sg48
g274
sbsg50
(dp4324
sg52
(dp4325
g544
I4
sg545
I1
sg546
I3
sg547
I36
ssg58
F10.413793103448276
sg59
I0
sg1629
I4
sg281
I0
sg62
(dp4326
g64
I1
sg65
I5
sg66
g283
ssg68
I0
sg69
F171.51904586287435
sg70
I00
sg71
I5
sg72
I0
sg73
I0
sg74
I0
sg75
I2
sg76
I00
sg77
F14.5
sg78
(dp4327
g80
I0
sg81
I0
sg82
I0
sg83
I0
ssg99
I00
sg86
(dp4328
g80
I0
sg81
I0
sg82
I0
sg83
I0
ssg88
(dp4329
g544
I8
sg545
I0
sg546
I1
sg547
I0
ssg90
I0
sg91
(lp4330
g93
aI01
aI01
aI00
asg94
I0
sg95
S'Mredug'
p4331
sg97
I6
sg98
I0
sg105
I13
sg100
I190
sg101
g102
sg103
I00
sg106
(dp4332
g556
I7
sg557
I11
sg558
I7
sg559
I10
sg560
I4
sg561
I9
sg562
I4
sg563
I9
sg564
I9
sg565
I7
sg566
I7
sg567
I12
sg568
I4
sg569
I13
sg570
I5
ssg189
(dp4333
g556
I7
sg557
I11
sg558
I7
sg559
I10
sg564
I9
sg561
I9
sg562
I4
sg563
I9
sg560
I4
sg565
I7
sg566
I7
sg567
I12
sg568
I4
sg569
I13
sg570
I5
ssg123
g39
(g40
g41
Ntp4334
Rp4335
(dp4336
g45
I5
sg46
S'xx'
p4337
sg48
g274
sbsg124
I0
sg125
I0
sg126
I0
sg127
I0
sg128
I0
sg129
F10.413793103448276
sg130
I0
sg131
(g307
S'N8'
p4338
S'TL'
p4339
g31
tp4340
sg136
(dp4341
g544
I0
sg545
I0
sg546
I0
sg547
I0
ssg138
I0
sg84
(dp4342
g80
I0
sg81
I0
sg82
I0
sg83
I0
ssg140
(dp4343
S's13'
p4344
(ijoueur
joueur
p4345
(dp4346
g27
I0
sg29
F4.0
sg125
I0
sg32
I0
sg71
I5
sg35
I0
sg38
g4321
sg52
(dp4347
g146
I0
sg147
I0
sg148
I0
sg149
I0
ssg136
g4341
sg61
S'FS 11'
p4348
sg150
I9
sg62
(dp4349
g152
I1
sg153
I1
sg154
g155
ssg68
I0
sg72
I0
sg73
I0
sg74
I0
sg101
g102
sg76
I00
sg123
g4335
sg77
F0.0
sg99
I00
sg86
(dp4350
g162
I0
sg163
I0
sg164
I0
sg165
I0
ssg88
g4329
sg90
I0
sg91
(lp4351
g167
aI01
aI01
aI00
asg78
(dp4352
g162
I1
sg163
I0
sg164
I0
sg165
I0
ssg95
S'Mredug (13)'
p4353
sg97
I6
sg98
I0
sg105
I13
sg100
I190
sg131
g4340
sg106
(dp4354
g171
I0
sg172
I0
sg173
I0
sg174
I0
sg175
I0
sg176
I0
sg177
I0
sg178
I0
sg179
I0
sg180
I0
sg181
I0
sg182
I0
sg183
I0
sg184
I0
sg185
I0
ssg140
(dp4355
sg124
I0
sg30
g31
sg126
I0
sg127
F14.5
sg128
I0
sg129
F10.413793103448276
sg130
I0
sg138
I0
sg84
(dp4356
g162
I1
sg163
I0
sg164
I1
sg165
I13
ssg188
I0
sg189
(dp4357
g191
I7
sg192
I11
sg193
I7
sg194
I10
sg195
I4
sg196
I9
sg197
I4
sg198
I9
sg199
I9
sg200
I7
sg201
I7
sg202
I12
sg203
I4
sg204
I13
sg205
I5
ssg206
I0
sg207
I0
sg208
I0
sg209
I0
sg75
I0
sg210
I0
sg139
I0
sg94
I0
sg211
I0
sg212
S'O'
p4358
sbsg214
(ijoueur
joueur
p4359
(dp4360
g269
F10.0
sg27
I0
sg29
F0.5
sg30
g31
sg32
I0
sg71
I4
sg35
I0
sg38
g39
(g40
g41
Ntp4361
Rp4362
(dp4363
g45
I5
sg46
S'xx'
p4364
sg48
g332
sbsg52
(dp4365
g601
I3
sg602
I1
sg603
I2
sg604
I23
ssg136
(dp4366
g601
I0
sg602
I0
sg603
I0
sg604
I0
ssg281
I0
sg150
I9
sg62
(dp4367
g152
I1
sg153
I1
sg154
g155
ssg68
I0
sg72
I0
sg73
I0
sg74
I0
sg101
g229
sg76
I00
sg123
g39
(g40
g41
Ntp4368
Rp4369
(dp4370
g45
I5
sg46
S'xx'
p4371
sg48
g332
sbsg77
F2.5
sg99
I01
sg86
(dp4372
g346
I0
sg347
I0
sg348
I0
sg349
I0
ssg88
(dp4373
g601
I7
sg602
I0
sg603
I1
sg604
I0
ssg90
I0
sg91
(lp4374
g167
aI01
aI01
aI00
asg78
(dp4375
g346
I4
sg347
I0
sg348
I0
sg349
I0
ssg95
S'Mredug (12)'
p4376
sg97
I6
sg98
I0
sg105
I13
sg100
I190
sg131
(g354
S'N8'
p4377
S'TL'
p4378
g31
tp4379
sg106
(dp4380
g618
I7
sg619
I11
sg620
I7
sg621
I10
sg622
I9
sg623
I9
sg624
I4
sg625
I9
sg626
I4
sg627
I7
sg628
I8
sg629
I12
sg630
I4
sg631
I13
sg632
I5
ssg140
(dp4381
g374
(ijoueur
joueur
p4382
(dp4383
g27
I0
sg32
I0
sg35
I0
sg38
g39
(g40
g41
Ntp4384
Rp4385
(dp4386
g45
I5
sg46
S'xx'
p4387
sg48
S'seigneur'
p4388
sbsg52
(dp4389
S'SR'
p4390
I2
sS'ST'
p4391
I0
sS'CR'
p4392
I2
sS'CT'
p4393
I10
ssg136
(dp4394
g4390
I0
sg4391
I0
sg4392
I0
sg4393
I0
ssg281
I0
sg68
I0
sg99
I01
sg72
I0
sg73
I0
sg74
I0
sg131
(S'dummy'
p4395
S'N8'
p4396
S'TL'
p4397
g31
tp4398
sg76
I00
sg123
g39
(g40
g41
Ntp4399
Rp4400
(dp4401
g45
I5
sg46
S'xx'
p4402
sg48
g4388
sbsg78
(dp4403
g4390
I3
sg4391
I0
sg4392
I1
sg4393
I0
ssg84
(dp4404
g4390
I2
sg4391
I0
sg4392
I2
sg4393
I10
ssg86
(dp4405
g4390
I0
sg4391
I0
sg4392
I0
sg4393
I0
ssg88
(dp4406
g4390
I3
sg4391
I0
sg4392
I1
sg4393
I0
ssg90
I0
sg94
I0
sg95
S'Mredug'
p4407
sg97
I6
sg98
I0
sg105
I13
sg100
I190
sg101
S'HTH'
p4408
sg106
(dp4409
S'A'
p4410
I7
sS'ME'
p4411
I9
sS'RP2'
p4412
I6
sS'E'
p4413
I10
sS'TO'
p4414
I7
sS'RP1'
p4415
I9
sS'JP'
p4416
I4
sS'RP_tot'
p4417
I9
sS'P'
p4418
I4
sS'PA'
p4419
I7
sS'M'
p4420
I8
sS'R'
p4421
I11
sS'TB'
p4422
I4
sS'PL'
p4423
I13
sS'TA'
p4424
I5
ssg124
I0
sg125
I0
sg126
I0
sg128
I0
sg129
F10.0
sg130
I0
sg139
I0
sg188
I0
sg418
(dp4425
S'A'
p4426
I7
sS'ME'
p4427
I9
sS'RP2'
p4428
I6
sS'E'
p4429
I10
sS'TO'
p4430
I7
sS'RP1'
p4431
I9
sS'JP'
p4432
I4
sS'RP_tot'
p4433
I9
sS'P'
p4434
I4
sS'PA'
p4435
I7
sS'M'
p4436
I8
sS'R'
p4437
I11
sS'TB'
p4438
I4
sS'PL'
p4439
I13
sS'TA'
p4440
I5
ssg189
g4409
sg206
I0
sg61
S'FS 11'
p4441
sg207
I0
sg208
I0
sg209
I0
sg150
I9
sg210
I4
sg211
I0
sg212
S'O'
p4442
sbssg124
I3
sg125
I0
sg126
I0
sg127
F16.5
sg128
I0
sg129
F10.448275862068966
sg130
I0
sg138
I0
sg84
(dp4443
g346
I1
sg347
I1
sg348
I0
sg349
I13
ssg188
I0
sg418
(dp4444
g694
I7
sg695
I9
sg696
I6
sg697
I10
sg698
I4
sg699
I9
sg700
I4
sg701
I9
sg702
I7
sg703
I7
sg704
I8
sg705
I11
sg706
I4
sg707
I13
sg708
I5
ssg189
g4380
sg206
I0
sg61
S'FS 11'
p4445
sg207
I0
sg208
I0
sg209
I0
sg75
I0
sg210
I4
sg139
I0
sg94
I0
sg211
I0
sg212
S'O'
p4446
sbsg454
(ijoueur
joueur
p4447
(dp4448
g27
I0
sg29
F3.0
sg32
I0
sg71
I2
sg35
I0
sg38
g39
(g40
g41
Ntp4449
Rp4450
(dp4451
g45
I5
sg46
S'xx'
p4452
sg48
S'seigneur'
p4453
sbsg52
(dp4454
S'SR'
p4455
I2
sS'ST'
p4456
I0
sS'CR'
p4457
I2
sS'CT'
p4458
I10
ssg136
(dp4459
g4455
I0
sg4456
I0
sg4457
I0
sg4458
I0
ssg281
I0
sg150
I9
sg62
(dp4460
g152
I1
sg153
I1
sg154
g155
ssg68
I0
sg72
I0
sg73
I0
sg74
I0
sg101
S'HTH'
p4461
sg76
I00
sg123
g39
(g40
g41
Ntp4462
Rp4463
(dp4464
g45
I5
sg46
S'xx'
p4465
sg48
g4453
sbsg77
F14.0
sg99
I01
sg86
(dp4466
g4455
I0
sg4456
I0
sg4457
I0
sg4458
I0
ssg88
(dp4467
g4455
I3
sg4456
I0
sg4457
I1
sg4458
I0
ssg90
I0
sg91
(lp4468
g167
aI01
aI01
aI00
asg94
I0
sg95
S'Mredug (11)'
p4469
sg97
I6
sg98
I0
sg105
I13
sg100
I190
sg131
(S'dummy'
p4470
S'N8'
p4471
S'TL'
p4472
g31
tp4473
sg78
(dp4474
g4455
I3
sg4456
I0
sg4457
I1
sg4458
I0
ssg106
(dp4475
S'A'
p4476
I7
sS'ME'
p4477
I9
sS'RP2'
p4478
I6
sS'E'
p4479
I10
sS'TO'
p4480
I7
sS'RP1'
p4481
I9
sS'JP'
p4482
I4
sS'RP_tot'
p4483
I9
sS'P'
p4484
I4
sS'PA'
p4485
I7
sS'M'
p4486
I8
sS'R'
p4487
I11
sS'TB'
p4488
I4
sS'PL'
p4489
I13
sS'TA'
p4490
I5
ssg124
I0
sg125
I0
sg126
I0
sg127
F14.0
sg128
I0
sg129
F10.0
sg130
I0
sg138
I0
sg84
(dp4491
g4455
I2
sg4456
I0
sg4457
I2
sg4458
I10
ssg188
I0
sg418
(dp4492
S'A'
p4493
I7
sS'ME'
p4494
I9
sS'RP2'
p4495
I6
sS'E'
p4496
I10
sS'TO'
p4497
I7
sS'RP1'
p4498
I9
sS'JP'
p4499
I4
sS'RP_tot'
p4500
I9
sS'P'
p4501
I4
sS'PA'
p4502
I7
sS'M'
p4503
I8
sS'R'
p4504
I11
sS'TB'
p4505
I4
sS'PL'
p4506
I13
sS'TA'
p4507
I5
ssg189
g4475
sg206
I0
sg61
S'FS 11'
p4508
sg207
I0
sg208
I0
sg209
I0
sg75
I0
sg210
I4
sg139
I0
sg211
I0
sg212
S'O'
p4509
sbssg188
I0
sg418
(dp4510
g771
I7
sg772
I9
sg773
I6
sg774
I10
sg775
I4
sg776
I9
sg777
I4
sg778
I9
sg779
I7
sg780
I7
sg781
I8
sg782
I11
sg783
I4
sg784
I13
sg785
I5
ssg206
I0
sg264
(dp4511
sg207
I0
sg61
g4348
sg208
I0
sg209
I0
sg150
I9
sg210
I4
sg139
I0
sg211
I0
sg212
g4358
sbssS'remplacements'
p4512
(dp4513
g2554
S'n0'
p4514
sg2833
g4514
sg3222
g4514
sg3280
g4514
sg3469
g4514
sg3505
g4514
sg3567
g4514
ssb.