(iclub
compo
p0
(dp1
S'caracs_old'
p2
(dp3
S'A'
p4
F172.25
sS'ME'
p5
F97.0
sS'E'
p6
F200.0
sS'OplusAV'
p7
F105.5
sS'OplusAR'
p8
F111.75
sS'JP'
p9
F103.75
sS'PA'
p10
F123.25
sS'M'
p11
F103.0
sS'OmoinsAR'
p12
F115.25
sS'TO_off'
p13
F123.25
sS'TO_def'
p14
F115.0
sS'OmoinsAV'
p15
F105.5
sS'R'
p16
F195.5
ssS'totaux_old'
p17
(dp18
S'T2'
p19
F199.75
sS'T3'
p20
F100.0
sS'T1'
p21
F205.75
ssS'roles'
p22
(dp23
S'SA_scd'
p24
(ijoueur
joueur
p25
(dp26
S'EV_saison_11'
p27
F10.117647058823529
sS'rouges_total'
p28
I0
sS'EV_saison_12'
p29
F10.352941176470589
sS'changements_postes'
p30
S''
p31
sS'drops_total'
p32
I0
sS'xp_total'
p33
I0
sS'blessure'
p34
I0
sS'RG_max'
p35
ccopy_reg
_reconstructor
p36
(cjoueur
rang_new
p37
c__builtin__
object
p38
Ntp39
Rp40
(dp41
S'type_nb'
p42
I4
sS'rang'
p43
S'*'
p44
sS'type'
p45
S'heros'
p46
sbsS'MJ2_total'
p47
(dp48
S'SR'
p49
I0
sS'CT'
p50
I0
sS'CR'
p51
I0
sS'ST'
p52
I7
ssS'MJ3_total'
p53
(dp54
g49
I0
sg50
I0
sg51
I0
sg52
I0
ssS'xp'
p55
I0
sS'drop_rates_total'
p56
I0
sS'EV'
p57
F10.235294117647058
sS'drop_rates_saison'
p58
I0
sS'xp_saison'
p59
I0
sS'essais_saison'
p60
I0
sS'penalite_ratees_saison'
p61
I0
sS'transformations_saison'
p62
I0
sS'postes'
p63
(S'dummy'
p64
S'DL'
p65
S'TL'
p66
g31
tp67
sS'veut_partir'
p68
I00
sS'RG'
p69
g36
(g37
g38
Ntp70
Rp71
(dp72
g42
I4
sg43
g44
sg45
g46
sbsS'MJ1'
p73
(dp74
S'SR'
p75
I0
sS'ST'
p76
I0
sS'CR'
p77
I0
sS'CT'
p78
I0
ssS'MS_probleme'
p79
I00
sS'MJ3'
p80
(dp81
g75
I0
sg76
I0
sg77
I0
sg78
I0
ssS'MJ1_total'
p82
(dp83
g49
I0
sg50
I26
sg51
I0
sg52
I6
ssS'penalites_total'
p84
I0
sS'carton_jaunes_saison'
p85
I1
sS'penalites_saison'
p86
I0
sS'nom'
p87
S'Remod'
p88
sS'C'
p89
I8
sS'transformations_total'
p90
I0
sS'D'
p91
I20
sS'VAL'
p92
I99
sS'club'
p93
S'SN'
p94
sS'carton_jaunes_total'
p95
I1
sS'caracs'
p96
(dp97
S'A'
p98
I12
sS'ME'
p99
I9
sS'RP2'
p100
I9
sS'E'
p101
I9
sS'TO'
p102
I11
sS'RP1'
p103
I10
sS'JP'
p104
I5
sS'RP_tot'
p105
I11
sS'P'
p106
I6
sS'PA'
p107
I10
sS'M'
p108
I8
sS'R'
p109
I11
sS'TB'
p110
I5
sS'PL'
p111
I9
sS'TA'
p112
I7
ssS'jj_passe'
p113
(dp114
S's12'
p115
(ijoueur
joueur
p116
(dp117
g27
F10.117647058823529
sg28
I0
sg30
g31
sg32
I0
sg34
I0
sg35
g36
(g37
g38
Ntp118
Rp119
(dp120
g42
I4
sg43
S'*'
p121
sg45
S'heros'
p122
sbsg47
(dp123
S'SR'
p124
I0
sS'CT'
p125
I0
sS'CR'
p126
I0
sS'ST'
p127
I7
ssg53
(dp128
g124
I0
sg125
I0
sg126
I0
sg127
I0
ssg56
I0
sg58
I0
sg79
I01
sg60
I2
sg61
I0
sg62
I0
sg63
(S'dummy'
p129
S'DL'
p130
S'TL'
p131
g31
tp132
sg68
I00
sg69
g36
(g37
g38
Ntp133
Rp134
(dp135
g42
I4
sg43
g121
sg45
g122
sbsg73
(dp136
S'SR'
p137
I0
sS'ST'
p138
I0
sS'CR'
p139
I0
sS'CT'
p140
I14
ssS'MJ2'
p141
(dp142
g137
I0
sg138
I7
sg139
I0
sg140
I0
ssg80
(dp143
g137
I0
sg138
I0
sg139
I0
sg140
I0
ssg82
(dp144
g124
I0
sg125
I26
sg126
I0
sg127
I6
ssg84
I0
sg85
I1
sg86
I0
sg87
S'Remod'
p145
sg89
I8
sg90
I0
sg91
I20
sg92
I99
sg93
S'SN'
p146
sg95
I1
sg96
(dp147
S'A'
p148
I12
sS'ME'
p149
I9
sS'RP2'
p150
I9
sS'E'
p151
I9
sS'P'
p152
I6
sS'RP1'
p153
I10
sS'JP'
p154
I5
sS'RP_tot'
p155
I12
sS'TO'
p156
I11
sS'PA'
p157
I10
sS'M'
p158
I8
sS'R'
p159
I11
sS'TB'
p160
I5
sS'PL'
p161
I9
sS'TA'
p162
I7
ssg113
(dp163
S's11'
p164
(ijoueur
joueur
p165
(dp166
g28
I0
sg32
I0
sg34
I0
sg35
g36
(g37
g38
Ntp167
Rp168
(dp169
g42
I4
sg43
S'*'
p170
sg45
S'heros'
p171
sbsg47
(dp172
S'SR'
p173
I0
sS'ST'
p174
I0
sS'CR'
p175
I0
sS'CT'
p176
I0
ssg53
(dp177
g173
I0
sg174
I0
sg175
I0
sg176
I0
ssg56
I0
sg58
I0
sg79
I01
sg60
I0
sg61
I0
sg62
I0
sg63
(S'dummy'
p178
S'DL'
p179
S'TL'
p180
g31
tp181
sg68
I00
sg69
g36
(g37
g38
Ntp182
Rp183
(dp184
g42
I4
sg43
g170
sg45
g171
sbsg73
(dp185
g173
I0
sg174
I6
sg175
I0
sg176
I12
ssg141
(dp186
g173
I0
sg174
I0
sg175
I0
sg176
I0
ssg80
(dp187
g173
I0
sg174
I0
sg175
I0
sg176
I0
ssg82
(dp188
g173
I0
sg174
I6
sg175
I0
sg176
I12
ssg84
I0
sg85
I1
sg86
I0
sg87
S'Remod'
p189
sg89
I8
sg90
I0
sg91
I20
sg92
I99
sg93
S'SN'
p190
sg95
I1
sg96
(dp191
S'A'
p192
I12
sS'ME'
p193
I8
sS'RP2'
p194
I9
sS'E'
p195
I9
sS'TO'
p196
I11
sS'RP1'
p197
I9
sS'JP'
p198
I5
sS'RP_tot'
p199
I11
sS'P'
p200
I6
sS'PA'
p201
I10
sS'M'
p202
I8
sS'R'
p203
I11
sS'TB'
p204
I5
sS'PL'
p205
I9
sS'TA'
p206
I7
ssS'fatigue'
p207
I0
sS'drop_ratees_total'
p208
I0
sS'blessures_total'
p209
I1
sS'XP'
p210
I0
sg57
F10.117647058823529
sS'penalite_ratees_total'
p211
I0
sS'blessures_saison'
p212
I1
sS'jaunes_total'
p213
I0
sS'caracs_saison_11'
p214
(dp215
S'A'
p216
I12
sS'ME'
p217
I8
sS'RP2'
p218
I9
sS'E'
p219
I9
sS'TO'
p220
I11
sS'RP1'
p221
I9
sS'JP'
p222
I5
sS'RP_tot'
p223
I11
sS'P'
p224
I6
sS'PA'
p225
I10
sS'M'
p226
I8
sS'R'
p227
I11
sS'TB'
p228
I5
sS'PL'
p229
I9
sS'TA'
p230
I7
ssS'caracs_sans_fatigue'
p231
g191
sS'rouges_saison'
p232
I0
sS'anciens_clubs'
p233
S'PRG 10'
p234
sS'transformation_ratees_total'
p235
I0
sS'drops_saison'
p236
I0
sS'transformation_ratees_saison'
p237
I0
sS'MS'
p238
I7
sS'essais_total'
p239
I0
sS'jaunes_saison'
p240
I0
sS'ARM'
p241
S'EMP'
p242
sbssg207
I8
sg208
I0
sg209
I1
sg210
I0
sg57
F10.352941176470589
sg211
I0
sg212
I0
sg213
I1
sg214
(dp243
S'A'
p244
I12
sS'ME'
p245
I8
sS'RP2'
p246
I9
sS'E'
p247
I9
sS'TO'
p248
I11
sS'RP1'
p249
I9
sS'JP'
p250
I5
sS'RP_tot'
p251
I11
sS'P'
p252
I6
sS'PA'
p253
I10
sS'M'
p254
I8
sS'R'
p255
I11
sS'TB'
p256
I5
sS'PL'
p257
I9
sS'TA'
p258
I7
ssg231
g147
sg232
I0
sg233
S'PRG 10'
p259
sg235
I0
sg236
I0
sg237
I0
sg238
I7
sg239
I2
sg240
I1
sg241
S'EMP'
p260
sbsS's11'
p261
(ijoueur
joueur
p262
(dp263
g28
I0
sg32
I0
sg34
I0
sg35
g36
(g37
g38
Ntp264
Rp265
(dp266
g42
I4
sg43
S'*'
p267
sg45
S'heros'
p268
sbsg47
(dp269
S'SR'
p270
I0
sS'ST'
p271
I0
sS'CR'
p272
I0
sS'CT'
p273
I0
ssg53
(dp274
g270
I0
sg271
I0
sg272
I0
sg273
I0
ssg56
I0
sg58
I0
sg79
I01
sg60
I0
sg61
I0
sg62
I0
sg63
(S'dummy'
p275
S'DL'
p276
S'TL'
p277
g31
tp278
sg68
I00
sg69
g36
(g37
g38
Ntp279
Rp280
(dp281
g42
I4
sg43
g267
sg45
g268
sbsg73
(dp282
g270
I0
sg271
I6
sg272
I0
sg273
I12
ssg141
(dp283
g270
I0
sg271
I0
sg272
I0
sg273
I0
ssg80
(dp284
g270
I0
sg271
I0
sg272
I0
sg273
I0
ssg82
(dp285
g270
I0
sg271
I6
sg272
I0
sg273
I12
ssg84
I0
sg85
I1
sg86
I0
sg87
S'Remod'
p286
sg89
I8
sg90
I0
sg91
I20
sg92
I99
sg93
S'SN'
p287
sg95
I1
sg96
(dp288
S'A'
p289
I12
sS'ME'
p290
I8
sS'RP2'
p291
I9
sS'E'
p292
I9
sS'TO'
p293
I11
sS'RP1'
p294
I9
sS'JP'
p295
I5
sS'RP_tot'
p296
I11
sS'P'
p297
I6
sS'PA'
p298
I10
sS'M'
p299
I8
sS'R'
p300
I11
sS'TB'
p301
I5
sS'PL'
p302
I9
sS'TA'
p303
I7
ssg207
I0
sg208
I0
sg209
I1
sg210
I0
sg57
F10.117647058823529
sg211
I0
sg212
I1
sg213
I0
sg214
(dp304
S'A'
p305
I12
sS'ME'
p306
I8
sS'RP2'
p307
I9
sS'E'
p308
I9
sS'TO'
p309
I11
sS'RP1'
p310
I9
sS'JP'
p311
I5
sS'RP_tot'
p312
I11
sS'P'
p313
I6
sS'PA'
p314
I10
sS'M'
p315
I8
sS'R'
p316
I11
sS'TB'
p317
I5
sS'PL'
p318
I9
sS'TA'
p319
I7
ssg231
g288
sg232
I0
sg233
S'PRG 10'
p320
sg235
I0
sg236
I0
sg237
I0
sg238
I7
sg239
I0
sg240
I0
sg241
S'EMP'
p321
sbssg207
I0
sg208
I0
sg209
I1
sg210
I0
sg141
(dp322
g75
I0
sg76
I0
sg77
I0
sg78
I0
ssg211
I0
sg212
I0
sg213
I1
sg214
(dp323
S'A'
p324
I12
sS'ME'
p325
I8
sS'RP2'
p326
I9
sS'E'
p327
I9
sS'TO'
p328
I11
sS'RP1'
p329
I9
sS'JP'
p330
I5
sS'RP_tot'
p331
I11
sS'P'
p332
I6
sS'PA'
p333
I10
sS'M'
p334
I8
sS'R'
p335
I11
sS'TB'
p336
I5
sS'PL'
p337
I9
sS'TA'
p338
I7
ssg231
(dp339
g98
I12
sg99
I9
sg100
I9
sg101
I9
sg106
I6
sg103
I10
sg104
I5
sg105
I11
sg102
I11
sg107
I10
sg108
I8
sg109
I11
sg110
I5
sg111
I9
sg112
I7
ssg232
I0
sS'caracs_saison_12'
p340
(dp341
sg235
I0
sg233
S'PRG 10'
p342
sg236
I0
sg237
I0
sg238
I7
sg239
I2
sg240
I0
sg241
S'EMP'
p343
sbsS'drop3'
p344
(ijoueur
joueur
p345
(dp346
g27
F10.517241379310345
sg28
I0
sg29
F10.206896551724139
sg30
g31
sg32
I4
sg33
I0
sg34
I0
sg35
g36
(g37
g38
Ntp347
Rp348
(dp349
g42
I5
sg43
S'**'
p350
sg45
S'seigneur'
p351
sbsg47
(dp352
S'SR'
p353
I0
sS'ST'
p354
I0
sS'CR'
p355
I5
sS'CT'
p356
I4
ssg53
(dp357
g353
I0
sg354
I0
sg355
I0
sg356
I0
ssg55
I0
sg56
I1
sg57
F9.96551724137931
sg58
I0
sg59
I0
sg60
I0
sg61
I0
sg62
I0
sg63
(S'dummy'
p358
S'DM'
p359
S'DO'
p360
g31
tp361
sg68
I00
sg69
g36
(g37
g38
Ntp362
Rp363
(dp364
g42
I5
sg43
S'**'
p365
sg45
g351
sbsg73
(dp366
g75
I0
sg76
I0
sg77
I0
sg78
I0
ssg79
I00
sg80
(dp367
g75
I0
sg76
I0
sg77
I0
sg78
I0
ssg82
(dp368
g353
I0
sg354
I0
sg355
I7
sg356
I14
ssg84
I0
sg85
I1
sg86
I0
sg87
S'Ludalr'
p369
sg89
I6
sg90
I0
sg91
I14
sg92
I207
sg93
g94
sg95
I1
sg96
(dp370
S'A'
p371
I8
sS'ME'
p372
I5
sS'RP2'
p373
I10
sS'E'
p374
I11
sS'P'
p375
I11
sS'RP1'
p376
I8
sS'JP'
p377
I11
sS'RP_tot'
p378
I11
sS'TO'
p379
I9
sS'PA'
p380
I11
sS'M'
p381
I8
sS'R'
p382
I5
sS'TB'
p383
I9
sS'PL'
p384
I9
sS'TA'
p385
I4
ssg113
(dp386
S's12'
p387
(ijoueur
joueur
p388
(dp389
g27
F10.517241379310345
sg28
I0
sg30
g31
sg32
I4
sg34
I0
sg35
g36
(g37
g38
Ntp390
Rp391
(dp392
g42
I5
sg43
S'**'
p393
sg45
S'seigneur'
p394
sbsg47
(dp395
S'SR'
p396
I0
sS'ST'
p397
I0
sS'CR'
p398
I5
sS'CT'
p399
I4
ssg53
(dp400
g396
I0
sg397
I0
sg398
I0
sg399
I0
ssg56
I1
sg58
I0
sg79
I00
sg60
I2
sg61
I0
sg62
I0
sg63
(S'dummy'
p401
S'DM'
p402
S'DO'
p403
g31
tp404
sg68
I01
sg69
g36
(g37
g38
Ntp405
Rp406
(dp407
g42
I5
sg43
S'**'
p408
sg45
g394
sbsg73
(dp409
S'SR'
p410
I0
sS'ST'
p411
I0
sS'CR'
p412
I7
sS'CT'
p413
I0
ssg141
(dp414
g410
I0
sg411
I0
sg412
I5
sg413
I3
ssg80
(dp415
g410
I0
sg411
I0
sg412
I0
sg413
I0
ssg82
(dp416
g396
I0
sg397
I0
sg398
I7
sg399
I14
ssg84
I0
sg85
I1
sg86
I0
sg87
S'Ludalr'
p417
sg89
I6
sg90
I0
sg91
I14
sg92
I126
sg93
S'TO'
p418
sg95
I1
sg96
(dp419
S'A'
p420
I9
sS'ME'
p421
I5
sS'RP2'
p422
I10
sS'E'
p423
I11
sS'TO'
p424
I9
sS'RP1'
p425
I8
sS'JP'
p426
I11
sS'RP_tot'
p427
I11
sS'P'
p428
I11
sS'PA'
p429
I11
sS'M'
p430
I8
sS'R'
p431
I6
sS'TB'
p432
I9
sS'PL'
p433
I10
sS'TA'
p434
I4
ssg113
(dp435
S's11'
p436
(ijoueur
joueur
p437
(dp438
g28
I0
sg32
I2
sg34
I0
sg35
g36
(g37
g38
Ntp439
Rp440
(dp441
g42
I5
sg43
S'**'
p442
sg45
S'seigneur'
p443
sbsg47
(dp444
S'SR'
p445
I0
sS'ST'
p446
I0
sS'CR'
p447
I0
sS'CT'
p448
I1
ssg53
(dp449
g445
I0
sg446
I0
sg447
I0
sg448
I0
ssg56
I1
sg58
I1
sg79
I00
sg60
I0
sg61
I0
sg62
I0
sg63
(S'dummy'
p450
S'DM'
p451
S'DO'
p452
g31
tp453
sg68
I00
sg69
g36
(g37
g38
Ntp454
Rp455
(dp456
g42
I5
sg43
S'**'
p457
sg45
g443
sbsg73
(dp458
g445
I0
sg446
I0
sg447
I0
sg448
I14
ssg141
(dp459
g445
I0
sg446
I0
sg447
I0
sg448
I1
ssg80
(dp460
g445
I0
sg446
I0
sg447
I0
sg448
I0
ssg82
(dp461
g445
I0
sg446
I0
sg447
I0
sg448
I14
ssg84
I0
sg85
I1
sg86
I0
sg87
S'Ludalr'
p462
sg89
I6
sg90
I0
sg91
I14
sg92
I126
sg93
S'TO'
p463
sg95
I1
sg96
(dp464
S'A'
p465
I9
sS'ME'
p466
I5
sS'RP2'
p467
I10
sS'E'
p468
I11
sS'TO'
p469
I9
sS'RP1'
p470
I8
sS'JP'
p471
I11
sS'RP_tot'
p472
I11
sS'P'
p473
I12
sS'PA'
p474
I12
sS'M'
p475
I8
sS'R'
p476
I6
sS'TB'
p477
I8
sS'PL'
p478
I10
sS'TA'
p479
I4
ssg207
I0
sg208
I0
sg209
I0
sg210
I0
sg57
F10.517241379310345
sg211
I0
sg212
I0
sg213
I2
sg214
(dp480
S'A'
p481
I9
sS'ME'
p482
I5
sS'RP2'
p483
I10
sS'E'
p484
I11
sS'TO'
p485
I9
sS'RP1'
p486
I8
sS'JP'
p487
I11
sS'RP_tot'
p488
I11
sS'P'
p489
I12
sS'PA'
p490
I12
sS'M'
p491
I8
sS'R'
p492
I6
sS'TB'
p493
I8
sS'PL'
p494
I10
sS'TA'
p495
I4
ssg231
g464
sg232
I0
sg233
g31
sg235
I0
sg236
I1
sg237
I0
sg238
I14
sg239
I7
sg240
I2
sg241
S'S'
p496
sbssg207
I0
sg208
I0
sg209
I0
sg210
I0
sg57
F10.206896551724139
sg211
I0
sg212
I0
sg213
I2
sg214
(dp497
S'A'
p498
I9
sS'ME'
p499
I5
sS'RP2'
p500
I10
sS'E'
p501
I11
sS'P'
p502
I12
sS'RP1'
p503
I8
sS'JP'
p504
I11
sS'RP_tot'
p505
I11
sS'TO'
p506
I9
sS'PA'
p507
I12
sS'M'
p508
I8
sS'R'
p509
I6
sS'TB'
p510
I8
sS'PL'
p511
I10
sS'TA'
p512
I4
ssg231
g419
sg232
I0
sg233
g31
sg235
I0
sg236
I2
sg237
I0
sg238
I14
sg239
I9
sg240
I0
sg241
S'S'
p513
sbsS's11'
p514
(ijoueur
joueur
p515
(dp516
g28
I0
sg32
I2
sg34
I0
sg35
g36
(g37
g38
Ntp517
Rp518
(dp519
g42
I5
sg43
S'**'
p520
sg45
S'seigneur'
p521
sbsg47
(dp522
S'SR'
p523
I0
sS'ST'
p524
I0
sS'CR'
p525
I0
sS'CT'
p526
I1
ssg53
(dp527
g523
I0
sg524
I0
sg525
I0
sg526
I0
ssg56
I1
sg58
I1
sg79
I00
sg60
I0
sg61
I0
sg62
I0
sg63
(S'dummy'
p528
S'DM'
p529
S'DO'
p530
g31
tp531
sg68
I00
sg69
g36
(g37
g38
Ntp532
Rp533
(dp534
g42
I5
sg43
S'**'
p535
sg45
g521
sbsg73
(dp536
g523
I0
sg524
I0
sg525
I0
sg526
I14
ssg141
(dp537
g523
I0
sg524
I0
sg525
I0
sg526
I1
ssg80
(dp538
g523
I0
sg524
I0
sg525
I0
sg526
I0
ssg82
(dp539
g523
I0
sg524
I0
sg525
I0
sg526
I14
ssg84
I0
sg85
I1
sg86
I0
sg87
S'Ludalr'
p540
sg89
I6
sg90
I0
sg91
I14
sg92
I126
sg93
S'TO'
p541
sg95
I1
sg96
(dp542
S'A'
p543
I9
sS'ME'
p544
I5
sS'RP2'
p545
I10
sS'E'
p546
I11
sS'TO'
p547
I9
sS'RP1'
p548
I8
sS'JP'
p549
I11
sS'RP_tot'
p550
I11
sS'P'
p551
I12
sS'PA'
p552
I12
sS'M'
p553
I8
sS'R'
p554
I6
sS'TB'
p555
I8
sS'PL'
p556
I10
sS'TA'
p557
I4
ssg207
I0
sg208
I0
sg209
I0
sg210
I0
sg57
F10.517241379310345
sg211
I0
sg212
I0
sg213
I2
sg214
(dp558
S'A'
p559
I9
sS'ME'
p560
I5
sS'RP2'
p561
I10
sS'E'
p562
I11
sS'TO'
p563
I9
sS'RP1'
p564
I8
sS'JP'
p565
I11
sS'RP_tot'
p566
I11
sS'P'
p567
I12
sS'PA'
p568
I12
sS'M'
p569
I8
sS'R'
p570
I6
sS'TB'
p571
I8
sS'PL'
p572
I10
sS'TA'
p573
I4
ssg231
g542
sg232
I0
sg233
g31
sg235
I0
sg236
I1
sg237
I0
sg238
I14
sg239
I7
sg240
I2
sg241
S'S'
p574
sbssg207
I0
sg208
I0
sg209
I0
sg210
I0
sg141
(dp575
g75
I0
sg76
I0
sg77
I0
sg78
I0
ssg211
I0
sg212
I0
sg213
I2
sg214
(dp576
S'A'
p577
I9
sS'ME'
p578
I5
sS'RP2'
p579
I10
sS'E'
p580
I11
sS'P'
p581
I12
sS'RP1'
p582
I8
sS'JP'
p583
I11
sS'RP_tot'
p584
I11
sS'TO'
p585
I9
sS'PA'
p586
I12
sS'M'
p587
I8
sS'R'
p588
I6
sS'TB'
p589
I8
sS'PL'
p590
I10
sS'TA'
p591
I4
ssg231
(dp592
g371
I8
sg372
I5
sg373
I10
sg374
I11
sg379
I9
sg376
I8
sg377
I11
sg378
I11
sg375
I11
sg380
I11
sg381
I8
sg382
I5
sg383
I9
sg384
I9
sg385
I4
ssg232
I0
sg340
(dp593
sg235
I0
sg233
S'TO 13'
p594
sg236
I0
sg237
I0
sg238
I12
sg239
I9
sg240
I0
sg241
S'S'
p595
sbsS'cap'
p596
(ijoueur
joueur
p597
(dp598
g27
F9.368421052631579
sg28
I1
sg29
F12.263157894736842
sg30
g31
sg32
I3
sg33
I0
sg34
I0
sg35
g36
(g37
g38
Ntp599
Rp600
(dp601
g42
I5
sg43
S'**'
p602
sg45
S'seigneur'
p603
sbsg47
(dp604
g49
I0
sg50
I0
sg51
I8
sg52
I0
ssg53
(dp605
g49
I0
sg50
I0
sg51
I0
sg52
I0
ssg55
I0
sg56
I0
sg57
F12.157894736842104
sg58
I0
sg59
I0
sg60
I0
sg61
I0
sg62
I0
sg63
(g64
S'TL'
p606
S'N8'
p607
g31
tp608
sg68
I00
sg69
g600
sg73
(dp609
g75
I0
sg76
I0
sg77
I0
sg78
I0
ssg79
I00
sg80
(dp610
g75
I0
sg76
I0
sg77
I0
sg78
I0
ssg82
(dp611
g49
I0
sg50
I16
sg51
I3
sg52
I7
ssg84
I0
sg86
I0
sg87
S'Xarmaod'
p612
sg89
I11
sg90
I0
sg91
I24
sg92
I253
sg93
g94
sg96
(dp613
g98
I16
sg99
I9
sg100
I9
sg101
I14
sg102
I15
sg103
I10
sg104
I10
sg105
I11
sg106
I9
sg107
I12
sg108
I10
sg109
I9
sg110
I11
sg111
I13
sg112
I6
ssg113
(dp614
g115
(ijoueur
joueur
p615
(dp616
g27
F9.368421052631579
sg28
I1
sg30
g31
sg32
I3
sg34
I0
sg35
g36
(g37
g38
Ntp617
Rp618
(dp619
g42
I5
sg43
S'**'
p620
sg45
S'seigneur'
p621
sbsg47
(dp622
g124
I0
sg125
I0
sg126
I8
sg127
I0
ssg53
(dp623
g124
I0
sg125
I0
sg126
I0
sg127
I0
ssg56
I0
sg58
I0
sg79
I01
sg60
I4
sg61
I0
sg62
I0
sg63
(g129
S'TL'
p624
S'N8'
p625
g31
tp626
sg68
I00
sg69
g618
sg73
(dp627
g137
I0
sg138
I7
sg139
I0
sg140
I14
ssg141
(dp628
g137
I0
sg138
I0
sg139
I0
sg140
I0
ssg80
(dp629
g137
I0
sg138
I0
sg139
I0
sg140
I0
ssg82
(dp630
g124
I0
sg125
I16
sg126
I3
sg127
I7
ssg84
I0
sg86
I0
sg87
S'Xarmaod'
p631
sg89
I11
sg90
I0
sg91
I24
sg92
I253
sg93
g146
sg96
(dp632
g148
I16
sg149
I9
sg150
I9
sg151
I14
sg152
I10
sg153
I10
sg154
I10
sg155
I12
sg156
I15
sg157
I12
sg158
I10
sg159
I9
sg160
I10
sg161
I13
sg162
I6
ssg113
(dp633
g164
(ijoueur
joueur
p634
(dp635
g28
I0
sg32
I0
sg34
I0
sg35
g36
(g37
g38
Ntp636
Rp637
(dp638
g42
I5
sg43
S'**'
p639
sg45
S'seigneur'
p640
sbsg47
(dp641
S'SR'
p642
I0
sS'ST'
p643
I0
sS'CR'
p644
I8
sS'CT'
p645
I0
ssg53
(dp646
g642
I0
sg643
I0
sg644
I0
sg645
I0
ssg56
I0
sg58
I0
sg79
I01
sg60
I0
sg61
I0
sg62
I0
sg63
(S'dummy'
p647
S'TL'
p648
S'N8'
p649
g31
tp650
sg68
I00
sg69
g36
(g37
g38
Ntp651
Rp652
(dp653
g42
I3
sg43
S'^^^'
p654
sg45
S'rare'
p655
sbsg73
(dp656
g642
I0
sg643
I0
sg644
I3
sg645
I2
ssg141
(dp657
g642
I0
sg643
I0
sg644
I8
sg645
I0
ssg80
(dp658
g642
I0
sg643
I0
sg644
I0
sg645
I0
ssg82
(dp659
g642
I0
sg643
I0
sg644
I3
sg645
I2
ssg84
I0
sg86
I0
sg87
S'Xarmaod'
p660
sg89
I11
sg90
I0
sg91
I24
sg92
I16
sg93
S'SN'
p661
sg96
(dp662
S'A'
p663
I11
sS'ME'
p664
I9
sS'RP2'
p665
I6
sS'E'
p666
I12
sS'TO'
p667
I10
sS'RP1'
p668
I9
sS'JP'
p669
I5
sS'RP_tot'
p670
I9
sS'P'
p671
I5
sS'PA'
p672
I7
sS'M'
p673
I9
sS'R'
p674
I8
sS'TB'
p675
I4
sS'PL'
p676
I9
sS'TA'
p677
I6
ssg207
I0
sg208
I0
sg209
I1
sg210
I0
sg57
F9.368421052631579
sg211
I0
sg212
I1
sg213
I0
sg214
(dp678
S'A'
p679
I11
sS'ME'
p680
I9
sS'RP2'
p681
I6
sS'E'
p682
I12
sS'TO'
p683
I10
sS'RP1'
p684
I9
sS'JP'
p685
I5
sS'RP_tot'
p686
I9
sS'P'
p687
I5
sS'PA'
p688
I7
sS'M'
p689
I9
sS'R'
p690
I8
sS'TB'
p691
I4
sS'PL'
p692
I9
sS'TA'
p693
I6
ssg231
g662
sg232
I0
sg233
g31
sg235
I0
sg236
I0
sg237
I0
sg238
I2
sg239
I0
sg240
I0
sg241
S'EN'
p694
sbssg207
I4
sg208
I0
sg209
I1
sg210
I0
sg57
F12.263157894736842
sg211
I0
sg212
I0
sg213
I1
sg214
(dp695
g244
I11
sg245
I9
sg246
I6
sg247
I12
sg248
I10
sg249
I9
sg250
I5
sg251
I9
sg252
I5
sg253
I7
sg254
I9
sg255
I8
sg256
I4
sg257
I9
sg258
I6
ssg231
g632
sg232
I1
sg233
g31
sg235
I0
sg236
I3
sg237
I0
sg238
I25
sg239
I4
sg240
I1
sg241
S'EN'
p696
sbsg261
(ijoueur
joueur
p697
(dp698
g28
I0
sg32
I0
sg34
I0
sg35
g36
(g37
g38
Ntp699
Rp700
(dp701
g42
I5
sg43
S'**'
p702
sg45
S'seigneur'
p703
sbsg47
(dp704
S'SR'
p705
I0
sS'ST'
p706
I0
sS'CR'
p707
I8
sS'CT'
p708
I0
ssg53
(dp709
g705
I0
sg706
I0
sg707
I0
sg708
I0
ssg56
I0
sg58
I0
sg79
I01
sg60
I0
sg61
I0
sg62
I0
sg63
(S'dummy'
p710
S'TL'
p711
S'N8'
p712
g31
tp713
sg68
I00
sg69
g36
(g37
g38
Ntp714
Rp715
(dp716
g42
I3
sg43
S'^^^'
p717
sg45
S'rare'
p718
sbsg73
(dp719
g705
I0
sg706
I0
sg707
I3
sg708
I2
ssg141
(dp720
g705
I0
sg706
I0
sg707
I8
sg708
I0
ssg80
(dp721
g705
I0
sg706
I0
sg707
I0
sg708
I0
ssg82
(dp722
g705
I0
sg706
I0
sg707
I3
sg708
I2
ssg84
I0
sg86
I0
sg87
S'Xarmaod'
p723
sg89
I11
sg90
I0
sg91
I24
sg92
I16
sg93
S'SN'
p724
sg96
(dp725
S'A'
p726
I11
sS'ME'
p727
I9
sS'RP2'
p728
I6
sS'E'
p729
I12
sS'TO'
p730
I10
sS'RP1'
p731
I9
sS'JP'
p732
I5
sS'RP_tot'
p733
I9
sS'P'
p734
I5
sS'PA'
p735
I7
sS'M'
p736
I9
sS'R'
p737
I8
sS'TB'
p738
I4
sS'PL'
p739
I9
sS'TA'
p740
I6
ssg207
I0
sg208
I0
sg209
I1
sg210
I0
sg57
F9.368421052631579
sg211
I0
sg212
I1
sg213
I0
sg214
(dp741
S'A'
p742
I11
sS'ME'
p743
I9
sS'RP2'
p744
I6
sS'E'
p745
I12
sS'TO'
p746
I10
sS'RP1'
p747
I9
sS'JP'
p748
I5
sS'RP_tot'
p749
I9
sS'P'
p750
I5
sS'PA'
p751
I7
sS'M'
p752
I9
sS'R'
p753
I8
sS'TB'
p754
I4
sS'PL'
p755
I9
sS'TA'
p756
I6
ssg231
g725
sg232
I0
sg233
g31
sg235
I0
sg236
I0
sg237
I0
sg238
I2
sg239
I0
sg240
I0
sg241
S'EN'
p757
sbssg207
I0
sg208
I0
sg209
I1
sg210
I0
sg141
(dp758
g75
I0
sg76
I0
sg77
I0
sg78
I0
ssg211
I0
sg212
I0
sg213
I1
sg214
(dp759
g324
I11
sg325
I9
sg326
I6
sg327
I12
sg328
I10
sg329
I9
sg330
I5
sg331
I9
sg332
I5
sg333
I7
sg334
I9
sg335
I8
sg336
I4
sg337
I9
sg338
I6
ssg231
(dp760
g98
I16
sg99
I9
sg100
I9
sg101
I14
sg106
I9
sg103
I10
sg104
I10
sg105
I11
sg102
I15
sg107
I12
sg108
I10
sg109
I9
sg110
I11
sg111
I13
sg112
I6
ssg232
I0
sg340
(dp761
sg235
I0
sg233
g31
sg236
I0
sg237
I0
sg238
I25
sg239
I4
sg240
I0
sg241
S'EN'
p762
sbsS'SA_pcp1'
p763
g597
sS'B4'
p764
(ijoueur
joueur
p765
(dp766
g27
F9.551724137931034
sg28
I0
sg29
F9.448275862068966
sg30
g31
sg32
I0
sg33
I0
sg34
I0
sg35
g36
(g37
g38
Ntp767
Rp768
(dp769
g42
I4
sg43
S'x'
p770
sg45
g46
sbsg47
(dp771
g49
I0
sg50
I0
sg51
I1
sg52
I0
ssg53
(dp772
g49
I0
sg50
I0
sg51
I0
sg52
I0
ssg55
I0
sg56
I0
sg57
F13.03448275862069
sg58
I0
sg59
I0
sg60
I0
sg61
I0
sg62
I0
sg63
(g64
S'DM'
p773
S'DO'
p774
g31
tp775
sg68
I00
sg69
g768
sg73
(dp776
g75
I0
sg76
I0
sg77
I0
sg78
I0
ssg79
I00
sg80
(dp777
g75
I0
sg76
I0
sg77
I0
sg78
I0
ssg82
(dp778
g49
I0
sg50
I2
sg51
I3
sg52
I0
ssg84
I0
sg86
I0
sg87
S'Kerfaod'
p779
sg89
I11
sg90
I0
sg91
I25
sg92
I263
sg93
g94
sg96
(dp780
g98
I16
sg99
I7
sg100
I9
sg101
I12
sg102
I10
sg103
I6
sg104
I13
sg105
I9
sg106
I13
sg107
I17
sg108
I11
sg109
I6
sg110
I11
sg111
I12
sg112
I6
ssg113
(dp781
g115
(ijoueur
joueur
p782
(dp783
g27
F9.551724137931034
sg28
I0
sg30
g31
sg32
I0
sg34
I0
sg35
g36
(g37
g38
Ntp784
Rp785
(dp786
g42
I4
sg43
S'x'
p787
sg45
g122
sbsg47
(dp788
g124
I0
sg125
I0
sg126
I1
sg127
I0
ssg53
(dp789
g124
I0
sg125
I0
sg126
I0
sg127
I0
ssg56
I0
sg58
I0
sg79
I01
sg60
I0
sg61
I0
sg62
I0
sg63
(g129
S'DM'
p790
S'DO'
p791
g31
tp792
sg68
I00
sg69
g36
(g37
g38
Ntp793
Rp794
(dp795
g42
I3
sg43
S'^^^'
p796
sg45
S'rare'
p797
sbsg73
(dp798
g137
I0
sg138
I0
sg139
I3
sg140
I1
ssg141
(dp799
g137
I0
sg138
I0
sg139
I0
sg140
I0
ssg80
(dp800
g137
I0
sg138
I0
sg139
I0
sg140
I0
ssg82
(dp801
g124
I0
sg125
I2
sg126
I3
sg127
I0
ssg84
I0
sg86
I0
sg87
S'Kerfaod'
p802
sg89
I11
sg90
I0
sg91
I25
sg92
I26
sg93
g146
sg96
(dp803
g148
I11
sg149
I7
sg150
I7
sg151
I10
sg152
I8
sg153
I6
sg154
I8
sg155
I7
sg156
I5
sg157
I12
sg158
I10
sg159
I6
sg160
I7
sg161
I8
sg162
I6
ssg113
(dp804
g164
(ijoueur
joueur
p805
(dp806
g28
I0
sg32
I0
sg34
I0
sg35
g36
(g37
g38
Ntp807
Rp808
(dp809
g42
I4
sg43
S'x'
p810
sg45
S'heros'
p811
sbsg47
(dp812
S'SR'
p813
I0
sS'ST'
p814
I0
sS'CR'
p815
I1
sS'CT'
p816
I0
ssg53
(dp817
g813
I0
sg814
I0
sg815
I0
sg816
I0
ssg56
I0
sg58
I0
sg79
I01
sg60
I0
sg61
I0
sg62
I0
sg63
(S'dummy'
p818
S'DM'
p819
S'DO'
p820
g31
tp821
sg68
I00
sg69
g36
(g37
g38
Ntp822
Rp823
(dp824
g42
I2
sg43
S'<<'
p825
sg45
S'special'
p826
sbsg73
(dp827
g813
I0
sg814
I0
sg815
I0
sg816
I1
ssg141
(dp828
g813
I0
sg814
I0
sg815
I1
sg816
I0
ssg80
(dp829
g813
I0
sg814
I0
sg815
I0
sg816
I0
ssg82
(dp830
g813
I0
sg814
I0
sg815
I0
sg816
I1
ssg84
I0
sg86
I0
sg87
S'Kerfaod'
p831
sg89
I11
sg90
I0
sg91
I25
sg92
I24
sg93
S'SN'
p832
sg96
(dp833
S'A'
p834
I11
sS'ME'
p835
I6
sS'RP2'
p836
I7
sS'E'
p837
I10
sS'TO'
p838
I5
sS'RP1'
p839
I6
sS'JP'
p840
I8
sS'RP_tot'
p841
I7
sS'P'
p842
I8
sS'PA'
p843
I12
sS'M'
p844
I11
sS'R'
p845
I6
sS'TB'
p846
I7
sS'PL'
p847
I8
sS'TA'
p848
I5
ssg207
I0
sg208
I0
sg209
I0
sg210
I0
sg57
F9.551724137931034
sg211
I0
sg212
I0
sg213
I0
sg214
(dp849
S'A'
p850
I11
sS'ME'
p851
I6
sS'RP2'
p852
I7
sS'E'
p853
I10
sS'TO'
p854
I5
sS'RP1'
p855
I6
sS'JP'
p856
I8
sS'RP_tot'
p857
I7
sS'P'
p858
I8
sS'PA'
p859
I12
sS'M'
p860
I11
sS'R'
p861
I6
sS'TB'
p862
I7
sS'PL'
p863
I8
sS'TA'
p864
I5
ssg231
g833
sg232
I0
sg233
g31
sg235
I0
sg236
I0
sg237
I0
sg238
I2
sg239
I0
sg240
I0
sg241
S'EN'
p865
sbssg207
I0
sg208
I0
sg209
I0
sg210
I0
sg57
F9.448275862068966
sg211
I0
sg212
I0
sg213
I0
sg214
(dp866
g244
I11
sg245
I6
sg246
I7
sg247
I10
sg248
I5
sg249
I6
sg250
I8
sg251
I7
sg252
I8
sg253
I12
sg254
I11
sg255
I6
sg256
I7
sg257
I8
sg258
I5
ssg231
g803
sg232
I0
sg233
g31
sg235
I0
sg236
I0
sg237
I0
sg238
I2
sg239
I0
sg240
I0
sg241
S'EN'
p867
sbsg261
(ijoueur
joueur
p868
(dp869
g28
I0
sg32
I0
sg34
I0
sg35
g36
(g37
g38
Ntp870
Rp871
(dp872
g42
I4
sg43
S'x'
p873
sg45
S'heros'
p874
sbsg47
(dp875
S'SR'
p876
I0
sS'ST'
p877
I0
sS'CR'
p878
I1
sS'CT'
p879
I0
ssg53
(dp880
g876
I0
sg877
I0
sg878
I0
sg879
I0
ssg56
I0
sg58
I0
sg79
I01
sg60
I0
sg61
I0
sg62
I0
sg63
(S'dummy'
p881
S'DM'
p882
S'DO'
p883
g31
tp884
sg68
I00
sg69
g36
(g37
g38
Ntp885
Rp886
(dp887
g42
I2
sg43
S'<<'
p888
sg45
S'special'
p889
sbsg73
(dp890
g876
I0
sg877
I0
sg878
I0
sg879
I1
ssg141
(dp891
g876
I0
sg877
I0
sg878
I1
sg879
I0
ssg80
(dp892
g876
I0
sg877
I0
sg878
I0
sg879
I0
ssg82
(dp893
g876
I0
sg877
I0
sg878
I0
sg879
I1
ssg84
I0
sg86
I0
sg87
S'Kerfaod'
p894
sg89
I11
sg90
I0
sg91
I25
sg92
I24
sg93
S'SN'
p895
sg96
(dp896
S'A'
p897
I11
sS'ME'
p898
I6
sS'RP2'
p899
I7
sS'E'
p900
I10
sS'TO'
p901
I5
sS'RP1'
p902
I6
sS'JP'
p903
I8
sS'RP_tot'
p904
I7
sS'P'
p905
I8
sS'PA'
p906
I12
sS'M'
p907
I11
sS'R'
p908
I6
sS'TB'
p909
I7
sS'PL'
p910
I8
sS'TA'
p911
I5
ssg207
I0
sg208
I0
sg209
I0
sg210
I0
sg57
F9.551724137931034
sg211
I0
sg212
I0
sg213
I0
sg214
(dp912
S'A'
p913
I11
sS'ME'
p914
I6
sS'RP2'
p915
I7
sS'E'
p916
I10
sS'TO'
p917
I5
sS'RP1'
p918
I6
sS'JP'
p919
I8
sS'RP_tot'
p920
I7
sS'P'
p921
I8
sS'PA'
p922
I12
sS'M'
p923
I11
sS'R'
p924
I6
sS'TB'
p925
I7
sS'PL'
p926
I8
sS'TA'
p927
I5
ssg231
g896
sg232
I0
sg233
g31
sg235
I0
sg236
I0
sg237
I0
sg238
I2
sg239
I0
sg240
I0
sg241
S'EN'
p928
sbssg207
I0
sg208
I0
sg209
I0
sg210
I0
sg141
(dp929
g75
I0
sg76
I0
sg77
I0
sg78
I0
ssg211
I0
sg212
I0
sg213
I0
sg214
(dp930
g324
I11
sg325
I6
sg326
I7
sg327
I10
sg328
I5
sg329
I6
sg330
I8
sg331
I7
sg332
I8
sg333
I12
sg334
I11
sg335
I6
sg336
I7
sg337
I8
sg338
I5
ssg231
(dp931
g98
I16
sg99
I7
sg100
I9
sg101
I12
sg106
I13
sg103
I6
sg104
I13
sg105
I9
sg102
I10
sg107
I17
sg108
I11
sg109
I6
sg110
I11
sg111
I12
sg112
I6
ssg232
I0
sg340
(dp932
sg235
I0
sg233
g31
sg236
I0
sg237
I0
sg238
I25
sg239
I0
sg240
I0
sg241
S'EN'
p933
sbsS'RJC'
p934
g765
sS'B1'
p935
g765
sS'B2'
p936
g765
sS'B3'
p937
g765
sS'SA_pcp2'
p938
(ijoueur
joueur
p939
(dp940
g27
F11.25
sg28
I1
sg29
F11.027777777777779
sg30
g31
sg32
I0
sg33
I0
sg34
I0
sg35
g36
(g37
g38
Ntp941
Rp942
(dp943
g42
I4
sg43
g44
sg45
g46
sbsg47
(dp944
g49
I2
sg50
I15
sg51
I5
sg52
I0
ssg53
(dp945
g49
I0
sg50
I0
sg51
I0
sg52
I0
ssg55
I0
sg56
I0
sg57
F10.63888888888889
sg58
I0
sg59
I0
sg60
I0
sg61
I0
sg62
I0
sg63
(g64
S'N8'
p946
S'TL'
p947
S'CE'
p948
tp949
sg68
I00
sg69
g36
(g37
g38
Ntp950
Rp951
(dp952
g42
I5
sg43
S'**'
p953
sg45
g603
sbsg73
(dp954
g75
I0
sg76
I0
sg77
I0
sg78
I0
ssg79
I00
sg80
(dp955
g75
I0
sg76
I0
sg77
I0
sg78
I0
ssg82
(dp956
g49
I5
sg50
I7
sg51
I2
sg52
I6
ssg84
I0
sg86
I0
sg87
S'Lyeth'
p957
sg89
I2
sg90
I0
sg91
I12
sg92
I130
sg93
g94
sg96
(dp958
g98
I9
sg99
I10
sg100
I9
sg101
I12
sg102
I12
sg103
I11
sg104
I7
sg105
I12
sg106
I10
sg107
I12
sg108
I7
sg109
I10
sg110
I8
sg111
I9
sg112
I6
ssg113
(dp959
g115
(ijoueur
joueur
p960
(dp961
g27
F11.25
sg28
I1
sg30
g31
sg32
I0
sg34
I0
sg35
g36
(g37
g38
Ntp962
Rp963
(dp964
g42
I4
sg43
g121
sg45
g122
sbsg47
(dp965
g124
I2
sg125
I15
sg126
I5
sg127
I0
ssg53
(dp966
g124
I0
sg125
I0
sg126
I0
sg127
I0
ssg56
I0
sg58
I0
sg79
I01
sg60
I1
sg61
I0
sg62
I0
sg63
(g129
S'N8'
p967
S'TL'
p968
S'CE'
p969
tp970
sg68
I00
sg69
g36
(g37
g38
Ntp971
Rp972
(dp973
g42
I5
sg43
S'**'
p974
sg45
g621
sbsg73
(dp975
g137
I5
sg138
I0
sg139
I2
sg140
I5
ssg141
(dp976
g137
I2
sg138
I0
sg139
I5
sg140
I3
ssg80
(dp977
g137
I0
sg138
I0
sg139
I0
sg140
I0
ssg82
(dp978
g124
I5
sg125
I7
sg126
I2
sg127
I6
ssg84
I0
sg86
I0
sg87
S'Lyeth'
p979
sg89
I2
sg90
I0
sg91
I12
sg92
I130
sg93
g146
sg96
(dp980
g148
I10
sg149
I10
sg150
I9
sg151
I12
sg152
I10
sg153
I11
sg154
I8
sg155
I13
sg156
I12
sg157
I12
sg158
I8
sg159
I10
sg160
I8
sg161
I10
sg162
I6
ssg113
(dp981
g164
(ijoueur
joueur
p982
(dp983
g28
I1
sg32
I0
sg34
I0
sg35
g36
(g37
g38
Ntp984
Rp985
(dp986
g42
I4
sg43
S'*'
p987
sg45
S'heros'
p988
sbsg47
(dp989
S'SR'
p990
I0
sS'ST'
p991
I0
sS'CR'
p992
I0
sS'CT'
p993
I12
ssg53
(dp994
g990
I0
sg991
I0
sg992
I0
sg993
I0
ssg56
I0
sg58
I0
sg79
I01
sg60
I1
sg61
I0
sg62
I0
sg63
(S'dummy'
p995
S'N8'
p996
S'TL'
p997
S'CE'
p998
tp999
sg68
I00
sg69
g36
(g37
g38
Ntp1000
Rp1001
(dp1002
g42
I5
sg43
S'**'
p1003
sg45
S'seigneur'
p1004
sbsg73
(dp1005
g990
I0
sg991
I6
sg992
I0
sg993
I2
ssg141
(dp1006
g990
I0
sg991
I0
sg992
I0
sg993
I12
ssg80
(dp1007
g990
I0
sg991
I0
sg992
I0
sg993
I0
ssg82
(dp1008
g990
I0
sg991
I6
sg992
I0
sg993
I2
ssg84
I0
sg86
I0
sg87
S'Lyeth'
p1009
sg89
I2
sg90
I0
sg91
I12
sg92
I130
sg93
S'SN'
p1010
sg96
(dp1011
S'A'
p1012
I10
sS'ME'
p1013
I11
sS'RP2'
p1014
I9
sS'E'
p1015
I12
sS'TO'
p1016
I12
sS'RP1'
p1017
I11
sS'JP'
p1018
I7
sS'RP_tot'
p1019
I13
sS'P'
p1020
I9
sS'PA'
p1021
I12
sS'M'
p1022
I8
sS'R'
p1023
I10
sS'TB'
p1024
I7
sS'PL'
p1025
I11
sS'TA'
p1026
I6
ssg207
I0
sg208
I0
sg209
I0
sg210
I0
sg57
F11.25
sg211
I0
sg212
I0
sg213
I0
sg214
(dp1027
S'A'
p1028
I10
sS'ME'
p1029
I11
sS'RP2'
p1030
I9
sS'E'
p1031
I12
sS'TO'
p1032
I12
sS'RP1'
p1033
I11
sS'JP'
p1034
I7
sS'RP_tot'
p1035
I13
sS'P'
p1036
I9
sS'PA'
p1037
I12
sS'M'
p1038
I8
sS'R'
p1039
I10
sS'TB'
p1040
I7
sS'PL'
p1041
I11
sS'TA'
p1042
I6
ssg231
g1011
sg232
I1
sg233
g31
sg235
I0
sg236
I0
sg237
I0
sg238
I13
sg239
I26
sg240
I0
sg241
S'EN'
p1043
sbssg207
I2
sg208
I0
sg209
I0
sg210
I0
sg57
F11.027777777777779
sg211
I0
sg212
I0
sg213
I0
sg214
(dp1044
g244
I10
sg245
I11
sg246
I9
sg247
I12
sg248
I12
sg249
I11
sg250
I7
sg251
I13
sg252
I9
sg253
I12
sg254
I8
sg255
I10
sg256
I7
sg257
I11
sg258
I6
ssg231
g980
sg232
I0
sg233
g31
sg235
I0
sg236
I0
sg237
I0
sg238
I13
sg239
I27
sg240
I0
sg241
S'EN'
p1045
sbsg261
(ijoueur
joueur
p1046
(dp1047
g28
I1
sg32
I0
sg34
I0
sg35
g36
(g37
g38
Ntp1048
Rp1049
(dp1050
g42
I4
sg43
S'*'
p1051
sg45
S'heros'
p1052
sbsg47
(dp1053
S'SR'
p1054
I0
sS'ST'
p1055
I0
sS'CR'
p1056
I0
sS'CT'
p1057
I12
ssg53
(dp1058
g1054
I0
sg1055
I0
sg1056
I0
sg1057
I0
ssg56
I0
sg58
I0
sg79
I01
sg60
I1
sg61
I0
sg62
I0
sg63
(S'dummy'
p1059
S'N8'
p1060
S'TL'
p1061
S'CE'
p1062
tp1063
sg68
I00
sg69
g36
(g37
g38
Ntp1064
Rp1065
(dp1066
g42
I5
sg43
S'**'
p1067
sg45
S'seigneur'
p1068
sbsg73
(dp1069
g1054
I0
sg1055
I6
sg1056
I0
sg1057
I2
ssg141
(dp1070
g1054
I0
sg1055
I0
sg1056
I0
sg1057
I12
ssg80
(dp1071
g1054
I0
sg1055
I0
sg1056
I0
sg1057
I0
ssg82
(dp1072
g1054
I0
sg1055
I6
sg1056
I0
sg1057
I2
ssg84
I0
sg86
I0
sg87
S'Lyeth'
p1073
sg89
I2
sg90
I0
sg91
I12
sg92
I130
sg93
S'SN'
p1074
sg96
(dp1075
S'A'
p1076
I10
sS'ME'
p1077
I11
sS'RP2'
p1078
I9
sS'E'
p1079
I12
sS'TO'
p1080
I12
sS'RP1'
p1081
I11
sS'JP'
p1082
I7
sS'RP_tot'
p1083
I13
sS'P'
p1084
I9
sS'PA'
p1085
I12
sS'M'
p1086
I8
sS'R'
p1087
I10
sS'TB'
p1088
I7
sS'PL'
p1089
I11
sS'TA'
p1090
I6
ssg207
I0
sg208
I0
sg209
I0
sg210
I0
sg57
F11.25
sg211
I0
sg212
I0
sg213
I0
sg214
(dp1091
S'A'
p1092
I10
sS'ME'
p1093
I11
sS'RP2'
p1094
I9
sS'E'
p1095
I12
sS'TO'
p1096
I12
sS'RP1'
p1097
I11
sS'JP'
p1098
I7
sS'RP_tot'
p1099
I13
sS'P'
p1100
I9
sS'PA'
p1101
I12
sS'M'
p1102
I8
sS'R'
p1103
I10
sS'TB'
p1104
I7
sS'PL'
p1105
I11
sS'TA'
p1106
I6
ssg231
g1075
sg232
I1
sg233
g31
sg235
I0
sg236
I0
sg237
I0
sg238
I13
sg239
I26
sg240
I0
sg241
S'EN'
p1107
sbssg207
I0
sg208
I0
sg209
I0
sg210
I0
sg141
(dp1108
g75
I0
sg76
I0
sg77
I0
sg78
I0
ssg211
I0
sg212
I0
sg213
I0
sg214
(dp1109
g324
I10
sg325
I11
sg326
I9
sg327
I12
sg328
I12
sg329
I11
sg330
I7
sg331
I13
sg332
I9
sg333
I12
sg334
I8
sg335
I10
sg336
I7
sg337
I11
sg338
I6
ssg231
(dp1110
g98
I9
sg99
I10
sg100
I9
sg101
I12
sg106
I10
sg103
I11
sg104
I7
sg105
I12
sg102
I12
sg107
I12
sg108
I7
sg109
I10
sg110
I8
sg111
I9
sg112
I6
ssg232
I0
sg340
(dp1111
sg235
I0
sg233
g31
sg236
I0
sg237
I0
sg238
I13
sg239
I27
sg240
I0
sg241
S'EN'
p1112
sbsS'drop2'
p1113
(ijoueur
joueur
p1114
(dp1115
g27
F10.9
sg28
I0
sg29
F10.4
sg30
g31
sg32
I3
sg33
I0
sS'poste3'
p1116
g31
sg34
I0
sS'poste1'
p1117
g31
sg35
g36
(g37
g38
Ntp1118
Rp1119
(dp1120
g42
I4
sg43
S'x'
p1121
sg45
S'heros'
p1122
sbsg47
(dp1123
S'SR'
p1124
I0
sS'CT'
p1125
I0
sS'CR'
p1126
I0
sS'ST'
p1127
I0
ssg53
(dp1128
g1124
I0
sg1125
I0
sg1126
I0
sg1127
I0
ssg55
I0
sg233
S'vide 12'
p1129
sg57
F10.666666666666666
sg58
I0
sg59
I0
sg60
I0
sg61
I0
sg62
I0
sg93
g94
sg68
I00
sg69
g1119
sg73
(dp1130
g75
I0
sg76
I0
sg77
I0
sg78
I0
ssg79
I00
sg80
(dp1131
g75
I0
sg76
I0
sg77
I0
sg78
I0
ssg82
(dp1132
g1124
I0
sg1125
I7
sg1126
I8
sg1127
I10
ssg84
I6
sg86
I0
sg87
S'Ilirh'
p1133
sg89
I2
sg90
I1
sg91
I15
sg92
I354
sg63
(S'dummy'
p1134
S'C1'
p1135
g31
g31
tp1136
sS'poste2'
p1137
g31
sg96
(dp1138
S'RP1'
p1139
I9
sS'ME'
p1140
I4
sS'RP2'
p1141
I10
sS'E'
p1142
I11
sS'TO'
p1143
I7
sS'M'
p1144
I10
sS'JP'
p1145
I10
sS'RP_tot'
p1146
I11
sS'P'
p1147
I10
sS'PA'
p1148
I12
sS'A'
p1149
I12
sS'R'
p1150
I8
sS'TB'
p1151
I10
sS'PL'
p1152
I10
sS'TA'
p1153
I4
ssg113
(dp1154
g115
(ijoueur
joueur
p1155
(dp1156
g27
F10.9
sg28
I0
sg30
g31
sg32
I3
sg1116
g31
sg34
I0
sg1117
g31
sg35
g36
(g37
g38
Ntp1157
Rp1158
(dp1159
g42
I4
sg43
S'x'
p1160
sg45
S'heros'
p1161
sbsg47
(dp1162
S'SR'
p1163
I0
sS'CT'
p1164
I0
sS'CR'
p1165
I0
sS'ST'
p1166
I0
ssg53
(dp1167
g1163
I0
sg1164
I0
sg1165
I0
sg1166
I0
ssg233
S'vide 12'
p1168
sg58
I1
sg79
I00
sg60
I0
sg61
I0
sg62
I1
sg93
g146
sg68
I00
sg69
g1158
sg73
(dp1169
g137
I0
sg138
I7
sg139
I8
sg140
I7
ssg141
(dp1170
g137
I0
sg138
I0
sg139
I0
sg140
I0
ssg80
(dp1171
g137
I0
sg138
I0
sg139
I0
sg140
I0
ssg82
(dp1172
g1163
I0
sg1164
I7
sg1165
I8
sg1166
I10
ssg84
I6
sg86
I6
sg87
S'Ilirh'
p1173
sg89
I2
sg90
I1
sg91
I15
sg92
I354
sg63
(S'dummy'
p1174
S'C1'
p1175
g31
g31
tp1176
sg1137
g31
sg96
(dp1177
S'RP1'
p1178
I9
sS'ME'
p1179
I4
sS'RP2'
p1180
I9
sS'E'
p1181
I11
sS'P'
p1182
I10
sS'JP'
p1183
I10
sS'M'
p1184
I10
sS'RP_tot'
p1185
I11
sS'TO'
p1186
I7
sS'PA'
p1187
I10
sS'A'
p1188
I12
sS'R'
p1189
I8
sS'TB'
p1190
I10
sS'PL'
p1191
I10
sS'TA'
p1192
I4
ssg113
(dp1193
g164
(ijoueur
joueur
p1194
(dp1195
g28
I0
sg32
I1
sg1116
g31
sg34
I0
sg1117
g31
sg35
g36
(g37
g38
Ntp1196
Rp1197
(dp1198
g42
I4
sg43
S'x'
p1199
sg45
S'heros'
p1200
sbsg47
(dp1201
S'SR'
p1202
I0
sS'ST'
p1203
I0
sS'CR'
p1204
I0
sS'CT'
p1205
I0
ssg53
(dp1206
g1202
I0
sg1203
I0
sg1204
I0
sg1205
I0
ssg233
g31
sg58
I0
sg79
I00
sg60
I0
sg61
I0
sg62
I0
sg93
S'vide'
p1207
sg68
I01
sg69
g1197
sg73
(dp1208
g1202
I0
sg1203
I3
sg1204
I0
sg1205
I0
ssg141
(dp1209
g1202
I0
sg1203
I0
sg1204
I0
sg1205
I0
ssg80
(dp1210
g1202
I0
sg1203
I0
sg1204
I0
sg1205
I0
ssg82
(dp1211
g1202
I0
sg1203
I3
sg1204
I0
sg1205
I0
ssg84
I0
sg86
I0
sg87
S'Ilirh'
p1212
sg89
I2
sg90
I0
sg91
I15
sg92
I199
sg63
(S'dummy'
p1213
S'C1'
p1214
g31
g31
tp1215
sg1137
g31
sg96
(dp1216
S'RP1'
p1217
I9
sS'ME'
p1218
I4
sS'RP2'
p1219
I9
sS'E'
p1220
I11
sS'TO'
p1221
I7
sS'M'
p1222
I10
sS'JP'
p1223
I10
sS'RP_tot'
p1224
I11
sS'P'
p1225
I11
sS'PA'
p1226
I11
sS'A'
p1227
I13
sS'R'
p1228
I8
sS'TB'
p1229
I10
sS'PL'
p1230
I11
sS'TA'
p1231
I4
ssg207
I0
sg208
I0
sg209
I0
sg210
I0
sg57
F10.9
sg211
I0
sg212
I0
sg213
I0
sg214
(dp1232
S'RP1'
p1233
I9
sS'ME'
p1234
I4
sS'RP2'
p1235
I9
sS'E'
p1236
I11
sS'TO'
p1237
I7
sS'M'
p1238
I10
sS'JP'
p1239
I10
sS'RP_tot'
p1240
I11
sS'P'
p1241
I11
sS'PA'
p1242
I11
sS'A'
p1243
I13
sS'R'
p1244
I8
sS'TB'
p1245
I10
sS'PL'
p1246
I11
sS'TA'
p1247
I4
ssg231
g1216
sg232
I0
sg235
I0
sg236
I1
sg237
I0
sg238
I19
sg239
I0
sg240
I0
sg241
S'ARA'
p1248
sbssg207
I3
sg208
I1
sg209
I0
sg210
I0
sg57
F10.4
sg211
I0
sg212
I0
sg213
I0
sg214
(dp1249
S'RP1'
p1250
I9
sS'ME'
p1251
I4
sS'RP2'
p1252
I9
sS'E'
p1253
I11
sS'P'
p1254
I11
sS'JP'
p1255
I10
sS'M'
p1256
I10
sS'RP_tot'
p1257
I11
sS'TO'
p1258
I7
sS'PA'
p1259
I11
sS'A'
p1260
I13
sS'R'
p1261
I8
sS'TB'
p1262
I10
sS'PL'
p1263
I11
sS'TA'
p1264
I4
ssg231
g1177
sg232
I0
sg235
I0
sg236
I2
sg237
I0
sg238
I15
sg239
I0
sg240
I0
sg241
S'ARA'
p1265
sbsg261
(ijoueur
joueur
p1266
(dp1267
g28
I0
sg32
I1
sg1116
g31
sg34
I0
sg1117
g31
sg35
g36
(g37
g38
Ntp1268
Rp1269
(dp1270
g42
I4
sg43
S'x'
p1271
sg45
S'heros'
p1272
sbsg47
(dp1273
S'SR'
p1274
I0
sS'ST'
p1275
I0
sS'CR'
p1276
I0
sS'CT'
p1277
I0
ssg53
(dp1278
g1274
I0
sg1275
I0
sg1276
I0
sg1277
I0
ssg233
g31
sg58
I0
sg79
I00
sg60
I0
sg61
I0
sg62
I0
sg93
S'vide'
p1279
sg68
I01
sg69
g1269
sg73
(dp1280
g1274
I0
sg1275
I3
sg1276
I0
sg1277
I0
ssg141
(dp1281
g1274
I0
sg1275
I0
sg1276
I0
sg1277
I0
ssg80
(dp1282
g1274
I0
sg1275
I0
sg1276
I0
sg1277
I0
ssg82
(dp1283
g1274
I0
sg1275
I3
sg1276
I0
sg1277
I0
ssg84
I0
sg86
I0
sg87
S'Ilirh'
p1284
sg89
I2
sg90
I0
sg91
I15
sg92
I199
sg63
(S'dummy'
p1285
S'C1'
p1286
g31
g31
tp1287
sg1137
g31
sg96
(dp1288
S'RP1'
p1289
I9
sS'ME'
p1290
I4
sS'RP2'
p1291
I9
sS'E'
p1292
I11
sS'TO'
p1293
I7
sS'M'
p1294
I10
sS'JP'
p1295
I10
sS'RP_tot'
p1296
I11
sS'P'
p1297
I11
sS'PA'
p1298
I11
sS'A'
p1299
I13
sS'R'
p1300
I8
sS'TB'
p1301
I10
sS'PL'
p1302
I11
sS'TA'
p1303
I4
ssg207
I0
sg208
I0
sg209
I0
sg210
I0
sg57
F10.9
sg211
I0
sg212
I0
sg213
I0
sg214
(dp1304
S'RP1'
p1305
I9
sS'ME'
p1306
I4
sS'RP2'
p1307
I9
sS'E'
p1308
I11
sS'TO'
p1309
I7
sS'M'
p1310
I10
sS'JP'
p1311
I10
sS'RP_tot'
p1312
I11
sS'P'
p1313
I11
sS'PA'
p1314
I11
sS'A'
p1315
I13
sS'R'
p1316
I8
sS'TB'
p1317
I10
sS'PL'
p1318
I11
sS'TA'
p1319
I4
ssg231
g1288
sg232
I0
sg235
I0
sg236
I1
sg237
I0
sg238
I19
sg239
I0
sg240
I0
sg241
S'ARA'
p1320
sbssg207
I0
sg208
I1
sg209
I0
sg210
I0
sg141
(dp1321
g75
I0
sg76
I0
sg77
I0
sg78
I0
ssg211
I0
sg212
I0
sg213
I0
sg214
(dp1322
S'RP1'
p1323
I9
sS'ME'
p1324
I4
sS'RP2'
p1325
I9
sS'E'
p1326
I11
sS'P'
p1327
I11
sS'JP'
p1328
I10
sS'M'
p1329
I10
sS'RP_tot'
p1330
I11
sS'TO'
p1331
I7
sS'PA'
p1332
I11
sS'A'
p1333
I13
sS'R'
p1334
I8
sS'TB'
p1335
I10
sS'PL'
p1336
I11
sS'TA'
p1337
I4
ssg231
(dp1338
g1139
I9
sg1140
I4
sg1141
I10
sg1142
I11
sg1147
I10
sg1145
I10
sg1144
I10
sg1146
I11
sg1143
I7
sg1148
I12
sg1149
I12
sg1150
I8
sg1151
I10
sg1152
I10
sg1153
I4
ssg232
I0
sg340
(dp1339
sg235
I0
sg236
I0
sg237
I0
sg238
I15
sg239
I0
sg240
I0
sg241
S'ARA'
p1340
sbsS'RJL'
p1341
g765
sS'SA_remp1'
p1342
(ijoueur
joueur
p1343
(dp1344
g28
I0
sg30
g31
sg32
I0
sg33
I0
sg1116
g31
sg34
I0
sg1117
g31
sg35
g36
(g37
g38
Ntp1345
Rp1346
(dp1347
g42
I5
sg43
S'**'
p1348
sg45
S'seigneur'
p1349
sbsg47
(dp1350
S'SR'
p1351
I0
sS'CT'
p1352
I0
sS'CR'
p1353
I0
sS'ST'
p1354
I0
ssg53
(dp1355
g1351
I0
sg1352
I0
sg1353
I0
sg1354
I0
ssg55
I0
sg233
g31
sg58
I0
sg59
I0
sg60
I0
sg61
I0
sg62
I0
sg93
g94
sg69
g36
(g37
g38
Ntp1356
Rp1357
(dp1358
g42
I2
sg43
S'^^'
p1359
sg45
S'special'
p1360
sbsg73
(dp1361
g1351
I0
sg1352
I0
sg1353
I0
sg1354
I0
ssg141
(dp1362
g1351
I0
sg1352
I0
sg1353
I0
sg1354
I0
ssg80
(dp1363
g1351
I0
sg1352
I0
sg1353
I0
sg1354
I0
ssg82
(dp1364
g1351
I0
sg1352
I0
sg1353
I0
sg1354
I0
ssg84
I0
sg86
I0
sg87
S'Smarlaoth'
p1365
sg89
I13
sg90
I0
sg91
I23
sg92
I50
sg63
(S'dummy'
p1366
S'DL'
p1367
g31
g31
tp1368
sg1137
g31
sg96
(dp1369
S'RP1'
p1370
I8
sS'ME'
p1371
I8
sS'RP2'
p1372
I6
sS'E'
p1373
I10
sS'TO'
p1374
I12
sS'M'
p1375
I9
sS'JP'
p1376
I4
sS'RP_tot'
p1377
I8
sS'P'
p1378
I5
sS'PA'
p1379
I9
sS'A'
p1380
I11
sS'R'
p1381
I9
sS'TB'
p1382
I4
sS'PL'
p1383
I9
sS'TA'
p1384
I3
ssg207
I0
sg208
I0
sg209
I0
sg210
I0
sg57
F9.617647058823529
sg211
I0
sg212
I0
sg213
I0
sg231
(dp1385
g1370
I8
sg1371
I8
sg1372
I6
sg1373
I10
sg1378
I5
sg1376
I4
sg1375
I9
sg1377
I8
sg1374
I12
sg1379
I9
sg1380
I11
sg1381
I9
sg1382
I4
sg1383
I9
sg1384
I3
ssg232
I0
sg235
I0
sg236
I0
sg237
I0
sg238
I5
sg239
I0
sg240
I0
sg241
S'EN'
p1386
sbsS'drop1'
p1387
g765
sS'SA_remp2'
p1388
(ijoueur
joueur
p1389
(dp1390
g27
F10.352941176470589
sg28
I1
sg29
F10.235294117647058
sg30
g31
sg32
I0
sg33
I0
sg34
I0
sg35
g36
(g37
g38
Ntp1391
Rp1392
(dp1393
g42
I6
sg43
S'***'
p1394
sg45
S'personnage'
p1395
sbsg47
(dp1396
g49
I0
sg50
I2
sg51
I0
sg52
I0
ssg53
(dp1397
g49
I0
sg50
I0
sg51
I0
sg52
I0
ssg55
I0
sg56
I0
sg57
F10.058823529411764
sg58
I0
sg59
I0
sg60
I0
sg61
I0
sg62
I0
sg63
(g64
S'DL'
p1398
S'N8'
p1399
g31
tp1400
sg68
I00
sg69
g36
(g37
g38
Ntp1401
Rp1402
(dp1403
g42
I6
sg43
S'***'
p1404
sg45
g1395
sbsg73
(dp1405
g75
I0
sg76
I0
sg77
I0
sg78
I0
ssg79
I00
sg80
(dp1406
g75
I0
sg76
I0
sg77
I0
sg78
I0
ssg82
(dp1407
g49
I11
sg50
I27
sg51
I0
sg52
I1
ssg84
I0
sg86
I0
sg87
S'Louen'
p1408
sg89
I-1
sg90
I0
sg91
I9
sg92
I295
sg93
g94
sg96
(dp1409
g98
I10
sg99
I9
sg100
I8
sg101
I10
sg102
I11
sg103
I13
sg104
I6
sg105
I14
sg106
I6
sg107
I10
sg108
I3
sg109
I8
sg110
I5
sg111
I11
sg112
I6
ssg113
(dp1410
g115
(ijoueur
joueur
p1411
(dp1412
g27
F10.352941176470589
sg28
I1
sg30
g31
sg32
I0
sg34
I0
sg35
g36
(g37
g38
Ntp1413
Rp1414
(dp1415
g42
I6
sg43
S'***'
p1416
sg45
S'personnage'
p1417
sbsg47
(dp1418
g124
I0
sg125
I2
sg126
I0
sg127
I0
ssg53
(dp1419
g124
I0
sg125
I0
sg126
I0
sg127
I0
ssg56
I0
sg58
I0
sg79
I00
sg60
I3
sg61
I0
sg62
I0
sg63
(g129
S'DL'
p1420
S'N8'
p1421
g31
tp1422
sg68
I00
sg69
g36
(g37
g38
Ntp1423
Rp1424
(dp1425
g42
I6
sg43
S'***'
p1426
sg45
g1417
sbsg73
(dp1427
g137
I6
sg138
I1
sg139
I0
sg140
I15
ssg141
(dp1428
g137
I0
sg138
I0
sg139
I0
sg140
I0
ssg80
(dp1429
g137
I0
sg138
I0
sg139
I0
sg140
I0
ssg82
(dp1430
g124
I11
sg125
I27
sg126
I0
sg127
I1
ssg84
I0
sg86
I0
sg87
S'Louen'
p1431
sg89
I-1
sg90
I0
sg91
I9
sg92
I295
sg93
g146
sg96
(dp1432
g148
I10
sg149
I9
sg150
I8
sg151
I11
sg152
I6
sg153
I13
sg154
I6
sg155
I14
sg156
I11
sg157
I10
sg158
I5
sg159
I8
sg160
I5
sg161
I11
sg162
I6
ssg113
(dp1433
g164
(ijoueur
joueur
p1434
(dp1435
g28
I1
sg32
I0
sg34
I0
sg35
g36
(g37
g38
Ntp1436
Rp1437
(dp1438
g42
I6
sg43
S'***'
p1439
sg45
S'personnage'
p1440
sbsg47
(dp1441
S'SR'
p1442
I0
sS'ST'
p1443
I0
sS'CR'
p1444
I0
sS'CT'
p1445
I2
ssg53
(dp1446
g1442
I0
sg1443
I0
sg1444
I0
sg1445
I0
ssg56
I0
sg58
I0
sg79
I00
sg60
I0
sg61
I0
sg62
I0
sg63
(S'dummy'
p1447
S'DL'
p1448
S'N8'
p1449
g31
tp1450
sg68
I00
sg69
g36
(g37
g38
Ntp1451
Rp1452
(dp1453
g42
I6
sg43
S'***'
p1454
sg45
g1440
sbsg73
(dp1455
g1442
I5
sg1443
I0
sg1444
I0
sg1445
I12
ssg141
(dp1456
g1442
I0
sg1443
I0
sg1444
I0
sg1445
I2
ssg80
(dp1457
g1442
I0
sg1443
I0
sg1444
I0
sg1445
I0
ssg82
(dp1458
g1442
I5
sg1443
I0
sg1444
I0
sg1445
I12
ssg84
I0
sg86
I0
sg87
S'Louen'
p1459
sg89
I-1
sg90
I0
sg91
I9
sg92
I295
sg93
S'SN'
p1460
sg96
(dp1461
S'A'
p1462
I10
sS'ME'
p1463
I9
sS'RP2'
p1464
I8
sS'E'
p1465
I12
sS'TO'
p1466
I11
sS'RP1'
p1467
I13
sS'JP'
p1468
I6
sS'RP_tot'
p1469
I14
sS'P'
p1470
I6
sS'PA'
p1471
I10
sS'M'
p1472
I5
sS'R'
p1473
I8
sS'TB'
p1474
I5
sS'PL'
p1475
I11
sS'TA'
p1476
I6
ssg207
I0
sg208
I0
sg209
I0
sg210
I0
sg57
F10.352941176470589
sg211
I0
sg212
I0
sg213
I1
sg214
(dp1477
S'A'
p1478
I10
sS'ME'
p1479
I9
sS'RP2'
p1480
I8
sS'E'
p1481
I12
sS'TO'
p1482
I11
sS'RP1'
p1483
I13
sS'JP'
p1484
I6
sS'RP_tot'
p1485
I14
sS'P'
p1486
I6
sS'PA'
p1487
I10
sS'M'
p1488
I5
sS'R'
p1489
I8
sS'TB'
p1490
I5
sS'PL'
p1491
I11
sS'TA'
p1492
I6
ssg231
g1461
sg232
I1
sg233
g31
sg235
I0
sg236
I0
sg237
I0
sg238
I36
sg239
I34
sg240
I1
sg241
S'B'
p1493
sbssg207
I3
sg208
I0
sg209
I1
sg210
I0
sg57
F10.235294117647058
sg211
I0
sg212
I1
sg213
I1
sg214
(dp1494
g244
I10
sg245
I9
sg246
I8
sg247
I12
sg248
I11
sg249
I13
sg250
I6
sg251
I14
sg252
I6
sg253
I10
sg254
I5
sg255
I8
sg256
I5
sg257
I11
sg258
I6
ssg231
g1432
sg232
I0
sg233
g31
sg235
I0
sg236
I0
sg237
I0
sg238
I36
sg239
I37
sg240
I0
sg241
S'B'
p1495
sbsg261
(ijoueur
joueur
p1496
(dp1497
g28
I1
sg32
I0
sg34
I0
sg35
g36
(g37
g38
Ntp1498
Rp1499
(dp1500
g42
I6
sg43
S'***'
p1501
sg45
S'personnage'
p1502
sbsg47
(dp1503
S'SR'
p1504
I0
sS'ST'
p1505
I0
sS'CR'
p1506
I0
sS'CT'
p1507
I2
ssg53
(dp1508
g1504
I0
sg1505
I0
sg1506
I0
sg1507
I0
ssg56
I0
sg58
I0
sg79
I00
sg60
I0
sg61
I0
sg62
I0
sg63
(S'dummy'
p1509
S'DL'
p1510
S'N8'
p1511
g31
tp1512
sg68
I00
sg69
g36
(g37
g38
Ntp1513
Rp1514
(dp1515
g42
I6
sg43
S'***'
p1516
sg45
g1502
sbsg73
(dp1517
g1504
I5
sg1505
I0
sg1506
I0
sg1507
I12
ssg141
(dp1518
g1504
I0
sg1505
I0
sg1506
I0
sg1507
I2
ssg80
(dp1519
g1504
I0
sg1505
I0
sg1506
I0
sg1507
I0
ssg82
(dp1520
g1504
I5
sg1505
I0
sg1506
I0
sg1507
I12
ssg84
I0
sg86
I0
sg87
S'Louen'
p1521
sg89
I-1
sg90
I0
sg91
I9
sg92
I295
sg93
S'SN'
p1522
sg96
(dp1523
S'A'
p1524
I10
sS'ME'
p1525
I9
sS'RP2'
p1526
I8
sS'E'
p1527
I12
sS'TO'
p1528
I11
sS'RP1'
p1529
I13
sS'JP'
p1530
I6
sS'RP_tot'
p1531
I14
sS'P'
p1532
I6
sS'PA'
p1533
I10
sS'M'
p1534
I5
sS'R'
p1535
I8
sS'TB'
p1536
I5
sS'PL'
p1537
I11
sS'TA'
p1538
I6
ssg207
I0
sg208
I0
sg209
I0
sg210
I0
sg57
F10.352941176470589
sg211
I0
sg212
I0
sg213
I1
sg214
(dp1539
S'A'
p1540
I10
sS'ME'
p1541
I9
sS'RP2'
p1542
I8
sS'E'
p1543
I12
sS'TO'
p1544
I11
sS'RP1'
p1545
I13
sS'JP'
p1546
I6
sS'RP_tot'
p1547
I14
sS'P'
p1548
I6
sS'PA'
p1549
I10
sS'M'
p1550
I5
sS'R'
p1551
I8
sS'TB'
p1552
I5
sS'PL'
p1553
I11
sS'TA'
p1554
I6
ssg231
g1523
sg232
I1
sg233
g31
sg235
I0
sg236
I0
sg237
I0
sg238
I36
sg239
I34
sg240
I1
sg241
S'B'
p1555
sbssg207
I0
sg208
I0
sg209
I1
sg210
I0
sg141
(dp1556
g75
I0
sg76
I0
sg77
I0
sg78
I0
ssg211
I0
sg212
I0
sg213
I1
sg214
(dp1557
g324
I10
sg325
I9
sg326
I8
sg327
I12
sg328
I11
sg329
I13
sg330
I6
sg331
I14
sg332
I6
sg333
I10
sg334
I5
sg335
I8
sg336
I5
sg337
I11
sg338
I6
ssg231
(dp1558
g98
I10
sg99
I9
sg100
I8
sg101
I10
sg106
I6
sg103
I13
sg104
I6
sg105
I14
sg102
I11
sg107
I10
sg108
I3
sg109
I8
sg110
I5
sg111
I11
sg112
I6
ssg232
I0
sg340
(dp1559
sg235
I0
sg233
g31
sg236
I0
sg237
I0
sg238
I36
sg239
I37
sg240
I0
sg241
S'B'
p1560
sbssS'totaux'
p1561
(dp1562
g19
I0
sg20
I0
sg21
I0
ssS'_compo_defaut_fatigue'
p1563
Nsg96
(dp1564
g4
I0
sg5
I0
sg6
I0
sg7
I0
sg8
I0
sg9
I0
sg10
I0
sg11
I0
sg12
I0
sg13
I0
sg14
I0
sg15
I0
sg16
I0
ssS'joueurs'
p1565
(dp1566
S'n12'
p1567
g1114
sS'n13'
p1568
(ijoueur
joueur
p1569
(dp1570
g27
F12.419354838709678
sg28
I0
sg29
F12.741935483870968
sg30
g31
sg32
I1
sg33
I0
sg34
I0
sg35
g36
(g37
g38
Ntp1571
Rp1572
(dp1573
g42
I5
sg43
S'xx'
p1574
sg45
g603
sbsg47
(dp1575
g49
I0
sg50
I26
sg51
I0
sg52
I14
ssg53
(dp1576
g49
I0
sg50
I0
sg51
I0
sg52
I0
ssg55
I0
sg56
I0
sg57
F12.67741935483871
sg58
I0
sg59
I0
sg60
I0
sg61
I0
sg62
I0
sg63
(g64
S'AI'
p1577
S'CE'
p1578
g31
tp1579
sg68
I00
sg69
g36
(g37
g38
Ntp1580
Rp1581
(dp1582
g42
I5
sg43
S'xx'
p1583
sg45
g603
sbsg73
(dp1584
g75
I0
sg76
I0
sg77
I0
sg78
I0
ssg79
I00
sg80
(dp1585
g75
I0
sg76
I0
sg77
I0
sg78
I0
ssg82
(dp1586
g49
I0
sg50
I2
sg51
I1
sg52
I0
ssg84
I0
sg86
I0
sg87
S'Croskhaen'
p1587
sg89
I7
sg90
I0
sg91
I21
sg92
I483
sg93
g94
sg96
(dp1588
g98
I14
sg99
I8
sg100
I11
sg101
I10
sg102
I13
sg103
I9
sg104
I10
sg105
I12
sg106
I9
sg107
I16
sg108
I13
sg109
I13
sg110
I6
sg111
I13
sg112
I5
ssg113
(dp1589
g115
(ijoueur
joueur
p1590
(dp1591
g27
F12.419354838709678
sg28
I0
sg30
g31
sg32
I1
sg34
I0
sg35
g36
(g37
g38
Ntp1592
Rp1593
(dp1594
g42
I5
sg43
S'xx'
p1595
sg45
g621
sbsg47
(dp1596
g124
I0
sg125
I26
sg126
I0
sg127
I14
ssg53
(dp1597
g124
I0
sg125
I0
sg126
I0
sg127
I0
ssg56
I0
sg58
I0
sg79
I01
sg60
I3
sg61
I0
sg62
I0
sg63
(g129
S'AI'
p1598
S'CE'
p1599
g31
tp1600
sg68
I00
sg69
g36
(g37
g38
Ntp1601
Rp1602
(dp1603
g42
I5
sg43
S'xx'
p1604
sg45
g621
sbsg73
(dp1605
g137
I0
sg138
I0
sg139
I1
sg140
I0
ssg141
(dp1606
g137
I0
sg138
I5
sg139
I0
sg140
I15
ssg80
(dp1607
g137
I0
sg138
I0
sg139
I0
sg140
I0
ssg82
(dp1608
g124
I0
sg125
I2
sg126
I1
sg127
I0
ssg84
I0
sg86
I0
sg87
S'Croskhaen'
p1609
sg89
I7
sg90
I0
sg91
I21
sg92
I483
sg93
g146
sg96
(dp1610
g148
I14
sg149
I8
sg150
I11
sg151
I10
sg152
I9
sg153
I9
sg154
I10
sg155
I13
sg156
I13
sg157
I15
sg158
I13
sg159
I12
sg160
I6
sg161
I13
sg162
I5
ssg113
(dp1611
g164
(ijoueur
joueur
p1612
(dp1613
g28
I0
sg32
I0
sg34
I0
sg35
g36
(g37
g38
Ntp1614
Rp1615
(dp1616
g42
I5
sg43
S'xx'
p1617
sg45
S'seigneur'
p1618
sbsg47
(dp1619
S'SR'
p1620
I0
sS'ST'
p1621
I8
sS'CR'
p1622
I0
sS'CT'
p1623
I11
ssg53
(dp1624
g1620
I0
sg1621
I0
sg1622
I0
sg1623
I0
ssg56
I0
sg58
I0
sg79
I01
sg60
I0
sg61
I0
sg62
I0
sg63
(S'dummy'
p1625
S'AI'
p1626
S'CE'
p1627
g31
tp1628
sg68
I00
sg69
g36
(g37
g38
Ntp1629
Rp1630
(dp1631
g42
I5
sg43
S'xx'
p1632
sg45
g1618
sbsg73
(dp1633
g1620
I0
sg1621
I0
sg1622
I0
sg1623
I2
ssg141
(dp1634
g1620
I0
sg1621
I8
sg1622
I0
sg1623
I11
ssg80
(dp1635
g1620
I0
sg1621
I0
sg1622
I0
sg1623
I0
ssg82
(dp1636
g1620
I0
sg1621
I0
sg1622
I0
sg1623
I2
ssg84
I0
sg86
I0
sg87
S'Croskhaen'
p1637
sg89
I7
sg90
I0
sg91
I21
sg92
I483
sg93
S'SN'
p1638
sg96
(dp1639
S'A'
p1640
I14
sS'ME'
p1641
I8
sS'RP2'
p1642
I11
sS'E'
p1643
I10
sS'TO'
p1644
I13
sS'RP1'
p1645
I9
sS'JP'
p1646
I9
sS'RP_tot'
p1647
I13
sS'P'
p1648
I9
sS'PA'
p1649
I15
sS'M'
p1650
I13
sS'R'
p1651
I11
sS'TB'
p1652
I6
sS'PL'
p1653
I11
sS'TA'
p1654
I5
ssg207
I0
sg208
I0
sg209
I0
sg210
I0
sg57
F12.419354838709678
sg211
I0
sg212
I0
sg213
I0
sg214
(dp1655
S'A'
p1656
I14
sS'ME'
p1657
I8
sS'RP2'
p1658
I11
sS'E'
p1659
I10
sS'TO'
p1660
I13
sS'RP1'
p1661
I9
sS'JP'
p1662
I9
sS'RP_tot'
p1663
I13
sS'P'
p1664
I9
sS'PA'
p1665
I15
sS'M'
p1666
I13
sS'R'
p1667
I11
sS'TB'
p1668
I6
sS'PL'
p1669
I11
sS'TA'
p1670
I5
ssg231
g1639
sg232
I0
sg233
g31
sg235
I0
sg236
I0
sg237
I0
sg238
I49
sg239
I0
sg240
I0
sg241
S'S'
p1671
sbssg207
I9
sg208
I0
sg209
I1
sg210
I0
sg57
F12.741935483870968
sg211
I0
sg212
I1
sg213
I2
sg214
(dp1672
g244
I14
sg245
I8
sg246
I11
sg247
I10
sg248
I13
sg249
I9
sg250
I9
sg251
I13
sg252
I9
sg253
I15
sg254
I13
sg255
I11
sg256
I6
sg257
I11
sg258
I5
ssg231
g1610
sg232
I0
sg233
g31
sg235
I0
sg236
I1
sg237
I0
sg238
I49
sg239
I3
sg240
I2
sg241
S'S'
p1673
sbsg261
(ijoueur
joueur
p1674
(dp1675
g28
I0
sg32
I0
sg34
I0
sg35
g36
(g37
g38
Ntp1676
Rp1677
(dp1678
g42
I5
sg43
S'xx'
p1679
sg45
S'seigneur'
p1680
sbsg47
(dp1681
S'SR'
p1682
I0
sS'ST'
p1683
I8
sS'CR'
p1684
I0
sS'CT'
p1685
I11
ssg53
(dp1686
g1682
I0
sg1683
I0
sg1684
I0
sg1685
I0
ssg56
I0
sg58
I0
sg79
I01
sg60
I0
sg61
I0
sg62
I0
sg63
(S'dummy'
p1687
S'AI'
p1688
S'CE'
p1689
g31
tp1690
sg68
I00
sg69
g36
(g37
g38
Ntp1691
Rp1692
(dp1693
g42
I5
sg43
S'xx'
p1694
sg45
g1680
sbsg73
(dp1695
g1682
I0
sg1683
I0
sg1684
I0
sg1685
I2
ssg141
(dp1696
g1682
I0
sg1683
I8
sg1684
I0
sg1685
I11
ssg80
(dp1697
g1682
I0
sg1683
I0
sg1684
I0
sg1685
I0
ssg82
(dp1698
g1682
I0
sg1683
I0
sg1684
I0
sg1685
I2
ssg84
I0
sg86
I0
sg87
S'Croskhaen'
p1699
sg89
I7
sg90
I0
sg91
I21
sg92
I483
sg93
S'SN'
p1700
sg96
(dp1701
S'A'
p1702
I14
sS'ME'
p1703
I8
sS'RP2'
p1704
I11
sS'E'
p1705
I10
sS'TO'
p1706
I13
sS'RP1'
p1707
I9
sS'JP'
p1708
I9
sS'RP_tot'
p1709
I13
sS'P'
p1710
I9
sS'PA'
p1711
I15
sS'M'
p1712
I13
sS'R'
p1713
I11
sS'TB'
p1714
I6
sS'PL'
p1715
I11
sS'TA'
p1716
I5
ssg207
I0
sg208
I0
sg209
I0
sg210
I0
sg57
F12.419354838709678
sg211
I0
sg212
I0
sg213
I0
sg214
(dp1717
S'A'
p1718
I14
sS'ME'
p1719
I8
sS'RP2'
p1720
I11
sS'E'
p1721
I10
sS'TO'
p1722
I13
sS'RP1'
p1723
I9
sS'JP'
p1724
I9
sS'RP_tot'
p1725
I13
sS'P'
p1726
I9
sS'PA'
p1727
I15
sS'M'
p1728
I13
sS'R'
p1729
I11
sS'TB'
p1730
I6
sS'PL'
p1731
I11
sS'TA'
p1732
I5
ssg231
g1701
sg232
I0
sg233
g31
sg235
I0
sg236
I0
sg237
I0
sg238
I49
sg239
I0
sg240
I0
sg241
S'S'
p1733
sbssg207
I0
sg208
I0
sg209
I1
sg210
I0
sg141
(dp1734
g75
I0
sg76
I0
sg77
I0
sg78
I0
ssg211
I0
sg212
I0
sg213
I2
sg214
(dp1735
g324
I14
sg325
I8
sg326
I11
sg327
I10
sg328
I13
sg329
I9
sg330
I9
sg331
I13
sg332
I9
sg333
I15
sg334
I13
sg335
I11
sg336
I6
sg337
I11
sg338
I5
ssg231
(dp1736
g98
I14
sg99
I8
sg100
I11
sg101
I10
sg106
I9
sg103
I9
sg104
I10
sg105
I12
sg102
I13
sg107
I16
sg108
I13
sg109
I13
sg110
I6
sg111
I13
sg112
I5
ssg232
I0
sg340
(dp1737
sg235
I0
sg233
g31
sg236
I0
sg237
I0
sg238
I49
sg239
I3
sg240
I0
sg241
S'S'
p1738
sbsS'n10'
p1739
(ijoueur
joueur
p1740
(dp1741
g27
F9.633333333333333
sg28
I0
sg29
F9.9
sg30
g31
sg32
I1
sg33
I0
sg34
I0
sg35
g36
(g37
g38
Ntp1742
Rp1743
(dp1744
g42
I2
sg43
S'<<'
p1745
sg45
S'special'
p1746
sbsg47
(dp1747
g49
I0
sg50
I0
sg51
I11
sg52
I0
ssg53
(dp1748
g49
I0
sg50
I0
sg51
I0
sg52
I0
ssg55
I0
sg56
I0
sg57
F10.1
sg58
I0
sg59
I0
sg60
I0
sg61
I0
sg62
I0
sg63
(g64
S'C1'
p1749
S'DO'
p1750
g31
tp1751
sg68
I00
sg69
g36
(g37
g38
Ntp1752
Rp1753
(dp1754
g42
I2
sg43
S'<<'
p1755
sg45
g1746
sbsg73
(dp1756
g75
I0
sg76
I0
sg77
I0
sg78
I0
ssg79
I00
sg80
(dp1757
g75
I0
sg76
I0
sg77
I0
sg78
I0
ssg82
(dp1758
g49
I0
sg50
I1
sg51
I3
sg52
I0
ssg84
I0
sg86
I0
sg87
S'Croess'
p1759
sg89
I11
sg90
I0
sg91
I21
sg92
I32
sg93
g94
sg96
(dp1760
g98
I12
sg99
I4
sg100
I8
sg101
I10
sg102
I5
sg103
I6
sg104
I10
sg105
I8
sg106
I9
sg107
I12
sg108
I11
sg109
I7
sg110
I8
sg111
I10
sg112
I7
ssg113
(dp1761
g115
(ijoueur
joueur
p1762
(dp1763
g27
F9.633333333333333
sg28
I0
sg30
g31
sg32
I1
sg34
I0
sg35
g36
(g37
g38
Ntp1764
Rp1765
(dp1766
g42
I2
sg43
S'<<'
p1767
sg45
S'special'
p1768
sbsg47
(dp1769
g124
I0
sg125
I0
sg126
I11
sg127
I0
ssg53
(dp1770
g124
I0
sg125
I0
sg126
I0
sg127
I0
ssg56
I0
sg58
I0
sg79
I01
sg60
I0
sg61
I0
sg62
I0
sg63
(g129
S'C1'
p1771
S'DO'
p1772
g31
tp1773
sg68
I00
sg69
g36
(g37
g38
Ntp1774
Rp1775
(dp1776
g42
I2
sg43
S'<<'
p1777
sg45
g1768
sbsg73
(dp1778
g137
I0
sg138
I0
sg139
I2
sg140
I1
ssg141
(dp1779
g137
I0
sg138
I0
sg139
I7
sg140
I0
ssg80
(dp1780
g137
I0
sg138
I0
sg139
I0
sg140
I0
ssg82
(dp1781
g124
I0
sg125
I1
sg126
I3
sg127
I0
ssg84
I0
sg86
I0
sg87
S'Croess'
p1782
sg89
I11
sg90
I0
sg91
I21
sg92
I32
sg93
g146
sg96
(dp1783
g148
I12
sg149
I4
sg150
I8
sg151
I10
sg152
I8
sg153
I6
sg154
I10
sg155
I8
sg156
I5
sg157
I11
sg158
I11
sg159
I7
sg160
I8
sg161
I10
sg162
I7
ssg113
(dp1784
g164
(ijoueur
joueur
p1785
(dp1786
g28
I0
sg32
I0
sg34
I0
sg35
g36
(g37
g38
Ntp1787
Rp1788
(dp1789
g42
I2
sg43
S'<<'
p1790
sg45
S'special'
p1791
sbsg47
(dp1792
S'SR'
p1793
I0
sS'ST'
p1794
I0
sS'CR'
p1795
I4
sS'CT'
p1796
I0
ssg53
(dp1797
g1793
I0
sg1794
I0
sg1795
I0
sg1796
I0
ssg56
I0
sg58
I0
sg79
I01
sg60
I0
sg61
I0
sg62
I0
sg63
(S'dummy'
p1798
S'C1'
p1799
S'DO'
p1800
g31
tp1801
sg68
I00
sg69
g36
(g37
g38
Ntp1802
Rp1803
(dp1804
g42
I2
sg43
S'<<'
p1805
sg45
g1791
sbsg73
(dp1806
g1793
I0
sg1794
I0
sg1795
I1
sg1796
I0
ssg141
(dp1807
g1793
I0
sg1794
I0
sg1795
I4
sg1796
I0
ssg80
(dp1808
g1793
I0
sg1794
I0
sg1795
I0
sg1796
I0
ssg82
(dp1809
g1793
I0
sg1794
I0
sg1795
I1
sg1796
I0
ssg84
I0
sg86
I0
sg87
S'Croess'
p1810
sg89
I11
sg90
I0
sg91
I21
sg92
I32
sg93
S'SN'
p1811
sg96
(dp1812
S'A'
p1813
I12
sS'ME'
p1814
I4
sS'RP2'
p1815
I8
sS'E'
p1816
I10
sS'TO'
p1817
I5
sS'RP1'
p1818
I6
sS'JP'
p1819
I10
sS'RP_tot'
p1820
I8
sS'P'
p1821
I8
sS'PA'
p1822
I11
sS'M'
p1823
I10
sS'R'
p1824
I7
sS'TB'
p1825
I8
sS'PL'
p1826
I9
sS'TA'
p1827
I7
ssg207
I0
sg208
I0
sg209
I0
sg210
I0
sg57
F9.633333333333333
sg211
I0
sg212
I0
sg213
I0
sg214
(dp1828
S'A'
p1829
I12
sS'ME'
p1830
I4
sS'RP2'
p1831
I8
sS'E'
p1832
I10
sS'TO'
p1833
I5
sS'RP1'
p1834
I6
sS'JP'
p1835
I10
sS'RP_tot'
p1836
I8
sS'P'
p1837
I8
sS'PA'
p1838
I11
sS'M'
p1839
I10
sS'R'
p1840
I7
sS'TB'
p1841
I8
sS'PL'
p1842
I9
sS'TA'
p1843
I7
ssg231
g1812
sg232
I0
sg233
g31
sg235
I0
sg236
I0
sg237
I0
sg238
I3
sg239
I0
sg240
I0
sg241
S'S'
p1844
sbssg207
I0
sg208
I0
sg209
I0
sg210
I0
sg57
F9.9
sg211
I0
sg212
I0
sg213
I1
sg214
(dp1845
g244
I12
sg245
I4
sg246
I8
sg247
I10
sg248
I5
sg249
I6
sg250
I10
sg251
I8
sg252
I8
sg253
I11
sg254
I10
sg255
I7
sg256
I8
sg257
I9
sg258
I7
ssg231
g1783
sg232
I0
sg233
g31
sg235
I0
sg236
I1
sg237
I0
sg238
I3
sg239
I0
sg240
I1
sg241
g1673
sbsg261
(ijoueur
joueur
p1846
(dp1847
g28
I0
sg32
I0
sg34
I0
sg35
g36
(g37
g38
Ntp1848
Rp1849
(dp1850
g42
I2
sg43
S'<<'
p1851
sg45
S'special'
p1852
sbsg47
(dp1853
S'SR'
p1854
I0
sS'ST'
p1855
I0
sS'CR'
p1856
I4
sS'CT'
p1857
I0
ssg53
(dp1858
g1854
I0
sg1855
I0
sg1856
I0
sg1857
I0
ssg56
I0
sg58
I0
sg79
I01
sg60
I0
sg61
I0
sg62
I0
sg63
(S'dummy'
p1859
S'C1'
p1860
S'DO'
p1861
g31
tp1862
sg68
I00
sg69
g36
(g37
g38
Ntp1863
Rp1864
(dp1865
g42
I2
sg43
S'<<'
p1866
sg45
g1852
sbsg73
(dp1867
g1854
I0
sg1855
I0
sg1856
I1
sg1857
I0
ssg141
(dp1868
g1854
I0
sg1855
I0
sg1856
I4
sg1857
I0
ssg80
(dp1869
g1854
I0
sg1855
I0
sg1856
I0
sg1857
I0
ssg82
(dp1870
g1854
I0
sg1855
I0
sg1856
I1
sg1857
I0
ssg84
I0
sg86
I0
sg87
S'Croess'
p1871
sg89
I11
sg90
I0
sg91
I21
sg92
I32
sg93
S'SN'
p1872
sg96
(dp1873
S'A'
p1874
I12
sS'ME'
p1875
I4
sS'RP2'
p1876
I8
sS'E'
p1877
I10
sS'TO'
p1878
I5
sS'RP1'
p1879
I6
sS'JP'
p1880
I10
sS'RP_tot'
p1881
I8
sS'P'
p1882
I8
sS'PA'
p1883
I11
sS'M'
p1884
I10
sS'R'
p1885
I7
sS'TB'
p1886
I8
sS'PL'
p1887
I9
sS'TA'
p1888
I7
ssg207
I0
sg208
I0
sg209
I0
sg210
I0
sg57
F9.633333333333333
sg211
I0
sg212
I0
sg213
I0
sg214
(dp1889
S'A'
p1890
I12
sS'ME'
p1891
I4
sS'RP2'
p1892
I8
sS'E'
p1893
I10
sS'TO'
p1894
I5
sS'RP1'
p1895
I6
sS'JP'
p1896
I10
sS'RP_tot'
p1897
I8
sS'P'
p1898
I8
sS'PA'
p1899
I11
sS'M'
p1900
I10
sS'R'
p1901
I7
sS'TB'
p1902
I8
sS'PL'
p1903
I9
sS'TA'
p1904
I7
ssg231
g1873
sg232
I0
sg233
g31
sg235
I0
sg236
I0
sg237
I0
sg238
I3
sg239
I0
sg240
I0
sg241
S'S'
p1905
sbssg207
I0
sg208
I0
sg209
I0
sg210
I0
sg141
(dp1906
g75
I0
sg76
I0
sg77
I0
sg78
I0
ssg211
I0
sg212
I0
sg213
I1
sg214
(dp1907
g324
I12
sg325
I4
sg326
I8
sg327
I10
sg328
I5
sg329
I6
sg330
I10
sg331
I8
sg332
I8
sg333
I11
sg334
I10
sg335
I7
sg336
I8
sg337
I9
sg338
I7
ssg231
(dp1908
g98
I12
sg99
I4
sg100
I8
sg101
I10
sg106
I9
sg103
I6
sg104
I10
sg105
I8
sg102
I5
sg107
I12
sg108
I11
sg109
I7
sg110
I8
sg111
I10
sg112
I7
ssg232
I0
sg340
(dp1909
sg235
I0
sg233
g31
sg236
I0
sg237
I0
sg238
I3
sg239
I0
sg240
I0
sg241
g1738
sbsS'n11'
p1910
(ijoueur
joueur
p1911
(dp1912
g27
F12.0
sg28
I0
sg29
F11.606060606060606
sg30
g31
sg32
I3
sg33
I0
sg34
I0
sg35
g36
(g37
g38
Ntp1913
Rp1914
(dp1915
g42
I6
sg43
S'***'
p1916
sg45
g1395
sbsg47
(dp1917
g49
I1
sg50
I0
sg51
I0
sg52
I0
ssg53
(dp1918
g49
I1
sg50
I13
sg51
I0
sg52
I0
ssg55
I0
sg56
I0
sg57
F11.303030303030303
sg58
I0
sg59
I0
sg60
I0
sg61
I0
sg62
I0
sg63
(g64
S'AR'
p1919
S'CE'
p1920
S'AI'
p1921
tp1922
sg68
I00
sg69
g36
(g37
g38
Ntp1923
Rp1924
(dp1925
g42
I6
sg43
S'***'
p1926
sg45
g1395
sbsg73
(dp1927
g75
I0
sg76
I0
sg77
I0
sg78
I0
ssg79
I00
sg80
(dp1928
g75
I0
sg76
I0
sg77
I0
sg78
I0
ssg82
(dp1929
g49
I4
sg50
I15
sg51
I1
sg52
I8
ssg84
I0
sg86
I0
sg87
S'Snikch'
p1930
sg89
I7
sg90
I0
sg91
I20
sg92
I576
sg93
g94
sg96
(dp1931
g98
I12
sg99
I6
sg100
I14
sg101
I8
sg102
I13
sg103
I7
sg104
I9
sg105
I14
sg106
I9
sg107
I12
sg108
I10
sg109
I9
sg110
I9
sg111
I13
sg112
I5
ssg113
(dp1932
g115
(ijoueur
joueur
p1933
(dp1934
g27
F12.0
sg28
I0
sg30
g31
sg32
I3
sg34
I0
sg35
g36
(g37
g38
Ntp1935
Rp1936
(dp1937
g42
I6
sg43
S'***'
p1938
sg45
g1417
sbsg47
(dp1939
g124
I1
sg125
I0
sg126
I0
sg127
I0
ssg53
(dp1940
g124
I1
sg125
I13
sg126
I0
sg127
I0
ssg56
I0
sg58
I0
sg79
I00
sg60
I4
sg61
I0
sg62
I0
sg63
(g129
S'AR'
p1941
S'CE'
p1942
S'AI'
p1943
tp1944
sg68
I00
sg69
g36
(g37
g38
Ntp1945
Rp1946
(dp1947
g42
I6
sg43
S'***'
p1948
sg45
g1417
sbsg73
(dp1949
g137
I3
sg138
I1
sg139
I1
sg140
I1
ssg141
(dp1950
g137
I1
sg138
I0
sg139
I0
sg140
I0
ssg80
(dp1951
g137
I0
sg138
I0
sg139
I0
sg140
I13
ssg82
(dp1952
g124
I4
sg125
I15
sg126
I1
sg127
I8
ssg84
I0
sg86
I0
sg87
S'Snikch'
p1953
sg89
I7
sg90
I0
sg91
I20
sg92
I576
sg93
g146
sg96
(dp1954
g148
I12
sg149
I6
sg150
I14
sg151
I8
sg152
I9
sg153
I7
sg154
I9
sg155
I14
sg156
I13
sg157
I12
sg158
I11
sg159
I9
sg160
I9
sg161
I14
sg162
I5
ssg113
(dp1955
g164
(ijoueur
joueur
p1956
(dp1957
g28
I0
sg32
I3
sg34
I0
sg35
g36
(g37
g38
Ntp1958
Rp1959
(dp1960
g42
I6
sg43
S'***'
p1961
sg45
S'personnage'
p1962
sbsg47
(dp1963
S'SR'
p1964
I0
sS'ST'
p1965
I0
sS'CR'
p1966
I0
sS'CT'
p1967
I0
ssg53
(dp1968
g1964
I1
sg1965
I0
sg1966
I0
sg1967
I0
ssg56
I0
sg58
I0
sg79
I00
sg60
I1
sg61
I0
sg62
I0
sg63
(S'dummy'
p1969
S'AR'
p1970
S'CE'
p1971
S'AI'
p1972
tp1973
sg68
I00
sg69
g36
(g37
g38
Ntp1974
Rp1975
(dp1976
g42
I6
sg43
S'***'
p1977
sg45
g1962
sbsg73
(dp1978
g1964
I0
sg1965
I7
sg1966
I0
sg1967
I14
ssg141
(dp1979
g1964
I0
sg1965
I0
sg1966
I0
sg1967
I0
ssg80
(dp1980
g1964
I1
sg1965
I0
sg1966
I0
sg1967
I0
ssg82
(dp1981
g1964
I0
sg1965
I7
sg1966
I0
sg1967
I14
ssg84
I0
sg86
I0
sg87
S'Snikch'
p1982
sg89
I7
sg90
I0
sg91
I20
sg92
I576
sg93
S'SN'
p1983
sg96
(dp1984
S'A'
p1985
I13
sS'ME'
p1986
I6
sS'RP2'
p1987
I14
sS'E'
p1988
I8
sS'TO'
p1989
I13
sS'RP1'
p1990
I7
sS'JP'
p1991
I9
sS'RP_tot'
p1992
I14
sS'P'
p1993
I9
sS'PA'
p1994
I13
sS'M'
p1995
I12
sS'R'
p1996
I9
sS'TB'
p1997
I10
sS'PL'
p1998
I14
sS'TA'
p1999
I5
ssg207
I0
sg208
I0
sg209
I0
sg210
I0
sg57
F12.0
sg211
I0
sg212
I0
sg213
I0
sg214
(dp2000
S'A'
p2001
I13
sS'ME'
p2002
I6
sS'RP2'
p2003
I14
sS'E'
p2004
I8
sS'TO'
p2005
I13
sS'RP1'
p2006
I7
sS'JP'
p2007
I9
sS'RP_tot'
p2008
I14
sS'P'
p2009
I9
sS'PA'
p2010
I13
sS'M'
p2011
I12
sS'R'
p2012
I9
sS'TB'
p2013
I10
sS'PL'
p2014
I14
sS'TA'
p2015
I5
ssg231
g1984
sg232
I0
sg233
g31
sg235
I0
sg236
I0
sg237
I0
sg238
I106
sg239
I28
sg240
I0
sg241
S'S'
p2016
sbssg207
I3
sg208
I0
sg209
I0
sg210
I0
sg57
F11.606060606060606
sg211
I0
sg212
I0
sg213
I0
sg214
(dp2017
g244
I13
sg245
I6
sg246
I14
sg247
I8
sg248
I13
sg249
I7
sg250
I9
sg251
I14
sg252
I9
sg253
I13
sg254
I12
sg255
I9
sg256
I10
sg257
I14
sg258
I5
ssg231
g1954
sg232
I0
sg233
g31
sg235
I0
sg236
I0
sg237
I0
sg238
I106
sg239
I32
sg240
I0
sg241
g1673
sbsg261
(ijoueur
joueur
p2018
(dp2019
g28
I0
sg32
I3
sg34
I0
sg35
g36
(g37
g38
Ntp2020
Rp2021
(dp2022
g42
I6
sg43
S'***'
p2023
sg45
S'personnage'
p2024
sbsg47
(dp2025
S'SR'
p2026
I0
sS'ST'
p2027
I0
sS'CR'
p2028
I0
sS'CT'
p2029
I0
ssg53
(dp2030
g2026
I1
sg2027
I0
sg2028
I0
sg2029
I0
ssg56
I0
sg58
I0
sg79
I00
sg60
I1
sg61
I0
sg62
I0
sg63
(S'dummy'
p2031
S'AR'
p2032
S'CE'
p2033
S'AI'
p2034
tp2035
sg68
I00
sg69
g36
(g37
g38
Ntp2036
Rp2037
(dp2038
g42
I6
sg43
S'***'
p2039
sg45
g2024
sbsg73
(dp2040
g2026
I0
sg2027
I7
sg2028
I0
sg2029
I14
ssg141
(dp2041
g2026
I0
sg2027
I0
sg2028
I0
sg2029
I0
ssg80
(dp2042
g2026
I1
sg2027
I0
sg2028
I0
sg2029
I0
ssg82
(dp2043
g2026
I0
sg2027
I7
sg2028
I0
sg2029
I14
ssg84
I0
sg86
I0
sg87
S'Snikch'
p2044
sg89
I7
sg90
I0
sg91
I20
sg92
I576
sg93
S'SN'
p2045
sg96
(dp2046
S'A'
p2047
I13
sS'ME'
p2048
I6
sS'RP2'
p2049
I14
sS'E'
p2050
I8
sS'TO'
p2051
I13
sS'RP1'
p2052
I7
sS'JP'
p2053
I9
sS'RP_tot'
p2054
I14
sS'P'
p2055
I9
sS'PA'
p2056
I13
sS'M'
p2057
I12
sS'R'
p2058
I9
sS'TB'
p2059
I10
sS'PL'
p2060
I14
sS'TA'
p2061
I5
ssg207
I0
sg208
I0
sg209
I0
sg210
I0
sg57
F12.0
sg211
I0
sg212
I0
sg213
I0
sg214
(dp2062
S'A'
p2063
I13
sS'ME'
p2064
I6
sS'RP2'
p2065
I14
sS'E'
p2066
I8
sS'TO'
p2067
I13
sS'RP1'
p2068
I7
sS'JP'
p2069
I9
sS'RP_tot'
p2070
I14
sS'P'
p2071
I9
sS'PA'
p2072
I13
sS'M'
p2073
I12
sS'R'
p2074
I9
sS'TB'
p2075
I10
sS'PL'
p2076
I14
sS'TA'
p2077
I5
ssg231
g2046
sg232
I0
sg233
g31
sg235
I0
sg236
I0
sg237
I0
sg238
I106
sg239
I28
sg240
I0
sg241
S'S'
p2078
sbssg207
I0
sg208
I0
sg209
I0
sg210
I0
sg141
(dp2079
g75
I0
sg76
I0
sg77
I0
sg78
I0
ssg211
I0
sg212
I0
sg213
I0
sg214
(dp2080
g324
I13
sg325
I6
sg326
I14
sg327
I8
sg328
I13
sg329
I7
sg330
I9
sg331
I14
sg332
I9
sg333
I13
sg334
I12
sg335
I9
sg336
I10
sg337
I14
sg338
I5
ssg231
(dp2081
g98
I12
sg99
I6
sg100
I14
sg101
I8
sg106
I9
sg103
I7
sg104
I9
sg105
I14
sg102
I13
sg107
I12
sg108
I10
sg109
I9
sg110
I9
sg111
I13
sg112
I5
ssg232
I0
sg340
(dp2082
sg235
I0
sg233
g31
sg236
I0
sg237
I0
sg238
I106
sg239
I32
sg240
I0
sg241
g1738
sbsS'n16'
p2083
(ijoueur
joueur
p2084
(dp2085
g27
F9.481481481481481
sg28
I2
sg29
F9.925925925925926
sg30
g31
sg32
I0
sg33
I0
sg34
I0
sg35
g36
(g37
g38
Ntp2086
Rp2087
(dp2088
g42
I5
sg43
S'**'
p2089
sg45
g603
sbsg47
(dp2090
g49
I0
sg50
I3
sg51
I8
sg52
I14
ssg53
(dp2091
g49
I0
sg50
I0
sg51
I0
sg52
I0
ssg55
I0
sg56
I0
sg57
F9.703703703703704
sg58
I0
sg59
I0
sg60
I0
sg61
I0
sg62
I0
sg63
(g64
S'PI'
p2092
S'TA'
p2093
g31
tp2094
sg68
I00
sg69
g2087
sg73
(dp2095
g75
I0
sg76
I0
sg77
I0
sg78
I0
ssg79
I00
sg80
(dp2096
g75
I0
sg76
I0
sg77
I0
sg78
I0
ssg82
(dp2097
g49
I0
sg50
I8
sg51
I6
sg52
I0
ssg84
I0
sg86
I0
sg87
S'Ziflad'
p2098
sg89
I8
sg90
I0
sg91
I19
sg92
I138
sg93
g94
sg96
(dp2099
g98
I11
sg99
I7
sg100
I9
sg101
I12
sg102
I8
sg103
I8
sg104
I5
sg105
I10
sg106
I6
sg107
I12
sg108
I9
sg109
I8
sg110
I5
sg111
I12
sg112
I7
ssg113
(dp2100
g115
(ijoueur
joueur
p2101
(dp2102
g27
F9.481481481481481
sg28
I2
sg30
g31
sg32
I0
sg34
I0
sg35
g36
(g37
g38
Ntp2103
Rp2104
(dp2105
g42
I5
sg43
S'**'
p2106
sg45
g621
sbsg47
(dp2107
g124
I0
sg125
I3
sg126
I8
sg127
I14
ssg53
(dp2108
g124
I0
sg125
I0
sg126
I0
sg127
I0
ssg56
I0
sg58
I0
sg79
I00
sg60
I2
sg61
I0
sg62
I0
sg63
(g129
S'PI'
p2109
S'TA'
p2110
g31
tp2111
sg68
I00
sg69
g2104
sg73
(dp2112
g137
I0
sg138
I0
sg139
I0
sg140
I7
ssg141
(dp2113
g137
I0
sg138
I7
sg139
I6
sg140
I3
ssg80
(dp2114
g137
I0
sg138
I0
sg139
I0
sg140
I0
ssg82
(dp2115
g124
I0
sg125
I8
sg126
I6
sg127
I0
ssg84
I0
sg86
I0
sg87
S'Ziflad'
p2116
sg89
I8
sg90
I0
sg91
I19
sg92
I138
sg93
g146
sg96
(dp2117
g148
I11
sg149
I8
sg150
I9
sg151
I12
sg152
I6
sg153
I8
sg154
I5
sg155
I10
sg156
I8
sg157
I12
sg158
I10
sg159
I8
sg160
I5
sg161
I12
sg162
I7
ssg113
(dp2118
g164
(ijoueur
joueur
p2119
(dp2120
g28
I1
sg32
I0
sg34
I0
sg35
g36
(g37
g38
Ntp2121
Rp2122
(dp2123
g42
I5
sg43
S'**'
p2124
sg45
S'seigneur'
p2125
sbsg47
(dp2126
S'SR'
p2127
I0
sS'ST'
p2128
I7
sS'CR'
p2129
I2
sS'CT'
p2130
I0
ssg53
(dp2131
g2127
I0
sg2128
I0
sg2129
I0
sg2130
I0
ssg56
I0
sg58
I0
sg79
I00
sg60
I0
sg61
I0
sg62
I0
sg63
(S'dummy'
p2132
S'PI'
p2133
S'TA'
p2134
g31
tp2135
sg68
I00
sg69
g36
(g37
g38
Ntp2136
Rp2137
(dp2138
g42
I4
sg43
S'*'
p2139
sg45
S'heros'
p2140
sbsg73
(dp2141
g2127
I0
sg2128
I0
sg2129
I6
sg2130
I1
ssg141
(dp2142
g2127
I0
sg2128
I7
sg2129
I2
sg2130
I0
ssg80
(dp2143
g2127
I0
sg2128
I0
sg2129
I0
sg2130
I0
ssg82
(dp2144
g2127
I0
sg2128
I0
sg2129
I6
sg2130
I1
ssg84
I0
sg86
I0
sg87
S'Ziflad'
p2145
sg89
I8
sg90
I0
sg91
I19
sg92
I68
sg93
S'SN'
p2146
sg96
(dp2147
S'A'
p2148
I10
sS'ME'
p2149
I9
sS'RP2'
p2150
I8
sS'E'
p2151
I11
sS'TO'
p2152
I7
sS'RP1'
p2153
I8
sS'JP'
p2154
I5
sS'RP_tot'
p2155
I9
sS'P'
p2156
I7
sS'PA'
p2157
I11
sS'M'
p2158
I10
sS'R'
p2159
I7
sS'TB'
p2160
I5
sS'PL'
p2161
I12
sS'TA'
p2162
I7
ssg207
I0
sg208
I0
sg209
I0
sg210
I0
sg57
F9.481481481481481
sg211
I0
sg212
I0
sg213
I0
sg214
(dp2163
S'A'
p2164
I10
sS'ME'
p2165
I9
sS'RP2'
p2166
I8
sS'E'
p2167
I11
sS'TO'
p2168
I7
sS'RP1'
p2169
I8
sS'JP'
p2170
I5
sS'RP_tot'
p2171
I9
sS'P'
p2172
I7
sS'PA'
p2173
I11
sS'M'
p2174
I10
sS'R'
p2175
I7
sS'TB'
p2176
I5
sS'PL'
p2177
I12
sS'TA'
p2178
I7
ssg231
g2147
sg232
I1
sg233
S'APA 10'
p2179
sg235
I0
sg236
I0
sg237
I0
sg238
I7
sg239
I1
sg240
I0
sg241
S'HE'
p2180
sbssg207
I17
sg208
I0
sg209
I0
sg210
I0
sg57
F9.925925925925926
sg211
I0
sg212
I0
sg213
I1
sg214
(dp2181
g244
I10
sg245
I9
sg246
I8
sg247
I11
sg248
I7
sg249
I8
sg250
I5
sg251
I9
sg252
I7
sg253
I11
sg254
I10
sg255
I7
sg256
I5
sg257
I12
sg258
I7
ssg231
g2117
sg232
I1
sg233
S'APA 10'
p2182
sg235
I0
sg236
I0
sg237
I0
sg238
I14
sg239
I3
sg240
I1
sg241
S'HE'
p2183
sbsg261
(ijoueur
joueur
p2184
(dp2185
g28
I1
sg32
I0
sg34
I0
sg35
g36
(g37
g38
Ntp2186
Rp2187
(dp2188
g42
I5
sg43
S'**'
p2189
sg45
S'seigneur'
p2190
sbsg47
(dp2191
S'SR'
p2192
I0
sS'ST'
p2193
I7
sS'CR'
p2194
I2
sS'CT'
p2195
I0
ssg53
(dp2196
g2192
I0
sg2193
I0
sg2194
I0
sg2195
I0
ssg56
I0
sg58
I0
sg79
I00
sg60
I0
sg61
I0
sg62
I0
sg63
(S'dummy'
p2197
S'PI'
p2198
S'TA'
p2199
g31
tp2200
sg68
I00
sg69
g36
(g37
g38
Ntp2201
Rp2202
(dp2203
g42
I4
sg43
S'*'
p2204
sg45
S'heros'
p2205
sbsg73
(dp2206
g2192
I0
sg2193
I0
sg2194
I6
sg2195
I1
ssg141
(dp2207
g2192
I0
sg2193
I7
sg2194
I2
sg2195
I0
ssg80
(dp2208
g2192
I0
sg2193
I0
sg2194
I0
sg2195
I0
ssg82
(dp2209
g2192
I0
sg2193
I0
sg2194
I6
sg2195
I1
ssg84
I0
sg86
I0
sg87
S'Ziflad'
p2210
sg89
I8
sg90
I0
sg91
I19
sg92
I68
sg93
S'SN'
p2211
sg96
(dp2212
S'A'
p2213
I10
sS'ME'
p2214
I9
sS'RP2'
p2215
I8
sS'E'
p2216
I11
sS'TO'
p2217
I7
sS'RP1'
p2218
I8
sS'JP'
p2219
I5
sS'RP_tot'
p2220
I9
sS'P'
p2221
I7
sS'PA'
p2222
I11
sS'M'
p2223
I10
sS'R'
p2224
I7
sS'TB'
p2225
I5
sS'PL'
p2226
I12
sS'TA'
p2227
I7
ssg207
I0
sg208
I0
sg209
I0
sg210
I0
sg57
F9.481481481481481
sg211
I0
sg212
I0
sg213
I0
sg214
(dp2228
S'A'
p2229
I10
sS'ME'
p2230
I9
sS'RP2'
p2231
I8
sS'E'
p2232
I11
sS'TO'
p2233
I7
sS'RP1'
p2234
I8
sS'JP'
p2235
I5
sS'RP_tot'
p2236
I9
sS'P'
p2237
I7
sS'PA'
p2238
I11
sS'M'
p2239
I10
sS'R'
p2240
I7
sS'TB'
p2241
I5
sS'PL'
p2242
I12
sS'TA'
p2243
I7
ssg231
g2212
sg232
I1
sg233
S'APA 10'
p2244
sg235
I0
sg236
I0
sg237
I0
sg238
I7
sg239
I1
sg240
I0
sg241
S'HE'
p2245
sbssg207
I0
sg208
I0
sg209
I0
sg210
I0
sg141
(dp2246
g75
I0
sg76
I0
sg77
I0
sg78
I0
ssg211
I0
sg212
I0
sg213
I1
sg214
(dp2247
g324
I10
sg325
I9
sg326
I8
sg327
I11
sg328
I7
sg329
I8
sg330
I5
sg331
I9
sg332
I7
sg333
I11
sg334
I10
sg335
I7
sg336
I5
sg337
I12
sg338
I7
ssg231
(dp2248
g98
I11
sg99
I7
sg100
I9
sg101
I12
sg106
I6
sg103
I8
sg104
I5
sg105
I10
sg102
I8
sg107
I12
sg108
I9
sg109
I8
sg110
I5
sg111
I12
sg112
I7
ssg232
I0
sg340
(dp2249
sg235
I0
sg233
S'APA 10'
p2250
sg236
I0
sg237
I0
sg238
I14
sg239
I3
sg240
I0
sg241
S'HE'
p2251
sbsS'n17'
p2252
(ijoueur
joueur
p2253
(dp2254
g27
F9.296296296296296
sg28
I0
sg29
F9.444444444444445
sg30
g31
sg32
I0
sg33
I0
sg34
I0
sg35
g36
(g37
g38
Ntp2255
Rp2256
(dp2257
g42
I2
sg43
S'^^'
p2258
sg45
S'special'
p2259
sbsg47
(dp2260
S'SR'
p2261
I0
sS'CT'
p2262
I0
sS'CR'
p2263
I0
sS'ST'
p2264
I0
ssg53
(dp2265
g2261
I0
sg2262
I0
sg2263
I0
sg2264
I0
ssg55
I0
sg56
I0
sg57
F9.222222222222221
sg58
I0
sS'transformations'
p2266
I0
sS'penalites'
p2267
I0
sg60
I0
sg61
I0
sg62
I0
sg63
(S'dummy'
p2268
S'PI'
p2269
g31
g31
tp2270
sg68
I00
sg69
g36
(g37
g38
Ntp2271
Rp2272
(dp2273
g42
I2
sg43
S'^^'
p2274
sg45
g2259
sbsg73
(dp2275
g75
I0
sg76
I0
sg77
I0
sg78
I0
ssg79
I00
sg80
(dp2276
g75
I0
sg76
I0
sg77
I0
sg78
I0
ssg82
(dp2277
g2261
I13
sg2262
I4
sg2263
I7
sg2264
I2
ssg84
I0
sg86
I0
sg87
S'Saolteh'
p2278
sg89
I4
sg90
I0
sg91
I18
sg92
I50
sg93
g94
sg96
(dp2279
S'A'
p2280
I8
sS'ME'
p2281
I10
sS'RP2'
p2282
I7
sS'E'
p2283
I9
sS'TO'
p2284
I6
sS'RP1'
p2285
I10
sS'JP'
p2286
I2
sS'RP_tot'
p2287
I10
sS'P'
p2288
I5
sS'PA'
p2289
I9
sS'M'
p2290
I8
sS'R'
p2291
I9
sS'TB'
p2292
I4
sS'PL'
p2293
I9
sS'TA'
p2294
I9
ssg113
(dp2295
S's12'
p2296
(ijoueur
joueur
p2297
(dp2298
g27
F9.296296296296296
sg28
I0
sg30
g31
sg32
I0
sg34
I0
sg35
g36
(g37
g38
Ntp2299
Rp2300
(dp2301
g42
I2
sg43
S'^^'
p2302
sg45
S'special'
p2303
sbsg47
(dp2304
S'SR'
p2305
I0
sS'CT'
p2306
I0
sS'CR'
p2307
I0
sS'ST'
p2308
I0
ssg53
(dp2309
g2305
I0
sg2306
I0
sg2307
I0
sg2308
I0
ssg56
I0
sg58
I0
sg2266
I0
sg2267
I0
sg79
I01
sg60
I0
sg61
I0
sg62
I0
sg63
(S'dummy'
p2310
S'PI'
p2311
g31
g31
tp2312
sg68
I01
sg69
g36
(g37
g38
Ntp2313
Rp2314
(dp2315
g42
I2
sg43
S'^^'
p2316
sg45
g2303
sbsg73
(dp2317
S'SR'
p2318
I7
sS'CT'
p2319
I1
sS'CR'
p2320
I5
sS'ST'
p2321
I0
ssg141
(dp2322
g2318
I0
sg2319
I0
sg2320
I0
sg2321
I0
ssg80
(dp2323
g2318
I0
sg2319
I0
sg2320
I0
sg2321
I0
ssg82
(dp2324
g2305
I13
sg2306
I4
sg2307
I7
sg2308
I2
ssg84
I0
sg86
I0
sg87
S'Saolteh'
p2325
sg89
I4
sg90
I0
sg91
I18
sg92
I12
sg93
S'TA'
p2326
sg96
(dp2327
S'A'
p2328
I9
sS'ME'
p2329
I10
sS'RP2'
p2330
I8
sS'E'
p2331
I9
sS'P'
p2332
I5
sS'RP1'
p2333
I10
sS'JP'
p2334
I2
sS'RP_tot'
p2335
I11
sS'TO'
p2336
I6
sS'PA'
p2337
I9
sS'M'
p2338
I8
sS'R'
p2339
I9
sS'TB'
p2340
I4
sS'PL'
p2341
I9
sS'TA'
p2342
I9
ssg113
(dp2343
S's11'
p2344
(ijoueur
joueur
p2345
(dp2346
g28
I0
sg32
I0
sg34
I0
sg35
g36
(g37
g38
Ntp2347
Rp2348
(dp2349
g42
I2
sg43
S'^^'
p2350
sg45
S'special'
p2351
sbsg47
(dp2352
S'SR'
p2353
I0
sS'CT'
p2354
I0
sS'CR'
p2355
I0
sS'ST'
p2356
I0
ssg53
(dp2357
g2353
I0
sg2354
I0
sg2355
I0
sg2356
I0
ssg56
I0
sg57
F9.296296296296296
sg58
I0
sg2266
I0
sg2267
I0
sg60
I0
sg61
I0
sg62
I0
sg63
(S'dummy'
p2358
S'PI'
p2359
g31
g31
tp2360
sg68
I00
sg69
g36
(g37
g38
Ntp2361
Rp2362
(dp2363
g42
I2
sg43
S'^^'
p2364
sg45
g2351
sbsg73
(dp2365
g2353
I6
sg2354
I3
sg2355
I2
sg2356
I2
ssg79
I01
sg80
(dp2366
g2353
I0
sg2354
I0
sg2355
I0
sg2356
I0
ssg82
(dp2367
g2353
I6
sg2354
I3
sg2355
I2
sg2356
I2
ssg84
I0
sg86
I0
sg87
S'Saolteh'
p2368
sg89
I4
sg90
I0
sg91
I18
sg92
I12
sg93
S'TA'
p2369
sg96
(dp2370
S'A'
p2371
I9
sS'ME'
p2372
I10
sS'RP2'
p2373
I6
sS'E'
p2374
I9
sS'P'
p2375
I5
sS'RP1'
p2376
I10
sS'JP'
p2377
I2
sS'RP_tot'
p2378
I10
sS'TO'
p2379
I6
sS'PA'
p2380
I9
sS'M'
p2381
I8
sS'R'
p2382
I9
sS'TB'
p2383
I4
sS'PL'
p2384
I9
sS'TA'
p2385
I8
ssg207
I0
sg208
I0
sg209
I0
sg210
I0
sg141
(dp2386
g2353
I0
sg2354
I0
sg2355
I0
sg2356
I0
ssg211
I0
sS'drops'
p2387
I0
sg212
I0
sg213
I1
sg214
(dp2388
S'A'
p2389
I9
sS'ME'
p2390
I10
sS'RP2'
p2391
I6
sS'E'
p2392
I9
sS'P'
p2393
I5
sS'RP1'
p2394
I10
sS'JP'
p2395
I2
sS'RP_tot'
p2396
I10
sS'TO'
p2397
I6
sS'PA'
p2398
I9
sS'M'
p2399
I8
sS'R'
p2400
I9
sS'TB'
p2401
I4
sS'PL'
p2402
I9
sS'TA'
p2403
I8
ssg231
g2370
sg232
I0
sg233
g31
sg235
I0
sg236
I0
sg237
I0
sg238
I1
sg239
I1
sg240
I1
sg241
S'HE'
p2404
sbssg207
I4
sg208
I0
sg209
I0
sg210
I0
sg57
F9.444444444444445
sg211
I0
sg2387
I0
sg212
I0
sg213
I1
sg214
(dp2405
S'A'
p2406
I9
sS'ME'
p2407
I10
sS'RP2'
p2408
I6
sS'E'
p2409
I9
sS'P'
p2410
I5
sS'RP1'
p2411
I10
sS'JP'
p2412
I2
sS'RP_tot'
p2413
I10
sS'TO'
p2414
I6
sS'PA'
p2415
I9
sS'M'
p2416
I8
sS'R'
p2417
I9
sS'TB'
p2418
I4
sS'PL'
p2419
I9
sS'TA'
p2420
I8
ssg231
g2327
sg232
I0
sg233
g31
sg235
I0
sg236
I0
sg237
I0
sg238
I1
sg239
I1
sg240
I0
sg241
S'HE'
p2421
sbsS's11'
p2422
(ijoueur
joueur
p2423
(dp2424
g28
I0
sg32
I0
sg34
I0
sg35
g36
(g37
g38
Ntp2425
Rp2426
(dp2427
g42
I2
sg43
S'^^'
p2428
sg45
S'special'
p2429
sbsg47
(dp2430
S'SR'
p2431
I0
sS'CT'
p2432
I0
sS'CR'
p2433
I0
sS'ST'
p2434
I0
ssg53
(dp2435
g2431
I0
sg2432
I0
sg2433
I0
sg2434
I0
ssg56
I0
sg57
F9.296296296296296
sg58
I0
sg2266
I0
sg2267
I0
sg60
I0
sg61
I0
sg62
I0
sg63
(S'dummy'
p2436
S'PI'
p2437
g31
g31
tp2438
sg68
I00
sg69
g36
(g37
g38
Ntp2439
Rp2440
(dp2441
g42
I2
sg43
S'^^'
p2442
sg45
g2429
sbsg73
(dp2443
g2431
I6
sg2432
I3
sg2433
I2
sg2434
I2
ssg79
I01
sg80
(dp2444
g2431
I0
sg2432
I0
sg2433
I0
sg2434
I0
ssg82
(dp2445
g2431
I6
sg2432
I3
sg2433
I2
sg2434
I2
ssg84
I0
sg86
I0
sg87
S'Saolteh'
p2446
sg89
I4
sg90
I0
sg91
I18
sg92
I12
sg93
S'TA'
p2447
sg96
(dp2448
S'A'
p2449
I9
sS'ME'
p2450
I10
sS'RP2'
p2451
I6
sS'E'
p2452
I9
sS'P'
p2453
I5
sS'RP1'
p2454
I10
sS'JP'
p2455
I2
sS'RP_tot'
p2456
I10
sS'TO'
p2457
I6
sS'PA'
p2458
I9
sS'M'
p2459
I8
sS'R'
p2460
I9
sS'TB'
p2461
I4
sS'PL'
p2462
I9
sS'TA'
p2463
I8
ssg207
I0
sg208
I0
sg209
I0
sg210
I0
sg141
(dp2464
g2431
I0
sg2432
I0
sg2433
I0
sg2434
I0
ssg211
I0
sg2387
I0
sg212
I0
sg213
I1
sg214
(dp2465
S'A'
p2466
I9
sS'ME'
p2467
I10
sS'RP2'
p2468
I6
sS'E'
p2469
I9
sS'P'
p2470
I5
sS'RP1'
p2471
I10
sS'JP'
p2472
I2
sS'RP_tot'
p2473
I10
sS'TO'
p2474
I6
sS'PA'
p2475
I9
sS'M'
p2476
I8
sS'R'
p2477
I9
sS'TB'
p2478
I4
sS'PL'
p2479
I9
sS'TA'
p2480
I8
ssg231
g2448
sg232
I0
sg233
g31
sg235
I0
sg236
I0
sg237
I0
sg238
I1
sg239
I1
sg240
I1
sg241
S'HE'
p2481
sbssg207
I0
sg208
I0
sg209
I0
sg210
I0
sg141
(dp2482
g75
I0
sg76
I0
sg77
I0
sg78
I0
ssg211
I0
sg59
I0
sg2387
I0
sg212
I0
sg213
I1
sg214
(dp2483
S'A'
p2484
I9
sS'ME'
p2485
I10
sS'RP2'
p2486
I6
sS'E'
p2487
I9
sS'P'
p2488
I5
sS'RP1'
p2489
I10
sS'JP'
p2490
I2
sS'RP_tot'
p2491
I10
sS'TO'
p2492
I6
sS'PA'
p2493
I9
sS'M'
p2494
I8
sS'R'
p2495
I9
sS'TB'
p2496
I4
sS'PL'
p2497
I9
sS'TA'
p2498
I8
ssg231
(dp2499
g2280
I8
sg2281
I10
sg2282
I7
sg2283
I9
sg2288
I5
sg2285
I10
sg2286
I2
sg2287
I10
sg2284
I6
sg2289
I9
sg2290
I8
sg2291
I9
sg2292
I4
sg2293
I9
sg2294
I9
ssg232
I0
sg340
(dp2500
sg235
I0
sg233
S'TA 13'
p2501
sg236
I0
sg237
I0
sg238
I5
sg239
I1
sg240
I0
sg241
S'HE'
p2502
sbsS'n14'
p2503
(ijoueur
joueur
p2504
(dp2505
g27
F10.7
sg28
I0
sg29
F10.766666666666667
sg30
g31
sg32
I0
sg33
I0
sg34
I0
sg35
g36
(g37
g38
Ntp2506
Rp2507
(dp2508
g42
I4
sg43
S'x'
p2509
sg45
S'heros'
p2510
sbsg47
(dp2511
S'SR'
p2512
I3
sS'CT'
p2513
I1
sS'CR'
p2514
I0
sS'ST'
p2515
I0
ssg53
(dp2516
g2512
I4
sg2513
I1
sg2514
I0
sg2515
I1
ssg55
I0
sg56
I0
sg57
F10.766666666666667
sg58
I0
sg59
I0
sg60
I0
sg61
I0
sg62
I0
sg63
(S'dummy'
p2517
S'C1'
p2518
S'AR'
p2519
S'AI'
p2520
tp2521
sg68
I00
sg69
g36
(g37
g38
Ntp2522
Rp2523
(dp2524
g42
I4
sg43
g2509
sg45
g2510
sbsg73
(dp2525
g75
I0
sg76
I0
sg77
I0
sg78
I0
ssg79
I00
sg80
(dp2526
g75
I0
sg76
I0
sg77
I0
sg78
I0
ssg82
(dp2527
g2512
I3
sg2513
I25
sg2514
I0
sg2515
I0
ssg84
I0
sg86
I0
sg87
S'Farifend'
p2528
sg89
I7
sg90
I0
sg91
I22
sg92
I123
sg93
g94
sg96
(dp2529
S'A'
p2530
I12
sS'ME'
p2531
I3
sS'RP2'
p2532
I8
sS'E'
p2533
I11
sS'TO'
p2534
I10
sS'RP1'
p2535
I9
sS'JP'
p2536
I9
sS'RP_tot'
p2537
I10
sS'P'
p2538
I11
sS'PA'
p2539
I12
sS'M'
p2540
I13
sS'R'
p2541
I7
sS'TB'
p2542
I8
sS'PL'
p2543
I10
sS'TA'
p2544
I3
ssg113
(dp2545
g115
(ijoueur
joueur
p2546
(dp2547
g27
F10.7
sg28
I0
sg30
g31
sg32
I0
sg34
I0
sg35
g36
(g37
g38
Ntp2548
Rp2549
(dp2550
g42
I4
sg43
S'x'
p2551
sg45
S'heros'
p2552
sbsg47
(dp2553
S'SR'
p2554
I3
sS'CT'
p2555
I1
sS'CR'
p2556
I0
sS'ST'
p2557
I0
ssg53
(dp2558
g2554
I4
sg2555
I1
sg2556
I0
sg2557
I1
ssg56
I0
sg58
I0
sg79
I00
sg60
I2
sg61
I0
sg62
I0
sg63
(S'dummy'
p2559
S'C1'
p2560
S'AR'
p2561
S'AI'
p2562
tp2563
sg68
I00
sg69
g36
(g37
g38
Ntp2564
Rp2565
(dp2566
g42
I4
sg43
g2551
sg45
g2552
sbsg73
(dp2567
g137
I0
sg138
I0
sg139
I0
sg140
I11
ssg141
(dp2568
g137
I3
sg138
I0
sg139
I0
sg140
I1
ssg80
(dp2569
g137
I3
sg138
I1
sg139
I0
sg140
I1
ssg82
(dp2570
g2554
I3
sg2555
I25
sg2556
I0
sg2557
I0
ssg84
I0
sg86
I0
sg87
S'Farifend'
p2571
sg89
I7
sg90
I0
sg91
I22
sg92
I123
sg93
g146
sg96
(dp2572
S'A'
p2573
I12
sS'ME'
p2574
I3
sS'RP2'
p2575
I8
sS'E'
p2576
I11
sS'P'
p2577
I11
sS'RP1'
p2578
I9
sS'JP'
p2579
I9
sS'RP_tot'
p2580
I10
sS'TO'
p2581
I10
sS'PA'
p2582
I12
sS'M'
p2583
I13
sS'R'
p2584
I7
sS'TB'
p2585
I9
sS'PL'
p2586
I10
sS'TA'
p2587
I3
ssg113
(dp2588
g164
(ijoueur
joueur
p2589
(dp2590
g28
I0
sg32
I0
sg34
I0
sg35
g36
(g37
g38
Ntp2591
Rp2592
(dp2593
g42
I4
sg43
S'x'
p2594
sg45
S'heros'
p2595
sbsg47
(dp2596
S'SR'
p2597
I0
sS'ST'
p2598
I0
sS'CR'
p2599
I0
sS'CT'
p2600
I0
ssg53
(dp2601
g2597
I1
sg2598
I0
sg2599
I0
sg2600
I0
ssg56
I0
sg58
I0
sg79
I00
sg60
I2
sg61
I0
sg62
I0
sg63
(S'dummy'
p2602
S'C1'
p2603
S'AR'
p2604
S'AI'
p2605
tp2606
sg68
I01
sg69
g36
(g37
g38
Ntp2607
Rp2608
(dp2609
g42
I4
sg43
g2594
sg45
g2595
sbsg73
(dp2610
g2597
I3
sg2598
I0
sg2599
I0
sg2600
I14
ssg141
(dp2611
g2597
I0
sg2598
I0
sg2599
I0
sg2600
I0
ssg80
(dp2612
g2597
I1
sg2598
I0
sg2599
I0
sg2600
I0
ssg82
(dp2613
g2597
I3
sg2598
I0
sg2599
I0
sg2600
I14
ssg84
I0
sg86
I0
sg87
S'Farifend'
p2614
sg89
I7
sg90
I0
sg91
I22
sg92
I120
sg93
S'HTH'
p2615
sg96
(dp2616
S'A'
p2617
I12
sS'ME'
p2618
I3
sS'RP2'
p2619
I8
sS'E'
p2620
I11
sS'TO'
p2621
I10
sS'RP1'
p2622
I9
sS'JP'
p2623
I8
sS'RP_tot'
p2624
I10
sS'P'
p2625
I11
sS'PA'
p2626
I12
sS'M'
p2627
I13
sS'R'
p2628
I7
sS'TB'
p2629
I9
sS'PL'
p2630
I10
sS'TA'
p2631
I3
ssg207
I0
sg208
I0
sg209
I0
sg210
I0
sg57
F10.7
sg211
I0
sg212
I0
sg213
I0
sg214
(dp2632
S'A'
p2633
I12
sS'ME'
p2634
I3
sS'RP2'
p2635
I8
sS'E'
p2636
I11
sS'TO'
p2637
I10
sS'RP1'
p2638
I9
sS'JP'
p2639
I8
sS'RP_tot'
p2640
I10
sS'P'
p2641
I11
sS'PA'
p2642
I12
sS'M'
p2643
I13
sS'R'
p2644
I7
sS'TB'
p2645
I9
sS'PL'
p2646
I10
sS'TA'
p2647
I3
ssg231
g2616
sg232
I0
sg233
g31
sg235
I0
sg236
I0
sg237
I0
sg238
I14
sg239
I5
sg240
I0
sg241
S'ES'
p2648
sbssg207
I2
sg208
I0
sg209
I1
sg210
I0
sg57
F10.766666666666667
sg211
I0
sg212
I1
sg213
I0
sg214
(dp2649
S'A'
p2650
I12
sS'ME'
p2651
I3
sS'RP2'
p2652
I8
sS'E'
p2653
I11
sS'TO'
p2654
I10
sS'RP1'
p2655
I9
sS'JP'
p2656
I8
sS'RP_tot'
p2657
I10
sS'P'
p2658
I11
sS'PA'
p2659
I12
sS'M'
p2660
I13
sS'R'
p2661
I7
sS'TB'
p2662
I9
sS'PL'
p2663
I10
sS'TA'
p2664
I3
ssg231
g2572
sg232
I0
sg233
S'HTH 12'
p2665
sg235
I0
sg236
I0
sg237
I0
sg238
I18
sg239
I7
sg240
I0
sg241
S'ES'
p2666
sbsg261
(ijoueur
joueur
p2667
(dp2668
g28
I0
sg32
I0
sg34
I0
sg35
g36
(g37
g38
Ntp2669
Rp2670
(dp2671
g42
I4
sg43
S'x'
p2672
sg45
S'heros'
p2673
sbsg47
(dp2674
S'SR'
p2675
I0
sS'ST'
p2676
I0
sS'CR'
p2677
I0
sS'CT'
p2678
I0
ssg53
(dp2679
g2675
I1
sg2676
I0
sg2677
I0
sg2678
I0
ssg56
I0
sg58
I0
sg79
I00
sg60
I2
sg61
I0
sg62
I0
sg63
(S'dummy'
p2680
S'C1'
p2681
S'AR'
p2682
S'AI'
p2683
tp2684
sg68
I01
sg69
g36
(g37
g38
Ntp2685
Rp2686
(dp2687
g42
I4
sg43
g2672
sg45
g2673
sbsg73
(dp2688
g2675
I3
sg2676
I0
sg2677
I0
sg2678
I14
ssg141
(dp2689
g2675
I0
sg2676
I0
sg2677
I0
sg2678
I0
ssg80
(dp2690
g2675
I1
sg2676
I0
sg2677
I0
sg2678
I0
ssg82
(dp2691
g2675
I3
sg2676
I0
sg2677
I0
sg2678
I14
ssg84
I0
sg86
I0
sg87
S'Farifend'
p2692
sg89
I7
sg90
I0
sg91
I22
sg92
I120
sg93
S'HTH'
p2693
sg96
(dp2694
S'A'
p2695
I12
sS'ME'
p2696
I3
sS'RP2'
p2697
I8
sS'E'
p2698
I11
sS'TO'
p2699
I10
sS'RP1'
p2700
I9
sS'JP'
p2701
I8
sS'RP_tot'
p2702
I10
sS'P'
p2703
I11
sS'PA'
p2704
I12
sS'M'
p2705
I13
sS'R'
p2706
I7
sS'TB'
p2707
I9
sS'PL'
p2708
I10
sS'TA'
p2709
I3
ssg207
I0
sg208
I0
sg209
I0
sg210
I0
sg57
F10.7
sg211
I0
sg212
I0
sg213
I0
sg214
(dp2710
S'A'
p2711
I12
sS'ME'
p2712
I3
sS'RP2'
p2713
I8
sS'E'
p2714
I11
sS'TO'
p2715
I10
sS'RP1'
p2716
I9
sS'JP'
p2717
I8
sS'RP_tot'
p2718
I10
sS'P'
p2719
I11
sS'PA'
p2720
I12
sS'M'
p2721
I13
sS'R'
p2722
I7
sS'TB'
p2723
I9
sS'PL'
p2724
I10
sS'TA'
p2725
I3
ssg231
g2694
sg232
I0
sg233
g31
sg235
I0
sg236
I0
sg237
I0
sg238
I14
sg239
I5
sg240
I0
sg241
S'ES'
p2726
sbssg207
I0
sg208
I0
sg209
I1
sg210
I0
sg141
(dp2727
g75
I0
sg76
I0
sg77
I0
sg78
I0
ssg211
I0
sg212
I0
sg213
I0
sg214
(dp2728
S'A'
p2729
I12
sS'ME'
p2730
I3
sS'RP2'
p2731
I8
sS'E'
p2732
I11
sS'TO'
p2733
I10
sS'RP1'
p2734
I9
sS'JP'
p2735
I8
sS'RP_tot'
p2736
I10
sS'P'
p2737
I11
sS'PA'
p2738
I12
sS'M'
p2739
I13
sS'R'
p2740
I7
sS'TB'
p2741
I9
sS'PL'
p2742
I10
sS'TA'
p2743
I3
ssg231
(dp2744
g2530
I12
sg2531
I3
sg2532
I8
sg2533
I11
sg2538
I11
sg2535
I9
sg2536
I9
sg2537
I10
sg2534
I10
sg2539
I12
sg2540
I13
sg2541
I7
sg2542
I8
sg2543
I10
sg2544
I3
ssg232
I0
sg340
(dp2745
sg235
I0
sg233
S'HTH 12'
p2746
sg236
I0
sg237
I0
sg238
I18
sg239
I7
sg240
I0
sg241
S'ES'
p2747
sbsS'n15'
p2748
(ijoueur
joueur
p2749
(dp2750
g27
F10.90625
sg28
I0
sg29
F10.766666666666667
sg30
g31
sg32
I2
sg33
I0
sg34
I0
sg35
g36
(g37
g38
Ntp2751
Rp2752
(dp2753
g42
I4
sg43
S'x'
p2754
sg45
S'heros'
p2755
sbsg47
(dp2756
S'SR'
p2757
I0
sS'ST'
p2758
I5
sS'CR'
p2759
I0
sS'CT'
p2760
I14
ssg53
(dp2761
g2757
I0
sg2758
I0
sg2759
I0
sg2760
I1
ssg55
I0
sg141
(dp2762
g75
I0
sg76
I0
sg77
I0
sg78
I0
ssg56
I0
sg58
I0
sg2266
I18
sg2267
I22
sg60
I0
sg61
I0
sg62
I0
sg63
(S'dummy'
p2763
S'C1'
p2764
S'AR'
p2765
S'AI'
p2766
tp2767
sg68
I00
sg69
g36
(g37
g38
Ntp2768
Rp2769
(dp2770
g42
I5
sg43
S'**'
p2771
sg45
S'seigneur'
p2772
sbsg73
(dp2773
g75
I0
sg76
I0
sg77
I0
sg78
I0
ssg79
I00
sg80
(dp2774
g75
I0
sg76
I0
sg77
I0
sg78
I0
ssg82
(dp2775
g2757
I0
sg2758
I5
sg2759
I0
sg2760
I15
ssg84
I53
sg86
I0
sg87
S'Cathaen'
p2776
sg89
I5
sg90
I33
sg91
I14
sg92
I398
sg93
g94
sg96
(dp2777
S'A'
p2778
I12
sS'ME'
p2779
I6
sS'RP2'
p2780
I7
sS'E'
p2781
I9
sS'P'
p2782
I9
sS'RP1'
p2783
I12
sS'JP'
p2784
I8
sS'RP_tot'
p2785
I12
sS'TO'
p2786
I10
sS'PA'
p2787
I11
sS'M'
p2788
I9
sS'R'
p2789
I8
sS'TB'
p2790
I10
sS'PL'
p2791
I17
sS'TA'
p2792
I5
ssg113
(dp2793
g115
(ijoueur
joueur
p2794
(dp2795
g27
F10.90625
sg28
I0
sg30
g31
sg32
I2
sg34
I0
sg35
g36
(g37
g38
Ntp2796
Rp2797
(dp2798
g42
I4
sg43
S'x'
p2799
sg45
S'heros'
p2800
sbsg47
(dp2801
S'SR'
p2802
I0
sS'ST'
p2803
I5
sS'CR'
p2804
I0
sS'CT'
p2805
I14
ssg53
(dp2806
g2802
I0
sg2803
I0
sg2804
I0
sg2805
I1
ssg56
I0
sg57
F10.766666666666667
sg58
I0
sg2266
I18
sg2267
I22
sg60
I1
sg61
I1
sg62
I13
sg63
(S'dummy'
p2807
S'C1'
p2808
S'AR'
p2809
S'AI'
p2810
tp2811
sg68
I00
sg69
g36
(g37
g38
Ntp2812
Rp2813
(dp2814
g42
I5
sg43
S'**'
p2815
sg45
S'seigneur'
p2816
sbsg73
(dp2817
g137
I0
sg138
I0
sg139
I0
sg140
I0
ssg79
I00
sg80
(dp2818
g137
I0
sg138
I0
sg139
I0
sg140
I1
ssg82
(dp2819
g2802
I0
sg2803
I5
sg2804
I0
sg2805
I15
ssg84
I53
sg86
I20
sg87
S'Cathaen'
p2820
sg89
I5
sg90
I33
sg91
I14
sg92
I398
sg93
g146
sg96
(dp2821
S'A'
p2822
I12
sS'ME'
p2823
I6
sS'RP2'
p2824
I7
sS'E'
p2825
I9
sS'TO'
p2826
I10
sS'RP1'
p2827
I11
sS'JP'
p2828
I8
sS'RP_tot'
p2829
I11
sS'P'
p2830
I9
sS'PA'
p2831
I10
sS'M'
p2832
I9
sS'R'
p2833
I7
sS'TB'
p2834
I10
sS'PL'
p2835
I16
sS'TA'
p2836
I5
ssg113
(dp2837
g164
(ijoueur
joueur
p2838
(dp2839
g28
I0
sg32
I2
sg34
I0
sg35
g36
(g37
g38
Ntp2840
Rp2841
(dp2842
g42
I4
sg43
S'x'
p2843
sg45
S'heros'
p2844
sbsg47
(dp2845
S'SR'
p2846
I0
sS'CT'
p2847
I0
sS'CR'
p2848
I0
sS'ST'
p2849
I0
ssg53
(dp2850
g2846
I0
sg2847
I0
sg2848
I0
sg2849
I0
ssg56
I0
sg57
F10.90625
sg58
I0
sg2266
I18
sg2267
I22
sg60
I0
sg61
I0
sg62
I2
sg63
(S'dummy'
p2851
S'C1'
p2852
S'AR'
p2853
S'AI'
p2854
tp2855
sg68
I01
sg69
g36
(g37
g38
Ntp2856
Rp2857
(dp2858
g42
I5
sg43
S'**'
p2859
sg45
S'seigneur'
p2860
sbsg73
(dp2861
g2846
I0
sg2847
I15
sg2848
I0
sg2849
I5
ssg79
I00
sg80
(dp2862
g2846
I0
sg2847
I0
sg2848
I0
sg2849
I0
ssg82
(dp2863
g2846
I0
sg2847
I15
sg2848
I0
sg2849
I5
ssg84
I33
sg86
I11
sg87
S'Cathaen'
p2864
sg89
I5
sg90
I20
sg91
I14
sg92
I250
sg93
S'ALT'
p2865
sg96
(dp2866
S'A'
p2867
I12
sS'ME'
p2868
I6
sS'RP2'
p2869
I7
sS'E'
p2870
I10
sS'P'
p2871
I9
sS'RP1'
p2872
I11
sS'JP'
p2873
I8
sS'RP_tot'
p2874
I11
sS'TO'
p2875
I10
sS'PA'
p2876
I10
sS'M'
p2877
I9
sS'R'
p2878
I7
sS'TB'
p2879
I11
sS'PL'
p2880
I16
sS'TA'
p2881
I5
ssg207
I0
sg208
I0
sg209
I0
sg210
I0
sg141
(dp2882
g2846
I0
sg2847
I0
sg2848
I0
sg2849
I0
ssg211
I0
sg2387
I2
sg212
I0
sg213
I0
sg214
(dp2883
S'A'
p2884
I12
sS'ME'
p2885
I6
sS'RP2'
p2886
I7
sS'E'
p2887
I10
sS'P'
p2888
I9
sS'RP1'
p2889
I11
sS'JP'
p2890
I8
sS'RP_tot'
p2891
I11
sS'TO'
p2892
I10
sS'PA'
p2893
I10
sS'M'
p2894
I9
sS'R'
p2895
I7
sS'TB'
p2896
I11
sS'PL'
p2897
I16
sS'TA'
p2898
I5
ssg231
g2866
sg232
I0
sg233
g31
sg235
I0
sg236
I0
sg237
I0
sg238
I28
sg239
I15
sg240
I0
sg241
S'CHS'
p2899
sbssg207
I3
sg208
I0
sg209
I0
sg210
I0
sg141
(dp2900
g137
I0
sg138
I5
sg139
I0
sg140
I14
ssg211
I1
sg2387
I2
sg212
I0
sg213
I0
sg214
(dp2901
S'A'
p2902
I12
sS'ME'
p2903
I6
sS'RP2'
p2904
I7
sS'E'
p2905
I10
sS'P'
p2906
I9
sS'RP1'
p2907
I11
sS'JP'
p2908
I8
sS'RP_tot'
p2909
I11
sS'TO'
p2910
I10
sS'PA'
p2911
I10
sS'M'
p2912
I9
sS'R'
p2913
I7
sS'TB'
p2914
I11
sS'PL'
p2915
I16
sS'TA'
p2916
I5
ssg231
g2821
sg232
I0
sg233
S'ALT 12'
p2917
sg235
I2
sg236
I0
sg237
I2
sg238
I17
sg239
I16
sg240
I0
sg241
S'CHS'
p2918
sbsg261
(ijoueur
joueur
p2919
(dp2920
g28
I0
sg32
I2
sg34
I0
sg35
g36
(g37
g38
Ntp2921
Rp2922
(dp2923
g42
I4
sg43
S'x'
p2924
sg45
S'heros'
p2925
sbsg47
(dp2926
S'SR'
p2927
I0
sS'CT'
p2928
I0
sS'CR'
p2929
I0
sS'ST'
p2930
I0
ssg53
(dp2931
g2927
I0
sg2928
I0
sg2929
I0
sg2930
I0
ssg56
I0
sg57
F10.90625
sg58
I0
sg2266
I18
sg2267
I22
sg60
I0
sg61
I0
sg62
I2
sg63
(S'dummy'
p2932
S'C1'
p2933
S'AR'
p2934
S'AI'
p2935
tp2936
sg68
I01
sg69
g36
(g37
g38
Ntp2937
Rp2938
(dp2939
g42
I5
sg43
S'**'
p2940
sg45
S'seigneur'
p2941
sbsg73
(dp2942
g2927
I0
sg2928
I15
sg2929
I0
sg2930
I5
ssg79
I00
sg80
(dp2943
g2927
I0
sg2928
I0
sg2929
I0
sg2930
I0
ssg82
(dp2944
g2927
I0
sg2928
I15
sg2929
I0
sg2930
I5
ssg84
I33
sg86
I11
sg87
S'Cathaen'
p2945
sg89
I5
sg90
I20
sg91
I14
sg92
I250
sg93
S'ALT'
p2946
sg96
(dp2947
S'A'
p2948
I12
sS'ME'
p2949
I6
sS'RP2'
p2950
I7
sS'E'
p2951
I10
sS'P'
p2952
I9
sS'RP1'
p2953
I11
sS'JP'
p2954
I8
sS'RP_tot'
p2955
I11
sS'TO'
p2956
I10
sS'PA'
p2957
I10
sS'M'
p2958
I9
sS'R'
p2959
I7
sS'TB'
p2960
I11
sS'PL'
p2961
I16
sS'TA'
p2962
I5
ssg207
I0
sg208
I0
sg209
I0
sg210
I0
sg141
(dp2963
g2927
I0
sg2928
I0
sg2929
I0
sg2930
I0
ssg211
I0
sg2387
I2
sg212
I0
sg213
I0
sg214
(dp2964
S'A'
p2965
I12
sS'ME'
p2966
I6
sS'RP2'
p2967
I7
sS'E'
p2968
I10
sS'P'
p2969
I9
sS'RP1'
p2970
I11
sS'JP'
p2971
I8
sS'RP_tot'
p2972
I11
sS'TO'
p2973
I10
sS'PA'
p2974
I10
sS'M'
p2975
I9
sS'R'
p2976
I7
sS'TB'
p2977
I11
sS'PL'
p2978
I16
sS'TA'
p2979
I5
ssg231
g2947
sg232
I0
sg233
g31
sg235
I0
sg236
I0
sg237
I0
sg238
I28
sg239
I15
sg240
I0
sg241
S'CHS'
p2980
sbssg207
I0
sg208
I0
sg209
I0
sg210
I0
sg57
F11.266666666666667
sg211
I1
sg59
I0
sg2387
I2
sg212
I0
sg213
I0
sg214
(dp2981
S'A'
p2982
I12
sS'ME'
p2983
I6
sS'RP2'
p2984
I7
sS'E'
p2985
I10
sS'P'
p2986
I9
sS'RP1'
p2987
I11
sS'JP'
p2988
I8
sS'RP_tot'
p2989
I11
sS'TO'
p2990
I10
sS'PA'
p2991
I10
sS'M'
p2992
I9
sS'R'
p2993
I7
sS'TB'
p2994
I11
sS'PL'
p2995
I16
sS'TA'
p2996
I5
ssg231
(dp2997
g2778
I12
sg2779
I6
sg2780
I7
sg2781
I9
sg2786
I10
sg2783
I12
sg2784
I8
sg2785
I12
sg2782
I9
sg2787
I11
sg2788
I9
sg2789
I8
sg2790
I10
sg2791
I17
sg2792
I5
ssg232
I0
sg340
(dp2998
sg235
I2
sg233
S'ALT 12'
p2999
sg236
I0
sg237
I0
sg238
I17
sg239
I16
sg240
I0
sg241
S'CHS'
p3000
sbsS'n18'
p3001
g1343
sS'n19'
p3002
(ijoueur
joueur
p3003
(dp3004
g27
F9.67741935483871
sg28
I0
sg29
F9.580645161290322
sg30
g31
sg32
I0
sg33
I0
sg34
I0
sg35
g36
(g37
g38
Ntp3005
Rp3006
(dp3007
g42
I2
sg43
S'<<'
p3008
sg45
g1746
sbsg47
(dp3009
g49
I0
sg50
I0
sg51
I0
sg52
I0
ssg53
(dp3010
g49
I0
sg50
I1
sg51
I11
sg52
I0
ssg55
I0
sg56
I0
sg57
F9.64516129032258
sg58
I0
sg59
I0
sg60
I0
sg61
I0
sg62
I0
sg63
(g64
S'TL'
p3011
S'DL'
p3012
S'PI'
p3013
tp3014
sg68
I00
sg69
g36
(g37
g38
Ntp3015
Rp3016
(dp3017
g42
I2
sg43
S'<<'
p3018
sg45
g1746
sbsg73
(dp3019
g75
I0
sg76
I0
sg77
I0
sg78
I0
ssg79
I00
sg80
(dp3020
g75
I0
sg76
I0
sg77
I0
sg78
I0
ssg82
(dp3021
g49
I0
sg50
I9
sg51
I2
sg52
I0
ssg84
I0
sg86
I0
sg87
S'Gnen'
p3022
sg89
I1
sg90
I0
sg91
I15
sg92
I14
sg93
g94
sg96
(dp3023
g98
I10
sg99
I9
sg100
I6
sg101
I10
sg102
I7
sg103
I9
sg104
I4
sg105
I9
sg106
I8
sg107
I8
sg108
I10
sg109
I9
sg110
I6
sg111
I11
sg112
I7
ssg113
(dp3024
g115
(ijoueur
joueur
p3025
(dp3026
g27
F9.67741935483871
sg28
I0
sg30
g31
sg32
I0
sg34
I0
sg35
g36
(g37
g38
Ntp3027
Rp3028
(dp3029
g42
I2
sg43
S'<<'
p3030
sg45
g1768
sbsg47
(dp3031
g124
I0
sg125
I0
sg126
I0
sg127
I0
ssg53
(dp3032
g124
I0
sg125
I1
sg126
I11
sg127
I0
ssg56
I0
sg58
I0
sg79
I00
sg60
I0
sg61
I0
sg62
I0
sg63
(g129
S'TL'
p3033
S'DL'
p3034
S'PI'
p3035
tp3036
sg68
I00
sg69
g36
(g37
g38
Ntp3037
Rp3038
(dp3039
g42
I2
sg43
S'<<'
p3040
sg45
g1768
sbsg73
(dp3041
g137
I0
sg138
I0
sg139
I0
sg140
I3
ssg141
(dp3042
g137
I0
sg138
I0
sg139
I0
sg140
I0
ssg80
(dp3043
g137
I0
sg138
I0
sg139
I11
sg140
I1
ssg82
(dp3044
g124
I0
sg125
I9
sg126
I2
sg127
I0
ssg84
I0
sg86
I0
sg87
S'Gnen'
p3045
sg89
I1
sg90
I0
sg91
I15
sg92
I14
sg93
g146
sg96
(dp3046
g148
I10
sg149
I8
sg150
I6
sg151
I10
sg152
I7
sg153
I9
sg154
I4
sg155
I9
sg156
I7
sg157
I8
sg158
I10
sg159
I9
sg160
I6
sg161
I11
sg162
I7
ssg113
(dp3047
g164
(ijoueur
joueur
p3048
(dp3049
g28
I0
sg32
I0
sg34
I0
sg35
g36
(g37
g38
Ntp3050
Rp3051
(dp3052
g42
I2
sg43
S'<<'
p3053
sg45
S'special'
p3054
sbsg47
(dp3055
S'SR'
p3056
I0
sS'ST'
p3057
I0
sS'CR'
p3058
I0
sS'CT'
p3059
I0
ssg53
(dp3060
g3056
I0
sg3057
I0
sg3058
I0
sg3059
I0
ssg56
I0
sg58
I0
sg79
I01
sg60
I0
sg61
I0
sg62
I0
sg63
(S'dummy'
p3061
S'TL'
p3062
S'DL'
p3063
S'PI'
p3064
tp3065
sg68
I01
sg69
g36
(g37
g38
Ntp3066
Rp3067
(dp3068
g42
I2
sg43
S'<<'
p3069
sg45
g3054
sbsg73
(dp3070
g3056
I0
sg3057
I0
sg3058
I2
sg3059
I6
ssg141
(dp3071
g3056
I0
sg3057
I0
sg3058
I0
sg3059
I0
ssg80
(dp3072
g3056
I0
sg3057
I0
sg3058
I0
sg3059
I0
ssg82
(dp3073
g3056
I0
sg3057
I0
sg3058
I2
sg3059
I6
ssg84
I0
sg86
I0
sg87
S'Gnen'
p3074
sg89
I1
sg90
I0
sg91
I15
sg92
I14
sg93
S'SN'
p3075
sg96
(dp3076
S'A'
p3077
I11
sS'ME'
p3078
I8
sS'RP2'
p3079
I6
sS'E'
p3080
I10
sS'TO'
p3081
I7
sS'RP1'
p3082
I9
sS'JP'
p3083
I4
sS'RP_tot'
p3084
I9
sS'P'
p3085
I7
sS'PA'
p3086
I8
sS'M'
p3087
I10
sS'R'
p3088
I9
sS'TB'
p3089
I6
sS'PL'
p3090
I11
sS'TA'
p3091
I7
ssg207
I0
sg208
I0
sg209
I0
sg210
I0
sg57
F9.67741935483871
sg211
I0
sg212
I0
sg213
I0
sg214
(dp3092
S'A'
p3093
I11
sS'ME'
p3094
I8
sS'RP2'
p3095
I6
sS'E'
p3096
I10
sS'TO'
p3097
I7
sS'RP1'
p3098
I9
sS'JP'
p3099
I4
sS'RP_tot'
p3100
I9
sS'P'
p3101
I7
sS'PA'
p3102
I8
sS'M'
p3103
I10
sS'R'
p3104
I9
sS'TB'
p3105
I6
sS'PL'
p3106
I11
sS'TA'
p3107
I7
ssg231
g3076
sg232
I0
sg233
g31
sg235
I0
sg236
I0
sg237
I0
sg238
I1
sg239
I8
sg240
I0
sg241
S'S'
p3108
sbssg207
I1
sg208
I0
sg209
I1
sg210
I0
sg57
F9.580645161290322
sg211
I0
sg212
I1
sg213
I0
sg214
(dp3109
g244
I11
sg245
I8
sg246
I6
sg247
I10
sg248
I7
sg249
I9
sg250
I4
sg251
I9
sg252
I7
sg253
I8
sg254
I10
sg255
I9
sg256
I6
sg257
I11
sg258
I7
ssg231
g3046
sg232
I0
sg233
g31
sg235
I0
sg236
I0
sg237
I0
sg238
I5
sg239
I8
sg240
I0
sg241
g1673
sbsg261
(ijoueur
joueur
p3110
(dp3111
g28
I0
sg32
I0
sg34
I0
sg35
g36
(g37
g38
Ntp3112
Rp3113
(dp3114
g42
I2
sg43
S'<<'
p3115
sg45
S'special'
p3116
sbsg47
(dp3117
S'SR'
p3118
I0
sS'ST'
p3119
I0
sS'CR'
p3120
I0
sS'CT'
p3121
I0
ssg53
(dp3122
g3118
I0
sg3119
I0
sg3120
I0
sg3121
I0
ssg56
I0
sg58
I0
sg79
I01
sg60
I0
sg61
I0
sg62
I0
sg63
(S'dummy'
p3123
S'TL'
p3124
S'DL'
p3125
S'PI'
p3126
tp3127
sg68
I01
sg69
g36
(g37
g38
Ntp3128
Rp3129
(dp3130
g42
I2
sg43
S'<<'
p3131
sg45
g3116
sbsg73
(dp3132
g3118
I0
sg3119
I0
sg3120
I2
sg3121
I6
ssg141
(dp3133
g3118
I0
sg3119
I0
sg3120
I0
sg3121
I0
ssg80
(dp3134
g3118
I0
sg3119
I0
sg3120
I0
sg3121
I0
ssg82
(dp3135
g3118
I0
sg3119
I0
sg3120
I2
sg3121
I6
ssg84
I0
sg86
I0
sg87
S'Gnen'
p3136
sg89
I1
sg90
I0
sg91
I15
sg92
I14
sg93
S'SN'
p3137
sg96
(dp3138
S'A'
p3139
I11
sS'ME'
p3140
I8
sS'RP2'
p3141
I6
sS'E'
p3142
I10
sS'TO'
p3143
I7
sS'RP1'
p3144
I9
sS'JP'
p3145
I4
sS'RP_tot'
p3146
I9
sS'P'
p3147
I7
sS'PA'
p3148
I8
sS'M'
p3149
I10
sS'R'
p3150
I9
sS'TB'
p3151
I6
sS'PL'
p3152
I11
sS'TA'
p3153
I7
ssg207
I0
sg208
I0
sg209
I0
sg210
I0
sg57
F9.67741935483871
sg211
I0
sg212
I0
sg213
I0
sg214
(dp3154
S'A'
p3155
I11
sS'ME'
p3156
I8
sS'RP2'
p3157
I6
sS'E'
p3158
I10
sS'TO'
p3159
I7
sS'RP1'
p3160
I9
sS'JP'
p3161
I4
sS'RP_tot'
p3162
I9
sS'P'
p3163
I7
sS'PA'
p3164
I8
sS'M'
p3165
I10
sS'R'
p3166
I9
sS'TB'
p3167
I6
sS'PL'
p3168
I11
sS'TA'
p3169
I7
ssg231
g3138
sg232
I0
sg233
g31
sg235
I0
sg236
I0
sg237
I0
sg238
I1
sg239
I8
sg240
I0
sg241
S'S'
p3170
sbssg207
I0
sg208
I0
sg209
I1
sg210
I0
sg141
(dp3171
g75
I0
sg76
I0
sg77
I0
sg78
I0
ssg211
I0
sg212
I0
sg213
I0
sg214
(dp3172
g324
I11
sg325
I8
sg326
I6
sg327
I10
sg328
I7
sg329
I9
sg330
I4
sg331
I9
sg332
I7
sg333
I8
sg334
I10
sg335
I9
sg336
I6
sg337
I11
sg338
I7
ssg231
(dp3173
g98
I10
sg99
I9
sg100
I6
sg101
I10
sg106
I8
sg103
I9
sg104
I4
sg105
I9
sg102
I7
sg107
I8
sg108
I10
sg109
I9
sg110
I6
sg111
I11
sg112
I7
ssg232
I0
sg340
(dp3174
sg235
I0
sg233
g31
sg236
I0
sg237
I0
sg238
I5
sg239
I8
sg240
I0
sg241
g1738
sbsS'n22'
p3175
(ijoueur
joueur
p3176
(dp3177
g27
F10.419354838709678
sg28
I0
sg29
F10.419354838709678
sg30
g31
sg32
I0
sg33
I0
sg34
I0
sg35
g36
(g37
g38
Ntp3178
Rp3179
(dp3180
g42
I4
sg43
S'*'
p3181
sg45
S'heros'
p3182
sbsg47
(dp3183
S'SR'
p3184
I2
sS'CT'
p3185
I0
sS'CR'
p3186
I0
sS'ST'
p3187
I0
ssg53
(dp3188
g3184
I0
sg3185
I0
sg3186
I0
sg3187
I0
ssg55
I0
sg56
I0
sg57
F10.064516129032258
sg58
I0
sg59
I0
sg60
I0
sg61
I0
sg62
I0
sg63
(S'dummy'
p3189
S'AI'
p3190
S'CE'
p3191
g31
tp3192
sg68
I00
sg69
g36
(g37
g38
Ntp3193
Rp3194
(dp3195
g42
I4
sg43
g3181
sg45
g3182
sbsg73
(dp3196
g75
I0
sg76
I0
sg77
I0
sg78
I0
ssg79
I00
sg80
(dp3197
g75
I0
sg76
I0
sg77
I0
sg78
I0
ssg82
(dp3198
g3184
I5
sg3185
I18
sg3186
I10
sg3187
I1
ssg84
I0
sg86
I0
sg87
S'Haloepl'
p3199
sg89
I5
sg90
I0
sg91
I18
sg92
I236
sg93
g94
sg96
(dp3200
S'A'
p3201
I9
sS'ME'
p3202
I5
sS'RP2'
p3203
I10
sS'E'
p3204
I10
sS'TO'
p3205
I5
sS'RP1'
p3206
I10
sS'JP'
p3207
I6
sS'RP_tot'
p3208
I12
sS'P'
p3209
I8
sS'PA'
p3210
I9
sS'M'
p3211
I13
sS'R'
p3212
I8
sS'TB'
p3213
I6
sS'PL'
p3214
I8
sS'TA'
p3215
I7
ssg113
(dp3216
g115
(ijoueur
joueur
p3217
(dp3218
g27
F10.419354838709678
sg28
I0
sg30
g31
sg32
I0
sg34
I0
sg35
g36
(g37
g38
Ntp3219
Rp3220
(dp3221
g42
I4
sg43
S'*'
p3222
sg45
S'heros'
p3223
sbsg47
(dp3224
S'SR'
p3225
I2
sS'CT'
p3226
I0
sS'CR'
p3227
I0
sS'ST'
p3228
I0
ssg53
(dp3229
g3225
I0
sg3226
I0
sg3227
I0
sg3228
I0
ssg56
I0
sg58
I0
sg79
I00
sg60
I1
sg61
I0
sg62
I0
sg63
(S'dummy'
p3230
S'AI'
p3231
S'CE'
p3232
g31
tp3233
sg68
I00
sg69
g36
(g37
g38
Ntp3234
Rp3235
(dp3236
g42
I4
sg43
g3222
sg45
g3223
sbsg73
(dp3237
g137
I0
sg138
I0
sg139
I10
sg140
I5
ssg141
(dp3238
g137
I2
sg138
I0
sg139
I0
sg140
I0
ssg80
(dp3239
g137
I0
sg138
I0
sg139
I0
sg140
I0
ssg82
(dp3240
g3225
I5
sg3226
I18
sg3227
I10
sg3228
I1
ssg84
I0
sg86
I0
sg87
S'Haloepl'
p3241
sg89
I5
sg90
I0
sg91
I18
sg92
I236
sg93
g146
sg96
(dp3242
S'A'
p3243
I9
sS'ME'
p3244
I5
sS'RP2'
p3245
I10
sS'E'
p3246
I10
sS'P'
p3247
I8
sS'RP1'
p3248
I10
sS'JP'
p3249
I6
sS'RP_tot'
p3250
I13
sS'TO'
p3251
I5
sS'PA'
p3252
I9
sS'M'
p3253
I14
sS'R'
p3254
I8
sS'TB'
p3255
I6
sS'PL'
p3256
I8
sS'TA'
p3257
I7
ssg113
(dp3258
g164
(ijoueur
joueur
p3259
(dp3260
g28
I0
sg32
I0
sg34
I0
sg35
g36
(g37
g38
Ntp3261
Rp3262
(dp3263
g42
I4
sg43
S'*'
p3264
sg45
S'heros'
p3265
sbsg47
(dp3266
S'SR'
p3267
I0
sS'ST'
p3268
I0
sS'CR'
p3269
I0
sS'CT'
p3270
I0
ssg53
(dp3271
g3267
I0
sg3268
I0
sg3269
I0
sg3270
I0
ssg56
I0
sg58
I0
sg79
I00
sg60
I0
sg61
I0
sg62
I0
sg63
(S'dummy'
p3272
S'AI'
p3273
S'CE'
p3274
g31
tp3275
sg68
I01
sg69
g36
(g37
g38
Ntp3276
Rp3277
(dp3278
g42
I4
sg43
g3264
sg45
g3265
sbsg73
(dp3279
g3267
I5
sg3268
I1
sg3269
I0
sg3270
I13
ssg141
(dp3280
g3267
I0
sg3268
I0
sg3269
I0
sg3270
I0
ssg80
(dp3281
g3267
I0
sg3268
I0
sg3269
I0
sg3270
I0
ssg82
(dp3282
g3267
I5
sg3268
I1
sg3269
I0
sg3270
I13
ssg84
I0
sg86
I0
sg87
S'Haloepl'
p3283
sg89
I5
sg90
I0
sg91
I18
sg92
I150
sg93
S'GP'
p3284
sg96
(dp3285
S'A'
p3286
I9
sS'ME'
p3287
I5
sS'RP2'
p3288
I10
sS'E'
p3289
I10
sS'TO'
p3290
I5
sS'RP1'
p3291
I10
sS'JP'
p3292
I6
sS'RP_tot'
p3293
I13
sS'P'
p3294
I8
sS'PA'
p3295
I9
sS'M'
p3296
I14
sS'R'
p3297
I8
sS'TB'
p3298
I6
sS'PL'
p3299
I8
sS'TA'
p3300
I7
ssg207
I0
sg208
I0
sg209
I0
sg210
I0
sg57
F10.419354838709678
sg211
I0
sg212
I0
sg213
I0
sg214
(dp3301
S'A'
p3302
I9
sS'ME'
p3303
I5
sS'RP2'
p3304
I10
sS'E'
p3305
I10
sS'TO'
p3306
I5
sS'RP1'
p3307
I10
sS'JP'
p3308
I6
sS'RP_tot'
p3309
I13
sS'P'
p3310
I8
sS'PA'
p3311
I9
sS'M'
p3312
I14
sS'R'
p3313
I8
sS'TB'
p3314
I6
sS'PL'
p3315
I8
sS'TA'
p3316
I7
ssg231
g3285
sg232
I0
sg233
g31
sg235
I0
sg236
I0
sg237
I0
sg238
I14
sg239
I0
sg240
I0
sg241
S'HL'
p3317
sbssg207
I0
sg208
I0
sg209
I0
sg210
I0
sg57
F10.419354838709678
sg211
I0
sg212
I0
sg213
I0
sg214
(dp3318
S'A'
p3319
I9
sS'ME'
p3320
I5
sS'RP2'
p3321
I10
sS'E'
p3322
I10
sS'TO'
p3323
I5
sS'RP1'
p3324
I10
sS'JP'
p3325
I6
sS'RP_tot'
p3326
I13
sS'P'
p3327
I8
sS'PA'
p3328
I9
sS'M'
p3329
I14
sS'R'
p3330
I8
sS'TB'
p3331
I6
sS'PL'
p3332
I8
sS'TA'
p3333
I7
ssg231
g3242
sg232
I0
sg233
S'GP 12'
p3334
sg235
I0
sg236
I0
sg237
I0
sg238
I12
sg239
I1
sg240
I0
sg241
S'HL'
p3335
sbsg261
(ijoueur
joueur
p3336
(dp3337
g28
I0
sg32
I0
sg34
I0
sg35
g36
(g37
g38
Ntp3338
Rp3339
(dp3340
g42
I4
sg43
S'*'
p3341
sg45
S'heros'
p3342
sbsg47
(dp3343
S'SR'
p3344
I0
sS'ST'
p3345
I0
sS'CR'
p3346
I0
sS'CT'
p3347
I0
ssg53
(dp3348
g3344
I0
sg3345
I0
sg3346
I0
sg3347
I0
ssg56
I0
sg58
I0
sg79
I00
sg60
I0
sg61
I0
sg62
I0
sg63
(S'dummy'
p3349
S'AI'
p3350
S'CE'
p3351
g31
tp3352
sg68
I01
sg69
g36
(g37
g38
Ntp3353
Rp3354
(dp3355
g42
I4
sg43
g3341
sg45
g3342
sbsg73
(dp3356
g3344
I5
sg3345
I1
sg3346
I0
sg3347
I13
ssg141
(dp3357
g3344
I0
sg3345
I0
sg3346
I0
sg3347
I0
ssg80
(dp3358
g3344
I0
sg3345
I0
sg3346
I0
sg3347
I0
ssg82
(dp3359
g3344
I5
sg3345
I1
sg3346
I0
sg3347
I13
ssg84
I0
sg86
I0
sg87
S'Haloepl'
p3360
sg89
I5
sg90
I0
sg91
I18
sg92
I150
sg93
S'GP'
p3361
sg96
(dp3362
S'A'
p3363
I9
sS'ME'
p3364
I5
sS'RP2'
p3365
I10
sS'E'
p3366
I10
sS'TO'
p3367
I5
sS'RP1'
p3368
I10
sS'JP'
p3369
I6
sS'RP_tot'
p3370
I13
sS'P'
p3371
I8
sS'PA'
p3372
I9
sS'M'
p3373
I14
sS'R'
p3374
I8
sS'TB'
p3375
I6
sS'PL'
p3376
I8
sS'TA'
p3377
I7
ssg207
I0
sg208
I0
sg209
I0
sg210
I0
sg57
F10.419354838709678
sg211
I0
sg212
I0
sg213
I0
sg214
(dp3378
S'A'
p3379
I9
sS'ME'
p3380
I5
sS'RP2'
p3381
I10
sS'E'
p3382
I10
sS'TO'
p3383
I5
sS'RP1'
p3384
I10
sS'JP'
p3385
I6
sS'RP_tot'
p3386
I13
sS'P'
p3387
I8
sS'PA'
p3388
I9
sS'M'
p3389
I14
sS'R'
p3390
I8
sS'TB'
p3391
I6
sS'PL'
p3392
I8
sS'TA'
p3393
I7
ssg231
g3362
sg232
I0
sg233
g31
sg235
I0
sg236
I0
sg237
I0
sg238
I14
sg239
I0
sg240
I0
sg241
S'HL'
p3394
sbssg207
I0
sg208
I0
sg209
I0
sg210
I0
sg141
(dp3395
g75
I0
sg76
I0
sg77
I0
sg78
I0
ssg211
I0
sg212
I0
sg213
I0
sg214
(dp3396
S'A'
p3397
I9
sS'ME'
p3398
I5
sS'RP2'
p3399
I10
sS'E'
p3400
I10
sS'TO'
p3401
I5
sS'RP1'
p3402
I10
sS'JP'
p3403
I6
sS'RP_tot'
p3404
I13
sS'P'
p3405
I8
sS'PA'
p3406
I9
sS'M'
p3407
I14
sS'R'
p3408
I8
sS'TB'
p3409
I6
sS'PL'
p3410
I8
sS'TA'
p3411
I7
ssg231
(dp3412
g3201
I9
sg3202
I5
sg3203
I10
sg3204
I10
sg3209
I8
sg3206
I10
sg3207
I6
sg3208
I12
sg3205
I5
sg3210
I9
sg3211
I13
sg3212
I8
sg3213
I6
sg3214
I8
sg3215
I7
ssg232
I0
sg340
(dp3413
sg235
I0
sg233
S'GP 12'
p3414
sg236
I0
sg237
I0
sg238
I12
sg239
I1
sg240
I0
sg241
S'HL'
p3415
sbsS'n21'
p3416
(ijoueur
joueur
p3417
(dp3418
g27
F10.727272727272727
sg28
I0
sg29
F10.424242424242424
sg30
g31
sg32
I2
sg33
I0
sg34
I0
sg35
g36
(g37
g38
Ntp3419
Rp3420
(dp3421
g42
I3
sg43
S'^^^'
p3422
sg45
S'rare'
p3423
sbsg47
(dp3424
S'SR'
p3425
I0
sS'ST'
p3426
I0
sS'CR'
p3427
I0
sS'CT'
p3428
I26
ssg53
(dp3429
g3425
I0
sg3426
I0
sg3427
I0
sg3428
I0
ssg55
I0
sg56
I1
sg57
F10.151515151515152
sg58
I0
sg59
I0
sg60
I0
sg61
I0
sg62
I0
sg63
(S'dummy'
p3430
S'AR'
p3431
S'AI'
p3432
S'CE'
p3433
tp3434
sg68
I00
sg69
g36
(g37
g38
Ntp3435
Rp3436
(dp3437
g42
I3
sg43
S'^^^'
p3438
sg45
g3423
sbsg73
(dp3439
g75
I0
sg76
I0
sg77
I0
sg78
I0
ssg79
I00
sg80
(dp3440
g75
I0
sg76
I0
sg77
I0
sg78
I0
ssg82
(dp3441
g3425
I0
sg3426
I10
sg3427
I0
sg3428
I1
ssg84
I0
sg86
I0
sg87
S'Mentre'
p3442
sg89
I8
sg90
I0
sg91
I18
sg92
I163
sg93
g94
sg96
(dp3443
S'A'
p3444
I10
sS'ME'
p3445
I7
sS'RP2'
p3446
I8
sS'E'
p3447
I10
sS'P'
p3448
I7
sS'RP1'
p3449
I10
sS'JP'
p3450
I8
sS'RP_tot'
p3451
I11
sS'TO'
p3452
I2
sS'PA'
p3453
I7
sS'M'
p3454
I12
sS'R'
p3455
I9
sS'TB'
p3456
I9
sS'PL'
p3457
I12
sS'TA'
p3458
I5
ssg113
(dp3459
S's12'
p3460
(ijoueur
joueur
p3461
(dp3462
g27
F10.727272727272727
sg28
I0
sg30
g31
sg32
I2
sg34
I0
sg35
g36
(g37
g38
Ntp3463
Rp3464
(dp3465
g42
I3
sg43
S'^^^'
p3466
sg45
S'rare'
p3467
sbsg47
(dp3468
S'SR'
p3469
I0
sS'ST'
p3470
I0
sS'CR'
p3471
I0
sS'CT'
p3472
I26
ssg53
(dp3473
g3469
I0
sg3470
I0
sg3471
I0
sg3472
I0
ssg56
I1
sg58
I0
sg79
I00
sg60
I0
sg61
I0
sg62
I0
sg63
(S'dummy'
p3474
S'AR'
p3475
S'AI'
p3476
S'CE'
p3477
tp3478
sg68
I01
sg69
g36
(g37
g38
Ntp3479
Rp3480
(dp3481
g42
I3
sg43
S'^^^'
p3482
sg45
g3467
sbsg73
(dp3483
S'SR'
p3484
I0
sS'ST'
p3485
I5
sS'CR'
p3486
I0
sS'CT'
p3487
I0
ssg141
(dp3488
g3484
I0
sg3485
I0
sg3486
I0
sg3487
I12
ssg80
(dp3489
g3484
I0
sg3485
I0
sg3486
I0
sg3487
I0
ssg82
(dp3490
g3469
I0
sg3470
I10
sg3471
I0
sg3472
I1
ssg84
I0
sg86
I0
sg87
S'Mentre'
p3491
sg89
I8
sg90
I0
sg91
I18
sg92
I136
sg93
S'MDL'
p3492
sg96
(dp3493
S'A'
p3494
I10
sS'ME'
p3495
I7
sS'RP2'
p3496
I9
sS'E'
p3497
I10
sS'TO'
p3498
I2
sS'RP1'
p3499
I10
sS'JP'
p3500
I10
sS'RP_tot'
p3501
I12
sS'P'
p3502
I7
sS'PA'
p3503
I7
sS'M'
p3504
I12
sS'R'
p3505
I9
sS'TB'
p3506
I8
sS'PL'
p3507
I12
sS'TA'
p3508
I5
ssg113
(dp3509
S's11'
p3510
(ijoueur
joueur
p3511
(dp3512
g28
I0
sg32
I1
sg34
I0
sg35
g36
(g37
g38
Ntp3513
Rp3514
(dp3515
g42
I3
sg43
S'^^^'
p3516
sg45
S'rare'
p3517
sbsg47
(dp3518
S'SR'
p3519
I0
sS'ST'
p3520
I0
sS'CR'
p3521
I0
sS'CT'
p3522
I14
ssg53
(dp3523
g3519
I0
sg3520
I0
sg3521
I0
sg3522
I0
ssg56
I1
sg58
I1
sg79
I00
sg60
I4
sg61
I0
sg62
I0
sg63
(S'dummy'
p3524
S'AR'
p3525
S'AI'
p3526
S'CE'
p3527
tp3528
sg68
I00
sg69
g36
(g37
g38
Ntp3529
Rp3530
(dp3531
g42
I3
sg43
S'^^^'
p3532
sg45
g3517
sbsg73
(dp3533
g3519
I0
sg3520
I5
sg3521
I0
sg3522
I1
ssg141
(dp3534
g3519
I0
sg3520
I0
sg3521
I0
sg3522
I14
ssg80
(dp3535
g3519
I0
sg3520
I0
sg3521
I0
sg3522
I0
ssg82
(dp3536
g3519
I0
sg3520
I5
sg3521
I0
sg3522
I1
ssg84
I0
sg86
I0
sg87
S'Mentre'
p3537
sg89
I8
sg90
I0
sg91
I18
sg92
I136
sg93
S'MDL'
p3538
sg96
(dp3539
S'A'
p3540
I10
sS'ME'
p3541
I7
sS'RP2'
p3542
I11
sS'E'
p3543
I10
sS'TO'
p3544
I2
sS'RP1'
p3545
I10
sS'JP'
p3546
I10
sS'RP_tot'
p3547
I14
sS'P'
p3548
I7
sS'PA'
p3549
I7
sS'M'
p3550
I12
sS'R'
p3551
I9
sS'TB'
p3552
I7
sS'PL'
p3553
I12
sS'TA'
p3554
I5
ssg207
I0
sg208
I0
sg209
I0
sg210
I0
sg57
F10.727272727272727
sg211
I0
sg212
I0
sg213
I0
sg214
(dp3555
S'A'
p3556
I10
sS'ME'
p3557
I7
sS'RP2'
p3558
I11
sS'E'
p3559
I10
sS'TO'
p3560
I2
sS'RP1'
p3561
I10
sS'JP'
p3562
I10
sS'RP_tot'
p3563
I14
sS'P'
p3564
I7
sS'PA'
p3565
I7
sS'M'
p3566
I12
sS'R'
p3567
I9
sS'TB'
p3568
I7
sS'PL'
p3569
I12
sS'TA'
p3570
I5
ssg231
g3539
sg232
I0
sg233
g31
sg235
I0
sg236
I1
sg237
I0
sg238
I18
sg239
I9
sg240
I0
sg241
S'OG'
p3571
sbssg207
I0
sg208
I0
sg209
I0
sg210
I0
sg57
F10.424242424242424
sg211
I0
sg212
I0
sg213
I0
sg214
(dp3572
S'A'
p3573
I10
sS'ME'
p3574
I7
sS'RP2'
p3575
I11
sS'E'
p3576
I10
sS'P'
p3577
I7
sS'RP1'
p3578
I10
sS'JP'
p3579
I10
sS'RP_tot'
p3580
I14
sS'TO'
p3581
I2
sS'PA'
p3582
I7
sS'M'
p3583
I12
sS'R'
p3584
I9
sS'TB'
p3585
I7
sS'PL'
p3586
I12
sS'TA'
p3587
I5
ssg231
g3493
sg232
I0
sg233
g31
sg235
I0
sg236
I1
sg237
I0
sg238
I18
sg239
I9
sg240
I0
sg241
S'OG'
p3588
sbsS's11'
p3589
(ijoueur
joueur
p3590
(dp3591
g28
I0
sg32
I1
sg34
I0
sg35
g36
(g37
g38
Ntp3592
Rp3593
(dp3594
g42
I3
sg43
S'^^^'
p3595
sg45
S'rare'
p3596
sbsg47
(dp3597
S'SR'
p3598
I0
sS'ST'
p3599
I0
sS'CR'
p3600
I0
sS'CT'
p3601
I14
ssg53
(dp3602
g3598
I0
sg3599
I0
sg3600
I0
sg3601
I0
ssg56
I1
sg58
I1
sg79
I00
sg60
I4
sg61
I0
sg62
I0
sg63
(S'dummy'
p3603
S'AR'
p3604
S'AI'
p3605
S'CE'
p3606
tp3607
sg68
I00
sg69
g36
(g37
g38
Ntp3608
Rp3609
(dp3610
g42
I3
sg43
S'^^^'
p3611
sg45
g3596
sbsg73
(dp3612
g3598
I0
sg3599
I5
sg3600
I0
sg3601
I1
ssg141
(dp3613
g3598
I0
sg3599
I0
sg3600
I0
sg3601
I14
ssg80
(dp3614
g3598
I0
sg3599
I0
sg3600
I0
sg3601
I0
ssg82
(dp3615
g3598
I0
sg3599
I5
sg3600
I0
sg3601
I1
ssg84
I0
sg86
I0
sg87
S'Mentre'
p3616
sg89
I8
sg90
I0
sg91
I18
sg92
I136
sg93
S'MDL'
p3617
sg96
(dp3618
S'A'
p3619
I10
sS'ME'
p3620
I7
sS'RP2'
p3621
I11
sS'E'
p3622
I10
sS'TO'
p3623
I2
sS'RP1'
p3624
I10
sS'JP'
p3625
I10
sS'RP_tot'
p3626
I14
sS'P'
p3627
I7
sS'PA'
p3628
I7
sS'M'
p3629
I12
sS'R'
p3630
I9
sS'TB'
p3631
I7
sS'PL'
p3632
I12
sS'TA'
p3633
I5
ssg207
I0
sg208
I0
sg209
I0
sg210
I0
sg57
F10.727272727272727
sg211
I0
sg212
I0
sg213
I0
sg214
(dp3634
S'A'
p3635
I10
sS'ME'
p3636
I7
sS'RP2'
p3637
I11
sS'E'
p3638
I10
sS'TO'
p3639
I2
sS'RP1'
p3640
I10
sS'JP'
p3641
I10
sS'RP_tot'
p3642
I14
sS'P'
p3643
I7
sS'PA'
p3644
I7
sS'M'
p3645
I12
sS'R'
p3646
I9
sS'TB'
p3647
I7
sS'PL'
p3648
I12
sS'TA'
p3649
I5
ssg231
g3618
sg232
I0
sg233
g31
sg235
I0
sg236
I1
sg237
I0
sg238
I18
sg239
I9
sg240
I0
sg241
S'OG'
p3650
sbssg207
I0
sg208
I0
sg209
I0
sg210
I0
sg141
(dp3651
g75
I0
sg76
I0
sg77
I0
sg78
I0
ssg211
I0
sg212
I0
sg213
I0
sg214
(dp3652
S'A'
p3653
I10
sS'ME'
p3654
I7
sS'RP2'
p3655
I11
sS'E'
p3656
I10
sS'P'
p3657
I7
sS'RP1'
p3658
I10
sS'JP'
p3659
I10
sS'RP_tot'
p3660
I14
sS'TO'
p3661
I2
sS'PA'
p3662
I7
sS'M'
p3663
I12
sS'R'
p3664
I9
sS'TB'
p3665
I7
sS'PL'
p3666
I12
sS'TA'
p3667
I5
ssg231
(dp3668
g3444
I10
sg3445
I7
sg3446
I8
sg3447
I10
sg3452
I2
sg3449
I10
sg3450
I8
sg3451
I11
sg3448
I7
sg3453
I7
sg3454
I12
sg3455
I9
sg3456
I9
sg3457
I12
sg3458
I5
ssg232
I0
sg340
(dp3669
sg235
I0
sg233
S'MDL 13'
p3670
sg236
I0
sg237
I0
sg238
I11
sg239
I9
sg240
I0
sg241
S'OG'
p3671
sbsS'n20'
p3672
g345
sS'n8'
p3673
g939
sS'n9'
p3674
g765
sS'n1'
p3675
(ijoueur
joueur
p3676
(dp3677
g27
F10.481481481481481
sg28
I0
sg29
F10.185185185185185
sg30
g31
sg32
I0
sg33
I0
sg34
I0
sg35
g36
(g37
g38
Ntp3678
Rp3679
(dp3680
g42
I6
sg43
S'***'
p3681
sg45
g1395
sbsg47
(dp3682
g49
I1
sg50
I2
sg51
I4
sg52
I0
ssg53
(dp3683
g49
I0
sg50
I0
sg51
I0
sg52
I0
ssg55
I0
sg56
I0
sg57
F9.96551724137931
sg58
I0
sg59
I0
sg60
I0
sg61
I0
sg62
I0
sg63
(g64
S'PI'
p3684
S'TA'
p3685
g31
tp3686
sg68
I00
sg69
g36
(g37
g38
Ntp3687
Rp3688
(dp3689
g42
I6
sg43
S'***'
p3690
sg45
g1395
sbsg73
(dp3691
g75
I0
sg76
I0
sg77
I0
sg78
I0
ssg79
I00
sg80
(dp3692
g75
I0
sg76
I0
sg77
I0
sg78
I0
ssg82
(dp3693
g49
I5
sg50
I20
sg51
I1
sg52
I2
ssg84
I0
sg86
I0
sg87
S'Khazrak'
p3694
sg89
I11
sg90
I0
sg91
I23
sg92
I314
sg93
g94
sg96
(dp3695
g98
I8
sg99
I11
sg100
I7
sg101
I10
sg102
I8
sg103
I11
sg104
I0
sg105
I11
sg106
I1
sg107
I8
sg108
I10
sg109
I10
sg110
I1
sg111
I9
sg112
I10
ssg113
(dp3696
g115
(ijoueur
joueur
p3697
(dp3698
g27
F10.481481481481481
sg28
I0
sg30
g31
sg32
I0
sg34
I0
sg35
g36
(g37
g38
Ntp3699
Rp3700
(dp3701
g42
I6
sg43
S'***'
p3702
sg45
g1417
sbsg47
(dp3703
g124
I1
sg125
I2
sg126
I4
sg127
I0
ssg53
(dp3704
g124
I0
sg125
I0
sg126
I0
sg127
I0
ssg56
I0
sg58
I0
sg79
I00
sg60
I2
sg61
I0
sg62
I0
sg63
(g129
S'PI'
p3705
S'TA'
p3706
g31
tp3707
sg68
I00
sg69
g36
(g37
g38
Ntp3708
Rp3709
(dp3710
g42
I6
sg43
S'***'
p3711
sg45
g1417
sbsg73
(dp3712
g137
I0
sg138
I0
sg139
I1
sg140
I8
ssg141
(dp3713
g137
I1
sg138
I0
sg139
I4
sg140
I2
ssg80
(dp3714
g137
I0
sg138
I0
sg139
I0
sg140
I0
ssg82
(dp3715
g124
I5
sg125
I20
sg126
I1
sg127
I2
ssg84
I0
sg86
I0
sg87
S'Khazrak'
p3716
sg89
I11
sg90
I0
sg91
I23
sg92
I314
sg93
g146
sg96
(dp3717
g148
I9
sg149
I11
sg150
I8
sg151
I10
sg152
I1
sg153
I11
sg154
I0
sg155
I12
sg156
I8
sg157
I8
sg158
I10
sg159
I10
sg160
I1
sg161
I9
sg162
I10
ssg113
(dp3718
g164
(ijoueur
joueur
p3719
(dp3720
g28
I0
sg32
I0
sg34
I0
sg35
g36
(g37
g38
Ntp3721
Rp3722
(dp3723
g42
I6
sg43
S'***'
p3724
sg45
S'personnage'
p3725
sbsg47
(dp3726
S'SR'
p3727
I0
sS'ST'
p3728
I0
sS'CR'
p3729
I0
sS'CT'
p3730
I0
ssg53
(dp3731
g3727
I0
sg3728
I0
sg3729
I0
sg3730
I0
ssg56
I0
sg58
I0
sg79
I00
sg60
I1
sg61
I0
sg62
I0
sg63
(S'dummy'
p3732
S'PI'
p3733
S'TA'
p3734
g31
tp3735
sg68
I00
sg69
g36
(g37
g38
Ntp3736
Rp3737
(dp3738
g42
I6
sg43
S'***'
p3739
sg45
g3725
sbsg73
(dp3740
g3727
I5
sg3728
I2
sg3729
I0
sg3730
I12
ssg141
(dp3741
g3727
I0
sg3728
I0
sg3729
I0
sg3730
I0
ssg80
(dp3742
g3727
I0
sg3728
I0
sg3729
I0
sg3730
I0
ssg82
(dp3743
g3727
I5
sg3728
I2
sg3729
I0
sg3730
I12
ssg84
I0
sg86
I0
sg87
S'Khazrak'
p3744
sg89
I11
sg90
I0
sg91
I23
sg92
I314
sg93
S'SN'
p3745
sg96
(dp3746
S'A'
p3747
I9
sS'ME'
p3748
I11
sS'RP2'
p3749
I8
sS'E'
p3750
I10
sS'TO'
p3751
I8
sS'RP1'
p3752
I12
sS'JP'
p3753
I0
sS'RP_tot'
p3754
I13
sS'P'
p3755
I1
sS'PA'
p3756
I8
sS'M'
p3757
I10
sS'R'
p3758
I10
sS'TB'
p3759
I1
sS'PL'
p3760
I10
sS'TA'
p3761
I11
ssg207
I0
sg208
I0
sg209
I1
sg210
I0
sg57
F10.517241379310345
sg211
I0
sg212
I1
sg213
I0
sg214
(dp3762
S'A'
p3763
I9
sS'ME'
p3764
I11
sS'RP2'
p3765
I8
sS'E'
p3766
I10
sS'TO'
p3767
I8
sS'RP1'
p3768
I12
sS'JP'
p3769
I0
sS'RP_tot'
p3770
I13
sS'P'
p3771
I1
sS'PA'
p3772
I8
sS'M'
p3773
I10
sS'R'
p3774
I10
sS'TB'
p3775
I1
sS'PL'
p3776
I10
sS'TA'
p3777
I11
ssg231
g3746
sg232
I0
sg233
g31
sg235
I0
sg236
I0
sg237
I0
sg238
I25
sg239
I1
sg240
I0
sg241
S'HB'
p3778
sbssg207
I0
sg208
I0
sg209
I1
sg210
I0
sg57
F10.185185185185185
sg211
I0
sg212
I0
sg213
I0
sg214
(dp3779
g244
I9
sg245
I11
sg246
I8
sg247
I10
sg248
I8
sg249
I12
sg250
I0
sg251
I13
sg252
I1
sg253
I8
sg254
I10
sg255
I10
sg256
I1
sg257
I10
sg258
I11
ssg231
g3717
sg232
I0
sg233
g31
sg235
I0
sg236
I0
sg237
I0
sg238
I25
sg239
I3
sg240
I0
sg241
S'HB'
p3780
sbsg261
(ijoueur
joueur
p3781
(dp3782
g28
I0
sg32
I0
sg34
I0
sg35
g36
(g37
g38
Ntp3783
Rp3784
(dp3785
g42
I6
sg43
S'***'
p3786
sg45
S'personnage'
p3787
sbsg47
(dp3788
S'SR'
p3789
I0
sS'ST'
p3790
I0
sS'CR'
p3791
I0
sS'CT'
p3792
I0
ssg53
(dp3793
g3789
I0
sg3790
I0
sg3791
I0
sg3792
I0
ssg56
I0
sg58
I0
sg79
I00
sg60
I1
sg61
I0
sg62
I0
sg63
(S'dummy'
p3794
S'PI'
p3795
S'TA'
p3796
g31
tp3797
sg68
I00
sg69
g36
(g37
g38
Ntp3798
Rp3799
(dp3800
g42
I6
sg43
S'***'
p3801
sg45
g3787
sbsg73
(dp3802
g3789
I5
sg3790
I2
sg3791
I0
sg3792
I12
ssg141
(dp3803
g3789
I0
sg3790
I0
sg3791
I0
sg3792
I0
ssg80
(dp3804
g3789
I0
sg3790
I0
sg3791
I0
sg3792
I0
ssg82
(dp3805
g3789
I5
sg3790
I2
sg3791
I0
sg3792
I12
ssg84
I0
sg86
I0
sg87
S'Khazrak'
p3806
sg89
I11
sg90
I0
sg91
I23
sg92
I314
sg93
S'SN'
p3807
sg96
(dp3808
S'A'
p3809
I9
sS'ME'
p3810
I11
sS'RP2'
p3811
I8
sS'E'
p3812
I10
sS'TO'
p3813
I8
sS'RP1'
p3814
I12
sS'JP'
p3815
I0
sS'RP_tot'
p3816
I13
sS'P'
p3817
I1
sS'PA'
p3818
I8
sS'M'
p3819
I10
sS'R'
p3820
I10
sS'TB'
p3821
I1
sS'PL'
p3822
I10
sS'TA'
p3823
I11
ssg207
I0
sg208
I0
sg209
I1
sg210
I0
sg57
F10.517241379310345
sg211
I0
sg212
I1
sg213
I0
sg214
(dp3824
S'A'
p3825
I9
sS'ME'
p3826
I11
sS'RP2'
p3827
I8
sS'E'
p3828
I10
sS'TO'
p3829
I8
sS'RP1'
p3830
I12
sS'JP'
p3831
I0
sS'RP_tot'
p3832
I13
sS'P'
p3833
I1
sS'PA'
p3834
I8
sS'M'
p3835
I10
sS'R'
p3836
I10
sS'TB'
p3837
I1
sS'PL'
p3838
I10
sS'TA'
p3839
I11
ssg231
g3808
sg232
I0
sg233
g31
sg235
I0
sg236
I0
sg237
I0
sg238
I25
sg239
I1
sg240
I0
sg241
S'HB'
p3840
sbssg207
I0
sg208
I0
sg209
I1
sg210
I0
sg141
(dp3841
g75
I0
sg76
I0
sg77
I0
sg78
I0
ssg211
I0
sg212
I0
sg213
I0
sg214
(dp3842
g324
I9
sg325
I11
sg326
I8
sg327
I10
sg328
I8
sg329
I12
sg330
I0
sg331
I13
sg332
I1
sg333
I8
sg334
I10
sg335
I10
sg336
I1
sg337
I10
sg338
I11
ssg231
(dp3843
g98
I8
sg99
I11
sg100
I7
sg101
I10
sg106
I1
sg103
I11
sg104
I0
sg105
I11
sg102
I8
sg107
I8
sg108
I10
sg109
I10
sg110
I1
sg111
I9
sg112
I10
ssg232
I0
sg340
(dp3844
sg235
I0
sg233
g31
sg236
I0
sg237
I0
sg238
I25
sg239
I3
sg240
I0
sg241
S'HB'
p3845
sbsS'n2'
p3846
(ijoueur
joueur
p3847
(dp3848
g27
F10.185185185185185
sg28
I0
sg29
F10.482758620689655
sg30
S'PI -> TA : 13'
p3849
sg32
I0
sg33
I0
sg34
I0
sg35
g36
(g37
g38
Ntp3850
Rp3851
(dp3852
g42
I5
sg43
S'**'
p3853
sg45
g603
sbsg47
(dp3854
g49
I0
sg50
I0
sg51
I0
sg52
I0
ssg53
(dp3855
g49
I0
sg50
I0
sg51
I0
sg52
I0
ssg55
I0
sg56
I0
sg57
F10.689655172413794
sg58
I0
sg59
I0
sg60
I0
sg61
I0
sg62
I0
sg63
(S'dummy'
p3856
S'TA'
p3857
S'PI'
p3858
S'TL'
p3859
tp3860
sg68
I00
sg69
g36
(g37
g38
Ntp3861
Rp3862
(dp3863
g42
I5
sg43
S'**'
p3864
sg45
g603
sbsg73
(dp3865
g75
I0
sg76
I0
sg77
I0
sg78
I0
ssg79
I00
sg80
(dp3866
g75
I0
sg76
I0
sg77
I0
sg78
I0
ssg82
(dp3867
g49
I0
sg50
I25
sg51
I1
sg52
I13
ssg84
I0
sg86
I0
sg87
S'Van Rutard'
p3868
sg89
I4
sg90
I0
sg91
I14
sg92
I160
sg93
g94
sg96
(dp3869
g98
I8
sg99
I10
sg100
I9
sg101
I10
sg102
I6
sg103
I9
sg104
I4
sg105
I11
sg106
I8
sg107
I11
sg108
I9
sg109
I12
sg110
I2
sg111
I9
sg112
I13
ssg113
(dp3870
g115
(ijoueur
joueur
p3871
(dp3872
g27
F10.185185185185185
sg28
I0
sg30
g31
sg32
I0
sg34
I0
sg35
g36
(g37
g38
Ntp3873
Rp3874
(dp3875
g42
I5
sg43
S'**'
p3876
sg45
g621
sbsg47
(dp3877
g124
I0
sg125
I25
sg126
I1
sg127
I13
ssg53
(dp3878
g124
I0
sg125
I0
sg126
I0
sg127
I0
ssg56
I0
sg58
I0
sg79
I00
sg60
I3
sg61
I0
sg62
I0
sg63
(g129
S'PI'
p3879
S'TA'
p3880
S'TL'
p3881
tp3882
sg68
I00
sg69
g36
(g37
g38
Ntp3883
Rp3884
(dp3885
g42
I5
sg43
S'**'
p3886
sg45
g621
sbsg73
(dp3887
g137
I0
sg138
I0
sg139
I0
sg140
I0
ssg141
(dp3888
g137
I0
sg138
I7
sg139
I0
sg140
I12
ssg80
(dp3889
g137
I0
sg138
I0
sg139
I0
sg140
I0
ssg82
(dp3890
g124
I0
sg125
I0
sg126
I0
sg127
I0
ssg84
I0
sg86
I0
sg87
S'Van Rutard'
p3891
sg89
I4
sg90
I0
sg91
I14
sg92
I160
sg93
g146
sg96
(dp3892
g148
I8
sg149
I8
sg150
I9
sg151
I10
sg152
I7
sg153
I9
sg154
I4
sg155
I11
sg156
I6
sg157
I11
sg158
I9
sg159
I12
sg160
I2
sg161
I9
sg162
I13
ssg113
(dp3893
g164
(ijoueur
joueur
p3894
(dp3895
g28
I0
sg32
I0
sg34
I0
sg35
g36
(g37
g38
Ntp3896
Rp3897
(dp3898
g42
I5
sg43
S'**'
p3899
sg45
S'seigneur'
p3900
sbsg47
(dp3901
S'SR'
p3902
I0
sS'ST'
p3903
I6
sS'CR'
p3904
I1
sS'CT'
p3905
I13
ssg53
(dp3906
g3902
I0
sg3903
I0
sg3904
I0
sg3905
I0
ssg56
I0
sg58
I0
sg79
I00
sg60
I1
sg61
I0
sg62
I0
sg63
(S'dummy'
p3907
S'PI'
p3908
S'TA'
p3909
S'TL'
p3910
tp3911
sg68
I00
sg69
g36
(g37
g38
Ntp3912
Rp3913
(dp3914
g42
I5
sg43
S'**'
p3915
sg45
g3900
sbsg73
(dp3916
g3902
I0
sg3903
I0
sg3904
I0
sg3905
I0
ssg141
(dp3917
g3902
I0
sg3903
I6
sg3904
I1
sg3905
I13
ssg80
(dp3918
g3902
I0
sg3903
I0
sg3904
I0
sg3905
I0
ssg82
(dp3919
g3902
I0
sg3903
I0
sg3904
I0
sg3905
I0
ssg84
I0
sg86
I0
sg87
S'Van Rutard'
p3920
sg89
I4
sg90
I0
sg91
I14
sg92
I160
sg93
S'SN'
p3921
sg96
(dp3922
S'A'
p3923
I9
sS'ME'
p3924
I9
sS'RP2'
p3925
I9
sS'E'
p3926
I10
sS'TO'
p3927
I6
sS'RP1'
p3928
I9
sS'JP'
p3929
I4
sS'RP_tot'
p3930
I11
sS'P'
p3931
I7
sS'PA'
p3932
I11
sS'M'
p3933
I9
sS'R'
p3934
I12
sS'TB'
p3935
I2
sS'PL'
p3936
I9
sS'TA'
p3937
I13
ssg207
I0
sg208
I0
sg209
I0
sg210
I0
sg57
F10.379310344827585
sg211
I0
sg212
I0
sg213
I0
sg214
(dp3938
S'A'
p3939
I9
sS'ME'
p3940
I9
sS'RP2'
p3941
I9
sS'E'
p3942
I10
sS'TO'
p3943
I6
sS'RP1'
p3944
I9
sS'JP'
p3945
I4
sS'RP_tot'
p3946
I11
sS'P'
p3947
I7
sS'PA'
p3948
I11
sS'M'
p3949
I9
sS'R'
p3950
I12
sS'TB'
p3951
I2
sS'PL'
p3952
I9
sS'TA'
p3953
I13
ssg231
g3922
sg232
I0
sg233
g31
sg235
I0
sg236
I0
sg237
I0
sg238
I26
sg239
I25
sg240
I0
sg241
S'EMP'
p3954
sbssg207
I9
sg208
I0
sg209
I1
sg210
I0
sg57
F10.137931034482758
sg211
I0
sg212
I1
sg213
I1
sg214
(dp3955
g244
I9
sg245
I9
sg246
I9
sg247
I10
sg248
I6
sg249
I9
sg250
I4
sg251
I11
sg252
I7
sg253
I11
sg254
I9
sg255
I12
sg256
I2
sg257
I9
sg258
I13
ssg231
g3892
sg232
I0
sg233
g31
sg235
I0
sg236
I0
sg237
I0
sg238
I26
sg239
I28
sg240
I1
sg241
S'EMP'
p3956
sbsg261
(ijoueur
joueur
p3957
(dp3958
g28
I0
sg32
I0
sg34
I0
sg35
g36
(g37
g38
Ntp3959
Rp3960
(dp3961
g42
I5
sg43
S'**'
p3962
sg45
S'seigneur'
p3963
sbsg47
(dp3964
S'SR'
p3965
I0
sS'ST'
p3966
I6
sS'CR'
p3967
I1
sS'CT'
p3968
I13
ssg53
(dp3969
g3965
I0
sg3966
I0
sg3967
I0
sg3968
I0
ssg56
I0
sg58
I0
sg79
I00
sg60
I1
sg61
I0
sg62
I0
sg63
(S'dummy'
p3970
S'PI'
p3971
S'TA'
p3972
S'TL'
p3973
tp3974
sg68
I00
sg69
g36
(g37
g38
Ntp3975
Rp3976
(dp3977
g42
I5
sg43
S'**'
p3978
sg45
g3963
sbsg73
(dp3979
g3965
I0
sg3966
I0
sg3967
I0
sg3968
I0
ssg141
(dp3980
g3965
I0
sg3966
I6
sg3967
I1
sg3968
I13
ssg80
(dp3981
g3965
I0
sg3966
I0
sg3967
I0
sg3968
I0
ssg82
(dp3982
g3965
I0
sg3966
I0
sg3967
I0
sg3968
I0
ssg84
I0
sg86
I0
sg87
S'Van Rutard'
p3983
sg89
I4
sg90
I0
sg91
I14
sg92
I160
sg93
S'SN'
p3984
sg96
(dp3985
S'A'
p3986
I9
sS'ME'
p3987
I9
sS'RP2'
p3988
I9
sS'E'
p3989
I10
sS'TO'
p3990
I6
sS'RP1'
p3991
I9
sS'JP'
p3992
I4
sS'RP_tot'
p3993
I11
sS'P'
p3994
I7
sS'PA'
p3995
I11
sS'M'
p3996
I9
sS'R'
p3997
I12
sS'TB'
p3998
I2
sS'PL'
p3999
I9
sS'TA'
p4000
I13
ssg207
I0
sg208
I0
sg209
I0
sg210
I0
sg57
F10.379310344827585
sg211
I0
sg212
I0
sg213
I0
sg214
(dp4001
S'A'
p4002
I9
sS'ME'
p4003
I9
sS'RP2'
p4004
I9
sS'E'
p4005
I10
sS'TO'
p4006
I6
sS'RP1'
p4007
I9
sS'JP'
p4008
I4
sS'RP_tot'
p4009
I11
sS'P'
p4010
I7
sS'PA'
p4011
I11
sS'M'
p4012
I9
sS'R'
p4013
I12
sS'TB'
p4014
I2
sS'PL'
p4015
I9
sS'TA'
p4016
I13
ssg231
g3985
sg232
I0
sg233
g31
sg235
I0
sg236
I0
sg237
I0
sg238
I26
sg239
I25
sg240
I0
sg241
S'EMP'
p4017
sbssg207
I0
sg208
I0
sg209
I1
sg210
I0
sg141
(dp4018
g75
I0
sg76
I0
sg77
I0
sg78
I0
ssg211
I0
sg212
I0
sg213
I1
sg214
(dp4019
g324
I9
sg325
I9
sg326
I9
sg327
I10
sg328
I6
sg329
I9
sg330
I4
sg331
I11
sg332
I7
sg333
I11
sg334
I9
sg335
I12
sg336
I2
sg337
I9
sg338
I13
ssg231
(dp4020
g98
I8
sg99
I10
sg100
I9
sg101
I10
sg106
I8
sg103
I9
sg104
I4
sg105
I11
sg102
I6
sg107
I11
sg108
I9
sg109
I12
sg110
I2
sg111
I9
sg112
I13
ssg232
I0
sg340
(dp4021
sg235
I0
sg233
g31
sg236
I0
sg237
I0
sg238
I26
sg239
I28
sg240
I0
sg241
S'EMP'
p4022
sbsS'n3'
p4023
(ijoueur
joueur
p4024
(dp4025
g27
F10.62962962962963
sg28
I0
sg29
F10.777777777777779
sg30
g31
sg32
I0
sg33
I0
sg34
I0
sg35
g36
(g37
g38
Ntp4026
Rp4027
(dp4028
g42
I1
sg43
S'>'
p4029
sg45
S'base'
p4030
sbsg47
(dp4031
g49
I0
sg50
I0
sg51
I0
sg52
I0
ssg53
(dp4032
g49
I0
sg50
I0
sg51
I0
sg52
I0
ssg55
I0
sg56
I0
sg57
F10.37037037037037
sg58
I0
sg59
I0
sg60
I0
sg61
I0
sg62
I0
sg63
(g64
S'PI'
p4033
g31
g31
tp4034
sg68
I00
sg69
g36
(g37
g38
Ntp4035
Rp4036
(dp4037
g42
I1
sg43
g4029
sg45
g4030
sbsg73
(dp4038
g75
I0
sg76
I0
sg77
I0
sg78
I0
ssg79
I00
sg80
(dp4039
g75
I0
sg76
I0
sg77
I0
sg78
I0
ssg82
(dp4040
g49
I0
sg50
I28
sg51
I0
sg52
I10
ssg84
I0
sg86
I0
sg87
S'Hugd'
p4041
sg89
I2
sg90
I0
sg91
I13
sg92
I100
sg93
g94
sg96
(dp4042
g98
I9
sg99
I13
sg100
I8
sg101
I9
sg102
I2
sg103
I12
sg104
I4
sg105
I13
sg106
I6
sg107
I6
sg108
I7
sg109
I10
sg110
I4
sg111
I9
sg112
I6
ssg113
(dp4043
g115
(ijoueur
joueur
p4044
(dp4045
g27
F10.62962962962963
sg28
I0
sg30
g31
sg32
I0
sg34
I0
sg35
g36
(g37
g38
Ntp4046
Rp4047
(dp4048
g42
I1
sg43
S'>'
p4049
sg45
S'base'
p4050
sbsg47
(dp4051
g124
I0
sg125
I0
sg126
I0
sg127
I0
ssg53
(dp4052
g124
I0
sg125
I0
sg126
I0
sg127
I0
ssg56
I0
sg58
I0
sg79
I00
sg60
I2
sg61
I0
sg62
I0
sg63
(g129
S'PI'
p4053
g31
g31
tp4054
sg68
I00
sg69
g36
(g37
g38
Ntp4055
Rp4056
(dp4057
g42
I1
sg43
g4049
sg45
g4050
sbsg73
(dp4058
g137
I0
sg138
I5
sg139
I0
sg140
I14
ssg141
(dp4059
g137
I0
sg138
I0
sg139
I0
sg140
I0
ssg80
(dp4060
g137
I0
sg138
I0
sg139
I0
sg140
I0
ssg82
(dp4061
g124
I0
sg125
I28
sg126
I0
sg127
I10
ssg84
I0
sg86
I0
sg87
S'Hugd'
p4062
sg89
I2
sg90
I0
sg91
I13
sg92
I100
sg93
g146
sg96
(dp4063
g148
I9
sg149
I13
sg150
I8
sg151
I9
sg152
I6
sg153
I13
sg154
I4
sg155
I14
sg156
I2
sg157
I6
sg158
I8
sg159
I11
sg160
I4
sg161
I9
sg162
I6
ssg113
(dp4064
g164
(ijoueur
joueur
p4065
(dp4066
g28
I0
sg32
I0
sg34
I0
sg35
g36
(g37
g38
Ntp4067
Rp4068
(dp4069
g42
I1
sg43
S'>'
p4070
sg45
S'base'
p4071
sbsg47
(dp4072
S'SR'
p4073
I0
sS'ST'
p4074
I0
sS'CR'
p4075
I0
sS'CT'
p4076
I0
ssg53
(dp4077
g4073
I0
sg4074
I0
sg4075
I0
sg4076
I0
ssg56
I0
sg58
I0
sg79
I00
sg60
I3
sg61
I0
sg62
I0
sg63
(S'dummy'
p4078
S'PI'
p4079
g31
g31
tp4080
sg68
I00
sg69
g36
(g37
g38
Ntp4081
Rp4082
(dp4083
g42
I1
sg43
g4070
sg45
g4071
sbsg73
(dp4084
g4073
I0
sg4074
I5
sg4075
I0
sg4076
I14
ssg141
(dp4085
g4073
I0
sg4074
I0
sg4075
I0
sg4076
I0
ssg80
(dp4086
g4073
I0
sg4074
I0
sg4075
I0
sg4076
I0
ssg82
(dp4087
g4073
I0
sg4074
I5
sg4075
I0
sg4076
I14
ssg84
I0
sg86
I0
sg87
S'Hugd'
p4088
sg89
I2
sg90
I0
sg91
I13
sg92
I100
sg93
S'SN'
p4089
sg96
(dp4090
S'A'
p4091
I9
sS'ME'
p4092
I13
sS'RP2'
p4093
I6
sS'E'
p4094
I9
sS'TO'
p4095
I2
sS'RP1'
p4096
I13
sS'JP'
p4097
I4
sS'RP_tot'
p4098
I13
sS'P'
p4099
I6
sS'PA'
p4100
I6
sS'M'
p4101
I8
sS'R'
p4102
I11
sS'TB'
p4103
I4
sS'PL'
p4104
I9
sS'TA'
p4105
I6
ssg207
I0
sg208
I0
sg209
I0
sg210
I0
sg57
F10.62962962962963
sg211
I0
sg212
I0
sg213
I0
sg214
(dp4106
S'A'
p4107
I9
sS'ME'
p4108
I13
sS'RP2'
p4109
I6
sS'E'
p4110
I9
sS'TO'
p4111
I2
sS'RP1'
p4112
I13
sS'JP'
p4113
I4
sS'RP_tot'
p4114
I13
sS'P'
p4115
I6
sS'PA'
p4116
I6
sS'M'
p4117
I8
sS'R'
p4118
I11
sS'TB'
p4119
I4
sS'PL'
p4120
I9
sS'TA'
p4121
I6
ssg231
g4090
sg232
I0
sg233
S'HTH 11'
p4122
sg235
I0
sg236
I0
sg237
I0
sg238
I10
sg239
I5
sg240
I0
sg241
S'O'
p4123
sbssg207
I5
sg208
I0
sg209
I0
sg210
I0
sg57
F10.777777777777779
sg211
I0
sg212
I0
sg213
I0
sg214
(dp4124
g244
I9
sg245
I13
sg246
I6
sg247
I9
sg248
I2
sg249
I13
sg250
I4
sg251
I13
sg252
I6
sg253
I6
sg254
I8
sg255
I11
sg256
I4
sg257
I9
sg258
I6
ssg231
g4063
sg232
I0
sg233
S'HTH 11'
p4125
sg235
I0
sg236
I0
sg237
I0
sg238
I10
sg239
I7
sg240
I0
sg241
S'O'
p4126
sbsg261
(ijoueur
joueur
p4127
(dp4128
g28
I0
sg32
I0
sg34
I0
sg35
g36
(g37
g38
Ntp4129
Rp4130
(dp4131
g42
I1
sg43
S'>'
p4132
sg45
S'base'
p4133
sbsg47
(dp4134
S'SR'
p4135
I0
sS'ST'
p4136
I0
sS'CR'
p4137
I0
sS'CT'
p4138
I0
ssg53
(dp4139
g4135
I0
sg4136
I0
sg4137
I0
sg4138
I0
ssg56
I0
sg58
I0
sg79
I00
sg60
I3
sg61
I0
sg62
I0
sg63
(S'dummy'
p4140
S'PI'
p4141
g31
g31
tp4142
sg68
I00
sg69
g36
(g37
g38
Ntp4143
Rp4144
(dp4145
g42
I1
sg43
g4132
sg45
g4133
sbsg73
(dp4146
g4135
I0
sg4136
I5
sg4137
I0
sg4138
I14
ssg141
(dp4147
g4135
I0
sg4136
I0
sg4137
I0
sg4138
I0
ssg80
(dp4148
g4135
I0
sg4136
I0
sg4137
I0
sg4138
I0
ssg82
(dp4149
g4135
I0
sg4136
I5
sg4137
I0
sg4138
I14
ssg84
I0
sg86
I0
sg87
S'Hugd'
p4150
sg89
I2
sg90
I0
sg91
I13
sg92
I100
sg93
S'SN'
p4151
sg96
(dp4152
S'A'
p4153
I9
sS'ME'
p4154
I13
sS'RP2'
p4155
I6
sS'E'
p4156
I9
sS'TO'
p4157
I2
sS'RP1'
p4158
I13
sS'JP'
p4159
I4
sS'RP_tot'
p4160
I13
sS'P'
p4161
I6
sS'PA'
p4162
I6
sS'M'
p4163
I8
sS'R'
p4164
I11
sS'TB'
p4165
I4
sS'PL'
p4166
I9
sS'TA'
p4167
I6
ssg207
I0
sg208
I0
sg209
I0
sg210
I0
sg57
F10.62962962962963
sg211
I0
sg212
I0
sg213
I0
sg214
(dp4168
S'A'
p4169
I9
sS'ME'
p4170
I13
sS'RP2'
p4171
I6
sS'E'
p4172
I9
sS'TO'
p4173
I2
sS'RP1'
p4174
I13
sS'JP'
p4175
I4
sS'RP_tot'
p4176
I13
sS'P'
p4177
I6
sS'PA'
p4178
I6
sS'M'
p4179
I8
sS'R'
p4180
I11
sS'TB'
p4181
I4
sS'PL'
p4182
I9
sS'TA'
p4183
I6
ssg231
g4152
sg232
I0
sg233
S'HTH 11'
p4184
sg235
I0
sg236
I0
sg237
I0
sg238
I10
sg239
I5
sg240
I0
sg241
S'O'
p4185
sbssg207
I0
sg208
I0
sg209
I0
sg210
I0
sg141
(dp4186
g75
I0
sg76
I0
sg77
I0
sg78
I0
ssg211
I0
sg212
I0
sg213
I0
sg214
(dp4187
g324
I9
sg325
I13
sg326
I6
sg327
I9
sg328
I2
sg329
I13
sg330
I4
sg331
I13
sg332
I6
sg333
I6
sg334
I8
sg335
I11
sg336
I4
sg337
I9
sg338
I6
ssg231
(dp4188
g98
I9
sg99
I13
sg100
I8
sg101
I9
sg106
I6
sg103
I12
sg104
I4
sg105
I13
sg102
I2
sg107
I6
sg108
I7
sg109
I10
sg110
I4
sg111
I9
sg112
I6
ssg232
I0
sg340
(dp4189
sg235
I0
sg233
S'HTH 11'
p4190
sg236
I0
sg237
I0
sg238
I10
sg239
I7
sg240
I0
sg241
S'O'
p4191
sbsS'n4'
p4192
g1389
sS'n5'
p4193
g25
sS'n6'
p4194
g597
sS'n7'
p4195
(ijoueur
joueur
p4196
(dp4197
g27
F10.806451612903226
sg28
I1
sg29
F11.0
sg30
g31
sg32
I0
sg33
I0
sg34
I0
sg35
g36
(g37
g38
Ntp4198
Rp4199
(dp4200
g42
I5
sg43
S'**'
p4201
sg45
g603
sbsg47
(dp4202
g49
I0
sg50
I0
sg51
I0
sg52
I0
ssg53
(dp4203
g49
I0
sg50
I0
sg51
I0
sg52
I0
ssg55
I0
sg56
I0
sg57
F11.0
sg58
I0
sg59
I0
sg60
I0
sg61
I0
sg62
I0
sg63
(g64
S'TL'
p4204
g31
g31
tp4205
sg68
I00
sg69
g36
(g37
g38
Ntp4206
Rp4207
(dp4208
g42
I5
sg43
S'**'
p4209
sg45
g603
sbsg73
(dp4210
g75
I0
sg76
I0
sg77
I0
sg78
I0
ssg79
I00
sg80
(dp4211
g75
I0
sg76
I0
sg77
I0
sg78
I0
ssg82
(dp4212
g49
I10
sg50
I23
sg51
I5
sg52
I1
ssg84
I0
sg86
I0
sg87
S'Skater'
p4213
sg89
I3
sg90
I0
sg91
I18
sg92
I270
sg93
g94
sg96
(dp4214
g98
I10
sg99
I8
sg100
I6
sg101
I12
sg102
I8
sg103
I8
sg104
I6
sg105
I8
sg106
I4
sg107
I7
sg108
I8
sg109
I12
sg110
I6
sg111
I14
sg112
I6
ssg113
(dp4215
g115
(ijoueur
joueur
p4216
(dp4217
g27
F10.806451612903226
sg28
I1
sg30
g31
sg32
I0
sg34
I0
sg35
g36
(g37
g38
Ntp4218
Rp4219
(dp4220
g42
I5
sg43
S'**'
p4221
sg45
g621
sbsg47
(dp4222
g124
I0
sg125
I0
sg126
I0
sg127
I0
ssg53
(dp4223
g124
I0
sg125
I0
sg126
I0
sg127
I0
ssg56
I0
sg58
I0
sg79
I01
sg60
I1
sg61
I0
sg62
I0
sg63
(g129
S'TL'
p4224
g31
g31
tp4225
sg68
I00
sg69
g36
(g37
g38
Ntp4226
Rp4227
(dp4228
g42
I5
sg43
S'**'
p4229
sg45
g621
sbsg73
(dp4230
g137
I5
sg138
I1
sg139
I4
sg140
I11
ssg141
(dp4231
g137
I0
sg138
I0
sg139
I0
sg140
I0
ssg80
(dp4232
g137
I0
sg138
I0
sg139
I0
sg140
I0
ssg82
(dp4233
g124
I10
sg125
I23
sg126
I5
sg127
I1
ssg84
I0
sg86
I0
sg87
S'Skater'
p4234
sg89
I3
sg90
I0
sg91
I18
sg92
I270
sg93
g146
sg96
(dp4235
g148
I10
sg149
I8
sg150
I6
sg151
I12
sg152
I4
sg153
I8
sg154
I6
sg155
I8
sg156
I8
sg157
I7
sg158
I8
sg159
I12
sg160
I6
sg161
I14
sg162
I6
ssg113
(dp4236
g164
(ijoueur
joueur
p4237
(dp4238
g28
I0
sg32
I0
sg34
I0
sg35
g36
(g37
g38
Ntp4239
Rp4240
(dp4241
g42
I5
sg43
S'**'
p4242
sg45
S'seigneur'
p4243
sbsg47
(dp4244
S'SR'
p4245
I0
sS'ST'
p4246
I0
sS'CR'
p4247
I0
sS'CT'
p4248
I0
ssg53
(dp4249
g4245
I0
sg4246
I0
sg4247
I0
sg4248
I0
ssg56
I0
sg58
I0
sg79
I00
sg60
I0
sg61
I0
sg62
I0
sg63
(S'dummy'
p4250
S'TL'
p4251
g31
g31
tp4252
sg68
I00
sg69
g36
(g37
g38
Ntp4253
Rp4254
(dp4255
g42
I5
sg43
S'**'
p4256
sg45
g4243
sbsg73
(dp4257
g4245
I5
sg4246
I0
sg4247
I1
sg4248
I12
ssg141
(dp4258
g4245
I0
sg4246
I0
sg4247
I0
sg4248
I0
ssg80
(dp4259
g4245
I0
sg4246
I0
sg4247
I0
sg4248
I0
ssg82
(dp4260
g4245
I5
sg4246
I0
sg4247
I1
sg4248
I12
ssg84
I0
sg86
I0
sg87
S'Skater'
p4261
sg89
I3
sg90
I0
sg91
I18
sg92
I270
sg93
S'SN'
p4262
sg96
(dp4263
S'A'
p4264
I10
sS'ME'
p4265
I8
sS'RP2'
p4266
I6
sS'E'
p4267
I12
sS'TO'
p4268
I8
sS'RP1'
p4269
I8
sS'JP'
p4270
I6
sS'RP_tot'
p4271
I8
sS'P'
p4272
I4
sS'PA'
p4273
I7
sS'M'
p4274
I8
sS'R'
p4275
I12
sS'TB'
p4276
I6
sS'PL'
p4277
I13
sS'TA'
p4278
I6
ssg207
I0
sg208
I0
sg209
I0
sg210
I0
sg57
F10.806451612903226
sg211
I0
sg212
I0
sg213
I0
sg214
(dp4279
S'A'
p4280
I10
sS'ME'
p4281
I8
sS'RP2'
p4282
I6
sS'E'
p4283
I12
sS'TO'
p4284
I8
sS'RP1'
p4285
I8
sS'JP'
p4286
I6
sS'RP_tot'
p4287
I8
sS'P'
p4288
I4
sS'PA'
p4289
I7
sS'M'
p4290
I8
sS'R'
p4291
I12
sS'TB'
p4292
I6
sS'PL'
p4293
I13
sS'TA'
p4294
I6
ssg231
g4263
sg232
I0
sg233
S'KH 9'
p4295
sg235
I0
sg236
I0
sg237
I0
sg238
I19
sg239
I4
sg240
I0
sg241
S'N'
p4296
sbssg207
I1
sg208
I0
sg209
I0
sg210
I0
sg57
F11.0
sg211
I0
sg212
I0
sg213
I0
sg214
(dp4297
g244
I10
sg245
I8
sg246
I6
sg247
I12
sg248
I8
sg249
I8
sg250
I6
sg251
I8
sg252
I4
sg253
I7
sg254
I8
sg255
I12
sg256
I6
sg257
I13
sg258
I6
ssg231
g4235
sg232
I1
sg233
S'KH 9'
p4298
sg235
I0
sg236
I0
sg237
I0
sg238
I19
sg239
I5
sg240
I0
sg241
S'N'
p4299
sbsg261
(ijoueur
joueur
p4300
(dp4301
g28
I0
sg32
I0
sg34
I0
sg35
g36
(g37
g38
Ntp4302
Rp4303
(dp4304
g42
I5
sg43
S'**'
p4305
sg45
S'seigneur'
p4306
sbsg47
(dp4307
S'SR'
p4308
I0
sS'ST'
p4309
I0
sS'CR'
p4310
I0
sS'CT'
p4311
I0
ssg53
(dp4312
g4308
I0
sg4309
I0
sg4310
I0
sg4311
I0
ssg56
I0
sg58
I0
sg79
I00
sg60
I0
sg61
I0
sg62
I0
sg63
(S'dummy'
p4313
S'TL'
p4314
g31
g31
tp4315
sg68
I00
sg69
g36
(g37
g38
Ntp4316
Rp4317
(dp4318
g42
I5
sg43
S'**'
p4319
sg45
g4306
sbsg73
(dp4320
g4308
I5
sg4309
I0
sg4310
I1
sg4311
I12
ssg141
(dp4321
g4308
I0
sg4309
I0
sg4310
I0
sg4311
I0
ssg80
(dp4322
g4308
I0
sg4309
I0
sg4310
I0
sg4311
I0
ssg82
(dp4323
g4308
I5
sg4309
I0
sg4310
I1
sg4311
I12
ssg84
I0
sg86
I0
sg87
S'Skater'
p4324
sg89
I3
sg90
I0
sg91
I18
sg92
I270
sg93
S'SN'
p4325
sg96
(dp4326
S'A'
p4327
I10
sS'ME'
p4328
I8
sS'RP2'
p4329
I6
sS'E'
p4330
I12
sS'TO'
p4331
I8
sS'RP1'
p4332
I8
sS'JP'
p4333
I6
sS'RP_tot'
p4334
I8
sS'P'
p4335
I4
sS'PA'
p4336
I7
sS'M'
p4337
I8
sS'R'
p4338
I12
sS'TB'
p4339
I6
sS'PL'
p4340
I13
sS'TA'
p4341
I6
ssg207
I0
sg208
I0
sg209
I0
sg210
I0
sg57
F10.806451612903226
sg211
I0
sg212
I0
sg213
I0
sg214
(dp4342
S'A'
p4343
I10
sS'ME'
p4344
I8
sS'RP2'
p4345
I6
sS'E'
p4346
I12
sS'TO'
p4347
I8
sS'RP1'
p4348
I8
sS'JP'
p4349
I6
sS'RP_tot'
p4350
I8
sS'P'
p4351
I4
sS'PA'
p4352
I7
sS'M'
p4353
I8
sS'R'
p4354
I12
sS'TB'
p4355
I6
sS'PL'
p4356
I13
sS'TA'
p4357
I6
ssg231
g4326
sg232
I0
sg233
S'KH 9'
p4358
sg235
I0
sg236
I0
sg237
I0
sg238
I19
sg239
I4
sg240
I0
sg241
S'N'
p4359
sbssg207
I0
sg208
I0
sg209
I0
sg210
I0
sg141
(dp4360
g75
I0
sg76
I0
sg77
I0
sg78
I0
ssg211
I0
sg212
I0
sg213
I0
sg214
(dp4361
g324
I10
sg325
I8
sg326
I6
sg327
I12
sg328
I8
sg329
I8
sg330
I6
sg331
I8
sg332
I4
sg333
I7
sg334
I8
sg335
I12
sg336
I6
sg337
I13
sg338
I6
ssg231
(dp4362
g98
I10
sg99
I8
sg100
I6
sg101
I12
sg106
I4
sg103
I8
sg104
I6
sg105
I8
sg102
I8
sg107
I7
sg108
I8
sg109
I12
sg110
I6
sg111
I14
sg112
I6
ssg232
I0
sg340
(dp4363
sg235
I0
sg233
S'KH 9'
p4364
sg236
I0
sg237
I0
sg238
I19
sg239
I5
sg240
I0
sg241
S'N'
p4365
sbssS'remplacements'
p4366
(dp4367
g3672
S'n0'
p4368
sg2083
g4368
sg2252
g4368
sg3175
g4368
sg3001
g4368
sg3002
g4368
sg3416
g4368
ssb.