(iclub
compo
p0
(dp1
S'caracs_old'
p2
(dp3
S'A'
p4
F149.0
sS'ME'
p5
F93.25
sS'E'
p6
F189.5
sS'OplusAV'
p7
F96.0
sS'TO_off'
p8
F106.0
sS'OplusAR'
p9
F107.0
sS'M'
p10
F97.0
sS'JP'
p11
F97.0
sS'OmoinsAR'
p12
F95.5
sS'PA'
p13
F109.5
sS'TO_def'
p14
F97.0
sS'OmoinsAV'
p15
F91.25
sS'R'
p16
F176.5
ssS'totaux_old'
p17
(dp18
S'T2'
p19
F177.75
sS'T3'
p20
F94.75
sS'T1'
p21
F185.75
ssS'roles'
p22
(dp23
S'drop1'
p24
(ijoueur
joueur
p25
(dp26
S'EV_saison_11'
p27
F9.633333333333333
sS'rouges_total'
p28
I0
sS'EV_saison_12'
p29
F9.9
sS'changements_postes'
p30
S''
p31
sS'drops_total'
p32
I2
sS'xp_total'
p33
F112.41084684308312
sS'blessure'
p34
I0
sS'RG_max'
p35
ccopy_reg
_reconstructor
p36
(cjoueur
rang_new
p37
c__builtin__
object
p38
Ntp39
Rp40
(dp41
S'type_nb'
p42
I2
sS'rang'
p43
S'<<'
p44
sS'type'
p45
S'special'
p46
sbsS'MJ2_total'
p47
(dp48
S'SR'
p49
I0
sS'CT'
p50
I5
sS'CR'
p51
I12
sS'ST'
p52
I0
ssS'MJ3_total'
p53
(dp54
g49
I0
sg50
I0
sg51
I0
sg52
I0
ssS'xp'
p55
I0
sS'drop_rates_total'
p56
I0
sS'drop_rates_saison'
p57
I0
sS'xp_saison'
p58
F112.41084684308312
sS'MS_probleme'
p59
I00
sS'essais_saison'
p60
I1
sS'penalite_ratees_saison'
p61
I0
sS'transformations_saison'
p62
I0
sS'postes'
p63
(S'dummy'
p64
S'C1'
p65
S'DO'
p66
g31
tp67
sS'veut_partir'
p68
I00
sS'RG'
p69
g36
(g37
g38
Ntp70
Rp71
(dp72
g42
I2
sg43
S'<<'
p73
sg45
g46
sbsS'MJ1'
p74
(dp75
S'SR'
p76
I0
sS'ST'
p77
I0
sS'CR'
p78
I0
sS'CT'
p79
I5
ssS'MJ2'
p80
(dp81
g76
I0
sg77
I0
sg78
I1
sg79
I5
ssS'MJ3'
p82
(dp83
g76
I0
sg77
I0
sg78
I0
sg79
I0
ssS'MJ1_total'
p84
(dp85
g49
I0
sg50
I6
sg51
I3
sg52
I0
ssS'penalites_total'
p86
I0
sS'penalites_saison'
p87
I0
sS'nom'
p88
S'Croess'
p89
sS'C'
p90
I11
sS'transformations_total'
p91
I0
sS'D'
p92
I21
sS'VAL'
p93
I32
sS'club'
p94
S'SN'
p95
sS'caracs'
p96
(dp97
S'A'
p98
I12
sS'ME'
p99
I4
sS'RP2'
p100
I8
sS'E'
p101
I10
sS'TO'
p102
I5
sS'RP1'
p103
I6
sS'JP'
p104
I10
sS'RP_tot'
p105
I8
sS'P'
p106
I9
sS'PA'
p107
I12
sS'M'
p108
I11
sS'R'
p109
I7
sS'TB'
p110
I8
sS'PL'
p111
I10
sS'TA'
p112
I7
ssS'jj_passe'
p113
(dp114
S's12'
p115
(ijoueur
joueur
p116
(dp117
g27
F9.633333333333333
sg28
I0
sg30
g31
sg32
I1
sg34
I0
sg35
g36
(g37
g38
Ntp118
Rp119
(dp120
g42
I2
sg43
S'<<'
p121
sg45
S'special'
p122
sbsg47
(dp123
S'SR'
p124
I0
sS'CT'
p125
I0
sS'CR'
p126
I11
sS'ST'
p127
I0
ssg53
(dp128
g124
I0
sg125
I0
sg126
I0
sg127
I0
ssg80
(dp129
S'SR'
p130
I0
sS'ST'
p131
I0
sS'CR'
p132
I7
sS'CT'
p133
I0
ssg56
I0
sg57
I0
sg60
I0
sg61
I0
sg62
I0
sg63
(S'dummy'
p134
S'C1'
p135
S'DO'
p136
g31
tp137
sg68
I00
sg69
g36
(g37
g38
Ntp138
Rp139
(dp140
g42
I2
sg43
S'<<'
p141
sg45
g122
sbsg74
(dp142
g130
I0
sg131
I0
sg132
I2
sg133
I1
ssg59
I01
sg82
(dp143
g130
I0
sg131
I0
sg132
I0
sg133
I0
ssg84
(dp144
g124
I0
sg125
I1
sg126
I3
sg127
I0
ssg86
I0
sg87
I0
sg88
S'Croess (12)'
p145
sg90
I11
sg91
I0
sg92
I21
sg93
I32
sg94
S'SN'
p146
sg96
(dp147
S'A'
p148
I12
sS'ME'
p149
I4
sS'RP2'
p150
I8
sS'E'
p151
I10
sS'P'
p152
I8
sS'RP1'
p153
I6
sS'JP'
p154
I10
sS'RP_tot'
p155
I8
sS'TO'
p156
I5
sS'PA'
p157
I11
sS'M'
p158
I11
sS'R'
p159
I7
sS'TB'
p160
I8
sS'PL'
p161
I10
sS'TA'
p162
I7
ssg113
(dp163
S's11'
p164
(ijoueur
joueur
p165
(dp166
g28
I0
sg32
I0
sg34
I0
sg35
g36
(g37
g38
Ntp167
Rp168
(dp169
g42
I2
sg43
S'<<'
p170
sg45
S'special'
p171
sbsg47
(dp172
S'SR'
p173
I0
sS'ST'
p174
I0
sS'CR'
p175
I4
sS'CT'
p176
I0
ssg53
(dp177
g173
I0
sg174
I0
sg175
I0
sg176
I0
ssg56
I0
sg57
I0
sg59
I01
sg60
I0
sg61
I0
sg62
I0
sg63
(S'dummy'
p178
S'C1'
p179
S'DO'
p180
g31
tp181
sg68
I00
sg69
g36
(g37
g38
Ntp182
Rp183
(dp184
g42
I2
sg43
S'<<'
p185
sg45
g171
sbsg74
(dp186
g173
I0
sg174
I0
sg175
I1
sg176
I0
ssg80
(dp187
g173
I0
sg174
I0
sg175
I4
sg176
I0
ssg82
(dp188
g173
I0
sg174
I0
sg175
I0
sg176
I0
ssg84
(dp189
g173
I0
sg174
I0
sg175
I1
sg176
I0
ssg86
I0
sg87
I0
sg88
S'Croess'
p190
sg90
I11
sg91
I0
sg92
I21
sg93
I32
sg94
S'SN'
p191
sg96
(dp192
S'A'
p193
I12
sS'ME'
p194
I4
sS'RP2'
p195
I8
sS'E'
p196
I10
sS'TO'
p197
I5
sS'RP1'
p198
I6
sS'JP'
p199
I10
sS'RP_tot'
p200
I8
sS'P'
p201
I8
sS'PA'
p202
I11
sS'M'
p203
I10
sS'R'
p204
I7
sS'TB'
p205
I8
sS'PL'
p206
I9
sS'TA'
p207
I7
ssS'fatigue'
p208
I0
sS'drop_ratees_total'
p209
I0
sS'blessures_total'
p210
I0
sS'XP'
p211
I0
sS'EV'
p212
F9.633333333333333
sS'penalite_ratees_total'
p213
I0
sS'blessures_saison'
p214
I0
sS'jaunes_total'
p215
I0
sS'caracs_saison_11'
p216
(dp217
S'A'
p218
I12
sS'ME'
p219
I4
sS'RP2'
p220
I8
sS'E'
p221
I10
sS'TO'
p222
I5
sS'RP1'
p223
I6
sS'JP'
p224
I10
sS'RP_tot'
p225
I8
sS'P'
p226
I8
sS'PA'
p227
I11
sS'M'
p228
I10
sS'R'
p229
I7
sS'TB'
p230
I8
sS'PL'
p231
I9
sS'TA'
p232
I7
ssS'caracs_sans_fatigue'
p233
g192
sS'rouges_saison'
p234
I0
sS'anciens_clubs'
p235
g31
sS'transformation_ratees_total'
p236
I0
sS'drops_saison'
p237
I0
sS'transformation_ratees_saison'
p238
I0
sS'MS'
p239
I3
sS'essais_total'
p240
I0
sS'jaunes_saison'
p241
I0
sS'ARM'
p242
S'S'
p243
sbssg208
I0
sg209
I0
sg210
I0
sg211
I0
sg212
F9.9
sg213
I0
sg214
I0
sg215
I1
sg216
(dp244
S'A'
p245
I12
sS'ME'
p246
I4
sS'RP2'
p247
I8
sS'E'
p248
I10
sS'TO'
p249
I5
sS'RP1'
p250
I6
sS'JP'
p251
I10
sS'RP_tot'
p252
I8
sS'P'
p253
I8
sS'PA'
p254
I11
sS'M'
p255
I10
sS'R'
p256
I7
sS'TB'
p257
I8
sS'PL'
p258
I9
sS'TA'
p259
I7
ssg233
g147
sg234
I0
sg235
g31
sg236
I0
sg237
I1
sg238
I0
sg239
I3
sg240
I0
sg241
I1
sg242
S'S'
p260
sbsS's11'
p261
(ijoueur
joueur
p262
(dp263
g28
I0
sg32
I0
sg34
I0
sg35
g36
(g37
g38
Ntp264
Rp265
(dp266
g42
I2
sg43
S'<<'
p267
sg45
S'special'
p268
sbsg47
(dp269
S'SR'
p270
I0
sS'ST'
p271
I0
sS'CR'
p272
I4
sS'CT'
p273
I0
ssg53
(dp274
g270
I0
sg271
I0
sg272
I0
sg273
I0
ssg56
I0
sg57
I0
sg59
I01
sg60
I0
sg61
I0
sg62
I0
sg63
(S'dummy'
p275
S'C1'
p276
S'DO'
p277
g31
tp278
sg68
I00
sg69
g36
(g37
g38
Ntp279
Rp280
(dp281
g42
I2
sg43
S'<<'
p282
sg45
g268
sbsg74
(dp283
g270
I0
sg271
I0
sg272
I1
sg273
I0
ssg80
(dp284
g270
I0
sg271
I0
sg272
I4
sg273
I0
ssg82
(dp285
g270
I0
sg271
I0
sg272
I0
sg273
I0
ssg84
(dp286
g270
I0
sg271
I0
sg272
I1
sg273
I0
ssg86
I0
sg87
I0
sg88
S'Croess (11)'
p287
sg90
I11
sg91
I0
sg92
I21
sg93
I32
sg94
S'SN'
p288
sg96
(dp289
S'A'
p290
I12
sS'ME'
p291
I4
sS'RP2'
p292
I8
sS'E'
p293
I10
sS'TO'
p294
I5
sS'RP1'
p295
I6
sS'JP'
p296
I10
sS'RP_tot'
p297
I8
sS'P'
p298
I8
sS'PA'
p299
I11
sS'M'
p300
I10
sS'R'
p301
I7
sS'TB'
p302
I8
sS'PL'
p303
I9
sS'TA'
p304
I7
ssg208
I0
sg209
I0
sg210
I0
sg211
I0
sg212
F9.633333333333333
sg213
I0
sg214
I0
sg215
I0
sg216
(dp305
S'A'
p306
I12
sS'ME'
p307
I4
sS'RP2'
p308
I8
sS'E'
p309
I10
sS'TO'
p310
I5
sS'RP1'
p311
I6
sS'JP'
p312
I10
sS'RP_tot'
p313
I8
sS'P'
p314
I8
sS'PA'
p315
I11
sS'M'
p316
I10
sS'R'
p317
I7
sS'TB'
p318
I8
sS'PL'
p319
I9
sS'TA'
p320
I7
ssg233
g289
sg234
I0
sg235
g31
sg236
I0
sg237
I0
sg238
I0
sg239
I3
sg240
I0
sg241
I0
sg242
S'S'
p321
sbssg208
I6
sg209
I0
sg210
I0
sg211
I0
sg212
F10.1
sg213
I0
sg214
I0
sg215
I1
sg216
(dp322
S'A'
p323
I12
sS'ME'
p324
I4
sS'RP2'
p325
I8
sS'E'
p326
I10
sS'TO'
p327
I5
sS'RP1'
p328
I6
sS'JP'
p329
I10
sS'RP_tot'
p330
I8
sS'P'
p331
I8
sS'PA'
p332
I11
sS'M'
p333
I10
sS'R'
p334
I7
sS'TB'
p335
I8
sS'PL'
p336
I9
sS'TA'
p337
I7
ssg233
(dp338
g98
I12
sg99
I4
sg100
I8
sg101
I10
sg106
I9
sg103
I6
sg104
I10
sg105
I8
sg102
I5
sg107
I12
sg108
I11
sg109
I7
sg110
I8
sg111
I10
sg112
I7
ssg234
I0
sS'caracs_saison_12'
p339
(dp340
sg236
I0
sg235
g31
sg237
I1
sg238
I0
sg239
I3
sg240
I1
sg241
I0
sg242
S'S'
p341
sbsS'SA_scd'
p342
(ijoueur
joueur
p343
(dp344
g27
F10.117647058823529
sg28
I0
sg29
F10.352941176470589
sg30
g31
sg32
I0
sg33
F125.32236890484117
sg34
I0
sg35
g36
(g37
g38
Ntp345
Rp346
(dp347
g42
I4
sg43
S'*'
p348
sg45
S'heros'
p349
sbsg47
(dp350
g49
I0
sg50
I0
sg51
I0
sg52
I7
ssg53
(dp351
g49
I0
sg50
I0
sg51
I0
sg52
I0
ssg55
I0
sg56
I0
sg57
I0
sg58
F125.32236890484117
sg59
I00
sg60
I2
sg61
I0
sg62
I0
sg63
(g64
S'DL'
p352
S'TL'
p353
g31
tp354
sg68
I00
sg69
g36
(g37
g38
Ntp355
Rp356
(dp357
g42
I4
sg43
g348
sg45
g349
sbsg74
(dp358
g76
I0
sg77
I0
sg78
I0
sg79
I12
ssg80
(dp359
g76
I0
sg77
I0
sg78
I0
sg79
I0
ssg82
(dp360
g76
I0
sg77
I0
sg78
I0
sg79
I0
ssg84
(dp361
g49
I0
sg50
I38
sg51
I0
sg52
I6
ssg86
I0
sS'carton_jaunes_saison'
p362
I1
sg87
I0
sg88
S'Remod'
p363
sg90
I8
sg91
I0
sg92
I20
sg93
I99
sg94
g95
sS'carton_jaunes_total'
p364
I1
sg96
(dp365
g98
I11
sg99
I9
sg100
I9
sg101
I9
sg102
I11
sg103
I10
sg104
I5
sg105
I11
sg106
I6
sg107
I10
sg108
I8
sg109
I10
sg110
I5
sg111
I8
sg112
I7
ssg113
(dp366
g115
(ijoueur
joueur
p367
(dp368
g27
F10.117647058823529
sg28
I0
sg30
g31
sg32
I0
sg34
I0
sg35
g36
(g37
g38
Ntp369
Rp370
(dp371
g42
I4
sg43
S'*'
p372
sg45
S'heros'
p373
sbsg47
(dp374
g124
I0
sg125
I0
sg126
I0
sg127
I7
ssg53
(dp375
g124
I0
sg125
I0
sg126
I0
sg127
I0
ssg80
(dp376
g130
I0
sg131
I7
sg132
I0
sg133
I0
ssg56
I0
sg57
I0
sg60
I2
sg61
I0
sg62
I0
sg63
(g134
S'DL'
p377
S'TL'
p378
g31
tp379
sg68
I00
sg69
g36
(g37
g38
Ntp380
Rp381
(dp382
g42
I4
sg43
g372
sg45
g373
sbsg74
(dp383
g130
I0
sg131
I0
sg132
I0
sg133
I14
ssg59
I01
sg82
(dp384
g130
I0
sg131
I0
sg132
I0
sg133
I0
ssg84
(dp385
g124
I0
sg125
I26
sg126
I0
sg127
I6
ssg86
I0
sg362
I1
sg87
I0
sg88
S'Remod (12)'
p386
sg90
I8
sg91
I0
sg92
I20
sg93
I99
sg94
g146
sg364
I1
sg96
(dp387
g148
I12
sg149
I9
sg150
I9
sg151
I9
sg152
I6
sg153
I10
sg154
I5
sg155
I11
sg156
I11
sg157
I10
sg158
I8
sg159
I11
sg160
I5
sg161
I9
sg162
I7
ssg113
(dp388
g164
(ijoueur
joueur
p389
(dp390
g28
I0
sg32
I0
sg34
I0
sg35
g36
(g37
g38
Ntp391
Rp392
(dp393
g42
I4
sg43
S'*'
p394
sg45
S'heros'
p395
sbsg47
(dp396
S'SR'
p397
I0
sS'ST'
p398
I0
sS'CR'
p399
I0
sS'CT'
p400
I0
ssg53
(dp401
g397
I0
sg398
I0
sg399
I0
sg400
I0
ssg56
I0
sg57
I0
sg59
I01
sg60
I0
sg61
I0
sg62
I0
sg63
(S'dummy'
p402
S'DL'
p403
S'TL'
p404
g31
tp405
sg68
I00
sg69
g36
(g37
g38
Ntp406
Rp407
(dp408
g42
I4
sg43
g394
sg45
g395
sbsg74
(dp409
g397
I0
sg398
I6
sg399
I0
sg400
I12
ssg80
(dp410
g397
I0
sg398
I0
sg399
I0
sg400
I0
ssg82
(dp411
g397
I0
sg398
I0
sg399
I0
sg400
I0
ssg84
(dp412
g397
I0
sg398
I6
sg399
I0
sg400
I12
ssg86
I0
sg362
I1
sg87
I0
sg88
S'Remod'
p413
sg90
I8
sg91
I0
sg92
I20
sg93
I99
sg94
S'SN'
p414
sg364
I1
sg96
(dp415
S'A'
p416
I12
sS'ME'
p417
I8
sS'RP2'
p418
I9
sS'E'
p419
I9
sS'TO'
p420
I11
sS'RP1'
p421
I9
sS'JP'
p422
I5
sS'RP_tot'
p423
I11
sS'P'
p424
I6
sS'PA'
p425
I10
sS'M'
p426
I8
sS'R'
p427
I11
sS'TB'
p428
I5
sS'PL'
p429
I9
sS'TA'
p430
I7
ssg208
I0
sg209
I0
sg210
I1
sg211
I0
sg212
F10.117647058823529
sg213
I0
sg214
I1
sg215
I0
sg216
(dp431
S'A'
p432
I12
sS'ME'
p433
I8
sS'RP2'
p434
I9
sS'E'
p435
I9
sS'TO'
p436
I11
sS'RP1'
p437
I9
sS'JP'
p438
I5
sS'RP_tot'
p439
I11
sS'P'
p440
I6
sS'PA'
p441
I10
sS'M'
p442
I8
sS'R'
p443
I11
sS'TB'
p444
I5
sS'PL'
p445
I9
sS'TA'
p446
I7
ssg233
g415
sg234
I0
sg235
S'PRG 10'
p447
sg236
I0
sg237
I0
sg238
I0
sg239
I7
sg240
I0
sg241
I0
sg242
S'EMP'
p448
sbssg208
I8
sg209
I0
sg210
I1
sg211
I0
sg212
F10.352941176470589
sg213
I0
sg214
I0
sg215
I1
sg216
(dp449
g245
I12
sg246
I8
sg247
I9
sg248
I9
sg249
I11
sg250
I9
sg251
I5
sg252
I11
sg253
I6
sg254
I10
sg255
I8
sg256
I11
sg257
I5
sg258
I9
sg259
I7
ssg233
g387
sg234
I0
sg235
S'PRG 10'
p450
sg236
I0
sg237
I0
sg238
I0
sg239
I7
sg240
I2
sg241
I1
sg242
S'EMP'
p451
sbsg261
(ijoueur
joueur
p452
(dp453
g28
I0
sg32
I0
sg34
I0
sg35
g36
(g37
g38
Ntp454
Rp455
(dp456
g42
I4
sg43
S'*'
p457
sg45
S'heros'
p458
sbsg47
(dp459
S'SR'
p460
I0
sS'ST'
p461
I0
sS'CR'
p462
I0
sS'CT'
p463
I0
ssg53
(dp464
g460
I0
sg461
I0
sg462
I0
sg463
I0
ssg56
I0
sg57
I0
sg59
I01
sg60
I0
sg61
I0
sg62
I0
sg63
(S'dummy'
p465
S'DL'
p466
S'TL'
p467
g31
tp468
sg68
I00
sg69
g36
(g37
g38
Ntp469
Rp470
(dp471
g42
I4
sg43
g457
sg45
g458
sbsg74
(dp472
g460
I0
sg461
I6
sg462
I0
sg463
I12
ssg80
(dp473
g460
I0
sg461
I0
sg462
I0
sg463
I0
ssg82
(dp474
g460
I0
sg461
I0
sg462
I0
sg463
I0
ssg84
(dp475
g460
I0
sg461
I6
sg462
I0
sg463
I12
ssg86
I0
sg362
I1
sg87
I0
sg88
S'Remod (11)'
p476
sg90
I8
sg91
I0
sg92
I20
sg93
I99
sg94
S'SN'
p477
sg364
I1
sg96
(dp478
S'A'
p479
I12
sS'ME'
p480
I8
sS'RP2'
p481
I9
sS'E'
p482
I9
sS'TO'
p483
I11
sS'RP1'
p484
I9
sS'JP'
p485
I5
sS'RP_tot'
p486
I11
sS'P'
p487
I6
sS'PA'
p488
I10
sS'M'
p489
I8
sS'R'
p490
I11
sS'TB'
p491
I5
sS'PL'
p492
I9
sS'TA'
p493
I7
ssg208
I0
sg209
I0
sg210
I1
sg211
I0
sg212
F10.117647058823529
sg213
I0
sg214
I1
sg215
I0
sg216
(dp494
S'A'
p495
I12
sS'ME'
p496
I8
sS'RP2'
p497
I9
sS'E'
p498
I9
sS'TO'
p499
I11
sS'RP1'
p500
I9
sS'JP'
p501
I5
sS'RP_tot'
p502
I11
sS'P'
p503
I6
sS'PA'
p504
I10
sS'M'
p505
I8
sS'R'
p506
I11
sS'TB'
p507
I5
sS'PL'
p508
I9
sS'TA'
p509
I7
ssg233
g478
sg234
I0
sg235
S'PRG 10'
p510
sg236
I0
sg237
I0
sg238
I0
sg239
I7
sg240
I0
sg241
I0
sg242
S'EMP'
p511
sbssg208
I13
sg209
I0
sg210
I1
sg211
I0
sg212
F10.235294117647058
sg213
I0
sg214
I0
sg215
I1
sg216
(dp512
g323
I12
sg324
I8
sg325
I9
sg326
I9
sg327
I11
sg328
I9
sg329
I5
sg330
I11
sg331
I6
sg332
I10
sg333
I8
sg334
I11
sg335
I5
sg336
I9
sg337
I7
ssg233
(dp513
g98
I12
sg99
I9
sg100
I9
sg101
I9
sg106
I6
sg103
I10
sg104
I5
sg105
I11
sg102
I11
sg107
I10
sg108
I8
sg109
I11
sg110
I5
sg111
I9
sg112
I7
ssg234
I0
sg339
(dp514
sg236
I0
sg235
S'PRG 10'
p515
sg237
I0
sg238
I0
sg239
I7
sg240
I4
sg241
I0
sg242
S'EMP'
p516
sbsS'RJL'
p517
(ijoueur
joueur
p518
(dp519
g27
F10.517241379310345
sg28
I0
sg29
F10.206896551724139
sg30
g31
sg32
I7
sg33
F144.06504195460926
sg34
I0
sg35
g36
(g37
g38
Ntp520
Rp521
(dp522
g42
I5
sg43
S'**'
p523
sg45
S'seigneur'
p524
sbsg47
(dp525
S'SR'
p526
I0
sS'ST'
p527
I0
sS'CR'
p528
I8
sS'CT'
p529
I6
ssg53
(dp530
g526
I0
sg527
I0
sg528
I0
sg529
I0
ssg55
I0
sg56
I1
sg57
I1
sg58
F144.06504195460926
sg59
I00
sg60
I2
sg61
I0
sg62
I0
sg63
(S'dummy'
p531
S'DM'
p532
S'DO'
p533
g31
tp534
sg68
I00
sg69
g36
(g37
g38
Ntp535
Rp536
(dp537
g42
I5
sg43
S'**'
p538
sg45
g524
sbsg74
(dp539
g76
I0
sg77
I0
sg78
I7
sg79
I2
ssg80
(dp540
g76
I0
sg77
I0
sg78
I3
sg79
I2
ssg82
(dp541
g76
I0
sg77
I0
sg78
I0
sg79
I0
ssg84
(dp542
g526
I0
sg527
I0
sg528
I14
sg529
I16
ssg86
I2
sg362
I1
sg87
I2
sg88
S'Ludalr'
p543
sg90
I6
sg91
I0
sg92
I14
sg93
I207
sg94
g95
sg364
I1
sg96
(dp544
S'A'
p545
I7
sS'ME'
p546
I5
sS'RP2'
p547
I10
sS'E'
p548
I11
sS'P'
p549
I11
sS'RP1'
p550
I8
sS'JP'
p551
I11
sS'RP_tot'
p552
I11
sS'TO'
p553
I9
sS'PA'
p554
I11
sS'M'
p555
I8
sS'R'
p556
I4
sS'TB'
p557
I9
sS'PL'
p558
I8
sS'TA'
p559
I4
ssg113
(dp560
S's12'
p561
(ijoueur
joueur
p562
(dp563
g27
F10.517241379310345
sg28
I0
sg30
g31
sg32
I4
sg34
I0
sg35
g36
(g37
g38
Ntp564
Rp565
(dp566
g42
I5
sg43
S'**'
p567
sg45
S'seigneur'
p568
sbsg47
(dp569
S'SR'
p570
I0
sS'ST'
p571
I0
sS'CR'
p572
I5
sS'CT'
p573
I4
ssg53
(dp574
g570
I0
sg571
I0
sg572
I0
sg573
I0
ssg80
(dp575
S'SR'
p576
I0
sS'ST'
p577
I0
sS'CR'
p578
I5
sS'CT'
p579
I3
ssg56
I1
sg57
I0
sg60
I2
sg61
I0
sg62
I0
sg63
(S'dummy'
p580
S'DM'
p581
S'DO'
p582
g31
tp583
sg68
I01
sg69
g36
(g37
g38
Ntp584
Rp585
(dp586
g42
I5
sg43
S'**'
p587
sg45
g568
sbsg74
(dp588
g576
I0
sg577
I0
sg578
I7
sg579
I0
ssg59
I00
sg82
(dp589
g576
I0
sg577
I0
sg578
I0
sg579
I0
ssg84
(dp590
g570
I0
sg571
I0
sg572
I7
sg573
I14
ssg86
I0
sg362
I1
sg87
I0
sg88
S'Ludalr (12)'
p591
sg90
I6
sg91
I0
sg92
I14
sg93
I126
sg94
S'TO'
p592
sg364
I1
sg96
(dp593
S'A'
p594
I9
sS'ME'
p595
I5
sS'RP2'
p596
I10
sS'E'
p597
I11
sS'TO'
p598
I9
sS'RP1'
p599
I8
sS'JP'
p600
I11
sS'RP_tot'
p601
I11
sS'P'
p602
I11
sS'PA'
p603
I11
sS'M'
p604
I8
sS'R'
p605
I6
sS'TB'
p606
I9
sS'PL'
p607
I10
sS'TA'
p608
I4
ssg113
(dp609
S's11'
p610
(ijoueur
joueur
p611
(dp612
g28
I0
sg32
I2
sg34
I0
sg35
g36
(g37
g38
Ntp613
Rp614
(dp615
g42
I5
sg43
S'**'
p616
sg45
S'seigneur'
p617
sbsg47
(dp618
S'SR'
p619
I0
sS'ST'
p620
I0
sS'CR'
p621
I0
sS'CT'
p622
I1
ssg53
(dp623
g619
I0
sg620
I0
sg621
I0
sg622
I0
ssg56
I1
sg57
I1
sg59
I00
sg60
I0
sg61
I0
sg62
I0
sg63
(S'dummy'
p624
S'DM'
p625
S'DO'
p626
g31
tp627
sg68
I00
sg69
g36
(g37
g38
Ntp628
Rp629
(dp630
g42
I5
sg43
S'**'
p631
sg45
g617
sbsg74
(dp632
g619
I0
sg620
I0
sg621
I0
sg622
I14
ssg80
(dp633
g619
I0
sg620
I0
sg621
I0
sg622
I1
ssg82
(dp634
g619
I0
sg620
I0
sg621
I0
sg622
I0
ssg84
(dp635
g619
I0
sg620
I0
sg621
I0
sg622
I14
ssg86
I0
sg362
I1
sg87
I0
sg88
S'Ludalr'
p636
sg90
I6
sg91
I0
sg92
I14
sg93
I126
sg94
S'TO'
p637
sg364
I1
sg96
(dp638
S'A'
p639
I9
sS'ME'
p640
I5
sS'RP2'
p641
I10
sS'E'
p642
I11
sS'TO'
p643
I9
sS'RP1'
p644
I8
sS'JP'
p645
I11
sS'RP_tot'
p646
I11
sS'P'
p647
I12
sS'PA'
p648
I12
sS'M'
p649
I8
sS'R'
p650
I6
sS'TB'
p651
I8
sS'PL'
p652
I10
sS'TA'
p653
I4
ssg208
I0
sg209
I0
sg210
I0
sg211
I0
sg212
F10.517241379310345
sg213
I0
sg214
I0
sg215
I2
sg216
(dp654
S'A'
p655
I9
sS'ME'
p656
I5
sS'RP2'
p657
I10
sS'E'
p658
I11
sS'TO'
p659
I9
sS'RP1'
p660
I8
sS'JP'
p661
I11
sS'RP_tot'
p662
I11
sS'P'
p663
I12
sS'PA'
p664
I12
sS'M'
p665
I8
sS'R'
p666
I6
sS'TB'
p667
I8
sS'PL'
p668
I10
sS'TA'
p669
I4
ssg233
g638
sg234
I0
sg235
g31
sg236
I0
sg237
I1
sg238
I0
sg239
I14
sg240
I7
sg241
I2
sg242
S'S'
p670
sbssg208
I0
sg209
I0
sg210
I0
sg211
I0
sg212
F10.206896551724139
sg213
I0
sg214
I0
sg215
I2
sg216
(dp671
S'A'
p672
I9
sS'ME'
p673
I5
sS'RP2'
p674
I10
sS'E'
p675
I11
sS'P'
p676
I12
sS'RP1'
p677
I8
sS'JP'
p678
I11
sS'RP_tot'
p679
I11
sS'TO'
p680
I9
sS'PA'
p681
I12
sS'M'
p682
I8
sS'R'
p683
I6
sS'TB'
p684
I8
sS'PL'
p685
I10
sS'TA'
p686
I4
ssg233
g593
sg234
I0
sg235
g31
sg236
I0
sg237
I2
sg238
I0
sg239
I14
sg240
I9
sg241
I0
sg242
S'S'
p687
sbsS's11'
p688
(ijoueur
joueur
p689
(dp690
g28
I0
sg32
I2
sg34
I0
sg35
g36
(g37
g38
Ntp691
Rp692
(dp693
g42
I5
sg43
S'**'
p694
sg45
S'seigneur'
p695
sbsg47
(dp696
S'SR'
p697
I0
sS'ST'
p698
I0
sS'CR'
p699
I0
sS'CT'
p700
I1
ssg53
(dp701
g697
I0
sg698
I0
sg699
I0
sg700
I0
ssg56
I1
sg57
I1
sg59
I00
sg60
I0
sg61
I0
sg62
I0
sg63
(S'dummy'
p702
S'DM'
p703
S'DO'
p704
g31
tp705
sg68
I00
sg69
g36
(g37
g38
Ntp706
Rp707
(dp708
g42
I5
sg43
S'**'
p709
sg45
g695
sbsg74
(dp710
g697
I0
sg698
I0
sg699
I0
sg700
I14
ssg80
(dp711
g697
I0
sg698
I0
sg699
I0
sg700
I1
ssg82
(dp712
g697
I0
sg698
I0
sg699
I0
sg700
I0
ssg84
(dp713
g697
I0
sg698
I0
sg699
I0
sg700
I14
ssg86
I0
sg362
I1
sg87
I0
sg88
S'Ludalr (11)'
p714
sg90
I6
sg91
I0
sg92
I14
sg93
I126
sg94
S'TO'
p715
sg364
I1
sg96
(dp716
S'A'
p717
I9
sS'ME'
p718
I5
sS'RP2'
p719
I10
sS'E'
p720
I11
sS'TO'
p721
I9
sS'RP1'
p722
I8
sS'JP'
p723
I11
sS'RP_tot'
p724
I11
sS'P'
p725
I12
sS'PA'
p726
I12
sS'M'
p727
I8
sS'R'
p728
I6
sS'TB'
p729
I8
sS'PL'
p730
I10
sS'TA'
p731
I4
ssg208
I0
sg209
I0
sg210
I0
sg211
I0
sg212
F10.517241379310345
sg213
I0
sg214
I0
sg215
I2
sg216
(dp732
S'A'
p733
I9
sS'ME'
p734
I5
sS'RP2'
p735
I10
sS'E'
p736
I11
sS'TO'
p737
I9
sS'RP1'
p738
I8
sS'JP'
p739
I11
sS'RP_tot'
p740
I11
sS'P'
p741
I12
sS'PA'
p742
I12
sS'M'
p743
I8
sS'R'
p744
I6
sS'TB'
p745
I8
sS'PL'
p746
I10
sS'TA'
p747
I4
ssg233
g716
sg234
I0
sg235
g31
sg236
I0
sg237
I1
sg238
I0
sg239
I14
sg240
I7
sg241
I2
sg242
S'S'
p748
sbssg208
I8
sg209
I1
sg210
I0
sg211
I0
sg212
F9.96551724137931
sg213
I0
sg214
I0
sg215
I2
sg216
(dp749
S'A'
p750
I9
sS'ME'
p751
I5
sS'RP2'
p752
I10
sS'E'
p753
I11
sS'P'
p754
I12
sS'RP1'
p755
I8
sS'JP'
p756
I11
sS'RP_tot'
p757
I11
sS'TO'
p758
I9
sS'PA'
p759
I12
sS'M'
p760
I8
sS'R'
p761
I6
sS'TB'
p762
I8
sS'PL'
p763
I10
sS'TA'
p764
I4
ssg233
(dp765
g545
I8
sg546
I5
sg547
I10
sg548
I11
sg553
I9
sg550
I8
sg551
I11
sg552
I11
sg549
I11
sg554
I11
sg555
I8
sg556
I5
sg557
I9
sg558
I9
sg559
I4
ssg234
I0
sg339
(dp766
sg236
I0
sg235
S'TO 13'
p767
sg237
I3
sg238
I0
sg239
I12
sg240
I11
sg241
I0
sg242
S'S'
p768
sbsS'cap'
p769
(ijoueur
joueur
p770
(dp771
g27
F11.25
sg28
I1
sg29
F11.027777777777779
sg30
g31
sg32
I0
sg33
F125.32236890484117
sg34
I0
sg35
g36
(g37
g38
Ntp772
Rp773
(dp774
g42
I4
sg43
g348
sg45
g349
sbsg47
(dp775
g49
I2
sg50
I16
sg51
I5
sg52
I0
ssg53
(dp776
g49
I0
sg50
I0
sg51
I0
sg52
I0
ssg55
I0
sg56
I0
sg57
I0
sg58
F125.32236890484117
sg59
I00
sg60
I0
sg61
I0
sg62
I0
sg63
(g64
S'N8'
p777
S'TL'
p778
S'CE'
p779
tp780
sg68
I00
sg69
g36
(g37
g38
Ntp781
Rp782
(dp783
g42
I5
sg43
S'**'
p784
sg45
S'seigneur'
p785
sbsg74
(dp786
g76
I0
sg77
I0
sg78
I0
sg79
I11
ssg80
(dp787
g76
I0
sg77
I0
sg78
I0
sg79
I1
ssg82
(dp788
g76
I0
sg77
I0
sg78
I0
sg79
I0
ssg84
(dp789
g49
I5
sg50
I18
sg51
I2
sg52
I6
ssg86
I0
sg87
I0
sg88
S'Lyeth'
p790
sg90
I2
sg91
I0
sg92
I12
sg93
I130
sg94
g95
sg96
(dp791
g98
I8
sg99
I10
sg100
I9
sg101
I12
sg102
I12
sg103
I11
sg104
I7
sg105
I12
sg106
I10
sg107
I12
sg108
I7
sg109
I9
sg110
I8
sg111
I8
sg112
I6
ssg113
(dp792
g115
(ijoueur
joueur
p793
(dp794
g27
F11.25
sg28
I1
sg30
g31
sg32
I0
sg34
I0
sg35
g36
(g37
g38
Ntp795
Rp796
(dp797
g42
I4
sg43
g372
sg45
g373
sbsg47
(dp798
g124
I2
sg125
I15
sg126
I5
sg127
I0
ssg53
(dp799
g124
I0
sg125
I0
sg126
I0
sg127
I0
ssg80
(dp800
g130
I2
sg131
I0
sg132
I5
sg133
I3
ssg56
I0
sg57
I0
sg60
I1
sg61
I0
sg62
I0
sg63
(g134
S'N8'
p801
S'TL'
p802
S'CE'
p803
tp804
sg68
I00
sg69
g36
(g37
g38
Ntp805
Rp806
(dp807
g42
I5
sg43
S'**'
p808
sg45
S'seigneur'
p809
sbsg74
(dp810
g130
I5
sg131
I0
sg132
I2
sg133
I5
ssg59
I01
sg82
(dp811
g130
I0
sg131
I0
sg132
I0
sg133
I0
ssg84
(dp812
g124
I5
sg125
I7
sg126
I2
sg127
I6
ssg86
I0
sg87
I0
sg88
S'Lyeth (12)'
p813
sg90
I2
sg91
I0
sg92
I12
sg93
I130
sg94
g146
sg96
(dp814
g148
I10
sg149
I10
sg150
I9
sg151
I12
sg152
I10
sg153
I11
sg154
I8
sg155
I12
sg156
I12
sg157
I12
sg158
I8
sg159
I10
sg160
I8
sg161
I10
sg162
I6
ssg113
(dp815
g164
(ijoueur
joueur
p816
(dp817
g28
I1
sg32
I0
sg34
I0
sg35
g36
(g37
g38
Ntp818
Rp819
(dp820
g42
I4
sg43
S'*'
p821
sg45
S'heros'
p822
sbsg47
(dp823
S'SR'
p824
I0
sS'ST'
p825
I0
sS'CR'
p826
I0
sS'CT'
p827
I12
ssg53
(dp828
g824
I0
sg825
I0
sg826
I0
sg827
I0
ssg56
I0
sg57
I0
sg59
I01
sg60
I1
sg61
I0
sg62
I0
sg63
(S'dummy'
p829
S'N8'
p830
S'TL'
p831
S'CE'
p832
tp833
sg68
I00
sg69
g36
(g37
g38
Ntp834
Rp835
(dp836
g42
I5
sg43
S'**'
p837
sg45
S'seigneur'
p838
sbsg74
(dp839
g824
I0
sg825
I6
sg826
I0
sg827
I2
ssg80
(dp840
g824
I0
sg825
I0
sg826
I0
sg827
I12
ssg82
(dp841
g824
I0
sg825
I0
sg826
I0
sg827
I0
ssg84
(dp842
g824
I0
sg825
I6
sg826
I0
sg827
I2
ssg86
I0
sg87
I0
sg88
S'Lyeth'
p843
sg90
I2
sg91
I0
sg92
I12
sg93
I130
sg94
S'SN'
p844
sg96
(dp845
S'A'
p846
I10
sS'ME'
p847
I11
sS'RP2'
p848
I9
sS'E'
p849
I12
sS'TO'
p850
I12
sS'RP1'
p851
I11
sS'JP'
p852
I7
sS'RP_tot'
p853
I13
sS'P'
p854
I9
sS'PA'
p855
I12
sS'M'
p856
I8
sS'R'
p857
I10
sS'TB'
p858
I7
sS'PL'
p859
I11
sS'TA'
p860
I6
ssg208
I0
sg209
I0
sg210
I0
sg211
I0
sg212
F11.25
sg213
I0
sg214
I0
sg215
I0
sg216
(dp861
S'A'
p862
I10
sS'ME'
p863
I11
sS'RP2'
p864
I9
sS'E'
p865
I12
sS'TO'
p866
I12
sS'RP1'
p867
I11
sS'JP'
p868
I7
sS'RP_tot'
p869
I13
sS'P'
p870
I9
sS'PA'
p871
I12
sS'M'
p872
I8
sS'R'
p873
I10
sS'TB'
p874
I7
sS'PL'
p875
I11
sS'TA'
p876
I6
ssg233
g845
sg234
I1
sg235
g31
sg236
I0
sg237
I0
sg238
I0
sg239
I13
sg240
I26
sg241
I0
sg242
S'EN'
p877
sbssg208
I2
sg209
I0
sg210
I0
sg211
I0
sg212
F11.027777777777779
sg213
I0
sg214
I0
sg215
I0
sg216
(dp878
g245
I10
sg246
I11
sg247
I9
sg248
I12
sg249
I12
sg250
I11
sg251
I7
sg252
I13
sg253
I9
sg254
I12
sg255
I8
sg256
I10
sg257
I7
sg258
I11
sg259
I6
ssg233
g814
sg234
I0
sg235
g31
sg236
I0
sg237
I0
sg238
I0
sg239
I13
sg240
I27
sg241
I0
sg242
S'EN'
p879
sbsg261
(ijoueur
joueur
p880
(dp881
g28
I1
sg32
I0
sg34
I0
sg35
g36
(g37
g38
Ntp882
Rp883
(dp884
g42
I4
sg43
S'*'
p885
sg45
S'heros'
p886
sbsg47
(dp887
S'SR'
p888
I0
sS'ST'
p889
I0
sS'CR'
p890
I0
sS'CT'
p891
I12
ssg53
(dp892
g888
I0
sg889
I0
sg890
I0
sg891
I0
ssg56
I0
sg57
I0
sg59
I01
sg60
I1
sg61
I0
sg62
I0
sg63
(S'dummy'
p893
S'N8'
p894
S'TL'
p895
S'CE'
p896
tp897
sg68
I00
sg69
g36
(g37
g38
Ntp898
Rp899
(dp900
g42
I5
sg43
S'**'
p901
sg45
S'seigneur'
p902
sbsg74
(dp903
g888
I0
sg889
I6
sg890
I0
sg891
I2
ssg80
(dp904
g888
I0
sg889
I0
sg890
I0
sg891
I12
ssg82
(dp905
g888
I0
sg889
I0
sg890
I0
sg891
I0
ssg84
(dp906
g888
I0
sg889
I6
sg890
I0
sg891
I2
ssg86
I0
sg87
I0
sg88
S'Lyeth (11)'
p907
sg90
I2
sg91
I0
sg92
I12
sg93
I130
sg94
S'SN'
p908
sg96
(dp909
S'A'
p910
I10
sS'ME'
p911
I11
sS'RP2'
p912
I9
sS'E'
p913
I12
sS'TO'
p914
I12
sS'RP1'
p915
I11
sS'JP'
p916
I7
sS'RP_tot'
p917
I12
sS'P'
p918
I9
sS'PA'
p919
I12
sS'M'
p920
I8
sS'R'
p921
I10
sS'TB'
p922
I7
sS'PL'
p923
I11
sS'TA'
p924
I6
ssg208
I0
sg209
I0
sg210
I0
sg211
I0
sg212
F11.25
sg213
I0
sg214
I0
sg215
I0
sg216
(dp925
S'A'
p926
I10
sS'ME'
p927
I11
sS'RP2'
p928
I9
sS'E'
p929
I12
sS'TO'
p930
I12
sS'RP1'
p931
I11
sS'JP'
p932
I7
sS'RP_tot'
p933
I13
sS'P'
p934
I9
sS'PA'
p935
I12
sS'M'
p936
I8
sS'R'
p937
I10
sS'TB'
p938
I7
sS'PL'
p939
I11
sS'TA'
p940
I6
ssg233
g909
sg234
I1
sg235
g31
sg236
I0
sg237
I0
sg238
I0
sg239
I13
sg240
I26
sg241
I0
sg242
S'EN'
p941
sbssg208
I8
sg209
I0
sg210
I0
sg211
I0
sg212
F10.63888888888889
sg213
I0
sg214
I0
sg215
I1
sg216
(dp942
g323
I10
sg324
I11
sg325
I9
sg326
I12
sg327
I12
sg328
I11
sg329
I7
sg330
I13
sg331
I9
sg332
I12
sg333
I8
sg334
I10
sg335
I7
sg336
I11
sg337
I6
ssg233
(dp943
g98
I9
sg99
I10
sg100
I9
sg101
I12
sg106
I10
sg103
I11
sg104
I7
sg105
I12
sg102
I12
sg107
I12
sg108
I7
sg109
I10
sg110
I8
sg111
I9
sg112
I6
ssg234
I0
sg339
(dp944
sg236
I0
sg235
g31
sg237
I0
sg238
I0
sg239
I13
sg240
I27
sg241
I1
sg242
S'EN'
p945
sbsS'B4'
p946
(ijoueur
joueur
p947
(dp948
g27
F10.21875
sg28
I0
sg29
F10.09375
sg30
g31
sg32
I13
sg33
F81.5428094259425
sg34
I0
sg35
g36
(g37
g38
Ntp949
Rp950
(dp951
g42
I5
sg43
S'**'
p952
sg45
g785
sbsg47
(dp953
g49
I0
sg50
I5
sg51
I6
sg52
I0
ssg53
(dp954
g49
I3
sg50
I19
sg51
I6
sg52
I0
ssg55
I0
sg56
I0
sg57
I0
sg58
F81.5428094259425
sg59
I00
sg60
I1
sg61
I0
sg62
I6
sg63
(g64
S'C1'
p955
S'DO'
p956
S'DM'
p957
tp958
sg68
I00
sg69
g36
(g37
g38
Ntp959
Rp960
(dp961
g42
I5
sg43
S'**'
p962
sg45
g785
sbsg74
(dp963
g76
I0
sg77
I0
sg78
I0
sg79
I0
ssg80
(dp964
g76
I0
sg77
I0
sg78
I1
sg79
I3
ssg82
(dp965
g76
I0
sg77
I0
sg78
I0
sg79
I4
ssg84
(dp966
g49
I0
sg50
I0
sg51
I1
sg52
I0
ssg86
I19
sg87
I9
sg88
S'Ridk'
p967
sg90
I3
sg91
I6
sg92
I13
sg93
I90
sg94
g95
sg96
(dp968
g98
I10
sg99
I4
sg100
I9
sg101
I10
sg102
I7
sg103
I6
sg104
I9
sg105
I9
sg106
I10
sg107
I13
sg108
I9
sg109
I7
sg110
I11
sg111
I10
sg112
I4
ssg113
(dp969
g115
(ijoueur
joueur
p970
(dp971
g27
F10.21875
sg28
I0
sg30
g31
sg32
I11
sg34
I0
sg35
g36
(g37
g38
Ntp972
Rp973
(dp974
g42
I5
sg43
S'**'
p975
sg45
g809
sbsg47
(dp976
g124
I0
sg125
I2
sg126
I5
sg127
I0
ssg53
(dp977
g124
I3
sg125
I15
sg126
I6
sg127
I0
ssg80
(dp978
g130
I0
sg131
I0
sg132
I5
sg133
I2
ssg56
I0
sg57
I0
sg60
I0
sg61
I1
sg62
I0
sg63
(g134
S'C1'
p979
S'DO'
p980
S'DM'
p981
tp982
sg68
I00
sg69
g36
(g37
g38
Ntp983
Rp984
(dp985
g42
I5
sg43
S'**'
p986
sg45
g809
sbsg74
(dp987
g130
I0
sg131
I0
sg132
I1
sg133
I0
ssg59
I01
sg82
(dp988
g130
I2
sg131
I0
sg132
I6
sg133
I3
ssg84
(dp989
g124
I0
sg125
I0
sg126
I1
sg127
I0
ssg86
I10
sg87
I9
sg88
S'Ridk (12)'
p990
sg90
I3
sg91
I0
sg92
I13
sg93
I90
sg94
g146
sg96
(dp991
g148
I11
sg149
I4
sg150
I9
sg151
I10
sg152
I10
sg153
I6
sg154
I9
sg155
I9
sg156
I7
sg157
I13
sg158
I9
sg159
I7
sg160
I11
sg161
I10
sg162
I4
ssg113
(dp992
g164
(ijoueur
joueur
p993
(dp994
g28
I0
sg32
I11
sg34
I0
sg35
g36
(g37
g38
Ntp995
Rp996
(dp997
g42
I5
sg43
S'**'
p998
sg45
S'seigneur'
p999
sbsg47
(dp1000
S'SR'
p1001
I0
sS'ST'
p1002
I0
sS'CR'
p1003
I0
sS'CT'
p1004
I0
ssg53
(dp1005
g1001
I0
sg1002
I0
sg1003
I0
sg1004
I12
ssg56
I0
sg57
I0
sg59
I01
sg60
I0
sg61
I0
sg62
I0
sg63
(S'dummy'
p1006
S'C1'
p1007
S'DO'
p1008
S'DM'
p1009
tp1010
sg68
I00
sg69
g36
(g37
g38
Ntp1011
Rp1012
(dp1013
g42
I5
sg43
S'**'
p1014
sg45
g999
sbsg74
(dp1015
g1001
I0
sg1002
I0
sg1003
I0
sg1004
I0
ssg80
(dp1016
g1001
I0
sg1002
I0
sg1003
I0
sg1004
I0
ssg82
(dp1017
g1001
I0
sg1002
I0
sg1003
I0
sg1004
I12
ssg84
(dp1018
g1001
I0
sg1002
I0
sg1003
I0
sg1004
I0
ssg86
I1
sg87
I0
sg88
S'Ridk'
p1019
sg90
I3
sg91
I0
sg92
I13
sg93
I90
sg94
S'SN'
p1020
sg96
(dp1021
S'A'
p1022
I11
sS'ME'
p1023
I4
sS'RP2'
p1024
I9
sS'E'
p1025
I10
sS'TO'
p1026
I7
sS'RP1'
p1027
I7
sS'JP'
p1028
I10
sS'RP_tot'
p1029
I9
sS'P'
p1030
I10
sS'PA'
p1031
I13
sS'M'
p1032
I9
sS'R'
p1033
I8
sS'TB'
p1034
I11
sS'PL'
p1035
I10
sS'TA'
p1036
I4
ssg208
I0
sg209
I0
sg210
I0
sg211
I0
sg212
F10.21875
sg213
I0
sg214
I0
sg215
I0
sg216
(dp1037
S'A'
p1038
I11
sS'ME'
p1039
I4
sS'RP2'
p1040
I9
sS'E'
p1041
I10
sS'TO'
p1042
I7
sS'RP1'
p1043
I7
sS'JP'
p1044
I10
sS'RP_tot'
p1045
I9
sS'P'
p1046
I10
sS'PA'
p1047
I13
sS'M'
p1048
I9
sS'R'
p1049
I8
sS'TB'
p1050
I11
sS'PL'
p1051
I10
sS'TA'
p1052
I4
ssg233
g1021
sg234
I0
sg235
g31
sg236
I0
sg237
I0
sg238
I0
sg239
I9
sg240
I17
sg241
I0
sg242
S'S'
p1053
sbssg208
I1
sg209
I0
sg210
I0
sg211
I0
sg212
F10.09375
sg213
I1
sg214
I0
sg215
I0
sg216
(dp1054
g245
I11
sg246
I4
sg247
I9
sg248
I10
sg249
I7
sg250
I7
sg251
I10
sg252
I9
sg253
I10
sg254
I13
sg255
I9
sg256
I8
sg257
I11
sg258
I10
sg259
I4
ssg233
g991
sg234
I0
sg235
g31
sg236
I0
sg237
I0
sg238
I0
sg239
I9
sg240
I17
sg241
I0
sg242
g260
sbsg261
(ijoueur
joueur
p1055
(dp1056
g28
I0
sg32
I11
sg34
I0
sg35
g36
(g37
g38
Ntp1057
Rp1058
(dp1059
g42
I5
sg43
S'**'
p1060
sg45
S'seigneur'
p1061
sbsg47
(dp1062
S'SR'
p1063
I0
sS'ST'
p1064
I0
sS'CR'
p1065
I0
sS'CT'
p1066
I0
ssg53
(dp1067
g1063
I0
sg1064
I0
sg1065
I0
sg1066
I12
ssg56
I0
sg57
I0
sg59
I01
sg60
I0
sg61
I0
sg62
I0
sg63
(S'dummy'
p1068
S'C1'
p1069
S'DO'
p1070
S'DM'
p1071
tp1072
sg68
I00
sg69
g36
(g37
g38
Ntp1073
Rp1074
(dp1075
g42
I5
sg43
S'**'
p1076
sg45
g1061
sbsg74
(dp1077
g1063
I0
sg1064
I0
sg1065
I0
sg1066
I0
ssg80
(dp1078
g1063
I0
sg1064
I0
sg1065
I0
sg1066
I0
ssg82
(dp1079
g1063
I0
sg1064
I0
sg1065
I0
sg1066
I12
ssg84
(dp1080
g1063
I0
sg1064
I0
sg1065
I0
sg1066
I0
ssg86
I1
sg87
I0
sg88
S'Ridk (11)'
p1081
sg90
I3
sg91
I0
sg92
I13
sg93
I90
sg94
S'SN'
p1082
sg96
(dp1083
S'A'
p1084
I11
sS'ME'
p1085
I4
sS'RP2'
p1086
I9
sS'E'
p1087
I10
sS'TO'
p1088
I7
sS'RP1'
p1089
I7
sS'JP'
p1090
I10
sS'RP_tot'
p1091
I9
sS'P'
p1092
I10
sS'PA'
p1093
I13
sS'M'
p1094
I9
sS'R'
p1095
I8
sS'TB'
p1096
I11
sS'PL'
p1097
I10
sS'TA'
p1098
I4
ssg208
I0
sg209
I0
sg210
I0
sg211
I0
sg212
F10.21875
sg213
I0
sg214
I0
sg215
I0
sg216
(dp1099
S'A'
p1100
I11
sS'ME'
p1101
I4
sS'RP2'
p1102
I9
sS'E'
p1103
I10
sS'TO'
p1104
I7
sS'RP1'
p1105
I7
sS'JP'
p1106
I10
sS'RP_tot'
p1107
I9
sS'P'
p1108
I10
sS'PA'
p1109
I13
sS'M'
p1110
I9
sS'R'
p1111
I8
sS'TB'
p1112
I11
sS'PL'
p1113
I10
sS'TA'
p1114
I4
ssg233
g1083
sg234
I0
sg235
g31
sg236
I0
sg237
I0
sg238
I0
sg239
I9
sg240
I17
sg241
I0
sg242
S'S'
p1115
sbssg208
I0
sg209
I0
sg210
I1
sg211
I0
sg212
F9.96875
sg213
I1
sg214
I1
sg215
I0
sg216
(dp1116
g323
I11
sg324
I4
sg325
I9
sg326
I10
sg327
I7
sg328
I7
sg329
I10
sg330
I9
sg331
I10
sg332
I13
sg333
I9
sg334
I8
sg335
I11
sg336
I10
sg337
I4
ssg233
(dp1117
g98
I10
sg99
I4
sg100
I9
sg101
I10
sg106
I10
sg103
I6
sg104
I9
sg105
I9
sg102
I7
sg107
I13
sg108
I9
sg109
I7
sg110
I11
sg111
I10
sg112
I4
ssg234
I0
sg339
(dp1118
sg236
I0
sg235
g31
sg237
I2
sg238
I0
sg239
I9
sg240
I18
sg241
I0
sg242
g341
sbsS'RJC'
p1119
g518
sS'B1'
p1120
g947
sS'B2'
p1121
g947
sS'B3'
p1122
g947
sS'SA_pcp2'
p1123
(ijoueur
joueur
p1124
(dp1125
g28
I0
sg30
g31
sg32
I0
sg33
F123.89121597692586
sS'poste3'
p1126
g31
sg34
I0
sS'poste1'
p1127
g31
sg35
g36
(g37
g38
Ntp1128
Rp1129
(dp1130
g42
I5
sg43
S'**'
p1131
sg45
S'seigneur'
p1132
sbsg47
(dp1133
S'SR'
p1134
I0
sS'CT'
p1135
I0
sS'CR'
p1136
I0
sS'ST'
p1137
I0
ssg53
(dp1138
g1134
I0
sg1135
I0
sg1136
I0
sg1137
I0
ssg55
I0
sg235
g31
sg57
I0
sg58
F123.89121597692586
sg60
I0
sg61
I0
sg62
I0
sg94
g95
sg69
g36
(g37
g38
Ntp1139
Rp1140
(dp1141
g42
I2
sg43
S'^^'
p1142
sg45
S'special'
p1143
sbsg74
(dp1144
g1134
I0
sg1135
I3
sg1136
I9
sg1137
I0
ssg80
(dp1145
g1134
I0
sg1135
I0
sg1136
I0
sg1137
I0
ssg82
(dp1146
g1134
I0
sg1135
I0
sg1136
I0
sg1137
I0
ssg84
(dp1147
g1134
I0
sg1135
I3
sg1136
I9
sg1137
I0
ssg86
I0
sg87
I0
sg88
S'Smarlaoth'
p1148
sg90
I13
sg91
I0
sg92
I23
sg93
I50
sg63
(S'dummy'
p1149
S'DL'
p1150
g31
g31
tp1151
sS'poste2'
p1152
g31
sg96
(dp1153
S'RP1'
p1154
I8
sS'ME'
p1155
I8
sS'RP2'
p1156
I6
sS'E'
p1157
I10
sS'TO'
p1158
I12
sS'M'
p1159
I9
sS'JP'
p1160
I4
sS'RP_tot'
p1161
I8
sS'P'
p1162
I5
sS'PA'
p1163
I9
sS'A'
p1164
I11
sS'R'
p1165
I9
sS'TB'
p1166
I4
sS'PL'
p1167
I9
sS'TA'
p1168
I3
ssg113
(dp1169
sg208
I2
sg209
I0
sg210
I0
sg211
I0
sg212
F9.617647058823529
sg213
I0
sg214
I0
sg215
I0
sg233
(dp1170
g1154
I8
sg1155
I8
sg1156
I6
sg1157
I10
sg1162
I5
sg1160
I4
sg1159
I9
sg1161
I8
sg1158
I12
sg1163
I9
sg1164
I11
sg1165
I9
sg1166
I4
sg1167
I9
sg1168
I3
ssg234
I0
sg236
I0
sg237
I0
sg238
I0
sg239
I5
sg240
I0
sg241
I0
sg242
S'EN'
p1171
sbsS'SA_pcp1'
p1172
g770
sS'drop3'
p1173
(ijoueur
joueur
p1174
(dp1175
g27
F10.9
sg28
I0
sg29
F10.4
sg30
g31
sg32
I4
sg33
F93.47233668751645
sg1126
g31
sg34
I0
sg1127
g31
sg35
g36
(g37
g38
Ntp1176
Rp1177
(dp1178
g42
I4
sg43
S'x'
p1179
sg45
S'heros'
p1180
sbsg47
(dp1181
S'SR'
p1182
I0
sS'CT'
p1183
I0
sS'CR'
p1184
I0
sS'ST'
p1185
I0
ssg53
(dp1186
g1182
I0
sg1183
I0
sg1184
I0
sg1185
I0
ssg55
I0
sg235
S'vide 12'
p1187
sg57
I1
sg58
F93.47233668751645
sg59
I00
sg60
I0
sg61
I0
sg62
I0
sg94
g95
sg68
I00
sg69
g1177
sg74
(dp1188
g76
I0
sg77
I0
sg78
I1
sg79
I8
ssg80
(dp1189
g76
I0
sg77
I0
sg78
I0
sg79
I0
ssg82
(dp1190
g76
I0
sg77
I0
sg78
I0
sg79
I0
ssg84
(dp1191
g1182
I0
sg1183
I15
sg1184
I9
sg1185
I10
ssg86
I6
sg87
I0
sg88
S'Ilirh'
p1192
sg90
I2
sg91
I1
sg92
I15
sg93
I354
sg63
(S'dummy'
p1193
S'C1'
p1194
g31
g31
tp1195
sg1152
g31
sg96
(dp1196
S'RP1'
p1197
I9
sS'ME'
p1198
I4
sS'RP2'
p1199
I10
sS'E'
p1200
I11
sS'TO'
p1201
I7
sS'M'
p1202
I10
sS'JP'
p1203
I10
sS'RP_tot'
p1204
I11
sS'P'
p1205
I10
sS'PA'
p1206
I12
sS'A'
p1207
I12
sS'R'
p1208
I8
sS'TB'
p1209
I10
sS'PL'
p1210
I10
sS'TA'
p1211
I4
ssg113
(dp1212
g115
(ijoueur
joueur
p1213
(dp1214
g27
F10.9
sg28
I0
sg30
g31
sg32
I3
sg1126
g31
sg34
I0
sg1127
g31
sg35
g36
(g37
g38
Ntp1215
Rp1216
(dp1217
g42
I4
sg43
S'x'
p1218
sg45
S'heros'
p1219
sbsg47
(dp1220
S'SR'
p1221
I0
sS'CT'
p1222
I0
sS'CR'
p1223
I0
sS'ST'
p1224
I0
ssg53
(dp1225
g1221
I0
sg1222
I0
sg1223
I0
sg1224
I0
ssg80
(dp1226
g130
I0
sg131
I0
sg132
I0
sg133
I0
ssg235
S'vide 12'
p1227
sg57
I1
sg60
I0
sg61
I0
sg62
I1
sg94
g146
sg68
I00
sg69
g1216
sg74
(dp1228
g130
I0
sg131
I7
sg132
I8
sg133
I7
ssg59
I00
sg82
(dp1229
g130
I0
sg131
I0
sg132
I0
sg133
I0
ssg84
(dp1230
g1221
I0
sg1222
I7
sg1223
I8
sg1224
I10
ssg86
I6
sg87
I6
sg88
S'Ilirh (12)'
p1231
sg90
I2
sg91
I1
sg92
I15
sg93
I354
sg63
(S'dummy'
p1232
S'C1'
p1233
g31
g31
tp1234
sg1152
g31
sg96
(dp1235
S'RP1'
p1236
I9
sS'ME'
p1237
I4
sS'RP2'
p1238
I9
sS'E'
p1239
I11
sS'P'
p1240
I10
sS'JP'
p1241
I10
sS'M'
p1242
I10
sS'RP_tot'
p1243
I11
sS'TO'
p1244
I7
sS'PA'
p1245
I10
sS'A'
p1246
I12
sS'R'
p1247
I8
sS'TB'
p1248
I10
sS'PL'
p1249
I10
sS'TA'
p1250
I4
ssg113
(dp1251
g164
(ijoueur
joueur
p1252
(dp1253
g28
I0
sg32
I1
sg1126
g31
sg34
I0
sg1127
g31
sg35
g36
(g37
g38
Ntp1254
Rp1255
(dp1256
g42
I4
sg43
S'x'
p1257
sg45
S'heros'
p1258
sbsg47
(dp1259
S'SR'
p1260
I0
sS'ST'
p1261
I0
sS'CR'
p1262
I0
sS'CT'
p1263
I0
ssg53
(dp1264
g1260
I0
sg1261
I0
sg1262
I0
sg1263
I0
ssg235
g31
sg57
I0
sg59
I00
sg60
I0
sg61
I0
sg62
I0
sg94
S'vide'
p1265
sg68
I01
sg69
g1255
sg74
(dp1266
g1260
I0
sg1261
I3
sg1262
I0
sg1263
I0
ssg80
(dp1267
g1260
I0
sg1261
I0
sg1262
I0
sg1263
I0
ssg82
(dp1268
g1260
I0
sg1261
I0
sg1262
I0
sg1263
I0
ssg84
(dp1269
g1260
I0
sg1261
I3
sg1262
I0
sg1263
I0
ssg86
I0
sg87
I0
sg88
S'Ilirh'
p1270
sg90
I2
sg91
I0
sg92
I15
sg93
I199
sg63
(S'dummy'
p1271
S'C1'
p1272
g31
g31
tp1273
sg1152
g31
sg96
(dp1274
S'RP1'
p1275
I9
sS'ME'
p1276
I4
sS'RP2'
p1277
I9
sS'E'
p1278
I11
sS'TO'
p1279
I7
sS'M'
p1280
I10
sS'JP'
p1281
I10
sS'RP_tot'
p1282
I11
sS'P'
p1283
I11
sS'PA'
p1284
I11
sS'A'
p1285
I13
sS'R'
p1286
I8
sS'TB'
p1287
I10
sS'PL'
p1288
I11
sS'TA'
p1289
I4
ssg208
I0
sg209
I0
sg210
I0
sg211
I0
sg212
F10.9
sg213
I0
sg214
I0
sg215
I0
sg216
(dp1290
S'RP1'
p1291
I9
sS'ME'
p1292
I4
sS'RP2'
p1293
I9
sS'E'
p1294
I11
sS'TO'
p1295
I7
sS'M'
p1296
I10
sS'JP'
p1297
I10
sS'RP_tot'
p1298
I11
sS'P'
p1299
I11
sS'PA'
p1300
I11
sS'A'
p1301
I13
sS'R'
p1302
I8
sS'TB'
p1303
I10
sS'PL'
p1304
I11
sS'TA'
p1305
I4
ssg233
g1274
sg234
I0
sg236
I0
sg237
I1
sg238
I0
sg239
I19
sg240
I0
sg241
I0
sg242
S'ARA'
p1306
sbssg208
I3
sg209
I1
sg210
I0
sg211
I0
sg212
F10.4
sg213
I0
sg214
I0
sg215
I0
sg216
(dp1307
S'RP1'
p1308
I9
sS'ME'
p1309
I4
sS'RP2'
p1310
I9
sS'E'
p1311
I11
sS'P'
p1312
I11
sS'JP'
p1313
I10
sS'M'
p1314
I10
sS'RP_tot'
p1315
I11
sS'TO'
p1316
I7
sS'PA'
p1317
I11
sS'A'
p1318
I13
sS'R'
p1319
I8
sS'TB'
p1320
I10
sS'PL'
p1321
I11
sS'TA'
p1322
I4
ssg233
g1235
sg234
I0
sg236
I0
sg237
I2
sg238
I0
sg239
I15
sg240
I0
sg241
I0
sg242
S'ARA'
p1323
sbsg261
(ijoueur
joueur
p1324
(dp1325
g28
I0
sg32
I1
sg1126
g31
sg34
I0
sg1127
g31
sg35
g36
(g37
g38
Ntp1326
Rp1327
(dp1328
g42
I4
sg43
S'x'
p1329
sg45
S'heros'
p1330
sbsg47
(dp1331
S'SR'
p1332
I0
sS'ST'
p1333
I0
sS'CR'
p1334
I0
sS'CT'
p1335
I0
ssg53
(dp1336
g1332
I0
sg1333
I0
sg1334
I0
sg1335
I0
ssg235
g31
sg57
I0
sg59
I00
sg60
I0
sg61
I0
sg62
I0
sg94
S'vide'
p1337
sg68
I01
sg69
g1327
sg74
(dp1338
g1332
I0
sg1333
I3
sg1334
I0
sg1335
I0
ssg80
(dp1339
g1332
I0
sg1333
I0
sg1334
I0
sg1335
I0
ssg82
(dp1340
g1332
I0
sg1333
I0
sg1334
I0
sg1335
I0
ssg84
(dp1341
g1332
I0
sg1333
I3
sg1334
I0
sg1335
I0
ssg86
I0
sg87
I0
sg88
S'Ilirh (11)'
p1342
sg90
I2
sg91
I0
sg92
I15
sg93
I199
sg63
(S'dummy'
p1343
S'C1'
p1344
g31
g31
tp1345
sg1152
g31
sg96
(dp1346
S'RP1'
p1347
I9
sS'ME'
p1348
I4
sS'RP2'
p1349
I9
sS'E'
p1350
I11
sS'TO'
p1351
I7
sS'M'
p1352
I10
sS'JP'
p1353
I10
sS'RP_tot'
p1354
I11
sS'P'
p1355
I11
sS'PA'
p1356
I11
sS'A'
p1357
I13
sS'R'
p1358
I8
sS'TB'
p1359
I10
sS'PL'
p1360
I11
sS'TA'
p1361
I4
ssg208
I0
sg209
I0
sg210
I0
sg211
I0
sg212
F10.9
sg213
I0
sg214
I0
sg215
I0
sg216
(dp1362
S'RP1'
p1363
I9
sS'ME'
p1364
I4
sS'RP2'
p1365
I9
sS'E'
p1366
I11
sS'TO'
p1367
I7
sS'M'
p1368
I10
sS'JP'
p1369
I10
sS'RP_tot'
p1370
I11
sS'P'
p1371
I11
sS'PA'
p1372
I11
sS'A'
p1373
I13
sS'R'
p1374
I8
sS'TB'
p1375
I10
sS'PL'
p1376
I11
sS'TA'
p1377
I4
ssg233
g1346
sg234
I0
sg236
I0
sg237
I1
sg238
I0
sg239
I19
sg240
I0
sg241
I0
sg242
S'ARA'
p1378
sbssg208
I2
sg209
I2
sg210
I1
sg211
I0
sg212
F10.666666666666666
sg213
I0
sg214
I1
sg215
I0
sg216
(dp1379
S'RP1'
p1380
I9
sS'ME'
p1381
I4
sS'RP2'
p1382
I9
sS'E'
p1383
I11
sS'P'
p1384
I11
sS'JP'
p1385
I10
sS'M'
p1386
I10
sS'RP_tot'
p1387
I11
sS'TO'
p1388
I7
sS'PA'
p1389
I11
sS'A'
p1390
I13
sS'R'
p1391
I8
sS'TB'
p1392
I10
sS'PL'
p1393
I11
sS'TA'
p1394
I4
ssg233
(dp1395
g1197
I9
sg1198
I4
sg1199
I10
sg1200
I11
sg1205
I10
sg1203
I10
sg1202
I10
sg1204
I11
sg1201
I7
sg1206
I12
sg1207
I12
sg1208
I8
sg1209
I10
sg1210
I10
sg1211
I4
ssg234
I0
sg339
(dp1396
sg236
I0
sg237
I1
sg238
I0
sg239
I15
sg240
I0
sg241
I0
sg242
S'ARA'
p1397
sbsS'SA_remp1'
p1398
(ijoueur
joueur
p1399
(dp1400
g28
I0
sg29
F8.735294117647058
sg30
g31
sg32
I0
sg33
F58.91997633431279
sg1126
g31
sg34
I0
sg1127
g31
sg35
g36
(g37
g38
Ntp1401
Rp1402
(dp1403
g42
I4
sg43
S'*'
p1404
sg45
S'heros'
p1405
sbsg47
(dp1406
S'SR'
p1407
I0
sS'ST'
p1408
I0
sS'CR'
p1409
I0
sS'CT'
p1410
I1
ssg53
(dp1411
g1407
I0
sg1408
I0
sg1409
I0
sg1410
I0
ssg55
I0
sg235
g31
sg57
I0
sg58
F58.91997633431279
sg59
I00
sg60
I0
sg61
I0
sg62
I0
sg94
g95
sg68
I00
sg69
g36
(g37
g38
Ntp1412
Rp1413
(dp1414
g42
I2
sg43
S'^^'
p1415
sg45
S'special'
p1416
sbsg74
(dp1417
g76
I0
sg77
I0
sg78
I2
sg79
I3
ssg80
(dp1418
g76
I0
sg77
I0
sg78
I0
sg79
I1
ssg82
(dp1419
g76
I0
sg77
I0
sg78
I0
sg79
I0
ssg84
(dp1420
g1407
I0
sg1408
I0
sg1409
I4
sg1410
I3
ssg86
I0
sg87
I0
sg88
S'Nahor'
p1421
sg90
I12
sg91
I0
sg92
I25
sg93
I30
sg63
(S'dummy'
p1422
S'DL'
p1423
S'PI'
p1424
S'TL'
p1425
tp1426
sg1152
g31
sg96
(dp1427
S'RP1'
p1428
I9
sS'ME'
p1429
I10
sS'RP2'
p1430
I8
sS'E'
p1431
I8
sS'P'
p1432
I4
sS'JP'
p1433
I4
sS'M'
p1434
I9
sS'RP_tot'
p1435
I10
sS'TO'
p1436
I10
sS'PA'
p1437
I9
sS'A'
p1438
I10
sS'R'
p1439
I8
sS'TB'
p1440
I4
sS'PL'
p1441
I10
sS'TA'
p1442
I1
ssg113
(dp1443
g115
(ijoueur
joueur
p1444
(dp1445
g28
I0
sg30
g31
sg32
I0
sg1126
g31
sg34
I0
sg1127
g31
sg35
g36
(g37
g38
Ntp1446
Rp1447
(dp1448
g42
I4
sg43
S'*'
p1449
sg45
S'heros'
p1450
sbsg47
(dp1451
S'SR'
p1452
I0
sS'ST'
p1453
I0
sS'CR'
p1454
I0
sS'CT'
p1455
I0
ssg53
(dp1456
g1452
I0
sg1453
I0
sg1454
I0
sg1455
I0
ssg80
(dp1457
g1452
I0
sg1453
I0
sg1454
I0
sg1455
I0
ssg235
g31
sg57
I0
sg60
I0
sg61
I0
sg62
I0
sg94
g146
sg68
I00
sg69
g36
(g37
g38
Ntp1458
Rp1459
(dp1460
g42
I1
sg43
S'^'
p1461
sg45
S'base'
p1462
sbsg74
(dp1463
g1452
I0
sg1453
I0
sg1454
I2
sg1455
I0
ssg59
I01
sg82
(dp1464
g1452
I0
sg1453
I0
sg1454
I0
sg1455
I0
ssg84
(dp1465
g1452
I0
sg1453
I0
sg1454
I2
sg1455
I0
ssg86
I0
sg87
I0
sg88
S'Nahor (12)'
p1466
sg90
I12
sg91
I0
sg92
I25
sg93
I9
sg63
(S'dummy'
p1467
S'DL'
p1468
S'PI'
p1469
S'TL'
p1470
tp1471
sg1152
g31
sg96
(dp1472
S'RP1'
p1473
I8
sS'ME'
p1474
I10
sS'RP2'
p1475
I8
sS'E'
p1476
I8
sS'TO'
p1477
I9
sS'M'
p1478
I8
sS'JP'
p1479
I4
sS'RP_tot'
p1480
I10
sS'P'
p1481
I4
sS'PA'
p1482
I8
sS'A'
p1483
I9
sS'R'
p1484
I8
sS'TB'
p1485
I4
sS'PL'
p1486
I9
sS'TA'
p1487
I1
ssg113
(dp1488
sg208
I0
sg209
I0
sg210
I0
sg211
I0
sg212
F8.735294117647058
sg213
I0
sg214
I0
sg215
I0
sg233
g1472
sg234
I0
sg236
I0
sg237
I0
sg238
I0
sg239
I0
sg240
I0
sg241
I0
sg242
S'EN'
p1489
sbssg208
I0
sg209
I0
sg210
I0
sg211
I0
sg212
F9.294117647058824
sg213
I0
sg214
I0
sg215
I1
sg233
(dp1490
g1428
I9
sg1429
I10
sg1430
I8
sg1431
I8
sg1436
I10
sg1434
I9
sg1433
I4
sg1435
I10
sg1432
I4
sg1437
I9
sg1438
I10
sg1439
I8
sg1440
I4
sg1441
I10
sg1442
I1
ssg234
I0
sg339
(dp1491
sg236
I0
sg237
I0
sg238
I0
sg239
I2
sg240
I0
sg241
I1
sg242
S'EN'
p1492
sbsS'drop2'
p1493
g1174
sS'SA_remp2'
p1494
(ijoueur
joueur
p1495
(dp1496
g27
F9.764705882352942
sg28
I0
sg29
F9.205882352941176
sg30
g31
sg32
I0
sg33
F38.52482011023106
sg34
I0
sg35
g36
(g37
g38
Ntp1497
Rp1498
(dp1499
g42
I5
sg43
S'**'
p1500
sg45
g785
sbsg47
(dp1501
g49
I0
sg50
I1
sg51
I0
sg52
I1
ssg53
(dp1502
g49
I0
sg50
I0
sg51
I0
sg52
I0
ssg55
I0
sg56
I0
sg57
I0
sg58
F38.52482011023106
sg59
I00
sg60
I1
sg61
I0
sg62
I0
sg63
(g64
S'DL'
p1503
S'TL'
p1504
g31
tp1505
sg68
I00
sg69
g36
(g37
g38
Ntp1506
Rp1507
(dp1508
g42
I5
sg43
S'**'
p1509
sg45
g785
sbsg74
(dp1510
g76
I0
sg77
I0
sg78
I3
sg79
I0
ssg80
(dp1511
g76
I0
sg77
I0
sg78
I0
sg79
I1
ssg82
(dp1512
g76
I0
sg77
I0
sg78
I0
sg79
I0
ssg84
(dp1513
g49
I0
sg50
I9
sg51
I23
sg52
I0
ssg86
I0
sg87
I0
sg88
S'Le Daho'
p1514
sg90
I3
sg91
I0
sg92
I12
sg93
I254
sg94
g95
sg96
(dp1515
g98
I11
sg99
I9
sg100
I7
sg101
I10
sg102
I10
sg103
I8
sg104
I4
sg105
I9
sg106
I6
sg107
I10
sg108
I8
sg109
I9
sg110
I2
sg111
I7
sg112
I3
ssg113
(dp1516
g115
(ijoueur
joueur
p1517
(dp1518
g27
F9.764705882352942
sg28
I0
sg30
g31
sg32
I0
sg34
I0
sg35
g36
(g37
g38
Ntp1519
Rp1520
(dp1521
g42
I5
sg43
S'**'
p1522
sg45
g809
sbsg47
(dp1523
g124
I0
sg125
I0
sg126
I0
sg127
I1
ssg53
(dp1524
g124
I0
sg125
I0
sg126
I0
sg127
I0
ssg80
(dp1525
g130
I0
sg131
I0
sg132
I0
sg133
I0
ssg56
I0
sg57
I0
sg60
I2
sg61
I0
sg62
I0
sg63
(g134
S'DL'
p1526
S'TL'
p1527
g31
tp1528
sg68
I00
sg69
g36
(g37
g38
Ntp1529
Rp1530
(dp1531
g42
I5
sg43
S'**'
p1532
sg45
g809
sbsg74
(dp1533
g130
I0
sg131
I0
sg132
I12
sg133
I3
ssg59
I00
sg82
(dp1534
g130
I0
sg131
I0
sg132
I0
sg133
I0
ssg84
(dp1535
g124
I0
sg125
I9
sg126
I20
sg127
I0
ssg86
I0
sg87
I0
sg88
S'Le Daho (12)'
p1536
sg90
I3
sg91
I0
sg92
I12
sg93
I254
sg94
g146
sg96
(dp1537
g148
I11
sg149
I10
sg150
I7
sg151
I10
sg152
I6
sg153
I8
sg154
I4
sg155
I9
sg156
I10
sg157
I10
sg158
I8
sg159
I9
sg160
I2
sg161
I7
sg162
I3
ssg113
(dp1538
g164
(ijoueur
joueur
p1539
(dp1540
g28
I0
sg32
I0
sg34
I0
sg35
g36
(g37
g38
Ntp1541
Rp1542
(dp1543
g42
I5
sg43
S'**'
p1544
sg45
S'seigneur'
p1545
sbsg47
(dp1546
S'SR'
p1547
I0
sS'ST'
p1548
I1
sS'CR'
p1549
I0
sS'CT'
p1550
I0
ssg53
(dp1551
g1547
I0
sg1548
I0
sg1549
I0
sg1550
I0
ssg56
I0
sg57
I0
sg59
I00
sg60
I0
sg61
I0
sg62
I0
sg63
(S'dummy'
p1552
S'DL'
p1553
S'TL'
p1554
g31
tp1555
sg68
I00
sg69
g36
(g37
g38
Ntp1556
Rp1557
(dp1558
g42
I5
sg43
S'**'
p1559
sg45
g1545
sbsg74
(dp1560
g1547
I0
sg1548
I0
sg1549
I8
sg1550
I6
ssg80
(dp1561
g1547
I0
sg1548
I1
sg1549
I0
sg1550
I0
ssg82
(dp1562
g1547
I0
sg1548
I0
sg1549
I0
sg1550
I0
ssg84
(dp1563
g1547
I0
sg1548
I0
sg1549
I8
sg1550
I6
ssg86
I0
sg87
I0
sg88
S'Le Daho'
p1564
sg90
I3
sg91
I0
sg92
I12
sg93
I254
sg94
S'SN'
p1565
sg96
(dp1566
S'A'
p1567
I11
sS'ME'
p1568
I10
sS'RP2'
p1569
I7
sS'E'
p1570
I11
sS'TO'
p1571
I11
sS'RP1'
p1572
I8
sS'JP'
p1573
I4
sS'RP_tot'
p1574
I8
sS'P'
p1575
I6
sS'PA'
p1576
I10
sS'M'
p1577
I8
sS'R'
p1578
I9
sS'TB'
p1579
I2
sS'PL'
p1580
I9
sS'TA'
p1581
I3
ssg208
I0
sg209
I0
sg210
I0
sg211
I0
sg212
F9.764705882352942
sg213
I0
sg214
I0
sg215
I1
sg216
(dp1582
S'A'
p1583
I11
sS'ME'
p1584
I10
sS'RP2'
p1585
I7
sS'E'
p1586
I11
sS'TO'
p1587
I11
sS'RP1'
p1588
I8
sS'JP'
p1589
I4
sS'RP_tot'
p1590
I8
sS'P'
p1591
I6
sS'PA'
p1592
I10
sS'M'
p1593
I8
sS'R'
p1594
I9
sS'TB'
p1595
I2
sS'PL'
p1596
I9
sS'TA'
p1597
I3
ssg233
g1566
sg234
I0
sg235
S'KHR 8'
p1598
sg236
I0
sg237
I0
sg238
I0
sg239
I24
sg240
I10
sg241
I1
sg242
S'B'
p1599
sbssg208
I2
sg209
I0
sg210
I0
sg211
I0
sg212
F9.205882352941176
sg213
I0
sg214
I0
sg215
I1
sg216
(dp1600
g245
I11
sg246
I10
sg247
I7
sg248
I11
sg249
I11
sg250
I8
sg251
I4
sg252
I8
sg253
I6
sg254
I10
sg255
I8
sg256
I9
sg257
I2
sg258
I9
sg259
I3
ssg233
g1537
sg234
I0
sg235
S'KHR 8'
p1601
sg236
I0
sg237
I0
sg238
I0
sg239
I24
sg240
I12
sg241
I0
sg242
S'B'
p1602
sbsg261
(ijoueur
joueur
p1603
(dp1604
g28
I0
sg32
I0
sg34
I0
sg35
g36
(g37
g38
Ntp1605
Rp1606
(dp1607
g42
I5
sg43
S'**'
p1608
sg45
S'seigneur'
p1609
sbsg47
(dp1610
S'SR'
p1611
I0
sS'ST'
p1612
I1
sS'CR'
p1613
I0
sS'CT'
p1614
I0
ssg53
(dp1615
g1611
I0
sg1612
I0
sg1613
I0
sg1614
I0
ssg56
I0
sg57
I0
sg59
I00
sg60
I0
sg61
I0
sg62
I0
sg63
(S'dummy'
p1616
S'DL'
p1617
S'TL'
p1618
g31
tp1619
sg68
I00
sg69
g36
(g37
g38
Ntp1620
Rp1621
(dp1622
g42
I5
sg43
S'**'
p1623
sg45
g1609
sbsg74
(dp1624
g1611
I0
sg1612
I0
sg1613
I8
sg1614
I6
ssg80
(dp1625
g1611
I0
sg1612
I1
sg1613
I0
sg1614
I0
ssg82
(dp1626
g1611
I0
sg1612
I0
sg1613
I0
sg1614
I0
ssg84
(dp1627
g1611
I0
sg1612
I0
sg1613
I8
sg1614
I6
ssg86
I0
sg87
I0
sg88
S'Le Daho (11)'
p1628
sg90
I3
sg91
I0
sg92
I12
sg93
I254
sg94
S'SN'
p1629
sg96
(dp1630
S'A'
p1631
I11
sS'ME'
p1632
I10
sS'RP2'
p1633
I7
sS'E'
p1634
I11
sS'TO'
p1635
I11
sS'RP1'
p1636
I8
sS'JP'
p1637
I4
sS'RP_tot'
p1638
I9
sS'P'
p1639
I6
sS'PA'
p1640
I10
sS'M'
p1641
I8
sS'R'
p1642
I9
sS'TB'
p1643
I2
sS'PL'
p1644
I9
sS'TA'
p1645
I3
ssg208
I0
sg209
I0
sg210
I0
sg211
I0
sg212
F9.764705882352942
sg213
I0
sg214
I0
sg215
I1
sg216
(dp1646
S'A'
p1647
I11
sS'ME'
p1648
I10
sS'RP2'
p1649
I7
sS'E'
p1650
I11
sS'TO'
p1651
I11
sS'RP1'
p1652
I8
sS'JP'
p1653
I4
sS'RP_tot'
p1654
I8
sS'P'
p1655
I6
sS'PA'
p1656
I10
sS'M'
p1657
I8
sS'R'
p1658
I9
sS'TB'
p1659
I2
sS'PL'
p1660
I9
sS'TA'
p1661
I3
ssg233
g1630
sg234
I0
sg235
S'KHR 8'
p1662
sg236
I0
sg237
I0
sg238
I0
sg239
I24
sg240
I10
sg241
I1
sg242
S'B'
p1663
sbssg208
I0
sg209
I0
sg210
I0
sg211
I0
sg212
F9.205882352941176
sg213
I0
sg214
I0
sg215
I1
sg216
(dp1664
g323
I11
sg324
I10
sg325
I7
sg326
I11
sg327
I11
sg328
I8
sg329
I4
sg330
I8
sg331
I6
sg332
I10
sg333
I8
sg334
I9
sg335
I2
sg336
I9
sg337
I3
ssg233
(dp1665
g98
I11
sg99
I9
sg100
I7
sg101
I10
sg106
I6
sg103
I8
sg104
I4
sg105
I9
sg102
I10
sg107
I10
sg108
I8
sg109
I9
sg110
I2
sg111
I7
sg112
I3
ssg234
I0
sg339
(dp1666
sg236
I0
sg235
S'KHR 8'
p1667
sg237
I0
sg238
I0
sg239
I24
sg240
I13
sg241
I0
sg242
S'B'
p1668
sbssg88
csip
_unpickle_type
p1669
(S'PyQt4.QtCore'
p1670
S'QString'
p1671
(VSN_APA
p1672
tp1673
tp1674
Rp1675
sS'totaux'
p1676
(dp1677
g19
I0
sg20
I0
sg21
I0
ssS'_compo_defaut_fatigue'
p1678
Nsg96
(dp1679
g4
I0
sg5
I0
sg6
I0
sg7
I0
sg8
I0
sg9
I0
sg10
I0
sg11
I0
sg12
I0
sg13
I0
sg14
I0
sg15
I0
sg16
I0
ssS'joueurs'
p1680
(dp1681
S'n12'
p1682
g25
sS'n13'
p1683
g1174
sS'n10'
p1684
g518
sS'n11'
p1685
(ijoueur
joueur
p1686
(dp1687
g27
F12.0
sg28
I0
sg29
F11.606060606060606
sg30
g31
sg32
I3
sg33
F114.96326131440068
sg34
I0
sg35
g36
(g37
g38
Ntp1688
Rp1689
(dp1690
g42
I6
sg43
S'***'
p1691
sg45
S'personnage'
p1692
sbsg47
(dp1693
S'SR'
p1694
I1
sS'ST'
p1695
I0
sS'CR'
p1696
I0
sS'CT'
p1697
I0
ssg53
(dp1698
g1694
I1
sg1695
I0
sg1696
I0
sg1697
I24
ssg55
I0
sg56
I0
sg212
F11.303030303030303
sg57
I0
sg58
F114.96326131440068
sg60
I3
sg61
I0
sg62
I0
sg63
(S'dummy'
p1699
S'AR'
p1700
S'CE'
p1701
S'AI'
p1702
tp1703
sg68
I00
sg69
g36
(g37
g38
Ntp1704
Rp1705
(dp1706
g42
I6
sg43
S'***'
p1707
sg45
g1692
sbsg74
(dp1708
S'SR'
p1709
I0
sS'CT'
p1710
I0
sS'CR'
p1711
I0
sS'ST'
p1712
I0
ssg59
I00
sg82
(dp1713
g1709
I0
sg1710
I11
sg1711
I0
sg1712
I0
ssg84
(dp1714
g1694
I4
sg1695
I8
sg1696
I1
sg1697
I15
ssg86
I0
sg87
I0
sg88
S'Snikch'
p1715
sg90
I7
sg91
I0
sg92
I20
sg93
I576
sg94
S'SN'
p1716
sg96
(dp1717
S'A'
p1718
I11
sS'ME'
p1719
I6
sS'RP2'
p1720
I14
sS'E'
p1721
I8
sS'P'
p1722
I9
sS'RP1'
p1723
I7
sS'JP'
p1724
I9
sS'RP_tot'
p1725
I14
sS'TO'
p1726
I13
sS'PA'
p1727
I12
sS'M'
p1728
I10
sS'R'
p1729
I8
sS'TB'
p1730
I9
sS'PL'
p1731
I12
sS'TA'
p1732
I5
ssg113
(dp1733
S's12'
p1734
(ijoueur
joueur
p1735
(dp1736
g27
F12.0
sg28
I0
sg30
g31
sg32
I3
sg34
I0
sg35
g36
(g37
g38
Ntp1737
Rp1738
(dp1739
g42
I6
sg43
S'***'
p1740
sg45
S'personnage'
p1741
sbsg47
(dp1742
S'SR'
p1743
I1
sS'ST'
p1744
I0
sS'CR'
p1745
I0
sS'CT'
p1746
I0
ssg53
(dp1747
g1743
I1
sg1744
I0
sg1745
I0
sg1746
I13
ssg56
I0
sg57
I0
sg59
I00
sg60
I4
sg61
I0
sg62
I0
sg63
(S'dummy'
p1748
S'AR'
p1749
S'CE'
p1750
S'AI'
p1751
tp1752
sg68
I00
sg69
g36
(g37
g38
Ntp1753
Rp1754
(dp1755
g42
I6
sg43
S'***'
p1756
sg45
g1741
sbsg74
(dp1757
S'SR'
p1758
I3
sS'CT'
p1759
I1
sS'CR'
p1760
I1
sS'ST'
p1761
I1
ssg80
(dp1762
g1758
I1
sg1759
I0
sg1760
I0
sg1761
I0
ssg82
(dp1763
g1758
I0
sg1759
I13
sg1760
I0
sg1761
I0
ssg84
(dp1764
g1743
I4
sg1744
I8
sg1745
I1
sg1746
I15
ssg86
I0
sg87
I0
sg88
S'Snikch'
p1765
sg90
I7
sg91
I0
sg92
I20
sg93
I576
sg94
S'SN'
p1766
sg96
(dp1767
S'A'
p1768
I12
sS'ME'
p1769
I6
sS'RP2'
p1770
I14
sS'E'
p1771
I8
sS'TO'
p1772
I13
sS'RP1'
p1773
I7
sS'JP'
p1774
I9
sS'RP_tot'
p1775
I14
sS'P'
p1776
I9
sS'PA'
p1777
I12
sS'M'
p1778
I11
sS'R'
p1779
I9
sS'TB'
p1780
I9
sS'PL'
p1781
I14
sS'TA'
p1782
I5
ssg113
(dp1783
S's11'
p1784
(ijoueur
joueur
p1785
(dp1786
g28
I0
sg32
I3
sg34
I0
sg35
g36
(g37
g38
Ntp1787
Rp1788
(dp1789
g42
I6
sg43
S'***'
p1790
sg45
S'personnage'
p1791
sbsg47
(dp1792
S'SR'
p1793
I0
sS'CT'
p1794
I0
sS'CR'
p1795
I0
sS'ST'
p1796
I0
ssg53
(dp1797
g1793
I1
sg1794
I0
sg1795
I0
sg1796
I0
ssg56
I0
sg57
I0
sg59
I00
sg60
I1
sg61
I0
sg62
I0
sg63
(S'dummy'
p1798
S'AR'
p1799
S'CE'
p1800
S'AI'
p1801
tp1802
sg68
I00
sg69
g36
(g37
g38
Ntp1803
Rp1804
(dp1805
g42
I6
sg43
S'***'
p1806
sg45
g1791
sbsg74
(dp1807
g1793
I0
sg1794
I14
sg1795
I0
sg1796
I7
ssg80
(dp1808
g1793
I0
sg1794
I0
sg1795
I0
sg1796
I0
ssg82
(dp1809
g1793
I1
sg1794
I0
sg1795
I0
sg1796
I0
ssg84
(dp1810
g1793
I0
sg1794
I14
sg1795
I0
sg1796
I7
ssg86
I0
sg87
I0
sg88
S'Snikch'
p1811
sg90
I7
sg91
I0
sg92
I20
sg93
I576
sg94
S'SN'
p1812
sg96
(dp1813
S'A'
p1814
I13
sS'ME'
p1815
I6
sS'RP2'
p1816
I14
sS'E'
p1817
I8
sS'P'
p1818
I9
sS'RP1'
p1819
I7
sS'JP'
p1820
I9
sS'RP_tot'
p1821
I14
sS'TO'
p1822
I13
sS'PA'
p1823
I13
sS'M'
p1824
I12
sS'R'
p1825
I9
sS'TB'
p1826
I10
sS'PL'
p1827
I14
sS'TA'
p1828
I5
ssg208
I0
sg209
I0
sg210
I0
sg211
I0
sg212
F12.0
sg213
I0
sg214
I0
sg215
I0
sg216
(dp1829
S'A'
p1830
I13
sS'ME'
p1831
I6
sS'RP2'
p1832
I14
sS'E'
p1833
I8
sS'P'
p1834
I9
sS'RP1'
p1835
I7
sS'JP'
p1836
I9
sS'RP_tot'
p1837
I14
sS'TO'
p1838
I13
sS'PA'
p1839
I13
sS'M'
p1840
I12
sS'R'
p1841
I9
sS'TB'
p1842
I10
sS'PL'
p1843
I14
sS'TA'
p1844
I5
ssg233
g1813
sg234
I0
sg235
g31
sg236
I0
sg237
I0
sg238
I0
sg239
I106
sg240
I28
sg241
I0
sg242
S'S'
p1845
sbssg208
I3
sg209
I0
sg210
I0
sg211
I0
sg212
F11.606060606060606
sg213
I0
sg214
I0
sg215
I0
sg216
(dp1846
S'A'
p1847
I13
sS'ME'
p1848
I6
sS'RP2'
p1849
I14
sS'E'
p1850
I8
sS'P'
p1851
I9
sS'RP1'
p1852
I7
sS'JP'
p1853
I9
sS'RP_tot'
p1854
I14
sS'TO'
p1855
I13
sS'PA'
p1856
I13
sS'M'
p1857
I12
sS'R'
p1858
I9
sS'TB'
p1859
I10
sS'PL'
p1860
I14
sS'TA'
p1861
I5
ssg233
g1767
sg234
I0
sg235
g31
sg236
I0
sg237
I0
sg238
I0
sg239
I106
sg240
I32
sg241
I0
sg242
S'S'
p1862
sbsS's11'
p1863
(ijoueur
joueur
p1864
(dp1865
g28
I0
sg32
I3
sg34
I0
sg35
g36
(g37
g38
Ntp1866
Rp1867
(dp1868
g42
I6
sg43
S'***'
p1869
sg45
S'personnage'
p1870
sbsg47
(dp1871
S'SR'
p1872
I0
sS'CT'
p1873
I0
sS'CR'
p1874
I0
sS'ST'
p1875
I0
ssg53
(dp1876
g1872
I1
sg1873
I0
sg1874
I0
sg1875
I0
ssg56
I0
sg57
I0
sg59
I00
sg60
I1
sg61
I0
sg62
I0
sg63
(S'dummy'
p1877
S'AR'
p1878
S'CE'
p1879
S'AI'
p1880
tp1881
sg68
I00
sg69
g36
(g37
g38
Ntp1882
Rp1883
(dp1884
g42
I6
sg43
S'***'
p1885
sg45
g1870
sbsg74
(dp1886
g1872
I0
sg1873
I14
sg1874
I0
sg1875
I7
ssg80
(dp1887
g1872
I0
sg1873
I0
sg1874
I0
sg1875
I0
ssg82
(dp1888
g1872
I1
sg1873
I0
sg1874
I0
sg1875
I0
ssg84
(dp1889
g1872
I0
sg1873
I14
sg1874
I0
sg1875
I7
ssg86
I0
sg87
I0
sg88
S'Snikch'
p1890
sg90
I7
sg91
I0
sg92
I20
sg93
I576
sg94
S'SN'
p1891
sg96
(dp1892
S'A'
p1893
I13
sS'ME'
p1894
I6
sS'RP2'
p1895
I14
sS'E'
p1896
I8
sS'P'
p1897
I9
sS'RP1'
p1898
I7
sS'JP'
p1899
I9
sS'RP_tot'
p1900
I14
sS'TO'
p1901
I13
sS'PA'
p1902
I13
sS'M'
p1903
I12
sS'R'
p1904
I9
sS'TB'
p1905
I10
sS'PL'
p1906
I14
sS'TA'
p1907
I5
ssg208
I0
sg209
I0
sg210
I0
sg211
I0
sg212
F12.0
sg213
I0
sg214
I0
sg215
I0
sg216
(dp1908
S'A'
p1909
I13
sS'ME'
p1910
I6
sS'RP2'
p1911
I14
sS'E'
p1912
I8
sS'P'
p1913
I9
sS'RP1'
p1914
I7
sS'JP'
p1915
I9
sS'RP_tot'
p1916
I14
sS'TO'
p1917
I13
sS'PA'
p1918
I13
sS'M'
p1919
I12
sS'R'
p1920
I9
sS'TB'
p1921
I10
sS'PL'
p1922
I14
sS'TA'
p1923
I5
ssg233
g1892
sg234
I0
sg235
g31
sg236
I0
sg237
I0
sg238
I0
sg239
I106
sg240
I28
sg241
I0
sg242
S'S'
p1924
sbssg208
I11
sg209
I0
sg210
I0
sg211
I0
sg80
(dp1925
g1709
I0
sg1710
I0
sg1711
I0
sg1712
I0
ssg213
I0
sg214
I0
sg215
I1
sg216
(dp1926
S'A'
p1927
I13
sS'ME'
p1928
I6
sS'RP2'
p1929
I14
sS'E'
p1930
I8
sS'P'
p1931
I9
sS'RP1'
p1932
I7
sS'JP'
p1933
I9
sS'RP_tot'
p1934
I14
sS'TO'
p1935
I13
sS'PA'
p1936
I13
sS'M'
p1937
I12
sS'R'
p1938
I9
sS'TB'
p1939
I10
sS'PL'
p1940
I14
sS'TA'
p1941
I5
ssg233
(dp1942
g1718
I12
sg1719
I6
sg1720
I14
sg1721
I8
sg1726
I13
sg1723
I7
sg1724
I9
sg1725
I14
sg1722
I9
sg1727
I12
sg1728
I10
sg1729
I9
sg1730
I9
sg1731
I13
sg1732
I5
ssg234
I0
sg339
(dp1943
sg236
I0
sg235
g31
sg237
I0
sg238
I0
sg239
I106
sg240
I35
sg241
I1
sg242
S'S'
p1944
sbsS'n16'
p1945
(ijoueur
joueur
p1946
(dp1947
g28
I0
sg29
F7.862068965517241
sg30
g31
sg32
I0
sg33
F39.69272731500104
sg1126
g31
sg34
I0
sg1127
g31
sg35
g36
(g37
g38
Ntp1948
Rp1949
(dp1950
g42
I3
sg43
S'^^^'
p1951
sg45
S'rare'
p1952
sbsg47
(dp1953
g1407
I0
sg1408
I0
sg1409
I0
sg1410
I0
ssg53
(dp1954
g1407
I0
sg1408
I0
sg1409
I0
sg1410
I0
ssg55
I0
sg235
g31
sg57
I0
sg58
F39.69272731500104
sg59
I00
sg60
I0
sg61
I0
sg62
I0
sg94
g95
sg68
I00
sg69
g36
(g37
g38
Ntp1955
Rp1956
(dp1957
g42
I2
sg43
S'<<'
p1958
sg45
g1416
sbsg74
(dp1959
g76
I0
sg77
I0
sg78
I3
sg79
I1
ssg80
(dp1960
g76
I0
sg77
I0
sg78
I0
sg79
I0
ssg82
(dp1961
g76
I0
sg77
I0
sg78
I0
sg79
I0
ssg84
(dp1962
g1407
I0
sg1408
I0
sg1409
I3
sg1410
I1
ssg86
I0
sg87
I0
sg88
S'Cenposs'
p1963
sg90
I12
sg91
I0
sg92
I20
sg93
I18
sg63
(g1422
S'TA'
p1964
g31
g31
tp1965
sg1152
g31
sg96
(dp1966
g1428
I8
sg1429
I8
sg1430
I5
sg1431
I11
sg1432
I6
sg1433
I5
sg1434
I11
sg1435
I8
sg1436
I7
sg1437
I8
sg1438
I8
sg1439
I9
sg1440
I4
sg1441
I8
sg1442
I10
ssg113
(dp1967
g115
(ijoueur
joueur
p1968
(dp1969
g28
I0
sg30
g31
sg32
I0
sg1126
g31
sg34
I0
sg1127
g31
sg35
g36
(g37
g38
Ntp1970
Rp1971
(dp1972
g42
I3
sg43
S'^^^'
p1973
sg45
S'rare'
p1974
sbsg47
(dp1975
g1452
I0
sg1453
I0
sg1454
I0
sg1455
I0
ssg53
(dp1976
g1452
I0
sg1453
I0
sg1454
I0
sg1455
I0
ssg80
(dp1977
g1452
I0
sg1453
I0
sg1454
I0
sg1455
I0
ssg235
g31
sg57
I0
sg60
I0
sg61
I0
sg62
I0
sg94
g146
sg68
I00
sg69
g36
(g37
g38
Ntp1978
Rp1979
(dp1980
g42
I1
sg43
g1461
sg45
g1462
sbsg74
(dp1981
g1452
I0
sg1453
I0
sg1454
I0
sg1455
I0
ssg59
I00
sg82
(dp1982
g1452
I0
sg1453
I0
sg1454
I0
sg1455
I0
ssg84
(dp1983
g1452
I0
sg1453
I0
sg1454
I0
sg1455
I0
ssg86
I0
sg87
I0
sg88
S'Cenposs (12)'
p1984
sg90
I12
sg91
I0
sg92
I20
sg93
I9
sg63
(g1467
S'TA'
p1985
g31
g31
tp1986
sg1152
g31
sg96
(dp1987
g1473
I8
sg1474
I7
sg1475
I5
sg1476
I8
sg1477
I6
sg1478
I10
sg1479
I4
sg1480
I8
sg1481
I5
sg1482
I7
sg1483
I7
sg1484
I8
sg1485
I3
sg1486
I7
sg1487
I9
ssg113
(dp1988
sg208
I0
sg209
I0
sg210
I0
sg211
I0
sg212
F7.862068965517241
sg213
I0
sg214
I0
sg215
I0
sg233
g1987
sg234
I0
sg236
I0
sg237
I0
sg238
I0
sg239
I0
sg240
I0
sg241
I0
sg242
S'S'
p1989
sbssg208
I0
sg209
I0
sg210
I0
sg211
I0
sg212
F9.0
sg213
I0
sg214
I0
sg215
I0
sg233
(dp1990
g1428
I8
sg1429
I8
sg1430
I5
sg1431
I11
sg1436
I7
sg1434
I11
sg1433
I5
sg1435
I8
sg1432
I6
sg1437
I8
sg1438
I8
sg1439
I9
sg1440
I4
sg1441
I8
sg1442
I10
ssg234
I0
sg339
(dp1991
sg236
I0
sg237
I0
sg238
I0
sg239
I0
sg240
I0
sg241
I0
sg242
S'S'
p1992
sbsS'n17'
p1993
(ijoueur
joueur
p1994
(dp1995
g27
F9.296296296296296
sg28
I0
sg29
F9.444444444444445
sg30
g31
sg32
I0
sg33
F134.0601459720549
sg34
I0
sg35
g36
(g37
g38
Ntp1996
Rp1997
(dp1998
g42
I2
sg43
S'^^'
p1999
sg45
S'special'
p2000
sbsg47
(dp2001
S'SR'
p2002
I0
sS'ST'
p2003
I0
sS'CR'
p2004
I0
sS'CT'
p2005
I0
ssg53
(dp2006
g2002
I0
sg2003
I0
sg2004
I0
sg2005
I0
ssg55
I0
sg56
I0
sg212
F9.222222222222221
sg57
I0
sS'transformations'
p2007
I0
sS'penalites'
p2008
I0
sg60
I0
sg61
I0
sg62
I0
sg63
(S'dummy'
p2009
S'PI'
p2010
g31
g31
tp2011
sg68
I00
sg69
g36
(g37
g38
Ntp2012
Rp2013
(dp2014
g42
I2
sg43
S'^^'
p2015
sg45
g2000
sbsg74
(dp2016
g1709
I0
sg1710
I2
sg1711
I11
sg1712
I0
ssg59
I00
sg82
(dp2017
g1709
I0
sg1710
I0
sg1711
I0
sg1712
I0
ssg84
(dp2018
g2002
I13
sg2003
I2
sg2004
I18
sg2005
I6
ssg86
I0
sg87
I0
sg88
S'Saolteh'
p2019
sg90
I4
sg91
I0
sg92
I18
sg93
I50
sg94
g1716
sg96
(dp2020
S'A'
p2021
I8
sS'ME'
p2022
I10
sS'RP2'
p2023
I7
sS'E'
p2024
I9
sS'P'
p2025
I5
sS'RP1'
p2026
I10
sS'JP'
p2027
I2
sS'RP_tot'
p2028
I10
sS'TO'
p2029
I6
sS'PA'
p2030
I9
sS'M'
p2031
I8
sS'R'
p2032
I9
sS'TB'
p2033
I4
sS'PL'
p2034
I9
sS'TA'
p2035
I9
ssg113
(dp2036
S's12'
p2037
(ijoueur
joueur
p2038
(dp2039
g27
F9.296296296296296
sg28
I0
sg30
g31
sg32
I0
sg34
I0
sg35
g36
(g37
g38
Ntp2040
Rp2041
(dp2042
g42
I2
sg43
S'^^'
p2043
sg45
S'special'
p2044
sbsg47
(dp2045
S'SR'
p2046
I0
sS'ST'
p2047
I0
sS'CR'
p2048
I0
sS'CT'
p2049
I0
ssg53
(dp2050
g2046
I0
sg2047
I0
sg2048
I0
sg2049
I0
ssg56
I0
sg57
I0
sg2007
I0
sg2008
I0
sg59
I01
sg60
I0
sg61
I0
sg62
I0
sg63
(S'dummy'
p2051
S'PI'
p2052
g31
g31
tp2053
sg68
I01
sg69
g36
(g37
g38
Ntp2054
Rp2055
(dp2056
g42
I2
sg43
S'^^'
p2057
sg45
g2044
sbsg74
(dp2058
S'SR'
p2059
I7
sS'ST'
p2060
I0
sS'CR'
p2061
I5
sS'CT'
p2062
I1
ssg80
(dp2063
g2059
I0
sg2060
I0
sg2061
I0
sg2062
I0
ssg82
(dp2064
g2059
I0
sg2060
I0
sg2061
I0
sg2062
I0
ssg84
(dp2065
g2046
I13
sg2047
I2
sg2048
I7
sg2049
I4
ssg86
I0
sg87
I0
sg88
S'Saolteh'
p2066
sg90
I4
sg91
I0
sg92
I18
sg93
I12
sg94
S'TA'
p2067
sg96
(dp2068
S'A'
p2069
I9
sS'ME'
p2070
I10
sS'RP2'
p2071
I8
sS'E'
p2072
I9
sS'TO'
p2073
I6
sS'RP1'
p2074
I10
sS'JP'
p2075
I2
sS'RP_tot'
p2076
I11
sS'P'
p2077
I5
sS'PA'
p2078
I9
sS'M'
p2079
I8
sS'R'
p2080
I9
sS'TB'
p2081
I4
sS'PL'
p2082
I9
sS'TA'
p2083
I9
ssg113
(dp2084
S's11'
p2085
(ijoueur
joueur
p2086
(dp2087
g28
I0
sg32
I0
sg34
I0
sg35
g36
(g37
g38
Ntp2088
Rp2089
(dp2090
g42
I2
sg43
S'^^'
p2091
sg45
S'special'
p2092
sbsg47
(dp2093
S'SR'
p2094
I0
sS'ST'
p2095
I0
sS'CR'
p2096
I0
sS'CT'
p2097
I0
ssg53
(dp2098
g2094
I0
sg2095
I0
sg2096
I0
sg2097
I0
ssg80
(dp2099
g2094
I0
sg2095
I0
sg2096
I0
sg2097
I0
ssg56
I0
sg57
I0
sg2007
I0
sg2008
I0
sg60
I0
sg61
I0
sg62
I0
sg63
(S'dummy'
p2100
S'PI'
p2101
g31
g31
tp2102
sg68
I00
sg69
g36
(g37
g38
Ntp2103
Rp2104
(dp2105
g42
I2
sg43
S'^^'
p2106
sg45
g2092
sbsg74
(dp2107
g2094
I6
sg2095
I2
sg2096
I2
sg2097
I3
ssg59
I01
sg82
(dp2108
g2094
I0
sg2095
I0
sg2096
I0
sg2097
I0
ssg84
(dp2109
g2094
I6
sg2095
I2
sg2096
I2
sg2097
I3
ssg86
I0
sg87
I0
sg88
S'Saolteh'
p2110
sg90
I4
sg91
I0
sg92
I18
sg93
I12
sg94
S'TA'
p2111
sg96
(dp2112
S'A'
p2113
I9
sS'ME'
p2114
I10
sS'RP2'
p2115
I6
sS'E'
p2116
I9
sS'TO'
p2117
I6
sS'RP1'
p2118
I10
sS'JP'
p2119
I2
sS'RP_tot'
p2120
I10
sS'P'
p2121
I5
sS'PA'
p2122
I9
sS'M'
p2123
I8
sS'R'
p2124
I9
sS'TB'
p2125
I4
sS'PL'
p2126
I9
sS'TA'
p2127
I8
ssg208
I0
sg209
I0
sg210
I0
sg211
I0
sg212
F9.296296296296296
sg213
I0
sS'drops'
p2128
I0
sg214
I0
sg215
I1
sg216
(dp2129
S'A'
p2130
I9
sS'ME'
p2131
I10
sS'RP2'
p2132
I6
sS'E'
p2133
I9
sS'TO'
p2134
I6
sS'RP1'
p2135
I10
sS'JP'
p2136
I2
sS'RP_tot'
p2137
I10
sS'P'
p2138
I5
sS'PA'
p2139
I9
sS'M'
p2140
I8
sS'R'
p2141
I9
sS'TB'
p2142
I4
sS'PL'
p2143
I9
sS'TA'
p2144
I8
ssg233
g2112
sg234
I0
sg235
g31
sg236
I0
sg237
I0
sg238
I0
sg239
I1
sg240
I1
sg241
I1
sg242
S'HE'
p2145
sbssg208
I4
sg209
I0
sg210
I0
sg211
I0
sg212
F9.444444444444445
sg213
I0
sg2128
I0
sg214
I0
sg215
I1
sg216
(dp2146
S'A'
p2147
I9
sS'ME'
p2148
I10
sS'RP2'
p2149
I6
sS'E'
p2150
I9
sS'TO'
p2151
I6
sS'RP1'
p2152
I10
sS'JP'
p2153
I2
sS'RP_tot'
p2154
I10
sS'P'
p2155
I5
sS'PA'
p2156
I9
sS'M'
p2157
I8
sS'R'
p2158
I9
sS'TB'
p2159
I4
sS'PL'
p2160
I9
sS'TA'
p2161
I8
ssg233
g2068
sg234
I0
sg235
g31
sg236
I0
sg237
I0
sg238
I0
sg239
I1
sg240
I1
sg241
I0
sg242
S'HE'
p2162
sbsS's11'
p2163
(ijoueur
joueur
p2164
(dp2165
g28
I0
sg32
I0
sg34
I0
sg35
g36
(g37
g38
Ntp2166
Rp2167
(dp2168
g42
I2
sg43
S'^^'
p2169
sg45
S'special'
p2170
sbsg47
(dp2171
S'SR'
p2172
I0
sS'ST'
p2173
I0
sS'CR'
p2174
I0
sS'CT'
p2175
I0
ssg53
(dp2176
g2172
I0
sg2173
I0
sg2174
I0
sg2175
I0
ssg80
(dp2177
g2172
I0
sg2173
I0
sg2174
I0
sg2175
I0
ssg56
I0
sg57
I0
sg2007
I0
sg2008
I0
sg60
I0
sg61
I0
sg62
I0
sg63
(S'dummy'
p2178
S'PI'
p2179
g31
g31
tp2180
sg68
I00
sg69
g36
(g37
g38
Ntp2181
Rp2182
(dp2183
g42
I2
sg43
S'^^'
p2184
sg45
g2170
sbsg74
(dp2185
g2172
I6
sg2173
I2
sg2174
I2
sg2175
I3
ssg59
I01
sg82
(dp2186
g2172
I0
sg2173
I0
sg2174
I0
sg2175
I0
ssg84
(dp2187
g2172
I6
sg2173
I2
sg2174
I2
sg2175
I3
ssg86
I0
sg87
I0
sg88
S'Saolteh'
p2188
sg90
I4
sg91
I0
sg92
I18
sg93
I12
sg94
S'TA'
p2189
sg96
(dp2190
S'A'
p2191
I9
sS'ME'
p2192
I10
sS'RP2'
p2193
I6
sS'E'
p2194
I9
sS'TO'
p2195
I6
sS'RP1'
p2196
I10
sS'JP'
p2197
I2
sS'RP_tot'
p2198
I10
sS'P'
p2199
I5
sS'PA'
p2200
I9
sS'M'
p2201
I8
sS'R'
p2202
I9
sS'TB'
p2203
I4
sS'PL'
p2204
I9
sS'TA'
p2205
I8
ssg208
I0
sg209
I0
sg210
I0
sg211
I0
sg212
F9.296296296296296
sg213
I0
sg2128
I0
sg214
I0
sg215
I1
sg216
(dp2206
S'A'
p2207
I9
sS'ME'
p2208
I10
sS'RP2'
p2209
I6
sS'E'
p2210
I9
sS'TO'
p2211
I6
sS'RP1'
p2212
I10
sS'JP'
p2213
I2
sS'RP_tot'
p2214
I10
sS'P'
p2215
I5
sS'PA'
p2216
I9
sS'M'
p2217
I8
sS'R'
p2218
I9
sS'TB'
p2219
I4
sS'PL'
p2220
I9
sS'TA'
p2221
I8
ssg233
g2190
sg234
I0
sg235
g31
sg236
I0
sg237
I0
sg238
I0
sg239
I1
sg240
I1
sg241
I1
sg242
S'HE'
p2222
sbssg208
I6
sg209
I0
sg210
I0
sg211
I0
sg80
(dp2223
g1709
I0
sg1710
I0
sg1711
I0
sg1712
I0
ssg213
I0
sg58
F134.0601459720549
sg2128
I0
sg214
I0
sg215
I2
sg216
(dp2224
S'A'
p2225
I9
sS'ME'
p2226
I10
sS'RP2'
p2227
I6
sS'E'
p2228
I9
sS'TO'
p2229
I6
sS'RP1'
p2230
I10
sS'JP'
p2231
I2
sS'RP_tot'
p2232
I10
sS'P'
p2233
I5
sS'PA'
p2234
I9
sS'M'
p2235
I8
sS'R'
p2236
I9
sS'TB'
p2237
I4
sS'PL'
p2238
I9
sS'TA'
p2239
I8
ssg233
(dp2240
g2021
I8
sg2022
I10
sg2023
I7
sg2024
I9
sg2029
I6
sg2026
I10
sg2027
I2
sg2028
I10
sg2025
I5
sg2030
I9
sg2031
I8
sg2032
I9
sg2033
I4
sg2034
I9
sg2035
I9
ssg234
I0
sg339
(dp2241
sg236
I0
sg235
S'TA 13'
p2242
sg237
I0
sg238
I0
sg239
I5
sg240
I1
sg241
I1
sg242
S'HE'
p2243
sbsS'n14'
p2244
(ijoueur
joueur
p2245
(dp2246
g27
F10.419354838709678
sg28
I1
sg29
F10.419354838709678
sg30
g31
sg32
I0
sg33
F123.89121597692586
sg34
I0
sg35
g36
(g37
g38
Ntp2247
Rp2248
(dp2249
g42
I4
sg43
S'*'
p2250
sg45
S'heros'
p2251
sbsg47
(dp2252
S'SR'
p2253
I2
sS'CT'
p2254
I0
sS'CR'
p2255
I0
sS'ST'
p2256
I0
ssg53
(dp2257
g2253
I0
sg2254
I0
sg2255
I0
sg2256
I0
ssg55
I0
sg56
I0
sg57
I0
sg58
F123.89121597692586
sg59
I00
sg60
I0
sg61
I0
sg62
I0
sg63
(S'dummy'
p2258
S'AI'
p2259
S'CE'
p2260
g31
tp2261
sg68
I00
sg69
g36
(g37
g38
Ntp2262
Rp2263
(dp2264
g42
I4
sg43
g2250
sg45
g2251
sbsg74
(dp2265
g76
I0
sg77
I0
sg78
I9
sg79
I3
ssg80
(dp2266
g76
I0
sg77
I0
sg78
I0
sg79
I0
ssg82
(dp2267
g76
I0
sg77
I0
sg78
I0
sg79
I0
ssg84
(dp2268
g2253
I5
sg2254
I21
sg2255
I19
sg2256
I1
ssg86
I0
sg87
I0
sg88
S'Haloepl'
p2269
sg90
I5
sg91
I0
sg92
I18
sg93
I236
sg94
g95
sg96
(dp2270
S'A'
p2271
I9
sS'ME'
p2272
I5
sS'RP2'
p2273
I10
sS'E'
p2274
I10
sS'TO'
p2275
I5
sS'RP1'
p2276
I10
sS'JP'
p2277
I6
sS'RP_tot'
p2278
I12
sS'P'
p2279
I8
sS'PA'
p2280
I9
sS'M'
p2281
I13
sS'R'
p2282
I8
sS'TB'
p2283
I6
sS'PL'
p2284
I8
sS'TA'
p2285
I7
ssg113
(dp2286
g115
(ijoueur
joueur
p2287
(dp2288
g27
F10.419354838709678
sg28
I0
sg30
g31
sg32
I0
sg34
I0
sg35
g36
(g37
g38
Ntp2289
Rp2290
(dp2291
g42
I4
sg43
S'*'
p2292
sg45
S'heros'
p2293
sbsg47
(dp2294
S'SR'
p2295
I2
sS'CT'
p2296
I0
sS'CR'
p2297
I0
sS'ST'
p2298
I0
ssg53
(dp2299
g2295
I0
sg2296
I0
sg2297
I0
sg2298
I0
ssg80
(dp2300
g130
I2
sg131
I0
sg132
I0
sg133
I0
ssg56
I0
sg57
I0
sg60
I1
sg61
I0
sg62
I0
sg63
(S'dummy'
p2301
S'AI'
p2302
S'CE'
p2303
g31
tp2304
sg68
I00
sg69
g36
(g37
g38
Ntp2305
Rp2306
(dp2307
g42
I4
sg43
g2292
sg45
g2293
sbsg74
(dp2308
g130
I0
sg131
I0
sg132
I10
sg133
I5
ssg59
I00
sg82
(dp2309
g130
I0
sg131
I0
sg132
I0
sg133
I0
ssg84
(dp2310
g2295
I5
sg2296
I18
sg2297
I10
sg2298
I1
ssg86
I0
sg87
I0
sg88
S'Haloepl (12)'
p2311
sg90
I5
sg91
I0
sg92
I18
sg93
I236
sg94
g146
sg96
(dp2312
S'A'
p2313
I9
sS'ME'
p2314
I5
sS'RP2'
p2315
I10
sS'E'
p2316
I10
sS'P'
p2317
I8
sS'RP1'
p2318
I10
sS'JP'
p2319
I6
sS'RP_tot'
p2320
I12
sS'TO'
p2321
I5
sS'PA'
p2322
I9
sS'M'
p2323
I14
sS'R'
p2324
I8
sS'TB'
p2325
I6
sS'PL'
p2326
I8
sS'TA'
p2327
I7
ssg113
(dp2328
g164
(ijoueur
joueur
p2329
(dp2330
g28
I0
sg32
I0
sg34
I0
sg35
g36
(g37
g38
Ntp2331
Rp2332
(dp2333
g42
I4
sg43
S'*'
p2334
sg45
S'heros'
p2335
sbsg47
(dp2336
S'SR'
p2337
I0
sS'ST'
p2338
I0
sS'CR'
p2339
I0
sS'CT'
p2340
I0
ssg53
(dp2341
g2337
I0
sg2338
I0
sg2339
I0
sg2340
I0
ssg56
I0
sg57
I0
sg59
I00
sg60
I0
sg61
I0
sg62
I0
sg63
(S'dummy'
p2342
S'AI'
p2343
S'CE'
p2344
g31
tp2345
sg68
I01
sg69
g36
(g37
g38
Ntp2346
Rp2347
(dp2348
g42
I4
sg43
g2334
sg45
g2335
sbsg74
(dp2349
g2337
I5
sg2338
I1
sg2339
I0
sg2340
I13
ssg80
(dp2350
g2337
I0
sg2338
I0
sg2339
I0
sg2340
I0
ssg82
(dp2351
g2337
I0
sg2338
I0
sg2339
I0
sg2340
I0
ssg84
(dp2352
g2337
I5
sg2338
I1
sg2339
I0
sg2340
I13
ssg86
I0
sg87
I0
sg88
S'Haloepl'
p2353
sg90
I5
sg91
I0
sg92
I18
sg93
I150
sg94
S'GP'
p2354
sg96
(dp2355
S'A'
p2356
I9
sS'ME'
p2357
I5
sS'RP2'
p2358
I10
sS'E'
p2359
I10
sS'TO'
p2360
I5
sS'RP1'
p2361
I10
sS'JP'
p2362
I6
sS'RP_tot'
p2363
I13
sS'P'
p2364
I8
sS'PA'
p2365
I9
sS'M'
p2366
I14
sS'R'
p2367
I8
sS'TB'
p2368
I6
sS'PL'
p2369
I8
sS'TA'
p2370
I7
ssg208
I0
sg209
I0
sg210
I0
sg211
I0
sg212
F10.419354838709678
sg213
I0
sg214
I0
sg215
I0
sg216
(dp2371
S'A'
p2372
I9
sS'ME'
p2373
I5
sS'RP2'
p2374
I10
sS'E'
p2375
I10
sS'TO'
p2376
I5
sS'RP1'
p2377
I10
sS'JP'
p2378
I6
sS'RP_tot'
p2379
I13
sS'P'
p2380
I8
sS'PA'
p2381
I9
sS'M'
p2382
I14
sS'R'
p2383
I8
sS'TB'
p2384
I6
sS'PL'
p2385
I8
sS'TA'
p2386
I7
ssg233
g2355
sg234
I0
sg235
g31
sg236
I0
sg237
I0
sg238
I0
sg239
I14
sg240
I0
sg241
I0
sg242
S'HL'
p2387
sbssg208
I0
sg209
I0
sg210
I0
sg211
I0
sg212
F10.419354838709678
sg213
I0
sg214
I0
sg215
I0
sg216
(dp2388
S'A'
p2389
I9
sS'ME'
p2390
I5
sS'RP2'
p2391
I10
sS'E'
p2392
I10
sS'TO'
p2393
I5
sS'RP1'
p2394
I10
sS'JP'
p2395
I6
sS'RP_tot'
p2396
I13
sS'P'
p2397
I8
sS'PA'
p2398
I9
sS'M'
p2399
I14
sS'R'
p2400
I8
sS'TB'
p2401
I6
sS'PL'
p2402
I8
sS'TA'
p2403
I7
ssg233
g2312
sg234
I0
sg235
S'GP 12'
p2404
sg236
I0
sg237
I0
sg238
I0
sg239
I12
sg240
I1
sg241
I0
sg242
S'HL'
p2405
sbsg261
(ijoueur
joueur
p2406
(dp2407
g28
I0
sg32
I0
sg34
I0
sg35
g36
(g37
g38
Ntp2408
Rp2409
(dp2410
g42
I4
sg43
S'*'
p2411
sg45
S'heros'
p2412
sbsg47
(dp2413
S'SR'
p2414
I0
sS'ST'
p2415
I0
sS'CR'
p2416
I0
sS'CT'
p2417
I0
ssg53
(dp2418
g2414
I0
sg2415
I0
sg2416
I0
sg2417
I0
ssg56
I0
sg57
I0
sg59
I00
sg60
I0
sg61
I0
sg62
I0
sg63
(S'dummy'
p2419
S'AI'
p2420
S'CE'
p2421
g31
tp2422
sg68
I01
sg69
g36
(g37
g38
Ntp2423
Rp2424
(dp2425
g42
I4
sg43
g2411
sg45
g2412
sbsg74
(dp2426
g2414
I5
sg2415
I1
sg2416
I0
sg2417
I13
ssg80
(dp2427
g2414
I0
sg2415
I0
sg2416
I0
sg2417
I0
ssg82
(dp2428
g2414
I0
sg2415
I0
sg2416
I0
sg2417
I0
ssg84
(dp2429
g2414
I5
sg2415
I1
sg2416
I0
sg2417
I13
ssg86
I0
sg87
I0
sg88
S'Haloepl (11)'
p2430
sg90
I5
sg91
I0
sg92
I18
sg93
I150
sg94
S'GP'
p2431
sg96
(dp2432
S'A'
p2433
I9
sS'ME'
p2434
I5
sS'RP2'
p2435
I10
sS'E'
p2436
I10
sS'TO'
p2437
I5
sS'RP1'
p2438
I10
sS'JP'
p2439
I6
sS'RP_tot'
p2440
I12
sS'P'
p2441
I8
sS'PA'
p2442
I9
sS'M'
p2443
I14
sS'R'
p2444
I8
sS'TB'
p2445
I6
sS'PL'
p2446
I8
sS'TA'
p2447
I7
ssg208
I0
sg209
I0
sg210
I0
sg211
I0
sg212
F10.419354838709678
sg213
I0
sg214
I0
sg215
I0
sg216
(dp2448
S'A'
p2449
I9
sS'ME'
p2450
I5
sS'RP2'
p2451
I10
sS'E'
p2452
I10
sS'TO'
p2453
I5
sS'RP1'
p2454
I10
sS'JP'
p2455
I6
sS'RP_tot'
p2456
I13
sS'P'
p2457
I8
sS'PA'
p2458
I9
sS'M'
p2459
I14
sS'R'
p2460
I8
sS'TB'
p2461
I6
sS'PL'
p2462
I8
sS'TA'
p2463
I7
ssg233
g2432
sg234
I0
sg235
g31
sg236
I0
sg237
I0
sg238
I0
sg239
I14
sg240
I0
sg241
I0
sg242
S'HL'
p2464
sbssg208
I4
sg209
I0
sg210
I0
sg211
I0
sg212
F10.064516129032258
sg213
I0
sg214
I0
sg215
I0
sg216
(dp2465
S'A'
p2466
I9
sS'ME'
p2467
I5
sS'RP2'
p2468
I10
sS'E'
p2469
I10
sS'TO'
p2470
I5
sS'RP1'
p2471
I10
sS'JP'
p2472
I6
sS'RP_tot'
p2473
I13
sS'P'
p2474
I8
sS'PA'
p2475
I9
sS'M'
p2476
I14
sS'R'
p2477
I8
sS'TB'
p2478
I6
sS'PL'
p2479
I8
sS'TA'
p2480
I7
ssg233
(dp2481
g2271
I9
sg2272
I5
sg2273
I10
sg2274
I10
sg2279
I8
sg2276
I10
sg2277
I6
sg2278
I12
sg2275
I5
sg2280
I9
sg2281
I13
sg2282
I8
sg2283
I6
sg2284
I8
sg2285
I7
ssg234
I1
sg339
(dp2482
sg236
I0
sg235
S'GP 12'
p2483
sg237
I0
sg238
I0
sg239
I12
sg240
I1
sg241
I0
sg242
S'HL'
p2484
sbsS'n15'
p2485
(ijoueur
joueur
p2486
(dp2487
g28
I0
sg29
F8.787878787878787
sg30
g31
sg32
I0
sg33
F48.75104633918375
sg1126
g31
sg34
I0
sg1127
g31
sg35
g36
(g37
g38
Ntp2488
Rp2489
(dp2490
g42
I5
sg43
S'xx'
p2491
sg45
S'seigneur'
p2492
sbsg47
(dp2493
g1407
I0
sg1408
I0
sg1409
I0
sg1410
I0
ssg53
(dp2494
g1407
I0
sg1408
I0
sg1409
I0
sg1410
I0
ssg55
I0
sg235
g31
sg57
I0
sg58
F48.75104633918375
sg59
I00
sg60
I0
sg61
I0
sg62
I0
sg94
g95
sg68
I00
sg69
g36
(g37
g38
Ntp2495
Rp2496
(dp2497
g42
I3
sg43
S'^^^'
p2498
sg45
S'rare'
p2499
sbsg74
(dp2500
g76
I0
sg77
I0
sg78
I3
sg79
I2
ssg80
(dp2501
g76
I0
sg77
I0
sg78
I0
sg79
I0
ssg82
(dp2502
g76
I0
sg77
I0
sg78
I0
sg79
I0
ssg84
(dp2503
g1407
I0
sg1408
I0
sg1409
I3
sg1410
I2
ssg86
I0
sg87
I0
sg88
S'Diess'
p2504
sg90
I12
sg91
I0
sg92
I23
sg93
I21
sg63
(g1422
S'AR'
p2505
g31
g31
tp2506
sg1152
g31
sg96
(dp2507
g1428
I5
sg1429
I7
sg1430
I8
sg1431
I8
sg1432
I9
sg1433
I7
sg1434
I10
sg1435
I8
sg1436
I6
sg1437
I8
sg1438
I9
sg1439
I7
sg1440
I5
sg1441
I10
sg1442
I6
ssg113
(dp2508
g115
(ijoueur
joueur
p2509
(dp2510
g28
I0
sg30
g31
sg32
I0
sg1126
g31
sg34
I0
sg1127
g31
sg35
g36
(g37
g38
Ntp2511
Rp2512
(dp2513
g42
I5
sg43
S'xx'
p2514
sg45
S'seigneur'
p2515
sbsg47
(dp2516
g1452
I0
sg1453
I0
sg1454
I0
sg1455
I0
ssg53
(dp2517
g1452
I0
sg1453
I0
sg1454
I0
sg1455
I0
ssg80
(dp2518
g1452
I0
sg1453
I0
sg1454
I0
sg1455
I0
ssg235
g31
sg57
I0
sg60
I0
sg61
I0
sg62
I0
sg94
g146
sg68
I00
sg69
g36
(g37
g38
Ntp2519
Rp2520
(dp2521
g42
I2
sg43
S'^^'
p2522
sg45
S'special'
p2523
sbsg74
(dp2524
g1452
I0
sg1453
I0
sg1454
I0
sg1455
I0
ssg59
I01
sg82
(dp2525
g1452
I0
sg1453
I0
sg1454
I0
sg1455
I0
ssg84
(dp2526
g1452
I0
sg1453
I0
sg1454
I0
sg1455
I0
ssg86
I0
sg87
I0
sg88
S'Diess (12)'
p2527
sg90
I12
sg91
I0
sg92
I23
sg93
I11
sg63
(g1467
S'AR'
p2528
g31
g31
tp2529
sg1152
g31
sg96
(dp2530
g1473
I5
sg1474
I7
sg1475
I8
sg1476
I8
sg1477
I6
sg1478
I10
sg1479
I7
sg1480
I8
sg1481
I10
sg1482
I8
sg1483
I9
sg1484
I6
sg1485
I5
sg1486
I10
sg1487
I6
ssg113
(dp2531
sg208
I0
sg209
I0
sg210
I0
sg211
I0
sg212
F8.787878787878787
sg213
I0
sg214
I0
sg215
I0
sg233
g2530
sg234
I0
sg236
I0
sg237
I0
sg238
I0
sg239
I1
sg240
I0
sg241
I0
sg242
g1989
sbssg208
I0
sg209
I0
sg210
I0
sg211
I0
sg212
F8.757575757575758
sg213
I0
sg214
I0
sg215
I0
sg233
(dp2532
g1428
I5
sg1429
I7
sg1430
I8
sg1431
I8
sg1436
I6
sg1434
I10
sg1433
I7
sg1435
I8
sg1432
I9
sg1437
I8
sg1438
I9
sg1439
I7
sg1440
I5
sg1441
I10
sg1442
I6
ssg234
I0
sg339
(dp2533
sg236
I0
sg237
I0
sg238
I0
sg239
I2
sg240
I0
sg241
I0
sg242
g1992
sbsS'n18'
p2534
g1495
sS'n19'
p2535
g1399
sS'n22'
p2536
(ijoueur
joueur
p2537
(dp2538
g27
F10.90625
sg28
I0
sg29
F10.766666666666667
sg30
g31
sg32
I2
sg33
F114.96326131440068
sg34
I0
sg35
g36
(g37
g38
Ntp2539
Rp2540
(dp2541
g42
I4
sg43
S'x'
p2542
sg45
S'heros'
p2543
sbsg47
(dp2544
S'SR'
p2545
I0
sS'ST'
p2546
I5
sS'CR'
p2547
I0
sS'CT'
p2548
I24
ssg53
(dp2549
g2545
I0
sg2546
I0
sg2547
I0
sg2548
I2
ssg55
I0
sg56
I0
sg212
F11.266666666666667
sg57
I0
sg2007
I18
sg2008
I22
sg60
I0
sg61
I0
sg62
I1
sg63
(S'dummy'
p2550
S'C1'
p2551
S'AR'
p2552
S'AI'
p2553
tp2554
sg68
I00
sg69
g36
(g37
g38
Ntp2555
Rp2556
(dp2557
g42
I5
sg43
S'**'
p2558
sg45
S'seigneur'
p2559
sbsg74
(dp2560
g76
I0
sg77
I0
sg78
I0
sg79
I0
ssg59
I00
sg82
(dp2561
g76
I0
sg77
I0
sg78
I0
sg79
I1
ssg84
(dp2562
g2545
I0
sg2546
I5
sg2547
I0
sg2548
I15
ssg86
I53
sg87
I0
sg88
S'Cathaen'
p2563
sg90
I5
sg91
I34
sg92
I14
sg93
I398
sg94
g95
sg96
(dp2564
S'A'
p2565
I11
sS'ME'
p2566
I6
sS'RP2'
p2567
I7
sS'E'
p2568
I9
sS'P'
p2569
I9
sS'RP1'
p2570
I12
sS'JP'
p2571
I8
sS'RP_tot'
p2572
I12
sS'TO'
p2573
I10
sS'PA'
p2574
I11
sS'M'
p2575
I9
sS'R'
p2576
I7
sS'TB'
p2577
I10
sS'PL'
p2578
I16
sS'TA'
p2579
I5
ssg113
(dp2580
g115
(ijoueur
joueur
p2581
(dp2582
g27
F10.90625
sg28
I0
sg30
g31
sg32
I2
sg34
I0
sg35
g36
(g37
g38
Ntp2583
Rp2584
(dp2585
g42
I4
sg43
S'x'
p2586
sg45
S'heros'
p2587
sbsg47
(dp2588
S'SR'
p2589
I0
sS'ST'
p2590
I5
sS'CR'
p2591
I0
sS'CT'
p2592
I14
ssg53
(dp2593
g2589
I0
sg2590
I0
sg2591
I0
sg2592
I1
ssg56
I0
sg57
I0
sg2007
I18
sg2008
I22
sg59
I00
sg60
I1
sg61
I1
sg62
I13
sg63
(S'dummy'
p2594
S'C1'
p2595
S'AR'
p2596
S'AI'
p2597
tp2598
sg68
I00
sg69
g36
(g37
g38
Ntp2599
Rp2600
(dp2601
g42
I5
sg43
S'**'
p2602
sg45
S'seigneur'
p2603
sbsg74
(dp2604
g130
I0
sg131
I0
sg132
I0
sg133
I0
ssg80
(dp2605
g130
I0
sg131
I5
sg132
I0
sg133
I14
ssg82
(dp2606
g130
I0
sg131
I0
sg132
I0
sg133
I1
ssg84
(dp2607
g2589
I0
sg2590
I5
sg2591
I0
sg2592
I15
ssg86
I53
sg87
I20
sg88
S'Cathaen (12)'
p2608
sg90
I5
sg91
I33
sg92
I14
sg93
I398
sg94
g146
sg96
(dp2609
S'A'
p2610
I12
sS'ME'
p2611
I6
sS'RP2'
p2612
I7
sS'E'
p2613
I9
sS'TO'
p2614
I10
sS'RP1'
p2615
I11
sS'JP'
p2616
I8
sS'RP_tot'
p2617
I11
sS'P'
p2618
I9
sS'PA'
p2619
I10
sS'M'
p2620
I9
sS'R'
p2621
I7
sS'TB'
p2622
I10
sS'PL'
p2623
I16
sS'TA'
p2624
I5
ssg113
(dp2625
g164
(ijoueur
joueur
p2626
(dp2627
g28
I0
sg32
I2
sg34
I0
sg35
g36
(g37
g38
Ntp2628
Rp2629
(dp2630
g42
I4
sg43
S'x'
p2631
sg45
S'heros'
p2632
sbsg47
(dp2633
S'SR'
p2634
I0
sS'CT'
p2635
I0
sS'CR'
p2636
I0
sS'ST'
p2637
I0
ssg53
(dp2638
g2634
I0
sg2635
I0
sg2636
I0
sg2637
I0
ssg56
I0
sg212
F10.90625
sg57
I0
sg2007
I18
sg2008
I22
sg60
I0
sg61
I0
sg62
I2
sg63
(S'dummy'
p2639
S'C1'
p2640
S'AR'
p2641
S'AI'
p2642
tp2643
sg68
I01
sg69
g36
(g37
g38
Ntp2644
Rp2645
(dp2646
g42
I5
sg43
S'**'
p2647
sg45
S'seigneur'
p2648
sbsg74
(dp2649
g2634
I0
sg2635
I15
sg2636
I0
sg2637
I5
ssg59
I00
sg82
(dp2650
g2634
I0
sg2635
I0
sg2636
I0
sg2637
I0
ssg84
(dp2651
g2634
I0
sg2635
I15
sg2636
I0
sg2637
I5
ssg86
I33
sg87
I11
sg88
S'Cathaen'
p2652
sg90
I5
sg91
I20
sg92
I14
sg93
I250
sg94
S'ALT'
p2653
sg96
(dp2654
S'A'
p2655
I12
sS'ME'
p2656
I6
sS'RP2'
p2657
I7
sS'E'
p2658
I10
sS'P'
p2659
I9
sS'RP1'
p2660
I11
sS'JP'
p2661
I8
sS'RP_tot'
p2662
I11
sS'TO'
p2663
I10
sS'PA'
p2664
I10
sS'M'
p2665
I9
sS'R'
p2666
I7
sS'TB'
p2667
I11
sS'PL'
p2668
I16
sS'TA'
p2669
I5
ssg208
I0
sg209
I0
sg210
I0
sg211
I0
sg80
(dp2670
g2634
I0
sg2635
I0
sg2636
I0
sg2637
I0
ssg213
I0
sg2128
I2
sg214
I0
sg215
I0
sg216
(dp2671
S'A'
p2672
I12
sS'ME'
p2673
I6
sS'RP2'
p2674
I7
sS'E'
p2675
I10
sS'P'
p2676
I9
sS'RP1'
p2677
I11
sS'JP'
p2678
I8
sS'RP_tot'
p2679
I11
sS'TO'
p2680
I10
sS'PA'
p2681
I10
sS'M'
p2682
I9
sS'R'
p2683
I7
sS'TB'
p2684
I11
sS'PL'
p2685
I16
sS'TA'
p2686
I5
ssg233
g2654
sg234
I0
sg235
g31
sg236
I0
sg237
I0
sg238
I0
sg239
I28
sg240
I15
sg241
I0
sg242
S'CHS'
p2687
sbssg208
I3
sg209
I0
sg210
I0
sg211
I0
sg212
F10.766666666666667
sg213
I1
sg2128
I2
sg214
I0
sg215
I0
sg216
(dp2688
S'A'
p2689
I12
sS'ME'
p2690
I6
sS'RP2'
p2691
I7
sS'E'
p2692
I10
sS'P'
p2693
I9
sS'RP1'
p2694
I11
sS'JP'
p2695
I8
sS'RP_tot'
p2696
I11
sS'TO'
p2697
I10
sS'PA'
p2698
I10
sS'M'
p2699
I9
sS'R'
p2700
I7
sS'TB'
p2701
I11
sS'PL'
p2702
I16
sS'TA'
p2703
I5
ssg233
g2609
sg234
I0
sg235
S'ALT 12'
p2704
sg236
I2
sg237
I0
sg238
I2
sg239
I17
sg240
I16
sg241
I0
sg242
S'CHS'
p2705
sbsg261
(ijoueur
joueur
p2706
(dp2707
g28
I0
sg32
I2
sg34
I0
sg35
g36
(g37
g38
Ntp2708
Rp2709
(dp2710
g42
I4
sg43
S'x'
p2711
sg45
S'heros'
p2712
sbsg47
(dp2713
S'SR'
p2714
I0
sS'CT'
p2715
I0
sS'CR'
p2716
I0
sS'ST'
p2717
I0
ssg53
(dp2718
g2714
I0
sg2715
I0
sg2716
I0
sg2717
I0
ssg56
I0
sg212
F10.90625
sg57
I0
sg2007
I18
sg2008
I22
sg60
I0
sg61
I0
sg62
I2
sg63
(S'dummy'
p2719
S'C1'
p2720
S'AR'
p2721
S'AI'
p2722
tp2723
sg68
I01
sg69
g36
(g37
g38
Ntp2724
Rp2725
(dp2726
g42
I5
sg43
S'**'
p2727
sg45
S'seigneur'
p2728
sbsg74
(dp2729
g2714
I0
sg2715
I15
sg2716
I0
sg2717
I5
ssg59
I00
sg82
(dp2730
g2714
I0
sg2715
I0
sg2716
I0
sg2717
I0
ssg84
(dp2731
g2714
I0
sg2715
I15
sg2716
I0
sg2717
I5
ssg86
I33
sg87
I11
sg88
S'Cathaen (11)'
p2732
sg90
I5
sg91
I20
sg92
I14
sg93
I250
sg94
S'ALT'
p2733
sg96
(dp2734
S'A'
p2735
I12
sS'ME'
p2736
I6
sS'RP2'
p2737
I7
sS'E'
p2738
I10
sS'P'
p2739
I9
sS'RP1'
p2740
I11
sS'JP'
p2741
I8
sS'RP_tot'
p2742
I11
sS'TO'
p2743
I10
sS'PA'
p2744
I10
sS'M'
p2745
I9
sS'R'
p2746
I7
sS'TB'
p2747
I11
sS'PL'
p2748
I16
sS'TA'
p2749
I5
ssg208
I0
sg209
I0
sg210
I0
sg211
I0
sg80
(dp2750
g2714
I0
sg2715
I0
sg2716
I0
sg2717
I0
ssg213
I0
sg2128
I2
sg214
I0
sg215
I0
sg216
(dp2751
S'A'
p2752
I12
sS'ME'
p2753
I6
sS'RP2'
p2754
I7
sS'E'
p2755
I10
sS'P'
p2756
I9
sS'RP1'
p2757
I11
sS'JP'
p2758
I8
sS'RP_tot'
p2759
I11
sS'TO'
p2760
I10
sS'PA'
p2761
I10
sS'M'
p2762
I9
sS'R'
p2763
I7
sS'TB'
p2764
I11
sS'PL'
p2765
I16
sS'TA'
p2766
I5
ssg233
g2734
sg234
I0
sg235
g31
sg236
I0
sg237
I0
sg238
I0
sg239
I28
sg240
I15
sg241
I0
sg242
S'CHS'
p2767
sbssg208
I10
sg209
I0
sg210
I0
sg211
I0
sg80
(dp2768
g76
I0
sg77
I0
sg78
I0
sg79
I10
ssg213
I1
sg58
F114.96326131440068
sg2128
I2
sg214
I0
sg215
I1
sg216
(dp2769
S'A'
p2770
I12
sS'ME'
p2771
I6
sS'RP2'
p2772
I7
sS'E'
p2773
I10
sS'P'
p2774
I9
sS'RP1'
p2775
I11
sS'JP'
p2776
I8
sS'RP_tot'
p2777
I11
sS'TO'
p2778
I10
sS'PA'
p2779
I10
sS'M'
p2780
I9
sS'R'
p2781
I7
sS'TB'
p2782
I11
sS'PL'
p2783
I16
sS'TA'
p2784
I5
ssg233
(dp2785
g2565
I12
sg2566
I6
sg2567
I7
sg2568
I9
sg2573
I10
sg2570
I12
sg2571
I8
sg2572
I12
sg2569
I9
sg2574
I11
sg2575
I9
sg2576
I8
sg2577
I10
sg2578
I17
sg2579
I5
ssg234
I0
sg339
(dp2786
sg236
I2
sg235
S'ALT 12'
p2787
sg237
I0
sg238
I0
sg239
I17
sg240
I16
sg241
I1
sg242
S'CHS'
p2788
sbsS'n21'
p2789
(ijoueur
joueur
p2790
(dp2791
g28
I0
sg209
I0
sg32
I0
sg33
F69.73225325550364
sg1126
g31
sg34
I0
sg1127
g31
sg35
g36
(g37
g38
Ntp2792
Rp2793
(dp2794
g42
I2
sg43
S'<<'
p2795
sg45
S'special'
p2796
sbsg47
(dp2797
S'SR'
p2798
I0
sS'CT'
p2799
I0
sS'CR'
p2800
I0
sS'ST'
p2801
I0
ssg53
(dp2802
g2798
I0
sg2799
I0
sg2800
I0
sg2801
I0
ssg55
I0
sg92
I20
sg235
g31
sg57
I0
sg58
F69.73225325550364
sg60
I0
sg61
I0
sg62
I0
sg94
g95
sg68
I00
sg69
g2793
sg74
(dp2803
g2798
I0
sg2799
I3
sg2800
I4
sg2801
I0
ssg80
(dp2804
g2798
I0
sg2799
I0
sg2800
I0
sg2801
I0
ssg82
(dp2805
g2798
I0
sg2799
I0
sg2800
I0
sg2801
I0
ssg84
(dp2806
g2798
I0
sg2799
I3
sg2800
I4
sg2801
I0
ssg86
I0
sg87
I0
sg88
S'Gsalet'
p2807
sg90
I13
sg91
I0
sg59
I00
sg93
I15
sg63
(S'dummy'
p2808
S'C2'
p2809
g31
g31
tp2810
sg1152
g31
sg96
(dp2811
S'RP1'
p2812
I8
sS'ME'
p2813
I7
sS'RP2'
p2814
I8
sS'E'
p2815
I9
sS'TO'
p2816
I6
sS'M'
p2817
I10
sS'JP'
p2818
I8
sS'RP_tot'
p2819
I10
sS'P'
p2820
I9
sS'PA'
p2821
I10
sS'A'
p2822
I10
sS'R'
p2823
I8
sS'TB'
p2824
I10
sS'PL'
p2825
I9
sS'TA'
p2826
I5
ssg113
(dp2827
sg208
I0
sg30
g31
sg210
I0
sg211
I0
sg212
F9.483870967741936
sg213
I0
sg214
I0
sg215
I0
sg233
(dp2828
g2812
I8
sg2813
I7
sg2814
I8
sg2815
I9
sg2820
I9
sg2818
I8
sg2817
I10
sg2819
I10
sg2816
I6
sg2821
I10
sg2822
I10
sg2823
I8
sg2824
I10
sg2825
I9
sg2826
I5
ssg234
I0
sg236
I0
sg237
I0
sg238
I0
sg239
I1
sg240
I0
sg241
I0
sg242
S'S'
p2829
sbsS'n20'
p2830
(ijoueur
joueur
p2831
(dp2832
g28
I0
sg29
F9.0
sg30
g31
sg32
I1
sg33
F29.27212931103055
sg1126
g31
sg34
I0
sg1127
g31
sg35
g36
(g37
g38
Ntp2833
Rp2834
(dp2835
g42
I2
sg43
S'^^'
p2836
sg45
S'special'
p2837
sbsg47
(dp2838
g1407
I0
sg1408
I0
sg1409
I1
sg1410
I0
ssg53
(dp2839
g1407
I0
sg1408
I0
sg1409
I0
sg1410
I0
ssg55
I0
sg235
g31
sg57
I0
sg58
F29.27212931103055
sg59
I00
sg60
I0
sg61
I0
sg62
I0
sg94
g95
sg68
I00
sg69
g2834
sg74
(dp2840
g76
I0
sg77
I0
sg78
I2
sg79
I1
ssg80
(dp2841
g76
I0
sg77
I0
sg78
I0
sg79
I0
ssg82
(dp2842
g76
I0
sg77
I0
sg78
I0
sg79
I0
ssg84
(dp2843
g1407
I0
sg1408
I0
sg1409
I2
sg1410
I1
ssg86
I0
sg87
I0
sg88
S'Fydil'
p2844
sg90
I12
sg91
I0
sg92
I21
sg93
I9
sg63
(g1422
S'DO'
p2845
S'DM'
p2846
S'CE'
p2847
tp2848
sg1152
g31
sg96
(dp2849
g1428
I6
sg1429
I6
sg1430
I8
sg1431
I9
sg1432
I10
sg1433
I9
sg1434
I8
sg1435
I8
sg1436
I5
sg1437
I12
sg1438
I8
sg1439
I7
sg1440
I6
sg1441
I11
sg1442
I4
ssg113
(dp2850
g115
(ijoueur
joueur
p2851
(dp2852
g28
I0
sg30
g31
sg32
I0
sg1126
g31
sg34
I0
sg1127
g31
sg35
g36
(g37
g38
Ntp2853
Rp2854
(dp2855
g42
I2
sg43
g2522
sg45
g2523
sbsg47
(dp2856
g1452
I0
sg1453
I0
sg1454
I1
sg1455
I0
ssg53
(dp2857
g1452
I0
sg1453
I0
sg1454
I0
sg1455
I0
ssg80
(dp2858
g1452
I0
sg1453
I0
sg1454
I1
sg1455
I0
ssg235
g31
sg57
I0
sg60
I0
sg61
I0
sg62
I0
sg94
g146
sg68
I00
sg69
g36
(g37
g38
Ntp2859
Rp2860
(dp2861
g42
I1
sg43
g1461
sg45
g1462
sbsg74
(dp2862
g1452
I0
sg1453
I0
sg1454
I0
sg1455
I0
ssg59
I01
sg82
(dp2863
g1452
I0
sg1453
I0
sg1454
I0
sg1455
I0
ssg84
(dp2864
g1452
I0
sg1453
I0
sg1454
I0
sg1455
I0
ssg86
I0
sg87
I0
sg88
S'Fydil (12)'
p2865
sg90
I12
sg91
I0
sg92
I21
sg93
I6
sg63
(g1467
S'DO'
p2866
S'DM'
p2867
S'CE'
p2868
tp2869
sg1152
g31
sg96
(dp2870
g1473
I6
sg1474
I5
sg1475
I8
sg1476
I9
sg1477
I5
sg1478
I8
sg1479
I9
sg1480
I8
sg1481
I10
sg1482
I11
sg1483
I8
sg1484
I7
sg1485
I6
sg1486
I8
sg1487
I3
ssg113
(dp2871
sg208
I0
sg209
I0
sg210
I0
sg211
I0
sg212
F9.0
sg213
I0
sg214
I0
sg215
I1
sg233
g2870
sg234
I0
sg236
I0
sg237
I0
sg238
I0
sg239
I0
sg240
I0
sg241
I1
sg242
g1989
sbssg208
I0
sg209
I0
sg210
I0
sg211
I0
sg212
F9.515151515151516
sg213
I0
sg214
I0
sg215
I1
sg233
(dp2872
g1428
I6
sg1429
I6
sg1430
I8
sg1431
I9
sg1436
I5
sg1434
I8
sg1433
I9
sg1435
I8
sg1432
I10
sg1437
I12
sg1438
I8
sg1439
I7
sg1440
I6
sg1441
I11
sg1442
I4
ssg234
I0
sg339
(dp2873
sg236
I0
sg237
I1
sg238
I0
sg239
I0
sg240
I0
sg241
I0
sg242
g1992
sbsS'n8'
p2874
(ijoueur
joueur
p2875
(dp2876
g27
F9.86111111111111
sg28
I0
sg29
F9.310344827586206
sg30
g31
sg32
I0
sg33
F28.74756903232239
sg1126
g31
sg34
I0
sg1127
g31
sg35
g36
(g37
g38
Ntp2877
Rp2878
(dp2879
g42
I4
sg43
S'x'
p2880
sg45
S'heros'
p2881
sbsg47
(dp2882
S'SR'
p2883
I0
sS'CT'
p2884
I0
sS'CR'
p2885
I0
sS'ST'
p2886
I0
ssg53
(dp2887
g2883
I0
sg2884
I0
sg2885
I0
sg2886
I0
ssg55
I0
sg235
S'vide 12'
p2888
sg57
I0
sg58
F28.74756903232239
sg59
I00
sg60
I1
sg61
I0
sg62
I0
sg94
g95
sg68
I00
sg69
g2878
sg74
(dp2889
g76
I0
sg77
I0
sg78
I1
sg79
I2
ssg80
(dp2890
g76
I0
sg77
I0
sg78
I0
sg79
I0
ssg82
(dp2891
g76
I0
sg77
I0
sg78
I0
sg79
I0
ssg84
(dp2892
g2883
I10
sg2884
I2
sg2885
I4
sg2886
I0
ssg86
I0
sg87
I0
sg88
S'Harik'
p2893
sg90
I2
sg91
I0
sg92
I15
sg93
I229
sg63
(S'dummy'
p2894
S'N8'
p2895
g31
g31
tp2896
sg1152
g31
sg96
(dp2897
S'RP1'
p2898
I8
sS'ME'
p2899
I9
sS'RP2'
p2900
I7
sS'E'
p2901
I11
sS'TO'
p2902
I9
sS'M'
p2903
I7
sS'JP'
p2904
I6
sS'RP_tot'
p2905
I9
sS'P'
p2906
I7
sS'PA'
p2907
I9
sS'A'
p2908
I12
sS'R'
p2909
I8
sS'TB'
p2910
I6
sS'PL'
p2911
I8
sS'TA'
p2912
I7
ssg113
(dp2913
g115
(ijoueur
joueur
p2914
(dp2915
g27
F9.86111111111111
sg28
I0
sg30
g31
sg32
I0
sg1126
g31
sg34
I0
sg1127
g31
sg35
g36
(g37
g38
Ntp2916
Rp2917
(dp2918
g42
I4
sg43
S'x'
p2919
sg45
S'heros'
p2920
sbsg47
(dp2921
S'SR'
p2922
I0
sS'CT'
p2923
I0
sS'CR'
p2924
I0
sS'ST'
p2925
I0
ssg53
(dp2926
g2922
I0
sg2923
I0
sg2924
I0
sg2925
I0
ssg80
(dp2927
g130
I0
sg131
I0
sg132
I0
sg133
I0
ssg235
S'vide 12'
p2928
sg57
I0
sg60
I0
sg61
I0
sg62
I0
sg94
g146
sg68
I00
sg69
g2917
sg74
(dp2929
g130
I7
sg131
I0
sg132
I3
sg133
I0
ssg59
I00
sg82
(dp2930
g130
I0
sg131
I0
sg132
I0
sg133
I0
ssg84
(dp2931
g2922
I10
sg2923
I0
sg2924
I3
sg2925
I0
ssg86
I0
sg87
I0
sg88
S'Harik (12)'
p2932
sg90
I2
sg91
I0
sg92
I15
sg93
I229
sg63
(S'dummy'
p2933
S'N8'
p2934
g31
g31
tp2935
sg1152
g31
sg96
(dp2936
S'RP1'
p2937
I9
sS'ME'
p2938
I9
sS'RP2'
p2939
I7
sS'E'
p2940
I11
sS'P'
p2941
I7
sS'JP'
p2942
I6
sS'M'
p2943
I8
sS'RP_tot'
p2944
I9
sS'TO'
p2945
I9
sS'PA'
p2946
I9
sS'A'
p2947
I12
sS'R'
p2948
I8
sS'TB'
p2949
I6
sS'PL'
p2950
I9
sS'TA'
p2951
I7
ssg113
(dp2952
g164
(ijoueur
joueur
p2953
(dp2954
g28
I0
sg32
I0
sg1126
g31
sg34
I0
sg1127
g31
sg35
g36
(g37
g38
Ntp2955
Rp2956
(dp2957
g42
I4
sg43
S'x'
p2958
sg45
S'heros'
p2959
sbsg47
(dp2960
S'SR'
p2961
I0
sS'ST'
p2962
I0
sS'CR'
p2963
I0
sS'CT'
p2964
I0
ssg53
(dp2965
g2961
I0
sg2962
I0
sg2963
I0
sg2964
I0
ssg235
g31
sg57
I0
sg59
I00
sg60
I0
sg61
I0
sg62
I0
sg94
S'vide'
p2966
sg68
I01
sg69
g2956
sg74
(dp2967
g2961
I3
sg2962
I0
sg2963
I0
sg2964
I0
ssg80
(dp2968
g2961
I0
sg2962
I0
sg2963
I0
sg2964
I0
ssg82
(dp2969
g2961
I0
sg2962
I0
sg2963
I0
sg2964
I0
ssg84
(dp2970
g2961
I3
sg2962
I0
sg2963
I0
sg2964
I0
ssg86
I0
sg87
I0
sg88
S'Harik'
p2971
sg90
I2
sg91
I0
sg92
I15
sg93
I133
sg63
(S'dummy'
p2972
S'N8'
p2973
g31
g31
tp2974
sg1152
g31
sg96
(dp2975
S'RP1'
p2976
I10
sS'ME'
p2977
I9
sS'RP2'
p2978
I8
sS'E'
p2979
I11
sS'TO'
p2980
I10
sS'M'
p2981
I8
sS'JP'
p2982
I6
sS'RP_tot'
p2983
I11
sS'P'
p2984
I7
sS'PA'
p2985
I9
sS'A'
p2986
I12
sS'R'
p2987
I8
sS'TB'
p2988
I6
sS'PL'
p2989
I10
sS'TA'
p2990
I7
ssg208
I0
sg209
I0
sg210
I0
sg211
I0
sg212
F9.86111111111111
sg213
I0
sg214
I0
sg215
I0
sg216
(dp2991
S'RP1'
p2992
I10
sS'ME'
p2993
I9
sS'RP2'
p2994
I8
sS'E'
p2995
I11
sS'TO'
p2996
I10
sS'M'
p2997
I8
sS'JP'
p2998
I6
sS'RP_tot'
p2999
I11
sS'P'
p3000
I7
sS'PA'
p3001
I9
sS'A'
p3002
I12
sS'R'
p3003
I8
sS'TB'
p3004
I6
sS'PL'
p3005
I10
sS'TA'
p3006
I7
ssg233
g2975
sg234
I0
sg236
I0
sg237
I0
sg238
I0
sg239
I12
sg240
I0
sg241
I0
sg242
S'ARA'
p3007
sbssg208
I2
sg209
I0
sg210
I0
sg211
I0
sg212
F9.310344827586206
sg213
I0
sg214
I0
sg215
I0
sg216
(dp3008
S'RP1'
p3009
I10
sS'ME'
p3010
I9
sS'RP2'
p3011
I8
sS'E'
p3012
I11
sS'P'
p3013
I7
sS'JP'
p3014
I6
sS'M'
p3015
I8
sS'RP_tot'
p3016
I11
sS'TO'
p3017
I10
sS'PA'
p3018
I9
sS'A'
p3019
I12
sS'R'
p3020
I8
sS'TB'
p3021
I6
sS'PL'
p3022
I10
sS'TA'
p3023
I7
ssg233
g2936
sg234
I0
sg236
I0
sg237
I0
sg238
I0
sg239
I7
sg240
I0
sg241
I0
sg242
S'ARA'
p3024
sbsg261
(ijoueur
joueur
p3025
(dp3026
g28
I0
sg32
I0
sg1126
g31
sg34
I0
sg1127
g31
sg35
g36
(g37
g38
Ntp3027
Rp3028
(dp3029
g42
I4
sg43
S'x'
p3030
sg45
S'heros'
p3031
sbsg47
(dp3032
S'SR'
p3033
I0
sS'ST'
p3034
I0
sS'CR'
p3035
I0
sS'CT'
p3036
I0
ssg53
(dp3037
g3033
I0
sg3034
I0
sg3035
I0
sg3036
I0
ssg235
g31
sg57
I0
sg59
I00
sg60
I0
sg61
I0
sg62
I0
sg94
S'vide'
p3038
sg68
I01
sg69
g3028
sg74
(dp3039
g3033
I3
sg3034
I0
sg3035
I0
sg3036
I0
ssg80
(dp3040
g3033
I0
sg3034
I0
sg3035
I0
sg3036
I0
ssg82
(dp3041
g3033
I0
sg3034
I0
sg3035
I0
sg3036
I0
ssg84
(dp3042
g3033
I3
sg3034
I0
sg3035
I0
sg3036
I0
ssg86
I0
sg87
I0
sg88
S'Harik (11)'
p3043
sg90
I2
sg91
I0
sg92
I15
sg93
I133
sg63
(S'dummy'
p3044
S'N8'
p3045
g31
g31
tp3046
sg1152
g31
sg96
(dp3047
S'RP1'
p3048
I10
sS'ME'
p3049
I9
sS'RP2'
p3050
I8
sS'E'
p3051
I11
sS'TO'
p3052
I10
sS'M'
p3053
I8
sS'JP'
p3054
I6
sS'RP_tot'
p3055
I11
sS'P'
p3056
I7
sS'PA'
p3057
I9
sS'A'
p3058
I12
sS'R'
p3059
I8
sS'TB'
p3060
I6
sS'PL'
p3061
I10
sS'TA'
p3062
I7
ssg208
I0
sg209
I0
sg210
I0
sg211
I0
sg212
F9.86111111111111
sg213
I0
sg214
I0
sg215
I0
sg216
(dp3063
S'RP1'
p3064
I10
sS'ME'
p3065
I9
sS'RP2'
p3066
I8
sS'E'
p3067
I11
sS'TO'
p3068
I10
sS'M'
p3069
I8
sS'JP'
p3070
I6
sS'RP_tot'
p3071
I11
sS'P'
p3072
I7
sS'PA'
p3073
I9
sS'A'
p3074
I12
sS'R'
p3075
I8
sS'TB'
p3076
I6
sS'PL'
p3077
I10
sS'TA'
p3078
I7
ssg233
g3047
sg234
I0
sg236
I0
sg237
I0
sg238
I0
sg239
I12
sg240
I0
sg241
I0
sg242
S'ARA'
p3079
sbssg208
I0
sg209
I0
sg210
I0
sg211
I0
sg212
F9.10344827586207
sg213
I0
sg214
I0
sg215
I0
sg216
(dp3080
S'RP1'
p3081
I10
sS'ME'
p3082
I9
sS'RP2'
p3083
I8
sS'E'
p3084
I11
sS'P'
p3085
I7
sS'JP'
p3086
I6
sS'M'
p3087
I8
sS'RP_tot'
p3088
I11
sS'TO'
p3089
I10
sS'PA'
p3090
I9
sS'A'
p3091
I12
sS'R'
p3092
I8
sS'TB'
p3093
I6
sS'PL'
p3094
I10
sS'TA'
p3095
I7
ssg233
(dp3096
g2898
I8
sg2899
I9
sg2900
I7
sg2901
I11
sg2906
I7
sg2904
I6
sg2903
I7
sg2905
I9
sg2902
I9
sg2907
I9
sg2908
I12
sg2909
I8
sg2910
I6
sg2911
I8
sg2912
I7
ssg234
I0
sg339
(dp3097
sg236
I0
sg237
I0
sg238
I0
sg239
I7
sg240
I1
sg241
I0
sg242
S'ARA'
p3098
sbsS'n9'
p3099
g947
sS'n1'
p3100
(ijoueur
joueur
p3101
(dp3102
g27
F9.481481481481481
sg28
I2
sg29
F9.925925925925926
sg30
g31
sg32
I0
sg33
F123.24786905086404
sg34
I0
sg35
g36
(g37
g38
Ntp3103
Rp3104
(dp3105
g42
I5
sg43
S'**'
p3106
sg45
g785
sbsg47
(dp3107
g49
I0
sg50
I5
sg51
I15
sg52
I14
ssg53
(dp3108
g49
I0
sg50
I0
sg51
I0
sg52
I0
ssg55
I0
sg56
I0
sg57
I0
sg58
F123.24786905086404
sg59
I00
sg60
I1
sg61
I0
sg62
I0
sg63
(g64
S'PI'
p3109
S'TA'
p3110
g31
tp3111
sg68
I00
sg69
g3104
sg74
(dp3112
g76
I0
sg77
I0
sg78
I0
sg79
I3
ssg80
(dp3113
g76
I0
sg77
I0
sg78
I7
sg79
I2
ssg82
(dp3114
g76
I0
sg77
I0
sg78
I0
sg79
I0
ssg84
(dp3115
g49
I0
sg50
I11
sg51
I6
sg52
I0
ssg86
I0
sg87
I0
sg88
S'Ziflad'
p3116
sg90
I8
sg91
I0
sg92
I19
sg93
I138
sg94
g95
sg96
(dp3117
g98
I11
sg99
I7
sg100
I9
sg101
I12
sg102
I8
sg103
I8
sg104
I5
sg105
I10
sg106
I6
sg107
I12
sg108
I9
sg109
I8
sg110
I5
sg111
I12
sg112
I7
ssg113
(dp3118
g115
(ijoueur
joueur
p3119
(dp3120
g27
F9.481481481481481
sg28
I2
sg30
g31
sg32
I0
sg34
I0
sg35
g36
(g37
g38
Ntp3121
Rp3122
(dp3123
g42
I5
sg43
S'**'
p3124
sg45
g809
sbsg47
(dp3125
g124
I0
sg125
I3
sg126
I8
sg127
I14
ssg53
(dp3126
g124
I0
sg125
I0
sg126
I0
sg127
I0
ssg80
(dp3127
g130
I0
sg131
I7
sg132
I6
sg133
I3
ssg56
I0
sg57
I0
sg60
I2
sg61
I0
sg62
I0
sg63
(g134
S'PI'
p3128
S'TA'
p3129
g31
tp3130
sg68
I00
sg69
g3122
sg74
(dp3131
g130
I0
sg131
I0
sg132
I0
sg133
I7
ssg59
I00
sg82
(dp3132
g130
I0
sg131
I0
sg132
I0
sg133
I0
ssg84
(dp3133
g124
I0
sg125
I8
sg126
I6
sg127
I0
ssg86
I0
sg87
I0
sg88
S'Ziflad (12)'
p3134
sg90
I8
sg91
I0
sg92
I19
sg93
I138
sg94
g146
sg96
(dp3135
g148
I11
sg149
I8
sg150
I9
sg151
I12
sg152
I6
sg153
I8
sg154
I5
sg155
I10
sg156
I8
sg157
I12
sg158
I10
sg159
I8
sg160
I5
sg161
I12
sg162
I7
ssg113
(dp3136
g164
(ijoueur
joueur
p3137
(dp3138
g28
I1
sg32
I0
sg34
I0
sg35
g36
(g37
g38
Ntp3139
Rp3140
(dp3141
g42
I5
sg43
S'**'
p3142
sg45
S'seigneur'
p3143
sbsg47
(dp3144
S'SR'
p3145
I0
sS'ST'
p3146
I7
sS'CR'
p3147
I2
sS'CT'
p3148
I0
ssg53
(dp3149
g3145
I0
sg3146
I0
sg3147
I0
sg3148
I0
ssg56
I0
sg57
I0
sg59
I00
sg60
I0
sg61
I0
sg62
I0
sg63
(S'dummy'
p3150
S'PI'
p3151
S'TA'
p3152
g31
tp3153
sg68
I00
sg69
g36
(g37
g38
Ntp3154
Rp3155
(dp3156
g42
I4
sg43
S'*'
p3157
sg45
S'heros'
p3158
sbsg74
(dp3159
g3145
I0
sg3146
I0
sg3147
I6
sg3148
I1
ssg80
(dp3160
g3145
I0
sg3146
I7
sg3147
I2
sg3148
I0
ssg82
(dp3161
g3145
I0
sg3146
I0
sg3147
I0
sg3148
I0
ssg84
(dp3162
g3145
I0
sg3146
I0
sg3147
I6
sg3148
I1
ssg86
I0
sg87
I0
sg88
S'Ziflad'
p3163
sg90
I8
sg91
I0
sg92
I19
sg93
I68
sg94
S'SN'
p3164
sg96
(dp3165
S'A'
p3166
I10
sS'ME'
p3167
I9
sS'RP2'
p3168
I8
sS'E'
p3169
I11
sS'TO'
p3170
I7
sS'RP1'
p3171
I8
sS'JP'
p3172
I5
sS'RP_tot'
p3173
I9
sS'P'
p3174
I7
sS'PA'
p3175
I11
sS'M'
p3176
I10
sS'R'
p3177
I7
sS'TB'
p3178
I5
sS'PL'
p3179
I12
sS'TA'
p3180
I7
ssg208
I0
sg209
I0
sg210
I0
sg211
I0
sg212
F9.481481481481481
sg213
I0
sg214
I0
sg215
I0
sg216
(dp3181
S'A'
p3182
I10
sS'ME'
p3183
I9
sS'RP2'
p3184
I8
sS'E'
p3185
I11
sS'TO'
p3186
I7
sS'RP1'
p3187
I8
sS'JP'
p3188
I5
sS'RP_tot'
p3189
I9
sS'P'
p3190
I7
sS'PA'
p3191
I11
sS'M'
p3192
I10
sS'R'
p3193
I7
sS'TB'
p3194
I5
sS'PL'
p3195
I12
sS'TA'
p3196
I7
ssg233
g3165
sg234
I1
sg235
S'APA 10'
p3197
sg236
I0
sg237
I0
sg238
I0
sg239
I7
sg240
I1
sg241
I0
sg242
S'HE'
p3198
sbssg208
I17
sg209
I0
sg210
I0
sg211
I0
sg212
F9.925925925925926
sg213
I0
sg214
I0
sg215
I1
sg216
(dp3199
g245
I10
sg246
I9
sg247
I8
sg248
I11
sg249
I7
sg250
I8
sg251
I5
sg252
I9
sg253
I7
sg254
I11
sg255
I10
sg256
I7
sg257
I5
sg258
I12
sg259
I7
ssg233
g3135
sg234
I1
sg235
S'APA 10'
p3200
sg236
I0
sg237
I0
sg238
I0
sg239
I14
sg240
I3
sg241
I1
sg242
S'HE'
p3201
sbsg261
(ijoueur
joueur
p3202
(dp3203
g28
I1
sg32
I0
sg34
I0
sg35
g36
(g37
g38
Ntp3204
Rp3205
(dp3206
g42
I5
sg43
S'**'
p3207
sg45
S'seigneur'
p3208
sbsg47
(dp3209
S'SR'
p3210
I0
sS'ST'
p3211
I7
sS'CR'
p3212
I2
sS'CT'
p3213
I0
ssg53
(dp3214
g3210
I0
sg3211
I0
sg3212
I0
sg3213
I0
ssg56
I0
sg57
I0
sg59
I00
sg60
I0
sg61
I0
sg62
I0
sg63
(S'dummy'
p3215
S'PI'
p3216
S'TA'
p3217
g31
tp3218
sg68
I00
sg69
g36
(g37
g38
Ntp3219
Rp3220
(dp3221
g42
I4
sg43
S'*'
p3222
sg45
S'heros'
p3223
sbsg74
(dp3224
g3210
I0
sg3211
I0
sg3212
I6
sg3213
I1
ssg80
(dp3225
g3210
I0
sg3211
I7
sg3212
I2
sg3213
I0
ssg82
(dp3226
g3210
I0
sg3211
I0
sg3212
I0
sg3213
I0
ssg84
(dp3227
g3210
I0
sg3211
I0
sg3212
I6
sg3213
I1
ssg86
I0
sg87
I0
sg88
S'Ziflad (11)'
p3228
sg90
I8
sg91
I0
sg92
I19
sg93
I68
sg94
S'SN'
p3229
sg96
(dp3230
S'A'
p3231
I10
sS'ME'
p3232
I9
sS'RP2'
p3233
I8
sS'E'
p3234
I11
sS'TO'
p3235
I7
sS'RP1'
p3236
I8
sS'JP'
p3237
I5
sS'RP_tot'
p3238
I10
sS'P'
p3239
I7
sS'PA'
p3240
I11
sS'M'
p3241
I10
sS'R'
p3242
I7
sS'TB'
p3243
I5
sS'PL'
p3244
I12
sS'TA'
p3245
I7
ssg208
I0
sg209
I0
sg210
I0
sg211
I0
sg212
F9.481481481481481
sg213
I0
sg214
I0
sg215
I0
sg216
(dp3246
S'A'
p3247
I10
sS'ME'
p3248
I9
sS'RP2'
p3249
I8
sS'E'
p3250
I11
sS'TO'
p3251
I7
sS'RP1'
p3252
I8
sS'JP'
p3253
I5
sS'RP_tot'
p3254
I9
sS'P'
p3255
I7
sS'PA'
p3256
I11
sS'M'
p3257
I10
sS'R'
p3258
I7
sS'TB'
p3259
I5
sS'PL'
p3260
I12
sS'TA'
p3261
I7
ssg233
g3230
sg234
I1
sg235
S'APA 10'
p3262
sg236
I0
sg237
I0
sg238
I0
sg239
I7
sg240
I1
sg241
I0
sg242
S'HE'
p3263
sbssg208
I6
sg209
I0
sg210
I0
sg211
I0
sg212
F9.703703703703704
sg213
I0
sg214
I0
sg215
I1
sg216
(dp3264
g323
I10
sg324
I9
sg325
I8
sg326
I11
sg327
I7
sg328
I8
sg329
I5
sg330
I9
sg331
I7
sg332
I11
sg333
I10
sg334
I7
sg335
I5
sg336
I12
sg337
I7
ssg233
(dp3265
g98
I11
sg99
I7
sg100
I9
sg101
I12
sg106
I6
sg103
I8
sg104
I5
sg105
I10
sg102
I8
sg107
I12
sg108
I9
sg109
I8
sg110
I5
sg111
I12
sg112
I7
ssg234
I0
sg339
(dp3266
sg236
I0
sg235
S'APA 10'
p3267
sg237
I0
sg238
I0
sg239
I14
sg240
I4
sg241
I0
sg242
S'HE'
p3268
sbsS'n2'
p3269
(ijoueur
joueur
p3270
(dp3271
g27
F10.185185185185185
sg28
I0
sg29
F10.482758620689655
sg30
S'PI -> TA : 13'
p3272
sg32
I0
sg33
F125.18948754335338
sg34
I0
sg35
g36
(g37
g38
Ntp3273
Rp3274
(dp3275
g42
I5
sg43
S'**'
p3276
sg45
S'seigneur'
p3277
sbsg47
(dp3278
g1694
I0
sg1695
I0
sg1696
I0
sg1697
I0
ssg53
(dp3279
g1694
I0
sg1695
I0
sg1696
I0
sg1697
I0
ssg55
I0
sg56
I0
sg212
F10.689655172413794
sg57
I0
sg58
F125.18948754335338
sg60
I0
sg61
I0
sg62
I0
sg63
(S'dummy'
p3280
S'TA'
p3281
S'PI'
p3282
S'TL'
p3283
tp3284
sg68
I00
sg69
g36
(g37
g38
Ntp3285
Rp3286
(dp3287
g42
I5
sg43
S'**'
p3288
sg45
g3277
sbsg74
(dp3289
g1709
I0
sg1710
I11
sg1711
I1
sg1712
I0
ssg59
I00
sg82
(dp3290
g1709
I0
sg1710
I0
sg1711
I0
sg1712
I0
ssg84
(dp3291
g1694
I0
sg1695
I13
sg1696
I2
sg1697
I36
ssg86
I0
sg87
I0
sg88
S'Van Rutard'
p3292
sg90
I4
sg91
I0
sg92
I14
sg93
I160
sg94
g1716
sg96
(dp3293
g1718
I8
sg1719
I10
sg1720
I9
sg1721
I10
sg1722
I8
sg1723
I9
sg1724
I4
sg1725
I11
sg1726
I6
sg1727
I11
sg1728
I9
sg1729
I12
sg1730
I2
sg1731
I9
sg1732
I13
ssg113
(dp3294
g1734
(ijoueur
joueur
p3295
(dp3296
g27
F10.185185185185185
sg28
I0
sg30
g31
sg32
I0
sg34
I0
sg35
g36
(g37
g38
Ntp3297
Rp3298
(dp3299
g42
I5
sg43
S'**'
p3300
sg45
S'seigneur'
p3301
sbsg47
(dp3302
g1743
I0
sg1744
I13
sg1745
I1
sg1746
I25
ssg53
(dp3303
g1743
I0
sg1744
I0
sg1745
I0
sg1746
I0
ssg56
I0
sg57
I0
sg59
I00
sg60
I3
sg61
I0
sg62
I0
sg63
(g1748
S'PI'
p3304
S'TA'
p3305
S'TL'
p3306
tp3307
sg68
I00
sg69
g36
(g37
g38
Ntp3308
Rp3309
(dp3310
g42
I5
sg43
S'**'
p3311
sg45
g3301
sbsg74
(dp3312
g1758
I0
sg1759
I0
sg1760
I0
sg1761
I0
ssg80
(dp3313
g1758
I0
sg1759
I12
sg1760
I0
sg1761
I7
ssg82
(dp3314
g1758
I0
sg1759
I0
sg1760
I0
sg1761
I0
ssg84
(dp3315
g1743
I0
sg1744
I0
sg1745
I0
sg1746
I0
ssg86
I0
sg87
I0
sg88
S'Van Rutard'
p3316
sg90
I4
sg91
I0
sg92
I14
sg93
I160
sg94
g1766
sg96
(dp3317
g1768
I8
sg1769
I8
sg1770
I9
sg1771
I10
sg1772
I6
sg1773
I9
sg1774
I4
sg1775
I11
sg1776
I7
sg1777
I11
sg1778
I9
sg1779
I12
sg1780
I2
sg1781
I9
sg1782
I13
ssg113
(dp3318
g1784
(ijoueur
joueur
p3319
(dp3320
g28
I0
sg32
I0
sg34
I0
sg35
g36
(g37
g38
Ntp3321
Rp3322
(dp3323
g42
I5
sg43
S'**'
p3324
sg45
S'seigneur'
p3325
sbsg47
(dp3326
S'SR'
p3327
I0
sS'CT'
p3328
I13
sS'CR'
p3329
I1
sS'ST'
p3330
I6
ssg53
(dp3331
g3327
I0
sg3328
I0
sg3329
I0
sg3330
I0
ssg56
I0
sg57
I0
sg59
I00
sg60
I1
sg61
I0
sg62
I0
sg63
(S'dummy'
p3332
S'PI'
p3333
S'TA'
p3334
S'TL'
p3335
tp3336
sg68
I00
sg69
g36
(g37
g38
Ntp3337
Rp3338
(dp3339
g42
I5
sg43
S'**'
p3340
sg45
g3325
sbsg74
(dp3341
g3327
I0
sg3328
I0
sg3329
I0
sg3330
I0
ssg80
(dp3342
g3327
I0
sg3328
I13
sg3329
I1
sg3330
I6
ssg82
(dp3343
g3327
I0
sg3328
I0
sg3329
I0
sg3330
I0
ssg84
(dp3344
g3327
I0
sg3328
I0
sg3329
I0
sg3330
I0
ssg86
I0
sg87
I0
sg88
S'Van Rutard'
p3345
sg90
I4
sg91
I0
sg92
I14
sg93
I160
sg94
S'SN'
p3346
sg96
(dp3347
S'A'
p3348
I9
sS'ME'
p3349
I9
sS'RP2'
p3350
I9
sS'E'
p3351
I10
sS'P'
p3352
I7
sS'RP1'
p3353
I9
sS'JP'
p3354
I4
sS'RP_tot'
p3355
I11
sS'TO'
p3356
I6
sS'PA'
p3357
I11
sS'M'
p3358
I9
sS'R'
p3359
I12
sS'TB'
p3360
I2
sS'PL'
p3361
I9
sS'TA'
p3362
I13
ssg208
I0
sg209
I0
sg210
I0
sg211
I0
sg212
F10.379310344827585
sg213
I0
sg214
I0
sg215
I0
sg216
(dp3363
S'A'
p3364
I9
sS'ME'
p3365
I9
sS'RP2'
p3366
I9
sS'E'
p3367
I10
sS'P'
p3368
I7
sS'RP1'
p3369
I9
sS'JP'
p3370
I4
sS'RP_tot'
p3371
I11
sS'TO'
p3372
I6
sS'PA'
p3373
I11
sS'M'
p3374
I9
sS'R'
p3375
I12
sS'TB'
p3376
I2
sS'PL'
p3377
I9
sS'TA'
p3378
I13
ssg233
g3347
sg234
I0
sg235
g31
sg236
I0
sg237
I0
sg238
I0
sg239
I26
sg240
I25
sg241
I0
sg242
S'EMP'
p3379
sbssg208
I9
sg209
I0
sg210
I1
sg211
I0
sg212
F10.137931034482758
sg213
I0
sg214
I1
sg215
I1
sg216
(dp3380
g1847
I9
sg1848
I9
sg1849
I9
sg1850
I10
sg1851
I7
sg1852
I9
sg1853
I4
sg1854
I11
sg1855
I6
sg1856
I11
sg1857
I9
sg1858
I12
sg1859
I2
sg1860
I9
sg1861
I13
ssg233
g3317
sg234
I0
sg235
g31
sg236
I0
sg237
I0
sg238
I0
sg239
I26
sg240
I28
sg241
I1
sg242
S'EMP'
p3381
sbsg1863
(ijoueur
joueur
p3382
(dp3383
g28
I0
sg32
I0
sg34
I0
sg35
g36
(g37
g38
Ntp3384
Rp3385
(dp3386
g42
I5
sg43
S'**'
p3387
sg45
S'seigneur'
p3388
sbsg47
(dp3389
S'SR'
p3390
I0
sS'CT'
p3391
I13
sS'CR'
p3392
I1
sS'ST'
p3393
I6
ssg53
(dp3394
g3390
I0
sg3391
I0
sg3392
I0
sg3393
I0
ssg56
I0
sg57
I0
sg59
I00
sg60
I1
sg61
I0
sg62
I0
sg63
(S'dummy'
p3395
S'PI'
p3396
S'TA'
p3397
S'TL'
p3398
tp3399
sg68
I00
sg69
g36
(g37
g38
Ntp3400
Rp3401
(dp3402
g42
I5
sg43
S'**'
p3403
sg45
g3388
sbsg74
(dp3404
g3390
I0
sg3391
I0
sg3392
I0
sg3393
I0
ssg80
(dp3405
g3390
I0
sg3391
I13
sg3392
I1
sg3393
I6
ssg82
(dp3406
g3390
I0
sg3391
I0
sg3392
I0
sg3393
I0
ssg84
(dp3407
g3390
I0
sg3391
I0
sg3392
I0
sg3393
I0
ssg86
I0
sg87
I0
sg88
S'Van Rutard'
p3408
sg90
I4
sg91
I0
sg92
I14
sg93
I160
sg94
S'SN'
p3409
sg96
(dp3410
S'A'
p3411
I9
sS'ME'
p3412
I9
sS'RP2'
p3413
I9
sS'E'
p3414
I10
sS'P'
p3415
I7
sS'RP1'
p3416
I9
sS'JP'
p3417
I4
sS'RP_tot'
p3418
I11
sS'TO'
p3419
I6
sS'PA'
p3420
I11
sS'M'
p3421
I9
sS'R'
p3422
I12
sS'TB'
p3423
I2
sS'PL'
p3424
I9
sS'TA'
p3425
I13
ssg208
I0
sg209
I0
sg210
I0
sg211
I0
sg212
F10.379310344827585
sg213
I0
sg214
I0
sg215
I0
sg216
(dp3426
S'A'
p3427
I9
sS'ME'
p3428
I9
sS'RP2'
p3429
I9
sS'E'
p3430
I10
sS'P'
p3431
I7
sS'RP1'
p3432
I9
sS'JP'
p3433
I4
sS'RP_tot'
p3434
I11
sS'TO'
p3435
I6
sS'PA'
p3436
I11
sS'M'
p3437
I9
sS'R'
p3438
I12
sS'TB'
p3439
I2
sS'PL'
p3440
I9
sS'TA'
p3441
I13
ssg233
g3410
sg234
I0
sg235
g31
sg236
I0
sg237
I0
sg238
I0
sg239
I26
sg240
I25
sg241
I0
sg242
S'EMP'
p3442
sbssg208
I7
sg209
I0
sg210
I1
sg211
I0
sg80
(dp3443
g1709
I0
sg1710
I0
sg1711
I0
sg1712
I0
ssg213
I0
sg214
I0
sg215
I2
sg216
(dp3444
g1927
I9
sg1928
I9
sg1929
I9
sg1930
I10
sg1931
I7
sg1932
I9
sg1933
I4
sg1934
I11
sg1935
I6
sg1936
I11
sg1937
I9
sg1938
I12
sg1939
I2
sg1940
I9
sg1941
I13
ssg233
(dp3445
g1718
I8
sg1719
I10
sg1720
I9
sg1721
I10
sg1726
I6
sg1723
I9
sg1724
I4
sg1725
I11
sg1722
I8
sg1727
I11
sg1728
I9
sg1729
I12
sg1730
I2
sg1731
I9
sg1732
I13
ssg234
I0
sg339
(dp3446
sg236
I0
sg235
g31
sg237
I0
sg238
I0
sg239
I26
sg240
I28
sg241
I1
sg242
S'EMP'
p3447
sbsS'n3'
p3448
(ijoueur
joueur
p3449
(dp3450
g27
F10.62962962962963
sg28
I0
sg29
F10.777777777777779
sg30
g31
sg32
I0
sg33
F125.32236890484117
sg34
I0
sg35
g36
(g37
g38
Ntp3451
Rp3452
(dp3453
g42
I1
sg43
S'>'
p3454
sg45
S'base'
p3455
sbsg47
(dp3456
g1694
I0
sg1695
I0
sg1696
I0
sg1697
I0
ssg53
(dp3457
g1694
I0
sg1695
I0
sg1696
I0
sg1697
I0
ssg55
I0
sg56
I0
sg212
F10.37037037037037
sg57
I0
sg58
F125.32236890484117
sg60
I2
sg61
I0
sg62
I0
sg63
(g1699
S'PI'
p3458
g31
g31
tp3459
sg68
I00
sg69
g36
(g37
g38
Ntp3460
Rp3461
(dp3462
g42
I1
sg43
g3454
sg45
g3455
sbsg74
(dp3463
g1709
I0
sg1710
I12
sg1711
I0
sg1712
I0
ssg59
I00
sg82
(dp3464
g1709
I0
sg1710
I0
sg1711
I0
sg1712
I0
ssg84
(dp3465
g1694
I0
sg1695
I10
sg1696
I0
sg1697
I40
ssg86
I0
sg87
I0
sg88
S'Hugd'
p3466
sg90
I2
sg91
I0
sg92
I13
sg93
I100
sg94
g1716
sg96
(dp3467
g1718
I8
sg1719
I13
sg1720
I8
sg1721
I9
sg1722
I6
sg1723
I12
sg1724
I4
sg1725
I13
sg1726
I2
sg1727
I6
sg1728
I7
sg1729
I9
sg1730
I4
sg1731
I8
sg1732
I6
ssg113
(dp3468
g1734
(ijoueur
joueur
p3469
(dp3470
g27
F10.62962962962963
sg28
I0
sg30
g31
sg32
I0
sg34
I0
sg35
g36
(g37
g38
Ntp3471
Rp3472
(dp3473
g42
I1
sg43
S'>'
p3474
sg45
S'base'
p3475
sbsg47
(dp3476
g1743
I0
sg1744
I0
sg1745
I0
sg1746
I0
ssg53
(dp3477
g1743
I0
sg1744
I0
sg1745
I0
sg1746
I0
ssg56
I0
sg57
I0
sg59
I00
sg60
I2
sg61
I0
sg62
I0
sg63
(g1748
S'PI'
p3478
g31
g31
tp3479
sg68
I00
sg69
g36
(g37
g38
Ntp3480
Rp3481
(dp3482
g42
I1
sg43
g3474
sg45
g3475
sbsg74
(dp3483
g1758
I0
sg1759
I14
sg1760
I0
sg1761
I5
ssg80
(dp3484
g1758
I0
sg1759
I0
sg1760
I0
sg1761
I0
ssg82
(dp3485
g1758
I0
sg1759
I0
sg1760
I0
sg1761
I0
ssg84
(dp3486
g1743
I0
sg1744
I10
sg1745
I0
sg1746
I28
ssg86
I0
sg87
I0
sg88
S'Hugd'
p3487
sg90
I2
sg91
I0
sg92
I13
sg93
I100
sg94
g1766
sg96
(dp3488
g1768
I9
sg1769
I13
sg1770
I8
sg1771
I9
sg1772
I2
sg1773
I13
sg1774
I4
sg1775
I14
sg1776
I6
sg1777
I6
sg1778
I8
sg1779
I11
sg1780
I4
sg1781
I9
sg1782
I6
ssg113
(dp3489
g1784
(ijoueur
joueur
p3490
(dp3491
g28
I0
sg32
I0
sg34
I0
sg35
g36
(g37
g38
Ntp3492
Rp3493
(dp3494
g42
I1
sg43
S'>'
p3495
sg45
S'base'
p3496
sbsg47
(dp3497
S'SR'
p3498
I0
sS'CT'
p3499
I0
sS'CR'
p3500
I0
sS'ST'
p3501
I0
ssg53
(dp3502
g3498
I0
sg3499
I0
sg3500
I0
sg3501
I0
ssg56
I0
sg57
I0
sg59
I00
sg60
I3
sg61
I0
sg62
I0
sg63
(S'dummy'
p3503
S'PI'
p3504
g31
g31
tp3505
sg68
I00
sg69
g36
(g37
g38
Ntp3506
Rp3507
(dp3508
g42
I1
sg43
g3495
sg45
g3496
sbsg74
(dp3509
g3498
I0
sg3499
I14
sg3500
I0
sg3501
I5
ssg80
(dp3510
g3498
I0
sg3499
I0
sg3500
I0
sg3501
I0
ssg82
(dp3511
g3498
I0
sg3499
I0
sg3500
I0
sg3501
I0
ssg84
(dp3512
g3498
I0
sg3499
I14
sg3500
I0
sg3501
I5
ssg86
I0
sg87
I0
sg88
S'Hugd'
p3513
sg90
I2
sg91
I0
sg92
I13
sg93
I100
sg94
S'SN'
p3514
sg96
(dp3515
S'A'
p3516
I9
sS'ME'
p3517
I13
sS'RP2'
p3518
I6
sS'E'
p3519
I9
sS'P'
p3520
I6
sS'RP1'
p3521
I13
sS'JP'
p3522
I4
sS'RP_tot'
p3523
I13
sS'TO'
p3524
I2
sS'PA'
p3525
I6
sS'M'
p3526
I8
sS'R'
p3527
I11
sS'TB'
p3528
I4
sS'PL'
p3529
I9
sS'TA'
p3530
I6
ssg208
I0
sg209
I0
sg210
I0
sg211
I0
sg212
F10.62962962962963
sg213
I0
sg214
I0
sg215
I0
sg216
(dp3531
S'A'
p3532
I9
sS'ME'
p3533
I13
sS'RP2'
p3534
I6
sS'E'
p3535
I9
sS'P'
p3536
I6
sS'RP1'
p3537
I13
sS'JP'
p3538
I4
sS'RP_tot'
p3539
I13
sS'TO'
p3540
I2
sS'PA'
p3541
I6
sS'M'
p3542
I8
sS'R'
p3543
I11
sS'TB'
p3544
I4
sS'PL'
p3545
I9
sS'TA'
p3546
I6
ssg233
g3515
sg234
I0
sg235
S'HTH 11'
p3547
sg236
I0
sg237
I0
sg238
I0
sg239
I10
sg240
I5
sg241
I0
sg242
S'O'
p3548
sbssg208
I5
sg209
I0
sg210
I0
sg211
I0
sg212
F10.777777777777779
sg213
I0
sg214
I0
sg215
I0
sg216
(dp3549
g1847
I9
sg1848
I13
sg1849
I6
sg1850
I9
sg1851
I6
sg1852
I13
sg1853
I4
sg1854
I13
sg1855
I2
sg1856
I6
sg1857
I8
sg1858
I11
sg1859
I4
sg1860
I9
sg1861
I6
ssg233
g3488
sg234
I0
sg235
S'HTH 11'
p3550
sg236
I0
sg237
I0
sg238
I0
sg239
I10
sg240
I7
sg241
I0
sg242
S'O'
p3551
sbsg1863
(ijoueur
joueur
p3552
(dp3553
g28
I0
sg32
I0
sg34
I0
sg35
g36
(g37
g38
Ntp3554
Rp3555
(dp3556
g42
I1
sg43
S'>'
p3557
sg45
S'base'
p3558
sbsg47
(dp3559
S'SR'
p3560
I0
sS'CT'
p3561
I0
sS'CR'
p3562
I0
sS'ST'
p3563
I0
ssg53
(dp3564
g3560
I0
sg3561
I0
sg3562
I0
sg3563
I0
ssg56
I0
sg57
I0
sg59
I00
sg60
I3
sg61
I0
sg62
I0
sg63
(S'dummy'
p3565
S'PI'
p3566
g31
g31
tp3567
sg68
I00
sg69
g36
(g37
g38
Ntp3568
Rp3569
(dp3570
g42
I1
sg43
g3557
sg45
g3558
sbsg74
(dp3571
g3560
I0
sg3561
I14
sg3562
I0
sg3563
I5
ssg80
(dp3572
g3560
I0
sg3561
I0
sg3562
I0
sg3563
I0
ssg82
(dp3573
g3560
I0
sg3561
I0
sg3562
I0
sg3563
I0
ssg84
(dp3574
g3560
I0
sg3561
I14
sg3562
I0
sg3563
I5
ssg86
I0
sg87
I0
sg88
S'Hugd'
p3575
sg90
I2
sg91
I0
sg92
I13
sg93
I100
sg94
S'SN'
p3576
sg96
(dp3577
S'A'
p3578
I9
sS'ME'
p3579
I13
sS'RP2'
p3580
I6
sS'E'
p3581
I9
sS'P'
p3582
I6
sS'RP1'
p3583
I13
sS'JP'
p3584
I4
sS'RP_tot'
p3585
I13
sS'TO'
p3586
I2
sS'PA'
p3587
I6
sS'M'
p3588
I8
sS'R'
p3589
I11
sS'TB'
p3590
I4
sS'PL'
p3591
I9
sS'TA'
p3592
I6
ssg208
I0
sg209
I0
sg210
I0
sg211
I0
sg212
F10.62962962962963
sg213
I0
sg214
I0
sg215
I0
sg216
(dp3593
S'A'
p3594
I9
sS'ME'
p3595
I13
sS'RP2'
p3596
I6
sS'E'
p3597
I9
sS'P'
p3598
I6
sS'RP1'
p3599
I13
sS'JP'
p3600
I4
sS'RP_tot'
p3601
I13
sS'TO'
p3602
I2
sS'PA'
p3603
I6
sS'M'
p3604
I8
sS'R'
p3605
I11
sS'TB'
p3606
I4
sS'PL'
p3607
I9
sS'TA'
p3608
I6
ssg233
g3577
sg234
I0
sg235
S'HTH 11'
p3609
sg236
I0
sg237
I0
sg238
I0
sg239
I10
sg240
I5
sg241
I0
sg242
S'O'
p3610
sbssg208
I12
sg209
I0
sg210
I0
sg211
I0
sg80
(dp3611
g1709
I0
sg1710
I0
sg1711
I0
sg1712
I0
ssg213
I0
sg214
I0
sg215
I1
sg216
(dp3612
g1927
I9
sg1928
I13
sg1929
I6
sg1930
I9
sg1931
I6
sg1932
I13
sg1933
I4
sg1934
I13
sg1935
I2
sg1936
I6
sg1937
I8
sg1938
I11
sg1939
I4
sg1940
I9
sg1941
I6
ssg233
(dp3613
g1718
I9
sg1719
I13
sg1720
I8
sg1721
I9
sg1726
I2
sg1723
I12
sg1724
I4
sg1725
I13
sg1722
I6
sg1727
I6
sg1728
I7
sg1729
I10
sg1730
I4
sg1731
I9
sg1732
I6
ssg234
I0
sg339
(dp3614
sg236
I0
sg235
S'HTH 11'
p3615
sg237
I0
sg238
I0
sg239
I10
sg240
I9
sg241
I1
sg242
S'O'
p3616
sbsS'n4'
p3617
g1124
sS'n5'
p3618
(ijoueur
joueur
p3619
(dp3620
g27
F10.117647058823529
sg28
I0
sg29
F10.352941176470589
sg30
g31
sg32
I0
sg33
F125.32236890484117
sg34
I0
sg35
g36
(g37
g38
Ntp3621
Rp3622
(dp3623
g42
I4
sg43
S'*'
p3624
sg45
S'heros'
p3625
sbsg47
(dp3626
g1694
I0
sg1695
I7
sg1696
I0
sg1697
I0
ssg53
(dp3627
g1694
I0
sg1695
I0
sg1696
I0
sg1697
I0
ssg55
I0
sg56
I0
sg212
F10.235294117647058
sg57
I0
sg58
F125.32236890484117
sg60
I2
sg61
I0
sg62
I0
sg63
(g1699
S'DL'
p3628
S'TL'
p3629
g31
tp3630
sg68
I00
sg69
g36
(g37
g38
Ntp3631
Rp3632
(dp3633
g42
I4
sg43
g3624
sg45
g3625
sbsg74
(dp3634
g1709
I0
sg1710
I12
sg1711
I0
sg1712
I0
ssg59
I00
sg82
(dp3635
g1709
I0
sg1710
I0
sg1711
I0
sg1712
I0
ssg84
(dp3636
g1694
I0
sg1695
I6
sg1696
I0
sg1697
I38
ssg86
I0
sg362
I1
sg87
I0
sg88
S'Remod'
p3637
sg90
I8
sg91
I0
sg92
I20
sg93
I99
sg94
g1716
sg364
I1
sg96
(dp3638
g1718
I11
sg1719
I9
sg1720
I9
sg1721
I9
sg1722
I6
sg1723
I10
sg1724
I5
sg1725
I11
sg1726
I11
sg1727
I10
sg1728
I8
sg1729
I10
sg1730
I5
sg1731
I8
sg1732
I7
ssg113
(dp3639
g1734
(ijoueur
joueur
p3640
(dp3641
g27
F10.117647058823529
sg28
I0
sg30
g31
sg32
I0
sg34
I0
sg35
g36
(g37
g38
Ntp3642
Rp3643
(dp3644
g42
I4
sg43
S'*'
p3645
sg45
S'heros'
p3646
sbsg47
(dp3647
g1743
I0
sg1744
I7
sg1745
I0
sg1746
I0
ssg53
(dp3648
g1743
I0
sg1744
I0
sg1745
I0
sg1746
I0
ssg56
I0
sg57
I0
sg59
I01
sg60
I2
sg61
I0
sg62
I0
sg63
(g1748
S'DL'
p3649
S'TL'
p3650
g31
tp3651
sg68
I00
sg69
g36
(g37
g38
Ntp3652
Rp3653
(dp3654
g42
I4
sg43
g3645
sg45
g3646
sbsg74
(dp3655
g1758
I0
sg1759
I14
sg1760
I0
sg1761
I0
ssg80
(dp3656
g1758
I0
sg1759
I0
sg1760
I0
sg1761
I7
ssg82
(dp3657
g1758
I0
sg1759
I0
sg1760
I0
sg1761
I0
ssg84
(dp3658
g1743
I0
sg1744
I6
sg1745
I0
sg1746
I26
ssg86
I0
sg362
I1
sg87
I0
sg88
S'Remod'
p3659
sg90
I8
sg91
I0
sg92
I20
sg93
I99
sg94
g1766
sg364
I1
sg96
(dp3660
g1768
I12
sg1769
I9
sg1770
I9
sg1771
I9
sg1772
I11
sg1773
I10
sg1774
I5
sg1775
I12
sg1776
I6
sg1777
I10
sg1778
I8
sg1779
I11
sg1780
I5
sg1781
I9
sg1782
I7
ssg113
(dp3661
g1784
(ijoueur
joueur
p3662
(dp3663
g28
I0
sg32
I0
sg34
I0
sg35
g36
(g37
g38
Ntp3664
Rp3665
(dp3666
g42
I4
sg43
S'*'
p3667
sg45
S'heros'
p3668
sbsg47
(dp3669
S'SR'
p3670
I0
sS'CT'
p3671
I0
sS'CR'
p3672
I0
sS'ST'
p3673
I0
ssg53
(dp3674
g3670
I0
sg3671
I0
sg3672
I0
sg3673
I0
ssg56
I0
sg57
I0
sg59
I01
sg60
I0
sg61
I0
sg62
I0
sg63
(S'dummy'
p3675
S'DL'
p3676
S'TL'
p3677
g31
tp3678
sg68
I00
sg69
g36
(g37
g38
Ntp3679
Rp3680
(dp3681
g42
I4
sg43
g3667
sg45
g3668
sbsg74
(dp3682
g3670
I0
sg3671
I12
sg3672
I0
sg3673
I6
ssg80
(dp3683
g3670
I0
sg3671
I0
sg3672
I0
sg3673
I0
ssg82
(dp3684
g3670
I0
sg3671
I0
sg3672
I0
sg3673
I0
ssg84
(dp3685
g3670
I0
sg3671
I12
sg3672
I0
sg3673
I6
ssg86
I0
sg362
I1
sg87
I0
sg88
S'Remod'
p3686
sg90
I8
sg91
I0
sg92
I20
sg93
I99
sg94
S'SN'
p3687
sg364
I1
sg96
(dp3688
S'A'
p3689
I12
sS'ME'
p3690
I8
sS'RP2'
p3691
I9
sS'E'
p3692
I9
sS'P'
p3693
I6
sS'RP1'
p3694
I9
sS'JP'
p3695
I5
sS'RP_tot'
p3696
I11
sS'TO'
p3697
I11
sS'PA'
p3698
I10
sS'M'
p3699
I8
sS'R'
p3700
I11
sS'TB'
p3701
I5
sS'PL'
p3702
I9
sS'TA'
p3703
I7
ssg208
I0
sg209
I0
sg210
I1
sg211
I0
sg212
F10.117647058823529
sg213
I0
sg214
I1
sg215
I0
sg216
(dp3704
S'A'
p3705
I12
sS'ME'
p3706
I8
sS'RP2'
p3707
I9
sS'E'
p3708
I9
sS'P'
p3709
I6
sS'RP1'
p3710
I9
sS'JP'
p3711
I5
sS'RP_tot'
p3712
I11
sS'TO'
p3713
I11
sS'PA'
p3714
I10
sS'M'
p3715
I8
sS'R'
p3716
I11
sS'TB'
p3717
I5
sS'PL'
p3718
I9
sS'TA'
p3719
I7
ssg233
g3688
sg234
I0
sg235
S'PRG 10'
p3720
sg236
I0
sg237
I0
sg238
I0
sg239
I7
sg240
I0
sg241
I0
sg242
S'EMP'
p3721
sbssg208
I8
sg209
I0
sg210
I1
sg211
I0
sg212
F10.352941176470589
sg213
I0
sg214
I0
sg215
I1
sg216
(dp3722
g1847
I12
sg1848
I8
sg1849
I9
sg1850
I9
sg1851
I6
sg1852
I9
sg1853
I5
sg1854
I11
sg1855
I11
sg1856
I10
sg1857
I8
sg1858
I11
sg1859
I5
sg1860
I9
sg1861
I7
ssg233
g3660
sg234
I0
sg235
S'PRG 10'
p3723
sg236
I0
sg237
I0
sg238
I0
sg239
I7
sg240
I2
sg241
I1
sg242
S'EMP'
p3724
sbsg1863
(ijoueur
joueur
p3725
(dp3726
g28
I0
sg32
I0
sg34
I0
sg35
g36
(g37
g38
Ntp3727
Rp3728
(dp3729
g42
I4
sg43
S'*'
p3730
sg45
S'heros'
p3731
sbsg47
(dp3732
S'SR'
p3733
I0
sS'CT'
p3734
I0
sS'CR'
p3735
I0
sS'ST'
p3736
I0
ssg53
(dp3737
g3733
I0
sg3734
I0
sg3735
I0
sg3736
I0
ssg56
I0
sg57
I0
sg59
I01
sg60
I0
sg61
I0
sg62
I0
sg63
(S'dummy'
p3738
S'DL'
p3739
S'TL'
p3740
g31
tp3741
sg68
I00
sg69
g36
(g37
g38
Ntp3742
Rp3743
(dp3744
g42
I4
sg43
g3730
sg45
g3731
sbsg74
(dp3745
g3733
I0
sg3734
I12
sg3735
I0
sg3736
I6
ssg80
(dp3746
g3733
I0
sg3734
I0
sg3735
I0
sg3736
I0
ssg82
(dp3747
g3733
I0
sg3734
I0
sg3735
I0
sg3736
I0
ssg84
(dp3748
g3733
I0
sg3734
I12
sg3735
I0
sg3736
I6
ssg86
I0
sg362
I1
sg87
I0
sg88
S'Remod'
p3749
sg90
I8
sg91
I0
sg92
I20
sg93
I99
sg94
S'SN'
p3750
sg364
I1
sg96
(dp3751
S'A'
p3752
I12
sS'ME'
p3753
I8
sS'RP2'
p3754
I9
sS'E'
p3755
I9
sS'P'
p3756
I6
sS'RP1'
p3757
I9
sS'JP'
p3758
I5
sS'RP_tot'
p3759
I11
sS'TO'
p3760
I11
sS'PA'
p3761
I10
sS'M'
p3762
I8
sS'R'
p3763
I11
sS'TB'
p3764
I5
sS'PL'
p3765
I9
sS'TA'
p3766
I7
ssg208
I0
sg209
I0
sg210
I1
sg211
I0
sg212
F10.117647058823529
sg213
I0
sg214
I1
sg215
I0
sg216
(dp3767
S'A'
p3768
I12
sS'ME'
p3769
I8
sS'RP2'
p3770
I9
sS'E'
p3771
I9
sS'P'
p3772
I6
sS'RP1'
p3773
I9
sS'JP'
p3774
I5
sS'RP_tot'
p3775
I11
sS'TO'
p3776
I11
sS'PA'
p3777
I10
sS'M'
p3778
I8
sS'R'
p3779
I11
sS'TB'
p3780
I5
sS'PL'
p3781
I9
sS'TA'
p3782
I7
ssg233
g3751
sg234
I0
sg235
S'PRG 10'
p3783
sg236
I0
sg237
I0
sg238
I0
sg239
I7
sg240
I0
sg241
I0
sg242
S'EMP'
p3784
sbssg208
I13
sg209
I0
sg210
I1
sg211
I0
sg80
(dp3785
g1709
I0
sg1710
I0
sg1711
I0
sg1712
I0
ssg213
I0
sg214
I0
sg215
I1
sg216
(dp3786
g1927
I12
sg1928
I8
sg1929
I9
sg1930
I9
sg1931
I6
sg1932
I9
sg1933
I5
sg1934
I11
sg1935
I11
sg1936
I10
sg1937
I8
sg1938
I11
sg1939
I5
sg1940
I9
sg1941
I7
ssg233
(dp3787
g1718
I12
sg1719
I9
sg1720
I9
sg1721
I9
sg1726
I11
sg1723
I10
sg1724
I5
sg1725
I11
sg1722
I6
sg1727
I10
sg1728
I8
sg1729
I11
sg1730
I5
sg1731
I9
sg1732
I7
ssg234
I0
sg339
(dp3788
sg236
I0
sg235
S'PRG 10'
p3789
sg237
I0
sg238
I0
sg239
I7
sg240
I4
sg241
I0
sg242
S'EMP'
p3790
sbsS'n6'
p3791
g770
sS'n7'
p3792
(ijoueur
joueur
p3793
(dp3794
g27
F9.67741935483871
sg28
I0
sg29
F9.580645161290322
sg30
g31
sg32
I0
sg33
F124.28289489414621
sg34
I0
sg35
g36
(g37
g38
Ntp3795
Rp3796
(dp3797
g42
I2
sg43
S'<<'
p3798
sg45
g46
sbsg47
(dp3799
g49
I0
sg50
I0
sg51
I0
sg52
I0
ssg53
(dp3800
g49
I0
sg50
I1
sg51
I11
sg52
I0
ssg55
I0
sg56
I0
sg57
I0
sg58
F124.28289489414621
sg59
I00
sg60
I0
sg61
I0
sg62
I0
sg63
(g64
S'TL'
p3801
S'DL'
p3802
S'PI'
p3803
tp3804
sg68
I00
sg69
g36
(g37
g38
Ntp3805
Rp3806
(dp3807
g42
I2
sg43
S'<<'
p3808
sg45
g46
sbsg74
(dp3809
g76
I0
sg77
I0
sg78
I10
sg79
I2
ssg80
(dp3810
g76
I0
sg77
I0
sg78
I0
sg79
I0
ssg82
(dp3811
g76
I0
sg77
I0
sg78
I0
sg79
I0
ssg84
(dp3812
g49
I0
sg50
I11
sg51
I12
sg52
I0
ssg86
I0
sg87
I0
sg88
S'Gnen'
p3813
sg90
I1
sg91
I0
sg92
I15
sg93
I14
sg94
g95
sg96
(dp3814
g98
I10
sg99
I9
sg100
I6
sg101
I10
sg102
I7
sg103
I9
sg104
I4
sg105
I9
sg106
I8
sg107
I8
sg108
I10
sg109
I9
sg110
I6
sg111
I11
sg112
I7
ssg113
(dp3815
g115
(ijoueur
joueur
p3816
(dp3817
g27
F9.67741935483871
sg28
I0
sg30
g31
sg32
I0
sg34
I0
sg35
g36
(g37
g38
Ntp3818
Rp3819
(dp3820
g42
I2
sg43
S'<<'
p3821
sg45
g122
sbsg47
(dp3822
g124
I0
sg125
I0
sg126
I0
sg127
I0
ssg53
(dp3823
g124
I0
sg125
I1
sg126
I11
sg127
I0
ssg80
(dp3824
g130
I0
sg131
I0
sg132
I0
sg133
I0
ssg56
I0
sg57
I0
sg60
I0
sg61
I0
sg62
I0
sg63
(g134
S'TL'
p3825
S'DL'
p3826
S'PI'
p3827
tp3828
sg68
I00
sg69
g36
(g37
g38
Ntp3829
Rp3830
(dp3831
g42
I2
sg43
S'<<'
p3832
sg45
g122
sbsg74
(dp3833
g130
I0
sg131
I0
sg132
I0
sg133
I3
ssg59
I00
sg82
(dp3834
g130
I0
sg131
I0
sg132
I11
sg133
I1
ssg84
(dp3835
g124
I0
sg125
I9
sg126
I2
sg127
I0
ssg86
I0
sg87
I0
sg88
S'Gnen (12)'
p3836
sg90
I1
sg91
I0
sg92
I15
sg93
I14
sg94
g146
sg96
(dp3837
g148
I10
sg149
I8
sg150
I6
sg151
I10
sg152
I7
sg153
I9
sg154
I4
sg155
I9
sg156
I7
sg157
I8
sg158
I10
sg159
I9
sg160
I6
sg161
I11
sg162
I7
ssg113
(dp3838
g164
(ijoueur
joueur
p3839
(dp3840
g28
I0
sg32
I0
sg34
I0
sg35
g36
(g37
g38
Ntp3841
Rp3842
(dp3843
g42
I2
sg43
S'<<'
p3844
sg45
S'special'
p3845
sbsg47
(dp3846
S'SR'
p3847
I0
sS'ST'
p3848
I0
sS'CR'
p3849
I0
sS'CT'
p3850
I0
ssg53
(dp3851
g3847
I0
sg3848
I0
sg3849
I0
sg3850
I0
ssg56
I0
sg57
I0
sg59
I01
sg60
I0
sg61
I0
sg62
I0
sg63
(S'dummy'
p3852
S'TL'
p3853
S'DL'
p3854
S'PI'
p3855
tp3856
sg68
I01
sg69
g36
(g37
g38
Ntp3857
Rp3858
(dp3859
g42
I2
sg43
S'<<'
p3860
sg45
g3845
sbsg74
(dp3861
g3847
I0
sg3848
I0
sg3849
I2
sg3850
I6
ssg80
(dp3862
g3847
I0
sg3848
I0
sg3849
I0
sg3850
I0
ssg82
(dp3863
g3847
I0
sg3848
I0
sg3849
I0
sg3850
I0
ssg84
(dp3864
g3847
I0
sg3848
I0
sg3849
I2
sg3850
I6
ssg86
I0
sg87
I0
sg88
S'Gnen'
p3865
sg90
I1
sg91
I0
sg92
I15
sg93
I14
sg94
S'SN'
p3866
sg96
(dp3867
S'A'
p3868
I11
sS'ME'
p3869
I8
sS'RP2'
p3870
I6
sS'E'
p3871
I10
sS'TO'
p3872
I7
sS'RP1'
p3873
I9
sS'JP'
p3874
I4
sS'RP_tot'
p3875
I9
sS'P'
p3876
I7
sS'PA'
p3877
I8
sS'M'
p3878
I10
sS'R'
p3879
I9
sS'TB'
p3880
I6
sS'PL'
p3881
I11
sS'TA'
p3882
I7
ssg208
I0
sg209
I0
sg210
I0
sg211
I0
sg212
F9.67741935483871
sg213
I0
sg214
I0
sg215
I0
sg216
(dp3883
S'A'
p3884
I11
sS'ME'
p3885
I8
sS'RP2'
p3886
I6
sS'E'
p3887
I10
sS'TO'
p3888
I7
sS'RP1'
p3889
I9
sS'JP'
p3890
I4
sS'RP_tot'
p3891
I9
sS'P'
p3892
I7
sS'PA'
p3893
I8
sS'M'
p3894
I10
sS'R'
p3895
I9
sS'TB'
p3896
I6
sS'PL'
p3897
I11
sS'TA'
p3898
I7
ssg233
g3867
sg234
I0
sg235
g31
sg236
I0
sg237
I0
sg238
I0
sg239
I1
sg240
I8
sg241
I0
sg242
S'S'
p3899
sbssg208
I1
sg209
I0
sg210
I1
sg211
I0
sg212
F9.580645161290322
sg213
I0
sg214
I1
sg215
I0
sg216
(dp3900
g245
I11
sg246
I8
sg247
I6
sg248
I10
sg249
I7
sg250
I9
sg251
I4
sg252
I9
sg253
I7
sg254
I8
sg255
I10
sg256
I9
sg257
I6
sg258
I11
sg259
I7
ssg233
g3837
sg234
I0
sg235
g31
sg236
I0
sg237
I0
sg238
I0
sg239
I5
sg240
I8
sg241
I0
sg242
g260
sbsg261
(ijoueur
joueur
p3901
(dp3902
g28
I0
sg32
I0
sg34
I0
sg35
g36
(g37
g38
Ntp3903
Rp3904
(dp3905
g42
I2
sg43
S'<<'
p3906
sg45
S'special'
p3907
sbsg47
(dp3908
S'SR'
p3909
I0
sS'ST'
p3910
I0
sS'CR'
p3911
I0
sS'CT'
p3912
I0
ssg53
(dp3913
g3909
I0
sg3910
I0
sg3911
I0
sg3912
I0
ssg56
I0
sg57
I0
sg59
I01
sg60
I0
sg61
I0
sg62
I0
sg63
(S'dummy'
p3914
S'TL'
p3915
S'DL'
p3916
S'PI'
p3917
tp3918
sg68
I01
sg69
g36
(g37
g38
Ntp3919
Rp3920
(dp3921
g42
I2
sg43
S'<<'
p3922
sg45
g3907
sbsg74
(dp3923
g3909
I0
sg3910
I0
sg3911
I2
sg3912
I6
ssg80
(dp3924
g3909
I0
sg3910
I0
sg3911
I0
sg3912
I0
ssg82
(dp3925
g3909
I0
sg3910
I0
sg3911
I0
sg3912
I0
ssg84
(dp3926
g3909
I0
sg3910
I0
sg3911
I2
sg3912
I6
ssg86
I0
sg87
I0
sg88
S'Gnen (11)'
p3927
sg90
I1
sg91
I0
sg92
I15
sg93
I14
sg94
S'SN'
p3928
sg96
(dp3929
S'A'
p3930
I11
sS'ME'
p3931
I8
sS'RP2'
p3932
I6
sS'E'
p3933
I10
sS'TO'
p3934
I7
sS'RP1'
p3935
I9
sS'JP'
p3936
I4
sS'RP_tot'
p3937
I9
sS'P'
p3938
I7
sS'PA'
p3939
I8
sS'M'
p3940
I10
sS'R'
p3941
I9
sS'TB'
p3942
I6
sS'PL'
p3943
I11
sS'TA'
p3944
I7
ssg208
I0
sg209
I0
sg210
I0
sg211
I0
sg212
F9.67741935483871
sg213
I0
sg214
I0
sg215
I0
sg216
(dp3945
S'A'
p3946
I11
sS'ME'
p3947
I8
sS'RP2'
p3948
I6
sS'E'
p3949
I10
sS'TO'
p3950
I7
sS'RP1'
p3951
I9
sS'JP'
p3952
I4
sS'RP_tot'
p3953
I9
sS'P'
p3954
I7
sS'PA'
p3955
I8
sS'M'
p3956
I10
sS'R'
p3957
I9
sS'TB'
p3958
I6
sS'PL'
p3959
I11
sS'TA'
p3960
I7
ssg233
g3929
sg234
I0
sg235
g31
sg236
I0
sg237
I0
sg238
I0
sg239
I1
sg240
I8
sg241
I0
sg242
S'S'
p3961
sbssg208
I4
sg209
I0
sg210
I1
sg211
I0
sg212
F9.64516129032258
sg213
I0
sg214
I0
sg215
I0
sg216
(dp3962
g323
I11
sg324
I8
sg325
I6
sg326
I10
sg327
I7
sg328
I9
sg329
I4
sg330
I9
sg331
I7
sg332
I8
sg333
I10
sg334
I9
sg335
I6
sg336
I11
sg337
I7
ssg233
(dp3963
g98
I10
sg99
I9
sg100
I6
sg101
I10
sg106
I8
sg103
I9
sg104
I4
sg105
I9
sg102
I7
sg107
I8
sg108
I10
sg109
I9
sg110
I6
sg111
I11
sg112
I7
ssg234
I0
sg339
(dp3964
sg236
I0
sg235
g31
sg237
I0
sg238
I0
sg239
I5
sg240
I8
sg241
I0
sg242
g341
sbssS'remplacements'
p3965
(dp3966
g1945
S'n0'
p3967
sg1993
g3967
sg2534
g3967
sg2535
g3967
sg2536
g3967
sg2789
g3967
sg2830
g3967
ssb.