(iclub
compo
p0
(dp1
S'caracs_old'
p2
(dp3
S'A'
p4
F143.75
sS'ME'
p5
F103.25
sS'E'
p6
F216.5
sS'OplusAV'
p7
F114.5
sS'OplusAR'
p8
F121.25
sS'JP'
p9
F91.0
sS'PA'
p10
F108.5
sS'M'
p11
F94.0
sS'OmoinsAR'
p12
F100.75
sS'TO_off'
p13
F122.75
sS'TO_def'
p14
F113.0
sS'OmoinsAV'
p15
F100.25
sS'R'
p16
F189.75
ssS'totaux_old'
p17
(dp18
S'T2'
p19
F171.75
sS'T3'
p20
F108.25
sS'T1'
p21
F205.5
ssS'roles'
p22
(dp23
S'SA_scd'
p24
(ijoueur
joueur
p25
(dp26
S'EV_saison_11'
p27
F12.206896551724139
sS'rouges_total'
p28
I1
sS'EV_saison_12'
p29
F11.689655172413794
sS'changements_postes'
p30
S''
p31
sS'drops_total'
p32
I0
sS'xp_total'
p33
F74.18088867235844
sS'blessure'
p34
I0
sS'RG_max'
p35
ccopy_reg
_reconstructor
p36
(cjoueur
rang_new
p37
c__builtin__
object
p38
Ntp39
Rp40
(dp41
S'type_nb'
p42
I5
sS'rang'
p43
S'xx'
p44
sS'type'
p45
S'seigneur'
p46
sbsS'MJ2_total'
p47
(dp48
S'SR'
p49
I2
sS'CT'
p50
I7
sS'CR'
p51
I1
sS'ST'
p52
I0
ssS'MJ3_total'
p53
(dp54
g49
I0
sg50
I0
sg51
I0
sg52
I0
ssS'xp'
p55
I0
sS'drop_rates_total'
p56
I0
sS'drop_rates_saison'
p57
I0
sS'xp_saison'
p58
F74.18088867235844
sS'MS_probleme'
p59
I00
sS'essais_saison'
p60
I2
sS'penalite_ratees_saison'
p61
I0
sS'transformations_saison'
p62
I0
sS'postes'
p63
(S'dummy'
p64
S'N8'
p65
S'TL'
p66
g31
tp67
sS'veut_partir'
p68
I00
sS'RG'
p69
g36
(g37
g38
Ntp70
Rp71
(dp72
g42
I5
sg43
S'xx'
p73
sg45
g46
sbsS'MJ1'
p74
(dp75
S'SR'
p76
I0
sS'ST'
p77
I0
sS'CR'
p78
I0
sS'CT'
p79
I1
ssS'MJ2'
p80
(dp81
g76
I0
sg77
I0
sg78
I0
sg79
I6
ssS'MJ3'
p82
(dp83
g76
I0
sg77
I0
sg78
I0
sg79
I0
ssS'MJ1_total'
p84
(dp85
g49
I0
sg50
I25
sg51
I0
sg52
I13
ssS'penalites_total'
p86
I0
sS'penalites_saison'
p87
I0
sS'nom'
p88
S'Magh'
p89
sS'C'
p90
I7
sS'transformations_total'
p91
I0
sS'D'
p92
I17
sS'VAL'
p93
I568
sS'club'
p94
S'TO'
p95
sS'caracs'
p96
(dp97
S'A'
p98
I8
sS'ME'
p99
I12
sS'RP2'
p100
I7
sS'E'
p101
I12
sS'TO'
p102
I11
sS'RP1'
p103
I16
sS'JP'
p104
I8
sS'RP_tot'
p105
I16
sS'P'
p106
I7
sS'PA'
p107
I8
sS'M'
p108
I13
sS'R'
p109
I11
sS'TB'
p110
I7
sS'PL'
p111
I9
sS'TA'
p112
I10
ssS'jj_passe'
p113
(dp114
S's12'
p115
(ijoueur
joueur
p116
(dp117
g27
F12.206896551724139
sg28
I1
sg30
g31
sg32
I0
sg34
I0
sg35
g36
(g37
g38
Ntp118
Rp119
(dp120
g42
I5
sg43
S'xx'
p121
sg45
S'seigneur'
p122
sbsg47
(dp123
S'SR'
p124
I2
sS'CT'
p125
I1
sS'CR'
p126
I1
sS'ST'
p127
I0
ssg53
(dp128
g124
I0
sg125
I0
sg126
I0
sg127
I0
ssg80
(dp129
S'SR'
p130
I2
sS'ST'
p131
I0
sS'CR'
p132
I1
sS'CT'
p133
I1
ssg56
I0
sg57
I0
sg60
I6
sg61
I0
sg62
I0
sg63
(S'dummy'
p134
S'N8'
p135
S'TL'
p136
g31
tp137
sg68
I01
sg69
g36
(g37
g38
Ntp138
Rp139
(dp140
g42
I5
sg43
S'xx'
p141
sg45
g122
sbsg74
(dp142
g130
I0
sg131
I4
sg132
I0
sg133
I12
ssg59
I00
sg82
(dp143
g130
I0
sg131
I0
sg132
I0
sg133
I0
ssg84
(dp144
g124
I0
sg125
I24
sg126
I0
sg127
I13
ssg86
I0
sg87
I0
sg88
S'Magh'
p145
sg90
I7
sg91
I0
sg92
I17
sg93
I303
sg94
S'SN'
p146
sg96
(dp147
S'A'
p148
I8
sS'ME'
p149
I12
sS'RP2'
p150
I7
sS'E'
p151
I11
sS'P'
p152
I7
sS'RP1'
p153
I16
sS'JP'
p154
I7
sS'RP_tot'
p155
I16
sS'TO'
p156
I10
sS'PA'
p157
I8
sS'M'
p158
I13
sS'R'
p159
I12
sS'TB'
p160
I8
sS'PL'
p161
I10
sS'TA'
p162
I10
ssg113
(dp163
S's11'
p164
(ijoueur
joueur
p165
(dp166
g28
I1
sg32
I0
sg34
I0
sg35
g36
(g37
g38
Ntp167
Rp168
(dp169
g42
I5
sg43
S'xx'
p170
sg45
S'seigneur'
p171
sbsg47
(dp172
S'SR'
p173
I0
sS'ST'
p174
I0
sS'CR'
p175
I0
sS'CT'
p176
I0
ssg53
(dp177
g173
I0
sg174
I0
sg175
I0
sg176
I0
ssg56
I0
sg57
I0
sg59
I01
sg60
I2
sg61
I0
sg62
I0
sg63
(S'dummy'
p178
S'N8'
p179
S'TL'
p180
g31
tp181
sg68
I01
sg69
g36
(g37
g38
Ntp182
Rp183
(dp184
g42
I5
sg43
S'xx'
p185
sg45
g171
sbsg74
(dp186
g173
I0
sg174
I8
sg175
I0
sg176
I12
ssg80
(dp187
g173
I0
sg174
I0
sg175
I0
sg176
I0
ssg82
(dp188
g173
I0
sg174
I0
sg175
I0
sg176
I0
ssg84
(dp189
g173
I0
sg174
I8
sg175
I0
sg176
I12
ssg86
I0
sg87
I0
sg88
S'Magh'
p190
sg90
I7
sg91
I0
sg92
I17
sg93
I303
sg94
S'SN'
p191
sg96
(dp192
S'A'
p193
I9
sS'ME'
p194
I13
sS'RP2'
p195
I7
sS'E'
p196
I12
sS'TO'
p197
I10
sS'RP1'
p198
I16
sS'JP'
p199
I7
sS'RP_tot'
p200
I16
sS'P'
p201
I7
sS'PA'
p202
I8
sS'M'
p203
I13
sS'R'
p204
I12
sS'TB'
p205
I7
sS'PL'
p206
I11
sS'TA'
p207
I10
ssS'fatigue'
p208
I0
sS'drop_ratees_total'
p209
I0
sS'blessures_total'
p210
I1
sS'XP'
p211
I0
sS'EV'
p212
F12.206896551724139
sS'penalite_ratees_total'
p213
I0
sS'blessures_saison'
p214
I1
sS'jaunes_total'
p215
I0
sS'caracs_saison_11'
p216
(dp217
S'A'
p218
I9
sS'ME'
p219
I13
sS'RP2'
p220
I7
sS'E'
p221
I12
sS'TO'
p222
I10
sS'RP1'
p223
I16
sS'JP'
p224
I7
sS'RP_tot'
p225
I16
sS'P'
p226
I7
sS'PA'
p227
I8
sS'M'
p228
I13
sS'R'
p229
I12
sS'TB'
p230
I7
sS'PL'
p231
I11
sS'TA'
p232
I10
ssS'caracs_sans_fatigue'
p233
g192
sS'rouges_saison'
p234
I1
sS'anciens_clubs'
p235
S'TA 10'
p236
sS'transformation_ratees_total'
p237
I0
sS'drops_saison'
p238
I0
sS'transformation_ratees_saison'
p239
I0
sS'MS'
p240
I44
sS'essais_total'
p241
I16
sS'jaunes_saison'
p242
I0
sS'ARM'
p243
S'HB'
p244
sbssg208
I14
sg209
I0
sg210
I1
sg211
I0
sg212
F11.689655172413794
sg213
I0
sg214
I0
sg215
I0
sg216
(dp245
S'A'
p246
I9
sS'ME'
p247
I13
sS'RP2'
p248
I7
sS'E'
p249
I12
sS'TO'
p250
I10
sS'RP1'
p251
I16
sS'JP'
p252
I7
sS'RP_tot'
p253
I16
sS'P'
p254
I7
sS'PA'
p255
I8
sS'M'
p256
I13
sS'R'
p257
I12
sS'TB'
p258
I7
sS'PL'
p259
I11
sS'TA'
p260
I10
ssg233
g147
sg234
I0
sg235
S'TA 10'
p261
sg237
I0
sg238
I0
sg239
I0
sg240
I129
sg241
I22
sg242
I0
sg243
S'HB'
p262
sbsS's11'
p263
(ijoueur
joueur
p264
(dp265
g28
I1
sg32
I0
sg34
I0
sg35
g36
(g37
g38
Ntp266
Rp267
(dp268
g42
I5
sg43
S'xx'
p269
sg45
S'seigneur'
p270
sbsg47
(dp271
S'SR'
p272
I0
sS'ST'
p273
I0
sS'CR'
p274
I0
sS'CT'
p275
I0
ssg53
(dp276
g272
I0
sg273
I0
sg274
I0
sg275
I0
ssg56
I0
sg57
I0
sg59
I01
sg60
I2
sg61
I0
sg62
I0
sg63
(S'dummy'
p277
S'N8'
p278
S'TL'
p279
g31
tp280
sg68
I01
sg69
g36
(g37
g38
Ntp281
Rp282
(dp283
g42
I5
sg43
S'xx'
p284
sg45
g270
sbsg74
(dp285
g272
I0
sg273
I8
sg274
I0
sg275
I12
ssg80
(dp286
g272
I0
sg273
I0
sg274
I0
sg275
I0
ssg82
(dp287
g272
I0
sg273
I0
sg274
I0
sg275
I0
ssg84
(dp288
g272
I0
sg273
I8
sg274
I0
sg275
I12
ssg86
I0
sg87
I0
sg88
S'Magh'
p289
sg90
I7
sg91
I0
sg92
I17
sg93
I303
sg94
S'SN'
p290
sg96
(dp291
S'A'
p292
I9
sS'ME'
p293
I13
sS'RP2'
p294
I7
sS'E'
p295
I12
sS'TO'
p296
I10
sS'RP1'
p297
I16
sS'JP'
p298
I7
sS'RP_tot'
p299
I16
sS'P'
p300
I7
sS'PA'
p301
I8
sS'M'
p302
I13
sS'R'
p303
I12
sS'TB'
p304
I7
sS'PL'
p305
I11
sS'TA'
p306
I10
ssg208
I0
sg209
I0
sg210
I1
sg211
I0
sg212
F12.206896551724139
sg213
I0
sg214
I1
sg215
I0
sg216
(dp307
S'A'
p308
I9
sS'ME'
p309
I13
sS'RP2'
p310
I7
sS'E'
p311
I12
sS'TO'
p312
I10
sS'RP1'
p313
I16
sS'JP'
p314
I7
sS'RP_tot'
p315
I16
sS'P'
p316
I7
sS'PA'
p317
I8
sS'M'
p318
I13
sS'R'
p319
I12
sS'TB'
p320
I7
sS'PL'
p321
I11
sS'TA'
p322
I10
ssg233
g291
sg234
I1
sg235
S'TA 10'
p323
sg237
I0
sg238
I0
sg239
I0
sg240
I44
sg241
I16
sg242
I0
sg243
S'HB'
p324
sbssg208
I14
sg209
I0
sg210
I1
sg211
I0
sg212
F11.931034482758621
sg213
I0
sg214
I0
sg215
I0
sg216
(dp325
S'A'
p326
I9
sS'ME'
p327
I13
sS'RP2'
p328
I7
sS'E'
p329
I12
sS'TO'
p330
I10
sS'RP1'
p331
I16
sS'JP'
p332
I7
sS'RP_tot'
p333
I16
sS'P'
p334
I7
sS'PA'
p335
I8
sS'M'
p336
I13
sS'R'
p337
I12
sS'TB'
p338
I7
sS'PL'
p339
I11
sS'TA'
p340
I10
ssg233
(dp341
g98
I9
sg99
I12
sg100
I7
sg101
I12
sg106
I7
sg103
I16
sg104
I8
sg105
I16
sg102
I11
sg107
I8
sg108
I13
sg109
I12
sg110
I7
sg111
I10
sg112
I10
ssg234
I0
sS'caracs_saison_12'
p342
(dp343
sg237
I0
sg235
S'TA 10;SN 13'
p344
sg238
I0
sg239
I0
sg240
I14
sg241
I24
sg242
I0
sg243
S'HB'
p345
sbsS'drop3'
p346
(ijoueur
joueur
p347
(dp348
g27
F11.935483870967742
sg28
I0
sg29
F12.129032258064516
sg30
g31
sg32
I3
sg33
F74.18256448143376
sg34
I0
sg35
g36
(g37
g38
Ntp349
Rp350
(dp351
g42
I5
sg43
S'**'
p352
sg45
S'seigneur'
p353
sbsg47
(dp354
S'SR'
p355
I2
sS'ST'
p356
I2
sS'CR'
p357
I1
sS'CT'
p358
I3
ssg53
(dp359
g355
I0
sg356
I6
sg357
I0
sg358
I0
ssg55
I0
sg56
I0
sg57
I0
sg58
F74.18256448143376
sg59
I00
sg60
I0
sg61
I0
sg62
I0
sg63
(S'dummy'
p360
S'AI'
p361
S'AR'
p362
S'CE'
p363
tp364
sg68
I00
sg69
g36
(g37
g38
Ntp365
Rp366
(dp367
g42
I5
sg43
S'**'
p368
sg45
g353
sbsg74
(dp369
g76
I0
sg77
I0
sg78
I0
sg79
I7
ssg80
(dp370
g76
I0
sg77
I0
sg78
I0
sg79
I0
ssg82
(dp371
g76
I0
sg77
I0
sg78
I0
sg79
I0
ssg84
(dp372
g355
I2
sg356
I2
sg357
I0
sg358
I31
ssg86
I1
sg87
I1
sg88
S'Frors'
p373
sg90
I5
sg91
I0
sg92
I16
sg93
I162
sg94
g95
sg96
(dp374
S'A'
p375
I10
sS'ME'
p376
I4
sS'RP2'
p377
I11
sS'E'
p378
I10
sS'P'
p379
I11
sS'RP1'
p380
I11
sS'JP'
p381
I11
sS'RP_tot'
p382
I14
sS'TO'
p383
I8
sS'PA'
p384
I13
sS'M'
p385
I11
sS'R'
p386
I7
sS'TB'
p387
I9
sS'PL'
p388
I10
sS'TA'
p389
I4
ssg113
(dp390
S's12'
p391
(ijoueur
joueur
p392
(dp393
g27
F11.935483870967742
sg28
I0
sg30
g31
sg32
I2
sg34
I0
sg35
g36
(g37
g38
Ntp394
Rp395
(dp396
g42
I5
sg43
S'**'
p397
sg45
S'seigneur'
p398
sbsg47
(dp399
S'SR'
p400
I2
sS'ST'
p401
I2
sS'CR'
p402
I1
sS'CT'
p403
I3
ssg53
(dp404
g400
I0
sg401
I6
sg402
I0
sg403
I0
ssg80
(dp405
S'SR'
p406
I0
sS'ST'
p407
I0
sS'CR'
p408
I1
sS'CT'
p409
I1
ssg56
I0
sg57
I0
sg60
I7
sg61
I0
sg62
I0
sg63
(S'dummy'
p410
S'AI'
p411
S'AR'
p412
S'CE'
p413
tp414
sg68
I00
sg69
g36
(g37
g38
Ntp415
Rp416
(dp417
g42
I5
sg43
S'**'
p418
sg45
g398
sbsg74
(dp419
g406
I0
sg407
I0
sg408
I0
sg409
I11
ssg59
I01
sg82
(dp420
g406
I0
sg407
I5
sg408
I0
sg409
I0
ssg84
(dp421
g400
I2
sg401
I2
sg402
I0
sg403
I24
ssg86
I0
sg87
I0
sg88
S'Frors'
p422
sg90
I5
sg91
I0
sg92
I16
sg93
I162
sg94
S'TO'
p423
sg96
(dp424
S'A'
p425
I12
sS'ME'
p426
I4
sS'RP2'
p427
I11
sS'E'
p428
I10
sS'TO'
p429
I8
sS'RP1'
p430
I11
sS'JP'
p431
I12
sS'RP_tot'
p432
I15
sS'P'
p433
I11
sS'PA'
p434
I13
sS'M'
p435
I12
sS'R'
p436
I8
sS'TB'
p437
I8
sS'PL'
p438
I11
sS'TA'
p439
I4
ssg113
(dp440
S's11'
p441
(ijoueur
joueur
p442
(dp443
g28
I0
sg32
I1
sg34
I0
sg35
g36
(g37
g38
Ntp444
Rp445
(dp446
g42
I5
sg43
S'**'
p447
sg45
S'seigneur'
p448
sbsg47
(dp449
S'SR'
p450
I2
sS'ST'
p451
I2
sS'CR'
p452
I0
sS'CT'
p453
I2
ssg53
(dp454
g450
I0
sg451
I0
sg452
I0
sg453
I0
ssg56
I0
sg57
I0
sg59
I00
sg60
I1
sg61
I0
sg62
I0
sg63
(S'dummy'
p455
S'AI'
p456
S'AR'
p457
S'CE'
p458
tp459
sg68
I00
sg69
g36
(g37
g38
Ntp460
Rp461
(dp462
g42
I5
sg43
S'**'
p463
sg45
g448
sbsg74
(dp464
g450
I2
sg451
I2
sg452
I0
sg453
I13
ssg80
(dp465
g450
I2
sg451
I2
sg452
I0
sg453
I2
ssg82
(dp466
g450
I0
sg451
I0
sg452
I0
sg453
I0
ssg84
(dp467
g450
I2
sg451
I2
sg452
I0
sg453
I13
ssg86
I0
sg87
I0
sg88
S'Frors'
p468
sg90
I5
sg91
I0
sg92
I16
sg93
I162
sg94
S'TO'
p469
sg96
(dp470
S'A'
p471
I12
sS'ME'
p472
I4
sS'RP2'
p473
I11
sS'E'
p474
I10
sS'TO'
p475
I8
sS'RP1'
p476
I11
sS'JP'
p477
I11
sS'RP_tot'
p478
I15
sS'P'
p479
I11
sS'PA'
p480
I13
sS'M'
p481
I11
sS'R'
p482
I8
sS'TB'
p483
I9
sS'PL'
p484
I11
sS'TA'
p485
I4
ssg208
I0
sg209
I0
sg210
I0
sg211
I0
sg212
F11.935483870967742
sg213
I0
sg214
I0
sg215
I0
sg216
(dp486
S'A'
p487
I12
sS'ME'
p488
I4
sS'RP2'
p489
I11
sS'E'
p490
I10
sS'TO'
p491
I8
sS'RP1'
p492
I11
sS'JP'
p493
I11
sS'RP_tot'
p494
I15
sS'P'
p495
I11
sS'PA'
p496
I13
sS'M'
p497
I11
sS'R'
p498
I8
sS'TB'
p499
I9
sS'PL'
p500
I11
sS'TA'
p501
I4
ssg233
g470
sg234
I0
sg235
g31
sg237
I0
sg238
I0
sg239
I0
sg240
I20
sg241
I26
sg242
I0
sg243
S'S'
p502
sbssg208
I8
sg209
I0
sg210
I0
sg211
I0
sg212
F12.129032258064516
sg213
I0
sg214
I0
sg215
I0
sg216
(dp503
S'A'
p504
I12
sS'ME'
p505
I4
sS'RP2'
p506
I11
sS'E'
p507
I10
sS'P'
p508
I11
sS'RP1'
p509
I11
sS'JP'
p510
I11
sS'RP_tot'
p511
I15
sS'TO'
p512
I8
sS'PA'
p513
I13
sS'M'
p514
I11
sS'R'
p515
I8
sS'TB'
p516
I9
sS'PL'
p517
I11
sS'TA'
p518
I4
ssg233
g424
sg234
I0
sg235
g31
sg237
I0
sg238
I1
sg239
I0
sg240
I20
sg241
I33
sg242
I0
sg243
S'S'
p519
sbsS's11'
p520
(ijoueur
joueur
p521
(dp522
g28
I0
sg32
I1
sg34
I0
sg35
g36
(g37
g38
Ntp523
Rp524
(dp525
g42
I5
sg43
S'**'
p526
sg45
S'seigneur'
p527
sbsg47
(dp528
S'SR'
p529
I2
sS'ST'
p530
I2
sS'CR'
p531
I0
sS'CT'
p532
I2
ssg53
(dp533
g529
I0
sg530
I0
sg531
I0
sg532
I0
ssg56
I0
sg57
I0
sg59
I00
sg60
I1
sg61
I0
sg62
I0
sg63
(S'dummy'
p534
S'AI'
p535
S'AR'
p536
S'CE'
p537
tp538
sg68
I00
sg69
g36
(g37
g38
Ntp539
Rp540
(dp541
g42
I5
sg43
S'**'
p542
sg45
g527
sbsg74
(dp543
g529
I2
sg530
I2
sg531
I0
sg532
I13
ssg80
(dp544
g529
I2
sg530
I2
sg531
I0
sg532
I2
ssg82
(dp545
g529
I0
sg530
I0
sg531
I0
sg532
I0
ssg84
(dp546
g529
I2
sg530
I2
sg531
I0
sg532
I13
ssg86
I0
sg87
I0
sg88
S'Frors'
p547
sg90
I5
sg91
I0
sg92
I16
sg93
I162
sg94
S'TO'
p548
sg96
(dp549
S'A'
p550
I12
sS'ME'
p551
I4
sS'RP2'
p552
I11
sS'E'
p553
I10
sS'TO'
p554
I8
sS'RP1'
p555
I11
sS'JP'
p556
I11
sS'RP_tot'
p557
I15
sS'P'
p558
I11
sS'PA'
p559
I13
sS'M'
p560
I11
sS'R'
p561
I8
sS'TB'
p562
I9
sS'PL'
p563
I11
sS'TA'
p564
I4
ssg208
I0
sg209
I0
sg210
I0
sg211
I0
sg212
F11.935483870967742
sg213
I0
sg214
I0
sg215
I0
sg216
(dp565
S'A'
p566
I12
sS'ME'
p567
I4
sS'RP2'
p568
I11
sS'E'
p569
I10
sS'TO'
p570
I8
sS'RP1'
p571
I11
sS'JP'
p572
I11
sS'RP_tot'
p573
I15
sS'P'
p574
I11
sS'PA'
p575
I13
sS'M'
p576
I11
sS'R'
p577
I8
sS'TB'
p578
I9
sS'PL'
p579
I11
sS'TA'
p580
I4
ssg233
g549
sg234
I0
sg235
g31
sg237
I0
sg238
I0
sg239
I0
sg240
I20
sg241
I26
sg242
I0
sg243
S'S'
p581
sbssg208
I10
sg209
I0
sg210
I0
sg211
I0
sg212
F11.548387096774194
sg213
I0
sg214
I0
sg215
I1
sg216
(dp582
S'A'
p583
I12
sS'ME'
p584
I4
sS'RP2'
p585
I11
sS'E'
p586
I10
sS'P'
p587
I11
sS'RP1'
p588
I11
sS'JP'
p589
I11
sS'RP_tot'
p590
I15
sS'TO'
p591
I8
sS'PA'
p592
I13
sS'M'
p593
I11
sS'R'
p594
I8
sS'TB'
p595
I9
sS'PL'
p596
I11
sS'TA'
p597
I4
ssg233
(dp598
g375
I11
sg376
I4
sg377
I11
sg378
I10
sg383
I8
sg380
I11
sg381
I11
sg382
I14
sg379
I11
sg384
I13
sg385
I11
sg386
I8
sg387
I9
sg388
I11
sg389
I4
ssg234
I0
sg342
(dp599
sg237
I0
sg235
g31
sg238
I1
sg239
I0
sg240
I20
sg241
I33
sg242
I1
sg243
S'S'
p600
sbsS'cap'
p601
(ijoueur
joueur
p602
(dp603
g27
F10.606060606060606
sg28
I0
sg29
F10.363636363636363
sg30
g31
sg32
I5
sg33
F64.44315941369514
sg34
I0
sg35
g36
(g37
g38
Ntp604
Rp605
(dp606
g42
I4
sg43
S'*'
p607
sg45
S'heros'
p608
sbsg47
(dp609
S'SR'
p610
I0
sS'ST'
p611
I0
sS'CR'
p612
I0
sS'CT'
p613
I15
ssg53
(dp614
g610
I0
sg611
I0
sg612
I0
sg613
I0
ssg55
I0
sg56
I0
sg57
I0
sS'transformations'
p615
I0
sS'penalites'
p616
I0
sg59
I00
sg60
I0
sg61
I0
sg62
I0
sg63
(S'dummy'
p617
S'DO'
p618
S'CE'
p619
g31
tp620
sg68
I00
sg69
g36
(g37
g38
Ntp621
Rp622
(dp623
g42
I4
sg43
g607
sg45
g608
sbsg74
(dp624
g76
I0
sg77
I0
sg78
I0
sg79
I6
ssg80
(dp625
g76
I0
sg77
I0
sg78
I0
sg79
I0
ssg82
(dp626
g76
I0
sg77
I0
sg78
I0
sg79
I0
ssg84
(dp627
g610
I0
sg611
I12
sg612
I0
sg613
I17
ssg86
I5
sg87
I0
sg88
S'Ientl'
p628
sg90
I8
sg91
I0
sg92
I22
sg93
I100
sg94
g95
sg96
(dp629
S'A'
p630
I8
sS'ME'
p631
I5
sS'RP2'
p632
I8
sS'E'
p633
I15
sS'P'
p634
I9
sS'RP1'
p635
I8
sS'JP'
p636
I9
sS'RP_tot'
p637
I10
sS'TO'
p638
I8
sS'PA'
p639
I11
sS'M'
p640
I10
sS'R'
p641
I8
sS'TB'
p642
I6
sS'PL'
p643
I10
sS'TA'
p644
I8
ssg113
(dp645
g391
(ijoueur
joueur
p646
(dp647
g27
F10.606060606060606
sg28
I0
sg30
g31
sg32
I3
sg34
I0
sg35
g36
(g37
g38
Ntp648
Rp649
(dp650
g42
I4
sg43
S'*'
p651
sg45
S'heros'
p652
sbsg47
(dp653
S'SR'
p654
I0
sS'ST'
p655
I0
sS'CR'
p656
I0
sS'CT'
p657
I15
ssg53
(dp658
g654
I0
sg655
I0
sg656
I0
sg657
I0
ssg80
(dp659
g406
I0
sg407
I0
sg408
I0
sg409
I3
ssg56
I0
sg57
I0
sg615
I0
sg616
I0
sg60
I2
sg61
I0
sg62
I0
sg63
(S'dummy'
p660
S'DO'
p661
S'CE'
p662
g31
tp663
sg68
I00
sg69
g36
(g37
g38
Ntp664
Rp665
(dp666
g42
I4
sg43
g651
sg45
g652
sbsg74
(dp667
g406
I0
sg407
I6
sg408
I0
sg409
I11
ssg59
I00
sg82
(dp668
g406
I0
sg407
I0
sg408
I0
sg409
I0
ssg84
(dp669
g654
I0
sg655
I12
sg656
I0
sg657
I11
ssg86
I5
sg87
I0
sg88
S'Ientl'
p670
sg90
I8
sg91
I0
sg92
I22
sg93
I100
sg94
g423
sg96
(dp671
S'A'
p672
I9
sS'ME'
p673
I5
sS'RP2'
p674
I8
sS'E'
p675
I15
sS'TO'
p676
I8
sS'RP1'
p677
I8
sS'JP'
p678
I9
sS'RP_tot'
p679
I9
sS'P'
p680
I9
sS'PA'
p681
I11
sS'M'
p682
I10
sS'R'
p683
I9
sS'TB'
p684
I6
sS'PL'
p685
I11
sS'TA'
p686
I8
ssg113
(dp687
g441
(ijoueur
joueur
p688
(dp689
g28
I0
sg32
I1
sg34
I0
sg35
g36
(g37
g38
Ntp690
Rp691
(dp692
g42
I4
sg43
S'*'
p693
sg45
S'heros'
p694
sbsg47
(dp695
S'SR'
p696
I0
sS'ST'
p697
I0
sS'CR'
p698
I0
sS'CT'
p699
I12
ssg53
(dp700
g696
I0
sg697
I0
sg698
I0
sg699
I0
ssg56
I0
sg212
F10.606060606060606
sg57
I0
sg615
I0
sg616
I0
sg60
I0
sg61
I2
sg62
I0
sg63
(S'dummy'
p701
S'DO'
p702
S'CE'
p703
g31
tp704
sg68
I01
sg69
g36
(g37
g38
Ntp705
Rp706
(dp707
g42
I4
sg43
g693
sg45
g694
sbsg74
(dp708
g696
I0
sg697
I6
sg698
I0
sg699
I0
ssg59
I01
sg82
(dp709
g696
I0
sg697
I0
sg698
I0
sg699
I0
ssg84
(dp710
g696
I0
sg697
I6
sg698
I0
sg699
I0
ssg86
I5
sg87
I5
sg88
S'Ientl'
p711
sg90
I8
sg91
I0
sg92
I22
sg93
I20
sg94
S'PRG'
p712
sg96
(dp713
S'A'
p714
I10
sS'ME'
p715
I5
sS'RP2'
p716
I8
sS'E'
p717
I15
sS'TO'
p718
I8
sS'RP1'
p719
I8
sS'JP'
p720
I9
sS'RP_tot'
p721
I9
sS'P'
p722
I10
sS'PA'
p723
I11
sS'M'
p724
I10
sS'R'
p725
I9
sS'TB'
p726
I7
sS'PL'
p727
I11
sS'TA'
p728
I8
ssg208
I0
sg209
I0
sg210
I0
sg211
I0
sg80
(dp729
g696
I0
sg697
I0
sg698
I0
sg699
I12
ssg213
I2
sS'drops'
p730
I0
sg214
I0
sg215
I0
sg216
(dp731
S'A'
p732
I10
sS'ME'
p733
I5
sS'RP2'
p734
I8
sS'E'
p735
I15
sS'TO'
p736
I8
sS'RP1'
p737
I8
sS'JP'
p738
I9
sS'RP_tot'
p739
I9
sS'P'
p740
I10
sS'PA'
p741
I11
sS'M'
p742
I10
sS'R'
p743
I9
sS'TB'
p744
I7
sS'PL'
p745
I11
sS'TA'
p746
I8
ssg233
g713
sg234
I0
sg235
S'APA 10'
p747
sg237
I0
sg238
I1
sg239
I0
sg240
I2
sg241
I1
sg242
I0
sg243
S'HL'
p748
sbssg208
I11
sg209
I0
sg210
I0
sg211
I0
sg212
F10.363636363636363
sg213
I2
sg730
I0
sg214
I0
sg215
I0
sg216
(dp749
S'A'
p750
I10
sS'ME'
p751
I5
sS'RP2'
p752
I8
sS'E'
p753
I15
sS'P'
p754
I10
sS'RP1'
p755
I8
sS'JP'
p756
I9
sS'RP_tot'
p757
I9
sS'TO'
p758
I8
sS'PA'
p759
I11
sS'M'
p760
I10
sS'R'
p761
I9
sS'TB'
p762
I7
sS'PL'
p763
I11
sS'TA'
p764
I8
ssg233
g671
sg234
I0
sg235
S'APA 10;PRG 12'
p765
sg237
I0
sg238
I2
sg239
I0
sg240
I18
sg241
I3
sg242
I0
sg243
S'HL'
p766
sbsg520
(ijoueur
joueur
p767
(dp768
g28
I0
sg32
I1
sg34
I0
sg35
g36
(g37
g38
Ntp769
Rp770
(dp771
g42
I4
sg43
S'*'
p772
sg45
S'heros'
p773
sbsg47
(dp774
S'SR'
p775
I0
sS'ST'
p776
I0
sS'CR'
p777
I0
sS'CT'
p778
I12
ssg53
(dp779
g775
I0
sg776
I0
sg777
I0
sg778
I0
ssg56
I0
sg212
F10.606060606060606
sg57
I0
sg615
I0
sg616
I0
sg60
I0
sg61
I2
sg62
I0
sg63
(S'dummy'
p780
S'DO'
p781
S'CE'
p782
g31
tp783
sg68
I01
sg69
g36
(g37
g38
Ntp784
Rp785
(dp786
g42
I4
sg43
g772
sg45
g773
sbsg74
(dp787
g775
I0
sg776
I6
sg777
I0
sg778
I0
ssg59
I01
sg82
(dp788
g775
I0
sg776
I0
sg777
I0
sg778
I0
ssg84
(dp789
g775
I0
sg776
I6
sg777
I0
sg778
I0
ssg86
I5
sg87
I5
sg88
S'Ientl'
p790
sg90
I8
sg91
I0
sg92
I22
sg93
I20
sg94
S'PRG'
p791
sg96
(dp792
S'A'
p793
I10
sS'ME'
p794
I5
sS'RP2'
p795
I8
sS'E'
p796
I15
sS'TO'
p797
I8
sS'RP1'
p798
I8
sS'JP'
p799
I9
sS'RP_tot'
p800
I9
sS'P'
p801
I10
sS'PA'
p802
I11
sS'M'
p803
I10
sS'R'
p804
I9
sS'TB'
p805
I7
sS'PL'
p806
I11
sS'TA'
p807
I8
ssg208
I0
sg209
I0
sg210
I0
sg211
I0
sg80
(dp808
g775
I0
sg776
I0
sg777
I0
sg778
I12
ssg213
I2
sg730
I0
sg214
I0
sg215
I0
sg216
(dp809
S'A'
p810
I10
sS'ME'
p811
I5
sS'RP2'
p812
I8
sS'E'
p813
I15
sS'TO'
p814
I8
sS'RP1'
p815
I8
sS'JP'
p816
I9
sS'RP_tot'
p817
I9
sS'P'
p818
I10
sS'PA'
p819
I11
sS'M'
p820
I10
sS'R'
p821
I9
sS'TB'
p822
I7
sS'PL'
p823
I11
sS'TA'
p824
I8
ssg233
g792
sg234
I0
sg235
S'APA 10'
p825
sg237
I0
sg238
I1
sg239
I0
sg240
I2
sg241
I1
sg242
I0
sg243
S'HL'
p826
sbssg208
I13
sg209
I0
sg210
I0
sg211
I0
sg212
F10.454545454545455
sg213
I2
sg58
F64.44315941369514
sg730
I0
sg214
I0
sg215
I0
sg216
(dp827
S'A'
p828
I10
sS'ME'
p829
I5
sS'RP2'
p830
I8
sS'E'
p831
I15
sS'P'
p832
I10
sS'RP1'
p833
I8
sS'JP'
p834
I9
sS'RP_tot'
p835
I9
sS'TO'
p836
I8
sS'PA'
p837
I11
sS'M'
p838
I10
sS'R'
p839
I9
sS'TB'
p840
I7
sS'PL'
p841
I11
sS'TA'
p842
I8
ssg233
(dp843
g630
I9
sg631
I5
sg632
I8
sg633
I15
sg638
I8
sg635
I8
sg636
I9
sg637
I10
sg634
I9
sg639
I11
sg640
I10
sg641
I9
sg642
I6
sg643
I11
sg644
I8
ssg234
I0
sg342
(dp844
sg237
I0
sg235
S'APA 10;PRG 12'
p845
sg238
I2
sg239
I0
sg240
I18
sg241
I3
sg242
I0
sg243
S'HL'
p846
sbsS'B4'
p847
(ijoueur
joueur
p848
(dp849
g27
F9.517241379310345
sg28
I1
sg29
F10.379310344827585
sg30
g31
sg32
I1
sg33
F74.18088867235844
sg34
I0
sg35
g36
(g37
g38
Ntp850
Rp851
(dp852
g42
I4
sg43
S'x'
p853
sg45
S'heros'
p854
sbsg47
(dp855
g355
I0
sg356
I7
sg357
I2
sg358
I19
ssg53
(dp856
g355
I0
sg356
I0
sg357
I0
sg358
I0
ssg55
I0
sg56
I0
sg57
I0
sg58
F74.18088867235844
sg59
I00
sg60
I0
sg61
I2
sg62
I0
sg63
(g360
S'DM'
p857
S'CE'
p858
S'AI'
p859
tp860
sg68
I00
sg69
g36
(g37
g38
Ntp861
Rp862
(dp863
g42
I5
sg43
S'**'
p864
sg45
S'seigneur'
p865
sbsg74
(dp866
g76
I0
sg77
I0
sg78
I0
sg79
I1
ssg80
(dp867
g76
I0
sg77
I0
sg78
I0
sg79
I6
ssg82
(dp868
g76
I0
sg77
I0
sg78
I0
sg79
I0
ssg84
(dp869
g355
I0
sg356
I5
sg357
I11
sg358
I4
ssg86
I8
sg87
I8
sg88
S'Medeuleur'
p870
sg90
I7
sg91
I0
sg92
I15
sg93
I223
sg94
g95
sg96
(dp871
g375
I9
sg376
I7
sg377
I9
sg378
I13
sg379
I11
sg380
I12
sg381
I8
sg382
I13
sg383
I6
sg384
I11
sg385
I10
sg386
I9
sg387
I8
sg388
I11
sg389
I6
ssg113
(dp872
g391
(ijoueur
joueur
p873
(dp874
g27
F9.517241379310345
sg28
I0
sg30
g31
sg32
I1
sg34
I0
sg35
g36
(g37
g38
Ntp875
Rp876
(dp877
g42
I4
sg43
S'x'
p878
sg45
S'heros'
p879
sbsg47
(dp880
g400
I0
sg401
I7
sg402
I2
sg403
I13
ssg53
(dp881
g400
I0
sg401
I0
sg402
I0
sg403
I0
ssg80
(dp882
g406
I0
sg407
I6
sg408
I0
sg409
I13
ssg56
I0
sg57
I0
sg60
I3
sg61
I0
sg62
I0
sg63
(g410
S'DM'
p883
S'CE'
p884
S'AI'
p885
tp886
sg68
I00
sg69
g36
(g37
g38
Ntp887
Rp888
(dp889
g42
I5
sg43
S'**'
p890
sg45
S'seigneur'
p891
sbsg74
(dp892
g406
I0
sg407
I0
sg408
I0
sg409
I0
ssg59
I00
sg82
(dp893
g406
I0
sg407
I0
sg408
I0
sg409
I0
ssg84
(dp894
g400
I0
sg401
I5
sg402
I11
sg403
I3
ssg86
I0
sg87
I0
sg88
S'Medeuleur'
p895
sg90
I7
sg91
I0
sg92
I15
sg93
I223
sg94
g423
sg96
(dp896
g425
I9
sg426
I7
sg427
I9
sg428
I12
sg429
I6
sg430
I11
sg431
I8
sg432
I13
sg433
I11
sg434
I9
sg435
I10
sg436
I10
sg437
I9
sg438
I12
sg439
I6
ssg113
(dp897
g441
(ijoueur
joueur
p898
(dp899
g28
I0
sg32
I1
sg34
I0
sg35
g36
(g37
g38
Ntp900
Rp901
(dp902
g42
I4
sg43
S'x'
p903
sg45
S'heros'
p904
sbsg47
(dp905
S'SR'
p906
I0
sS'ST'
p907
I0
sS'CR'
p908
I2
sS'CT'
p909
I0
ssg53
(dp910
g906
I0
sg907
I0
sg908
I0
sg909
I0
ssg56
I0
sg57
I0
sg59
I00
sg60
I0
sg61
I0
sg62
I0
sg63
(S'dummy'
p911
S'DM'
p912
S'CE'
p913
S'AI'
p914
tp915
sg68
I00
sg69
g36
(g37
g38
Ntp916
Rp917
(dp918
g42
I4
sg43
g903
sg45
g904
sbsg74
(dp919
g906
I0
sg907
I5
sg908
I11
sg909
I3
ssg80
(dp920
g906
I0
sg907
I0
sg908
I2
sg909
I0
ssg82
(dp921
g906
I0
sg907
I0
sg908
I0
sg909
I0
ssg84
(dp922
g906
I0
sg907
I5
sg908
I11
sg909
I3
ssg86
I0
sg87
I0
sg88
S'Medeuleur'
p923
sg90
I7
sg91
I0
sg92
I15
sg93
I168
sg94
S'TO'
p924
sg96
(dp925
S'A'
p926
I8
sS'ME'
p927
I7
sS'RP2'
p928
I9
sS'E'
p929
I11
sS'TO'
p930
I5
sS'RP1'
p931
I10
sS'JP'
p932
I7
sS'RP_tot'
p933
I12
sS'P'
p934
I10
sS'PA'
p935
I8
sS'M'
p936
I10
sS'R'
p937
I10
sS'TB'
p938
I7
sS'PL'
p939
I11
sS'TA'
p940
I6
ssg208
I0
sg209
I0
sg210
I0
sg211
I0
sg212
F9.517241379310345
sg213
I0
sg214
I0
sg215
I0
sg216
(dp941
S'A'
p942
I8
sS'ME'
p943
I7
sS'RP2'
p944
I9
sS'E'
p945
I11
sS'TO'
p946
I5
sS'RP1'
p947
I10
sS'JP'
p948
I7
sS'RP_tot'
p949
I12
sS'P'
p950
I10
sS'PA'
p951
I8
sS'M'
p952
I10
sS'R'
p953
I10
sS'TB'
p954
I7
sS'PL'
p955
I11
sS'TA'
p956
I6
ssg233
g925
sg234
I0
sg235
g31
sg237
I0
sg238
I0
sg239
I0
sg240
I11
sg241
I7
sg242
I0
sg243
S'OG'
p957
sbssg208
I10
sg209
I0
sg210
I0
sg211
I0
sg212
F10.379310344827585
sg213
I0
sg214
I0
sg215
I0
sg216
(dp958
g504
I8
sg505
I7
sg506
I9
sg507
I11
sg508
I10
sg509
I10
sg510
I7
sg511
I12
sg512
I5
sg513
I8
sg514
I10
sg515
I10
sg516
I7
sg517
I11
sg518
I6
ssg233
g896
sg234
I0
sg235
g31
sg237
I0
sg238
I0
sg239
I0
sg240
I16
sg241
I10
sg242
I0
sg243
S'OG'
p959
sbsg520
(ijoueur
joueur
p960
(dp961
g28
I0
sg32
I1
sg34
I0
sg35
g36
(g37
g38
Ntp962
Rp963
(dp964
g42
I4
sg43
S'x'
p965
sg45
S'heros'
p966
sbsg47
(dp967
S'SR'
p968
I0
sS'ST'
p969
I0
sS'CR'
p970
I2
sS'CT'
p971
I0
ssg53
(dp972
g968
I0
sg969
I0
sg970
I0
sg971
I0
ssg56
I0
sg57
I0
sg59
I00
sg60
I0
sg61
I0
sg62
I0
sg63
(S'dummy'
p973
S'DM'
p974
S'CE'
p975
S'AI'
p976
tp977
sg68
I00
sg69
g36
(g37
g38
Ntp978
Rp979
(dp980
g42
I4
sg43
g965
sg45
g966
sbsg74
(dp981
g968
I0
sg969
I5
sg970
I11
sg971
I3
ssg80
(dp982
g968
I0
sg969
I0
sg970
I2
sg971
I0
ssg82
(dp983
g968
I0
sg969
I0
sg970
I0
sg971
I0
ssg84
(dp984
g968
I0
sg969
I5
sg970
I11
sg971
I3
ssg86
I0
sg87
I0
sg88
S'Medeuleur'
p985
sg90
I7
sg91
I0
sg92
I15
sg93
I168
sg94
S'TO'
p986
sg96
(dp987
S'A'
p988
I8
sS'ME'
p989
I7
sS'RP2'
p990
I9
sS'E'
p991
I11
sS'TO'
p992
I5
sS'RP1'
p993
I10
sS'JP'
p994
I7
sS'RP_tot'
p995
I12
sS'P'
p996
I10
sS'PA'
p997
I8
sS'M'
p998
I10
sS'R'
p999
I10
sS'TB'
p1000
I7
sS'PL'
p1001
I11
sS'TA'
p1002
I6
ssg208
I0
sg209
I0
sg210
I0
sg211
I0
sg212
F9.517241379310345
sg213
I0
sg214
I0
sg215
I0
sg216
(dp1003
S'A'
p1004
I8
sS'ME'
p1005
I7
sS'RP2'
p1006
I9
sS'E'
p1007
I11
sS'TO'
p1008
I5
sS'RP1'
p1009
I10
sS'JP'
p1010
I7
sS'RP_tot'
p1011
I12
sS'P'
p1012
I10
sS'PA'
p1013
I8
sS'M'
p1014
I10
sS'R'
p1015
I10
sS'TB'
p1016
I7
sS'PL'
p1017
I11
sS'TA'
p1018
I6
ssg233
g987
sg234
I0
sg235
g31
sg237
I0
sg238
I0
sg239
I0
sg240
I11
sg241
I7
sg242
I0
sg243
S'OG'
p1019
sbssg208
I14
sg209
I0
sg210
I0
sg211
I0
sg212
F11.03448275862069
sg213
I2
sg214
I0
sg215
I1
sg216
(dp1020
g583
I8
sg584
I7
sg585
I9
sg586
I11
sg587
I10
sg588
I10
sg589
I7
sg590
I12
sg591
I5
sg592
I8
sg593
I10
sg594
I10
sg595
I7
sg596
I11
sg597
I6
ssg233
(dp1021
g375
I10
sg376
I7
sg377
I9
sg378
I13
sg383
I6
sg380
I12
sg381
I8
sg382
I13
sg379
I11
sg384
I11
sg385
I10
sg386
I10
sg387
I8
sg388
I12
sg389
I6
ssg234
I1
sg342
(dp1022
sg237
I0
sg235
g31
sg238
I0
sg239
I0
sg240
I16
sg241
I10
sg242
I1
sg243
S'OG'
p1023
sbsS'RJC'
p1024
g347
sS'B1'
p1025
(ijoueur
joueur
p1026
(dp1027
g27
F10.5625
sg28
I0
sg29
F10.4375
sg30
g31
sg32
I10
sg33
F74.18256448143376
sg34
I0
sg35
g36
(g37
g38
Ntp1028
Rp1029
(dp1030
g42
I5
sg43
S'**'
p1031
sg45
g353
sbsg47
(dp1032
g355
I0
sg356
I0
sg357
I0
sg358
I6
ssg53
(dp1033
g355
I0
sg356
I12
sg357
I1
sg358
I15
ssg55
I0
sg56
I0
sg57
I0
sg58
F74.18256448143376
sg59
I00
sg60
I1
sg61
I0
sg62
I9
sg63
(g360
S'C1'
p1034
S'DO'
p1035
S'DM'
p1036
tp1037
sg68
I00
sg69
g36
(g37
g38
Ntp1038
Rp1039
(dp1040
g42
I5
sg43
S'**'
p1041
sg45
g353
sbsg74
(dp1042
g76
I0
sg77
I0
sg78
I0
sg79
I0
ssg80
(dp1043
g76
I0
sg77
I0
sg78
I0
sg79
I2
ssg82
(dp1044
g76
I0
sg77
I0
sg78
I1
sg79
I4
ssg84
(dp1045
g355
I0
sg356
I0
sg357
I0
sg358
I15
ssg86
I134
sg87
I10
sg88
S'Srud'
p1046
sg90
I4
sg91
I117
sg92
I12
sg93
I181
sg94
g95
sg96
(dp1047
g375
I12
sg376
I6
sg377
I13
sg378
I10
sg379
I9
sg380
I7
sg381
I10
sg382
I13
sg383
I7
sg384
I12
sg385
I10
sg386
I4
sg387
I10
sg388
I6
sg389
I5
ssg113
(dp1048
g391
(ijoueur
joueur
p1049
(dp1050
g27
F10.5625
sg28
I0
sg30
g31
sg32
I10
sg34
I0
sg35
g36
(g37
g38
Ntp1051
Rp1052
(dp1053
g42
I5
sg43
S'**'
p1054
sg45
g398
sbsg47
(dp1055
g400
I0
sg401
I0
sg402
I0
sg403
I4
ssg53
(dp1056
g400
I0
sg401
I12
sg402
I0
sg403
I11
ssg80
(dp1057
g406
I0
sg407
I0
sg408
I0
sg409
I3
ssg56
I0
sg57
I0
sg60
I0
sg61
I4
sg62
I42
sg63
(g410
S'C1'
p1058
S'DO'
p1059
S'DM'
p1060
tp1061
sg68
I00
sg69
g36
(g37
g38
Ntp1062
Rp1063
(dp1064
g42
I5
sg43
S'**'
p1065
sg45
g398
sbsg74
(dp1066
g406
I0
sg407
I0
sg408
I0
sg409
I0
ssg59
I00
sg82
(dp1067
g406
I0
sg407
I4
sg408
I0
sg409
I11
ssg84
(dp1068
g400
I0
sg401
I0
sg402
I0
sg403
I15
ssg86
I124
sg87
I19
sg88
S'Srud'
p1069
sg90
I4
sg91
I108
sg92
I12
sg93
I181
sg94
g423
sg96
(dp1070
g425
I13
sg426
I6
sg427
I13
sg428
I10
sg429
I7
sg430
I7
sg431
I10
sg432
I13
sg433
I9
sg434
I12
sg435
I10
sg436
I6
sg437
I11
sg438
I8
sg439
I5
ssg113
(dp1071
g441
(ijoueur
joueur
p1072
(dp1073
g28
I0
sg32
I10
sg34
I0
sg35
g36
(g37
g38
Ntp1074
Rp1075
(dp1076
g42
I5
sg43
S'**'
p1077
sg45
S'seigneur'
p1078
sbsg47
(dp1079
S'SR'
p1080
I0
sS'ST'
p1081
I0
sS'CR'
p1082
I0
sS'CT'
p1083
I1
ssg53
(dp1084
g1080
I0
sg1081
I8
sg1082
I0
sg1083
I0
ssg56
I0
sg57
I0
sg59
I00
sg60
I1
sg61
I1
sg62
I23
sg63
(S'dummy'
p1085
S'C1'
p1086
S'DO'
p1087
S'DM'
p1088
tp1089
sg68
I00
sg69
g36
(g37
g38
Ntp1090
Rp1091
(dp1092
g42
I5
sg43
S'**'
p1093
sg45
g1078
sbsg74
(dp1094
g1080
I0
sg1081
I0
sg1082
I0
sg1083
I15
ssg80
(dp1095
g1080
I0
sg1081
I0
sg1082
I0
sg1083
I1
ssg82
(dp1096
g1080
I0
sg1081
I8
sg1082
I0
sg1083
I0
ssg84
(dp1097
g1080
I0
sg1081
I0
sg1082
I0
sg1083
I15
ssg86
I105
sg87
I72
sg88
S'Srud'
p1098
sg90
I4
sg91
I66
sg92
I12
sg93
I181
sg94
S'TO'
p1099
sg96
(dp1100
S'A'
p1101
I13
sS'ME'
p1102
I6
sS'RP2'
p1103
I13
sS'E'
p1104
I11
sS'TO'
p1105
I7
sS'RP1'
p1106
I7
sS'JP'
p1107
I10
sS'RP_tot'
p1108
I13
sS'P'
p1109
I9
sS'PA'
p1110
I12
sS'M'
p1111
I10
sS'R'
p1112
I6
sS'TB'
p1113
I11
sS'PL'
p1114
I8
sS'TA'
p1115
I5
ssg208
I0
sg209
I0
sg210
I0
sg211
I0
sg212
F10.5625
sg213
I1
sg214
I0
sg215
I1
sg216
(dp1116
S'A'
p1117
I13
sS'ME'
p1118
I6
sS'RP2'
p1119
I13
sS'E'
p1120
I11
sS'TO'
p1121
I7
sS'RP1'
p1122
I7
sS'JP'
p1123
I10
sS'RP_tot'
p1124
I13
sS'P'
p1125
I9
sS'PA'
p1126
I12
sS'M'
p1127
I10
sS'R'
p1128
I6
sS'TB'
p1129
I11
sS'PL'
p1130
I8
sS'TA'
p1131
I5
ssg233
g1100
sg234
I0
sg235
g31
sg237
I1
sg238
I1
sg239
I1
sg240
I18
sg241
I17
sg242
I1
sg243
S'S'
p1132
sbssg208
I0
sg209
I0
sg210
I0
sg211
I0
sg212
F10.4375
sg213
I5
sg214
I0
sg215
I2
sg216
(dp1133
g504
I13
sg505
I6
sg506
I13
sg507
I11
sg508
I9
sg509
I7
sg510
I10
sg511
I13
sg512
I7
sg513
I12
sg514
I10
sg515
I6
sg516
I11
sg517
I8
sg518
I5
ssg233
g1070
sg234
I0
sg235
g31
sg237
I4
sg238
I0
sg239
I3
sg240
I18
sg241
I17
sg242
I1
sg243
g519
sbsg520
(ijoueur
joueur
p1134
(dp1135
g28
I0
sg32
I10
sg34
I0
sg35
g36
(g37
g38
Ntp1136
Rp1137
(dp1138
g42
I5
sg43
S'**'
p1139
sg45
S'seigneur'
p1140
sbsg47
(dp1141
S'SR'
p1142
I0
sS'ST'
p1143
I0
sS'CR'
p1144
I0
sS'CT'
p1145
I1
ssg53
(dp1146
g1142
I0
sg1143
I8
sg1144
I0
sg1145
I0
ssg56
I0
sg57
I0
sg59
I00
sg60
I1
sg61
I1
sg62
I23
sg63
(S'dummy'
p1147
S'C1'
p1148
S'DO'
p1149
S'DM'
p1150
tp1151
sg68
I00
sg69
g36
(g37
g38
Ntp1152
Rp1153
(dp1154
g42
I5
sg43
S'**'
p1155
sg45
g1140
sbsg74
(dp1156
g1142
I0
sg1143
I0
sg1144
I0
sg1145
I15
ssg80
(dp1157
g1142
I0
sg1143
I0
sg1144
I0
sg1145
I1
ssg82
(dp1158
g1142
I0
sg1143
I8
sg1144
I0
sg1145
I0
ssg84
(dp1159
g1142
I0
sg1143
I0
sg1144
I0
sg1145
I15
ssg86
I105
sg87
I72
sg88
S'Srud'
p1160
sg90
I4
sg91
I66
sg92
I12
sg93
I181
sg94
S'TO'
p1161
sg96
(dp1162
S'A'
p1163
I13
sS'ME'
p1164
I6
sS'RP2'
p1165
I13
sS'E'
p1166
I11
sS'TO'
p1167
I7
sS'RP1'
p1168
I7
sS'JP'
p1169
I10
sS'RP_tot'
p1170
I13
sS'P'
p1171
I9
sS'PA'
p1172
I12
sS'M'
p1173
I10
sS'R'
p1174
I6
sS'TB'
p1175
I11
sS'PL'
p1176
I8
sS'TA'
p1177
I5
ssg208
I0
sg209
I0
sg210
I0
sg211
I0
sg212
F10.5625
sg213
I1
sg214
I0
sg215
I1
sg216
(dp1178
S'A'
p1179
I13
sS'ME'
p1180
I6
sS'RP2'
p1181
I13
sS'E'
p1182
I11
sS'TO'
p1183
I7
sS'RP1'
p1184
I7
sS'JP'
p1185
I10
sS'RP_tot'
p1186
I13
sS'P'
p1187
I9
sS'PA'
p1188
I12
sS'M'
p1189
I10
sS'R'
p1190
I6
sS'TB'
p1191
I11
sS'PL'
p1192
I8
sS'TA'
p1193
I5
ssg233
g1162
sg234
I0
sg235
g31
sg237
I1
sg238
I1
sg239
I1
sg240
I18
sg241
I17
sg242
I1
sg243
S'S'
p1194
sbssg208
I8
sg209
I0
sg210
I0
sg211
I0
sg212
F10.166666666666666
sg213
I5
sg214
I0
sg215
I2
sg216
(dp1195
g583
I13
sg584
I6
sg585
I13
sg586
I11
sg587
I9
sg588
I7
sg589
I10
sg590
I13
sg591
I7
sg592
I12
sg593
I10
sg594
I6
sg595
I11
sg596
I8
sg597
I5
ssg233
(dp1196
g375
I13
sg376
I6
sg377
I13
sg378
I10
sg383
I7
sg380
I7
sg381
I10
sg382
I13
sg379
I9
sg384
I12
sg385
I10
sg386
I5
sg387
I10
sg388
I7
sg389
I5
ssg234
I0
sg342
(dp1197
sg237
I4
sg235
g31
sg238
I0
sg239
I0
sg240
I18
sg241
I18
sg242
I0
sg243
g600
sbsS'B2'
p1198
g1026
sS'B3'
p1199
g848
sS'SA_pcp2'
p1200
(ijoueur
joueur
p1201
(dp1202
g27
F10.763157894736842
sg28
I1
sg29
F11.18421052631579
sg30
g31
sg32
I0
sg33
F74.18256448143376
sg34
I0
sg35
g36
(g37
g38
Ntp1203
Rp1204
(dp1205
g42
I6
sg43
S'***'
p1206
sg45
S'personnage'
p1207
sbsg47
(dp1208
g355
I0
sg356
I0
sg357
I0
sg358
I0
ssg53
(dp1209
g355
I0
sg356
I0
sg357
I0
sg358
I0
ssg55
I0
sg56
I0
sg57
I0
sg58
F74.18256448143376
sg59
I00
sg60
I0
sg61
I0
sg62
I0
sg63
(g360
S'TL'
p1210
g31
g31
tp1211
sg68
I00
sg69
g36
(g37
g38
Ntp1212
Rp1213
(dp1214
g42
I6
sg43
S'***'
p1215
sg45
g1207
sbsg74
(dp1216
g76
I0
sg77
I0
sg78
I0
sg79
I7
ssg80
(dp1217
g76
I0
sg77
I0
sg78
I0
sg79
I0
ssg82
(dp1218
g76
I0
sg77
I0
sg78
I0
sg79
I0
ssg84
(dp1219
g355
I0
sg356
I13
sg357
I10
sg358
I27
ssg86
I0
sg87
I0
sg88
S'Hellborg'
p1220
sg90
I11
sg91
I0
sg92
I21
sg93
I569
sg94
g95
sg96
(dp1221
g375
I11
sg376
I9
sg377
I7
sg378
I12
sg379
I5
sg380
I11
sg381
I3
sg382
I11
sg383
I12
sg384
I9
sg385
I8
sg386
I11
sg387
I3
sg388
I13
sg389
I5
ssg113
(dp1222
g391
(ijoueur
joueur
p1223
(dp1224
g27
F10.763157894736842
sg28
I1
sg30
g31
sg32
I0
sg34
I0
sg35
g36
(g37
g38
Ntp1225
Rp1226
(dp1227
g42
I6
sg43
S'***'
p1228
sg45
S'personnage'
p1229
sbsg47
(dp1230
g400
I0
sg401
I0
sg402
I0
sg403
I0
ssg53
(dp1231
g400
I0
sg401
I0
sg402
I0
sg403
I0
ssg80
(dp1232
g406
I0
sg407
I0
sg408
I0
sg409
I0
ssg56
I0
sg57
I0
sg60
I3
sg61
I0
sg62
I0
sg63
(g410
S'TL'
p1233
g31
g31
tp1234
sg68
I00
sg69
g36
(g37
g38
Ntp1235
Rp1236
(dp1237
g42
I6
sg43
S'***'
p1238
sg45
g1229
sbsg74
(dp1239
g406
I0
sg407
I7
sg408
I1
sg409
I13
ssg59
I00
sg82
(dp1240
g406
I0
sg407
I0
sg408
I0
sg409
I0
ssg84
(dp1241
g400
I0
sg401
I13
sg402
I10
sg403
I20
ssg86
I0
sg87
I0
sg88
S'Hellborg'
p1242
sg90
I11
sg91
I0
sg92
I21
sg93
I569
sg94
g423
sg96
(dp1243
g425
I11
sg426
I9
sg427
I7
sg428
I12
sg429
I12
sg430
I10
sg431
I3
sg432
I10
sg433
I5
sg434
I9
sg435
I8
sg436
I11
sg437
I3
sg438
I13
sg439
I5
ssg113
(dp1244
g441
(ijoueur
joueur
p1245
(dp1246
g28
I0
sg32
I0
sg34
I0
sg35
g36
(g37
g38
Ntp1247
Rp1248
(dp1249
g42
I6
sg43
S'***'
p1250
sg45
S'personnage'
p1251
sbsg47
(dp1252
S'SR'
p1253
I0
sS'ST'
p1254
I0
sS'CR'
p1255
I0
sS'CT'
p1256
I0
ssg53
(dp1257
g1253
I0
sg1254
I0
sg1255
I0
sg1256
I0
ssg56
I0
sg57
I0
sg59
I00
sg60
I1
sg61
I0
sg62
I0
sg63
(S'dummy'
p1258
S'TL'
p1259
g31
g31
tp1260
sg68
I00
sg69
g36
(g37
g38
Ntp1261
Rp1262
(dp1263
g42
I6
sg43
S'***'
p1264
sg45
g1251
sbsg74
(dp1265
g1253
I0
sg1254
I6
sg1255
I9
sg1256
I7
ssg80
(dp1266
g1253
I0
sg1254
I0
sg1255
I0
sg1256
I0
ssg82
(dp1267
g1253
I0
sg1254
I0
sg1255
I0
sg1256
I0
ssg84
(dp1268
g1253
I0
sg1254
I6
sg1255
I9
sg1256
I7
ssg86
I0
sg87
I0
sg88
S'Hellborg'
p1269
sg90
I11
sg91
I0
sg92
I21
sg93
I569
sg94
S'TO'
p1270
sg96
(dp1271
S'A'
p1272
I11
sS'ME'
p1273
I9
sS'RP2'
p1274
I7
sS'E'
p1275
I12
sS'TO'
p1276
I11
sS'RP1'
p1277
I10
sS'JP'
p1278
I3
sS'RP_tot'
p1279
I10
sS'P'
p1280
I5
sS'PA'
p1281
I9
sS'M'
p1282
I8
sS'R'
p1283
I10
sS'TB'
p1284
I3
sS'PL'
p1285
I13
sS'TA'
p1286
I5
ssg208
I0
sg209
I0
sg210
I0
sg211
I0
sg212
F10.763157894736842
sg213
I0
sg214
I0
sg215
I0
sg216
(dp1287
S'A'
p1288
I11
sS'ME'
p1289
I9
sS'RP2'
p1290
I7
sS'E'
p1291
I12
sS'TO'
p1292
I11
sS'RP1'
p1293
I10
sS'JP'
p1294
I3
sS'RP_tot'
p1295
I10
sS'P'
p1296
I5
sS'PA'
p1297
I9
sS'M'
p1298
I8
sS'R'
p1299
I10
sS'TB'
p1300
I3
sS'PL'
p1301
I13
sS'TA'
p1302
I5
ssg233
g1271
sg234
I0
sg235
g31
sg237
I0
sg238
I0
sg239
I0
sg240
I41
sg241
I1
sg242
I0
sg243
S'EMP'
p1303
sbssg208
I3
sg209
I0
sg210
I0
sg211
I0
sg212
F11.18421052631579
sg213
I0
sg214
I0
sg215
I0
sg216
(dp1304
g504
I11
sg505
I9
sg506
I7
sg507
I12
sg508
I5
sg509
I10
sg510
I3
sg511
I10
sg512
I11
sg513
I9
sg514
I8
sg515
I10
sg516
I3
sg517
I13
sg518
I5
ssg233
g1243
sg234
I1
sg235
g31
sg237
I0
sg238
I0
sg239
I0
sg240
I41
sg241
I4
sg242
I0
sg243
S'EMP'
p1305
sbsg520
(ijoueur
joueur
p1306
(dp1307
g28
I0
sg32
I0
sg34
I0
sg35
g36
(g37
g38
Ntp1308
Rp1309
(dp1310
g42
I6
sg43
S'***'
p1311
sg45
S'personnage'
p1312
sbsg47
(dp1313
S'SR'
p1314
I0
sS'ST'
p1315
I0
sS'CR'
p1316
I0
sS'CT'
p1317
I0
ssg53
(dp1318
g1314
I0
sg1315
I0
sg1316
I0
sg1317
I0
ssg56
I0
sg57
I0
sg59
I00
sg60
I1
sg61
I0
sg62
I0
sg63
(S'dummy'
p1319
S'TL'
p1320
g31
g31
tp1321
sg68
I00
sg69
g36
(g37
g38
Ntp1322
Rp1323
(dp1324
g42
I6
sg43
S'***'
p1325
sg45
g1312
sbsg74
(dp1326
g1314
I0
sg1315
I6
sg1316
I9
sg1317
I7
ssg80
(dp1327
g1314
I0
sg1315
I0
sg1316
I0
sg1317
I0
ssg82
(dp1328
g1314
I0
sg1315
I0
sg1316
I0
sg1317
I0
ssg84
(dp1329
g1314
I0
sg1315
I6
sg1316
I9
sg1317
I7
ssg86
I0
sg87
I0
sg88
S'Hellborg'
p1330
sg90
I11
sg91
I0
sg92
I21
sg93
I569
sg94
S'TO'
p1331
sg96
(dp1332
S'A'
p1333
I11
sS'ME'
p1334
I9
sS'RP2'
p1335
I7
sS'E'
p1336
I12
sS'TO'
p1337
I11
sS'RP1'
p1338
I10
sS'JP'
p1339
I3
sS'RP_tot'
p1340
I10
sS'P'
p1341
I5
sS'PA'
p1342
I9
sS'M'
p1343
I8
sS'R'
p1344
I10
sS'TB'
p1345
I3
sS'PL'
p1346
I13
sS'TA'
p1347
I5
ssg208
I0
sg209
I0
sg210
I0
sg211
I0
sg212
F10.763157894736842
sg213
I0
sg214
I0
sg215
I0
sg216
(dp1348
S'A'
p1349
I11
sS'ME'
p1350
I9
sS'RP2'
p1351
I7
sS'E'
p1352
I12
sS'TO'
p1353
I11
sS'RP1'
p1354
I10
sS'JP'
p1355
I3
sS'RP_tot'
p1356
I10
sS'P'
p1357
I5
sS'PA'
p1358
I9
sS'M'
p1359
I8
sS'R'
p1360
I10
sS'TB'
p1361
I3
sS'PL'
p1362
I13
sS'TA'
p1363
I5
ssg233
g1332
sg234
I0
sg235
g31
sg237
I0
sg238
I0
sg239
I0
sg240
I41
sg241
I1
sg242
I0
sg243
S'EMP'
p1364
sbssg208
I6
sg209
I0
sg210
I0
sg211
I0
sg212
F11.289473684210526
sg213
I0
sg214
I0
sg215
I1
sg216
(dp1365
g583
I11
sg584
I9
sg585
I7
sg586
I12
sg587
I5
sg588
I10
sg589
I3
sg590
I10
sg591
I11
sg592
I9
sg593
I8
sg594
I10
sg595
I3
sg596
I13
sg597
I5
ssg233
(dp1366
g375
I11
sg376
I9
sg377
I7
sg378
I12
sg383
I12
sg380
I11
sg381
I3
sg382
I11
sg379
I5
sg384
I9
sg385
I8
sg386
I11
sg387
I3
sg388
I13
sg389
I5
ssg234
I0
sg342
(dp1367
sg237
I0
sg235
g31
sg238
I0
sg239
I0
sg240
I41
sg241
I4
sg242
I1
sg243
S'EMP'
p1368
sbsS'SA_pcp1'
p1369
(ijoueur
joueur
p1370
(dp1371
g27
F10.852941176470589
sg28
I0
sg29
F11.411764705882353
sg30
g31
sg32
I0
sg33
F74.18256448143376
sg34
I0
sg35
g36
(g37
g38
Ntp1372
Rp1373
(dp1374
g42
I5
sg43
S'**'
p1375
sg45
g353
sbsg47
(dp1376
g355
I1
sg356
I0
sg357
I0
sg358
I0
ssg53
(dp1377
g355
I0
sg356
I0
sg357
I0
sg358
I0
ssg55
I0
sg56
I0
sg57
I0
sg58
F74.18256448143376
sg59
I00
sg60
I0
sg61
I0
sg62
I0
sg63
(g360
S'DL'
p1378
S'TL'
p1379
g31
tp1380
sg68
I00
sg69
g36
(g37
g38
Ntp1381
Rp1382
(dp1383
g42
I5
sg43
S'**'
p1384
sg45
g353
sbsg74
(dp1385
g76
I0
sg77
I0
sg78
I0
sg79
I7
ssg80
(dp1386
g76
I0
sg77
I0
sg78
I0
sg79
I0
ssg82
(dp1387
g76
I0
sg77
I0
sg78
I0
sg79
I0
ssg84
(dp1388
g355
I7
sg356
I2
sg357
I1
sg358
I34
ssg86
I0
sg87
I0
sg88
S'Centanael'
p1389
sg90
I5
sg91
I0
sg92
I14
sg93
I150
sg94
g95
sg96
(dp1390
g375
I11
sg376
I9
sg377
I10
sg378
I14
sg379
I8
sg380
I6
sg381
I8
sg382
I10
sg383
I14
sg384
I11
sg385
I7
sg386
I8
sg387
I8
sg388
I11
sg389
I7
ssg113
(dp1391
g391
(ijoueur
joueur
p1392
(dp1393
g27
F10.852941176470589
sg28
I0
sg30
g31
sg32
I0
sg34
I0
sg35
g36
(g37
g38
Ntp1394
Rp1395
(dp1396
g42
I5
sg43
S'**'
p1397
sg45
g398
sbsg47
(dp1398
g400
I1
sg401
I0
sg402
I0
sg403
I0
ssg53
(dp1399
g400
I0
sg401
I0
sg402
I0
sg403
I0
ssg80
(dp1400
g406
I0
sg407
I0
sg408
I0
sg409
I0
ssg56
I0
sg57
I0
sg60
I2
sg61
I0
sg62
I0
sg63
(g410
S'DL'
p1401
S'TL'
p1402
g31
tp1403
sg68
I00
sg69
g36
(g37
g38
Ntp1404
Rp1405
(dp1406
g42
I5
sg43
S'**'
p1407
sg45
g398
sbsg74
(dp1408
g406
I6
sg407
I1
sg408
I1
sg409
I13
ssg59
I00
sg82
(dp1409
g406
I0
sg407
I0
sg408
I0
sg409
I0
ssg84
(dp1410
g400
I7
sg401
I2
sg402
I1
sg403
I27
ssg86
I0
sg87
I0
sg88
S'Centanael'
p1411
sg90
I5
sg91
I0
sg92
I14
sg93
I150
sg94
g423
sg96
(dp1412
g425
I12
sg426
I10
sg427
I10
sg428
I14
sg429
I14
sg430
I7
sg431
I7
sg432
I10
sg433
I9
sg434
I11
sg435
I8
sg436
I9
sg437
I8
sg438
I12
sg439
I7
ssg113
(dp1413
g441
(ijoueur
joueur
p1414
(dp1415
g28
I0
sg32
I0
sg34
I0
sg35
g36
(g37
g38
Ntp1416
Rp1417
(dp1418
g42
I5
sg43
S'**'
p1419
sg45
S'seigneur'
p1420
sbsg47
(dp1421
S'SR'
p1422
I1
sS'ST'
p1423
I0
sS'CR'
p1424
I0
sS'CT'
p1425
I0
ssg53
(dp1426
g1422
I0
sg1423
I0
sg1424
I0
sg1425
I0
ssg56
I0
sg57
I0
sg59
I00
sg60
I0
sg61
I0
sg62
I0
sg63
(S'dummy'
p1427
S'DL'
p1428
S'TL'
p1429
g31
tp1430
sg68
I00
sg69
g36
(g37
g38
Ntp1431
Rp1432
(dp1433
g42
I5
sg43
S'**'
p1434
sg45
g1420
sbsg74
(dp1435
g1422
I1
sg1423
I1
sg1424
I0
sg1425
I14
ssg80
(dp1436
g1422
I1
sg1423
I0
sg1424
I0
sg1425
I0
ssg82
(dp1437
g1422
I0
sg1423
I0
sg1424
I0
sg1425
I0
ssg84
(dp1438
g1422
I1
sg1423
I1
sg1424
I0
sg1425
I14
ssg86
I0
sg87
I0
sg88
S'Centanael'
p1439
sg90
I5
sg91
I0
sg92
I14
sg93
I150
sg94
S'TO'
p1440
sg96
(dp1441
S'A'
p1442
I12
sS'ME'
p1443
I10
sS'RP2'
p1444
I8
sS'E'
p1445
I14
sS'TO'
p1446
I13
sS'RP1'
p1447
I7
sS'JP'
p1448
I7
sS'RP_tot'
p1449
I8
sS'P'
p1450
I9
sS'PA'
p1451
I11
sS'M'
p1452
I8
sS'R'
p1453
I9
sS'TB'
p1454
I8
sS'PL'
p1455
I11
sS'TA'
p1456
I7
ssg208
I0
sg209
I0
sg210
I0
sg211
I0
sg212
F10.852941176470589
sg213
I0
sg214
I0
sg215
I0
sg216
(dp1457
S'A'
p1458
I12
sS'ME'
p1459
I10
sS'RP2'
p1460
I8
sS'E'
p1461
I14
sS'TO'
p1462
I13
sS'RP1'
p1463
I7
sS'JP'
p1464
I7
sS'RP_tot'
p1465
I8
sS'P'
p1466
I9
sS'PA'
p1467
I11
sS'M'
p1468
I8
sS'R'
p1469
I9
sS'TB'
p1470
I8
sS'PL'
p1471
I11
sS'TA'
p1472
I7
ssg233
g1441
sg234
I0
sg235
S'FS 10'
p1473
sg237
I0
sg238
I0
sg239
I0
sg240
I31
sg241
I6
sg242
I0
sg243
S'ES'
p1474
sbssg208
I5
sg209
I0
sg210
I0
sg211
I0
sg212
F11.411764705882353
sg213
I0
sg214
I0
sg215
I0
sg216
(dp1475
g504
I12
sg505
I10
sg506
I8
sg507
I14
sg508
I9
sg509
I7
sg510
I7
sg511
I8
sg512
I13
sg513
I11
sg514
I8
sg515
I9
sg516
I8
sg517
I11
sg518
I7
ssg233
g1412
sg234
I0
sg235
S'FS 10'
p1476
sg237
I0
sg238
I0
sg239
I0
sg240
I31
sg241
I8
sg242
I0
sg243
S'ES'
p1477
sbsg520
(ijoueur
joueur
p1478
(dp1479
g28
I0
sg32
I0
sg34
I0
sg35
g36
(g37
g38
Ntp1480
Rp1481
(dp1482
g42
I5
sg43
S'**'
p1483
sg45
S'seigneur'
p1484
sbsg47
(dp1485
S'SR'
p1486
I1
sS'ST'
p1487
I0
sS'CR'
p1488
I0
sS'CT'
p1489
I0
ssg53
(dp1490
g1486
I0
sg1487
I0
sg1488
I0
sg1489
I0
ssg56
I0
sg57
I0
sg59
I00
sg60
I0
sg61
I0
sg62
I0
sg63
(S'dummy'
p1491
S'DL'
p1492
S'TL'
p1493
g31
tp1494
sg68
I00
sg69
g36
(g37
g38
Ntp1495
Rp1496
(dp1497
g42
I5
sg43
S'**'
p1498
sg45
g1484
sbsg74
(dp1499
g1486
I1
sg1487
I1
sg1488
I0
sg1489
I14
ssg80
(dp1500
g1486
I1
sg1487
I0
sg1488
I0
sg1489
I0
ssg82
(dp1501
g1486
I0
sg1487
I0
sg1488
I0
sg1489
I0
ssg84
(dp1502
g1486
I1
sg1487
I1
sg1488
I0
sg1489
I14
ssg86
I0
sg87
I0
sg88
S'Centanael'
p1503
sg90
I5
sg91
I0
sg92
I14
sg93
I150
sg94
S'TO'
p1504
sg96
(dp1505
S'A'
p1506
I12
sS'ME'
p1507
I10
sS'RP2'
p1508
I8
sS'E'
p1509
I14
sS'TO'
p1510
I13
sS'RP1'
p1511
I7
sS'JP'
p1512
I7
sS'RP_tot'
p1513
I8
sS'P'
p1514
I9
sS'PA'
p1515
I11
sS'M'
p1516
I8
sS'R'
p1517
I9
sS'TB'
p1518
I8
sS'PL'
p1519
I11
sS'TA'
p1520
I7
ssg208
I0
sg209
I0
sg210
I0
sg211
I0
sg212
F10.852941176470589
sg213
I0
sg214
I0
sg215
I0
sg216
(dp1521
S'A'
p1522
I12
sS'ME'
p1523
I10
sS'RP2'
p1524
I8
sS'E'
p1525
I14
sS'TO'
p1526
I13
sS'RP1'
p1527
I7
sS'JP'
p1528
I7
sS'RP_tot'
p1529
I8
sS'P'
p1530
I9
sS'PA'
p1531
I11
sS'M'
p1532
I8
sS'R'
p1533
I9
sS'TB'
p1534
I8
sS'PL'
p1535
I11
sS'TA'
p1536
I7
ssg233
g1505
sg234
I0
sg235
S'FS 10'
p1537
sg237
I0
sg238
I0
sg239
I0
sg240
I31
sg241
I6
sg242
I0
sg243
S'ES'
p1538
sbssg208
I10
sg209
I0
sg210
I0
sg211
I0
sg212
F11.264705882352942
sg213
I0
sg214
I0
sg215
I0
sg216
(dp1539
g583
I12
sg584
I10
sg585
I8
sg586
I14
sg587
I9
sg588
I7
sg589
I7
sg590
I8
sg591
I13
sg592
I11
sg593
I8
sg594
I9
sg595
I8
sg596
I11
sg597
I7
ssg233
(dp1540
g375
I12
sg376
I9
sg377
I10
sg378
I14
sg383
I14
sg380
I6
sg381
I8
sg382
I10
sg379
I8
sg384
I11
sg385
I7
sg386
I9
sg387
I8
sg388
I12
sg389
I7
ssg234
I0
sg342
(dp1541
sg237
I0
sg235
S'FS 10'
p1542
sg238
I0
sg239
I0
sg240
I31
sg241
I8
sg242
I0
sg243
S'ES'
p1543
sbsS'RJL'
p1544
g347
sS'SA_remp1'
p1545
(ijoueur
joueur
p1546
(dp1547
g27
F10.147058823529411
sg28
I0
sg29
F10.588235294117647
sg30
g31
sg32
I0
sg33
F84.81750680441267
sg34
I0
sg35
g36
(g37
g38
Ntp1548
Rp1549
(dp1550
g42
I5
sg43
S'**'
p1551
sg45
g353
sbsg47
(dp1552
g355
I0
sg356
I0
sg357
I0
sg358
I0
ssg53
(dp1553
g355
I0
sg356
I0
sg357
I0
sg358
I0
ssg55
I0
sg56
I0
sg57
I0
sg58
F84.81750680441267
sg59
I00
sg60
I1
sg61
I0
sg62
I0
sg63
(g360
S'DL'
p1554
g31
g31
tp1555
sg68
I00
sg69
g36
(g37
g38
Ntp1556
Rp1557
(dp1558
g42
I5
sg43
S'**'
p1559
sg45
g353
sbsg74
(dp1560
g76
I0
sg77
I0
sg78
I6
sg79
I2
ssg80
(dp1561
g76
I0
sg77
I0
sg78
I0
sg79
I0
ssg82
(dp1562
g76
I0
sg77
I0
sg78
I0
sg79
I0
ssg84
(dp1563
g355
I7
sg356
I9
sg357
I27
sg358
I12
ssg86
I0
sg87
I0
sg88
S'Skoss'
p1564
sg90
I7
sg91
I0
sg92
I18
sg93
I198
sg94
g95
sg96
(dp1565
g375
I11
sg376
I12
sg377
I9
sg378
I11
sg379
I6
sg380
I8
sg381
I6
sg382
I10
sg383
I15
sg384
I10
sg385
I8
sg386
I8
sg387
I6
sg388
I8
sg389
I5
ssg113
(dp1566
g391
(ijoueur
joueur
p1567
(dp1568
g27
F10.147058823529411
sg28
I0
sg30
g31
sg32
I0
sg34
I0
sg35
g36
(g37
g38
Ntp1569
Rp1570
(dp1571
g42
I5
sg43
S'**'
p1572
sg45
g398
sbsg47
(dp1573
g400
I0
sg401
I0
sg402
I0
sg403
I0
ssg53
(dp1574
g400
I0
sg401
I0
sg402
I0
sg403
I0
ssg80
(dp1575
g406
I0
sg407
I0
sg408
I0
sg409
I0
ssg56
I0
sg57
I0
sg60
I3
sg61
I0
sg62
I0
sg63
(g410
S'DL'
p1576
g31
g31
tp1577
sg68
I01
sg69
g36
(g37
g38
Ntp1578
Rp1579
(dp1580
g42
I5
sg43
S'**'
p1581
sg45
g398
sbsg74
(dp1582
g406
I0
sg407
I6
sg408
I11
sg409
I4
ssg59
I00
sg82
(dp1583
g406
I0
sg407
I0
sg408
I0
sg409
I0
ssg84
(dp1584
g400
I7
sg401
I9
sg402
I21
sg403
I10
ssg86
I0
sg87
I0
sg88
S'Skoss'
p1585
sg90
I7
sg91
I0
sg92
I18
sg93
I198
sg94
g423
sg96
(dp1586
g425
I12
sg426
I11
sg427
I9
sg428
I11
sg429
I13
sg430
I8
sg431
I6
sg432
I10
sg433
I6
sg434
I10
sg435
I8
sg436
I9
sg437
I6
sg438
I9
sg439
I5
ssg113
(dp1587
g441
(ijoueur
joueur
p1588
(dp1589
g28
I0
sg32
I0
sg34
I0
sg35
g36
(g37
g38
Ntp1590
Rp1591
(dp1592
g42
I5
sg43
S'**'
p1593
sg45
S'seigneur'
p1594
sbsg47
(dp1595
S'SR'
p1596
I0
sS'ST'
p1597
I0
sS'CR'
p1598
I0
sS'CT'
p1599
I0
ssg53
(dp1600
g1596
I0
sg1597
I0
sg1598
I0
sg1599
I0
ssg56
I0
sg57
I0
sg59
I00
sg60
I0
sg61
I0
sg62
I0
sg63
(S'dummy'
p1601
S'DL'
p1602
g31
g31
tp1603
sg68
I00
sg69
g36
(g37
g38
Ntp1604
Rp1605
(dp1606
g42
I5
sg43
S'**'
p1607
sg45
g1594
sbsg74
(dp1608
g1596
I7
sg1597
I2
sg1598
I10
sg1599
I6
ssg80
(dp1609
g1596
I0
sg1597
I0
sg1598
I0
sg1599
I0
ssg82
(dp1610
g1596
I0
sg1597
I0
sg1598
I0
sg1599
I0
ssg84
(dp1611
g1596
I7
sg1597
I2
sg1598
I10
sg1599
I6
ssg86
I0
sg87
I0
sg88
S'Skoss'
p1612
sg90
I7
sg91
I0
sg92
I18
sg93
I198
sg94
S'TO'
p1613
sg96
(dp1614
S'A'
p1615
I12
sS'ME'
p1616
I10
sS'RP2'
p1617
I9
sS'E'
p1618
I10
sS'TO'
p1619
I12
sS'RP1'
p1620
I8
sS'JP'
p1621
I6
sS'RP_tot'
p1622
I10
sS'P'
p1623
I6
sS'PA'
p1624
I10
sS'M'
p1625
I8
sS'R'
p1626
I9
sS'TB'
p1627
I6
sS'PL'
p1628
I9
sS'TA'
p1629
I5
ssg208
I0
sg209
I0
sg210
I1
sg211
I0
sg212
F10.147058823529411
sg213
I0
sg214
I1
sg215
I0
sg216
(dp1630
S'A'
p1631
I12
sS'ME'
p1632
I10
sS'RP2'
p1633
I9
sS'E'
p1634
I10
sS'TO'
p1635
I12
sS'RP1'
p1636
I8
sS'JP'
p1637
I6
sS'RP_tot'
p1638
I10
sS'P'
p1639
I6
sS'PA'
p1640
I10
sS'M'
p1641
I8
sS'R'
p1642
I9
sS'TB'
p1643
I6
sS'PL'
p1644
I9
sS'TA'
p1645
I5
ssg233
g1614
sg234
I0
sg235
g31
sg237
I0
sg238
I0
sg239
I0
sg240
I18
sg241
I6
sg242
I0
sg243
S'S'
p1646
sbssg208
I16
sg209
I0
sg210
I1
sg211
I0
sg212
F10.588235294117647
sg213
I0
sg214
I0
sg215
I1
sg216
(dp1647
g504
I12
sg505
I10
sg506
I9
sg507
I10
sg508
I6
sg509
I8
sg510
I6
sg511
I10
sg512
I12
sg513
I10
sg514
I8
sg515
I9
sg516
I6
sg517
I9
sg518
I5
ssg233
g1586
sg234
I0
sg235
g31
sg237
I0
sg238
I0
sg239
I0
sg240
I18
sg241
I9
sg242
I1
sg243
g519
sbsg520
(ijoueur
joueur
p1648
(dp1649
g28
I0
sg32
I0
sg34
I0
sg35
g36
(g37
g38
Ntp1650
Rp1651
(dp1652
g42
I5
sg43
S'**'
p1653
sg45
S'seigneur'
p1654
sbsg47
(dp1655
S'SR'
p1656
I0
sS'ST'
p1657
I0
sS'CR'
p1658
I0
sS'CT'
p1659
I0
ssg53
(dp1660
g1656
I0
sg1657
I0
sg1658
I0
sg1659
I0
ssg56
I0
sg57
I0
sg59
I00
sg60
I0
sg61
I0
sg62
I0
sg63
(S'dummy'
p1661
S'DL'
p1662
g31
g31
tp1663
sg68
I00
sg69
g36
(g37
g38
Ntp1664
Rp1665
(dp1666
g42
I5
sg43
S'**'
p1667
sg45
g1654
sbsg74
(dp1668
g1656
I7
sg1657
I2
sg1658
I10
sg1659
I6
ssg80
(dp1669
g1656
I0
sg1657
I0
sg1658
I0
sg1659
I0
ssg82
(dp1670
g1656
I0
sg1657
I0
sg1658
I0
sg1659
I0
ssg84
(dp1671
g1656
I7
sg1657
I2
sg1658
I10
sg1659
I6
ssg86
I0
sg87
I0
sg88
S'Skoss'
p1672
sg90
I7
sg91
I0
sg92
I18
sg93
I198
sg94
S'TO'
p1673
sg96
(dp1674
S'A'
p1675
I12
sS'ME'
p1676
I10
sS'RP2'
p1677
I9
sS'E'
p1678
I10
sS'TO'
p1679
I12
sS'RP1'
p1680
I8
sS'JP'
p1681
I6
sS'RP_tot'
p1682
I10
sS'P'
p1683
I6
sS'PA'
p1684
I10
sS'M'
p1685
I8
sS'R'
p1686
I9
sS'TB'
p1687
I6
sS'PL'
p1688
I9
sS'TA'
p1689
I5
ssg208
I0
sg209
I0
sg210
I1
sg211
I0
sg212
F10.147058823529411
sg213
I0
sg214
I1
sg215
I0
sg216
(dp1690
S'A'
p1691
I12
sS'ME'
p1692
I10
sS'RP2'
p1693
I9
sS'E'
p1694
I10
sS'TO'
p1695
I12
sS'RP1'
p1696
I8
sS'JP'
p1697
I6
sS'RP_tot'
p1698
I10
sS'P'
p1699
I6
sS'PA'
p1700
I10
sS'M'
p1701
I8
sS'R'
p1702
I9
sS'TB'
p1703
I6
sS'PL'
p1704
I9
sS'TA'
p1705
I5
ssg233
g1674
sg234
I0
sg235
g31
sg237
I0
sg238
I0
sg239
I0
sg240
I18
sg241
I6
sg242
I0
sg243
S'S'
p1706
sbssg208
I10
sg209
I0
sg210
I1
sg211
I0
sg212
F11.117647058823529
sg213
I0
sg214
I0
sg215
I1
sg216
(dp1707
g583
I12
sg584
I10
sg585
I9
sg586
I10
sg587
I6
sg588
I8
sg589
I6
sg590
I10
sg591
I12
sg592
I10
sg593
I8
sg594
I9
sg595
I6
sg596
I9
sg597
I5
ssg233
(dp1708
g375
I12
sg376
I12
sg377
I9
sg378
I11
sg383
I15
sg380
I8
sg381
I6
sg382
I10
sg379
I6
sg384
I10
sg385
I8
sg386
I9
sg387
I6
sg388
I9
sg389
I5
ssg234
I0
sg342
(dp1709
sg237
I0
sg235
g31
sg238
I0
sg239
I0
sg240
I6
sg241
I10
sg242
I0
sg243
g600
sbsS'drop1'
p1710
g347
sS'drop2'
p1711
g1026
sS'SA_remp2'
p1712
(ijoueur
joueur
p1713
(dp1714
g27
F11.296296296296296
sg28
I0
sg29
F12.407407407407407
sg30
g31
sg32
I0
sg33
F74.18088867235844
sg34
I0
sg35
g36
(g37
g38
Ntp1715
Rp1716
(dp1717
g42
I4
sg43
S'x'
p1718
sg45
S'heros'
p1719
sbsg47
(dp1720
S'SR'
p1721
I0
sS'ST'
p1722
I0
sS'CR'
p1723
I0
sS'CT'
p1724
I0
ssg53
(dp1725
g1721
I0
sg1722
I0
sg1723
I0
sg1724
I0
ssg55
I0
sg56
I0
sg212
F12.666666666666666
sg57
I0
sg615
I0
sg616
I0
sg60
I0
sg61
I0
sg62
I0
sg63
(S'dummy'
p1726
S'DL'
p1727
S'N8'
p1728
S'TL'
p1729
tp1730
sg68
I00
sg69
g36
(g37
g38
Ntp1731
Rp1732
(dp1733
g42
I5
sg43
g864
sg45
g865
sbsg74
(dp1734
g76
I0
sg77
I0
sg78
I0
sg79
I7
ssg59
I00
sg82
(dp1735
g76
I0
sg77
I0
sg78
I0
sg79
I0
ssg84
(dp1736
g1721
I0
sg1722
I12
sg1723
I2
sg1724
I35
ssg86
I0
sg87
I0
sg88
S'Kadraq'
p1737
sg90
I4
sg91
I0
sg92
I17
sg93
I349
sg94
g95
sg96
(dp1738
S'A'
p1739
I10
sS'ME'
p1740
I14
sS'RP2'
p1741
I8
sS'E'
p1742
I11
sS'P'
p1743
I3
sS'RP1'
p1744
I15
sS'JP'
p1745
I3
sS'RP_tot'
p1746
I16
sS'TO'
p1747
I9
sS'PA'
p1748
I7
sS'M'
p1749
I7
sS'R'
p1750
I13
sS'TB'
p1751
I4
sS'PL'
p1752
I10
sS'TA'
p1753
I6
ssg113
(dp1754
g391
(ijoueur
joueur
p1755
(dp1756
g27
F11.296296296296296
sg28
I0
sg30
g31
sg32
I0
sg34
I0
sg35
g36
(g37
g38
Ntp1757
Rp1758
(dp1759
g42
I4
sg43
S'x'
p1760
sg45
S'heros'
p1761
sbsg47
(dp1762
S'SR'
p1763
I0
sS'ST'
p1764
I0
sS'CR'
p1765
I0
sS'CT'
p1766
I0
ssg53
(dp1767
g1763
I0
sg1764
I0
sg1765
I0
sg1766
I0
ssg56
I0
sg57
I0
sg615
I0
sg616
I0
sg59
I01
sg60
I2
sg61
I0
sg62
I0
sg63
(S'dummy'
p1768
S'DL'
p1769
S'N8'
p1770
S'TL'
p1771
tp1772
sg68
I00
sg69
g36
(g37
g38
Ntp1773
Rp1774
(dp1775
g42
I5
sg43
g890
sg45
g891
sbsg74
(dp1776
g406
I0
sg407
I6
sg408
I1
sg409
I14
ssg80
(dp1777
g406
I0
sg407
I0
sg408
I0
sg409
I0
ssg82
(dp1778
g406
I0
sg407
I0
sg408
I0
sg409
I0
ssg84
(dp1779
g1763
I0
sg1764
I12
sg1765
I2
sg1766
I28
ssg86
I0
sg87
I0
sg88
S'Kadraq'
p1780
sg90
I4
sg91
I0
sg92
I17
sg93
I349
sg94
g423
sg96
(dp1781
S'A'
p1782
I11
sS'ME'
p1783
I14
sS'RP2'
p1784
I8
sS'E'
p1785
I11
sS'TO'
p1786
I9
sS'RP1'
p1787
I15
sS'JP'
p1788
I3
sS'RP_tot'
p1789
I16
sS'P'
p1790
I3
sS'PA'
p1791
I7
sS'M'
p1792
I7
sS'R'
p1793
I13
sS'TB'
p1794
I4
sS'PL'
p1795
I11
sS'TA'
p1796
I6
ssg113
(dp1797
g441
(ijoueur
joueur
p1798
(dp1799
g28
I0
sg32
I0
sg34
I0
sg35
g36
(g37
g38
Ntp1800
Rp1801
(dp1802
g42
I4
sg43
S'x'
p1803
sg45
S'heros'
p1804
sbsg47
(dp1805
S'SR'
p1806
I0
sS'ST'
p1807
I0
sS'CR'
p1808
I0
sS'CT'
p1809
I0
ssg53
(dp1810
g1806
I0
sg1807
I0
sg1808
I0
sg1809
I0
ssg80
(dp1811
g1806
I0
sg1807
I0
sg1808
I0
sg1809
I0
ssg56
I0
sg57
I0
sg615
I0
sg616
I0
sg60
I2
sg61
I0
sg62
I0
sg63
(S'dummy'
p1812
S'DL'
p1813
S'N8'
p1814
S'TL'
p1815
tp1816
sg68
I01
sg69
g36
(g37
g38
Ntp1817
Rp1818
(dp1819
g42
I4
sg43
S'x'
p1820
sg45
g1804
sbsg74
(dp1821
g1806
I0
sg1807
I6
sg1808
I1
sg1809
I14
ssg59
I00
sg82
(dp1822
g1806
I0
sg1807
I0
sg1808
I0
sg1809
I0
ssg84
(dp1823
g1806
I0
sg1807
I6
sg1808
I1
sg1809
I14
ssg86
I0
sg87
I0
sg88
S'Kadraq'
p1824
sg90
I4
sg91
I0
sg92
I17
sg93
I140
sg94
S'ALT'
p1825
sg96
(dp1826
S'A'
p1827
I10
sS'ME'
p1828
I14
sS'RP2'
p1829
I8
sS'E'
p1830
I10
sS'TO'
p1831
I8
sS'RP1'
p1832
I11
sS'JP'
p1833
I0
sS'RP_tot'
p1834
I12
sS'P'
p1835
I0
sS'PA'
p1836
I6
sS'M'
p1837
I7
sS'R'
p1838
I12
sS'TB'
p1839
I1
sS'PL'
p1840
I11
sS'TA'
p1841
I6
ssg208
I0
sg209
I0
sg210
I0
sg211
I0
sg212
F11.296296296296296
sg213
I0
sg730
I0
sg214
I0
sg215
I0
sg216
(dp1842
S'A'
p1843
I10
sS'ME'
p1844
I14
sS'RP2'
p1845
I8
sS'E'
p1846
I10
sS'TO'
p1847
I8
sS'RP1'
p1848
I11
sS'JP'
p1849
I0
sS'RP_tot'
p1850
I12
sS'P'
p1851
I0
sS'PA'
p1852
I6
sS'M'
p1853
I7
sS'R'
p1854
I12
sS'TB'
p1855
I1
sS'PL'
p1856
I11
sS'TA'
p1857
I6
ssg233
g1826
sg234
I0
sg235
g31
sg237
I0
sg238
I0
sg239
I0
sg240
I23
sg241
I8
sg242
I0
sg243
S'HL'
p1858
sbssg208
I8
sg209
I0
sg210
I0
sg211
I0
sg212
F12.407407407407407
sg213
I0
sg730
I0
sg214
I0
sg215
I3
sg216
(dp1859
S'A'
p1860
I10
sS'ME'
p1861
I14
sS'RP2'
p1862
I8
sS'E'
p1863
I10
sS'P'
p1864
I0
sS'RP1'
p1865
I11
sS'JP'
p1866
I0
sS'RP_tot'
p1867
I12
sS'TO'
p1868
I8
sS'PA'
p1869
I6
sS'M'
p1870
I7
sS'R'
p1871
I12
sS'TB'
p1872
I1
sS'PL'
p1873
I11
sS'TA'
p1874
I6
ssg233
g1781
sg234
I0
sg235
S'ALT 12'
p1875
sg237
I0
sg238
I0
sg239
I0
sg240
I30
sg241
I10
sg242
I3
sg243
S'HL'
p1876
sbsg520
(ijoueur
joueur
p1877
(dp1878
g28
I0
sg32
I0
sg34
I0
sg35
g36
(g37
g38
Ntp1879
Rp1880
(dp1881
g42
I4
sg43
S'x'
p1882
sg45
S'heros'
p1883
sbsg47
(dp1884
S'SR'
p1885
I0
sS'ST'
p1886
I0
sS'CR'
p1887
I0
sS'CT'
p1888
I0
ssg53
(dp1889
g1885
I0
sg1886
I0
sg1887
I0
sg1888
I0
ssg80
(dp1890
g1885
I0
sg1886
I0
sg1887
I0
sg1888
I0
ssg56
I0
sg57
I0
sg615
I0
sg616
I0
sg60
I2
sg61
I0
sg62
I0
sg63
(S'dummy'
p1891
S'DL'
p1892
S'N8'
p1893
S'TL'
p1894
tp1895
sg68
I01
sg69
g36
(g37
g38
Ntp1896
Rp1897
(dp1898
g42
I4
sg43
S'x'
p1899
sg45
g1883
sbsg74
(dp1900
g1885
I0
sg1886
I6
sg1887
I1
sg1888
I14
ssg59
I00
sg82
(dp1901
g1885
I0
sg1886
I0
sg1887
I0
sg1888
I0
ssg84
(dp1902
g1885
I0
sg1886
I6
sg1887
I1
sg1888
I14
ssg86
I0
sg87
I0
sg88
S'Kadraq'
p1903
sg90
I4
sg91
I0
sg92
I17
sg93
I140
sg94
S'ALT'
p1904
sg96
(dp1905
S'A'
p1906
I10
sS'ME'
p1907
I14
sS'RP2'
p1908
I8
sS'E'
p1909
I10
sS'TO'
p1910
I8
sS'RP1'
p1911
I11
sS'JP'
p1912
I0
sS'RP_tot'
p1913
I12
sS'P'
p1914
I0
sS'PA'
p1915
I6
sS'M'
p1916
I7
sS'R'
p1917
I12
sS'TB'
p1918
I1
sS'PL'
p1919
I11
sS'TA'
p1920
I6
ssg208
I0
sg209
I0
sg210
I0
sg211
I0
sg212
F11.296296296296296
sg213
I0
sg730
I0
sg214
I0
sg215
I0
sg216
(dp1921
S'A'
p1922
I10
sS'ME'
p1923
I14
sS'RP2'
p1924
I8
sS'E'
p1925
I10
sS'TO'
p1926
I8
sS'RP1'
p1927
I11
sS'JP'
p1928
I0
sS'RP_tot'
p1929
I12
sS'P'
p1930
I0
sS'PA'
p1931
I6
sS'M'
p1932
I7
sS'R'
p1933
I12
sS'TB'
p1934
I1
sS'PL'
p1935
I11
sS'TA'
p1936
I6
ssg233
g1905
sg234
I0
sg235
g31
sg237
I0
sg238
I0
sg239
I0
sg240
I23
sg241
I8
sg242
I0
sg243
S'HL'
p1937
sbssg208
I11
sg209
I0
sg210
I0
sg211
I0
sg80
(dp1938
g76
I0
sg77
I0
sg78
I0
sg79
I0
ssg213
I0
sg58
F74.18088867235844
sg730
I0
sg214
I0
sg215
I3
sg216
(dp1939
S'A'
p1940
I10
sS'ME'
p1941
I14
sS'RP2'
p1942
I8
sS'E'
p1943
I10
sS'P'
p1944
I0
sS'RP1'
p1945
I11
sS'JP'
p1946
I0
sS'RP_tot'
p1947
I12
sS'TO'
p1948
I8
sS'PA'
p1949
I6
sS'M'
p1950
I7
sS'R'
p1951
I12
sS'TB'
p1952
I1
sS'PL'
p1953
I11
sS'TA'
p1954
I6
ssg233
(dp1955
g1739
I11
sg1740
I14
sg1741
I8
sg1742
I11
sg1747
I9
sg1744
I15
sg1745
I3
sg1746
I16
sg1743
I3
sg1748
I7
sg1749
I7
sg1750
I14
sg1751
I4
sg1752
I11
sg1753
I6
ssg234
I0
sg342
(dp1956
sg237
I0
sg235
S'ALT 12'
p1957
sg238
I0
sg239
I0
sg240
I30
sg241
I10
sg242
I0
sg243
S'HL'
p1958
sbssg88
S'TO_AL_c'
p1959
sS'totaux'
p1960
(dp1961
g19
I0
sg20
I0
sg21
I0
ssS'_compo_defaut_fatigue'
p1962
Nsg96
(dp1963
g4
I0
sg5
I0
sg6
I0
sg7
I0
sg8
I0
sg9
I0
sg10
I0
sg11
I0
sg12
I0
sg13
I0
sg14
I0
sg15
I0
sg16
I0
ssS'joueurs'
p1964
(dp1965
S'n12'
p1966
g848
sS'n13'
p1967
(ijoueur
joueur
p1968
(dp1969
g27
F10.862068965517242
sg28
I0
sg29
F11.310344827586206
sg30
g31
sg32
I0
sg33
F74.18256448143376
sg34
I0
sg35
g36
(g37
g38
Ntp1970
Rp1971
(dp1972
g42
I5
sg43
S'**'
p1973
sg45
g353
sbsg47
(dp1974
g355
I0
sg356
I0
sg357
I0
sg358
I1
ssg53
(dp1975
g355
I0
sg356
I0
sg357
I0
sg358
I0
ssg55
I0
sg56
I0
sg57
I0
sg58
F74.18256448143376
sg59
I00
sg60
I1
sg61
I0
sg62
I0
sg63
(g360
S'C2'
p1976
S'AR'
p1977
g31
tp1978
sg68
I00
sg69
g36
(g37
g38
Ntp1979
Rp1980
(dp1981
g42
I5
sg43
S'**'
p1982
sg45
g353
sbsg74
(dp1983
g76
I0
sg77
I0
sg78
I0
sg79
I6
ssg80
(dp1984
g76
I0
sg77
I0
sg78
I0
sg79
I1
ssg82
(dp1985
g76
I0
sg77
I0
sg78
I0
sg79
I0
ssg84
(dp1986
g355
I0
sg356
I6
sg357
I0
sg358
I33
ssg86
I0
sg87
I0
sg88
S'Woroder'
p1987
sg90
I4
sg91
I0
sg92
I15
sg93
I182
sg94
g95
sg96
(dp1988
g375
I9
sg376
I6
sg377
I8
sg378
I12
sg379
I7
sg380
I13
sg381
I6
sg382
I14
sg383
I6
sg384
I10
sg385
I9
sg386
I7
sg387
I6
sg388
I13
sg389
I6
ssg113
(dp1989
g391
(ijoueur
joueur
p1990
(dp1991
g27
F10.862068965517242
sg28
I0
sg30
g31
sg32
I0
sg34
I0
sg35
g36
(g37
g38
Ntp1992
Rp1993
(dp1994
g42
I5
sg43
S'**'
p1995
sg45
g398
sbsg47
(dp1996
g400
I0
sg401
I0
sg402
I0
sg403
I0
ssg53
(dp1997
g400
I0
sg401
I0
sg402
I0
sg403
I0
ssg80
(dp1998
g406
I0
sg407
I0
sg408
I0
sg409
I0
ssg56
I0
sg57
I0
sg60
I4
sg61
I0
sg62
I0
sg63
(g410
S'C2'
p1999
S'AR'
p2000
g31
tp2001
sg68
I00
sg69
g36
(g37
g38
Ntp2002
Rp2003
(dp2004
g42
I5
sg43
S'**'
p2005
sg45
g398
sbsg74
(dp2006
g406
I0
sg407
I6
sg408
I0
sg409
I13
ssg59
I01
sg82
(dp2007
g406
I0
sg407
I0
sg408
I0
sg409
I0
ssg84
(dp2008
g400
I0
sg401
I6
sg402
I0
sg403
I27
ssg86
I0
sg87
I0
sg88
S'Woroder'
p2009
sg90
I4
sg91
I0
sg92
I15
sg93
I182
sg94
g423
sg96
(dp2010
g425
I10
sg426
I6
sg427
I8
sg428
I12
sg429
I6
sg430
I13
sg431
I6
sg432
I14
sg433
I7
sg434
I10
sg435
I9
sg436
I10
sg437
I6
sg438
I14
sg439
I6
ssg113
(dp2011
g441
(ijoueur
joueur
p2012
(dp2013
g28
I0
sg32
I0
sg34
I0
sg35
g36
(g37
g38
Ntp2014
Rp2015
(dp2016
g42
I5
sg43
S'**'
p2017
sg45
S'seigneur'
p2018
sbsg47
(dp2019
S'SR'
p2020
I0
sS'ST'
p2021
I0
sS'CR'
p2022
I0
sS'CT'
p2023
I0
ssg53
(dp2024
g2020
I0
sg2021
I0
sg2022
I0
sg2023
I0
ssg56
I0
sg57
I0
sg59
I00
sg60
I0
sg61
I0
sg62
I0
sg63
(S'dummy'
p2025
S'C2'
p2026
S'AR'
p2027
g31
tp2028
sg68
I00
sg69
g36
(g37
g38
Ntp2029
Rp2030
(dp2031
g42
I5
sg43
S'**'
p2032
sg45
g2018
sbsg74
(dp2033
g2020
I0
sg2021
I0
sg2022
I0
sg2023
I14
ssg80
(dp2034
g2020
I0
sg2021
I0
sg2022
I0
sg2023
I0
ssg82
(dp2035
g2020
I0
sg2021
I0
sg2022
I0
sg2023
I0
ssg84
(dp2036
g2020
I0
sg2021
I0
sg2022
I0
sg2023
I14
ssg86
I0
sg87
I0
sg88
S'Woroder'
p2037
sg90
I4
sg91
I0
sg92
I15
sg93
I182
sg94
S'TO'
p2038
sg96
(dp2039
S'A'
p2040
I10
sS'ME'
p2041
I6
sS'RP2'
p2042
I8
sS'E'
p2043
I11
sS'TO'
p2044
I6
sS'RP1'
p2045
I12
sS'JP'
p2046
I6
sS'RP_tot'
p2047
I13
sS'P'
p2048
I7
sS'PA'
p2049
I9
sS'M'
p2050
I9
sS'R'
p2051
I10
sS'TB'
p2052
I6
sS'PL'
p2053
I14
sS'TA'
p2054
I6
ssg208
I0
sg209
I0
sg210
I0
sg211
I0
sg212
F10.862068965517242
sg213
I0
sg214
I0
sg215
I0
sg216
(dp2055
S'A'
p2056
I10
sS'ME'
p2057
I6
sS'RP2'
p2058
I8
sS'E'
p2059
I11
sS'TO'
p2060
I6
sS'RP1'
p2061
I12
sS'JP'
p2062
I6
sS'RP_tot'
p2063
I13
sS'P'
p2064
I7
sS'PA'
p2065
I9
sS'M'
p2066
I9
sS'R'
p2067
I10
sS'TB'
p2068
I6
sS'PL'
p2069
I14
sS'TA'
p2070
I6
ssg233
g2039
sg234
I0
sg235
S'TA 10'
p2071
sg237
I0
sg238
I0
sg239
I0
sg240
I14
sg241
I13
sg242
I0
sg243
S'O'
p2072
sbssg208
I6
sg209
I0
sg210
I0
sg211
I0
sg212
F11.310344827586206
sg213
I0
sg214
I0
sg215
I0
sg216
(dp2073
g504
I10
sg505
I6
sg506
I8
sg507
I11
sg508
I7
sg509
I12
sg510
I6
sg511
I13
sg512
I6
sg513
I9
sg514
I9
sg515
I10
sg516
I6
sg517
I14
sg518
I6
ssg233
g2010
sg234
I0
sg235
S'TA 10'
p2074
sg237
I0
sg238
I0
sg239
I0
sg240
I14
sg241
I17
sg242
I0
sg243
S'O'
p2075
sbsg520
(ijoueur
joueur
p2076
(dp2077
g28
I0
sg32
I0
sg34
I0
sg35
g36
(g37
g38
Ntp2078
Rp2079
(dp2080
g42
I5
sg43
S'**'
p2081
sg45
S'seigneur'
p2082
sbsg47
(dp2083
S'SR'
p2084
I0
sS'ST'
p2085
I0
sS'CR'
p2086
I0
sS'CT'
p2087
I0
ssg53
(dp2088
g2084
I0
sg2085
I0
sg2086
I0
sg2087
I0
ssg56
I0
sg57
I0
sg59
I00
sg60
I0
sg61
I0
sg62
I0
sg63
(S'dummy'
p2089
S'C2'
p2090
S'AR'
p2091
g31
tp2092
sg68
I00
sg69
g36
(g37
g38
Ntp2093
Rp2094
(dp2095
g42
I5
sg43
S'**'
p2096
sg45
g2082
sbsg74
(dp2097
g2084
I0
sg2085
I0
sg2086
I0
sg2087
I14
ssg80
(dp2098
g2084
I0
sg2085
I0
sg2086
I0
sg2087
I0
ssg82
(dp2099
g2084
I0
sg2085
I0
sg2086
I0
sg2087
I0
ssg84
(dp2100
g2084
I0
sg2085
I0
sg2086
I0
sg2087
I14
ssg86
I0
sg87
I0
sg88
S'Woroder'
p2101
sg90
I4
sg91
I0
sg92
I15
sg93
I182
sg94
S'TO'
p2102
sg96
(dp2103
S'A'
p2104
I10
sS'ME'
p2105
I6
sS'RP2'
p2106
I8
sS'E'
p2107
I11
sS'TO'
p2108
I6
sS'RP1'
p2109
I12
sS'JP'
p2110
I6
sS'RP_tot'
p2111
I13
sS'P'
p2112
I7
sS'PA'
p2113
I9
sS'M'
p2114
I9
sS'R'
p2115
I10
sS'TB'
p2116
I6
sS'PL'
p2117
I14
sS'TA'
p2118
I6
ssg208
I0
sg209
I0
sg210
I0
sg211
I0
sg212
F10.862068965517242
sg213
I0
sg214
I0
sg215
I0
sg216
(dp2119
S'A'
p2120
I10
sS'ME'
p2121
I6
sS'RP2'
p2122
I8
sS'E'
p2123
I11
sS'TO'
p2124
I6
sS'RP1'
p2125
I12
sS'JP'
p2126
I6
sS'RP_tot'
p2127
I13
sS'P'
p2128
I7
sS'PA'
p2129
I9
sS'M'
p2130
I9
sS'R'
p2131
I10
sS'TB'
p2132
I6
sS'PL'
p2133
I14
sS'TA'
p2134
I6
ssg233
g2103
sg234
I0
sg235
S'TA 10'
p2135
sg237
I0
sg238
I0
sg239
I0
sg240
I14
sg241
I13
sg242
I0
sg243
S'O'
p2136
sbssg208
I10
sg209
I0
sg210
I0
sg211
I0
sg212
F11.172413793103448
sg213
I0
sg214
I0
sg215
I0
sg216
(dp2137
g583
I10
sg584
I6
sg585
I8
sg586
I11
sg587
I7
sg588
I12
sg589
I6
sg590
I13
sg591
I6
sg592
I9
sg593
I9
sg594
I10
sg595
I6
sg596
I14
sg597
I6
ssg233
(dp2138
g375
I10
sg376
I6
sg377
I8
sg378
I12
sg383
I6
sg380
I13
sg381
I6
sg382
I14
sg379
I7
sg384
I10
sg385
I9
sg386
I8
sg387
I6
sg388
I14
sg389
I6
ssg234
I0
sg342
(dp2139
sg237
I0
sg235
S'TA 10'
p2140
sg238
I0
sg239
I0
sg240
I14
sg241
I18
sg242
I0
sg243
S'O'
p2141
sbsS'n10'
p2142
g602
sS'n11'
p2143
g347
sS'n16'
p2144
(ijoueur
joueur
p2145
(dp2146
g28
I0
sg29
F7.0
sg30
g31
sg32
I0
sg33
F75.21307024151896
sS'poste3'
p2147
g31
sg34
I0
sS'poste1'
p2148
g31
sg35
g36
(g37
g38
Ntp2149
Rp2150
(dp2151
g42
I4
sg43
S'*'
p2152
sg45
S'heros'
p2153
sbsg47
(dp2154
S'SR'
p2155
I0
sS'ST'
p2156
I0
sS'CR'
p2157
I0
sS'CT'
p2158
I0
ssg53
(dp2159
g2155
I0
sg2156
I0
sg2157
I0
sg2158
I0
ssg55
I0
sg235
g31
sg57
I0
sg58
F75.21307024151896
sg59
I00
sg60
I0
sg61
I0
sg62
I0
sg94
g95
sg68
I00
sg69
g36
(g37
g38
Ntp2160
Rp2161
(dp2162
g42
I3
sg43
S'^^^'
p2163
sg45
S'rare'
p2164
sbsg74
(dp2165
g76
I0
sg77
I0
sg78
I6
sg79
I1
ssg80
(dp2166
g76
I0
sg77
I0
sg78
I0
sg79
I0
ssg82
(dp2167
g76
I0
sg77
I0
sg78
I0
sg79
I0
ssg84
(dp2168
g2155
I0
sg2156
I0
sg2157
I7
sg2158
I1
ssg86
I0
sg87
I0
sg88
S'Hublal'
p2169
sg90
I12
sg91
I0
sg92
I21
sg93
I70
sg63
(S'dummy'
p2170
S'TA'
p2171
g31
g31
tp2172
sS'poste2'
p2173
g31
sg96
(dp2174
S'RP1'
p2175
I9
sS'ME'
p2176
I10
sS'RP2'
p2177
I10
sS'E'
p2178
I10
sS'P'
p2179
I5
sS'JP'
p2180
I3
sS'M'
p2181
I9
sS'RP_tot'
p2182
I11
sS'TO'
p2183
I6
sS'PA'
p2184
I7
sS'A'
p2185
I7
sS'R'
p2186
I8
sS'TB'
p2187
I4
sS'PL'
p2188
I7
sS'TA'
p2189
I11
ssg113
(dp2190
g391
(ijoueur
joueur
p2191
(dp2192
g28
I0
sg30
g31
sg32
I0
sg2147
g31
sg34
I0
sg2148
g31
sg35
g36
(g37
g38
Ntp2193
Rp2194
(dp2195
g42
I4
sg43
S'*'
p2196
sg45
S'heros'
p2197
sbsg47
(dp2198
S'SR'
p2199
I0
sS'ST'
p2200
I0
sS'CR'
p2201
I0
sS'CT'
p2202
I0
ssg53
(dp2203
g2199
I0
sg2200
I0
sg2201
I0
sg2202
I0
ssg80
(dp2204
g2199
I0
sg2200
I0
sg2201
I0
sg2202
I0
ssg235
g31
sg57
I0
sg60
I0
sg61
I0
sg62
I0
sg94
g423
sg68
I00
sg69
g36
(g37
g38
Ntp2205
Rp2206
(dp2207
g42
I1
sg43
S'>'
p2208
sg45
S'base'
p2209
sbsg74
(dp2210
g2199
I0
sg2200
I0
sg2201
I1
sg2202
I0
ssg59
I00
sg82
(dp2211
g2199
I0
sg2200
I0
sg2201
I0
sg2202
I0
ssg84
(dp2212
g2199
I0
sg2200
I0
sg2201
I1
sg2202
I0
ssg86
I0
sg87
I0
sg88
S'Hublal'
p2213
sg90
I12
sg91
I0
sg92
I21
sg93
I9
sg63
(S'dummy'
p2214
S'TA'
p2215
g31
g31
tp2216
sg2173
g31
sg96
(dp2217
S'RP1'
p2218
I7
sS'ME'
p2219
I7
sS'RP2'
p2220
I8
sS'E'
p2221
I7
sS'TO'
p2222
I6
sS'M'
p2223
I9
sS'JP'
p2224
I3
sS'RP_tot'
p2225
I8
sS'P'
p2226
I5
sS'PA'
p2227
I7
sS'A'
p2228
I7
sS'R'
p2229
I6
sS'TB'
p2230
I4
sS'PL'
p2231
I5
sS'TA'
p2232
I9
ssg113
(dp2233
sg208
I0
sg209
I0
sg210
I0
sg211
I0
sg212
F7.0
sg213
I0
sg214
I0
sg215
I0
sg233
g2217
sg234
I0
sg237
I0
sg238
I0
sg239
I0
sg240
I0
sg241
I0
sg242
I0
sg243
S'HL'
p2234
sbssg208
I4
sg209
I0
sg210
I0
sg211
I0
sg212
F9.10344827586207
sg213
I0
sg214
I0
sg215
I0
sg233
(dp2235
g2175
I9
sg2176
I10
sg2177
I10
sg2178
I10
sg2183
I6
sg2181
I9
sg2180
I3
sg2182
I11
sg2179
I5
sg2184
I7
sg2185
I7
sg2186
I8
sg2187
I4
sg2188
I7
sg2189
I11
ssg234
I0
sg342
(dp2236
sg237
I0
sg238
I0
sg239
I0
sg240
I6
sg241
I0
sg242
I0
sg243
S'HL'
p2237
sbsS'n17'
p2238
(ijoueur
joueur
p2239
(dp2240
g27
F8.758620689655173
sg28
I0
sg29
F8.551724137931034
sg30
g31
sg32
I0
sg33
F41.66153517377913
sg34
I0
sg35
g36
(g37
g38
Ntp2241
Rp2242
(dp2243
g42
I1
sg43
S'>'
p2244
sg45
S'base'
p2245
sbsg47
(dp2246
S'SR'
p2247
I0
sS'CT'
p2248
I0
sS'CR'
p2249
I4
sS'ST'
p2250
I0
ssg53
(dp2251
g2247
I0
sg2248
I0
sg2249
I0
sg2250
I0
ssg55
I0
sg80
(dp2252
S'SR'
p2253
I0
sS'CT'
p2254
I0
sS'CR'
p2255
I2
sS'ST'
p2256
I0
ssg56
I0
sg57
I0
sg58
F41.66153517377913
sg60
I1
sg61
I0
sg62
I0
sg63
(S'dummy'
p2257
S'TA'
p2258
S'PI'
p2259
g31
tp2260
sg68
I00
sg69
g36
(g37
g38
Ntp2261
Rp2262
(dp2263
g42
I1
sg43
g2244
sg45
g2245
sbsg74
(dp2264
g2253
I0
sg2254
I1
sg2255
I1
sg2256
I0
ssg59
I00
sg82
(dp2265
g2253
I0
sg2254
I0
sg2255
I0
sg2256
I0
ssg84
(dp2266
g2247
I0
sg2248
I2
sg2249
I5
sg2250
I0
ssg86
I0
sg87
I0
sg88
S'Ikmelet'
p2267
sg90
I11
sg91
I0
sg92
I20
sg93
I21
sg94
S'TO'
p2268
sg96
(dp2269
S'A'
p2270
I8
sS'ME'
p2271
I10
sS'RP2'
p2272
I7
sS'E'
p2273
I10
sS'TO'
p2274
I2
sS'RP1'
p2275
I11
sS'JP'
p2276
I0
sS'RP_tot'
p2277
I11
sS'P'
p2278
I2
sS'PA'
p2279
I6
sS'M'
p2280
I7
sS'R'
p2281
I8
sS'TB'
p2282
I0
sS'PL'
p2283
I9
sS'TA'
p2284
I10
ssg113
(dp2285
S's12'
p2286
(ijoueur
joueur
p2287
(dp2288
g27
F8.758620689655173
sg28
I0
sg30
g31
sg32
I0
sg34
I0
sg35
g36
(g37
g38
Ntp2289
Rp2290
(dp2291
g42
I1
sg43
S'>'
p2292
sg45
S'base'
p2293
sbsg47
(dp2294
S'SR'
p2295
I0
sS'CT'
p2296
I0
sS'CR'
p2297
I2
sS'ST'
p2298
I0
ssg53
(dp2299
g2295
I0
sg2296
I0
sg2297
I0
sg2298
I0
ssg56
I0
sg212
F8.551724137931034
sg57
I0
sg60
I0
sg61
I0
sg62
I0
sg63
(S'dummy'
p2300
S'TA'
p2301
S'PI'
p2302
g31
tp2303
sg68
I00
sg69
g36
(g37
g38
Ntp2304
Rp2305
(dp2306
g42
I1
sg43
g2292
sg45
g2293
sbsg74
(dp2307
S'SR'
p2308
I0
sS'CT'
p2309
I1
sS'CR'
p2310
I1
sS'ST'
p2311
I0
ssg59
I00
sg82
(dp2312
g2308
I0
sg2309
I0
sg2310
I0
sg2311
I0
ssg84
(dp2313
g2295
I0
sg2296
I1
sg2297
I4
sg2298
I0
ssg86
I0
sg87
I0
sg88
S'Ikmelet'
p2314
sg90
I11
sg91
I0
sg92
I20
sg93
I21
sg94
S'TO'
p2315
sg96
(dp2316
S'A'
p2317
I7
sS'ME'
p2318
I9
sS'RP2'
p2319
I7
sS'E'
p2320
I10
sS'P'
p2321
I2
sS'RP1'
p2322
I10
sS'JP'
p2323
I0
sS'RP_tot'
p2324
I10
sS'TO'
p2325
I2
sS'PA'
p2326
I6
sS'M'
p2327
I7
sS'R'
p2328
I7
sS'TB'
p2329
I0
sS'PL'
p2330
I9
sS'TA'
p2331
I9
ssg113
(dp2332
S's11'
p2333
(ijoueur
joueur
p2334
(dp2335
g28
I0
sg32
I0
sg34
I0
sg35
g36
(g37
g38
Ntp2336
Rp2337
(dp2338
g42
I1
sg43
S'>'
p2339
sg45
S'base'
p2340
sbsg47
(dp2341
S'SR'
p2342
I0
sS'CT'
p2343
I0
sS'CR'
p2344
I2
sS'ST'
p2345
I0
ssg53
(dp2346
g2342
I0
sg2343
I0
sg2344
I0
sg2345
I0
ssg56
I0
sg57
I0
sg59
I00
sg60
I0
sg61
I0
sg62
I0
sg63
(S'dummy'
p2347
S'TA'
p2348
S'PI'
p2349
g31
tp2350
sg68
I01
sg69
g36
(g37
g38
Ntp2351
Rp2352
(dp2353
g42
I1
sg43
g2339
sg45
g2340
sbsg74
(dp2354
g2342
I0
sg2343
I0
sg2344
I3
sg2345
I0
ssg80
(dp2355
g2342
I0
sg2343
I0
sg2344
I2
sg2345
I0
ssg82
(dp2356
g2342
I0
sg2343
I0
sg2344
I0
sg2345
I0
ssg84
(dp2357
g2342
I0
sg2343
I0
sg2344
I3
sg2345
I0
ssg86
I0
sg87
I0
sg88
S'Ikmelet'
p2358
sg90
I11
sg91
I0
sg92
I20
sg93
I21
sg94
S'TO'
p2359
sg96
(dp2360
S'A'
p2361
I7
sS'ME'
p2362
I9
sS'RP2'
p2363
I7
sS'E'
p2364
I10
sS'P'
p2365
I2
sS'RP1'
p2366
I10
sS'JP'
p2367
I0
sS'RP_tot'
p2368
I10
sS'TO'
p2369
I2
sS'PA'
p2370
I6
sS'M'
p2371
I7
sS'R'
p2372
I8
sS'TB'
p2373
I0
sS'PL'
p2374
I9
sS'TA'
p2375
I9
ssg208
I0
sg209
I0
sg210
I0
sg211
I0
sg212
F8.758620689655173
sg213
I0
sg214
I0
sg215
I0
sg216
(dp2376
S'A'
p2377
I7
sS'ME'
p2378
I9
sS'RP2'
p2379
I7
sS'E'
p2380
I10
sS'P'
p2381
I2
sS'RP1'
p2382
I10
sS'JP'
p2383
I0
sS'RP_tot'
p2384
I10
sS'TO'
p2385
I2
sS'PA'
p2386
I6
sS'M'
p2387
I7
sS'R'
p2388
I8
sS'TB'
p2389
I0
sS'PL'
p2390
I9
sS'TA'
p2391
I9
ssg233
g2360
sg234
I0
sg235
g31
sg237
I0
sg238
I0
sg239
I0
sg240
I3
sg241
I0
sg242
I0
sg243
S'HL'
p2392
sbssg208
I0
sg209
I0
sg210
I0
sg211
I0
sg80
(dp2393
g2308
I0
sg2309
I0
sg2310
I0
sg2311
I0
ssg213
I0
sg214
I0
sg215
I0
sg216
(dp2394
S'A'
p2395
I7
sS'ME'
p2396
I9
sS'RP2'
p2397
I7
sS'E'
p2398
I10
sS'TO'
p2399
I2
sS'RP1'
p2400
I10
sS'JP'
p2401
I0
sS'RP_tot'
p2402
I10
sS'P'
p2403
I2
sS'PA'
p2404
I6
sS'M'
p2405
I7
sS'R'
p2406
I8
sS'TB'
p2407
I0
sS'PL'
p2408
I9
sS'TA'
p2409
I9
ssg233
g2316
sg234
I0
sg235
g31
sg237
I0
sg238
I0
sg239
I0
sg240
I3
sg241
I0
sg242
I0
sg243
S'HL'
p2410
sbsS's11'
p2411
(ijoueur
joueur
p2412
(dp2413
g28
I0
sg32
I0
sg34
I0
sg35
g36
(g37
g38
Ntp2414
Rp2415
(dp2416
g42
I1
sg43
S'>'
p2417
sg45
S'base'
p2418
sbsg47
(dp2419
S'SR'
p2420
I0
sS'CT'
p2421
I0
sS'CR'
p2422
I2
sS'ST'
p2423
I0
ssg53
(dp2424
g2420
I0
sg2421
I0
sg2422
I0
sg2423
I0
ssg56
I0
sg57
I0
sg59
I00
sg60
I0
sg61
I0
sg62
I0
sg63
(S'dummy'
p2425
S'TA'
p2426
S'PI'
p2427
g31
tp2428
sg68
I01
sg69
g36
(g37
g38
Ntp2429
Rp2430
(dp2431
g42
I1
sg43
g2417
sg45
g2418
sbsg74
(dp2432
g2420
I0
sg2421
I0
sg2422
I3
sg2423
I0
ssg80
(dp2433
g2420
I0
sg2421
I0
sg2422
I2
sg2423
I0
ssg82
(dp2434
g2420
I0
sg2421
I0
sg2422
I0
sg2423
I0
ssg84
(dp2435
g2420
I0
sg2421
I0
sg2422
I3
sg2423
I0
ssg86
I0
sg87
I0
sg88
S'Ikmelet'
p2436
sg90
I11
sg91
I0
sg92
I20
sg93
I21
sg94
S'TO'
p2437
sg96
(dp2438
S'A'
p2439
I7
sS'ME'
p2440
I9
sS'RP2'
p2441
I7
sS'E'
p2442
I10
sS'P'
p2443
I2
sS'RP1'
p2444
I10
sS'JP'
p2445
I0
sS'RP_tot'
p2446
I10
sS'TO'
p2447
I2
sS'PA'
p2448
I6
sS'M'
p2449
I7
sS'R'
p2450
I8
sS'TB'
p2451
I0
sS'PL'
p2452
I9
sS'TA'
p2453
I9
ssg208
I0
sg209
I0
sg210
I0
sg211
I0
sg212
F8.758620689655173
sg213
I0
sg214
I0
sg215
I0
sg216
(dp2454
S'A'
p2455
I7
sS'ME'
p2456
I9
sS'RP2'
p2457
I7
sS'E'
p2458
I10
sS'P'
p2459
I2
sS'RP1'
p2460
I10
sS'JP'
p2461
I0
sS'RP_tot'
p2462
I10
sS'TO'
p2463
I2
sS'PA'
p2464
I6
sS'M'
p2465
I7
sS'R'
p2466
I8
sS'TB'
p2467
I0
sS'PL'
p2468
I9
sS'TA'
p2469
I9
ssg233
g2438
sg234
I0
sg235
g31
sg237
I0
sg238
I0
sg239
I0
sg240
I3
sg241
I0
sg242
I0
sg243
S'HL'
p2470
sbssg208
I7
sg209
I0
sg210
I0
sg211
I0
sg212
F9.206896551724139
sg213
I0
sg214
I0
sg215
I0
sg216
(dp2471
S'A'
p2472
I7
sS'ME'
p2473
I9
sS'RP2'
p2474
I7
sS'E'
p2475
I10
sS'TO'
p2476
I2
sS'RP1'
p2477
I10
sS'JP'
p2478
I0
sS'RP_tot'
p2479
I10
sS'P'
p2480
I2
sS'PA'
p2481
I6
sS'M'
p2482
I7
sS'R'
p2483
I8
sS'TB'
p2484
I0
sS'PL'
p2485
I9
sS'TA'
p2486
I9
ssg233
(dp2487
g2270
I8
sg2271
I10
sg2272
I7
sg2273
I10
sg2278
I2
sg2275
I11
sg2276
I0
sg2277
I11
sg2274
I2
sg2279
I6
sg2280
I7
sg2281
I8
sg2282
I0
sg2283
I9
sg2284
I10
ssg234
I0
sg342
(dp2488
sg237
I0
sg235
g31
sg238
I0
sg239
I0
sg240
I3
sg241
I1
sg242
I0
sg243
S'HL'
p2489
sbsS'n14'
p2490
(ijoueur
joueur
p2491
(dp2492
g27
F11.484848484848484
sg28
I3
sg29
F11.181818181818182
sg30
g31
sg32
I0
sg33
F74.18256448143376
sg34
I0
sg35
g36
(g37
g38
Ntp2493
Rp2494
(dp2495
g42
I4
sg43
S'*'
p2496
sg45
S'heros'
p2497
sbsg47
(dp2498
S'SR'
p2499
I0
sS'ST'
p2500
I13
sS'CR'
p2501
I0
sS'CT'
p2502
I2
ssg53
(dp2503
g2499
I0
sg2500
I0
sg2501
I0
sg2502
I0
ssg55
I0
sg56
I0
sg212
F10.818181818181818
sg57
I0
sg58
F74.18256448143376
sg60
I0
sg61
I0
sg62
I1
sg63
(S'dummy'
p2504
S'AR'
p2505
S'CE'
p2506
S'AI'
p2507
tp2508
sg68
I00
sg69
g36
(g37
g38
Ntp2509
Rp2510
(dp2511
g42
I4
sg43
g2496
sg45
g2497
sbsg74
(dp2512
S'SR'
p2513
I0
sS'ST'
p2514
I0
sS'CR'
p2515
I0
sS'CT'
p2516
I6
ssg59
I00
sg82
(dp2517
g2513
I0
sg2514
I0
sg2515
I0
sg2516
I0
ssg84
(dp2518
g2499
I0
sg2500
I0
sg2501
I0
sg2502
I35
ssg86
I0
sg87
I0
sg88
S'Crodard'
p2519
sg90
I6
sg91
I1
sg92
I16
sg93
I110
sg94
S'TO'
p2520
sg96
(dp2521
S'A'
p2522
I11
sS'ME'
p2523
I5
sS'RP2'
p2524
I10
sS'E'
p2525
I12
sS'P'
p2526
I9
sS'RP1'
p2527
I9
sS'JP'
p2528
I8
sS'RP_tot'
p2529
I11
sS'TO'
p2530
I7
sS'PA'
p2531
I12
sS'M'
p2532
I9
sS'R'
p2533
I9
sS'TB'
p2534
I10
sS'PL'
p2535
I10
sS'TA'
p2536
I4
ssg113
(dp2537
S's12'
p2538
(ijoueur
joueur
p2539
(dp2540
g27
F11.484848484848484
sg28
I3
sg30
g31
sg32
I0
sg34
I0
sg35
g36
(g37
g38
Ntp2541
Rp2542
(dp2543
g42
I4
sg43
S'*'
p2544
sg45
S'heros'
p2545
sbsg47
(dp2546
S'SR'
p2547
I0
sS'ST'
p2548
I13
sS'CR'
p2549
I0
sS'CT'
p2550
I1
ssg53
(dp2551
g2547
I0
sg2548
I0
sg2549
I0
sg2550
I0
ssg56
I0
sg57
I0
sg59
I01
sg60
I6
sg61
I0
sg62
I0
sg63
(S'dummy'
p2552
S'AR'
p2553
S'CE'
p2554
S'AI'
p2555
tp2556
sg68
I00
sg69
g36
(g37
g38
Ntp2557
Rp2558
(dp2559
g42
I4
sg43
g2544
sg45
g2545
sbsg74
(dp2560
S'SR'
p2561
I0
sS'ST'
p2562
I0
sS'CR'
p2563
I0
sS'CT'
p2564
I14
ssg80
(dp2565
g2561
I0
sg2562
I7
sg2563
I0
sg2564
I0
ssg82
(dp2566
g2561
I0
sg2562
I0
sg2563
I0
sg2564
I0
ssg84
(dp2567
g2547
I0
sg2548
I0
sg2549
I0
sg2550
I29
ssg86
I0
sg87
I0
sg88
S'Crodard (12)'
p2568
sg90
I6
sg91
I0
sg92
I16
sg93
I110
sg94
S'TO'
p2569
sg96
(dp2570
S'A'
p2571
I13
sS'ME'
p2572
I5
sS'RP2'
p2573
I10
sS'E'
p2574
I12
sS'TO'
p2575
I7
sS'RP1'
p2576
I9
sS'JP'
p2577
I8
sS'RP_tot'
p2578
I11
sS'P'
p2579
I9
sS'PA'
p2580
I12
sS'M'
p2581
I9
sS'R'
p2582
I11
sS'TB'
p2583
I9
sS'PL'
p2584
I11
sS'TA'
p2585
I4
ssg113
(dp2586
S's11'
p2587
(ijoueur
joueur
p2588
(dp2589
g28
I0
sg32
I0
sg34
I0
sg35
g36
(g37
g38
Ntp2590
Rp2591
(dp2592
g42
I4
sg43
S'*'
p2593
sg45
S'heros'
p2594
sbsg47
(dp2595
S'SR'
p2596
I0
sS'ST'
p2597
I6
sS'CR'
p2598
I0
sS'CT'
p2599
I1
ssg53
(dp2600
g2596
I0
sg2597
I0
sg2598
I0
sg2599
I0
ssg56
I0
sg57
I0
sg59
I01
sg60
I1
sg61
I0
sg62
I0
sg63
(S'dummy'
p2601
S'AR'
p2602
S'CE'
p2603
S'AI'
p2604
tp2605
sg68
I00
sg69
g36
(g37
g38
Ntp2606
Rp2607
(dp2608
g42
I4
sg43
g2593
sg45
g2594
sbsg74
(dp2609
g2596
I0
sg2597
I0
sg2598
I0
sg2599
I15
ssg80
(dp2610
g2596
I0
sg2597
I6
sg2598
I0
sg2599
I1
ssg82
(dp2611
g2596
I0
sg2597
I0
sg2598
I0
sg2599
I0
ssg84
(dp2612
g2596
I0
sg2597
I0
sg2598
I0
sg2599
I15
ssg86
I0
sg87
I0
sg88
S'Crodard'
p2613
sg90
I6
sg91
I0
sg92
I16
sg93
I110
sg94
S'TO'
p2614
sg96
(dp2615
S'A'
p2616
I14
sS'ME'
p2617
I5
sS'RP2'
p2618
I10
sS'E'
p2619
I12
sS'TO'
p2620
I7
sS'RP1'
p2621
I9
sS'JP'
p2622
I9
sS'RP_tot'
p2623
I12
sS'P'
p2624
I10
sS'PA'
p2625
I12
sS'M'
p2626
I9
sS'R'
p2627
I11
sS'TB'
p2628
I9
sS'PL'
p2629
I11
sS'TA'
p2630
I4
ssg208
I0
sg209
I0
sg210
I0
sg211
I0
sg212
F11.484848484848484
sg213
I0
sg214
I0
sg215
I0
sg216
(dp2631
S'A'
p2632
I14
sS'ME'
p2633
I5
sS'RP2'
p2634
I10
sS'E'
p2635
I12
sS'TO'
p2636
I7
sS'RP1'
p2637
I9
sS'JP'
p2638
I9
sS'RP_tot'
p2639
I12
sS'P'
p2640
I10
sS'PA'
p2641
I12
sS'M'
p2642
I9
sS'R'
p2643
I11
sS'TB'
p2644
I9
sS'PL'
p2645
I11
sS'TA'
p2646
I4
ssg233
g2615
sg234
I0
sg235
g31
sg237
I0
sg238
I0
sg239
I0
sg240
I8
sg241
I27
sg242
I0
sg243
S'EMP'
p2647
sbssg208
I10
sg209
I0
sg210
I0
sg211
I0
sg212
F11.181818181818182
sg213
I0
sg214
I0
sg215
I0
sg216
(dp2648
S'A'
p2649
I14
sS'ME'
p2650
I5
sS'RP2'
p2651
I10
sS'E'
p2652
I12
sS'P'
p2653
I10
sS'RP1'
p2654
I9
sS'JP'
p2655
I9
sS'RP_tot'
p2656
I12
sS'TO'
p2657
I7
sS'PA'
p2658
I12
sS'M'
p2659
I9
sS'R'
p2660
I11
sS'TB'
p2661
I9
sS'PL'
p2662
I11
sS'TA'
p2663
I4
ssg233
g2570
sg234
I3
sg235
g31
sg237
I0
sg238
I0
sg239
I0
sg240
I8
sg241
I33
sg242
I0
sg243
S'EMP'
p2664
sbsS's11'
p2665
(ijoueur
joueur
p2666
(dp2667
g28
I0
sg32
I0
sg34
I0
sg35
g36
(g37
g38
Ntp2668
Rp2669
(dp2670
g42
I4
sg43
S'*'
p2671
sg45
S'heros'
p2672
sbsg47
(dp2673
S'SR'
p2674
I0
sS'ST'
p2675
I6
sS'CR'
p2676
I0
sS'CT'
p2677
I1
ssg53
(dp2678
g2674
I0
sg2675
I0
sg2676
I0
sg2677
I0
ssg56
I0
sg57
I0
sg59
I01
sg60
I1
sg61
I0
sg62
I0
sg63
(S'dummy'
p2679
S'AR'
p2680
S'CE'
p2681
S'AI'
p2682
tp2683
sg68
I00
sg69
g36
(g37
g38
Ntp2684
Rp2685
(dp2686
g42
I4
sg43
g2671
sg45
g2672
sbsg74
(dp2687
g2674
I0
sg2675
I0
sg2676
I0
sg2677
I15
ssg80
(dp2688
g2674
I0
sg2675
I6
sg2676
I0
sg2677
I1
ssg82
(dp2689
g2674
I0
sg2675
I0
sg2676
I0
sg2677
I0
ssg84
(dp2690
g2674
I0
sg2675
I0
sg2676
I0
sg2677
I15
ssg86
I0
sg87
I0
sg88
S'Crodard (11)'
p2691
sg90
I6
sg91
I0
sg92
I16
sg93
I110
sg94
S'TO'
p2692
sg96
(dp2693
S'A'
p2694
I14
sS'ME'
p2695
I5
sS'RP2'
p2696
I10
sS'E'
p2697
I12
sS'TO'
p2698
I7
sS'RP1'
p2699
I9
sS'JP'
p2700
I9
sS'RP_tot'
p2701
I11
sS'P'
p2702
I10
sS'PA'
p2703
I12
sS'M'
p2704
I9
sS'R'
p2705
I11
sS'TB'
p2706
I9
sS'PL'
p2707
I11
sS'TA'
p2708
I4
ssg208
I0
sg209
I0
sg210
I0
sg211
I0
sg212
F11.484848484848484
sg213
I0
sg214
I0
sg215
I0
sg216
(dp2709
S'A'
p2710
I14
sS'ME'
p2711
I5
sS'RP2'
p2712
I10
sS'E'
p2713
I12
sS'TO'
p2714
I7
sS'RP1'
p2715
I9
sS'JP'
p2716
I9
sS'RP_tot'
p2717
I12
sS'P'
p2718
I10
sS'PA'
p2719
I12
sS'M'
p2720
I9
sS'R'
p2721
I11
sS'TB'
p2722
I9
sS'PL'
p2723
I11
sS'TA'
p2724
I4
ssg233
g2693
sg234
I0
sg235
g31
sg237
I0
sg238
I0
sg239
I0
sg240
I8
sg241
I27
sg242
I0
sg243
S'EMP'
p2725
sbssg208
I10
sg209
I0
sg210
I0
sg211
I0
sg80
(dp2726
g2513
I0
sg2514
I0
sg2515
I0
sg2516
I1
ssg213
I0
sg214
I0
sg215
I0
sg216
(dp2727
S'A'
p2728
I14
sS'ME'
p2729
I5
sS'RP2'
p2730
I10
sS'E'
p2731
I12
sS'P'
p2732
I10
sS'RP1'
p2733
I9
sS'JP'
p2734
I9
sS'RP_tot'
p2735
I12
sS'TO'
p2736
I7
sS'PA'
p2737
I12
sS'M'
p2738
I9
sS'R'
p2739
I11
sS'TB'
p2740
I9
sS'PL'
p2741
I11
sS'TA'
p2742
I4
ssg233
(dp2743
g2522
I12
sg2523
I5
sg2524
I10
sg2525
I12
sg2530
I7
sg2527
I9
sg2528
I8
sg2529
I11
sg2526
I9
sg2531
I12
sg2532
I9
sg2533
I10
sg2534
I10
sg2535
I11
sg2536
I4
ssg234
I0
sg342
(dp2744
sg237
I0
sg235
g31
sg238
I0
sg239
I0
sg240
I8
sg241
I33
sg242
I0
sg243
S'EMP'
p2745
sbsS'n15'
p2746
(ijoueur
joueur
p2747
(dp2748
g27
F10.310344827586206
sg28
I0
sg29
F10.310344827586206
sg30
g31
sg32
I0
sg33
F30.875997017926867
sg34
I0
sg35
g36
(g37
g38
Ntp2749
Rp2750
(dp2751
g42
I2
sg43
S'<<'
p2752
sg45
S'special'
p2753
sbsg47
(dp2754
S'SR'
p2755
I0
sS'CT'
p2756
I6
sS'CR'
p2757
I5
sS'ST'
p2758
I0
ssg53
(dp2759
g2755
I0
sg2756
I0
sg2757
I11
sg2758
I0
ssg55
I0
sg56
I0
sg212
F10.0
sg57
I0
sg58
F30.875997017926867
sg60
I0
sg61
I0
sg62
I0
sg63
(S'dummy'
p2760
S'C2'
p2761
S'AI'
p2762
S'AR'
p2763
tp2764
sg68
I00
sg69
g36
(g37
g38
Ntp2765
Rp2766
(dp2767
g42
I2
sg43
S'<<'
p2768
sg45
g2753
sbsg74
(dp2769
g2513
I0
sg2514
I0
sg2515
I0
sg2516
I0
ssg59
I00
sg82
(dp2770
g2513
I0
sg2514
I0
sg2515
I2
sg2516
I0
ssg84
(dp2771
g2755
I0
sg2756
I4
sg2757
I6
sg2758
I0
ssg86
I0
sg87
I0
sg88
S'Dendaenol'
p2772
sg90
I1
sg91
I0
sg92
I10
sg93
I100
sg94
g2520
sg96
(dp2773
S'A'
p2774
I10
sS'ME'
p2775
I6
sS'RP2'
p2776
I6
sS'E'
p2777
I12
sS'TO'
p2778
I7
sS'RP1'
p2779
I10
sS'JP'
p2780
I6
sS'RP_tot'
p2781
I10
sS'P'
p2782
I9
sS'PA'
p2783
I10
sS'M'
p2784
I9
sS'R'
p2785
I5
sS'TB'
p2786
I8
sS'PL'
p2787
I12
sS'TA'
p2788
I3
ssg113
(dp2789
g2538
(ijoueur
joueur
p2790
(dp2791
g27
F10.310344827586206
sg28
I0
sg30
g31
sg32
I0
sg34
I0
sg35
g36
(g37
g38
Ntp2792
Rp2793
(dp2794
g42
I2
sg43
S'<<'
p2795
sg45
S'special'
p2796
sbsg47
(dp2797
S'SR'
p2798
I0
sS'CT'
p2799
I5
sS'CR'
p2800
I5
sS'ST'
p2801
I0
ssg53
(dp2802
g2798
I0
sg2799
I0
sg2800
I9
sg2801
I0
ssg56
I0
sg57
I0
sg59
I00
sg60
I0
sg61
I0
sg62
I0
sg63
(S'dummy'
p2803
S'C2'
p2804
S'AI'
p2805
S'AR'
p2806
tp2807
sg68
I00
sg69
g36
(g37
g38
Ntp2808
Rp2809
(dp2810
g42
I2
sg43
S'<<'
p2811
sg45
g2796
sbsg74
(dp2812
g2561
I0
sg2562
I0
sg2563
I6
sg2564
I2
ssg80
(dp2813
g2561
I0
sg2562
I0
sg2563
I0
sg2564
I3
ssg82
(dp2814
g2561
I0
sg2562
I0
sg2563
I4
sg2564
I0
ssg84
(dp2815
g2798
I0
sg2799
I4
sg2800
I6
sg2801
I0
ssg86
I0
sg87
I0
sg88
S'Dendaenol (12)'
p2816
sg90
I1
sg91
I0
sg92
I10
sg93
I100
sg94
g2569
sg96
(dp2817
S'A'
p2818
I10
sS'ME'
p2819
I6
sS'RP2'
p2820
I6
sS'E'
p2821
I12
sS'P'
p2822
I9
sS'RP1'
p2823
I11
sS'JP'
p2824
I7
sS'RP_tot'
p2825
I11
sS'TO'
p2826
I7
sS'PA'
p2827
I10
sS'M'
p2828
I10
sS'R'
p2829
I5
sS'TB'
p2830
I9
sS'PL'
p2831
I12
sS'TA'
p2832
I3
ssg113
(dp2833
g2587
(ijoueur
joueur
p2834
(dp2835
g28
I0
sg32
I0
sg34
I0
sg35
g36
(g37
g38
Ntp2836
Rp2837
(dp2838
g42
I2
sg43
S'<<'
p2839
sg45
S'special'
p2840
sbsg47
(dp2841
S'SR'
p2842
I0
sS'CT'
p2843
I2
sS'CR'
p2844
I5
sS'ST'
p2845
I0
ssg53
(dp2846
g2842
I0
sg2843
I0
sg2844
I5
sg2845
I0
ssg56
I0
sg57
I0
sg59
I01
sg60
I1
sg61
I0
sg62
I0
sg63
(S'dummy'
p2847
S'C2'
p2848
S'AI'
p2849
S'AR'
p2850
tp2851
sg68
I01
sg69
g36
(g37
g38
Ntp2852
Rp2853
(dp2854
g42
I2
sg43
S'<<'
p2855
sg45
g2840
sbsg74
(dp2856
g2842
I0
sg2843
I2
sg2844
I0
sg2845
I0
ssg80
(dp2857
g2842
I0
sg2843
I2
sg2844
I5
sg2845
I0
ssg82
(dp2858
g2842
I0
sg2843
I0
sg2844
I5
sg2845
I0
ssg84
(dp2859
g2842
I0
sg2843
I2
sg2844
I0
sg2845
I0
ssg86
I0
sg87
I0
sg88
S'Dendaenol'
p2860
sg90
I1
sg91
I0
sg92
I10
sg93
I8
sg94
S'SN'
p2861
sg96
(dp2862
S'A'
p2863
I10
sS'ME'
p2864
I6
sS'RP2'
p2865
I6
sS'E'
p2866
I12
sS'P'
p2867
I9
sS'RP1'
p2868
I11
sS'JP'
p2869
I7
sS'RP_tot'
p2870
I11
sS'TO'
p2871
I7
sS'PA'
p2872
I10
sS'M'
p2873
I10
sS'R'
p2874
I5
sS'TB'
p2875
I9
sS'PL'
p2876
I12
sS'TA'
p2877
I3
ssg208
I0
sg209
I0
sg210
I1
sg211
I0
sg212
F10.310344827586206
sg213
I0
sg214
I1
sg215
I0
sg216
(dp2878
S'A'
p2879
I10
sS'ME'
p2880
I6
sS'RP2'
p2881
I6
sS'E'
p2882
I12
sS'P'
p2883
I9
sS'RP1'
p2884
I11
sS'JP'
p2885
I7
sS'RP_tot'
p2886
I11
sS'TO'
p2887
I7
sS'PA'
p2888
I10
sS'M'
p2889
I10
sS'R'
p2890
I5
sS'TB'
p2891
I9
sS'PL'
p2892
I12
sS'TA'
p2893
I3
ssg233
g2862
sg234
I0
sg235
g31
sg237
I0
sg238
I0
sg239
I0
sg240
I1
sg241
I20
sg242
I0
sg243
S'EN'
p2894
sbssg208
I0
sg209
I0
sg210
I1
sg211
I0
sg212
F10.310344827586206
sg213
I0
sg214
I0
sg215
I0
sg216
(dp2895
S'A'
p2896
I10
sS'ME'
p2897
I6
sS'RP2'
p2898
I6
sS'E'
p2899
I12
sS'TO'
p2900
I7
sS'RP1'
p2901
I11
sS'JP'
p2902
I7
sS'RP_tot'
p2903
I11
sS'P'
p2904
I9
sS'PA'
p2905
I10
sS'M'
p2906
I10
sS'R'
p2907
I5
sS'TB'
p2908
I9
sS'PL'
p2909
I12
sS'TA'
p2910
I3
ssg233
g2817
sg234
I0
sg235
S'SN 12'
p2911
sg237
I0
sg238
I0
sg239
I0
sg240
I12
sg241
I20
sg242
I0
sg243
S'EN'
p2912
sbsg2665
(ijoueur
joueur
p2913
(dp2914
g28
I0
sg32
I0
sg34
I0
sg35
g36
(g37
g38
Ntp2915
Rp2916
(dp2917
g42
I2
sg43
S'<<'
p2918
sg45
S'special'
p2919
sbsg47
(dp2920
S'SR'
p2921
I0
sS'CT'
p2922
I2
sS'CR'
p2923
I5
sS'ST'
p2924
I0
ssg53
(dp2925
g2921
I0
sg2922
I0
sg2923
I5
sg2924
I0
ssg56
I0
sg57
I0
sg59
I01
sg60
I1
sg61
I0
sg62
I0
sg63
(S'dummy'
p2926
S'C2'
p2927
S'AI'
p2928
S'AR'
p2929
tp2930
sg68
I01
sg69
g36
(g37
g38
Ntp2931
Rp2932
(dp2933
g42
I2
sg43
S'<<'
p2934
sg45
g2919
sbsg74
(dp2935
g2921
I0
sg2922
I2
sg2923
I0
sg2924
I0
ssg80
(dp2936
g2921
I0
sg2922
I2
sg2923
I5
sg2924
I0
ssg82
(dp2937
g2921
I0
sg2922
I0
sg2923
I5
sg2924
I0
ssg84
(dp2938
g2921
I0
sg2922
I2
sg2923
I0
sg2924
I0
ssg86
I0
sg87
I0
sg88
S'Dendaenol (11)'
p2939
sg90
I1
sg91
I0
sg92
I10
sg93
I8
sg94
S'SN'
p2940
sg96
(dp2941
S'A'
p2942
I10
sS'ME'
p2943
I6
sS'RP2'
p2944
I6
sS'E'
p2945
I12
sS'P'
p2946
I9
sS'RP1'
p2947
I11
sS'JP'
p2948
I7
sS'RP_tot'
p2949
I11
sS'TO'
p2950
I7
sS'PA'
p2951
I10
sS'M'
p2952
I10
sS'R'
p2953
I5
sS'TB'
p2954
I9
sS'PL'
p2955
I12
sS'TA'
p2956
I3
ssg208
I0
sg209
I0
sg210
I1
sg211
I0
sg212
F10.310344827586206
sg213
I0
sg214
I1
sg215
I0
sg216
(dp2957
S'A'
p2958
I10
sS'ME'
p2959
I6
sS'RP2'
p2960
I6
sS'E'
p2961
I12
sS'P'
p2962
I9
sS'RP1'
p2963
I11
sS'JP'
p2964
I7
sS'RP_tot'
p2965
I11
sS'TO'
p2966
I7
sS'PA'
p2967
I10
sS'M'
p2968
I10
sS'R'
p2969
I5
sS'TB'
p2970
I9
sS'PL'
p2971
I12
sS'TA'
p2972
I3
ssg233
g2941
sg234
I0
sg235
g31
sg237
I0
sg238
I0
sg239
I0
sg240
I1
sg241
I20
sg242
I0
sg243
S'EN'
p2973
sbssg208
I7
sg209
I0
sg210
I1
sg211
I0
sg80
(dp2974
g2513
I0
sg2514
I0
sg2515
I0
sg2516
I1
ssg213
I0
sg214
I0
sg215
I0
sg216
(dp2975
S'A'
p2976
I10
sS'ME'
p2977
I6
sS'RP2'
p2978
I6
sS'E'
p2979
I12
sS'TO'
p2980
I7
sS'RP1'
p2981
I11
sS'JP'
p2982
I7
sS'RP_tot'
p2983
I11
sS'P'
p2984
I9
sS'PA'
p2985
I10
sS'M'
p2986
I10
sS'R'
p2987
I5
sS'TB'
p2988
I9
sS'PL'
p2989
I12
sS'TA'
p2990
I3
ssg233
(dp2991
g2774
I10
sg2775
I6
sg2776
I6
sg2777
I12
sg2782
I9
sg2779
I10
sg2780
I6
sg2781
I10
sg2778
I7
sg2783
I10
sg2784
I9
sg2785
I5
sg2786
I8
sg2787
I12
sg2788
I3
ssg234
I0
sg342
(dp2992
sg237
I0
sg235
S'SN 12'
p2993
sg238
I0
sg239
I0
sg240
I12
sg241
I20
sg242
I0
sg243
S'EN'
p2994
sbsS'n18'
p2995
g1546
sS'n19'
p2996
(ijoueur
joueur
p2997
(dp2998
g27
F10.666666666666666
sg28
I1
sg29
F10.482758620689655
sg30
g31
sg32
I0
sg33
F75.21307024151896
sg34
I0
sg35
g36
(g37
g38
Ntp2999
Rp3000
(dp3001
g42
I4
sg43
g853
sg45
g854
sbsg47
(dp3002
g355
I0
sg356
I0
sg357
I0
sg358
I1
ssg53
(dp3003
g355
I0
sg356
I0
sg357
I5
sg358
I21
ssg55
I0
sg56
I0
sg57
I0
sg58
F75.21307024151896
sg59
I00
sg60
I0
sg61
I0
sg62
I0
sg63
(g360
S'N8'
p3004
S'DL'
p3005
S'TL'
p3006
tp3007
sg68
I00
sg69
g36
(g37
g38
Ntp3008
Rp3009
(dp3010
g42
I4
sg43
g853
sg45
g854
sbsg74
(dp3011
g76
I0
sg77
I0
sg78
I3
sg79
I0
ssg80
(dp3012
g76
I0
sg77
I0
sg78
I0
sg79
I0
ssg82
(dp3013
g76
I0
sg77
I0
sg78
I2
sg79
I2
ssg84
(dp3014
g355
I0
sg356
I0
sg357
I8
sg358
I0
ssg86
I0
sg87
I0
sg88
S'Hydoel'
p3015
sg90
I3
sg91
I0
sg92
I12
sg93
I240
sg94
g95
sg96
(dp3016
g375
I10
sg376
I7
sg377
I7
sg378
I8
sg379
I4
sg380
I11
sg381
I3
sg382
I11
sg383
I9
sg384
I9
sg385
I6
sg386
I9
sg387
I3
sg388
I13
sg389
I4
ssg113
(dp3017
g391
(ijoueur
joueur
p3018
(dp3019
g27
F10.666666666666666
sg28
I1
sg30
g31
sg32
I0
sg34
I0
sg35
g36
(g37
g38
Ntp3020
Rp3021
(dp3022
g42
I4
sg43
g878
sg45
g879
sbsg47
(dp3023
g400
I0
sg401
I0
sg402
I0
sg403
I1
ssg53
(dp3024
g400
I0
sg401
I0
sg402
I3
sg403
I19
ssg80
(dp3025
g406
I0
sg407
I0
sg408
I0
sg409
I1
ssg56
I0
sg57
I0
sg60
I5
sg61
I0
sg62
I0
sg63
(g410
S'N8'
p3026
S'DL'
p3027
S'TL'
p3028
tp3029
sg68
I00
sg69
g36
(g37
g38
Ntp3030
Rp3031
(dp3032
g42
I4
sg43
g878
sg45
g879
sbsg74
(dp3033
g406
I0
sg407
I0
sg408
I5
sg409
I0
ssg59
I00
sg82
(dp3034
g406
I0
sg407
I0
sg408
I3
sg409
I6
ssg84
(dp3035
g400
I0
sg401
I0
sg402
I5
sg403
I0
ssg86
I0
sg87
I0
sg88
S'Hydoel'
p3036
sg90
I3
sg91
I0
sg92
I12
sg93
I240
sg94
g423
sg96
(dp3037
g425
I10
sg426
I7
sg427
I7
sg428
I10
sg429
I9
sg430
I11
sg431
I3
sg432
I11
sg433
I4
sg434
I9
sg435
I7
sg436
I11
sg437
I3
sg438
I13
sg439
I4
ssg113
(dp3038
g441
(ijoueur
joueur
p3039
(dp3040
g28
I1
sg32
I0
sg34
I0
sg35
g36
(g37
g38
Ntp3041
Rp3042
(dp3043
g42
I4
sg43
S'x'
p3044
sg45
S'heros'
p3045
sbsg47
(dp3046
S'SR'
p3047
I0
sS'ST'
p3048
I0
sS'CR'
p3049
I0
sS'CT'
p3050
I0
ssg53
(dp3051
g3047
I0
sg3048
I0
sg3049
I0
sg3050
I13
ssg56
I0
sg57
I0
sg59
I00
sg60
I0
sg61
I0
sg62
I0
sg63
(S'dummy'
p3052
S'N8'
p3053
S'DL'
p3054
S'TL'
p3055
tp3056
sg68
I00
sg69
g36
(g37
g38
Ntp3057
Rp3058
(dp3059
g42
I4
sg43
g3044
sg45
g3045
sbsg74
(dp3060
g3047
I0
sg3048
I0
sg3049
I0
sg3050
I0
ssg80
(dp3061
g3047
I0
sg3048
I0
sg3049
I0
sg3050
I0
ssg82
(dp3062
g3047
I0
sg3048
I0
sg3049
I0
sg3050
I13
ssg84
(dp3063
g3047
I0
sg3048
I0
sg3049
I0
sg3050
I0
ssg86
I0
sg87
I0
sg88
S'Hydoel'
p3064
sg90
I3
sg91
I0
sg92
I12
sg93
I240
sg94
S'TO'
p3065
sg96
(dp3066
S'A'
p3067
I11
sS'ME'
p3068
I7
sS'RP2'
p3069
I7
sS'E'
p3070
I10
sS'TO'
p3071
I11
sS'RP1'
p3072
I11
sS'JP'
p3073
I3
sS'RP_tot'
p3074
I11
sS'P'
p3075
I4
sS'PA'
p3076
I9
sS'M'
p3077
I7
sS'R'
p3078
I11
sS'TB'
p3079
I3
sS'PL'
p3080
I13
sS'TA'
p3081
I4
ssg208
I0
sg209
I0
sg210
I0
sg211
I0
sg212
F10.666666666666666
sg213
I0
sg214
I0
sg215
I0
sg216
(dp3082
S'A'
p3083
I11
sS'ME'
p3084
I7
sS'RP2'
p3085
I7
sS'E'
p3086
I10
sS'TO'
p3087
I11
sS'RP1'
p3088
I11
sS'JP'
p3089
I3
sS'RP_tot'
p3090
I11
sS'P'
p3091
I4
sS'PA'
p3092
I9
sS'M'
p3093
I7
sS'R'
p3094
I11
sS'TB'
p3095
I3
sS'PL'
p3096
I13
sS'TA'
p3097
I4
ssg233
g3066
sg234
I1
sg235
S'QNL 10'
p3098
sg237
I0
sg238
I0
sg239
I0
sg240
I24
sg241
I6
sg242
I0
sg243
S'CHS'
p3099
sbssg208
I0
sg209
I0
sg210
I0
sg211
I0
sg212
F10.482758620689655
sg213
I0
sg214
I0
sg215
I0
sg216
(dp3100
g504
I11
sg505
I7
sg506
I7
sg507
I10
sg508
I4
sg509
I11
sg510
I3
sg511
I11
sg512
I11
sg513
I9
sg514
I7
sg515
I11
sg516
I3
sg517
I13
sg518
I4
ssg233
g3037
sg234
I0
sg235
S'QNL 10'
p3101
sg237
I0
sg238
I0
sg239
I0
sg240
I24
sg241
I11
sg242
I0
sg243
S'CHS'
p3102
sbsg520
(ijoueur
joueur
p3103
(dp3104
g28
I1
sg32
I0
sg34
I0
sg35
g36
(g37
g38
Ntp3105
Rp3106
(dp3107
g42
I4
sg43
S'x'
p3108
sg45
S'heros'
p3109
sbsg47
(dp3110
S'SR'
p3111
I0
sS'ST'
p3112
I0
sS'CR'
p3113
I0
sS'CT'
p3114
I0
ssg53
(dp3115
g3111
I0
sg3112
I0
sg3113
I0
sg3114
I13
ssg56
I0
sg57
I0
sg59
I00
sg60
I0
sg61
I0
sg62
I0
sg63
(S'dummy'
p3116
S'N8'
p3117
S'DL'
p3118
S'TL'
p3119
tp3120
sg68
I00
sg69
g36
(g37
g38
Ntp3121
Rp3122
(dp3123
g42
I4
sg43
g3108
sg45
g3109
sbsg74
(dp3124
g3111
I0
sg3112
I0
sg3113
I0
sg3114
I0
ssg80
(dp3125
g3111
I0
sg3112
I0
sg3113
I0
sg3114
I0
ssg82
(dp3126
g3111
I0
sg3112
I0
sg3113
I0
sg3114
I13
ssg84
(dp3127
g3111
I0
sg3112
I0
sg3113
I0
sg3114
I0
ssg86
I0
sg87
I0
sg88
S'Hydoel'
p3128
sg90
I3
sg91
I0
sg92
I12
sg93
I240
sg94
S'TO'
p3129
sg96
(dp3130
S'A'
p3131
I11
sS'ME'
p3132
I7
sS'RP2'
p3133
I7
sS'E'
p3134
I10
sS'TO'
p3135
I11
sS'RP1'
p3136
I11
sS'JP'
p3137
I3
sS'RP_tot'
p3138
I11
sS'P'
p3139
I4
sS'PA'
p3140
I9
sS'M'
p3141
I7
sS'R'
p3142
I11
sS'TB'
p3143
I3
sS'PL'
p3144
I13
sS'TA'
p3145
I4
ssg208
I0
sg209
I0
sg210
I0
sg211
I0
sg212
F10.666666666666666
sg213
I0
sg214
I0
sg215
I0
sg216
(dp3146
S'A'
p3147
I11
sS'ME'
p3148
I7
sS'RP2'
p3149
I7
sS'E'
p3150
I10
sS'TO'
p3151
I11
sS'RP1'
p3152
I11
sS'JP'
p3153
I3
sS'RP_tot'
p3154
I11
sS'P'
p3155
I4
sS'PA'
p3156
I9
sS'M'
p3157
I7
sS'R'
p3158
I11
sS'TB'
p3159
I3
sS'PL'
p3160
I13
sS'TA'
p3161
I4
ssg233
g3130
sg234
I1
sg235
S'QNL 10'
p3162
sg237
I0
sg238
I0
sg239
I0
sg240
I24
sg241
I6
sg242
I0
sg243
S'CHS'
p3163
sbssg208
I7
sg209
I0
sg210
I0
sg211
I0
sg212
F9.689655172413794
sg213
I0
sg214
I0
sg215
I0
sg216
(dp3164
g583
I11
sg584
I7
sg585
I7
sg586
I10
sg587
I4
sg588
I11
sg589
I3
sg590
I11
sg591
I11
sg592
I9
sg593
I7
sg594
I11
sg595
I3
sg596
I13
sg597
I4
ssg233
(dp3165
g375
I10
sg376
I7
sg377
I7
sg378
I8
sg383
I9
sg380
I11
sg381
I3
sg382
I11
sg379
I4
sg384
I9
sg385
I6
sg386
I9
sg387
I3
sg388
I13
sg389
I4
ssg234
I0
sg342
(dp3166
sg237
I0
sg235
S'QNL 10'
p3167
sg238
I0
sg239
I0
sg240
I24
sg241
I11
sg242
I0
sg243
S'CHS'
p3168
sbsS'n22'
p3169
(ijoueur
joueur
p3170
(dp3171
g27
F9.517241379310345
sg28
I0
sg29
F9.516129032258064
sg30
S'CE -> AI : 13'
p3172
sg32
I0
sg33
F10.634942322978912
sg34
I0
sg35
g36
(g37
g38
Ntp3173
Rp3174
(dp3175
g42
I2
sg43
S'<<'
p3176
sg45
S'special'
p3177
sbsg47
(dp3178
S'SR'
p3179
I0
sS'CT'
p3180
I7
sS'CR'
p3181
I20
sS'ST'
p3182
I1
ssg53
(dp3183
g3179
I0
sg3180
I0
sg3181
I0
sg3182
I0
ssg55
I0
sg56
I0
sg57
I0
sg58
F10.634942322978912
sg59
I00
sg60
I0
sg61
I0
sg62
I0
sg63
(S'dummy'
p3184
S'AI'
p3185
S'CE'
p3186
g31
tp3187
sg68
I00
sg69
g36
(g37
g38
Ntp3188
Rp3189
(dp3190
g42
I2
sg43
S'<<'
p3191
sg45
g3177
sbsg74
(dp3192
S'SR'
p3193
I0
sS'CT'
p3194
I0
sS'CR'
p3195
I0
sS'ST'
p3196
I0
ssg80
(dp3197
g3193
I0
sg3194
I1
sg3195
I0
sg3196
I0
ssg82
(dp3198
g3193
I0
sg3194
I0
sg3195
I0
sg3196
I0
ssg84
(dp3199
g3179
I0
sg3180
I1
sg3181
I1
sg3182
I0
ssg86
I0
sg87
I0
sg88
S'Laror'
p3200
sg90
I8
sg91
I0
sg92
I19
sg93
I50
sg94
S'TO'
p3201
sg96
(dp3202
S'A'
p3203
I8
sS'ME'
p3204
I4
sS'RP2'
p3205
I8
sS'E'
p3206
I9
sS'TO'
p3207
I4
sS'RP1'
p3208
I10
sS'JP'
p3209
I9
sS'RP_tot'
p3210
I11
sS'P'
p3211
I10
sS'PA'
p3212
I13
sS'M'
p3213
I10
sS'R'
p3214
I5
sS'TB'
p3215
I6
sS'PL'
p3216
I10
sS'TA'
p3217
I6
ssg113
(dp3218
S's12'
p3219
(ijoueur
joueur
p3220
(dp3221
g27
F9.517241379310345
sg28
I0
sg30
g31
sg32
I0
sg34
I0
sg35
g36
(g37
g38
Ntp3222
Rp3223
(dp3224
g42
I2
sg43
S'<<'
p3225
sg45
S'special'
p3226
sbsg47
(dp3227
S'SR'
p3228
I0
sS'CT'
p3229
I1
sS'CR'
p3230
I1
sS'ST'
p3231
I0
ssg53
(dp3232
g3228
I0
sg3229
I0
sg3230
I0
sg3231
I0
ssg80
(dp3233
S'SR'
p3234
I0
sS'ST'
p3235
I0
sS'CR'
p3236
I0
sS'CT'
p3237
I0
ssg56
I0
sg57
I0
sg60
I2
sg61
I0
sg62
I0
sg63
(S'dummy'
p3238
S'C2'
p3239
S'AI'
p3240
g31
tp3241
sg68
I01
sg69
g36
(g37
g38
Ntp3242
Rp3243
(dp3244
g42
I2
sg43
S'<<'
p3245
sg45
g3226
sbsg74
(dp3246
g3234
I0
sg3235
I1
sg3236
I10
sg3237
I4
ssg59
I01
sg82
(dp3247
g3234
I0
sg3235
I0
sg3236
I0
sg3237
I0
ssg84
(dp3248
g3228
I0
sg3229
I6
sg3230
I20
sg3231
I1
ssg86
I0
sg87
I0
sg88
S'Laror'
p3249
sg90
I8
sg91
I0
sg92
I19
sg93
I29
sg94
S'KHR'
p3250
sg96
(dp3251
S'A'
p3252
I8
sS'ME'
p3253
I4
sS'RP2'
p3254
I8
sS'E'
p3255
I9
sS'P'
p3256
I10
sS'RP1'
p3257
I10
sS'JP'
p3258
I9
sS'RP_tot'
p3259
I11
sS'TO'
p3260
I4
sS'PA'
p3261
I12
sS'M'
p3262
I9
sS'R'
p3263
I5
sS'TB'
p3264
I6
sS'PL'
p3265
I10
sS'TA'
p3266
I6
ssg113
(dp3267
S's11'
p3268
(ijoueur
joueur
p3269
(dp3270
g28
I0
sg32
I0
sg34
I0
sg35
g36
(g37
g38
Ntp3271
Rp3272
(dp3273
g42
I2
sg43
S'<<'
p3274
sg45
S'special'
p3275
sbsg47
(dp3276
S'SR'
p3277
I0
sS'CT'
p3278
I1
sS'CR'
p3279
I1
sS'ST'
p3280
I0
ssg53
(dp3281
g3277
I0
sg3278
I0
sg3279
I0
sg3280
I0
ssg56
I0
sg57
I0
sg59
I01
sg60
I0
sg61
I0
sg62
I0
sg63
(S'dummy'
p3282
S'C2'
p3283
S'AI'
p3284
g31
tp3285
sg68
I00
sg69
g36
(g37
g38
Ntp3286
Rp3287
(dp3288
g42
I2
sg43
S'<<'
p3289
sg45
g3275
sbsg74
(dp3290
g3277
I0
sg3278
I2
sg3279
I10
sg3280
I0
ssg80
(dp3291
g3277
I0
sg3278
I1
sg3279
I1
sg3280
I0
ssg82
(dp3292
g3277
I0
sg3278
I0
sg3279
I0
sg3280
I0
ssg84
(dp3293
g3277
I0
sg3278
I2
sg3279
I10
sg3280
I0
ssg86
I0
sg87
I0
sg88
S'Laror'
p3294
sg90
I8
sg91
I0
sg92
I19
sg93
I29
sg94
S'KHR'
p3295
sg96
(dp3296
S'A'
p3297
I9
sS'ME'
p3298
I4
sS'RP2'
p3299
I6
sS'E'
p3300
I9
sS'P'
p3301
I10
sS'RP1'
p3302
I9
sS'JP'
p3303
I9
sS'RP_tot'
p3304
I9
sS'TO'
p3305
I4
sS'PA'
p3306
I12
sS'M'
p3307
I9
sS'R'
p3308
I5
sS'TB'
p3309
I6
sS'PL'
p3310
I11
sS'TA'
p3311
I6
ssg208
I0
sg209
I0
sg210
I0
sg211
I0
sg212
F9.517241379310345
sg213
I0
sg214
I0
sg215
I0
sg216
(dp3312
S'A'
p3313
I9
sS'ME'
p3314
I4
sS'RP2'
p3315
I6
sS'E'
p3316
I9
sS'P'
p3317
I10
sS'RP1'
p3318
I9
sS'JP'
p3319
I9
sS'RP_tot'
p3320
I9
sS'TO'
p3321
I4
sS'PA'
p3322
I12
sS'M'
p3323
I9
sS'R'
p3324
I5
sS'TB'
p3325
I6
sS'PL'
p3326
I11
sS'TA'
p3327
I6
ssg233
g3296
sg234
I0
sg235
g31
sg237
I0
sg238
I0
sg239
I0
sg240
I2
sg241
I0
sg242
I0
sg243
S'CHS'
p3328
sbssg208
I0
sg209
I0
sg210
I0
sg211
I0
sg212
F9.551724137931034
sg213
I0
sg214
I0
sg215
I0
sg216
(dp3329
S'A'
p3330
I9
sS'ME'
p3331
I4
sS'RP2'
p3332
I6
sS'E'
p3333
I9
sS'TO'
p3334
I4
sS'RP1'
p3335
I9
sS'JP'
p3336
I9
sS'RP_tot'
p3337
I9
sS'P'
p3338
I10
sS'PA'
p3339
I12
sS'M'
p3340
I9
sS'R'
p3341
I5
sS'TB'
p3342
I6
sS'PL'
p3343
I11
sS'TA'
p3344
I6
ssg233
g3251
sg234
I0
sg235
g31
sg237
I0
sg238
I0
sg239
I0
sg240
I2
sg241
I2
sg242
I0
sg243
S'CHS'
p3345
sbsS's11'
p3346
(ijoueur
joueur
p3347
(dp3348
g28
I0
sg32
I0
sg34
I0
sg35
g36
(g37
g38
Ntp3349
Rp3350
(dp3351
g42
I2
sg43
S'<<'
p3352
sg45
S'special'
p3353
sbsg47
(dp3354
S'SR'
p3355
I0
sS'CT'
p3356
I1
sS'CR'
p3357
I1
sS'ST'
p3358
I0
ssg53
(dp3359
g3355
I0
sg3356
I0
sg3357
I0
sg3358
I0
ssg56
I0
sg57
I0
sg59
I01
sg60
I0
sg61
I0
sg62
I0
sg63
(S'dummy'
p3360
S'C2'
p3361
S'AI'
p3362
g31
tp3363
sg68
I00
sg69
g36
(g37
g38
Ntp3364
Rp3365
(dp3366
g42
I2
sg43
S'<<'
p3367
sg45
g3353
sbsg74
(dp3368
g3355
I0
sg3356
I2
sg3357
I10
sg3358
I0
ssg80
(dp3369
g3355
I0
sg3356
I1
sg3357
I1
sg3358
I0
ssg82
(dp3370
g3355
I0
sg3356
I0
sg3357
I0
sg3358
I0
ssg84
(dp3371
g3355
I0
sg3356
I2
sg3357
I10
sg3358
I0
ssg86
I0
sg87
I0
sg88
S'Laror'
p3372
sg90
I8
sg91
I0
sg92
I19
sg93
I29
sg94
S'KHR'
p3373
sg96
(dp3374
S'A'
p3375
I9
sS'ME'
p3376
I4
sS'RP2'
p3377
I6
sS'E'
p3378
I9
sS'P'
p3379
I10
sS'RP1'
p3380
I9
sS'JP'
p3381
I9
sS'RP_tot'
p3382
I9
sS'TO'
p3383
I4
sS'PA'
p3384
I12
sS'M'
p3385
I9
sS'R'
p3386
I5
sS'TB'
p3387
I6
sS'PL'
p3388
I11
sS'TA'
p3389
I6
ssg208
I0
sg209
I0
sg210
I0
sg211
I0
sg212
F9.517241379310345
sg213
I0
sg214
I0
sg215
I0
sg216
(dp3390
S'A'
p3391
I9
sS'ME'
p3392
I4
sS'RP2'
p3393
I6
sS'E'
p3394
I9
sS'P'
p3395
I10
sS'RP1'
p3396
I9
sS'JP'
p3397
I9
sS'RP_tot'
p3398
I9
sS'TO'
p3399
I4
sS'PA'
p3400
I12
sS'M'
p3401
I9
sS'R'
p3402
I5
sS'TB'
p3403
I6
sS'PL'
p3404
I11
sS'TA'
p3405
I6
ssg233
g3374
sg234
I0
sg235
g31
sg237
I0
sg238
I0
sg239
I0
sg240
I2
sg241
I0
sg242
I0
sg243
S'CHS'
p3406
sbssg208
I4
sg209
I0
sg210
I0
sg211
I0
sg212
F9.774193548387096
sg213
I0
sg214
I0
sg215
I0
sg216
(dp3407
S'A'
p3408
I9
sS'ME'
p3409
I4
sS'RP2'
p3410
I6
sS'E'
p3411
I9
sS'TO'
p3412
I4
sS'RP1'
p3413
I9
sS'JP'
p3414
I9
sS'RP_tot'
p3415
I9
sS'P'
p3416
I10
sS'PA'
p3417
I12
sS'M'
p3418
I9
sS'R'
p3419
I5
sS'TB'
p3420
I6
sS'PL'
p3421
I11
sS'TA'
p3422
I6
ssg233
(dp3423
g3203
I8
sg3204
I4
sg3205
I8
sg3206
I9
sg3211
I10
sg3208
I10
sg3209
I9
sg3210
I11
sg3207
I4
sg3212
I13
sg3213
I10
sg3214
I5
sg3215
I6
sg3216
I10
sg3217
I6
ssg234
I0
sg342
(dp3424
sg237
I0
sg235
S'KHR 13'
p3425
sg238
I0
sg239
I0
sg240
I5
sg241
I2
sg242
I0
sg243
S'CHS'
p3426
sbsS'n21'
p3427
(ijoueur
joueur
p3428
(dp3429
g27
F10.413793103448276
sg28
I0
sg29
F10.137931034482758
sg30
g31
sg32
I0
sg33
F84.81750680441267
sg34
I0
sg35
g36
(g37
g38
Ntp3430
Rp3431
(dp3432
g42
I5
sg43
S'**'
p3433
sg45
g353
sbsg47
(dp3434
g355
I0
sg356
I0
sg357
I3
sg358
I2
ssg53
(dp3435
g355
I0
sg356
I0
sg357
I0
sg358
I0
ssg55
I0
sg56
I0
sg57
I0
sg58
F84.81750680441267
sg59
I00
sg60
I0
sg61
I0
sg62
I0
sg63
(g360
S'C2'
p3436
S'AI'
p3437
g31
tp3438
sg68
I00
sg69
g36
(g37
g38
Ntp3439
Rp3440
(dp3441
g42
I5
sg43
S'**'
p3442
sg45
g353
sbsg74
(dp3443
g76
I0
sg77
I0
sg78
I6
sg79
I2
ssg80
(dp3444
g76
I0
sg77
I0
sg78
I0
sg79
I0
ssg82
(dp3445
g76
I0
sg77
I0
sg78
I0
sg79
I0
ssg84
(dp3446
g355
I5
sg356
I6
sg357
I20
sg358
I8
ssg86
I1
sg87
I0
sg88
S'De Laheault'
p3447
sg90
I7
sg91
I0
sg92
I15
sg93
I264
sg94
g95
sg96
(dp3448
g375
I9
sg376
I7
sg377
I11
sg378
I9
sg379
I9
sg380
I9
sg381
I6
sg382
I12
sg383
I8
sg384
I12
sg385
I7
sg386
I6
sg387
I6
sg388
I11
sg389
I4
ssg113
(dp3449
g391
(ijoueur
joueur
p3450
(dp3451
g27
F10.413793103448276
sg28
I0
sg30
g31
sg32
I0
sg34
I0
sg35
g36
(g37
g38
Ntp3452
Rp3453
(dp3454
g42
I5
sg43
S'**'
p3455
sg45
g398
sbsg47
(dp3456
g400
I0
sg401
I0
sg402
I3
sg403
I2
ssg53
(dp3457
g400
I0
sg401
I0
sg402
I0
sg403
I0
ssg80
(dp3458
g406
I0
sg407
I0
sg408
I3
sg409
I1
ssg56
I0
sg57
I0
sg60
I1
sg61
I0
sg62
I0
sg63
(g410
S'C2'
p3459
S'AI'
p3460
g31
tp3461
sg68
I00
sg69
g36
(g37
g38
Ntp3462
Rp3463
(dp3464
g42
I5
sg43
S'**'
p3465
sg45
g398
sbsg74
(dp3466
g406
I0
sg407
I6
sg408
I3
sg409
I2
ssg59
I00
sg82
(dp3467
g406
I0
sg407
I0
sg408
I0
sg409
I0
ssg84
(dp3468
g400
I5
sg401
I6
sg402
I14
sg403
I6
ssg86
I1
sg87
I0
sg88
S'De Laheault'
p3469
sg90
I7
sg91
I0
sg92
I15
sg93
I264
sg94
g423
sg96
(dp3470
g425
I10
sg426
I7
sg427
I11
sg428
I9
sg429
I8
sg430
I9
sg431
I6
sg432
I13
sg433
I9
sg434
I12
sg435
I7
sg436
I7
sg437
I7
sg438
I11
sg439
I4
ssg113
(dp3471
g441
(ijoueur
joueur
p3472
(dp3473
g28
I0
sg32
I0
sg34
I0
sg35
g36
(g37
g38
Ntp3474
Rp3475
(dp3476
g42
I5
sg43
S'**'
p3477
sg45
S'seigneur'
p3478
sbsg47
(dp3479
S'SR'
p3480
I0
sS'ST'
p3481
I0
sS'CR'
p3482
I0
sS'CT'
p3483
I1
ssg53
(dp3484
g3480
I0
sg3481
I0
sg3482
I0
sg3483
I0
ssg56
I0
sg57
I0
sg59
I00
sg60
I0
sg61
I0
sg62
I0
sg63
(S'dummy'
p3485
S'C2'
p3486
S'AI'
p3487
g31
tp3488
sg68
I00
sg69
g36
(g37
g38
Ntp3489
Rp3490
(dp3491
g42
I5
sg43
S'**'
p3492
sg45
g3478
sbsg74
(dp3493
g3480
I5
sg3481
I0
sg3482
I11
sg3483
I4
ssg80
(dp3494
g3480
I0
sg3481
I0
sg3482
I0
sg3483
I1
ssg82
(dp3495
g3480
I0
sg3481
I0
sg3482
I0
sg3483
I0
ssg84
(dp3496
g3480
I5
sg3481
I0
sg3482
I11
sg3483
I4
ssg86
I1
sg87
I0
sg88
S'De Laheault'
p3497
sg90
I7
sg91
I0
sg92
I15
sg93
I264
sg94
S'TO'
p3498
sg96
(dp3499
S'A'
p3500
I10
sS'ME'
p3501
I7
sS'RP2'
p3502
I11
sS'E'
p3503
I9
sS'TO'
p3504
I8
sS'RP1'
p3505
I9
sS'JP'
p3506
I6
sS'RP_tot'
p3507
I13
sS'P'
p3508
I9
sS'PA'
p3509
I12
sS'M'
p3510
I8
sS'R'
p3511
I7
sS'TB'
p3512
I8
sS'PL'
p3513
I12
sS'TA'
p3514
I4
ssg208
I0
sg209
I0
sg210
I0
sg211
I0
sg212
F10.413793103448276
sg213
I0
sg214
I0
sg215
I0
sg216
(dp3515
S'A'
p3516
I10
sS'ME'
p3517
I7
sS'RP2'
p3518
I11
sS'E'
p3519
I9
sS'TO'
p3520
I8
sS'RP1'
p3521
I9
sS'JP'
p3522
I6
sS'RP_tot'
p3523
I13
sS'P'
p3524
I9
sS'PA'
p3525
I12
sS'M'
p3526
I8
sS'R'
p3527
I7
sS'TB'
p3528
I8
sS'PL'
p3529
I12
sS'TA'
p3530
I4
ssg233
g3499
sg234
I0
sg235
g31
sg237
I0
sg238
I0
sg239
I0
sg240
I21
sg241
I16
sg242
I0
sg243
S'B'
p3531
sbssg208
I7
sg209
I0
sg210
I0
sg211
I0
sg212
F10.137931034482758
sg213
I0
sg214
I0
sg215
I0
sg216
(dp3532
g504
I10
sg505
I7
sg506
I11
sg507
I9
sg508
I9
sg509
I9
sg510
I6
sg511
I13
sg512
I8
sg513
I12
sg514
I8
sg515
I7
sg516
I8
sg517
I12
sg518
I4
ssg233
g3470
sg234
I0
sg235
g31
sg237
I0
sg238
I0
sg239
I0
sg240
I21
sg241
I17
sg242
I0
sg243
S'B'
p3533
sbsg520
(ijoueur
joueur
p3534
(dp3535
g28
I0
sg32
I0
sg34
I0
sg35
g36
(g37
g38
Ntp3536
Rp3537
(dp3538
g42
I5
sg43
S'**'
p3539
sg45
S'seigneur'
p3540
sbsg47
(dp3541
S'SR'
p3542
I0
sS'ST'
p3543
I0
sS'CR'
p3544
I0
sS'CT'
p3545
I1
ssg53
(dp3546
g3542
I0
sg3543
I0
sg3544
I0
sg3545
I0
ssg56
I0
sg57
I0
sg59
I00
sg60
I0
sg61
I0
sg62
I0
sg63
(S'dummy'
p3547
S'C2'
p3548
S'AI'
p3549
g31
tp3550
sg68
I00
sg69
g36
(g37
g38
Ntp3551
Rp3552
(dp3553
g42
I5
sg43
S'**'
p3554
sg45
g3540
sbsg74
(dp3555
g3542
I5
sg3543
I0
sg3544
I11
sg3545
I4
ssg80
(dp3556
g3542
I0
sg3543
I0
sg3544
I0
sg3545
I1
ssg82
(dp3557
g3542
I0
sg3543
I0
sg3544
I0
sg3545
I0
ssg84
(dp3558
g3542
I5
sg3543
I0
sg3544
I11
sg3545
I4
ssg86
I1
sg87
I0
sg88
S'De Laheault'
p3559
sg90
I7
sg91
I0
sg92
I15
sg93
I264
sg94
S'TO'
p3560
sg96
(dp3561
S'A'
p3562
I10
sS'ME'
p3563
I7
sS'RP2'
p3564
I11
sS'E'
p3565
I9
sS'TO'
p3566
I8
sS'RP1'
p3567
I9
sS'JP'
p3568
I6
sS'RP_tot'
p3569
I13
sS'P'
p3570
I9
sS'PA'
p3571
I12
sS'M'
p3572
I8
sS'R'
p3573
I7
sS'TB'
p3574
I8
sS'PL'
p3575
I12
sS'TA'
p3576
I4
ssg208
I0
sg209
I0
sg210
I0
sg211
I0
sg212
F10.413793103448276
sg213
I0
sg214
I0
sg215
I0
sg216
(dp3577
S'A'
p3578
I10
sS'ME'
p3579
I7
sS'RP2'
p3580
I11
sS'E'
p3581
I9
sS'TO'
p3582
I8
sS'RP1'
p3583
I9
sS'JP'
p3584
I6
sS'RP_tot'
p3585
I13
sS'P'
p3586
I9
sS'PA'
p3587
I12
sS'M'
p3588
I8
sS'R'
p3589
I7
sS'TB'
p3590
I8
sS'PL'
p3591
I12
sS'TA'
p3592
I4
ssg233
g3561
sg234
I0
sg235
g31
sg237
I0
sg238
I0
sg239
I0
sg240
I21
sg241
I16
sg242
I0
sg243
S'B'
p3593
sbssg208
I11
sg209
I0
sg210
I0
sg211
I0
sg212
F10.137931034482758
sg213
I0
sg214
I0
sg215
I0
sg216
(dp3594
g583
I10
sg584
I7
sg585
I11
sg586
I9
sg587
I9
sg588
I9
sg589
I6
sg590
I13
sg591
I8
sg592
I12
sg593
I8
sg594
I7
sg595
I8
sg596
I12
sg597
I4
ssg233
(dp3595
g375
I10
sg376
I7
sg377
I11
sg378
I9
sg383
I8
sg380
I9
sg381
I6
sg382
I12
sg379
I9
sg384
I12
sg385
I7
sg386
I7
sg387
I6
sg388
I12
sg389
I4
ssg234
I0
sg342
(dp3596
sg237
I0
sg235
g31
sg238
I0
sg239
I0
sg240
I21
sg241
I17
sg242
I0
sg243
S'B'
p3597
sbsS'n20'
p3598
(ijoueur
joueur
p3599
(dp3600
g27
F8.517241379310345
sg28
I0
sg29
F9.689655172413794
sg30
g31
sg32
I0
sg33
F75.21307024151896
sg34
I0
sg35
g36
(g37
g38
Ntp3601
Rp3602
(dp3603
g42
I5
sg43
S'xx'
p3604
sg45
S'seigneur'
p3605
sbsg47
(dp3606
S'SR'
p3607
I0
sS'CT'
p3608
I0
sS'CR'
p3609
I0
sS'ST'
p3610
I0
ssg53
(dp3611
g3607
I0
sg3608
I0
sg3609
I0
sg3610
I0
ssg55
I0
sg56
I0
sg57
I0
sg58
F75.21307024151896
sg59
I00
sg60
I0
sg61
I0
sg62
I0
sg63
(S'dummy'
p3612
S'DM'
p3613
g31
g31
tp3614
sg68
I00
sg69
g3602
sg74
(dp3615
g76
I0
sg77
I0
sg78
I5
sg79
I2
ssg80
(dp3616
g76
I0
sg77
I0
sg78
I0
sg79
I0
ssg82
(dp3617
g76
I0
sg77
I0
sg78
I0
sg79
I0
ssg84
(dp3618
g3607
I5
sg3608
I5
sg3609
I25
sg3610
I1
ssg86
I0
sg87
I0
sg88
S'Abanar'
p3619
sg90
I10
sg91
I0
sg92
I26
sg93
I200
sg94
g95
sg96
(dp3620
S'A'
p3621
I9
sS'ME'
p3622
I7
sS'RP2'
p3623
I8
sS'E'
p3624
I9
sS'TO'
p3625
I5
sS'RP1'
p3626
I9
sS'JP'
p3627
I7
sS'RP_tot'
p3628
I10
sS'P'
p3629
I12
sS'PA'
p3630
I12
sS'M'
p3631
I9
sS'R'
p3632
I8
sS'TB'
p3633
I6
sS'PL'
p3634
I9
sS'TA'
p3635
I4
ssg113
(dp3636
S's12'
p3637
(ijoueur
joueur
p3638
(dp3639
g27
F8.517241379310345
sg28
I0
sg30
g31
sg32
I0
sg34
I0
sg35
g36
(g37
g38
Ntp3640
Rp3641
(dp3642
g42
I5
sg43
S'xx'
p3643
sg45
S'seigneur'
p3644
sbsg47
(dp3645
S'SR'
p3646
I0
sS'CT'
p3647
I0
sS'CR'
p3648
I0
sS'ST'
p3649
I0
ssg53
(dp3650
g3646
I0
sg3647
I0
sg3648
I0
sg3649
I0
ssg80
(dp3651
S'SR'
p3652
I0
sS'CT'
p3653
I0
sS'CR'
p3654
I0
sS'ST'
p3655
I0
ssg56
I0
sg57
I0
sg60
I0
sg61
I0
sg62
I0
sg63
(S'dummy'
p3656
S'DM'
p3657
g31
g31
tp3658
sg68
I01
sg69
g3641
sg74
(dp3659
g3652
I5
sg3653
I3
sg3654
I12
sg3655
I1
ssg59
I00
sg82
(dp3660
g3652
I0
sg3653
I0
sg3654
I0
sg3655
I0
ssg84
(dp3661
g3646
I5
sg3647
I3
sg3648
I20
sg3649
I1
ssg86
I0
sg87
I0
sg88
S'Abanar'
p3662
sg90
I10
sg91
I0
sg92
I26
sg93
I127
sg94
S'FS'
p3663
sg96
(dp3664
S'A'
p3665
I10
sS'ME'
p3666
I7
sS'RP2'
p3667
I8
sS'E'
p3668
I9
sS'P'
p3669
I12
sS'RP1'
p3670
I9
sS'JP'
p3671
I7
sS'RP_tot'
p3672
I10
sS'TO'
p3673
I5
sS'PA'
p3674
I11
sS'M'
p3675
I8
sS'R'
p3676
I8
sS'TB'
p3677
I6
sS'PL'
p3678
I10
sS'TA'
p3679
I4
ssg113
(dp3680
S's11'
p3681
(ijoueur
joueur
p3682
(dp3683
g28
I0
sg32
I0
sg34
I0
sg35
g36
(g37
g38
Ntp3684
Rp3685
(dp3686
g42
I5
sg43
S'xx'
p3687
sg45
S'seigneur'
p3688
sbsg47
(dp3689
S'SR'
p3690
I0
sS'CT'
p3691
I0
sS'CR'
p3692
I0
sS'ST'
p3693
I0
ssg53
(dp3694
g3690
I0
sg3691
I0
sg3692
I0
sg3693
I0
ssg56
I0
sg57
I0
sg59
I01
sg60
I0
sg61
I0
sg62
I0
sg63
(S'dummy'
p3695
S'DM'
p3696
g31
g31
tp3697
sg68
I00
sg69
g36
(g37
g38
Ntp3698
Rp3699
(dp3700
g42
I2
sg43
S'^^'
p3701
sg45
S'special'
p3702
sbsg74
(dp3703
g3690
I0
sg3691
I0
sg3692
I8
sg3693
I0
ssg80
(dp3704
g3690
I0
sg3691
I0
sg3692
I0
sg3693
I0
ssg82
(dp3705
g3690
I0
sg3691
I0
sg3692
I0
sg3693
I0
ssg84
(dp3706
g3690
I0
sg3691
I0
sg3692
I8
sg3693
I0
ssg86
I0
sg87
I0
sg88
S'Abanar'
p3707
sg90
I10
sg91
I0
sg92
I26
sg93
I22
sg94
S'FS'
p3708
sg96
(dp3709
S'A'
p3710
I9
sS'ME'
p3711
I6
sS'RP2'
p3712
I7
sS'E'
p3713
I9
sS'P'
p3714
I10
sS'RP1'
p3715
I6
sS'JP'
p3716
I6
sS'RP_tot'
p3717
I7
sS'TO'
p3718
I4
sS'PA'
p3719
I10
sS'M'
p3720
I8
sS'R'
p3721
I7
sS'TB'
p3722
I5
sS'PL'
p3723
I8
sS'TA'
p3724
I3
ssg208
I0
sg209
I0
sg210
I0
sg211
I0
sg212
F8.517241379310345
sg213
I0
sg214
I0
sg215
I0
sg216
(dp3725
S'A'
p3726
I9
sS'ME'
p3727
I6
sS'RP2'
p3728
I7
sS'E'
p3729
I9
sS'P'
p3730
I10
sS'RP1'
p3731
I6
sS'JP'
p3732
I6
sS'RP_tot'
p3733
I7
sS'TO'
p3734
I4
sS'PA'
p3735
I10
sS'M'
p3736
I8
sS'R'
p3737
I7
sS'TB'
p3738
I5
sS'PL'
p3739
I8
sS'TA'
p3740
I3
ssg233
g3709
sg234
I0
sg235
g31
sg237
I0
sg238
I0
sg239
I0
sg240
I1
sg241
I0
sg242
I0
sg243
S'O'
p3741
sbssg208
I3
sg209
I0
sg210
I0
sg211
I0
sg212
F9.689655172413794
sg213
I0
sg214
I0
sg215
I1
sg216
(dp3742
S'A'
p3743
I9
sS'ME'
p3744
I6
sS'RP2'
p3745
I7
sS'E'
p3746
I9
sS'P'
p3747
I10
sS'RP1'
p3748
I6
sS'JP'
p3749
I6
sS'RP_tot'
p3750
I7
sS'TO'
p3751
I4
sS'PA'
p3752
I10
sS'M'
p3753
I8
sS'R'
p3754
I7
sS'TB'
p3755
I5
sS'PL'
p3756
I8
sS'TA'
p3757
I3
ssg233
g3664
sg234
I0
sg235
g31
sg237
I0
sg238
I0
sg239
I0
sg240
I11
sg241
I0
sg242
I1
sg243
S'O'
p3758
sbsS's11'
p3759
(ijoueur
joueur
p3760
(dp3761
g28
I0
sg32
I0
sg34
I0
sg35
g36
(g37
g38
Ntp3762
Rp3763
(dp3764
g42
I5
sg43
S'xx'
p3765
sg45
S'seigneur'
p3766
sbsg47
(dp3767
S'SR'
p3768
I0
sS'CT'
p3769
I0
sS'CR'
p3770
I0
sS'ST'
p3771
I0
ssg53
(dp3772
g3768
I0
sg3769
I0
sg3770
I0
sg3771
I0
ssg56
I0
sg57
I0
sg59
I01
sg60
I0
sg61
I0
sg62
I0
sg63
(S'dummy'
p3773
S'DM'
p3774
g31
g31
tp3775
sg68
I00
sg69
g36
(g37
g38
Ntp3776
Rp3777
(dp3778
g42
I2
sg43
S'^^'
p3779
sg45
S'special'
p3780
sbsg74
(dp3781
g3768
I0
sg3769
I0
sg3770
I8
sg3771
I0
ssg80
(dp3782
g3768
I0
sg3769
I0
sg3770
I0
sg3771
I0
ssg82
(dp3783
g3768
I0
sg3769
I0
sg3770
I0
sg3771
I0
ssg84
(dp3784
g3768
I0
sg3769
I0
sg3770
I8
sg3771
I0
ssg86
I0
sg87
I0
sg88
S'Abanar'
p3785
sg90
I10
sg91
I0
sg92
I26
sg93
I22
sg94
S'FS'
p3786
sg96
(dp3787
S'A'
p3788
I9
sS'ME'
p3789
I6
sS'RP2'
p3790
I7
sS'E'
p3791
I9
sS'P'
p3792
I10
sS'RP1'
p3793
I6
sS'JP'
p3794
I6
sS'RP_tot'
p3795
I7
sS'TO'
p3796
I4
sS'PA'
p3797
I10
sS'M'
p3798
I8
sS'R'
p3799
I7
sS'TB'
p3800
I5
sS'PL'
p3801
I8
sS'TA'
p3802
I3
ssg208
I0
sg209
I0
sg210
I0
sg211
I0
sg212
F8.517241379310345
sg213
I0
sg214
I0
sg215
I0
sg216
(dp3803
S'A'
p3804
I9
sS'ME'
p3805
I6
sS'RP2'
p3806
I7
sS'E'
p3807
I9
sS'P'
p3808
I10
sS'RP1'
p3809
I6
sS'JP'
p3810
I6
sS'RP_tot'
p3811
I7
sS'TO'
p3812
I4
sS'PA'
p3813
I10
sS'M'
p3814
I8
sS'R'
p3815
I7
sS'TB'
p3816
I5
sS'PL'
p3817
I8
sS'TA'
p3818
I3
ssg233
g3787
sg234
I0
sg235
g31
sg237
I0
sg238
I0
sg239
I0
sg240
I1
sg241
I0
sg242
I0
sg243
S'O'
p3819
sbssg208
I9
sg209
I0
sg210
I0
sg211
I0
sg212
F10.03448275862069
sg213
I0
sg214
I0
sg215
I1
sg216
(dp3820
S'A'
p3821
I9
sS'ME'
p3822
I6
sS'RP2'
p3823
I7
sS'E'
p3824
I9
sS'P'
p3825
I10
sS'RP1'
p3826
I6
sS'JP'
p3827
I6
sS'RP_tot'
p3828
I7
sS'TO'
p3829
I4
sS'PA'
p3830
I10
sS'M'
p3831
I8
sS'R'
p3832
I7
sS'TB'
p3833
I5
sS'PL'
p3834
I8
sS'TA'
p3835
I3
ssg233
(dp3836
g3621
I10
sg3622
I7
sg3623
I8
sg3624
I9
sg3629
I12
sg3626
I9
sg3627
I7
sg3628
I10
sg3625
I5
sg3630
I12
sg3631
I9
sg3632
I9
sg3633
I6
sg3634
I10
sg3635
I4
ssg234
I0
sg342
(dp3837
sg237
I0
sg235
S'FS 13'
p3838
sg238
I0
sg239
I0
sg240
I5
sg241
I0
sg242
I0
sg243
S'O'
p3839
sbsS'n8'
p3840
(ijoueur
joueur
p3841
(dp3842
g27
F11.379310344827585
sg28
I0
sg29
F11.379310344827585
sg30
g31
sg32
I0
sg33
F74.18256448143376
sg34
I0
sg35
g36
(g37
g38
Ntp3843
Rp3844
(dp3845
g42
I5
sg43
S'xx'
p3846
sg45
g353
sbsg47
(dp3847
g355
I2
sg356
I3
sg357
I0
sg358
I0
ssg53
(dp3848
g355
I0
sg356
I0
sg357
I0
sg358
I0
ssg55
I0
sg56
I0
sg57
I0
sg58
F74.18256448143376
sg59
I00
sg60
I1
sg61
I0
sg62
I0
sg63
(g360
S'N8'
p3849
S'TL'
p3850
g31
tp3851
sg68
I00
sg69
g36
(g37
g38
Ntp3852
Rp3853
(dp3854
g42
I5
sg43
S'xx'
p3855
sg45
g353
sbsg74
(dp3856
g76
I0
sg77
I0
sg78
I0
sg79
I7
ssg80
(dp3857
g76
I0
sg77
I0
sg78
I0
sg79
I0
ssg82
(dp3858
g76
I0
sg77
I0
sg78
I0
sg79
I0
ssg84
(dp3859
g355
I6
sg356
I1
sg357
I0
sg358
I35
ssg86
I0
sg87
I0
sg88
S'Slaandal'
p3860
sg90
I3
sg91
I0
sg92
I13
sg93
I350
sg94
g95
sg96
(dp3861
g375
I9
sg376
I12
sg377
I7
sg378
I13
sg379
I3
sg380
I14
sg381
I2
sg382
I14
sg383
I8
sg384
I7
sg385
I8
sg386
I10
sg387
I4
sg388
I9
sg389
I6
ssg113
(dp3862
g391
(ijoueur
joueur
p3863
(dp3864
g27
F11.379310344827585
sg28
I0
sg30
g31
sg32
I0
sg34
I0
sg35
g36
(g37
g38
Ntp3865
Rp3866
(dp3867
g42
I5
sg43
S'xx'
p3868
sg45
g398
sbsg47
(dp3869
g400
I2
sg401
I3
sg402
I0
sg403
I0
ssg53
(dp3870
g400
I0
sg401
I0
sg402
I0
sg403
I0
ssg80
(dp3871
g406
I0
sg407
I2
sg408
I0
sg409
I0
ssg56
I0
sg57
I0
sg60
I3
sg61
I0
sg62
I0
sg63
(g410
S'N8'
p3872
S'TL'
p3873
g31
tp3874
sg68
I00
sg69
g36
(g37
g38
Ntp3875
Rp3876
(dp3877
g42
I5
sg43
S'xx'
p3878
sg45
g398
sbsg74
(dp3879
g406
I3
sg407
I1
sg408
I0
sg409
I15
ssg59
I00
sg82
(dp3880
g406
I0
sg407
I0
sg408
I0
sg409
I0
ssg84
(dp3881
g400
I6
sg401
I1
sg402
I0
sg403
I28
ssg86
I0
sg87
I0
sg88
S'Slaandal'
p3882
sg90
I3
sg91
I0
sg92
I13
sg93
I350
sg94
g423
sg96
(dp3883
g425
I10
sg426
I12
sg427
I7
sg428
I13
sg429
I8
sg430
I14
sg431
I2
sg432
I14
sg433
I3
sg434
I7
sg435
I8
sg436
I11
sg437
I4
sg438
I10
sg439
I6
ssg113
(dp3884
g441
(ijoueur
joueur
p3885
(dp3886
g28
I0
sg32
I0
sg34
I0
sg35
g36
(g37
g38
Ntp3887
Rp3888
(dp3889
g42
I5
sg43
S'xx'
p3890
sg45
S'seigneur'
p3891
sbsg47
(dp3892
S'SR'
p3893
I2
sS'ST'
p3894
I1
sS'CR'
p3895
I0
sS'CT'
p3896
I0
ssg53
(dp3897
g3893
I0
sg3894
I0
sg3895
I0
sg3896
I0
ssg56
I0
sg57
I0
sg59
I00
sg60
I3
sg61
I0
sg62
I0
sg63
(S'dummy'
p3898
S'N8'
p3899
S'TL'
p3900
g31
tp3901
sg68
I00
sg69
g36
(g37
g38
Ntp3902
Rp3903
(dp3904
g42
I5
sg43
S'xx'
p3905
sg45
g3891
sbsg74
(dp3906
g3893
I3
sg3894
I0
sg3895
I0
sg3896
I13
ssg80
(dp3907
g3893
I2
sg3894
I1
sg3895
I0
sg3896
I0
ssg82
(dp3908
g3893
I0
sg3894
I0
sg3895
I0
sg3896
I0
ssg84
(dp3909
g3893
I3
sg3894
I0
sg3895
I0
sg3896
I13
ssg86
I0
sg87
I0
sg88
S'Slaandal'
p3910
sg90
I3
sg91
I0
sg92
I13
sg93
I350
sg94
S'TO'
p3911
sg96
(dp3912
S'A'
p3913
I10
sS'ME'
p3914
I12
sS'RP2'
p3915
I7
sS'E'
p3916
I13
sS'TO'
p3917
I8
sS'RP1'
p3918
I14
sS'JP'
p3919
I2
sS'RP_tot'
p3920
I14
sS'P'
p3921
I3
sS'PA'
p3922
I7
sS'M'
p3923
I8
sS'R'
p3924
I11
sS'TB'
p3925
I4
sS'PL'
p3926
I10
sS'TA'
p3927
I6
ssg208
I0
sg209
I0
sg210
I0
sg211
I0
sg212
F11.379310344827585
sg213
I0
sg214
I0
sg215
I1
sg216
(dp3928
S'A'
p3929
I10
sS'ME'
p3930
I12
sS'RP2'
p3931
I7
sS'E'
p3932
I13
sS'TO'
p3933
I8
sS'RP1'
p3934
I14
sS'JP'
p3935
I2
sS'RP_tot'
p3936
I14
sS'P'
p3937
I3
sS'PA'
p3938
I7
sS'M'
p3939
I8
sS'R'
p3940
I11
sS'TB'
p3941
I4
sS'PL'
p3942
I10
sS'TA'
p3943
I6
ssg233
g3912
sg234
I0
sg235
g31
sg237
I0
sg238
I0
sg239
I0
sg240
I35
sg241
I18
sg242
I1
sg243
S'HL'
p3944
sbssg208
I3
sg209
I0
sg210
I0
sg211
I0
sg212
F11.379310344827585
sg213
I0
sg214
I0
sg215
I1
sg216
(dp3945
g504
I10
sg505
I12
sg506
I7
sg507
I13
sg508
I3
sg509
I14
sg510
I2
sg511
I14
sg512
I8
sg513
I7
sg514
I8
sg515
I11
sg516
I4
sg517
I10
sg518
I6
ssg233
g3883
sg234
I0
sg235
g31
sg237
I0
sg238
I0
sg239
I0
sg240
I35
sg241
I21
sg242
I0
sg243
S'HL'
p3946
sbsg520
(ijoueur
joueur
p3947
(dp3948
g28
I0
sg32
I0
sg34
I0
sg35
g36
(g37
g38
Ntp3949
Rp3950
(dp3951
g42
I5
sg43
S'xx'
p3952
sg45
S'seigneur'
p3953
sbsg47
(dp3954
S'SR'
p3955
I2
sS'ST'
p3956
I1
sS'CR'
p3957
I0
sS'CT'
p3958
I0
ssg53
(dp3959
g3955
I0
sg3956
I0
sg3957
I0
sg3958
I0
ssg56
I0
sg57
I0
sg59
I00
sg60
I3
sg61
I0
sg62
I0
sg63
(S'dummy'
p3960
S'N8'
p3961
S'TL'
p3962
g31
tp3963
sg68
I00
sg69
g36
(g37
g38
Ntp3964
Rp3965
(dp3966
g42
I5
sg43
S'xx'
p3967
sg45
g3953
sbsg74
(dp3968
g3955
I3
sg3956
I0
sg3957
I0
sg3958
I13
ssg80
(dp3969
g3955
I2
sg3956
I1
sg3957
I0
sg3958
I0
ssg82
(dp3970
g3955
I0
sg3956
I0
sg3957
I0
sg3958
I0
ssg84
(dp3971
g3955
I3
sg3956
I0
sg3957
I0
sg3958
I13
ssg86
I0
sg87
I0
sg88
S'Slaandal'
p3972
sg90
I3
sg91
I0
sg92
I13
sg93
I350
sg94
S'TO'
p3973
sg96
(dp3974
S'A'
p3975
I10
sS'ME'
p3976
I12
sS'RP2'
p3977
I7
sS'E'
p3978
I13
sS'TO'
p3979
I8
sS'RP1'
p3980
I14
sS'JP'
p3981
I2
sS'RP_tot'
p3982
I14
sS'P'
p3983
I3
sS'PA'
p3984
I7
sS'M'
p3985
I8
sS'R'
p3986
I11
sS'TB'
p3987
I4
sS'PL'
p3988
I10
sS'TA'
p3989
I6
ssg208
I0
sg209
I0
sg210
I0
sg211
I0
sg212
F11.379310344827585
sg213
I0
sg214
I0
sg215
I1
sg216
(dp3990
S'A'
p3991
I10
sS'ME'
p3992
I12
sS'RP2'
p3993
I7
sS'E'
p3994
I13
sS'TO'
p3995
I8
sS'RP1'
p3996
I14
sS'JP'
p3997
I2
sS'RP_tot'
p3998
I14
sS'P'
p3999
I3
sS'PA'
p4000
I7
sS'M'
p4001
I8
sS'R'
p4002
I11
sS'TB'
p4003
I4
sS'PL'
p4004
I10
sS'TA'
p4005
I6
ssg233
g3974
sg234
I0
sg235
g31
sg237
I0
sg238
I0
sg239
I0
sg240
I35
sg241
I18
sg242
I1
sg243
S'HL'
p4006
sbssg208
I9
sg209
I0
sg210
I0
sg211
I0
sg212
F11.379310344827585
sg213
I0
sg214
I0
sg215
I2
sg216
(dp4007
g583
I10
sg584
I12
sg585
I7
sg586
I13
sg587
I3
sg588
I14
sg589
I2
sg590
I14
sg591
I8
sg592
I7
sg593
I8
sg594
I11
sg595
I4
sg596
I10
sg597
I6
ssg233
(dp4008
g375
I10
sg376
I12
sg377
I7
sg378
I13
sg383
I8
sg380
I14
sg381
I2
sg382
I14
sg379
I3
sg384
I7
sg385
I8
sg386
I11
sg387
I4
sg388
I10
sg389
I6
ssg234
I0
sg342
(dp4009
sg237
I0
sg235
g31
sg238
I0
sg239
I0
sg240
I35
sg241
I22
sg242
I1
sg243
S'HL'
p4010
sbsS'n9'
p4011
g1026
sS'n1'
p4012
(ijoueur
joueur
p4013
(dp4014
g27
F9.88888888888889
sg28
I2
sg29
F10.185185185185185
sg30
g31
sg32
I0
sg33
F74.18256448143376
sg34
I0
sg35
g36
(g37
g38
Ntp4015
Rp4016
(dp4017
g42
I3
sg43
S'^^^'
p4018
sg45
S'rare'
p4019
sbsg47
(dp4020
S'SR'
p4021
I0
sS'CT'
p4022
I0
sS'CR'
p4023
I0
sS'ST'
p4024
I0
ssg53
(dp4025
g4021
I0
sg4022
I0
sg4023
I0
sg4024
I0
ssg55
I0
sg80
(dp4026
g76
I0
sg77
I0
sg78
I0
sg79
I0
ssg56
I0
sg57
I0
sg615
I0
sg616
I0
sg60
I3
sg61
I0
sg62
I0
sg63
(S'dummy'
p4027
S'PI'
p4028
g31
g31
tp4029
sg68
I00
sg69
g36
(g37
g38
Ntp4030
Rp4031
(dp4032
g42
I3
sg43
S'^^^'
p4033
sg45
g4019
sbsg74
(dp4034
g76
I0
sg77
I0
sg78
I0
sg79
I7
ssg59
I00
sg82
(dp4035
g76
I0
sg77
I0
sg78
I0
sg79
I0
ssg84
(dp4036
g4021
I0
sg4022
I34
sg4023
I1
sg4024
I11
ssg86
I0
sg87
I0
sg88
S'Rodoel'
p4037
sg90
I4
sg91
I0
sg92
I16
sg93
I100
sg94
g95
sg96
(dp4038
S'A'
p4039
I12
sS'ME'
p4040
I9
sS'RP2'
p4041
I7
sS'E'
p4042
I11
sS'TO'
p4043
I9
sS'RP1'
p4044
I10
sS'JP'
p4045
I1
sS'RP_tot'
p4046
I10
sS'P'
p4047
I5
sS'PA'
p4048
I8
sS'M'
p4049
I9
sS'R'
p4050
I10
sS'TB'
p4051
I5
sS'PL'
p4052
I10
sS'TA'
p4053
I6
ssg113
(dp4054
S's12'
p4055
(ijoueur
joueur
p4056
(dp4057
g27
F9.88888888888889
sg28
I2
sg30
g31
sg32
I0
sg34
I0
sg35
g36
(g37
g38
Ntp4058
Rp4059
(dp4060
g42
I3
sg43
S'^^^'
p4061
sg45
S'rare'
p4062
sbsg47
(dp4063
S'SR'
p4064
I0
sS'CT'
p4065
I0
sS'CR'
p4066
I0
sS'ST'
p4067
I0
ssg53
(dp4068
g4064
I0
sg4065
I0
sg4066
I0
sg4067
I0
ssg56
I0
sg212
F10.185185185185185
sg57
I0
sg615
I0
sg616
I0
sg60
I0
sg61
I0
sg62
I0
sg63
(S'dummy'
p4069
S'PI'
p4070
g31
g31
tp4071
sg68
I01
sg69
g36
(g37
g38
Ntp4072
Rp4073
(dp4074
g42
I3
sg43
S'^^^'
p4075
sg45
g4062
sbsg74
(dp4076
S'SR'
p4077
I0
sS'CT'
p4078
I13
sS'CR'
p4079
I1
sS'ST'
p4080
I6
ssg59
I01
sg82
(dp4081
g4077
I0
sg4078
I0
sg4079
I0
sg4080
I0
ssg84
(dp4082
g4064
I0
sg4065
I27
sg4066
I1
sg4067
I11
ssg86
I0
sg87
I0
sg88
S'Rodoel'
p4083
sg90
I4
sg91
I0
sg92
I16
sg93
I50
sg94
S'DKW'
p4084
sg96
(dp4085
S'A'
p4086
I12
sS'ME'
p4087
I10
sS'RP2'
p4088
I7
sS'E'
p4089
I11
sS'P'
p4090
I5
sS'RP1'
p4091
I10
sS'JP'
p4092
I1
sS'RP_tot'
p4093
I10
sS'TO'
p4094
I9
sS'PA'
p4095
I8
sS'M'
p4096
I9
sS'R'
p4097
I10
sS'TB'
p4098
I5
sS'PL'
p4099
I10
sS'TA'
p4100
I7
ssg113
(dp4101
S's11'
p4102
(ijoueur
joueur
p4103
(dp4104
g28
I1
sg32
I0
sg34
I0
sg35
g36
(g37
g38
Ntp4105
Rp4106
(dp4107
g42
I3
sg43
S'^^^'
p4108
sg45
S'rare'
p4109
sbsg47
(dp4110
S'SR'
p4111
I0
sS'ST'
p4112
I0
sS'CR'
p4113
I0
sS'CT'
p4114
I0
ssg53
(dp4115
g4111
I0
sg4112
I0
sg4113
I0
sg4114
I0
ssg80
(dp4116
g4111
I0
sg4112
I0
sg4113
I0
sg4114
I0
ssg56
I0
sg57
I0
sg615
I0
sg616
I0
sg60
I0
sg61
I0
sg62
I0
sg63
(S'dummy'
p4117
S'PI'
p4118
g31
g31
tp4119
sg68
I00
sg69
g36
(g37
g38
Ntp4120
Rp4121
(dp4122
g42
I3
sg43
S'^^^'
p4123
sg45
g4109
sbsg74
(dp4124
g4111
I0
sg4112
I5
sg4113
I0
sg4114
I14
ssg59
I00
sg82
(dp4125
g4111
I0
sg4112
I0
sg4113
I0
sg4114
I0
ssg84
(dp4126
g4111
I0
sg4112
I5
sg4113
I0
sg4114
I14
ssg86
I0
sg87
I0
sg88
S'Rodoel'
p4127
sg90
I4
sg91
I0
sg92
I16
sg93
I50
sg94
S'DKW'
p4128
sg96
(dp4129
S'A'
p4130
I11
sS'ME'
p4131
I10
sS'RP2'
p4132
I7
sS'E'
p4133
I11
sS'TO'
p4134
I9
sS'RP1'
p4135
I10
sS'JP'
p4136
I1
sS'RP_tot'
p4137
I10
sS'P'
p4138
I5
sS'PA'
p4139
I8
sS'M'
p4140
I9
sS'R'
p4141
I9
sS'TB'
p4142
I5
sS'PL'
p4143
I10
sS'TA'
p4144
I7
ssg208
I0
sg209
I0
sg210
I0
sg211
I0
sg212
F9.88888888888889
sg213
I0
sg730
I0
sg214
I0
sg215
I0
sg216
(dp4145
S'A'
p4146
I11
sS'ME'
p4147
I10
sS'RP2'
p4148
I7
sS'E'
p4149
I11
sS'TO'
p4150
I9
sS'RP1'
p4151
I10
sS'JP'
p4152
I1
sS'RP_tot'
p4153
I10
sS'P'
p4154
I5
sS'PA'
p4155
I8
sS'M'
p4156
I9
sS'R'
p4157
I9
sS'TB'
p4158
I5
sS'PL'
p4159
I10
sS'TA'
p4160
I7
ssg233
g4129
sg234
I1
sg235
S'MRB 10'
p4161
sg237
I0
sg238
I0
sg239
I0
sg240
I5
sg241
I6
sg242
I0
sg243
S'EN'
p4162
sbssg208
I2
sg209
I0
sg210
I0
sg211
I0
sg80
(dp4163
g4077
I0
sg4078
I0
sg4079
I0
sg4080
I0
ssg213
I0
sg730
I0
sg214
I0
sg215
I0
sg216
(dp4164
S'A'
p4165
I11
sS'ME'
p4166
I10
sS'RP2'
p4167
I7
sS'E'
p4168
I11
sS'P'
p4169
I5
sS'RP1'
p4170
I10
sS'JP'
p4171
I1
sS'RP_tot'
p4172
I10
sS'TO'
p4173
I9
sS'PA'
p4174
I8
sS'M'
p4175
I9
sS'R'
p4176
I9
sS'TB'
p4177
I5
sS'PL'
p4178
I10
sS'TA'
p4179
I7
ssg233
g4085
sg234
I1
sg235
S'MRB 10'
p4180
sg237
I0
sg238
I0
sg239
I0
sg240
I5
sg241
I6
sg242
I0
sg243
S'EN'
p4181
sbsS's11'
p4182
(ijoueur
joueur
p4183
(dp4184
g28
I1
sg32
I0
sg34
I0
sg35
g36
(g37
g38
Ntp4185
Rp4186
(dp4187
g42
I3
sg43
S'^^^'
p4188
sg45
S'rare'
p4189
sbsg47
(dp4190
S'SR'
p4191
I0
sS'ST'
p4192
I0
sS'CR'
p4193
I0
sS'CT'
p4194
I0
ssg53
(dp4195
g4191
I0
sg4192
I0
sg4193
I0
sg4194
I0
ssg80
(dp4196
g4191
I0
sg4192
I0
sg4193
I0
sg4194
I0
ssg56
I0
sg57
I0
sg615
I0
sg616
I0
sg60
I0
sg61
I0
sg62
I0
sg63
(S'dummy'
p4197
S'PI'
p4198
g31
g31
tp4199
sg68
I00
sg69
g36
(g37
g38
Ntp4200
Rp4201
(dp4202
g42
I3
sg43
S'^^^'
p4203
sg45
g4189
sbsg74
(dp4204
g4191
I0
sg4192
I5
sg4193
I0
sg4194
I14
ssg59
I00
sg82
(dp4205
g4191
I0
sg4192
I0
sg4193
I0
sg4194
I0
ssg84
(dp4206
g4191
I0
sg4192
I5
sg4193
I0
sg4194
I14
ssg86
I0
sg87
I0
sg88
S'Rodoel'
p4207
sg90
I4
sg91
I0
sg92
I16
sg93
I50
sg94
S'DKW'
p4208
sg96
(dp4209
S'A'
p4210
I11
sS'ME'
p4211
I10
sS'RP2'
p4212
I7
sS'E'
p4213
I11
sS'TO'
p4214
I9
sS'RP1'
p4215
I10
sS'JP'
p4216
I1
sS'RP_tot'
p4217
I10
sS'P'
p4218
I5
sS'PA'
p4219
I8
sS'M'
p4220
I9
sS'R'
p4221
I9
sS'TB'
p4222
I5
sS'PL'
p4223
I10
sS'TA'
p4224
I7
ssg208
I0
sg209
I0
sg210
I0
sg211
I0
sg212
F9.88888888888889
sg213
I0
sg730
I0
sg214
I0
sg215
I0
sg216
(dp4225
S'A'
p4226
I11
sS'ME'
p4227
I10
sS'RP2'
p4228
I7
sS'E'
p4229
I11
sS'TO'
p4230
I9
sS'RP1'
p4231
I10
sS'JP'
p4232
I1
sS'RP_tot'
p4233
I10
sS'P'
p4234
I5
sS'PA'
p4235
I8
sS'M'
p4236
I9
sS'R'
p4237
I9
sS'TB'
p4238
I5
sS'PL'
p4239
I10
sS'TA'
p4240
I7
ssg233
g4209
sg234
I1
sg235
S'MRB 10'
p4241
sg237
I0
sg238
I0
sg239
I0
sg240
I5
sg241
I6
sg242
I0
sg243
S'EN'
p4242
sbssg208
I4
sg209
I0
sg210
I0
sg211
I0
sg212
F10.0
sg213
I0
sg58
F74.18256448143376
sg730
I0
sg214
I0
sg215
I0
sg216
(dp4243
S'A'
p4244
I11
sS'ME'
p4245
I10
sS'RP2'
p4246
I7
sS'E'
p4247
I11
sS'P'
p4248
I5
sS'RP1'
p4249
I10
sS'JP'
p4250
I1
sS'RP_tot'
p4251
I10
sS'TO'
p4252
I9
sS'PA'
p4253
I8
sS'M'
p4254
I9
sS'R'
p4255
I9
sS'TB'
p4256
I5
sS'PL'
p4257
I10
sS'TA'
p4258
I7
ssg233
(dp4259
g4039
I12
sg4040
I9
sg4041
I7
sg4042
I11
sg4047
I5
sg4044
I10
sg4045
I1
sg4046
I10
sg4043
I9
sg4048
I8
sg4049
I9
sg4050
I10
sg4051
I5
sg4052
I10
sg4053
I6
ssg234
I0
sg342
(dp4260
sg237
I0
sg235
S'MRB 10;DKW 13'
p4261
sg238
I0
sg239
I0
sg240
I10
sg241
I9
sg242
I0
sg243
S'EN'
p4262
sbsS'n2'
p4263
(ijoueur
joueur
p4264
(dp4265
g27
F10.068965517241379
sg28
I1
sg29
F10.413793103448276
sg30
g31
sg32
I0
sg33
F74.18256448143376
sg34
I0
sg35
g36
(g37
g38
Ntp4266
Rp4267
(dp4268
g42
I4
sg43
S'*'
p4269
sg45
g854
sbsg47
(dp4270
g355
I0
sg356
I0
sg357
I0
sg358
I0
ssg53
(dp4271
g355
I0
sg356
I0
sg357
I0
sg358
I0
ssg55
I0
sg56
I0
sg57
I0
sg58
F74.18256448143376
sg59
I00
sg60
I0
sg61
I0
sg62
I0
sg63
(g360
S'TA'
p4272
S'PI'
p4273
g31
tp4274
sg68
I00
sg69
g36
(g37
g38
Ntp4275
Rp4276
(dp4277
g42
I4
sg43
g4269
sg45
g854
sbsg74
(dp4278
g76
I0
sg77
I0
sg78
I1
sg79
I6
ssg80
(dp4279
g76
I0
sg77
I0
sg78
I0
sg79
I0
ssg82
(dp4280
g76
I0
sg77
I0
sg78
I0
sg79
I0
ssg84
(dp4281
g355
I7
sg356
I0
sg357
I2
sg358
I35
ssg86
I0
sg87
I0
sg88
S'Momnod'
p4282
sg90
I6
sg91
I0
sg92
I16
sg93
I801
sg94
g95
sg96
(dp4283
g375
I9
sg376
I6
sg377
I7
sg378
I10
sg379
I3
sg380
I11
sg381
I3
sg382
I11
sg383
I8
sg384
I9
sg385
I7
sg386
I9
sg387
I2
sg388
I9
sg389
I14
ssg113
(dp4284
g391
(ijoueur
joueur
p4285
(dp4286
g27
F10.068965517241379
sg28
I1
sg30
g31
sg32
I0
sg34
I0
sg35
g36
(g37
g38
Ntp4287
Rp4288
(dp4289
g42
I4
sg43
S'*'
p4290
sg45
g879
sbsg47
(dp4291
g400
I0
sg401
I0
sg402
I0
sg403
I0
ssg53
(dp4292
g400
I0
sg401
I0
sg402
I0
sg403
I0
ssg80
(dp4293
g406
I0
sg407
I0
sg408
I0
sg409
I0
ssg56
I0
sg57
I0
sg60
I0
sg61
I0
sg62
I0
sg63
(g410
S'TA'
p4294
S'PI'
p4295
g31
tp4296
sg68
I00
sg69
g36
(g37
g38
Ntp4297
Rp4298
(dp4299
g42
I4
sg43
g4290
sg45
g879
sbsg74
(dp4300
g406
I6
sg407
I0
sg408
I0
sg409
I14
ssg59
I00
sg82
(dp4301
g406
I0
sg407
I0
sg408
I0
sg409
I0
ssg84
(dp4302
g400
I7
sg401
I0
sg402
I1
sg403
I29
ssg86
I0
sg87
I0
sg88
S'Momnod'
p4303
sg90
I6
sg91
I0
sg92
I16
sg93
I801
sg94
g423
sg96
(dp4304
g425
I10
sg426
I6
sg427
I7
sg428
I10
sg429
I8
sg430
I11
sg431
I3
sg432
I11
sg433
I3
sg434
I9
sg435
I7
sg436
I10
sg437
I2
sg438
I12
sg439
I14
ssg113
(dp4305
g441
(ijoueur
joueur
p4306
(dp4307
g28
I1
sg32
I0
sg34
I0
sg35
g36
(g37
g38
Ntp4308
Rp4309
(dp4310
g42
I4
sg43
S'*'
p4311
sg45
S'heros'
p4312
sbsg47
(dp4313
S'SR'
p4314
I0
sS'ST'
p4315
I0
sS'CR'
p4316
I0
sS'CT'
p4317
I0
ssg53
(dp4318
g4314
I0
sg4315
I0
sg4316
I0
sg4317
I0
ssg56
I0
sg57
I0
sg59
I00
sg60
I0
sg61
I0
sg62
I0
sg63
(S'dummy'
p4319
S'TA'
p4320
S'PI'
p4321
g31
tp4322
sg68
I00
sg69
g36
(g37
g38
Ntp4323
Rp4324
(dp4325
g42
I4
sg43
g4311
sg45
g4312
sbsg74
(dp4326
g4314
I1
sg4315
I0
sg4316
I1
sg4317
I15
ssg80
(dp4327
g4314
I0
sg4315
I0
sg4316
I0
sg4317
I0
ssg82
(dp4328
g4314
I0
sg4315
I0
sg4316
I0
sg4317
I0
ssg84
(dp4329
g4314
I1
sg4315
I0
sg4316
I1
sg4317
I15
ssg86
I0
sg87
I0
sg88
S'Momnod'
p4330
sg90
I6
sg91
I0
sg92
I16
sg93
I801
sg94
S'TO'
p4331
sg96
(dp4332
S'A'
p4333
I10
sS'ME'
p4334
I6
sS'RP2'
p4335
I7
sS'E'
p4336
I10
sS'TO'
p4337
I8
sS'RP1'
p4338
I11
sS'JP'
p4339
I3
sS'RP_tot'
p4340
I11
sS'P'
p4341
I3
sS'PA'
p4342
I9
sS'M'
p4343
I7
sS'R'
p4344
I9
sS'TB'
p4345
I2
sS'PL'
p4346
I12
sS'TA'
p4347
I13
ssg208
I0
sg209
I0
sg210
I0
sg211
I0
sg212
F10.068965517241379
sg213
I0
sg214
I0
sg215
I1
sg216
(dp4348
S'A'
p4349
I10
sS'ME'
p4350
I6
sS'RP2'
p4351
I7
sS'E'
p4352
I10
sS'TO'
p4353
I8
sS'RP1'
p4354
I11
sS'JP'
p4355
I3
sS'RP_tot'
p4356
I11
sS'P'
p4357
I3
sS'PA'
p4358
I9
sS'M'
p4359
I7
sS'R'
p4360
I9
sS'TB'
p4361
I2
sS'PL'
p4362
I12
sS'TA'
p4363
I13
ssg233
g4332
sg234
I1
sg235
S'TO 8;DKW 10'
p4364
sg237
I0
sg238
I0
sg239
I0
sg240
I51
sg241
I4
sg242
I1
sg243
S'CHS'
p4365
sbssg208
I1
sg209
I0
sg210
I0
sg211
I0
sg212
F10.413793103448276
sg213
I0
sg214
I0
sg215
I1
sg216
(dp4366
g504
I10
sg505
I6
sg506
I7
sg507
I10
sg508
I3
sg509
I11
sg510
I3
sg511
I11
sg512
I8
sg513
I9
sg514
I7
sg515
I9
sg516
I2
sg517
I12
sg518
I13
ssg233
g4304
sg234
I0
sg235
S'TO 8;DKW 10'
p4367
sg237
I0
sg238
I0
sg239
I0
sg240
I51
sg241
I4
sg242
I0
sg243
S'CHS'
p4368
sbsg520
(ijoueur
joueur
p4369
(dp4370
g28
I1
sg32
I0
sg34
I0
sg35
g36
(g37
g38
Ntp4371
Rp4372
(dp4373
g42
I4
sg43
S'*'
p4374
sg45
S'heros'
p4375
sbsg47
(dp4376
S'SR'
p4377
I0
sS'ST'
p4378
I0
sS'CR'
p4379
I0
sS'CT'
p4380
I0
ssg53
(dp4381
g4377
I0
sg4378
I0
sg4379
I0
sg4380
I0
ssg56
I0
sg57
I0
sg59
I00
sg60
I0
sg61
I0
sg62
I0
sg63
(S'dummy'
p4382
S'TA'
p4383
S'PI'
p4384
g31
tp4385
sg68
I00
sg69
g36
(g37
g38
Ntp4386
Rp4387
(dp4388
g42
I4
sg43
g4374
sg45
g4375
sbsg74
(dp4389
g4377
I1
sg4378
I0
sg4379
I1
sg4380
I15
ssg80
(dp4390
g4377
I0
sg4378
I0
sg4379
I0
sg4380
I0
ssg82
(dp4391
g4377
I0
sg4378
I0
sg4379
I0
sg4380
I0
ssg84
(dp4392
g4377
I1
sg4378
I0
sg4379
I1
sg4380
I15
ssg86
I0
sg87
I0
sg88
S'Momnod'
p4393
sg90
I6
sg91
I0
sg92
I16
sg93
I801
sg94
S'TO'
p4394
sg96
(dp4395
S'A'
p4396
I10
sS'ME'
p4397
I6
sS'RP2'
p4398
I7
sS'E'
p4399
I10
sS'TO'
p4400
I8
sS'RP1'
p4401
I11
sS'JP'
p4402
I3
sS'RP_tot'
p4403
I11
sS'P'
p4404
I3
sS'PA'
p4405
I9
sS'M'
p4406
I7
sS'R'
p4407
I9
sS'TB'
p4408
I2
sS'PL'
p4409
I12
sS'TA'
p4410
I13
ssg208
I0
sg209
I0
sg210
I0
sg211
I0
sg212
F10.068965517241379
sg213
I0
sg214
I0
sg215
I1
sg216
(dp4411
S'A'
p4412
I10
sS'ME'
p4413
I6
sS'RP2'
p4414
I7
sS'E'
p4415
I10
sS'TO'
p4416
I8
sS'RP1'
p4417
I11
sS'JP'
p4418
I3
sS'RP_tot'
p4419
I11
sS'P'
p4420
I3
sS'PA'
p4421
I9
sS'M'
p4422
I7
sS'R'
p4423
I9
sS'TB'
p4424
I2
sS'PL'
p4425
I12
sS'TA'
p4426
I13
ssg233
g4395
sg234
I1
sg235
S'TO 8;DKW 10'
p4427
sg237
I0
sg238
I0
sg239
I0
sg240
I51
sg241
I4
sg242
I1
sg243
S'CHS'
p4428
sbssg208
I9
sg209
I0
sg210
I0
sg211
I0
sg212
F10.137931034482758
sg213
I0
sg214
I0
sg215
I2
sg216
(dp4429
g583
I10
sg584
I6
sg585
I7
sg586
I10
sg587
I3
sg588
I11
sg589
I3
sg590
I11
sg591
I8
sg592
I9
sg593
I7
sg594
I9
sg595
I2
sg596
I12
sg597
I13
ssg233
(dp4430
g375
I10
sg376
I6
sg377
I7
sg378
I10
sg383
I8
sg380
I11
sg381
I3
sg382
I11
sg379
I3
sg384
I9
sg385
I7
sg386
I10
sg387
I2
sg388
I10
sg389
I14
ssg234
I0
sg342
(dp4431
sg237
I0
sg235
S'TO 8;DKW 10'
p4432
sg238
I0
sg239
I0
sg240
I51
sg241
I4
sg242
I1
sg243
S'CHS'
p4433
sbsS'n3'
p4434
(ijoueur
joueur
p4435
(dp4436
g27
F9.851851851851851
sg28
I0
sg29
F9.851851851851851
sg30
g31
sg32
I0
sg33
F74.18088867235844
sg34
I0
sg35
g36
(g37
g38
Ntp4437
Rp4438
(dp4439
g42
I4
sg43
S'*'
p4440
sg45
S'heros'
p4441
sbsg47
(dp4442
S'SR'
p4443
I0
sS'ST'
p4444
I0
sS'CR'
p4445
I0
sS'CT'
p4446
I0
ssg53
(dp4447
g4443
I0
sg4444
I0
sg4445
I0
sg4446
I0
ssg55
I0
sg80
(dp4448
g2253
I0
sg2254
I0
sg2255
I0
sg2256
I0
ssg56
I0
sg57
I0
sg58
F74.18088867235844
sg60
I0
sg61
I0
sg62
I0
sg63
(S'dummy'
p4449
S'PI'
p4450
g31
g31
tp4451
sg68
I00
sg69
g36
(g37
g38
Ntp4452
Rp4453
(dp4454
g42
I4
sg43
g4440
sg45
g4441
sbsg74
(dp4455
g2253
I0
sg2254
I3
sg2255
I4
sg2256
I0
ssg59
I00
sg82
(dp4456
g2253
I0
sg2254
I0
sg2255
I0
sg2256
I0
ssg84
(dp4457
g4443
I0
sg4444
I0
sg4445
I21
sg4446
I15
ssg86
I0
sg87
I0
sg88
S'Gofedr'
p4458
sg90
I7
sg91
I0
sg92
I17
sg93
I416
sg94
g2268
sg96
(dp4459
S'A'
p4460
I5
sS'ME'
p4461
I12
sS'RP2'
p4462
I8
sS'E'
p4463
I9
sS'P'
p4464
I5
sS'RP1'
p4465
I10
sS'JP'
p4466
I2
sS'RP_tot'
p4467
I11
sS'TO'
p4468
I8
sS'PA'
p4469
I10
sS'M'
p4470
I7
sS'R'
p4471
I9
sS'TB'
p4472
I5
sS'PL'
p4473
I8
sS'TA'
p4474
I8
ssg113
(dp4475
g2286
(ijoueur
joueur
p4476
(dp4477
g27
F9.851851851851851
sg28
I0
sg30
g31
sg32
I0
sg34
I0
sg35
g36
(g37
g38
Ntp4478
Rp4479
(dp4480
g42
I4
sg43
S'*'
p4481
sg45
S'heros'
p4482
sbsg47
(dp4483
S'SR'
p4484
I0
sS'ST'
p4485
I0
sS'CR'
p4486
I0
sS'CT'
p4487
I0
ssg53
(dp4488
g4484
I0
sg4485
I0
sg4486
I0
sg4487
I0
ssg56
I0
sg212
F9.851851851851851
sg57
I0
sg60
I1
sg61
I0
sg62
I0
sg63
(S'dummy'
p4489
S'PI'
p4490
g31
g31
tp4491
sg68
I00
sg69
g36
(g37
g38
Ntp4492
Rp4493
(dp4494
g42
I4
sg43
g4481
sg45
g4482
sbsg74
(dp4495
g2308
I0
sg2309
I5
sg2310
I10
sg2311
I0
ssg59
I00
sg82
(dp4496
g2308
I0
sg2309
I0
sg2310
I0
sg2311
I0
ssg84
(dp4497
g4484
I0
sg4485
I0
sg4486
I17
sg4487
I12
ssg86
I0
sg87
I0
sg88
S'Gofedr'
p4498
sg90
I7
sg91
I0
sg92
I17
sg93
I416
sg94
g2315
sg96
(dp4499
S'A'
p4500
I6
sS'ME'
p4501
I12
sS'RP2'
p4502
I8
sS'E'
p4503
I9
sS'TO'
p4504
I8
sS'RP1'
p4505
I10
sS'JP'
p4506
I2
sS'RP_tot'
p4507
I11
sS'P'
p4508
I5
sS'PA'
p4509
I10
sS'M'
p4510
I8
sS'R'
p4511
I10
sS'TB'
p4512
I5
sS'PL'
p4513
I9
sS'TA'
p4514
I8
ssg113
(dp4515
g2333
(ijoueur
joueur
p4516
(dp4517
g28
I0
sg32
I0
sg34
I0
sg35
g36
(g37
g38
Ntp4518
Rp4519
(dp4520
g42
I4
sg43
S'*'
p4521
sg45
S'heros'
p4522
sbsg47
(dp4523
S'SR'
p4524
I0
sS'ST'
p4525
I0
sS'CR'
p4526
I0
sS'CT'
p4527
I0
ssg53
(dp4528
g4524
I0
sg4525
I0
sg4526
I0
sg4527
I0
ssg56
I0
sg57
I0
sg59
I00
sg60
I0
sg61
I0
sg62
I0
sg63
(S'dummy'
p4529
S'PI'
p4530
g31
g31
tp4531
sg68
I01
sg69
g36
(g37
g38
Ntp4532
Rp4533
(dp4534
g42
I4
sg43
g4521
sg45
g4522
sbsg74
(dp4535
g4524
I0
sg4525
I0
sg4526
I7
sg4527
I7
ssg80
(dp4536
g4524
I0
sg4525
I0
sg4526
I0
sg4527
I0
ssg82
(dp4537
g4524
I0
sg4525
I0
sg4526
I0
sg4527
I0
ssg84
(dp4538
g4524
I0
sg4525
I0
sg4526
I7
sg4527
I7
ssg86
I0
sg87
I0
sg88
S'Gofedr'
p4539
sg90
I7
sg91
I0
sg92
I17
sg93
I193
sg94
S'KH'
p4540
sg96
(dp4541
S'A'
p4542
I6
sS'ME'
p4543
I12
sS'RP2'
p4544
I8
sS'E'
p4545
I9
sS'TO'
p4546
I8
sS'RP1'
p4547
I10
sS'JP'
p4548
I2
sS'RP_tot'
p4549
I11
sS'P'
p4550
I5
sS'PA'
p4551
I10
sS'M'
p4552
I8
sS'R'
p4553
I10
sS'TB'
p4554
I5
sS'PL'
p4555
I9
sS'TA'
p4556
I7
ssg208
I0
sg209
I0
sg210
I0
sg211
I0
sg212
F9.851851851851851
sg213
I0
sg214
I0
sg215
I0
sg216
(dp4557
S'A'
p4558
I6
sS'ME'
p4559
I12
sS'RP2'
p4560
I8
sS'E'
p4561
I9
sS'TO'
p4562
I8
sS'RP1'
p4563
I10
sS'JP'
p4564
I2
sS'RP_tot'
p4565
I11
sS'P'
p4566
I5
sS'PA'
p4567
I10
sS'M'
p4568
I8
sS'R'
p4569
I10
sS'TB'
p4570
I5
sS'PL'
p4571
I9
sS'TA'
p4572
I7
ssg233
g4541
sg234
I0
sg235
S'SN 10'
p4573
sg237
I0
sg238
I0
sg239
I0
sg240
I19
sg241
I5
sg242
I0
sg243
S'HB'
p4574
sbssg208
I0
sg209
I0
sg210
I0
sg211
I0
sg80
(dp4575
g2308
I0
sg2309
I0
sg2310
I0
sg2311
I0
ssg213
I0
sg214
I0
sg215
I0
sg216
(dp4576
S'A'
p4577
I6
sS'ME'
p4578
I12
sS'RP2'
p4579
I8
sS'E'
p4580
I9
sS'P'
p4581
I5
sS'RP1'
p4582
I10
sS'JP'
p4583
I2
sS'RP_tot'
p4584
I11
sS'TO'
p4585
I8
sS'PA'
p4586
I10
sS'M'
p4587
I8
sS'R'
p4588
I10
sS'TB'
p4589
I5
sS'PL'
p4590
I9
sS'TA'
p4591
I7
ssg233
g4499
sg234
I0
sg235
S'SN 10;KH 12'
p4592
sg237
I0
sg238
I0
sg239
I0
sg240
I7
sg241
I6
sg242
I0
sg243
S'HB'
p4593
sbsg2411
(ijoueur
joueur
p4594
(dp4595
g28
I0
sg32
I0
sg34
I0
sg35
g36
(g37
g38
Ntp4596
Rp4597
(dp4598
g42
I4
sg43
S'*'
p4599
sg45
S'heros'
p4600
sbsg47
(dp4601
S'SR'
p4602
I0
sS'ST'
p4603
I0
sS'CR'
p4604
I0
sS'CT'
p4605
I0
ssg53
(dp4606
g4602
I0
sg4603
I0
sg4604
I0
sg4605
I0
ssg56
I0
sg57
I0
sg59
I00
sg60
I0
sg61
I0
sg62
I0
sg63
(S'dummy'
p4607
S'PI'
p4608
g31
g31
tp4609
sg68
I01
sg69
g36
(g37
g38
Ntp4610
Rp4611
(dp4612
g42
I4
sg43
g4599
sg45
g4600
sbsg74
(dp4613
g4602
I0
sg4603
I0
sg4604
I7
sg4605
I7
ssg80
(dp4614
g4602
I0
sg4603
I0
sg4604
I0
sg4605
I0
ssg82
(dp4615
g4602
I0
sg4603
I0
sg4604
I0
sg4605
I0
ssg84
(dp4616
g4602
I0
sg4603
I0
sg4604
I7
sg4605
I7
ssg86
I0
sg87
I0
sg88
S'Gofedr'
p4617
sg90
I7
sg91
I0
sg92
I17
sg93
I193
sg94
S'KH'
p4618
sg96
(dp4619
S'A'
p4620
I6
sS'ME'
p4621
I12
sS'RP2'
p4622
I8
sS'E'
p4623
I9
sS'TO'
p4624
I8
sS'RP1'
p4625
I10
sS'JP'
p4626
I2
sS'RP_tot'
p4627
I11
sS'P'
p4628
I5
sS'PA'
p4629
I10
sS'M'
p4630
I8
sS'R'
p4631
I10
sS'TB'
p4632
I5
sS'PL'
p4633
I9
sS'TA'
p4634
I7
ssg208
I0
sg209
I0
sg210
I0
sg211
I0
sg212
F9.851851851851851
sg213
I0
sg214
I0
sg215
I0
sg216
(dp4635
S'A'
p4636
I6
sS'ME'
p4637
I12
sS'RP2'
p4638
I8
sS'E'
p4639
I9
sS'TO'
p4640
I8
sS'RP1'
p4641
I10
sS'JP'
p4642
I2
sS'RP_tot'
p4643
I11
sS'P'
p4644
I5
sS'PA'
p4645
I10
sS'M'
p4646
I8
sS'R'
p4647
I10
sS'TB'
p4648
I5
sS'PL'
p4649
I9
sS'TA'
p4650
I7
ssg233
g4619
sg234
I0
sg235
S'SN 10'
p4651
sg237
I0
sg238
I0
sg239
I0
sg240
I19
sg241
I5
sg242
I0
sg243
S'HB'
p4652
sbssg208
I8
sg209
I0
sg210
I0
sg211
I0
sg212
F9.814814814814815
sg213
I0
sg214
I0
sg215
I0
sg216
(dp4653
S'A'
p4654
I6
sS'ME'
p4655
I12
sS'RP2'
p4656
I8
sS'E'
p4657
I9
sS'P'
p4658
I5
sS'RP1'
p4659
I10
sS'JP'
p4660
I2
sS'RP_tot'
p4661
I11
sS'TO'
p4662
I8
sS'PA'
p4663
I10
sS'M'
p4664
I8
sS'R'
p4665
I10
sS'TB'
p4666
I5
sS'PL'
p4667
I9
sS'TA'
p4668
I7
ssg233
(dp4669
g4460
I6
sg4461
I12
sg4462
I8
sg4463
I9
sg4468
I8
sg4465
I10
sg4466
I2
sg4467
I11
sg4464
I5
sg4469
I10
sg4470
I7
sg4471
I10
sg4472
I5
sg4473
I9
sg4474
I8
ssg234
I0
sg342
(dp4670
sg237
I0
sg235
S'SN 10;KH 12'
p4671
sg238
I0
sg239
I0
sg240
I7
sg241
I6
sg242
I0
sg243
S'HB'
p4672
sbsS'n4'
p4673
g1370
sS'n5'
p4674
g1713
sS'n6'
p4675
g1201
sS'n7'
p4676
g25
ssS'remplacements'
p4677
(dp4678
g2144
S'n0'
p4679
sg2238
g4679
sg2995
g4679
sg2996
g4679
sg3169
g4679
sg3427
g4679
sg3598
g4679
ssb.