(iclub
compo
p0
(dp1
S'caracs_old'
p2
(dp3
S'A'
p4
F122.75
sS'ME'
p5
F81.5
sS'E'
p6
F182.5
sS'OplusAV'
p7
F81.5
sS'OplusAR'
p8
F93.5
sS'JP'
p9
F87.0
sS'PA'
p10
F94.0
sS'M'
p11
F85.25
sS'OmoinsAR'
p12
F79.0
sS'TO_off'
p13
F78.5
sS'TO_def'
p14
F72.0
sS'OmoinsAV'
p15
F88.25
sS'R'
p16
F156.25
ssS'totaux_old'
p17
(dp18
S'T2'
p19
F152.0
sS'T3'
p20
F91.25
sS'T1'
p21
F156.5
ssS'roles'
p22
(dp23
S'SA_scd'
p24
(ijoueur
joueur
p25
(dp26
S'rouges_total'
p27
I0
sS'drop_ratees_total'
p28
I0
sS'drops_total'
p29
I0
sS'xp_total'
p30
F81.83467576052375
sS'poste3'
p31
S''
p32
sS'blessure'
p33
I0
sS'poste1'
p34
g32
sS'RG_max'
p35
ccopy_reg
_reconstructor
p36
(cjoueur
rang_new
p37
c__builtin__
object
p38
Ntp39
Rp40
(dp41
S'type_nb'
p42
I5
sS'rang'
p43
S'**'
p44
sS'type'
p45
S'seigneur'
p46
sbsS'MJ2_total'
p47
(dp48
S'SR'
p49
I0
sS'ST'
p50
I0
sS'CR'
p51
I0
sS'CT'
p52
I0
ssS'MJ3_total'
p53
(dp54
g49
I0
sg50
I0
sg51
I0
sg52
I0
ssS'D'
p55
I23
sS'anciens_clubs'
p56
g32
sS'drop_rates_saison'
p57
I0
sS'xp_saison'
p58
F81.83467576052375
sS'essais_saison'
p59
I0
sS'penalite_ratees_saison'
p60
I0
sS'transformations_saison'
p61
I0
sS'club'
p62
S'FST'
p63
sS'veut_partir'
p64
I00
sS'RG'
p65
g36
(g37
g38
Ntp66
Rp67
(dp68
g42
I2
sg43
S'^^'
p69
sg45
S'special'
p70
sbsS'MJ1'
p71
(dp72
g49
I0
sg50
I0
sg51
I6
sg52
I3
ssS'MS_probleme'
p73
I00
sS'MJ3'
p74
(dp75
g49
I0
sg50
I0
sg51
I0
sg52
I0
ssS'MJ1_total'
p76
(dp77
g49
I0
sg50
I0
sg51
I6
sg52
I3
ssS'penalites_total'
p78
I0
sS'penalites_saison'
p79
I0
sS'nom'
p80
S'Potolmen'
p81
sS'C'
p82
I13
sS'transformations_total'
p83
I0
sS'MJ2'
p84
(dp85
g49
I0
sg50
I0
sg51
I0
sg52
I0
ssS'VAL'
p86
I50
sS'postes'
p87
(S'dummy'
p88
S'PI'
p89
g32
g32
tp90
sS'poste2'
p91
g32
sS'caracs'
p92
(dp93
S'RP1'
p94
I8
sS'ME'
p95
I10
sS'RP2'
p96
I6
sS'E'
p97
I9
sS'P'
p98
I6
sS'JP'
p99
I2
sS'M'
p100
I8
sS'RP_tot'
p101
I8
sS'TO'
p102
I9
sS'PA'
p103
I7
sS'A'
p104
I10
sS'R'
p105
I7
sS'TB'
p106
I4
sS'PL'
p107
I7
sS'TA'
p108
I7
ssS'jj_passe'
p109
(dp110
sS'fatigue'
p111
I3
sS'changements_postes'
p112
g32
sS'blessures_total'
p113
I0
sS'XP'
p114
I0
sS'EV'
p115
F8.411764705882353
sS'penalite_ratees_total'
p116
I0
sS'blessures_saison'
p117
I0
sS'jaunes_total'
p118
I1
sS'caracs_sans_fatigue'
p119
(dp120
g94
I8
sg95
I10
sg96
I6
sg97
I9
sg102
I9
sg100
I8
sg99
I2
sg101
I8
sg98
I6
sg103
I7
sg104
I10
sg105
I7
sg106
I4
sg107
I7
sg108
I7
ssS'rouges_saison'
p121
I0
sS'transformation_ratees_total'
p122
I0
sS'drops_saison'
p123
I0
sS'transformation_ratees_saison'
p124
I0
sS'MS'
p125
I5
sS'essais_total'
p126
I0
sS'jaunes_saison'
p127
I1
sS'ARM'
p128
S'K'
p129
sbsS'drop3'
p130
(ijoueur
joueur
p131
(dp132
g27
I0
sg28
I0
sg29
I0
sg30
F82.19990173403521
sg31
g32
sg33
I0
sg34
g32
sg35
g36
(g37
g38
Ntp133
Rp134
(dp135
g42
I4
sg43
S'*'
p136
sg45
S'heros'
p137
sbsg47
(dp138
S'SR'
p139
I0
sS'CT'
p140
I0
sS'CR'
p141
I0
sS'ST'
p142
I0
ssg53
(dp143
g139
I0
sg140
I0
sg141
I0
sg142
I0
ssg56
g32
sg57
I0
sg58
F82.19990173403521
sg59
I1
sg60
I0
sg61
I0
sg62
S'FST'
p144
sg64
I00
sg65
g134
sg71
(dp145
g139
I0
sg140
I9
sg141
I0
sg142
I0
ssg73
I00
sg74
(dp146
g139
I0
sg140
I0
sg141
I0
sg142
I0
ssg76
(dp147
g139
I0
sg140
I9
sg141
I0
sg142
I0
ssg78
I0
sg79
I0
sg80
S'Aesthiel'
p148
sg82
I4
sg83
I0
sg55
I16
sg86
I105
sg87
(S'dummy'
p149
S'C1'
p150
g32
g32
tp151
sg91
g32
sg92
(dp152
S'RP1'
p153
I9
sS'ME'
p154
I5
sS'RP2'
p155
I10
sS'E'
p156
I12
sS'TO'
p157
I6
sS'M'
p158
I9
sS'JP'
p159
I9
sS'RP_tot'
p160
I11
sS'P'
p161
I10
sS'PA'
p162
I13
sS'A'
p163
I10
sS'R'
p164
I6
sS'TB'
p165
I10
sS'PL'
p166
I8
sS'TA'
p167
I6
ssg109
(dp168
S's12'
p169
(ijoueur
joueur
p170
(dp171
g27
I0
sg28
I0
sg29
I0
sg33
I0
sg35
g36
(g37
g38
Ntp172
Rp173
(dp174
g43
g32
sbsg47
(dp175
g139
I0
sg140
I0
sg141
I0
sg142
I0
ssg53
(dp176
g139
I0
sg140
I0
sg141
I0
sg142
I0
ssg56
g32
sg57
I0
sg59
I0
sg60
I0
sg61
I0
sg87
(g149
S'CE'
p177
g32
g32
tp178
sg64
I00
sg65
g36
(g37
g38
Ntp179
Rp180
(dp181
g43
g32
sbsg71
(dp182
g139
I0
sg140
I0
sg141
I0
sg142
I0
ssg73
I00
sg74
(dp183
g139
I0
sg140
I0
sg141
I0
sg142
I0
ssg76
(dp184
g139
I0
sg140
I0
sg141
I0
sg142
I0
ssg78
I0
sg79
I0
sg80
g32
sg82
I0
sg83
I0
sg55
I0
sg86
I0
sg62
g144
sg92
(dp185
g163
I0
sg154
I0
sg155
I0
sg156
I0
sg161
I0
sg153
I0
sg159
I0
sg160
I0
sg157
I0
sg162
I0
sg158
I0
sg164
I0
sg165
I0
sg166
I0
sg167
I0
ssg109
(dp186
sg111
I0
sg112
g32
sg113
I0
sg117
I0
sg114
I0
sg115
F0.0
sg116
I0
sg84
(dp187
g139
I0
sg140
I0
sg141
I0
sg142
I0
ssg118
I0
sg119
(dp188
g153
I9
sg154
I5
sg155
I10
sg156
I12
sg161
I10
sg159
I9
sg158
I9
sg160
I11
sg157
I6
sg162
I13
sg163
I11
sg164
I7
sg165
I10
sg166
I9
sg167
I6
ssg121
I0
sg122
I0
sg123
I0
sg124
I0
sg125
I0
sg126
I0
sg127
I0
sg128
g32
sbsS's11'
p189
(ijoueur
joueur
p190
(dp191
g27
I0
sg28
I0
sg29
I0
sg33
I0
sg35
g36
(g37
g38
Ntp192
Rp193
(dp194
g43
g32
sbsg47
(dp195
g139
I0
sg140
I0
sg141
I0
sg142
I0
ssg53
(dp196
g139
I0
sg140
I0
sg141
I0
sg142
I0
ssg56
g32
sg57
I0
sg59
I0
sg60
I0
sg61
I0
sg87
g178
sg64
I00
sg65
g36
(g37
g38
Ntp197
Rp198
(dp199
g43
g32
sbsg71
(dp200
g139
I0
sg140
I0
sg141
I0
sg142
I0
ssg73
I00
sg74
(dp201
g139
I0
sg140
I0
sg141
I0
sg142
I0
ssg76
(dp202
g139
I0
sg140
I0
sg141
I0
sg142
I0
ssg78
I0
sg79
I0
sg80
g32
sg82
I0
sg83
I0
sg55
I0
sg86
I0
sg62
g144
sg92
(dp203
g163
I0
sg154
I0
sg155
I0
sg156
I0
sg161
I0
sg153
I0
sg159
I0
sg160
I0
sg157
I0
sg162
I0
sg158
I0
sg164
I0
sg165
I0
sg166
I0
sg167
I0
ssg109
(dp204
sg111
I0
sg112
g32
sg113
I0
sg117
I0
sg114
I0
sg115
F0.0
sg116
I0
sg84
(dp205
g139
I0
sg140
I0
sg141
I0
sg142
I0
ssg118
I0
sg119
g188
sg121
I0
sg122
I0
sg123
I0
sg124
I0
sg125
I0
sg126
I0
sg127
I0
sg128
g32
sbssg111
cnumpy.core.multiarray
scalar
p206
(cnumpy
dtype
p207
(S'i4'
p208
I0
I1
tp209
Rp210
(I3
S'<'
p211
NNNI-1
I-1
I0
tp212
bS'\x08\x00\x00\x00'
p213
tp214
Rp215
sg112
g32
sg113
I0
sg117
I0
sg114
I0
sg115
F10.4
sg116
I0
sg84
(dp216
g139
I0
sg140
I0
sg141
I0
sg142
I0
ssg118
I0
sg119
g188
sg121
I0
sg122
I0
sg123
I0
sg124
I0
sg125
I10
sg126
I1
sg127
I0
sg128
S'ES'
p217
sbsS'cap'
p218
g131
sS'SA_pcp2'
p219
(ijoueur
joueur
p220
(dp221
g27
I0
sg28
I0
sg29
I0
sg30
F82.19990173403521
sg31
g32
sg33
I0
sg34
g32
sg35
g36
(g37
g38
Ntp222
Rp223
(dp224
g42
I4
sg43
S'*'
p225
sg45
S'heros'
p226
sbsg47
(dp227
g49
I0
sg50
I0
sg51
I0
sg52
I0
ssg53
(dp228
g49
I0
sg50
I0
sg51
I0
sg52
I0
ssg55
I23
sg56
g32
sg57
I0
sg58
F82.19990173403521
sg59
I0
sg60
I0
sg61
I0
sg62
g63
sg64
I00
sg65
g223
sg71
(dp229
g49
I0
sg50
I0
sg51
I1
sg52
I8
ssg73
I00
sg74
(dp230
g49
I0
sg50
I0
sg51
I0
sg52
I0
ssg76
(dp231
g49
I0
sg50
I0
sg51
I1
sg52
I8
ssg78
I0
sg79
I0
sg80
S'Christoe'
p232
sg82
I10
sg83
I0
sg84
(dp233
g49
I0
sg50
I0
sg51
I0
sg52
I0
ssg86
I110
sg87
(g88
S'DL'
p234
g32
g32
tp235
sg91
g32
sg92
(dp236
g94
I9
sg95
I8
sg96
I7
sg97
I8
sg98
I6
sg99
I2
sg100
I7
sg101
I9
sg102
I9
sg103
I9
sg104
I8
sg105
I10
sg106
I4
sg107
I11
sg108
I5
ssg109
(dp237
S's12'
p238
(ijoueur
joueur
p239
(dp240
g27
I0
sg28
I0
sg29
I0
sg33
I0
sg35
g36
(g37
g38
Ntp241
Rp242
(dp243
g43
g32
sbsg47
(dp244
g49
I0
sg50
I0
sg51
I0
sg52
I0
ssg53
(dp245
g49
I0
sg50
I0
sg51
I0
sg52
I0
ssg55
I0
sg56
g32
sg57
I0
sg59
I0
sg60
I0
sg61
I0
sg87
(g88
g234
g32
g32
tp246
sg64
I00
sg65
g36
(g37
g38
Ntp247
Rp248
(dp249
g43
g32
sbsg71
(dp250
g49
I0
sg50
I0
sg51
I0
sg52
I0
ssg73
I00
sg74
(dp251
g49
I0
sg50
I0
sg51
I0
sg52
I0
ssg76
(dp252
g49
I0
sg50
I0
sg51
I0
sg52
I0
ssg78
I0
sg79
I0
sg80
S'Christoe (12)'
p253
sg82
I0
sg83
I0
sg84
(dp254
g49
I0
sg50
I0
sg51
I0
sg52
I0
ssg86
I0
sg62
g63
sg92
(dp255
g104
I0
sg95
I0
sg96
I0
sg97
I0
sg102
I0
sg94
I0
sg99
I0
sg101
I0
sg98
I0
sg103
I0
sg100
I0
sg105
I0
sg106
I0
sg107
I0
sg108
I0
ssg109
(dp256
sg111
I0
sg112
g32
sg113
I0
sg114
I0
sg115
F0.0
sg116
I0
sg117
I0
sg118
I0
sg119
(dp257
g94
I9
sg95
I8
sg96
I7
sg97
I8
sg102
I9
sg100
I7
sg99
I2
sg101
I9
sg98
I6
sg103
I9
sg104
I8
sg105
I10
sg106
I4
sg107
I11
sg108
I5
ssg121
I0
sg122
I0
sg123
I0
sg124
I0
sg125
I0
sg126
I0
sg127
I0
sg128
g32
sbsS's11'
p258
(ijoueur
joueur
p259
(dp260
g27
I0
sg28
I0
sg29
I0
sg33
I0
sg35
g36
(g37
g38
Ntp261
Rp262
(dp263
g43
g32
sbsg47
(dp264
g49
I0
sg50
I0
sg51
I0
sg52
I0
ssg53
(dp265
g49
I0
sg50
I0
sg51
I0
sg52
I0
ssg55
I0
sg56
g32
sg57
I0
sg59
I0
sg60
I0
sg61
I0
sg87
g246
sg64
I00
sg65
g36
(g37
g38
Ntp266
Rp267
(dp268
g43
g32
sbsg71
(dp269
g49
I0
sg50
I0
sg51
I0
sg52
I0
ssg73
I00
sg74
(dp270
g49
I0
sg50
I0
sg51
I0
sg52
I0
ssg76
(dp271
g49
I0
sg50
I0
sg51
I0
sg52
I0
ssg78
I0
sg79
I0
sg80
S'Christoe (11)'
p272
sg82
I0
sg83
I0
sg84
(dp273
g49
I0
sg50
I0
sg51
I0
sg52
I0
ssg86
I0
sg62
g63
sg92
(dp274
g104
I0
sg95
I0
sg96
I0
sg97
I0
sg102
I0
sg94
I0
sg99
I0
sg101
I0
sg98
I0
sg103
I0
sg100
I0
sg105
I0
sg106
I0
sg107
I0
sg108
I0
ssg109
(dp275
sg111
I0
sg112
g32
sg113
I0
sg114
I0
sg115
F0.0
sg116
I0
sg117
I0
sg118
I0
sg119
g257
sg121
I0
sg122
I0
sg123
I0
sg124
I0
sg125
I0
sg126
I0
sg127
I0
sg128
g32
sbssg111
g206
(g210
S'\x07\x00\x00\x00'
p276
tp277
Rp278
sg112
g32
sg113
I0
sg114
I0
sg115
F9.11111111111111
sg116
I0
sg117
I0
sg118
I0
sg119
g257
sg121
I0
sg122
I0
sg123
I0
sg124
I0
sg125
I11
sg126
I0
sg127
I0
sg128
g129
sbsS'B4'
p279
(ijoueur
joueur
p280
(dp281
g27
I0
sg28
I0
sg29
I4
sg30
F82.19990173403521
sg31
g32
sg33
I0
sg34
g32
sg35
g36
(g37
g38
Ntp282
Rp283
(dp284
g42
I4
sg43
g136
sg45
g137
sbsg47
(dp285
g139
I0
sg140
I0
sg141
I0
sg142
I0
ssg53
(dp286
g139
I0
sg140
I0
sg141
I0
sg142
I0
ssg56
g32
sg57
I0
sg58
F82.19990173403521
sg59
I1
sg60
I4
sg61
I11
sg62
g144
sg64
I00
sg65
g283
sg71
(dp287
g139
I0
sg140
I9
sg141
I0
sg142
I0
ssg73
I00
sg74
(dp288
g139
I0
sg140
I0
sg141
I0
sg142
I0
ssg76
(dp289
g139
I0
sg140
I9
sg141
I0
sg142
I0
ssg78
I30
sg79
I30
sg80
S'Queliel'
p290
sg82
I5
sg83
I11
sg55
I17
sg86
I144
sg87
(g149
S'DM'
p291
S'DO'
p292
g32
tp293
sg91
g32
sg92
(dp294
g153
I9
sg154
I4
sg155
I9
sg156
I9
sg157
I7
sg158
I7
sg159
I10
sg160
I11
sg161
I10
sg162
I9
sg163
I11
sg164
I6
sg165
I11
sg166
I7
sg167
I5
ssg109
(dp295
S's12'
p296
(ijoueur
joueur
p297
(dp298
g27
I0
sg28
I0
sg29
I0
sg33
I0
sg35
g36
(g37
g38
Ntp299
Rp300
(dp301
g43
g32
sbsg47
(dp302
g139
I0
sg140
I0
sg141
I0
sg142
I0
ssg53
(dp303
g139
I0
sg140
I0
sg141
I0
sg142
I0
ssg56
g32
sg57
I0
sg59
I0
sg60
I0
sg61
I0
sg87
(g149
g291
g32
g32
tp304
sg64
I00
sg65
g36
(g37
g38
Ntp305
Rp306
(dp307
g43
g32
sbsg71
(dp308
g139
I0
sg140
I0
sg141
I0
sg142
I0
ssg73
I00
sg74
(dp309
g139
I0
sg140
I0
sg141
I0
sg142
I0
ssg76
(dp310
g139
I0
sg140
I0
sg141
I0
sg142
I0
ssg78
I0
sg79
I0
sg80
g32
sg82
I0
sg83
I0
sg55
I0
sg86
I0
sg62
g144
sg92
(dp311
g163
I0
sg154
I0
sg155
I0
sg156
I0
sg161
I0
sg153
I0
sg159
I0
sg160
I0
sg157
I0
sg162
I0
sg158
I0
sg164
I0
sg165
I0
sg166
I0
sg167
I0
ssg109
(dp312
sg111
I0
sg112
g32
sg113
I0
sg117
I0
sg114
I0
sg115
F0.0
sg116
I0
sg84
(dp313
g139
I0
sg140
I0
sg141
I0
sg142
I0
ssg118
I0
sg119
(dp314
g153
I9
sg154
I4
sg155
I9
sg156
I9
sg161
I10
sg159
I10
sg158
I7
sg160
I11
sg157
I7
sg162
I9
sg163
I12
sg164
I7
sg165
I11
sg166
I8
sg167
I5
ssg121
I0
sg122
I0
sg123
I0
sg124
I0
sg125
I0
sg126
I0
sg127
I0
sg128
g32
sbsS's11'
p315
(ijoueur
joueur
p316
(dp317
g27
I0
sg28
I0
sg29
I0
sg33
I0
sg35
g36
(g37
g38
Ntp318
Rp319
(dp320
g43
g32
sbsg47
(dp321
g139
I0
sg140
I0
sg141
I0
sg142
I0
ssg53
(dp322
g139
I0
sg140
I0
sg141
I0
sg142
I0
ssg56
g32
sg57
I0
sg59
I0
sg60
I0
sg61
I0
sg87
g304
sg64
I00
sg65
g36
(g37
g38
Ntp323
Rp324
(dp325
g43
g32
sbsg71
(dp326
g139
I0
sg140
I0
sg141
I0
sg142
I0
ssg73
I00
sg74
(dp327
g139
I0
sg140
I0
sg141
I0
sg142
I0
ssg76
(dp328
g139
I0
sg140
I0
sg141
I0
sg142
I0
ssg78
I0
sg79
I0
sg80
g32
sg82
I0
sg83
I0
sg55
I0
sg86
I0
sg62
g144
sg92
(dp329
g163
I0
sg154
I0
sg155
I0
sg156
I0
sg161
I0
sg153
I0
sg159
I0
sg160
I0
sg157
I0
sg162
I0
sg158
I0
sg164
I0
sg165
I0
sg166
I0
sg167
I0
ssg109
(dp330
sg111
I0
sg112
g32
sg113
I0
sg117
I0
sg114
I0
sg115
F0.0
sg116
I0
sg84
(dp331
g139
I0
sg140
I0
sg141
I0
sg142
I0
ssg118
I0
sg119
g314
sg121
I0
sg122
I0
sg123
I0
sg124
I0
sg125
I0
sg126
I0
sg127
I0
sg128
g32
sbssg111
g206
(g210
S'\x08\x00\x00\x00'
p332
tp333
Rp334
sg112
g32
sg113
I0
sg117
I0
sg114
I0
sg115
F9.451612903225806
sg116
I4
sg84
(dp335
g139
I0
sg140
I0
sg141
I0
sg142
I0
ssg118
I0
sg119
g314
sg121
I0
sg122
I0
sg123
I4
sg124
I0
sg125
I14
sg126
I1
sg127
I0
sg128
S'K'
p336
sbsS'RJC'
p337
g280
sS'B1'
p338
g280
sS'B2'
p339
g280
sS'B3'
p340
g280
sS'drop1'
p341
g280
sS'SA_pcp1'
p342
(ijoueur
joueur
p343
(dp344
g27
I0
sg28
I0
sg29
I0
sg30
F83.08164915013039
sg31
g32
sg33
I0
sg34
g32
sg35
g36
(g37
g38
Ntp345
Rp346
(dp347
g42
I4
sg43
S'x'
p348
sg45
g226
sbsg47
(dp349
g49
I0
sg50
I0
sg51
I0
sg52
I1
ssg53
(dp350
g49
I0
sg50
I0
sg51
I0
sg52
I0
ssg55
I23
sg56
g32
sg57
I0
sg58
F83.08164915013039
sg59
I0
sg60
I0
sg61
I0
sg62
g63
sg64
I00
sg65
g36
(g37
g38
Ntp351
Rp352
(dp353
g42
I3
sg43
S'^^^'
p354
sg45
S'rare'
p355
sbsg71
(dp356
g49
I0
sg50
I0
sg51
I0
sg52
I8
ssg73
I00
sg74
(dp357
g49
I0
sg50
I0
sg51
I0
sg52
I0
ssg76
(dp358
g49
I0
sg50
I0
sg51
I0
sg52
I8
ssg78
I0
sg79
I0
sg80
S'Zsvol'
p359
sg82
I13
sg83
I0
sg84
(dp360
g49
I0
sg50
I0
sg51
I0
sg52
I1
ssg86
I18
sg87
(g88
g89
S'DL'
p361
g32
tp362
sg91
g32
sg92
(dp363
g94
I10
sg95
I8
sg96
I6
sg97
I10
sg98
I6
sg99
I3
sg100
I7
sg101
I10
sg102
I11
sg103
I10
sg104
I7
sg105
I7
sg106
I3
sg107
I9
sg108
I6
ssg109
(dp364
sg111
g206
(g210
S'\n\x00\x00\x00'
p365
tp366
Rp367
sg112
g32
sg113
I0
sg114
I0
sg115
F9.352941176470589
sg116
I0
sg117
I0
sg118
I1
sg119
(dp368
g94
I10
sg95
I8
sg96
I6
sg97
I10
sg102
I11
sg100
I7
sg99
I3
sg101
I10
sg98
I6
sg103
I10
sg104
I8
sg105
I8
sg106
I3
sg107
I10
sg108
I6
ssg121
I0
sg122
I0
sg123
I0
sg124
I0
sg125
I1
sg126
I0
sg127
I1
sg128
g129
sbsS'RJL'
p369
g280
sS'SA_remp1'
p370
(ijoueur
joueur
p371
(dp372
g27
I0
sg28
I0
sg29
I0
sg30
F92.00028142006322
sg31
g32
sg33
I0
sg34
g32
sg35
g36
(g37
g38
Ntp373
Rp374
(dp375
g42
I1
sg43
S'<'
p376
sg45
S'base'
p377
sbsg47
(dp378
g49
I0
sg50
I0
sg51
I0
sg52
I0
ssg53
(dp379
g49
I0
sg50
I0
sg51
I0
sg52
I0
ssg55
I12
sg56
g32
sg57
I0
sg58
F92.00028142006322
sg59
I0
sg60
I0
sg61
I0
sg62
g63
sg64
I00
sg65
g374
sg71
(dp380
g49
I0
sg50
I0
sg51
I6
sg52
I4
ssg73
I00
sg74
(dp381
g49
I0
sg50
I0
sg51
I0
sg52
I0
ssg76
(dp382
g49
I0
sg50
I0
sg51
I6
sg52
I4
ssg78
I0
sg79
I0
sg80
S'Ujari'
p383
sg82
I4
sg83
I0
sg84
(dp384
g49
I0
sg50
I0
sg51
I0
sg52
I0
ssg86
I19
sg87
(g88
g234
g32
g32
tp385
sg91
g32
sg92
(dp386
g94
I9
sg95
I8
sg96
I6
sg97
I8
sg98
I6
sg99
I3
sg100
I10
sg101
I9
sg102
I11
sg103
I6
sg104
I5
sg105
I9
sg106
I3
sg107
I6
sg108
I4
ssg109
(dp387
S's12'
p388
(ijoueur
joueur
p389
(dp390
g27
I0
sg28
I0
sg29
I0
sg33
I0
sg35
g36
(g37
g38
Ntp391
Rp392
(dp393
g43
g32
sbsg47
(dp394
g49
I0
sg50
I0
sg51
I0
sg52
I0
ssg53
(dp395
g49
I0
sg50
I0
sg51
I0
sg52
I0
ssg55
I0
sg56
g32
sg57
I0
sg59
I0
sg60
I0
sg61
I0
sg87
(g88
g234
g32
g32
tp396
sg64
I00
sg65
g36
(g37
g38
Ntp397
Rp398
(dp399
g43
g32
sbsg71
(dp400
g49
I0
sg50
I0
sg51
I0
sg52
I0
ssg73
I00
sg74
(dp401
g49
I0
sg50
I0
sg51
I0
sg52
I0
ssg76
(dp402
g49
I0
sg50
I0
sg51
I0
sg52
I0
ssg78
I0
sg79
I0
sg80
S'Ujari (12)'
p403
sg82
I0
sg83
I0
sg84
(dp404
g49
I0
sg50
I0
sg51
I0
sg52
I0
ssg86
I0
sg62
g63
sg92
(dp405
g104
I0
sg95
I0
sg96
I0
sg97
I0
sg102
I0
sg94
I0
sg99
I0
sg101
I0
sg98
I0
sg103
I0
sg100
I0
sg105
I0
sg106
I0
sg107
I0
sg108
I0
ssg109
(dp406
sg111
I0
sg112
g32
sg113
I0
sg114
I0
sg115
F0.0
sg116
I0
sg117
I0
sg118
I0
sg119
(dp407
g94
I9
sg95
I8
sg96
I6
sg97
I8
sg102
I11
sg100
I10
sg99
I3
sg101
I9
sg98
I6
sg103
I6
sg104
I6
sg105
I10
sg106
I3
sg107
I7
sg108
I4
ssg121
I0
sg122
I0
sg123
I0
sg124
I0
sg125
I0
sg126
I0
sg127
I0
sg128
g32
sbsS's11'
p408
(ijoueur
joueur
p409
(dp410
g27
I0
sg28
I0
sg29
I0
sg33
I0
sg35
g36
(g37
g38
Ntp411
Rp412
(dp413
g43
g32
sbsg47
(dp414
g49
I0
sg50
I0
sg51
I0
sg52
I0
ssg53
(dp415
g49
I0
sg50
I0
sg51
I0
sg52
I0
ssg55
I0
sg56
g32
sg57
I0
sg59
I0
sg60
I0
sg61
I0
sg87
g396
sg64
I00
sg65
g36
(g37
g38
Ntp416
Rp417
(dp418
g43
g32
sbsg71
(dp419
g49
I0
sg50
I0
sg51
I0
sg52
I0
ssg73
I00
sg74
(dp420
g49
I0
sg50
I0
sg51
I0
sg52
I0
ssg76
(dp421
g49
I0
sg50
I0
sg51
I0
sg52
I0
ssg78
I0
sg79
I0
sg80
S'Ujari (11)'
p422
sg82
I0
sg83
I0
sg84
(dp423
g49
I0
sg50
I0
sg51
I0
sg52
I0
ssg86
I0
sg62
g63
sg92
(dp424
g104
I0
sg95
I0
sg96
I0
sg97
I0
sg102
I0
sg94
I0
sg99
I0
sg101
I0
sg98
I0
sg103
I0
sg100
I0
sg105
I0
sg106
I0
sg107
I0
sg108
I0
ssg109
(dp425
sg111
I0
sg112
g32
sg113
I0
sg114
I0
sg115
F0.0
sg116
I0
sg117
I0
sg118
I0
sg119
g407
sg121
I0
sg122
I0
sg123
I0
sg124
I0
sg125
I0
sg126
I0
sg127
I0
sg128
g32
sbssg111
I11
sg112
g32
sg113
I0
sg114
I0
sg115
F8.911764705882353
sg116
I0
sg117
I0
sg118
I0
sg119
g407
sg121
I0
sg122
I0
sg123
I0
sg124
I0
sg125
I1
sg126
I0
sg127
I0
sg128
g129
sbsS'drop2'
p426
g280
sS'SA_remp2'
p427
(ijoueur
joueur
p428
(dp429
g27
I0
sg28
I0
sg29
I0
sg30
F36.537258592307765
sg31
g32
sg33
I0
sg34
g32
sg35
g36
(g37
g38
Ntp430
Rp431
(dp432
g42
I2
sg43
S'<<'
p433
sg45
g70
sbsg47
(dp434
g49
I0
sg50
I0
sg51
I0
sg52
I0
ssg53
(dp435
g49
I0
sg50
I0
sg51
I0
sg52
I0
ssg55
I16
sg56
g32
sg57
I0
sg58
F36.537258592307765
sg59
I0
sg60
I0
sg61
I0
sg62
g63
sg64
I00
sg65
g431
sg71
(dp436
g49
I0
sg50
I0
sg51
I1
sg52
I3
ssg73
I00
sg74
(dp437
g49
I0
sg50
I0
sg51
I0
sg52
I0
ssg76
(dp438
g49
I0
sg50
I0
sg51
I1
sg52
I3
ssg78
I0
sg79
I0
sg80
S'Skendal'
p439
sg82
I3
sg83
I0
sg84
(dp440
g49
I0
sg50
I0
sg51
I0
sg52
I0
ssg86
I21
sg87
(g88
S'N8'
p441
g32
g32
tp442
sg91
g32
sg92
(dp443
g94
I7
sg95
I7
sg96
I6
sg97
I10
sg98
I5
sg99
I3
sg100
I8
sg101
I7
sg102
I8
sg103
I8
sg104
I6
sg105
I9
sg106
I4
sg107
I8
sg108
I3
ssg109
(dp444
S's12'
p445
(ijoueur
joueur
p446
(dp447
g27
I0
sg28
I0
sg29
I0
sg33
I0
sg35
g36
(g37
g38
Ntp448
Rp449
(dp450
g43
g32
sbsg47
(dp451
g49
I0
sg50
I0
sg51
I0
sg52
I0
ssg53
(dp452
g49
I0
sg50
I0
sg51
I0
sg52
I0
ssg55
I0
sg56
g32
sg57
I0
sg59
I0
sg60
I0
sg61
I0
sg87
(g88
g441
g32
g32
tp453
sg64
I00
sg65
g36
(g37
g38
Ntp454
Rp455
(dp456
g43
g32
sbsg71
(dp457
g49
I0
sg50
I0
sg51
I0
sg52
I0
ssg73
I00
sg74
(dp458
g49
I0
sg50
I0
sg51
I0
sg52
I0
ssg76
(dp459
g49
I0
sg50
I0
sg51
I0
sg52
I0
ssg78
I0
sg79
I0
sg80
S'Skendal (12)'
p460
sg82
I0
sg83
I0
sg84
(dp461
g49
I0
sg50
I0
sg51
I0
sg52
I0
ssg86
I0
sg62
g63
sg92
(dp462
g104
I0
sg95
I0
sg96
I0
sg97
I0
sg102
I0
sg94
I0
sg99
I0
sg101
I0
sg98
I0
sg103
I0
sg100
I0
sg105
I0
sg106
I0
sg107
I0
sg108
I0
ssg109
(dp463
sg111
I0
sg112
g32
sg113
I0
sg114
I0
sg115
F0.0
sg116
I0
sg117
I0
sg118
I0
sg119
(dp464
g94
I7
sg95
I7
sg96
I6
sg97
I10
sg102
I8
sg100
I8
sg99
I3
sg101
I7
sg98
I5
sg103
I8
sg104
I6
sg105
I9
sg106
I4
sg107
I8
sg108
I3
ssg121
I0
sg122
I0
sg123
I0
sg124
I0
sg125
I0
sg126
I0
sg127
I0
sg128
g32
sbsS's11'
p465
(ijoueur
joueur
p466
(dp467
g27
I0
sg28
I0
sg29
I0
sg33
I0
sg35
g36
(g37
g38
Ntp468
Rp469
(dp470
g43
g32
sbsg47
(dp471
g49
I0
sg50
I0
sg51
I0
sg52
I0
ssg53
(dp472
g49
I0
sg50
I0
sg51
I0
sg52
I0
ssg55
I0
sg56
g32
sg57
I0
sg59
I0
sg60
I0
sg61
I0
sg87
g453
sg64
I00
sg65
g36
(g37
g38
Ntp473
Rp474
(dp475
g43
g32
sbsg71
(dp476
g49
I0
sg50
I0
sg51
I0
sg52
I0
ssg73
I00
sg74
(dp477
g49
I0
sg50
I0
sg51
I0
sg52
I0
ssg76
(dp478
g49
I0
sg50
I0
sg51
I0
sg52
I0
ssg78
I0
sg79
I0
sg80
S'Skendal (11)'
p479
sg82
I0
sg83
I0
sg84
(dp480
g49
I0
sg50
I0
sg51
I0
sg52
I0
ssg86
I0
sg62
g63
sg92
(dp481
g104
I0
sg95
I0
sg96
I0
sg97
I0
sg102
I0
sg94
I0
sg99
I0
sg101
I0
sg98
I0
sg103
I0
sg100
I0
sg105
I0
sg106
I0
sg107
I0
sg108
I0
ssg109
(dp482
sg111
I0
sg112
g32
sg113
I0
sg114
I0
sg115
F0.0
sg116
I0
sg117
I0
sg118
I0
sg119
g464
sg121
I0
sg122
I0
sg123
I0
sg124
I0
sg125
I0
sg126
I0
sg127
I0
sg128
g32
sbssg111
g206
(g210
S'\x07\x00\x00\x00'
p483
tp484
Rp485
sg112
g32
sg113
I0
sg114
I0
sg115
F8.03448275862069
sg116
I0
sg117
I0
sg118
I0
sg119
g464
sg121
I0
sg122
I0
sg123
I0
sg124
I0
sg125
I2
sg126
I0
sg127
I0
sg128
g129
sbssg80
S'AES_FST'
p486
sS'totaux'
p487
(dp488
g19
I0
sg20
I0
sg21
I0
ssS'_compo_defaut_fatigue'
p489
Nsg92
(dp490
g4
I0
sg5
I0
sg6
I0
sg7
I0
sg8
I0
sg9
I0
sg10
I0
sg11
I0
sg12
I0
sg13
I0
sg14
I0
sg15
I0
sg16
I0
ssS'joueurs'
p491
(dp492
S'n12'
p493
g131
sS'n13'
p494
(ijoueur
joueur
p495
(dp496
g27
I0
sg28
I0
sg29
I1
sg30
F82.75721329483912
sg31
g32
sg33
I0
sg34
g32
sg35
g36
(g37
g38
Ntp497
Rp498
(dp499
g42
I4
sg43
g136
sg45
g137
sbsg47
(dp500
g139
I0
sg140
I0
sg141
I0
sg142
I0
ssg53
(dp501
g139
I0
sg140
I0
sg141
I0
sg142
I0
ssg56
g32
sg57
I0
sg58
F82.75721329483912
sg59
I2
sg60
I0
sg61
I1
sg62
g144
sg64
I00
sg65
g498
sg71
(dp502
g139
I0
sg140
I9
sg141
I0
sg142
I0
ssg73
I00
sg74
(dp503
g139
I0
sg140
I0
sg141
I0
sg142
I0
ssg76
(dp504
g139
I0
sg140
I9
sg141
I0
sg142
I0
ssg78
I4
sg79
I4
sg80
S'Fetiol'
p505
sg82
I5
sg83
I1
sg55
I14
sg86
I118
sg87
(g149
S'C1'
p506
g32
g32
tp507
sg91
g32
sg92
(dp508
g153
I9
sg154
I4
sg155
I8
sg156
I10
sg157
I7
sg158
I7
sg159
I8
sg160
I10
sg161
I8
sg162
I12
sg163
I9
sg164
I10
sg165
I11
sg166
I9
sg167
I6
ssg109
(dp509
S's12'
p510
(ijoueur
joueur
p511
(dp512
g27
I0
sg28
I0
sg29
I0
sg33
I0
sg35
g36
(g37
g38
Ntp513
Rp514
(dp515
g43
g32
sbsg47
(dp516
g139
I0
sg140
I0
sg141
I0
sg142
I0
ssg53
(dp517
g139
I0
sg140
I0
sg141
I0
sg142
I0
ssg56
g32
sg57
I0
sg59
I0
sg60
I0
sg61
I0
sg87
(g149
g177
g32
g32
tp518
sg64
I00
sg65
g36
(g37
g38
Ntp519
Rp520
(dp521
g43
g32
sbsg71
(dp522
g139
I0
sg140
I0
sg141
I0
sg142
I0
ssg73
I00
sg74
(dp523
g139
I0
sg140
I0
sg141
I0
sg142
I0
ssg76
(dp524
g139
I0
sg140
I0
sg141
I0
sg142
I0
ssg78
I0
sg79
I0
sg80
g32
sg82
I0
sg83
I0
sg55
I0
sg86
I0
sg62
g144
sg92
(dp525
g163
I0
sg154
I0
sg155
I0
sg156
I0
sg161
I0
sg153
I0
sg159
I0
sg160
I0
sg157
I0
sg162
I0
sg158
I0
sg164
I0
sg165
I0
sg166
I0
sg167
I0
ssg109
(dp526
sg111
I0
sg112
g32
sg113
I0
sg117
I0
sg114
I0
sg115
F0.0
sg116
I0
sg84
(dp527
g139
I0
sg140
I0
sg141
I0
sg142
I0
ssg118
I0
sg119
(dp528
g153
I9
sg154
I4
sg155
I8
sg156
I10
sg161
I8
sg159
I8
sg158
I7
sg160
I10
sg157
I7
sg162
I12
sg163
I10
sg164
I11
sg165
I11
sg166
I10
sg167
I6
ssg121
I0
sg122
I0
sg123
I0
sg124
I0
sg125
I0
sg126
I0
sg127
I0
sg128
g32
sbsS's11'
p529
(ijoueur
joueur
p530
(dp531
g27
I0
sg28
I0
sg29
I0
sg33
I0
sg35
g36
(g37
g38
Ntp532
Rp533
(dp534
g43
g32
sbsg47
(dp535
g139
I0
sg140
I0
sg141
I0
sg142
I0
ssg53
(dp536
g139
I0
sg140
I0
sg141
I0
sg142
I0
ssg56
g32
sg57
I0
sg59
I0
sg60
I0
sg61
I0
sg87
g518
sg64
I00
sg65
g36
(g37
g38
Ntp537
Rp538
(dp539
g43
g32
sbsg71
(dp540
g139
I0
sg140
I0
sg141
I0
sg142
I0
ssg73
I00
sg74
(dp541
g139
I0
sg140
I0
sg141
I0
sg142
I0
ssg76
(dp542
g139
I0
sg140
I0
sg141
I0
sg142
I0
ssg78
I0
sg79
I0
sg80
g32
sg82
I0
sg83
I0
sg55
I0
sg86
I0
sg62
g144
sg92
(dp543
g163
I0
sg154
I0
sg155
I0
sg156
I0
sg161
I0
sg153
I0
sg159
I0
sg160
I0
sg157
I0
sg162
I0
sg158
I0
sg164
I0
sg165
I0
sg166
I0
sg167
I0
ssg109
(dp544
sg111
I0
sg112
g32
sg113
I0
sg117
I0
sg114
I0
sg115
F0.0
sg116
I0
sg84
(dp545
g139
I0
sg140
I0
sg141
I0
sg142
I0
ssg118
I0
sg119
g528
sg121
I0
sg122
I0
sg123
I0
sg124
I0
sg125
I0
sg126
I0
sg127
I0
sg128
g32
sbssg111
g206
(g210
S'\x08\x00\x00\x00'
p546
tp547
Rp548
sg112
g32
sg113
I0
sg117
I0
sg114
I0
sg115
F9.84375
sg116
I0
sg84
(dp549
g139
I0
sg140
I0
sg141
I0
sg142
I0
ssg118
I0
sg119
g528
sg121
I0
sg122
I0
sg123
I1
sg124
I0
sg125
I11
sg126
I2
sg127
I0
sg128
g336
sbsS'n10'
p550
(ijoueur
joueur
p551
(dp552
g27
I0
sg28
I0
sg29
I2
sg30
F91.77454065570817
sg31
g32
sg33
I0
sg34
g32
sg35
g36
(g37
g38
Ntp553
Rp554
(dp555
g42
I2
sg43
S'<<'
p556
sg45
S'special'
p557
sbsg47
(dp558
g139
I0
sg140
I0
sg141
I0
sg142
I0
ssg53
(dp559
g139
I0
sg140
I0
sg141
I0
sg142
I0
ssg56
g32
sg57
I0
sg58
F91.77454065570817
sg59
I0
sg60
I0
sg61
I0
sg62
g144
sg64
I00
sg65
g554
sg71
(dp560
g139
I0
sg140
I7
sg141
I3
sg142
I0
ssg73
I00
sg74
(dp561
g139
I0
sg140
I0
sg141
I0
sg142
I0
ssg76
(dp562
g139
I0
sg140
I7
sg141
I3
sg142
I0
ssg78
I0
sg79
I0
sg80
S'Zaeth'
p563
sg82
I4
sg83
I0
sg55
I15
sg86
I26
sg87
(g149
S'DO'
p564
S'CE'
p565
g32
tp566
sg91
g32
sg92
(dp567
g153
I6
sg154
I4
sg155
I6
sg156
I10
sg157
I8
sg158
I9
sg159
I8
sg160
I7
sg161
I9
sg162
I11
sg163
I8
sg164
I5
sg165
I9
sg166
I8
sg167
I2
ssg109
(dp568
S's12'
p569
(ijoueur
joueur
p570
(dp571
g27
I0
sg28
I0
sg29
I0
sg33
I0
sg35
g36
(g37
g38
Ntp572
Rp573
(dp574
g43
g32
sbsg47
(dp575
g139
I0
sg140
I0
sg141
I0
sg142
I0
ssg53
(dp576
g139
I0
sg140
I0
sg141
I0
sg142
I0
ssg56
g32
sg57
I0
sg59
I0
sg60
I0
sg61
I0
sg87
(g149
g564
g32
g32
tp577
sg64
I00
sg65
g36
(g37
g38
Ntp578
Rp579
(dp580
g43
g32
sbsg71
(dp581
g139
I0
sg140
I0
sg141
I0
sg142
I0
ssg73
I00
sg74
(dp582
g139
I0
sg140
I0
sg141
I0
sg142
I0
ssg76
(dp583
g139
I0
sg140
I0
sg141
I0
sg142
I0
ssg78
I0
sg79
I0
sg80
g32
sg82
I0
sg83
I0
sg55
I0
sg86
I0
sg62
g144
sg92
(dp584
g163
I0
sg154
I0
sg155
I0
sg156
I0
sg161
I0
sg153
I0
sg159
I0
sg160
I0
sg157
I0
sg162
I0
sg158
I0
sg164
I0
sg165
I0
sg166
I0
sg167
I0
ssg109
(dp585
sg111
I0
sg112
g32
sg113
I0
sg117
I0
sg114
I0
sg115
F0.0
sg116
I0
sg84
(dp586
g139
I0
sg140
I0
sg141
I0
sg142
I0
ssg118
I0
sg119
(dp587
g153
I6
sg154
I4
sg155
I6
sg156
I10
sg161
I9
sg159
I8
sg158
I9
sg160
I7
sg157
I8
sg162
I11
sg163
I9
sg164
I6
sg165
I9
sg166
I9
sg167
I2
ssg121
I0
sg122
I0
sg123
I0
sg124
I0
sg125
I0
sg126
I0
sg127
I0
sg128
g32
sbsS's11'
p588
(ijoueur
joueur
p589
(dp590
g27
I0
sg28
I0
sg29
I0
sg33
I0
sg35
g36
(g37
g38
Ntp591
Rp592
(dp593
g43
g32
sbsg47
(dp594
g139
I0
sg140
I0
sg141
I0
sg142
I0
ssg53
(dp595
g139
I0
sg140
I0
sg141
I0
sg142
I0
ssg56
g32
sg57
I0
sg59
I0
sg60
I0
sg61
I0
sg87
g577
sg64
I00
sg65
g36
(g37
g38
Ntp596
Rp597
(dp598
g43
g32
sbsg71
(dp599
g139
I0
sg140
I0
sg141
I0
sg142
I0
ssg73
I00
sg74
(dp600
g139
I0
sg140
I0
sg141
I0
sg142
I0
ssg76
(dp601
g139
I0
sg140
I0
sg141
I0
sg142
I0
ssg78
I0
sg79
I0
sg80
g32
sg82
I0
sg83
I0
sg55
I0
sg86
I0
sg62
g144
sg92
(dp602
g163
I0
sg154
I0
sg155
I0
sg156
I0
sg161
I0
sg153
I0
sg159
I0
sg160
I0
sg157
I0
sg162
I0
sg158
I0
sg164
I0
sg165
I0
sg166
I0
sg167
I0
ssg109
(dp603
sg111
I0
sg112
g32
sg113
I0
sg117
I0
sg114
I0
sg115
F0.0
sg116
I0
sg84
(dp604
g139
I0
sg140
I0
sg141
I0
sg142
I0
ssg118
I0
sg119
g587
sg121
I0
sg122
I0
sg123
I0
sg124
I0
sg125
I0
sg126
I0
sg127
I0
sg128
g32
sbssg111
g206
(g210
S'\t\x00\x00\x00'
p605
tp606
Rp607
sg112
g32
sg113
I0
sg117
I0
sg114
I0
sg115
F9.0
sg116
I0
sg84
(dp608
g139
I0
sg140
I0
sg141
I0
sg142
I0
ssg118
I0
sg119
g587
sg121
I0
sg122
I0
sg123
I2
sg124
I0
sg125
I2
sg126
I0
sg127
I0
sg128
S'EN'
p609
sbsS'n11'
p610
(ijoueur
joueur
p611
(dp612
g27
I1
sg28
I0
sg29
I0
sg30
F82.85590838577534
sg31
g32
sg33
I0
sg34
g32
sg35
g36
(g37
g38
Ntp613
Rp614
(dp615
g42
I3
sg43
S'^^^'
p616
sg45
S'rare'
p617
sbsg47
(dp618
g139
I0
sg140
I1
sg141
I0
sg142
I0
ssg53
(dp619
g139
I0
sg140
I0
sg141
I0
sg142
I0
ssg56
g32
sg57
I0
sg58
F82.85590838577534
sg59
I6
sg60
I0
sg61
I0
sg62
g144
sg64
I00
sg65
g614
sg71
(dp620
g139
I0
sg140
I8
sg141
I0
sg142
I0
ssg73
I00
sg74
(dp621
g139
I0
sg140
I0
sg141
I0
sg142
I0
ssg76
(dp622
g139
I0
sg140
I8
sg141
I0
sg142
I0
ssg78
I0
sg79
I0
sg80
S'Zamon'
p623
sg82
I9
sg83
I0
sg55
I22
sg86
I16
sg87
(g149
S'AI'
p624
S'AR'
p625
g32
tp626
sg91
g32
sg92
(dp627
g153
I9
sg154
I4
sg155
I8
sg156
I8
sg157
I6
sg158
I11
sg159
I7
sg160
I10
sg161
I10
sg162
I8
sg163
I9
sg164
I5
sg165
I6
sg166
I8
sg167
I4
ssg109
(dp628
S's12'
p629
(ijoueur
joueur
p630
(dp631
g27
I0
sg28
I0
sg29
I0
sg33
I0
sg35
g36
(g37
g38
Ntp632
Rp633
(dp634
g43
g32
sbsg47
(dp635
g139
I0
sg140
I0
sg141
I0
sg142
I0
ssg53
(dp636
g139
I0
sg140
I0
sg141
I0
sg142
I0
ssg56
g32
sg57
I0
sg59
I0
sg60
I0
sg61
I0
sg87
(g149
g624
g32
g32
tp637
sg64
I00
sg65
g36
(g37
g38
Ntp638
Rp639
(dp640
g43
g32
sbsg71
(dp641
g139
I0
sg140
I0
sg141
I0
sg142
I0
ssg73
I00
sg74
(dp642
g139
I0
sg140
I0
sg141
I0
sg142
I0
ssg76
(dp643
g139
I0
sg140
I0
sg141
I0
sg142
I0
ssg78
I0
sg79
I0
sg80
g32
sg82
I0
sg83
I0
sg55
I0
sg86
I0
sg62
g144
sg92
(dp644
g163
I0
sg154
I0
sg155
I0
sg156
I0
sg161
I0
sg153
I0
sg159
I0
sg160
I0
sg157
I0
sg162
I0
sg158
I0
sg164
I0
sg165
I0
sg166
I0
sg167
I0
ssg109
(dp645
sg111
I0
sg112
g32
sg113
I0
sg117
I0
sg114
I0
sg115
F0.0
sg116
I0
sg84
(dp646
g139
I0
sg140
I0
sg141
I0
sg142
I0
ssg118
I0
sg119
(dp647
g153
I9
sg154
I4
sg155
I8
sg156
I8
sg161
I10
sg159
I7
sg158
I11
sg160
I10
sg157
I6
sg162
I8
sg163
I10
sg164
I6
sg165
I6
sg166
I9
sg167
I4
ssg121
I0
sg122
I0
sg123
I0
sg124
I0
sg125
I0
sg126
I0
sg127
I0
sg128
g32
sbsS's11'
p648
(ijoueur
joueur
p649
(dp650
g27
I0
sg28
I0
sg29
I0
sg33
I0
sg35
g36
(g37
g38
Ntp651
Rp652
(dp653
g43
g32
sbsg47
(dp654
g139
I0
sg140
I0
sg141
I0
sg142
I0
ssg53
(dp655
g139
I0
sg140
I0
sg141
I0
sg142
I0
ssg56
g32
sg57
I0
sg59
I0
sg60
I0
sg61
I0
sg87
g637
sg64
I00
sg65
g36
(g37
g38
Ntp656
Rp657
(dp658
g43
g32
sbsg71
(dp659
g139
I0
sg140
I0
sg141
I0
sg142
I0
ssg73
I00
sg74
(dp660
g139
I0
sg140
I0
sg141
I0
sg142
I0
ssg76
(dp661
g139
I0
sg140
I0
sg141
I0
sg142
I0
ssg78
I0
sg79
I0
sg80
g32
sg82
I0
sg83
I0
sg55
I0
sg86
I0
sg62
g144
sg92
(dp662
g163
I0
sg154
I0
sg155
I0
sg156
I0
sg161
I0
sg153
I0
sg159
I0
sg160
I0
sg157
I0
sg162
I0
sg158
I0
sg164
I0
sg165
I0
sg166
I0
sg167
I0
ssg109
(dp663
sg111
I0
sg112
g32
sg113
I0
sg117
I0
sg114
I0
sg115
F0.0
sg116
I0
sg84
(dp664
g139
I0
sg140
I0
sg141
I0
sg142
I0
ssg118
I0
sg119
g647
sg121
I0
sg122
I0
sg123
I0
sg124
I0
sg125
I0
sg126
I0
sg127
I0
sg128
g32
sbssg111
I9
sg112
g32
sg113
I0
sg117
I0
sg114
I0
sg115
F9.35483870967742
sg116
I0
sg84
(dp665
g139
I0
sg140
I1
sg141
I0
sg142
I0
ssg118
I0
sg119
g647
sg121
I1
sg122
I0
sg123
I0
sg124
I0
sg125
I1
sg126
I6
sg127
I0
sg128
g336
sbsS'n16'
p666
(ijoueur
joueur
p667
(dp668
g27
I0
sg28
I0
sg29
I0
sg30
F27.31354730140024
sg31
g32
sg33
I0
sg34
g32
sg35
g36
(g37
g38
Ntp669
Rp670
(dp671
g42
I2
sg43
g433
sg45
g70
sbsg47
(dp672
g49
I0
sg50
I0
sg51
I0
sg52
I0
ssg53
(dp673
g49
I0
sg50
I0
sg51
I0
sg52
I0
ssg55
I21
sg56
g32
sg57
I0
sg58
F27.31354730140024
sg59
I0
sg60
I0
sg61
I0
sg62
g63
sg64
I00
sg65
g670
sg71
(dp674
g49
I0
sg50
I0
sg51
I3
sg52
I0
ssg73
I00
sg74
(dp675
g49
I0
sg50
I0
sg51
I0
sg52
I0
ssg76
(dp676
g49
I0
sg50
I0
sg51
I3
sg52
I0
ssg78
I0
sg79
I0
sg80
S'Zolen'
p677
sg82
I12
sg83
I0
sg84
(dp678
g49
I0
sg50
I0
sg51
I0
sg52
I0
ssg86
I20
sg87
(g88
g108
g32
g32
tp679
sg91
g32
sg92
(dp680
g94
I10
sg95
I8
sg96
I6
sg97
I10
sg98
I1
sg99
I2
sg100
I7
sg101
I10
sg102
I3
sg103
I7
sg104
I6
sg105
I9
sg106
I2
sg107
I8
sg108
I8
ssg109
(dp681
S's12'
p682
(ijoueur
joueur
p683
(dp684
g27
I0
sg28
I0
sg29
I0
sg33
I0
sg35
g36
(g37
g38
Ntp685
Rp686
(dp687
g43
g32
sbsg47
(dp688
g49
I0
sg50
I0
sg51
I0
sg52
I0
ssg53
(dp689
g49
I0
sg50
I0
sg51
I0
sg52
I0
ssg55
I0
sg56
g32
sg57
I0
sg59
I0
sg60
I0
sg61
I0
sg87
(g88
g108
g32
g32
tp690
sg64
I00
sg65
g36
(g37
g38
Ntp691
Rp692
(dp693
g43
g32
sbsg71
(dp694
g49
I0
sg50
I0
sg51
I0
sg52
I0
ssg73
I00
sg74
(dp695
g49
I0
sg50
I0
sg51
I0
sg52
I0
ssg76
(dp696
g49
I0
sg50
I0
sg51
I0
sg52
I0
ssg78
I0
sg79
I0
sg80
S'Zolen (12)'
p697
sg82
I0
sg83
I0
sg84
(dp698
g49
I0
sg50
I0
sg51
I0
sg52
I0
ssg86
I0
sg62
g63
sg92
(dp699
g104
I0
sg95
I0
sg96
I0
sg97
I0
sg102
I0
sg94
I0
sg99
I0
sg101
I0
sg98
I0
sg103
I0
sg100
I0
sg105
I0
sg106
I0
sg107
I0
sg108
I0
ssg109
(dp700
sg111
I0
sg112
g32
sg113
I0
sg114
I0
sg115
F0.0
sg116
I0
sg117
I0
sg118
I0
sg119
(dp701
g94
I10
sg95
I8
sg96
I6
sg97
I10
sg102
I3
sg100
I7
sg99
I2
sg101
I10
sg98
I1
sg103
I7
sg104
I6
sg105
I9
sg106
I2
sg107
I8
sg108
I8
ssg121
I0
sg122
I0
sg123
I0
sg124
I0
sg125
I0
sg126
I0
sg127
I0
sg128
g32
sbssg111
I2
sg112
g32
sg113
I0
sg114
I0
sg115
F8.551724137931034
sg116
I0
sg117
I0
sg118
I0
sg119
g701
sg121
I0
sg122
I0
sg123
I0
sg124
I0
sg125
I2
sg126
I0
sg127
I0
sg128
g129
sbsS'n17'
p702
(ijoueur
joueur
p703
(dp704
g27
I0
sg28
I0
sg29
I0
sg30
F92.19687158359703
sg31
g32
sg33
I0
sg34
g32
sg35
g36
(g37
g38
Ntp705
Rp706
(dp707
g42
I2
sg43
g433
sg45
g70
sbsg47
(dp708
g49
I0
sg50
I0
sg51
I0
sg52
I0
ssg53
(dp709
g49
I0
sg50
I0
sg51
I0
sg52
I0
ssg55
I21
sg56
g32
sg57
I0
sg58
F92.19687158359703
sg59
I0
sg60
I0
sg61
I0
sg62
g63
sg64
I00
sg65
g36
(g37
g38
Ntp710
Rp711
(dp712
g42
I1
sg43
g376
sg45
g377
sbsg71
(dp713
g49
I0
sg50
I0
sg51
I0
sg52
I10
ssg73
I00
sg74
(dp714
g49
I0
sg50
I0
sg51
I0
sg52
I0
ssg76
(dp715
g49
I0
sg50
I0
sg51
I0
sg52
I10
ssg78
I0
sg79
I0
sg80
S'Riomk'
p716
sg82
I13
sg83
I0
sg84
(dp717
g49
I0
sg50
I0
sg51
I0
sg52
I0
ssg86
I15
sg87
(g88
g89
g32
g32
tp718
sg91
g32
sg92
(dp719
g94
I9
sg95
I10
sg96
I8
sg97
I9
sg98
I4
sg99
I4
sg100
I8
sg101
I10
sg102
I7
sg103
I6
sg104
I5
sg105
I8
sg106
I5
sg107
I5
sg108
I7
ssg109
(dp720
sg111
g206
(g210
S'\n\x00\x00\x00'
p721
tp722
Rp723
sg112
g32
sg113
I0
sg114
I0
sg115
F8.518518518518519
sg116
I0
sg117
I0
sg118
I1
sg119
(dp724
g94
I9
sg95
I10
sg96
I8
sg97
I9
sg102
I7
sg100
I8
sg99
I4
sg101
I10
sg98
I4
sg103
I6
sg104
I6
sg105
I9
sg106
I5
sg107
I6
sg108
I7
ssg121
I0
sg122
I0
sg123
I0
sg124
I0
sg125
I1
sg126
I0
sg127
I1
sg128
g129
sbsS'n14'
p725
(ijoueur
joueur
p726
(dp727
g27
I0
sg28
I0
sg29
I0
sg30
F83.10513527866783
sg31
g32
sg33
I0
sg34
g32
sg35
g36
(g37
g38
Ntp728
Rp729
(dp730
g42
I2
sg43
g556
sg45
g557
sbsg47
(dp731
g139
I0
sg140
I8
sg141
I0
sg142
I0
ssg53
(dp732
g139
I0
sg140
I0
sg141
I1
sg142
I0
ssg56
g32
sg57
I0
sg58
F83.10513527866783
sg59
I0
sg60
I0
sg61
I0
sg62
g144
sg64
I00
sg65
g729
sg71
(dp733
g139
I0
sg140
I0
sg141
I0
sg142
I0
ssg73
I00
sg74
(dp734
g139
I0
sg140
I0
sg141
I1
sg142
I0
ssg76
(dp735
g139
I0
sg140
I0
sg141
I0
sg142
I0
ssg78
I0
sg79
I0
sg80
S'Redles'
p736
sg82
I9
sg83
I0
sg55
I21
sg86
I21
sg87
(g149
S'C2'
p737
S'AI'
p738
S'AR'
p739
tp740
sg91
g32
sg92
(dp741
g153
I7
sg154
I5
sg155
I10
sg156
I10
sg157
I3
sg158
I10
sg159
I6
sg160
I10
sg161
I7
sg162
I9
sg163
I8
sg164
I8
sg165
I7
sg166
I7
sg167
I2
ssg109
(dp742
S's12'
p743
(ijoueur
joueur
p744
(dp745
g27
I0
sg28
I0
sg29
I0
sg33
I0
sg35
g36
(g37
g38
Ntp746
Rp747
(dp748
g43
g32
sbsg47
(dp749
g139
I0
sg140
I0
sg141
I0
sg142
I0
ssg53
(dp750
g139
I0
sg140
I0
sg141
I0
sg142
I0
ssg56
g32
sg57
I0
sg59
I0
sg60
I0
sg61
I0
sg87
(g149
g177
g32
g32
tp751
sg64
I00
sg65
g36
(g37
g38
Ntp752
Rp753
(dp754
g43
g32
sbsg71
(dp755
g139
I0
sg140
I0
sg141
I0
sg142
I0
ssg73
I00
sg74
(dp756
g139
I0
sg140
I0
sg141
I0
sg142
I0
ssg76
(dp757
g139
I0
sg140
I0
sg141
I0
sg142
I0
ssg78
I0
sg79
I0
sg80
g32
sg82
I0
sg83
I0
sg55
I0
sg86
I0
sg62
g144
sg92
(dp758
g163
I0
sg154
I0
sg155
I0
sg156
I0
sg161
I0
sg153
I0
sg159
I0
sg160
I0
sg157
I0
sg162
I0
sg158
I0
sg164
I0
sg165
I0
sg166
I0
sg167
I0
ssg109
(dp759
sg111
I0
sg112
g32
sg113
I0
sg117
I0
sg114
I0
sg115
F0.0
sg116
I0
sg84
(dp760
g139
I0
sg140
I0
sg141
I0
sg142
I0
ssg118
I0
sg119
(dp761
g153
I7
sg154
I5
sg155
I10
sg156
I10
sg161
I7
sg159
I6
sg158
I10
sg160
I10
sg157
I3
sg162
I9
sg163
I8
sg164
I8
sg165
I7
sg166
I7
sg167
I2
ssg121
I0
sg122
I0
sg123
I0
sg124
I0
sg125
I0
sg126
I0
sg127
I0
sg128
g32
sbsS's11'
p762
(ijoueur
joueur
p763
(dp764
g27
I0
sg28
I0
sg29
I0
sg33
I0
sg35
g36
(g37
g38
Ntp765
Rp766
(dp767
g43
g32
sbsg47
(dp768
g139
I0
sg140
I0
sg141
I0
sg142
I0
ssg53
(dp769
g139
I0
sg140
I0
sg141
I0
sg142
I0
ssg56
g32
sg57
I0
sg59
I0
sg60
I0
sg61
I0
sg87
g751
sg64
I00
sg65
g36
(g37
g38
Ntp770
Rp771
(dp772
g43
g32
sbsg71
(dp773
g139
I0
sg140
I0
sg141
I0
sg142
I0
ssg73
I00
sg74
(dp774
g139
I0
sg140
I0
sg141
I0
sg142
I0
ssg76
(dp775
g139
I0
sg140
I0
sg141
I0
sg142
I0
ssg78
I0
sg79
I0
sg80
g32
sg82
I0
sg83
I0
sg55
I0
sg86
I0
sg62
g144
sg92
(dp776
g163
I0
sg154
I0
sg155
I0
sg156
I0
sg161
I0
sg153
I0
sg159
I0
sg160
I0
sg157
I0
sg162
I0
sg158
I0
sg164
I0
sg165
I0
sg166
I0
sg167
I0
ssg109
(dp777
sg111
I0
sg112
g32
sg113
I0
sg117
I0
sg114
I0
sg115
F0.0
sg116
I0
sg84
(dp778
g139
I0
sg140
I0
sg141
I0
sg142
I0
ssg118
I0
sg119
g761
sg121
I0
sg122
I0
sg123
I0
sg124
I0
sg125
I0
sg126
I0
sg127
I0
sg128
g32
sbssg111
I5
sg112
g32
sg113
I0
sg117
I0
sg114
I0
sg115
F8.689655172413794
sg116
I0
sg84
(dp779
g139
I0
sg140
I8
sg141
I0
sg142
I0
ssg118
I0
sg119
g761
sg121
I0
sg122
I0
sg123
I0
sg124
I0
sg125
I2
sg126
I0
sg127
I0
sg128
g336
sbsS'n15'
p780
(ijoueur
joueur
p781
(dp782
g27
I0
sg28
I0
sg29
I1
sg30
F91.63505544655176
sg31
g32
sg33
I0
sg34
g32
sg35
g36
(g37
g38
Ntp783
Rp784
(dp785
g42
I2
sg43
g433
sg45
g70
sbsg47
(dp786
g49
I0
sg50
I0
sg51
I0
sg52
I0
ssg53
(dp787
g49
I0
sg50
I0
sg51
I0
sg52
I0
ssg55
I20
sg56
g32
sg57
I0
sg58
F91.63505544655176
sg59
I1
sg60
I0
sg61
I0
sg62
g63
sg64
I00
sg65
g784
sg71
(dp788
g49
I0
sg50
I0
sg51
I6
sg52
I4
ssg73
I00
sg74
(dp789
g49
I0
sg50
I0
sg51
I0
sg52
I0
ssg76
(dp790
g49
I0
sg50
I0
sg51
I6
sg52
I4
ssg78
I0
sg79
I0
sg80
S'Fredlec'
p791
sg82
I10
sg83
I0
sg84
(dp792
g49
I0
sg50
I0
sg51
I0
sg52
I0
ssg86
I24
sg87
(g88
S'DO'
p793
S'AR'
p794
S'CE'
p795
tp796
sg91
g32
sg92
(dp797
g94
I7
sg95
I3
sg96
I7
sg97
I10
sg98
I9
sg99
I8
sg100
I7
sg101
I8
sg102
I5
sg103
I9
sg104
I7
sg105
I8
sg106
I6
sg107
I10
sg108
I3
ssg109
(dp798
S's12'
p799
(ijoueur
joueur
p800
(dp801
g27
I0
sg28
I0
sg29
I0
sg33
I0
sg35
g36
(g37
g38
Ntp802
Rp803
(dp804
g43
g32
sbsg47
(dp805
g49
I0
sg50
I0
sg51
I0
sg52
I0
ssg53
(dp806
g49
I0
sg50
I0
sg51
I0
sg52
I0
ssg55
I0
sg56
g32
sg57
I0
sg59
I0
sg60
I0
sg61
I0
sg87
(g88
g793
g32
g32
tp807
sg64
I00
sg65
g36
(g37
g38
Ntp808
Rp809
(dp810
g43
g32
sbsg71
(dp811
g49
I0
sg50
I0
sg51
I0
sg52
I0
ssg73
I00
sg74
(dp812
g49
I0
sg50
I0
sg51
I0
sg52
I0
ssg76
(dp813
g49
I0
sg50
I0
sg51
I0
sg52
I0
ssg78
I0
sg79
I0
sg80
g32
sg82
I0
sg83
I0
sg84
(dp814
g49
I0
sg50
I0
sg51
I0
sg52
I0
ssg86
I0
sg62
g63
sg92
(dp815
g104
I0
sg95
I0
sg96
I0
sg97
I0
sg102
I0
sg94
I0
sg99
I0
sg101
I0
sg98
I0
sg103
I0
sg100
I0
sg105
I0
sg106
I0
sg107
I0
sg108
I0
ssg109
(dp816
sg111
I0
sg112
g32
sg113
I0
sg114
I0
sg115
F0.0
sg116
I0
sg117
I0
sg118
I0
sg119
(dp817
g94
I7
sg95
I3
sg96
I7
sg97
I10
sg102
I5
sg100
I7
sg99
I8
sg101
I8
sg98
I9
sg103
I9
sg104
I7
sg105
I8
sg106
I6
sg107
I10
sg108
I3
ssg121
I0
sg122
I0
sg123
I0
sg124
I0
sg125
I0
sg126
I0
sg127
I0
sg128
g32
sbsS's11'
p818
(ijoueur
joueur
p819
(dp820
g27
I0
sg28
I0
sg29
I0
sg33
I0
sg35
g36
(g37
g38
Ntp821
Rp822
(dp823
g43
g32
sbsg47
(dp824
g49
I0
sg50
I0
sg51
I0
sg52
I0
ssg53
(dp825
g49
I0
sg50
I0
sg51
I0
sg52
I0
ssg55
I0
sg56
g32
sg57
I0
sg59
I0
sg60
I0
sg61
I0
sg87
g807
sg64
I00
sg65
g36
(g37
g38
Ntp826
Rp827
(dp828
g43
g32
sbsg71
(dp829
g49
I0
sg50
I0
sg51
I0
sg52
I0
ssg73
I00
sg74
(dp830
g49
I0
sg50
I0
sg51
I0
sg52
I0
ssg76
(dp831
g49
I0
sg50
I0
sg51
I0
sg52
I0
ssg78
I0
sg79
I0
sg80
g32
sg82
I0
sg83
I0
sg84
(dp832
g49
I0
sg50
I0
sg51
I0
sg52
I0
ssg86
I0
sg62
g63
sg92
(dp833
g104
I0
sg95
I0
sg96
I0
sg97
I0
sg102
I0
sg94
I0
sg99
I0
sg101
I0
sg98
I0
sg103
I0
sg100
I0
sg105
I0
sg106
I0
sg107
I0
sg108
I0
ssg109
(dp834
sg111
I0
sg112
g32
sg113
I0
sg114
I0
sg115
F0.0
sg116
I0
sg117
I0
sg118
I0
sg119
g817
sg121
I0
sg122
I0
sg123
I0
sg124
I0
sg125
I0
sg126
I0
sg127
I0
sg128
g32
sbssg111
I4
sg112
g32
sg113
I0
sg114
I0
sg115
F8.606060606060606
sg116
I0
sg117
I0
sg118
I0
sg119
g817
sg121
I0
sg122
I0
sg123
I1
sg124
I0
sg125
I2
sg126
I1
sg127
I0
sg128
g129
sbsS'n18'
p835
(ijoueur
joueur
p836
(dp837
g27
I0
sg28
I0
sg29
I0
sg30
F92.00028142006322
sg31
g32
sg33
I0
sg34
g32
sg35
g36
(g37
g38
Ntp838
Rp839
(dp840
g42
I1
sg43
S'<'
p841
sg45
S'base'
p842
sbsg47
(dp843
g139
I0
sg140
I0
sg141
I0
sg142
I0
ssg53
(dp844
g139
I0
sg140
I0
sg141
I0
sg142
I0
ssg56
g32
sg57
I0
sg58
F92.00028142006322
sg59
I0
sg60
I0
sg61
I0
sg62
g144
sg64
I00
sg65
g839
sg71
(dp845
g139
I0
sg140
I4
sg141
I6
sg142
I0
ssg73
I00
sg74
(dp846
g139
I0
sg140
I0
sg141
I0
sg142
I0
ssg76
(dp847
g139
I0
sg140
I4
sg141
I6
sg142
I0
ssg78
I0
sg79
I0
sg80
S'Ujari'
p848
sg82
I4
sg83
I0
sg55
I12
sg86
I19
sg87
(g149
S'DL'
p849
g32
g32
tp850
sg91
g32
sg92
(dp851
g153
I9
sg154
I8
sg155
I6
sg156
I8
sg157
I11
sg158
I10
sg159
I3
sg160
I9
sg161
I6
sg162
I6
sg163
I5
sg164
I9
sg165
I3
sg166
I6
sg167
I4
ssg109
(dp852
S's12'
p853
(ijoueur
joueur
p854
(dp855
g27
I0
sg28
I0
sg29
I0
sg33
I0
sg35
g36
(g37
g38
Ntp856
Rp857
(dp858
g43
g32
sbsg47
(dp859
g139
I0
sg140
I0
sg141
I0
sg142
I0
ssg53
(dp860
g139
I0
sg140
I0
sg141
I0
sg142
I0
ssg56
g32
sg57
I0
sg59
I0
sg60
I0
sg61
I0
sg87
(g149
g849
g32
g32
tp861
sg64
I00
sg65
g36
(g37
g38
Ntp862
Rp863
(dp864
g43
g32
sbsg71
(dp865
g139
I0
sg140
I0
sg141
I0
sg142
I0
ssg73
I00
sg74
(dp866
g139
I0
sg140
I0
sg141
I0
sg142
I0
ssg76
(dp867
g139
I0
sg140
I0
sg141
I0
sg142
I0
ssg78
I0
sg79
I0
sg80
g32
sg82
I0
sg83
I0
sg55
I0
sg86
I0
sg62
g144
sg92
(dp868
g163
I0
sg154
I0
sg155
I0
sg156
I0
sg161
I0
sg153
I0
sg159
I0
sg160
I0
sg157
I0
sg162
I0
sg158
I0
sg164
I0
sg165
I0
sg166
I0
sg167
I0
ssg109
(dp869
sg111
I0
sg112
g32
sg113
I0
sg117
I0
sg114
I0
sg115
F0.0
sg116
I0
sg84
(dp870
g139
I0
sg140
I0
sg141
I0
sg142
I0
ssg118
I0
sg119
(dp871
g153
I9
sg154
I8
sg155
I6
sg156
I8
sg161
I6
sg159
I3
sg158
I10
sg160
I9
sg157
I11
sg162
I6
sg163
I6
sg164
I10
sg165
I3
sg166
I7
sg167
I4
ssg121
I0
sg122
I0
sg123
I0
sg124
I0
sg125
I0
sg126
I0
sg127
I0
sg128
g32
sbsS's11'
p872
(ijoueur
joueur
p873
(dp874
g27
I0
sg28
I0
sg29
I0
sg33
I0
sg35
g36
(g37
g38
Ntp875
Rp876
(dp877
g43
g32
sbsg47
(dp878
g139
I0
sg140
I0
sg141
I0
sg142
I0
ssg53
(dp879
g139
I0
sg140
I0
sg141
I0
sg142
I0
ssg56
g32
sg57
I0
sg59
I0
sg60
I0
sg61
I0
sg87
g861
sg64
I00
sg65
g36
(g37
g38
Ntp880
Rp881
(dp882
g43
g32
sbsg71
(dp883
g139
I0
sg140
I0
sg141
I0
sg142
I0
ssg73
I00
sg74
(dp884
g139
I0
sg140
I0
sg141
I0
sg142
I0
ssg76
(dp885
g139
I0
sg140
I0
sg141
I0
sg142
I0
ssg78
I0
sg79
I0
sg80
g32
sg82
I0
sg83
I0
sg55
I0
sg86
I0
sg62
g144
sg92
(dp886
g163
I0
sg154
I0
sg155
I0
sg156
I0
sg161
I0
sg153
I0
sg159
I0
sg160
I0
sg157
I0
sg162
I0
sg158
I0
sg164
I0
sg165
I0
sg166
I0
sg167
I0
ssg109
(dp887
sg111
I0
sg112
g32
sg113
I0
sg117
I0
sg114
I0
sg115
F0.0
sg116
I0
sg84
(dp888
g139
I0
sg140
I0
sg141
I0
sg142
I0
ssg118
I0
sg119
g871
sg121
I0
sg122
I0
sg123
I0
sg124
I0
sg125
I0
sg126
I0
sg127
I0
sg128
g32
sbssg111
I11
sg112
g32
sg113
I0
sg117
I0
sg114
I0
sg115
F8.911764705882353
sg116
I0
sg84
(dp889
g139
I0
sg140
I0
sg141
I0
sg142
I0
ssg118
I0
sg119
g871
sg121
I0
sg122
I0
sg123
I0
sg124
I0
sg125
I1
sg126
I0
sg127
I0
sg128
g336
sbsS'n19'
p890
g428
sS'n22'
p891
(ijoueur
joueur
p892
(dp893
g27
I0
sg28
I0
sg29
I0
sg30
F73.24765063826241
sg31
g32
sg33
I0
sg34
g32
sg35
g36
(g37
g38
Ntp894
Rp895
(dp896
g42
I2
sg43
S'^^'
p897
sg45
g557
sbsg47
(dp898
g139
I0
sg140
I0
sg141
I0
sg142
I0
ssg53
(dp899
g139
I0
sg140
I0
sg141
I0
sg142
I0
ssg56
g32
sg57
I0
sg58
F73.24765063826241
sg59
I0
sg60
I0
sg61
I0
sg62
g144
sg64
I00
sg65
g895
sg71
(dp900
g139
I0
sg140
I3
sg141
I5
sg142
I0
ssg73
I00
sg74
(dp901
g139
I0
sg140
I0
sg141
I0
sg142
I0
ssg76
(dp902
g139
I0
sg140
I3
sg141
I5
sg142
I0
ssg78
I0
sg79
I0
sg80
S'Garid'
p903
sg82
I7
sg83
I0
sg55
I19
sg86
I57
sg87
(g149
g624
g32
g32
tp904
sg91
g32
sg92
(dp905
g153
I9
sg154
I5
sg155
I7
sg156
I10
sg157
I4
sg158
I10
sg159
I6
sg160
I9
sg161
I6
sg162
I7
sg163
I9
sg164
I6
sg165
I5
sg166
I9
sg167
I5
ssg109
(dp906
S's12'
p907
(ijoueur
joueur
p908
(dp909
g27
I0
sg28
I0
sg29
I0
sg33
I0
sg35
g36
(g37
g38
Ntp910
Rp911
(dp912
g43
g32
sbsg47
(dp913
g139
I0
sg140
I0
sg141
I0
sg142
I0
ssg53
(dp914
g139
I0
sg140
I0
sg141
I0
sg142
I0
ssg56
g32
sg57
I0
sg59
I0
sg60
I0
sg61
I0
sg87
(g149
g624
g32
g32
tp915
sg64
I00
sg65
g36
(g37
g38
Ntp916
Rp917
(dp918
g43
g32
sbsg71
(dp919
g139
I0
sg140
I0
sg141
I0
sg142
I0
ssg73
I00
sg74
(dp920
g139
I0
sg140
I0
sg141
I0
sg142
I0
ssg76
(dp921
g139
I0
sg140
I0
sg141
I0
sg142
I0
ssg78
I0
sg79
I0
sg80
g32
sg82
I0
sg83
I0
sg55
I0
sg86
I0
sg62
g144
sg92
(dp922
g163
I0
sg154
I0
sg155
I0
sg156
I0
sg161
I0
sg153
I0
sg159
I0
sg160
I0
sg157
I0
sg162
I0
sg158
I0
sg164
I0
sg165
I0
sg166
I0
sg167
I0
ssg109
(dp923
sg111
I0
sg112
g32
sg113
I0
sg117
I0
sg114
I0
sg115
F0.0
sg116
I0
sg84
(dp924
g139
I0
sg140
I0
sg141
I0
sg142
I0
ssg118
I0
sg119
(dp925
g153
I9
sg154
I5
sg155
I7
sg156
I10
sg161
I6
sg159
I6
sg158
I10
sg160
I9
sg157
I4
sg162
I7
sg163
I9
sg164
I6
sg165
I5
sg166
I9
sg167
I5
ssg121
I0
sg122
I0
sg123
I0
sg124
I0
sg125
I0
sg126
I0
sg127
I0
sg128
g32
sbsS's11'
p926
(ijoueur
joueur
p927
(dp928
g27
I0
sg28
I0
sg29
I0
sg33
I0
sg35
g36
(g37
g38
Ntp929
Rp930
(dp931
g43
g32
sbsg47
(dp932
g139
I0
sg140
I0
sg141
I0
sg142
I0
ssg53
(dp933
g139
I0
sg140
I0
sg141
I0
sg142
I0
ssg56
g32
sg57
I0
sg59
I0
sg60
I0
sg61
I0
sg87
g915
sg64
I00
sg65
g36
(g37
g38
Ntp934
Rp935
(dp936
g43
g32
sbsg71
(dp937
g139
I0
sg140
I0
sg141
I0
sg142
I0
ssg73
I00
sg74
(dp938
g139
I0
sg140
I0
sg141
I0
sg142
I0
ssg76
(dp939
g139
I0
sg140
I0
sg141
I0
sg142
I0
ssg78
I0
sg79
I0
sg80
g32
sg82
I0
sg83
I0
sg55
I0
sg86
I0
sg62
g144
sg92
(dp940
g163
I0
sg154
I0
sg155
I0
sg156
I0
sg161
I0
sg153
I0
sg159
I0
sg160
I0
sg157
I0
sg162
I0
sg158
I0
sg164
I0
sg165
I0
sg166
I0
sg167
I0
ssg109
(dp941
sg111
I0
sg112
g32
sg113
I0
sg117
I0
sg114
I0
sg115
F0.0
sg116
I0
sg84
(dp942
g139
I0
sg140
I0
sg141
I0
sg142
I0
ssg118
I0
sg119
g925
sg121
I0
sg122
I0
sg123
I0
sg124
I0
sg125
I0
sg126
I0
sg127
I0
sg128
g32
sbssg111
g206
(g210
S'\x04\x00\x00\x00'
p943
tp944
Rp945
sg112
g32
sg113
I1
sg117
I1
sg114
I0
sg115
F8.806451612903226
sg116
I0
sg84
(dp946
g139
I0
sg140
I0
sg141
I0
sg142
I0
ssg118
I0
sg119
g925
sg121
I0
sg122
I0
sg123
I0
sg124
I0
sg125
I5
sg126
I0
sg127
I0
sg128
g336
sbsS'n21'
p947
(ijoueur
joueur
p948
(dp949
g27
I0
sg28
I0
sg29
I0
sg30
F63.03675721683351
sg31
g32
sg33
I0
sg34
g32
sg35
g36
(g37
g38
Ntp950
Rp951
(dp952
g42
I1
sg43
S'^'
p953
sg45
g377
sbsg47
(dp954
g49
I0
sg50
I0
sg51
I2
sg52
I1
ssg53
(dp955
g49
I0
sg50
I0
sg51
I1
sg52
I0
ssg55
I11
sg56
g32
sg57
I0
sg58
F63.03675721683351
sg59
I0
sg60
I0
sg61
I0
sg62
g63
sg64
I00
sg65
g951
sg71
(dp956
g49
I0
sg50
I0
sg51
I2
sg52
I1
ssg73
I00
sg74
(dp957
g49
I0
sg50
I0
sg51
I1
sg52
I0
ssg76
(dp958
g49
I0
sg50
I0
sg51
I2
sg52
I1
ssg78
I0
sg79
I0
sg80
S'Fugid'
p959
sg82
I4
sg83
I0
sg84
(dp960
g49
I0
sg50
I0
sg51
I2
sg52
I1
ssg86
I10
sg87
(g88
S'AR'
p961
S'AI'
p962
S'CE'
p963
tp964
sg91
g32
sg92
(dp965
g94
I7
sg95
I5
sg96
I9
sg97
I7
sg98
I8
sg99
I7
sg100
I11
sg101
I9
sg102
I5
sg103
I6
sg104
I9
sg105
I9
sg106
I7
sg107
I7
sg108
I4
ssg109
(dp966
S's12'
p967
(ijoueur
joueur
p968
(dp969
g27
I0
sg28
I0
sg29
I0
sg33
I0
sg35
g36
(g37
g38
Ntp970
Rp971
(dp972
g43
g32
sbsg47
(dp973
g49
I0
sg50
I0
sg51
I0
sg52
I0
ssg53
(dp974
g49
I0
sg50
I0
sg51
I0
sg52
I0
ssg55
I0
sg56
g32
sg57
I0
sg59
I0
sg60
I0
sg61
I0
sg87
(g88
g961
g32
g32
tp975
sg64
I00
sg65
g36
(g37
g38
Ntp976
Rp977
(dp978
g43
g32
sbsg71
(dp979
g49
I0
sg50
I0
sg51
I0
sg52
I0
ssg73
I00
sg74
(dp980
g49
I0
sg50
I0
sg51
I0
sg52
I0
ssg76
(dp981
g49
I0
sg50
I0
sg51
I0
sg52
I0
ssg78
I0
sg79
I0
sg80
g32
sg82
I0
sg83
I0
sg84
(dp982
g49
I0
sg50
I0
sg51
I0
sg52
I0
ssg86
I0
sg62
g63
sg92
(dp983
g104
I0
sg95
I0
sg96
I0
sg97
I0
sg102
I0
sg94
I0
sg99
I0
sg101
I0
sg98
I0
sg103
I0
sg100
I0
sg105
I0
sg106
I0
sg107
I0
sg108
I0
ssg109
(dp984
sg111
I0
sg112
g32
sg113
I0
sg114
I0
sg115
F0.0
sg116
I0
sg117
I0
sg118
I0
sg119
(dp985
g94
I7
sg95
I5
sg96
I9
sg97
I7
sg102
I5
sg100
I11
sg99
I7
sg101
I9
sg98
I8
sg103
I6
sg104
I9
sg105
I9
sg106
I7
sg107
I7
sg108
I4
ssg121
I0
sg122
I0
sg123
I0
sg124
I0
sg125
I0
sg126
I0
sg127
I0
sg128
g32
sbsS's11'
p986
(ijoueur
joueur
p987
(dp988
g27
I0
sg28
I0
sg29
I0
sg33
I0
sg35
g36
(g37
g38
Ntp989
Rp990
(dp991
g43
g32
sbsg47
(dp992
g49
I0
sg50
I0
sg51
I0
sg52
I0
ssg53
(dp993
g49
I0
sg50
I0
sg51
I0
sg52
I0
ssg55
I0
sg56
g32
sg57
I0
sg59
I0
sg60
I0
sg61
I0
sg87
g975
sg64
I00
sg65
g36
(g37
g38
Ntp994
Rp995
(dp996
g43
g32
sbsg71
(dp997
g49
I0
sg50
I0
sg51
I0
sg52
I0
ssg73
I00
sg74
(dp998
g49
I0
sg50
I0
sg51
I0
sg52
I0
ssg76
(dp999
g49
I0
sg50
I0
sg51
I0
sg52
I0
ssg78
I0
sg79
I0
sg80
g32
sg82
I0
sg83
I0
sg84
(dp1000
g49
I0
sg50
I0
sg51
I0
sg52
I0
ssg86
I0
sg62
g63
sg92
(dp1001
g104
I0
sg95
I0
sg96
I0
sg97
I0
sg102
I0
sg94
I0
sg99
I0
sg101
I0
sg98
I0
sg103
I0
sg100
I0
sg105
I0
sg106
I0
sg107
I0
sg108
I0
ssg109
(dp1002
sg111
I0
sg112
g32
sg113
I0
sg114
I0
sg115
F0.0
sg116
I0
sg117
I0
sg118
I0
sg119
g985
sg121
I0
sg122
I0
sg123
I0
sg124
I0
sg125
I0
sg126
I0
sg127
I0
sg128
g32
sbssg111
I6
sg112
g32
sg113
I0
sg114
I0
sg115
F8.181818181818182
sg116
I0
sg117
I0
sg118
I0
sg119
g985
sg121
I0
sg122
I0
sg123
I0
sg124
I0
sg125
I1
sg126
I0
sg127
I0
sg128
g129
sbsS'n20'
p1003
(ijoueur
joueur
p1004
(dp1005
g27
I0
sg28
I0
sg29
I0
sg30
F36.57087741814773
sg31
g32
sg33
I0
sg34
g32
sg35
g36
(g37
g38
Ntp1006
Rp1007
(dp1008
g42
I5
sg43
g44
sg45
g46
sbsg47
(dp1009
g49
I0
sg50
I0
sg51
I0
sg52
I0
ssg53
(dp1010
g49
I0
sg50
I0
sg51
I0
sg52
I0
ssg55
I20
sg56
g32
sg57
I0
sg58
F36.57087741814773
sg59
I0
sg60
I0
sg61
I0
sg62
g63
sg64
I00
sg65
g36
(g37
g38
Ntp1011
Rp1012
(dp1013
g42
I2
sg43
g69
sg45
g70
sbsg71
(dp1014
g49
I0
sg50
I0
sg51
I2
sg52
I2
ssg73
I00
sg74
(dp1015
g49
I0
sg50
I0
sg51
I0
sg52
I0
ssg76
(dp1016
g49
I0
sg50
I0
sg51
I2
sg52
I2
ssg78
I0
sg79
I0
sg80
S'Partoc'
p1017
sg82
I12
sg83
I0
sg84
(dp1018
g49
I0
sg50
I0
sg51
I0
sg52
I0
ssg86
I52
sg87
(g88
S'DM'
p1019
g32
g32
tp1020
sg91
g32
sg92
(dp1021
g94
I6
sg95
I5
sg96
I6
sg97
I11
sg98
I8
sg99
I7
sg100
I9
sg101
I7
sg102
I6
sg103
I7
sg104
I7
sg105
I7
sg106
I6
sg107
I8
sg108
I6
ssg109
(dp1022
S's12'
p1023
(ijoueur
joueur
p1024
(dp1025
g27
I0
sg28
I0
sg29
I0
sg33
I0
sg35
g36
(g37
g38
Ntp1026
Rp1027
(dp1028
g43
g32
sbsg47
(dp1029
g49
I0
sg50
I0
sg51
I0
sg52
I0
ssg53
(dp1030
g49
I0
sg50
I0
sg51
I0
sg52
I0
ssg55
I0
sg56
g32
sg57
I0
sg59
I0
sg60
I0
sg61
I0
sg87
(g88
g1019
g32
g32
tp1031
sg64
I00
sg65
g36
(g37
g38
Ntp1032
Rp1033
(dp1034
g43
g32
sbsg71
(dp1035
g49
I0
sg50
I0
sg51
I0
sg52
I0
ssg73
I00
sg74
(dp1036
g49
I0
sg50
I0
sg51
I0
sg52
I0
ssg76
(dp1037
g49
I0
sg50
I0
sg51
I0
sg52
I0
ssg78
I0
sg79
I0
sg80
S'Partoc (12)'
p1038
sg82
I0
sg83
I0
sg84
(dp1039
g49
I0
sg50
I0
sg51
I0
sg52
I0
ssg86
I0
sg62
g63
sg92
(dp1040
g104
I0
sg95
I0
sg96
I0
sg97
I0
sg102
I0
sg94
I0
sg99
I0
sg101
I0
sg98
I0
sg103
I0
sg100
I0
sg105
I0
sg106
I0
sg107
I0
sg108
I0
ssg109
(dp1041
sg111
I0
sg112
g32
sg113
I0
sg114
I0
sg115
F0.0
sg116
I0
sg117
I0
sg118
I0
sg119
(dp1042
g94
I6
sg95
I5
sg96
I6
sg97
I11
sg102
I6
sg100
I9
sg99
I7
sg101
I7
sg98
I8
sg103
I7
sg104
I7
sg105
I7
sg106
I6
sg107
I8
sg108
I6
ssg121
I0
sg122
I0
sg123
I0
sg124
I0
sg125
I0
sg126
I0
sg127
I0
sg128
g32
sbssg111
I6
sg112
g32
sg113
I0
sg114
I0
sg115
F7.9655172413793105
sg116
I0
sg117
I0
sg118
I0
sg119
g1042
sg121
I0
sg122
I0
sg123
I0
sg124
I0
sg125
I5
sg126
I0
sg127
I0
sg128
g129
sbsS'n8'
p1043
(ijoueur
joueur
p1044
(dp1045
g27
I0
sg28
I0
sg29
I0
sg30
F81.83467576052375
sg31
g32
sg33
I0
sg34
g32
sg35
g36
(g37
g38
Ntp1046
Rp1047
(dp1048
g42
I2
sg43
g556
sg45
g557
sbsg47
(dp1049
g139
I0
sg140
I0
sg141
I0
sg142
I0
ssg53
(dp1050
g139
I0
sg140
I0
sg141
I0
sg142
I0
ssg56
g32
sg57
I0
sg58
F81.83467576052375
sg59
I1
sg60
I0
sg61
I0
sg62
g144
sg64
I00
sg65
g1047
sg71
(dp1051
g139
I0
sg140
I8
sg141
I1
sg142
I0
ssg73
I00
sg74
(dp1052
g139
I0
sg140
I0
sg141
I0
sg142
I0
ssg76
(dp1053
g139
I0
sg140
I8
sg141
I1
sg142
I0
ssg78
I0
sg79
I0
sg80
S'Humdal'
p1054
sg82
I8
sg83
I0
sg55
I21
sg86
I25
sg87
(g149
S'N8'
p1055
g32
g32
tp1056
sg91
g32
sg92
(dp1057
g153
I6
sg154
I7
sg155
I6
sg156
I12
sg157
I7
sg158
I7
sg159
I4
sg160
I7
sg161
I4
sg162
I8
sg163
I8
sg164
I8
sg165
I4
sg166
I8
sg167
I2
ssg109
(dp1058
S's12'
p1059
(ijoueur
joueur
p1060
(dp1061
g27
I0
sg28
I0
sg29
I0
sg33
I0
sg35
g36
(g37
g38
Ntp1062
Rp1063
(dp1064
g43
g32
sbsg47
(dp1065
g139
I0
sg140
I0
sg141
I0
sg142
I0
ssg53
(dp1066
g139
I0
sg140
I0
sg141
I0
sg142
I0
ssg56
g32
sg57
I0
sg59
I0
sg60
I0
sg61
I0
sg87
(g149
g1055
g32
g32
tp1067
sg64
I00
sg65
g36
(g37
g38
Ntp1068
Rp1069
(dp1070
g43
g32
sbsg71
(dp1071
g139
I0
sg140
I0
sg141
I0
sg142
I0
ssg73
I00
sg74
(dp1072
g139
I0
sg140
I0
sg141
I0
sg142
I0
ssg76
(dp1073
g139
I0
sg140
I0
sg141
I0
sg142
I0
ssg78
I0
sg79
I0
sg80
g32
sg82
I0
sg83
I0
sg55
I0
sg86
I0
sg62
g144
sg92
(dp1074
g163
I0
sg154
I0
sg155
I0
sg156
I0
sg161
I0
sg153
I0
sg159
I0
sg160
I0
sg157
I0
sg162
I0
sg158
I0
sg164
I0
sg165
I0
sg166
I0
sg167
I0
ssg109
(dp1075
sg111
I0
sg112
g32
sg113
I0
sg117
I0
sg114
I0
sg115
F0.0
sg116
I0
sg84
(dp1076
g139
I0
sg140
I0
sg141
I0
sg142
I0
ssg118
I0
sg119
(dp1077
g153
I6
sg154
I7
sg155
I6
sg156
I12
sg161
I4
sg159
I4
sg158
I7
sg160
I7
sg157
I7
sg162
I8
sg163
I8
sg164
I8
sg165
I4
sg166
I8
sg167
I2
ssg121
I0
sg122
I0
sg123
I0
sg124
I0
sg125
I0
sg126
I0
sg127
I0
sg128
g32
sbsS's11'
p1078
(ijoueur
joueur
p1079
(dp1080
g27
I0
sg28
I0
sg29
I0
sg33
I0
sg35
g36
(g37
g38
Ntp1081
Rp1082
(dp1083
g43
g32
sbsg47
(dp1084
g139
I0
sg140
I0
sg141
I0
sg142
I0
ssg53
(dp1085
g139
I0
sg140
I0
sg141
I0
sg142
I0
ssg56
g32
sg57
I0
sg59
I0
sg60
I0
sg61
I0
sg87
g1067
sg64
I00
sg65
g36
(g37
g38
Ntp1086
Rp1087
(dp1088
g43
g32
sbsg71
(dp1089
g139
I0
sg140
I0
sg141
I0
sg142
I0
ssg73
I00
sg74
(dp1090
g139
I0
sg140
I0
sg141
I0
sg142
I0
ssg76
(dp1091
g139
I0
sg140
I0
sg141
I0
sg142
I0
ssg78
I0
sg79
I0
sg80
g32
sg82
I0
sg83
I0
sg55
I0
sg86
I0
sg62
g144
sg92
(dp1092
g163
I0
sg154
I0
sg155
I0
sg156
I0
sg161
I0
sg153
I0
sg159
I0
sg160
I0
sg157
I0
sg162
I0
sg158
I0
sg164
I0
sg165
I0
sg166
I0
sg167
I0
ssg109
(dp1093
sg111
I0
sg112
g32
sg113
I0
sg117
I0
sg114
I0
sg115
F0.0
sg116
I0
sg84
(dp1094
g139
I0
sg140
I0
sg141
I0
sg142
I0
ssg118
I0
sg119
g1077
sg121
I0
sg122
I0
sg123
I0
sg124
I0
sg125
I0
sg126
I0
sg127
I0
sg128
g32
sbssg111
I3
sg112
g32
sg113
I0
sg117
I0
sg114
I0
sg115
F8.241379310344827
sg116
I0
sg84
(dp1095
g139
I0
sg140
I0
sg141
I0
sg142
I0
ssg118
I0
sg119
g1077
sg121
I0
sg122
I0
sg123
I0
sg124
I0
sg125
I2
sg126
I1
sg127
I0
sg128
g336
sbsS'n9'
p1096
g280
sS'n1'
p1097
(ijoueur
joueur
p1098
(dp1099
g27
I0
sg28
I0
sg29
I0
sg30
F45.06717876019168
sg31
g32
sg33
I0
sg34
g32
sg35
g36
(g37
g38
Ntp1100
Rp1101
(dp1102
g42
I2
sg43
g69
sg45
g70
sbsg47
(dp1103
g49
I0
sg50
I0
sg51
I0
sg52
I0
ssg53
(dp1104
g49
I0
sg50
I0
sg51
I0
sg52
I0
ssg55
I19
sg56
g32
sg57
I0
sg58
F45.06717876019168
sg59
I0
sg60
I0
sg61
I0
sg62
g63
sg64
I00
sg65
g36
(g37
g38
Ntp1105
Rp1106
(dp1107
g42
I1
sg43
g953
sg45
g377
sbsg71
(dp1108
g49
I0
sg50
I0
sg51
I4
sg52
I1
ssg73
I00
sg74
(dp1109
g49
I0
sg50
I0
sg51
I0
sg52
I0
ssg76
(dp1110
g49
I0
sg50
I0
sg51
I4
sg52
I1
ssg78
I0
sg79
I0
sg80
S'Resfayr'
p1111
sg82
I12
sg83
I0
sg84
(dp1112
g49
I0
sg50
I0
sg51
I0
sg52
I0
ssg86
I16
sg87
(g88
g89
g32
g32
tp1113
sg91
g32
sg92
(dp1114
g94
I8
sg95
I7
sg96
I7
sg97
I9
sg98
I1
sg99
I3
sg100
I8
sg101
I9
sg102
I6
sg103
I6
sg104
I6
sg105
I7
sg106
I2
sg107
I10
sg108
I8
ssg109
(dp1115
S's12'
p1116
(ijoueur
joueur
p1117
(dp1118
g27
I0
sg28
I0
sg29
I0
sg33
I0
sg35
g36
(g37
g38
Ntp1119
Rp1120
(dp1121
g43
g32
sbsg47
(dp1122
g49
I0
sg50
I0
sg51
I0
sg52
I0
ssg53
(dp1123
g49
I0
sg50
I0
sg51
I0
sg52
I0
ssg55
I0
sg56
g32
sg57
I0
sg59
I0
sg60
I0
sg61
I0
sg87
(g88
g89
g32
g32
tp1124
sg64
I00
sg65
g36
(g37
g38
Ntp1125
Rp1126
(dp1127
g43
g32
sbsg71
(dp1128
g49
I0
sg50
I0
sg51
I0
sg52
I0
ssg73
I00
sg74
(dp1129
g49
I0
sg50
I0
sg51
I0
sg52
I0
ssg76
(dp1130
g49
I0
sg50
I0
sg51
I0
sg52
I0
ssg78
I0
sg79
I0
sg80
S'Resfayr (12)'
p1131
sg82
I0
sg83
I0
sg84
(dp1132
g49
I0
sg50
I0
sg51
I0
sg52
I0
ssg86
I0
sg62
g63
sg92
(dp1133
g104
I0
sg95
I0
sg96
I0
sg97
I0
sg102
I0
sg94
I0
sg99
I0
sg101
I0
sg98
I0
sg103
I0
sg100
I0
sg105
I0
sg106
I0
sg107
I0
sg108
I0
ssg109
(dp1134
sg111
I0
sg112
g32
sg113
I0
sg114
I0
sg115
F0.0
sg116
I0
sg117
I0
sg118
I0
sg119
(dp1135
g94
I8
sg95
I7
sg96
I7
sg97
I9
sg102
I6
sg100
I8
sg99
I3
sg101
I9
sg98
I1
sg103
I6
sg104
I6
sg105
I7
sg106
I2
sg107
I10
sg108
I8
ssg121
I0
sg122
I0
sg123
I0
sg124
I0
sg125
I0
sg126
I0
sg127
I0
sg128
g32
sbssg111
I2
sg112
g32
sg113
I0
sg114
I0
sg115
F7.962962962962963
sg116
I0
sg117
I0
sg118
I0
sg119
g1135
sg121
I0
sg122
I0
sg123
I0
sg124
I0
sg125
I1
sg126
I0
sg127
I0
sg128
g129
sbsS'n2'
p1136
(ijoueur
joueur
p1137
(dp1138
g27
I0
sg28
I0
sg29
I0
sg30
F91.63505544655176
sg31
g32
sg33
I0
sg34
g32
sg35
g36
(g37
g38
Ntp1139
Rp1140
(dp1141
g42
I4
sg43
g225
sg45
g226
sbsg47
(dp1142
g49
I0
sg50
I0
sg51
I0
sg52
I0
ssg53
(dp1143
g49
I0
sg50
I0
sg51
I0
sg52
I0
ssg55
I22
sg56
g32
sg57
I0
sg58
F91.63505544655176
sg59
I0
sg60
I0
sg61
I0
sg62
g63
sg64
I00
sg65
g1140
sg71
(dp1144
g49
I0
sg50
I0
sg51
I8
sg52
I2
ssg73
I00
sg74
(dp1145
g49
I0
sg50
I0
sg51
I0
sg52
I0
ssg76
(dp1146
g49
I0
sg50
I0
sg51
I8
sg52
I2
ssg78
I0
sg79
I0
sg80
S'Lelk'
p1147
sg82
I10
sg83
I0
sg84
(dp1148
g49
I0
sg50
I0
sg51
I0
sg52
I0
ssg86
I195
sg87
(g88
g108
g32
g32
tp1149
sg91
g32
sg92
(dp1150
g94
I10
sg95
I9
sg96
I7
sg97
I9
sg98
I5
sg99
I4
sg100
I7
sg101
I10
sg102
I7
sg103
I9
sg104
I9
sg105
I8
sg106
I7
sg107
I10
sg108
I9
ssg109
(dp1151
S's12'
p1152
(ijoueur
joueur
p1153
(dp1154
g27
I0
sg28
I0
sg29
I0
sg33
I0
sg35
g36
(g37
g38
Ntp1155
Rp1156
(dp1157
g43
g32
sbsg47
(dp1158
g49
I0
sg50
I0
sg51
I0
sg52
I0
ssg53
(dp1159
g49
I0
sg50
I0
sg51
I0
sg52
I0
ssg55
I0
sg56
g32
sg57
I0
sg59
I0
sg60
I0
sg61
I0
sg87
(g88
g108
g32
g32
tp1160
sg64
I00
sg65
g36
(g37
g38
Ntp1161
Rp1162
(dp1163
g43
g32
sbsg71
(dp1164
g49
I0
sg50
I0
sg51
I0
sg52
I0
ssg73
I00
sg74
(dp1165
g49
I0
sg50
I0
sg51
I0
sg52
I0
ssg76
(dp1166
g49
I0
sg50
I0
sg51
I0
sg52
I0
ssg78
I0
sg79
I0
sg80
S'Lelk (12)'
p1167
sg82
I0
sg83
I0
sg84
(dp1168
g49
I0
sg50
I0
sg51
I0
sg52
I0
ssg86
I0
sg62
g63
sg92
(dp1169
g104
I0
sg95
I0
sg96
I0
sg97
I0
sg102
I0
sg94
I0
sg99
I0
sg101
I0
sg98
I0
sg103
I0
sg100
I0
sg105
I0
sg106
I0
sg107
I0
sg108
I0
ssg109
(dp1170
sg111
I0
sg112
g32
sg113
I0
sg114
I0
sg115
F0.0
sg116
I0
sg117
I0
sg118
I0
sg119
(dp1171
g94
I10
sg95
I9
sg96
I7
sg97
I9
sg102
I7
sg100
I7
sg99
I4
sg101
I10
sg98
I5
sg103
I9
sg104
I9
sg105
I8
sg106
I7
sg107
I10
sg108
I9
ssg121
I0
sg122
I0
sg123
I0
sg124
I0
sg125
I0
sg126
I0
sg127
I0
sg128
g32
sbsS's11'
p1172
(ijoueur
joueur
p1173
(dp1174
g27
I0
sg28
I0
sg29
I0
sg33
I0
sg35
g36
(g37
g38
Ntp1175
Rp1176
(dp1177
g43
g32
sbsg47
(dp1178
g49
I0
sg50
I0
sg51
I0
sg52
I0
ssg53
(dp1179
g49
I0
sg50
I0
sg51
I0
sg52
I0
ssg55
I0
sg56
g32
sg57
I0
sg59
I0
sg60
I0
sg61
I0
sg87
g1160
sg64
I00
sg65
g36
(g37
g38
Ntp1180
Rp1181
(dp1182
g43
g32
sbsg71
(dp1183
g49
I0
sg50
I0
sg51
I0
sg52
I0
ssg73
I00
sg74
(dp1184
g49
I0
sg50
I0
sg51
I0
sg52
I0
ssg76
(dp1185
g49
I0
sg50
I0
sg51
I0
sg52
I0
ssg78
I0
sg79
I0
sg80
S'Lelk (11)'
p1186
sg82
I0
sg83
I0
sg84
(dp1187
g49
I0
sg50
I0
sg51
I0
sg52
I0
ssg86
I0
sg62
g63
sg92
(dp1188
g104
I0
sg95
I0
sg96
I0
sg97
I0
sg102
I0
sg94
I0
sg99
I0
sg101
I0
sg98
I0
sg103
I0
sg100
I0
sg105
I0
sg106
I0
sg107
I0
sg108
I0
ssg109
(dp1189
sg111
I0
sg112
g32
sg113
I0
sg114
I0
sg115
F0.0
sg116
I0
sg117
I0
sg118
I0
sg119
g1171
sg121
I0
sg122
I0
sg123
I0
sg124
I0
sg125
I0
sg126
I0
sg127
I0
sg128
g32
sbssg111
I3
sg112
g32
sg113
I0
sg114
I0
sg115
F9.0
sg116
I0
sg117
I0
sg118
I0
sg119
g1171
sg121
I0
sg122
I0
sg123
I0
sg124
I0
sg125
I19
sg126
I0
sg127
I0
sg128
g129
sbsS'n3'
p1190
g25
sS'n4'
p1191
(ijoueur
joueur
p1192
(dp1193
g27
I0
sg28
I0
sg29
I0
sg30
F82.19990173403521
sg31
g32
sg33
I0
sg34
g32
sg35
g36
(g37
g38
Ntp1194
Rp1195
(dp1196
g42
I4
sg43
g136
sg45
g137
sbsg47
(dp1197
g139
I0
sg140
I0
sg141
I0
sg142
I0
ssg53
(dp1198
g139
I0
sg140
I0
sg141
I0
sg142
I0
ssg56
g32
sg57
I0
sg58
F82.19990173403521
sg59
I0
sg60
I0
sg61
I0
sg62
g144
sg64
I00
sg65
g1195
sg71
(dp1199
g139
I0
sg140
I8
sg141
I1
sg142
I0
ssg73
I00
sg74
(dp1200
g139
I0
sg140
I0
sg141
I0
sg142
I0
ssg76
(dp1201
g139
I0
sg140
I8
sg141
I1
sg142
I0
ssg78
I0
sg79
I0
sg80
S'Christoe'
p1202
sg82
I10
sg83
I0
sg55
I23
sg86
I110
sg87
(g149
g849
g32
g32
tp1203
sg91
g32
sg92
(dp1204
g153
I9
sg154
I8
sg155
I7
sg156
I8
sg157
I9
sg158
I7
sg159
I2
sg160
I9
sg161
I6
sg162
I9
sg163
I8
sg164
I10
sg165
I4
sg166
I11
sg167
I5
ssg109
(dp1205
S's12'
p1206
(ijoueur
joueur
p1207
(dp1208
g27
I0
sg28
I0
sg29
I0
sg33
I0
sg35
g36
(g37
g38
Ntp1209
Rp1210
(dp1211
g43
g32
sbsg47
(dp1212
g139
I0
sg140
I0
sg141
I0
sg142
I0
ssg53
(dp1213
g139
I0
sg140
I0
sg141
I0
sg142
I0
ssg56
g32
sg57
I0
sg59
I0
sg60
I0
sg61
I0
sg87
(g149
g849
g32
g32
tp1214
sg64
I00
sg65
g36
(g37
g38
Ntp1215
Rp1216
(dp1217
g43
g32
sbsg71
(dp1218
g139
I0
sg140
I0
sg141
I0
sg142
I0
ssg73
I00
sg74
(dp1219
g139
I0
sg140
I0
sg141
I0
sg142
I0
ssg76
(dp1220
g139
I0
sg140
I0
sg141
I0
sg142
I0
ssg78
I0
sg79
I0
sg80
g32
sg82
I0
sg83
I0
sg55
I0
sg86
I0
sg62
g144
sg92
(dp1221
g163
I0
sg154
I0
sg155
I0
sg156
I0
sg161
I0
sg153
I0
sg159
I0
sg160
I0
sg157
I0
sg162
I0
sg158
I0
sg164
I0
sg165
I0
sg166
I0
sg167
I0
ssg109
(dp1222
sg111
I0
sg112
g32
sg113
I0
sg117
I0
sg114
I0
sg115
F0.0
sg116
I0
sg84
(dp1223
g139
I0
sg140
I0
sg141
I0
sg142
I0
ssg118
I0
sg119
(dp1224
g153
I9
sg154
I8
sg155
I7
sg156
I8
sg161
I6
sg159
I2
sg158
I7
sg160
I9
sg157
I9
sg162
I9
sg163
I8
sg164
I10
sg165
I4
sg166
I11
sg167
I5
ssg121
I0
sg122
I0
sg123
I0
sg124
I0
sg125
I0
sg126
I0
sg127
I0
sg128
g32
sbsS's11'
p1225
(ijoueur
joueur
p1226
(dp1227
g27
I0
sg28
I0
sg29
I0
sg33
I0
sg35
g36
(g37
g38
Ntp1228
Rp1229
(dp1230
g43
g32
sbsg47
(dp1231
g139
I0
sg140
I0
sg141
I0
sg142
I0
ssg53
(dp1232
g139
I0
sg140
I0
sg141
I0
sg142
I0
ssg56
g32
sg57
I0
sg59
I0
sg60
I0
sg61
I0
sg87
g1214
sg64
I00
sg65
g36
(g37
g38
Ntp1233
Rp1234
(dp1235
g43
g32
sbsg71
(dp1236
g139
I0
sg140
I0
sg141
I0
sg142
I0
ssg73
I00
sg74
(dp1237
g139
I0
sg140
I0
sg141
I0
sg142
I0
ssg76
(dp1238
g139
I0
sg140
I0
sg141
I0
sg142
I0
ssg78
I0
sg79
I0
sg80
g32
sg82
I0
sg83
I0
sg55
I0
sg86
I0
sg62
g144
sg92
(dp1239
g163
I0
sg154
I0
sg155
I0
sg156
I0
sg161
I0
sg153
I0
sg159
I0
sg160
I0
sg157
I0
sg162
I0
sg158
I0
sg164
I0
sg165
I0
sg166
I0
sg167
I0
ssg109
(dp1240
sg111
I0
sg112
g32
sg113
I0
sg117
I0
sg114
I0
sg115
F0.0
sg116
I0
sg84
(dp1241
g139
I0
sg140
I0
sg141
I0
sg142
I0
ssg118
I0
sg119
g1224
sg121
I0
sg122
I0
sg123
I0
sg124
I0
sg125
I0
sg126
I0
sg127
I0
sg128
g32
sbssg111
g206
(g210
S'\x07\x00\x00\x00'
p1242
tp1243
Rp1244
sg112
g32
sg113
I0
sg117
I0
sg114
I0
sg115
F9.11111111111111
sg116
I0
sg84
(dp1245
g139
I0
sg140
I0
sg141
I0
sg142
I0
ssg118
I0
sg119
g1224
sg121
I0
sg122
I0
sg123
I0
sg124
I0
sg125
I11
sg126
I0
sg127
I0
sg128
g336
sbsS'n5'
p1246
g343
sS'n6'
p1247
(ijoueur
joueur
p1248
(dp1249
g27
I0
sg28
I0
sg29
I0
sg30
F83.10513527866783
sg31
g32
sg33
I0
sg34
g32
sg35
g36
(g37
g38
Ntp1250
Rp1251
(dp1252
g42
I1
sg43
g953
sg45
g377
sbsg47
(dp1253
g49
I0
sg50
I0
sg51
I2
sg52
I0
ssg53
(dp1254
g49
I0
sg50
I0
sg51
I0
sg52
I0
ssg55
I26
sg56
g32
sg57
I0
sg58
F83.10513527866783
sg59
I0
sg60
I0
sg61
I0
sg62
g63
sg64
I00
sg65
g1251
sg71
(dp1255
g49
I0
sg50
I0
sg51
I4
sg52
I3
ssg73
I00
sg74
(dp1256
g49
I0
sg50
I0
sg51
I0
sg52
I0
ssg76
(dp1257
g49
I0
sg50
I0
sg51
I4
sg52
I3
ssg78
I0
sg79
I0
sg80
S'Tolo'
p1258
sg82
I13
sg83
I0
sg84
(dp1259
g49
I0
sg50
I0
sg51
I2
sg52
I0
ssg86
I14
sg87
(g88
S'TL'
p1260
S'DL'
p1261
g32
tp1262
sg91
g32
sg92
(dp1263
g94
I7
sg95
I9
sg96
I6
sg97
I9
sg98
I4
sg99
I4
sg100
I7
sg101
I7
sg102
I7
sg103
I6
sg104
I8
sg105
I7
sg106
I4
sg107
I10
sg108
I4
ssg109
(dp1264
sg111
I3
sg112
g32
sg113
I0
sg114
I0
sg115
F8.03225806451613
sg116
I0
sg117
I0
sg118
I0
sg119
(dp1265
g94
I7
sg95
I9
sg96
I6
sg97
I9
sg102
I7
sg100
I7
sg99
I4
sg101
I7
sg98
I4
sg103
I6
sg104
I8
sg105
I7
sg106
I4
sg107
I10
sg108
I4
ssg121
I0
sg122
I0
sg123
I0
sg124
I0
sg125
I1
sg126
I0
sg127
I0
sg128
S'O'
p1266
sbsS'n7'
p1267
(ijoueur
joueur
p1268
(dp1269
g27
I0
sg28
I0
sg29
I0
sg30
F63.81507020662434
sg31
g32
sg33
I0
sg34
g32
sg35
g36
(g37
g38
Ntp1270
Rp1271
(dp1272
g42
I2
sg43
g433
sg45
g70
sbsg47
(dp1273
g49
I0
sg50
I0
sg51
I0
sg52
I0
ssg53
(dp1274
g49
I0
sg50
I0
sg51
I0
sg52
I0
ssg55
I13
sg56
g32
sg57
I0
sg58
F63.81507020662434
sg59
I0
sg60
I0
sg61
I0
sg62
g63
sg64
I00
sg65
g1271
sg71
(dp1275
g49
I0
sg50
I0
sg51
I5
sg52
I2
ssg73
I00
sg74
(dp1276
g49
I0
sg50
I0
sg51
I0
sg52
I0
ssg76
(dp1277
g49
I0
sg50
I0
sg51
I5
sg52
I2
ssg78
I0
sg79
I0
sg80
S'Chratenioc'
p1278
sg82
I4
sg83
I0
sg84
(dp1279
g49
I0
sg50
I0
sg51
I0
sg52
I0
ssg86
I18
sg87
(g88
g1260
g32
g32
tp1280
sg91
g32
sg92
(dp1281
g94
I7
sg95
I8
sg96
I6
sg97
I9
sg98
I2
sg99
I3
sg100
I7
sg101
I7
sg102
I7
sg103
I7
sg104
I7
sg105
I8
sg106
I3
sg107
I8
sg108
I3
ssg109
(dp1282
S's12'
p1283
(ijoueur
joueur
p1284
(dp1285
g27
I0
sg28
I0
sg29
I0
sg33
I0
sg35
g36
(g37
g38
Ntp1286
Rp1287
(dp1288
g43
g32
sbsg47
(dp1289
g49
I0
sg50
I0
sg51
I0
sg52
I0
ssg53
(dp1290
g49
I0
sg50
I0
sg51
I0
sg52
I0
ssg55
I0
sg56
g32
sg57
I0
sg59
I0
sg60
I0
sg61
I0
sg87
(g88
g1260
g32
g32
tp1291
sg64
I00
sg65
g36
(g37
g38
Ntp1292
Rp1293
(dp1294
g43
g32
sbsg71
(dp1295
g49
I0
sg50
I0
sg51
I0
sg52
I0
ssg73
I00
sg74
(dp1296
g49
I0
sg50
I0
sg51
I0
sg52
I0
ssg76
(dp1297
g49
I0
sg50
I0
sg51
I0
sg52
I0
ssg78
I0
sg79
I0
sg80
S'Chratenioc (12)'
p1298
sg82
I0
sg83
I0
sg84
(dp1299
g49
I0
sg50
I0
sg51
I0
sg52
I0
ssg86
I0
sg62
g63
sg92
(dp1300
g104
I0
sg95
I0
sg96
I0
sg97
I0
sg102
I0
sg94
I0
sg99
I0
sg101
I0
sg98
I0
sg103
I0
sg100
I0
sg105
I0
sg106
I0
sg107
I0
sg108
I0
ssg109
(dp1301
sg111
I0
sg112
g32
sg113
I0
sg114
I0
sg115
F0.0
sg116
I0
sg117
I0
sg118
I0
sg119
(dp1302
g94
I7
sg95
I8
sg96
I6
sg97
I9
sg102
I7
sg100
I7
sg99
I3
sg101
I7
sg98
I2
sg103
I7
sg104
I7
sg105
I8
sg106
I3
sg107
I8
sg108
I3
ssg121
I0
sg122
I0
sg123
I0
sg124
I0
sg125
I0
sg126
I0
sg127
I0
sg128
g32
sbsS's11'
p1303
(ijoueur
joueur
p1304
(dp1305
g27
I0
sg28
I0
sg29
I0
sg33
I0
sg35
g36
(g37
g38
Ntp1306
Rp1307
(dp1308
g43
g32
sbsg47
(dp1309
g49
I0
sg50
I0
sg51
I0
sg52
I0
ssg53
(dp1310
g49
I0
sg50
I0
sg51
I0
sg52
I0
ssg55
I0
sg56
g32
sg57
I0
sg59
I0
sg60
I0
sg61
I0
sg87
g1291
sg64
I00
sg65
g36
(g37
g38
Ntp1311
Rp1312
(dp1313
g43
g32
sbsg71
(dp1314
g49
I0
sg50
I0
sg51
I0
sg52
I0
ssg73
I00
sg74
(dp1315
g49
I0
sg50
I0
sg51
I0
sg52
I0
ssg76
(dp1316
g49
I0
sg50
I0
sg51
I0
sg52
I0
ssg78
I0
sg79
I0
sg80
S'Chratenioc (11)'
p1317
sg82
I0
sg83
I0
sg84
(dp1318
g49
I0
sg50
I0
sg51
I0
sg52
I0
ssg86
I0
sg62
g63
sg92
(dp1319
g104
I0
sg95
I0
sg96
I0
sg97
I0
sg102
I0
sg94
I0
sg99
I0
sg101
I0
sg98
I0
sg103
I0
sg100
I0
sg105
I0
sg106
I0
sg107
I0
sg108
I0
ssg109
(dp1320
sg111
I0
sg112
g32
sg113
I0
sg114
I0
sg115
F0.0
sg116
I0
sg117
I0
sg118
I0
sg119
g1302
sg121
I0
sg122
I0
sg123
I0
sg124
I0
sg125
I0
sg126
I0
sg127
I0
sg128
g32
sbssg111
I7
sg112
g32
sg113
I0
sg114
I0
sg115
F7.806451612903226
sg116
I0
sg117
I0
sg118
I0
sg119
g1302
sg121
I0
sg122
I0
sg123
I0
sg124
I0
sg125
I1
sg126
I0
sg127
I0
sg128
g129
sbssS'remplacements'
p1321
(dp1322
g666
S'n0'
p1323
sg702
g1323
sg835
g1323
sg890
g1323
sg891
g1323
sg947
g1323
sg1003
g1323
ssb.