(iclub
compo
p0
(dp1
S'caracs_old'
p2
(dp3
S'A'
p4
F157.0
sS'ME'
p5
F105.5
sS'E'
p6
I212
sS'OplusAV'
p7
F73.5
sS'TO_off'
p8
F124.5
sS'OplusAR'
p9
F80.5
sS'M'
p10
F61.5
sS'JP'
p11
F71.0
sS'OmoinsAR'
p12
F67.5
sS'PA'
p13
F103.0
sS'TO_def'
p14
F117.5
sS'OmoinsAV'
p15
F60.0
sS'R'
p16
F197.5
ssS'totaux_old'
p17
(dp18
S'T2'
p19
F165.5
sS'T3'
p20
F106.0
sS'T1'
p21
F212.0
ssS'roles'
p22
(dp23
S'drop1'
p24
(ijoueur
joueur
p25
(dp26
S'rouges_total'
p27
I0
sS'drops_total'
p28
I2
sS'blessure'
p29
I0
sS'RG_max'
p30
(ijoueur
rang
p31
(dp32
S'type_nb'
p33
I6
sS'rang'
p34
S'***'
p35
sS'type'
p36
S'personnage'
p37
sbsS'MJ2_total'
p38
(dp39
S'SR'
p40
I0
sS'ST'
p41
I0
sS'CR'
p42
I0
sS'CT'
p43
I0
ssS'MJ3_total'
p44
(dp45
g40
I0
sg41
I0
sg42
I0
sg43
I0
ssS'drop_rates_total'
p46
I0
sS'drop_rates_saison'
p47
I0
sS'essais_saison'
p48
I0
sS'penalite_ratees_saison'
p49
I0
sS'transformations_saison'
p50
I0
sS'postes'
p51
(S'dummy'
p52
S'AR'
p53
S'CE'
p54
S'AI'
p55
tp56
sS'RG'
p57
(ijoueur
rang
p58
(dp59
g33
I6
sg34
S'***'
p60
sg36
g37
sbsS'MJ1'
p61
(dp62
g40
I0
sg41
I0
sg42
I0
sg43
I1
ssS'MJ2'
p63
(dp64
g40
I0
sg41
I0
sg42
I0
sg43
I0
ssS'MJ3'
p65
(dp66
g40
I0
sg41
I0
sg42
I0
sg43
I0
ssS'MJ1_total'
p67
(dp68
g40
I0
sg41
I0
sg42
I0
sg43
I1
ssS'penalites_total'
p69
I1
sS'penalites_saison'
p70
I0
sS'nom'
p71
S'Leitdorf'
p72
sS'C'
p73
I9
sS'transformations_total'
p74
I1
sS'D'
p75
I18
sS'VAL'
p76
I567
sS'club'
p77
S'ED'
p78
sS'caracs'
p79
(dp80
S'A'
p81
I11
sS'ME'
p82
I7
sS'RP2'
p83
I10
sS'E'
p84
I12
sS'TO'
p85
I4
sS'RP1'
p86
I7
sS'JP'
p87
I8
sS'RP_tot'
p88
I10
sS'P'
p89
I9
sS'PA'
p90
I8
sS'M'
p91
I10
sS'R'
p92
I8
sS'TB'
p93
I9
sS'PL'
p94
I13
sS'TA'
p95
I6
ssS'fatigue'
p96
I3
sS'drop_ratees_total'
p97
I0
sS'blessures_total'
p98
I0
sS'XP'
p99
I0
sS'EV'
p100
F10.545454545454545
sS'penalite_ratees_total'
p101
I0
sS'blessures_saison'
p102
I0
sS'jaunes_total'
p103
I0
sS'caracs_sans_fatigue'
p104
g80
sS'rouges_saison'
p105
I0
sS'anciens_clubs'
p106
S''
p107
sS'transformation_ratees_total'
p108
I0
sS'drops_saison'
p109
I0
sS'transformation_ratees_saison'
p110
I0
sS'MS'
p111
I63
sS'essais_total'
p112
I1
sS'jaunes_saison'
p113
I0
sS'ARM'
p114
S'EMP'
p115
sbsS'SA_scd'
p116
(ijoueur
joueur
p117
(dp118
g27
I0
sg28
I0
sg29
I0
sg30
(ijoueur
rang
p119
(dp120
g33
I4
sg34
S'*'
p121
sg36
S'heros'
p122
sbsg38
(dp123
S'SR'
p124
I0
sS'CT'
p125
I0
sS'CR'
p126
I0
sS'ST'
p127
I0
ssg44
(dp128
g124
I0
sg125
I0
sg126
I0
sg127
I0
ssg46
I0
sg47
I0
sg48
I0
sg49
I0
sg50
I0
sg51
(g52
S'N8'
p129
S'TL'
p130
g107
tp131
sg57
(ijoueur
rang
p132
(dp133
g33
I3
sg34
S'^^^'
p134
sg36
S'rare'
p135
sbsg61
(dp136
g124
I0
sg125
I1
sg126
I0
sg127
I0
ssg63
(dp137
g124
I0
sg125
I0
sg126
I0
sg127
I0
ssg65
(dp138
g124
I0
sg125
I0
sg126
I0
sg127
I0
ssg67
(dp139
g124
I0
sg125
I1
sg126
I0
sg127
I0
ssg69
I0
sg70
I0
sg71
S'Uhentyl'
p140
sg73
I9
sg74
I0
sg75
I21
sg76
I64
sg77
g78
sg79
(dp141
S'A'
p142
I11
sS'ME'
p143
I10
sS'RP2'
p144
I6
sS'E'
p145
I11
sS'P'
p146
I6
sS'RP1'
p147
I10
sS'JP'
p148
I4
sS'RP_tot'
p149
I10
sS'TO'
p150
I10
sS'PA'
p151
I9
sS'M'
p152
I9
sS'R'
p153
I9
sS'TB'
p154
I6
sS'PL'
p155
I11
sS'TA'
p156
I5
ssg96
I4
sg97
I0
sg98
I0
sg99
I0
sg100
F10.10344827586207
sg101
I0
sg102
I0
sg103
I0
sg104
g141
sg105
I0
sg106
S'SN11'
p157
sg108
I0
sg109
I0
sg110
I0
sg111
I7
sg112
I1
sg113
I0
sg114
S'EN'
p158
sbsS'RJL'
p159
(ijoueur
joueur
p160
(dp161
g27
I0
sg28
I0
sg29
I0
sg30
(ijoueur
rang
p162
(dp163
g33
I5
sg34
S'xx'
p164
sg36
S'seigneur'
p165
sbsg38
(dp166
g40
I0
sg41
I0
sg42
I0
sg43
I0
ssg44
(dp167
g40
I0
sg41
I0
sg42
I0
sg43
I0
ssg46
I0
sg47
I0
sg48
I0
sg49
I0
sg50
I0
sg51
(g52
S'AI'
p168
g107
g107
tp169
sg57
(ijoueur
rang
p170
(dp171
g33
I4
sg34
S'*'
p172
sg36
S'heros'
p173
sbsg61
(dp174
g40
I0
sg41
I0
sg42
I0
sg43
I1
ssg63
(dp175
g40
I0
sg41
I0
sg42
I0
sg43
I0
ssg65
(dp176
g40
I0
sg41
I0
sg42
I0
sg43
I0
ssg67
(dp177
g40
I0
sg41
I0
sg42
I0
sg43
I1
ssg69
I0
sg70
I0
sg71
S'Lukarik'
p178
sg73
I8
sg74
I0
sg75
I21
sg76
I60
sg77
g78
sg79
(dp179
g81
I10
sg82
I5
sg83
I9
sg84
I10
sg85
I3
sg86
I9
sg87
I6
sg88
I11
sg89
I10
sg90
I7
sg91
I9
sg92
I6
sg93
I6
sg94
I10
sg95
I4
ssg96
I2
sg97
I0
sg98
I0
sg99
I0
sg100
F9.483870967741936
sg101
I0
sg102
I0
sg103
I0
sg104
g179
sg105
I0
sg106
g107
sg108
I0
sg109
I0
sg110
I0
sg111
I6
sg112
I0
sg113
I0
sg114
S'N'
p180
sbsS'cap'
p181
(ijoueur
joueur
p182
(dp183
g27
I0
sg28
I0
sg29
I0
sg30
(ijoueur
rang
p184
(dp185
g33
I5
sg34
S'**'
p186
sg36
S'seigneur'
p187
sbsg38
(dp188
g124
I0
sg125
I0
sg126
I0
sg127
I0
ssg44
(dp189
g124
I0
sg125
I0
sg126
I0
sg127
I0
ssg46
I0
sg47
I0
sg48
I0
sg49
I0
sg50
I0
sg51
(g52
S'PI'
p190
S'TA'
p191
g107
tp192
sg57
(ijoueur
rang
p193
(dp194
g33
I5
sg34
S'**'
p195
sg36
g187
sbsg61
(dp196
g124
I0
sg125
I1
sg126
I0
sg127
I0
ssg63
(dp197
g124
I0
sg125
I0
sg126
I0
sg127
I0
ssg65
(dp198
g124
I0
sg125
I0
sg126
I0
sg127
I0
ssg67
(dp199
g124
I0
sg125
I1
sg126
I0
sg127
I0
ssg69
I0
sg70
I0
sg71
S'Wisspe'
p200
sg73
I8
sg74
I0
sg75
I23
sg76
I90
sg77
g78
sg79
(dp201
g142
I14
sg143
I10
sg144
I8
sg145
I13
sg146
I8
sg147
I10
sg148
I8
sg149
I11
sg150
I8
sg151
I12
sg152
I11
sg153
I11
sg154
I6
sg155
I11
sg156
I8
ssg96
I1
sg97
I0
sg98
I0
sg99
I0
sg100
F11.37037037037037
sg101
I0
sg102
I0
sg103
I0
sg104
g201
sg105
I0
sg106
g107
sg108
I0
sg109
I0
sg110
I0
sg111
I9
sg112
I2
sg113
I0
sg114
S'S'
p202
sbsS'B4'
p203
(ijoueur
joueur
p204
(dp205
g27
I0
sg28
I11
sg29
I0
sg30
(ijoueur
rang
p206
(dp207
g33
I5
sg34
S'xx'
p208
sg36
g187
sbsg38
(dp209
g124
I0
sg125
I0
sg126
I0
sg127
I0
ssg44
(dp210
g124
I0
sg125
I1
sg126
I0
sg127
I0
ssg46
I0
sg47
I0
sg48
I0
sg49
I1
sg50
I0
sg51
(g52
S'C1'
p211
S'AR'
p212
S'DO'
p213
tp214
sg57
(ijoueur
rang
p215
(dp216
g33
I5
sg34
S'xx'
p217
sg36
g187
sbsg61
(dp218
g124
I0
sg125
I0
sg126
I0
sg127
I0
ssg63
(dp219
g124
I0
sg125
I0
sg126
I0
sg127
I0
ssg65
(dp220
g124
I0
sg125
I1
sg126
I0
sg127
I0
ssg67
(dp221
g124
I0
sg125
I0
sg126
I0
sg127
I0
ssg69
I5
sg70
I2
sg71
S'Jtess'
p222
sg73
I7
sg74
I1
sg75
I19
sg76
I475
sg77
g78
sg79
(dp223
g142
I16
sg143
I6
sg144
I14
sg145
I11
sg146
I9
sg147
I8
sg148
I12
sg149
I15
sg150
I11
sg151
I16
sg152
I12
sg153
I12
sg154
I9
sg155
I13
sg156
I8
ssg96
I1
sg97
I0
sg98
I0
sg99
I0
sg100
F13.3
sg101
I1
sg102
I0
sg103
I0
sg104
g223
sg105
I0
sg106
g107
sg108
I0
sg109
I0
sg110
I0
sg111
I48
sg112
I5
sg113
I0
sg114
g202
sbsS'RJC'
p224
g204
sS'B1'
p225
g204
sS'B2'
p226
g204
sS'B3'
p227
g204
sS'SA_pcp2'
p228
(ijoueur
joueur
p229
(dp230
g27
I0
sg28
I0
sg29
I0
sg30
(ijoueur
rang
p231
(dp232
g33
I2
sg34
S'<<'
p233
sg36
S'special'
p234
sbsg38
(dp235
g124
I0
sg125
I0
sg126
I0
sg127
I0
ssg44
(dp236
g124
I0
sg125
I0
sg126
I0
sg127
I0
ssg46
I0
sg47
I0
sg48
I0
sg49
I0
sg50
I0
sg51
(g52
S'TL'
p237
S'DL'
p238
g107
tp239
sg57
(ijoueur
rang
p240
(dp241
g33
I2
sg34
S'<<'
p242
sg36
g234
sbsg61
(dp243
g124
I0
sg125
I1
sg126
I0
sg127
I0
ssg63
(dp244
g124
I0
sg125
I0
sg126
I0
sg127
I0
ssg65
(dp245
g124
I0
sg125
I0
sg126
I0
sg127
I0
ssg67
(dp246
g124
I0
sg125
I1
sg126
I0
sg127
I0
ssg69
I0
sg70
I0
sg71
S'Ftoden'
p247
sg73
I3
sg74
I0
sg75
I11
sg76
I95
sg77
g78
sg79
(dp248
g142
I10
sg143
I10
sg144
I7
sg145
I10
sg146
I5
sg147
I10
sg148
I5
sg149
I10
sg150
I11
sg151
I9
sg152
I9
sg153
I10
sg154
I4
sg155
I11
sg156
I4
ssg96
I4
sg97
I0
sg98
I0
sg99
I0
sg100
F10.263157894736842
sg101
I0
sg102
I0
sg103
I0
sg104
g248
sg105
I0
sg106
S'TA9'
p249
sg108
I0
sg109
I0
sg110
I0
sg111
I10
sg112
I2
sg113
I0
sg114
g202
sbsS'SA_pcp1'
p250
(ijoueur
joueur
p251
(dp252
g27
I0
sg28
I0
sg29
I0
sg30
(ijoueur
rang
p253
(dp254
g33
I5
sg34
S'xx'
p255
sg36
g187
sbsg38
(dp256
g124
I0
sg125
I0
sg126
I0
sg127
I0
ssg44
(dp257
g124
I0
sg125
I0
sg126
I0
sg127
I0
ssg46
I0
sg47
I0
sg48
I0
sg49
I0
sg50
I0
sg51
(g52
S'DL'
p258
g107
g107
tp259
sg57
(ijoueur
rang
p260
(dp261
g33
I5
sg34
S'xx'
p262
sg36
g187
sbsg61
(dp263
g124
I0
sg125
I1
sg126
I0
sg127
I0
ssg63
(dp264
g124
I0
sg125
I0
sg126
I0
sg127
I0
ssg65
(dp265
g124
I0
sg125
I0
sg126
I0
sg127
I0
ssg67
(dp266
g124
I0
sg125
I1
sg126
I0
sg127
I0
ssg69
I0
sg70
I0
sg71
S'Xyxess'
p267
sg73
I8
sg74
I0
sg75
I20
sg76
I475
sg77
g78
sg79
(dp268
g142
I14
sg143
I10
sg144
I11
sg145
I12
sg146
I5
sg147
I9
sg148
I4
sg149
I13
sg150
I17
sg151
I14
sg152
I12
sg153
I9
sg154
I5
sg155
I11
sg156
I7
ssg96
I4
sg97
I0
sg98
I0
sg99
I0
sg100
F12.352941176470589
sg101
I0
sg102
I0
sg103
I0
sg104
g268
sg105
I0
sg106
g107
sg108
I0
sg109
I0
sg110
I0
sg111
I48
sg112
I3
sg113
I0
sg114
g202
sbsS'drop3'
p269
g204
sS'SA_remp1'
p270
(ijoueur
joueur
p271
(dp272
g27
I0
sg28
I0
sg29
I0
sg30
(ijoueur
rang
p273
(dp274
g33
I5
sg34
S'**'
p275
sg36
g187
sbsg38
(dp276
g124
I0
sg125
I0
sg126
I0
sg127
I0
ssg44
(dp277
g124
I0
sg125
I0
sg126
I0
sg127
I0
ssg46
I0
sg47
I0
sg48
I0
sg49
I0
sg50
I0
sg51
(g52
S'DL'
p278
g107
g107
tp279
sg57
(ijoueur
rang
p280
(dp281
g33
I4
sg34
g121
sg36
g122
sbsg61
(dp282
g124
I0
sg125
I0
sg126
I1
sg127
I0
ssg63
(dp283
g124
I0
sg125
I0
sg126
I0
sg127
I0
ssg65
(dp284
g124
I0
sg125
I0
sg126
I0
sg127
I0
ssg67
(dp285
g124
I0
sg125
I0
sg126
I1
sg127
I0
ssg69
I0
sg70
I0
sg71
S'Tretab'
p286
sg73
I8
sg74
I0
sg75
I26
sg76
I60
sg77
g78
sg79
(dp287
g142
I10
sg143
I9
sg144
I7
sg145
I12
sg146
I5
sg147
I10
sg148
I4
sg149
I10
sg150
I14
sg151
I10
sg152
I8
sg153
I9
sg154
I4
sg155
I8
sg156
I4
ssg96
I4
sg97
I0
sg98
I0
sg99
I0
sg100
F10.441176470588236
sg101
I0
sg102
I0
sg103
I0
sg104
g287
sg105
I0
sg106
g107
sg108
I0
sg109
I0
sg110
I0
sg111
I6
sg112
I0
sg113
I0
sg114
S'B'
p288
sbsS'drop2'
p289
g182
sS'SA_remp2'
p290
(ijoueur
joueur
p291
(dp292
g27
I0
sg28
I0
sg29
I0
sg30
(ijoueur
rang
p293
(dp294
g33
I5
sg34
S'xx'
p295
sg36
g187
sbsg38
(dp296
g124
I0
sg125
I0
sg126
I0
sg127
I0
ssg44
(dp297
g124
I0
sg125
I0
sg126
I0
sg127
I0
ssg46
I0
sg47
I0
sg48
I0
sg49
I0
sg50
I0
sg51
(g52
S'TL'
p298
S'DL'
p299
S'N8'
p300
tp301
sg57
(ijoueur
rang
p302
(dp303
g33
I5
sg34
S'xx'
p304
sg36
g187
sbsg61
(dp305
g124
I0
sg125
I1
sg126
I0
sg127
I0
ssg63
(dp306
g124
I0
sg125
I0
sg126
I0
sg127
I0
ssg65
(dp307
g124
I0
sg125
I0
sg126
I0
sg127
I0
ssg67
(dp308
g124
I0
sg125
I1
sg126
I0
sg127
I0
ssg69
I0
sg70
I0
sg71
S'Zyrvgh'
p309
sg73
I7
sg74
I0
sg75
I19
sg76
I517
sg77
g78
sg79
(dp310
g142
I9
sg143
I11
sg144
I7
sg145
I11
sg146
I5
sg147
I12
sg148
I3
sg149
I12
sg150
I10
sg151
I9
sg152
I9
sg153
I13
sg154
I3
sg155
I10
sg156
I5
ssg96
I2
sg97
I0
sg98
I0
sg99
I0
sg100
F11.129032258064516
sg101
I0
sg102
I0
sg103
I0
sg104
g310
sg105
I0
sg106
S'DKF11'
p311
sg108
I0
sg109
I0
sg110
I0
sg111
I44
sg112
I2
sg113
I0
sg114
S'HB'
p312
sbssS'totaux'
p313
(dp314
g19
I0
sg20
I0
sg21
I0
ssS'_compo_defaut_fatigue'
p315
Nsg79
(dp316
g4
I0
sg5
I0
sg6
I0
sg7
I0
sg8
I0
sg9
I0
sg10
I0
sg11
I0
sg12
I0
sg13
I0
sg14
I0
sg15
I0
sg16
I0
ssS'joueurs'
p317
(dp318
S'n12'
p319
(ijoueur
joueur
p320
(dp321
g27
I0
sg28
I0
sg29
I0
sg30
(ijoueur
rang
p322
(dp323
g33
I3
sg34
S'^^^'
p324
sg36
g135
sbsg38
(dp325
g124
I0
sg125
I0
sg126
I0
sg127
I0
ssg44
(dp326
g124
I0
sg125
I0
sg126
I0
sg127
I0
ssg46
I0
sg47
I0
sg48
I0
sg49
I0
sg50
I0
sg51
(g52
S'C2'
p327
S'AR'
p328
S'AI'
p329
tp330
sg57
(ijoueur
rang
p331
(dp332
g33
I4
sg34
g121
sg36
g122
sbsg61
(dp333
g124
I0
sg125
I1
sg126
I0
sg127
I0
ssg63
(dp334
g124
I0
sg125
I0
sg126
I0
sg127
I0
ssg65
(dp335
g124
I0
sg125
I0
sg126
I0
sg127
I0
ssg67
(dp336
g124
I0
sg125
I1
sg126
I0
sg127
I0
ssg69
I0
sg70
I0
sg71
S'Vratakt'
p337
sg73
I8
sg74
I0
sg75
I17
sg76
I130
sg77
g78
sg79
(dp338
g142
I10
sg143
I8
sg144
I7
sg145
I9
sg146
I8
sg147
I11
sg148
I8
sg149
I11
sg150
I5
sg151
I7
sg152
I10
sg153
I6
sg154
I7
sg155
I11
sg156
I5
ssg96
I2
sg97
I0
sg98
I0
sg99
I0
sg100
F9.379310344827585
sg101
I0
sg102
I0
sg103
I0
sg104
g338
sg105
I0
sg106
g107
sg108
I0
sg109
I0
sg110
I0
sg111
I13
sg112
I2
sg113
I0
sg114
S'OG'
p339
sbsS'n13'
p340
(ijoueur
joueur
p341
(dp342
g27
I0
sg28
I0
sg29
I0
sg30
(ijoueur
rang
p343
(dp344
g33
I4
sg34
g172
sg36
g173
sbsg38
(dp345
g40
I0
sg41
I0
sg42
I0
sg43
I1
ssg44
(dp346
g40
I0
sg41
I0
sg42
I0
sg43
I0
ssg46
I0
sg47
I0
sg48
I0
sg49
I0
sg50
I0
sg51
(g52
S'AI'
p347
S'CE'
p348
g107
tp349
sg57
(ijoueur
rang
p350
(dp351
g33
I4
sg34
g172
sg36
g173
sbsg61
(dp352
g40
I0
sg41
I0
sg42
I0
sg43
I0
ssg63
(dp353
g40
I0
sg41
I0
sg42
I0
sg43
I1
ssg65
(dp354
g40
I0
sg41
I0
sg42
I0
sg43
I0
ssg67
(dp355
g40
I0
sg41
I0
sg42
I0
sg43
I0
ssg69
I0
sg70
I0
sg71
S'Nisst'
p356
sg73
I8
sg74
I0
sg75
I19
sg76
I76
sg77
g78
sg79
(dp357
g81
I11
sg82
I2
sg83
I9
sg84
I9
sg85
I7
sg86
I9
sg87
I5
sg88
I11
sg89
I8
sg90
I10
sg91
I10
sg92
I6
sg93
I9
sg94
I11
sg95
I2
ssg96
I3
sg97
I0
sg98
I0
sg99
I0
sg100
F10.03225806451613
sg101
I0
sg102
I0
sg103
I0
sg104
g357
sg105
I0
sg106
g107
sg108
I0
sg109
I0
sg110
I0
sg111
I7
sg112
I1
sg113
I0
sg114
S'S'
p358
sbsS'n10'
p359
g204
sS'n11'
p360
g160
sS'n16'
p361
(ijoueur
joueur
p362
(dp363
g27
I0
sg28
I0
sg29
I0
sg30
(ijoueur
rang
p364
(dp365
g33
I3
sg34
S'^^^'
p366
sg36
g135
sbsg38
(dp367
g124
I0
sg125
I1
sg126
I0
sg127
I0
ssg44
(dp368
g124
I0
sg125
I0
sg126
I0
sg127
I0
ssg46
I0
sg47
I0
sg48
I0
sg49
I0
sg50
I0
sg51
(g52
S'PI'
p369
S'TA'
p370
g107
tp371
sg57
(ijoueur
rang
p372
(dp373
g33
I3
sg34
S'^^^'
p374
sg36
g135
sbsg61
(dp375
g124
I0
sg125
I0
sg126
I0
sg127
I0
ssg63
(dp376
g124
I0
sg125
I1
sg126
I0
sg127
I0
ssg65
(dp377
g124
I0
sg125
I0
sg126
I0
sg127
I0
ssg67
(dp378
g124
I0
sg125
I0
sg126
I0
sg127
I0
ssg69
I0
sg70
I0
sg71
S'Vuzgr'
p379
sg73
I6
sg74
I0
sg75
I15
sg76
I92
sg77
g78
sg79
(dp380
g142
I7
sg143
I13
sg144
I8
sg145
I10
sg146
I3
sg147
I10
sg148
I0
sg149
I11
sg150
I4
sg151
I7
sg152
I10
sg153
I9
sg154
I1
sg155
I9
sg156
I13
ssg96
I4
sg97
I0
sg98
I0
sg99
I0
sg100
F10.206896551724139
sg101
I0
sg102
I0
sg103
I0
sg104
g380
sg105
I0
sg106
S'MDL10'
p381
sg108
I0
sg109
I0
sg110
I0
sg111
I20
sg112
I9
sg113
I0
sg114
S'OG'
p382
sbsS'n17'
p383
(ijoueur
joueur
p384
(dp385
g27
I0
sg28
I0
sg29
I0
sg30
(ijoueur
rang
p386
(dp387
g33
I4
sg34
g121
sg36
g122
sbsg38
(dp388
g124
I0
sg125
I0
sg126
I0
sg127
I0
ssg44
(dp389
g124
I0
sg125
I0
sg126
I0
sg127
I0
ssg46
I0
sg47
I0
sg48
I0
sg49
I0
sg50
I0
sg51
(g52
S'PI'
p390
S'TA'
p391
g107
tp392
sg57
(ijoueur
rang
p393
(dp394
g33
I4
sg34
g121
sg36
g122
sbsg61
(dp395
g124
I0
sg125
I0
sg126
I1
sg127
I0
ssg63
(dp396
g124
I0
sg125
I0
sg126
I0
sg127
I0
ssg65
(dp397
g124
I0
sg125
I0
sg126
I0
sg127
I0
ssg67
(dp398
g124
I0
sg125
I0
sg126
I1
sg127
I0
ssg69
I0
sg70
I0
sg71
S'Retohop'
p399
sg73
I8
sg74
I0
sg75
I18
sg76
I70
sg77
g78
sg79
(dp400
g142
I12
sg143
I11
sg144
I8
sg145
I9
sg146
I5
sg147
I11
sg148
I5
sg149
I12
sg150
I5
sg151
I9
sg152
I7
sg153
I9
sg154
I3
sg155
I8
sg156
I9
ssg96
I2
sg97
I0
sg98
I0
sg99
I0
sg100
F9.814814814814815
sg101
I0
sg102
I0
sg103
I0
sg104
g400
sg105
I0
sg106
g107
sg108
I0
sg109
I0
sg110
I0
sg111
I7
sg112
I0
sg113
I0
sg114
g202
sbsS'n14'
p401
(ijoueur
joueur
p402
(dp403
g27
I0
sg28
I0
sg29
I0
sg30
(ijoueur
rang
p404
(dp405
g33
I5
sg34
S'**'
p406
sg36
g165
sbsg38
(dp407
g40
I0
sg41
I0
sg42
I0
sg43
I0
ssg44
(dp408
g40
I0
sg41
I0
sg42
I0
sg43
I0
ssg46
I0
sg47
I0
sg48
I0
sg49
I0
sg50
I0
sg51
(g52
S'AI'
p409
S'AR'
p410
g107
tp411
sg57
(ijoueur
rang
p412
(dp413
g33
I5
sg34
S'**'
p414
sg36
g165
sbsg61
(dp415
g40
I0
sg41
I0
sg42
I0
sg43
I1
ssg63
(dp416
g40
I0
sg41
I0
sg42
I0
sg43
I0
ssg65
(dp417
g40
I0
sg41
I0
sg42
I0
sg43
I0
ssg67
(dp418
g40
I0
sg41
I0
sg42
I0
sg43
I1
ssg69
I0
sS'carton_jaunes_saison'
p419
I1
sg70
I0
sg71
S'Patlop'
p420
sg73
I8
sg74
I0
sg75
I21
sg76
I200
sg77
g78
sS'carton_jaunes_total'
p421
I1
sg79
(dp422
g81
I9
sg82
I4
sg83
I7
sg84
I12
sg85
I4
sg86
I12
sg87
I7
sg88
I12
sg89
I7
sg90
I6
sg91
I11
sg92
I6
sg93
I9
sg94
I10
sg95
I7
ssg96
I1
sg97
I0
sg98
I0
sg99
I0
sg100
F9.903225806451612
sg101
I0
sg102
I0
sg103
I0
sg104
g422
sg105
I0
sg106
g107
sg108
I0
sg109
I0
sg110
I0
sg111
I20
sg112
I1
sg113
I0
sg114
S'OG'
p423
sbsS'n15'
p424
g25
sS'n18'
p425
g271
sS'n19'
p426
(ijoueur
joueur
p427
(dp428
g27
I0
sg28
I0
sg29
I0
sg30
(ijoueur
rang
p429
(dp430
g33
I4
sg34
S'x'
p431
sg36
g122
sbsg38
(dp432
g124
I0
sg125
I0
sg126
I0
sg127
I0
ssg44
(dp433
g124
I0
sg125
I0
sg126
I0
sg127
I0
ssg46
I0
sg47
I0
sg48
I0
sg49
I0
sg50
I0
sg51
(g52
S'TL'
p434
g107
g107
tp435
sg57
(ijoueur
rang
p436
(dp437
g33
I3
sg34
S'^^^'
p438
sg36
g135
sbsg61
(dp439
g124
I0
sg125
I0
sg126
I1
sg127
I0
ssg63
(dp440
g124
I0
sg125
I0
sg126
I0
sg127
I0
ssg65
(dp441
g124
I0
sg125
I0
sg126
I0
sg127
I0
ssg67
(dp442
g124
I0
sg125
I0
sg126
I1
sg127
I0
ssg69
I0
sg70
I0
sg71
S'Hepelet'
p443
sg73
I10
sg74
I0
sg75
I22
sg76
I87
sg77
g78
sg79
(dp444
g142
I8
sg143
I9
sg144
I9
sg145
I9
sg146
I7
sg147
I9
sg148
I4
sg149
I11
sg150
I8
sg151
I7
sg152
I11
sg153
I10
sg154
I4
sg155
I10
sg156
I5
ssg96
I1
sg97
I0
sg98
I0
sg99
I0
sg100
F9.709677419354838
sg101
I0
sg102
I0
sg103
I0
sg104
g444
sg105
I0
sg106
g107
sg108
I0
sg109
I0
sg110
I0
sg111
I12
sg112
I1
sg113
I0
sg114
S'OG'
p445
sbsS'n22'
p446
(ijoueur
joueur
p447
(dp448
g27
I0
sg28
I0
sg29
I0
sg30
(ijoueur
rang
p449
(dp450
g33
I2
sg34
S'^^'
p451
sg36
g234
sbsg38
(dp452
g124
I0
sg125
I0
sg126
I1
sg127
I0
ssg44
(dp453
g124
I0
sg125
I0
sg126
I0
sg127
I0
ssg46
I0
sg47
I0
sg48
I0
sg49
I0
sg50
I0
sg51
(g52
S'DO'
p454
S'AI'
p455
g107
tp456
sg57
(ijoueur
rang
p457
(dp458
g33
I2
sg34
S'^^'
p459
sg36
g234
sbsg61
(dp460
g124
I0
sg125
I0
sg126
I0
sg127
I0
ssg63
(dp461
g124
I0
sg125
I0
sg126
I1
sg127
I0
ssg65
(dp462
g124
I0
sg125
I0
sg126
I0
sg127
I0
ssg67
(dp463
g124
I0
sg125
I0
sg126
I0
sg127
I0
ssg69
I0
sg70
I0
sg71
S'Empot'
p464
sg73
I10
sg74
I0
sg75
I23
sg76
I58
sg77
g78
sg79
(dp465
g142
I8
sg143
I7
sg144
I10
sg145
I9
sg146
I5
sg147
I8
sg148
I8
sg149
I11
sg150
I4
sg151
I9
sg152
I12
sg153
I6
sg154
I7
sg155
I8
sg156
I5
ssg96
I1
sg97
I0
sg98
I0
sg99
I0
sg100
F8.393939393939394
sg101
I0
sg102
I0
sg103
I0
sg104
g465
sg105
I0
sg106
g107
sg108
I0
sg109
I0
sg110
I0
sg111
I11
sg112
I0
sg113
I0
sg114
S'OG'
p466
sbsS'n21'
p467
(ijoueur
joueur
p468
(dp469
g27
I0
sg28
I0
sg29
I0
sg30
(ijoueur
rang
p470
(dp471
g33
I3
sg34
S'<<<'
p472
sg36
g135
sbsg38
(dp473
g124
I0
sg125
I0
sg126
I0
sg127
I0
ssg44
(dp474
g124
I0
sg125
I0
sg126
I0
sg127
I0
ssg46
I0
sg47
I0
sg48
I0
sg49
I0
sg50
I0
sg51
(g52
S'C2'
p475
S'AI'
p476
g107
tp477
sg57
(ijoueur
rang
p478
(dp479
g33
I3
sg34
S'<<<'
p480
sg36
g135
sbsg61
(dp481
g124
I0
sg125
I0
sg126
I1
sg127
I0
ssg63
(dp482
g124
I0
sg125
I0
sg126
I0
sg127
I0
ssg65
(dp483
g124
I0
sg125
I0
sg126
I0
sg127
I0
ssg67
(dp484
g124
I0
sg125
I0
sg126
I1
sg127
I0
ssg69
I0
sg70
I0
sg71
S'Katakat'
p485
sg73
I3
sg74
I0
sg75
I16
sg76
I75
sg77
g78
sg79
(dp486
g142
I6
sg143
I6
sg144
I7
sg145
I12
sg146
I7
sg147
I12
sg148
I2
sg149
I12
sg150
I1
sg151
I7
sg152
I11
sg153
I8
sg154
I5
sg155
I8
sg156
I5
ssg96
I0
sg97
I0
sg98
I0
sg99
I0
sg100
F8.89655172413793
sg101
I0
sg102
I0
sg103
I0
sg104
g486
sg105
I0
sg106
g107
sg108
I0
sg109
I0
sg110
I0
sg111
I8
sg112
I2
sg113
I0
sg114
S'OG'
p487
sbsS'n20'
p488
(ijoueur
joueur
p489
(dp490
g27
I0
sg28
I0
sg29
I0
sg30
(ijoueur
rang
p491
(dp492
g33
I4
sg34
g121
sg36
g122
sbsg38
(dp493
g124
I0
sg125
I0
sg126
I0
sg127
I0
ssg44
(dp494
g124
I0
sg125
I0
sg126
I0
sg127
I0
ssg46
I0
sg47
I0
sg48
I0
sg49
I0
sg50
I0
sg51
(g52
S'DM'
p495
g107
g107
tp496
sg57
(ijoueur
rang
p497
(dp498
g33
I1
sg34
S'^'
p499
sg36
S'base'
p500
sbsg61
(dp501
g124
I0
sg125
I0
sg126
I1
sg127
I0
ssg63
(dp502
g124
I0
sg125
I0
sg126
I0
sg127
I0
ssg65
(dp503
g124
I0
sg125
I0
sg126
I0
sg127
I0
ssg67
(dp504
g124
I0
sg125
I0
sg126
I1
sg127
I0
ssg69
I0
sg70
I0
sg71
S'Wiz'
p505
sg73
I11
sg74
I0
sg75
I26
sg76
I12
sg77
g78
sg79
(dp506
g142
I8
sg143
I5
sg144
I9
sg145
I8
sg146
I8
sg147
I6
sg148
I7
sg149
I9
sg150
I3
sg151
I10
sg152
I11
sg153
I6
sg154
I6
sg155
I6
sg156
I4
ssg96
I2
sg97
I0
sg98
I0
sg99
I0
sg100
F8.448275862068966
sg101
I0
sg102
I0
sg103
I0
sg104
g506
sg105
I0
sg106
g107
sg108
I0
sg109
I0
sg110
I0
sg111
I1
sg112
I0
sg113
I0
sg114
g202
sbsS'n8'
p507
g117
sS'n9'
p508
(ijoueur
joueur
p509
(dp510
g27
I0
sg28
I0
sg29
I0
sg30
(ijoueur
rang
p511
(dp512
g33
I2
sg34
S'<<'
p513
sg36
g234
sbsg38
(dp514
g124
I0
sg125
I0
sg126
I0
sg127
I0
ssg44
(dp515
g124
I0
sg125
I0
sg126
I0
sg127
I0
ssg46
I0
sg47
I0
sg48
I0
sg49
I0
sg50
I0
sg51
(g52
S'DM'
p516
S'DO'
p517
g107
tp518
sg57
(ijoueur
rang
p519
(dp520
g33
I2
sg34
S'<<'
p521
sg36
g234
sbsg61
(dp522
g124
I0
sg125
I1
sg126
I0
sg127
I0
ssg63
(dp523
g124
I0
sg125
I0
sg126
I0
sg127
I0
ssg65
(dp524
g124
I0
sg125
I0
sg126
I0
sg127
I0
ssg67
(dp525
g124
I0
sg125
I1
sg126
I0
sg127
I0
ssg69
I0
sg70
I0
sg71
S'Wazaoth'
p526
sg73
I8
sg74
I0
sg75
I16
sg76
I11
sg77
g78
sg79
(dp527
g142
I11
sg143
I5
sg144
I6
sg145
I10
sg146
I7
sg147
I6
sg148
I7
sg149
I6
sg150
I8
sg151
I14
sg152
I8
sg153
I8
sg154
I8
sg155
I7
sg156
I3
ssg96
I1
sg97
I0
sg98
I0
sg99
I0
sg100
F9.310344827586206
sg101
I0
sg102
I0
sg103
I0
sg104
g527
sg105
I0
sg106
g107
sg108
I0
sg109
I0
sg110
I0
sg111
I1
sg112
I0
sg113
I0
sg114
S'EN'
p528
sbsS'n1'
p529
(ijoueur
joueur
p530
(dp531
g27
I0
sg28
I0
sg29
I0
sg30
(ijoueur
rang
p532
(dp533
g33
I5
sg34
S'**'
p534
sg36
g187
sbsg38
(dp535
g124
I0
sg125
I0
sg126
I0
sg127
I0
ssg44
(dp536
g124
I0
sg125
I0
sg126
I0
sg127
I0
ssg46
I0
sg47
I0
sg48
I0
sg49
I0
sg50
I0
sg51
(g52
S'PI'
p537
g107
g107
tp538
sg57
(ijoueur
rang
p539
(dp540
g33
I4
sg34
g121
sg36
g122
sbsg61
(dp541
g124
I0
sg125
I1
sg126
I0
sg127
I0
ssg63
(dp542
g124
I0
sg125
I0
sg126
I0
sg127
I0
ssg65
(dp543
g124
I0
sg125
I0
sg126
I0
sg127
I0
ssg67
(dp544
g124
I0
sg125
I1
sg126
I0
sg127
I0
ssg69
I0
sg70
I0
sg71
S'Chotc'
p545
sg73
I9
sg74
I0
sg75
I24
sg76
I88
sg77
g78
sg79
(dp546
g142
I10
sg143
I13
sg144
I8
sg145
I11
sg146
I6
sg147
I10
sg148
I7
sg149
I11
sg150
I9
sg151
I10
sg152
I11
sg153
I10
sg154
I5
sg155
I11
sg156
I7
ssg96
I3
sg97
I0
sg98
I0
sg99
I0
sg100
F11.037037037037036
sg101
I0
sg102
I0
sg103
I0
sg104
g546
sg105
I0
sg106
g107
sg108
I0
sg109
I0
sg110
I0
sg111
I7
sg112
I0
sg113
I0
sg114
g202
sbsS'n2'
p547
(ijoueur
joueur
p548
(dp549
g27
I0
sg28
I0
sg29
I0
sg30
(ijoueur
rang
p550
(dp551
g33
I1
sg34
g499
sg36
g500
sbsg38
(dp552
g124
I0
sg125
I0
sg126
I0
sg127
I0
ssg44
(dp553
g124
I0
sg125
I0
sg126
I0
sg127
I0
ssg46
I0
sg47
I0
sg48
I0
sg49
I0
sg50
I0
sg51
(g52
S'TA'
p554
S'PI'
p555
g107
tp556
sg57
(ijoueur
rang
p557
(dp558
g33
I1
sg34
g499
sg36
g500
sbsg61
(dp559
g124
I0
sg125
I0
sg126
I1
sg127
I0
ssg63
(dp560
g124
I0
sg125
I0
sg126
I0
sg127
I0
ssg65
(dp561
g124
I0
sg125
I0
sg126
I0
sg127
I0
ssg67
(dp562
g124
I0
sg125
I0
sg126
I1
sg127
I0
ssg69
I0
sg70
I0
sg71
S'Dobard'
p563
sg73
I3
sg74
I0
sg75
I15
sg76
I6
sg77
g78
sg79
(dp564
g142
I9
sg143
I8
sg144
I6
sg145
I9
sg146
I4
sg147
I9
sg148
I2
sg149
I9
sg150
I7
sg151
I7
sg152
I8
sg153
I12
sg154
I2
sg155
I7
sg156
I8
ssg96
I2
sg97
I0
sg98
I0
sg99
I0
sg100
F9.0
sg101
I0
sg102
I0
sg103
I0
sg104
g564
sg105
I0
sg106
S'PRG10'
p565
sg108
I0
sg109
I0
sg110
I0
sg111
I1
sg112
I0
sg113
I0
sg114
S'EMP'
p566
sbsS'n3'
p567
g182
sS'n4'
p568
(ijoueur
joueur
p569
(dp570
g27
I0
sg28
I0
sg29
I0
sg30
(ijoueur
rang
p571
(dp572
g33
I3
sg34
S'<<<'
p573
sg36
g135
sbsg38
(dp574
g124
I0
sg125
I0
sg126
I0
sg127
I0
ssg44
(dp575
g124
I0
sg125
I0
sg126
I0
sg127
I0
ssg46
I0
sg47
I0
sg48
I0
sg49
I0
sg50
I0
sg51
(g52
S'N8'
p576
S'DL'
p577
g107
tp578
sg57
(ijoueur
rang
p579
(dp580
g33
I3
sg34
S'<<<'
p581
sg36
g135
sbsg61
(dp582
g124
I0
sg125
I0
sg126
I0
sg127
I0
ssg63
(dp583
g124
I0
sg125
I0
sg126
I0
sg127
I0
ssg65
(dp584
g124
I0
sg125
I0
sg126
I0
sg127
I0
ssg67
(dp585
g124
I0
sg125
I0
sg126
I0
sg127
I0
ssg69
I0
sg70
I0
sg71
S'Imetot'
p586
sg73
I11
sg74
I0
sg75
I22
sg76
I173
sg77
g78
sg79
(dp587
g142
I6
sg143
I10
sg144
I6
sg145
I10
sg146
I1
sg147
I11
sg148
I1
sg149
I11
sg150
I5
sg151
I5
sg152
I10
sg153
I11
sg154
I0
sg155
I9
sg156
I6
ssg96
I0
sg97
I0
sg98
I0
sg99
I0
sg100
F9.655172413793103
sg101
I0
sg102
I0
sg103
I0
sg104
g587
sg105
I0
sg106
g107
sg108
I0
sg109
I0
sg110
I0
sg111
I14
sg112
I0
sg113
I0
sg114
S'OG'
p588
sbsS'n5'
p589
g251
sS'n6'
p590
g229
sS'n7'
p591
g291
ssS'remplacements'
p592
(dp593
g361
S'n0'
p594
sg383
g594
sg425
g594
sg426
g594
sg446
g594
sg467
g594
sg488
g594
ssb.