(iclub
compo
p0
(dp1
S'caracs_old'
p2
(dp3
S'A'
p4
F162.0
sS'ME'
p5
F86.5
sS'E'
p6
I206
sS'OplusAV'
p7
F70.0
sS'TO_off'
p8
F130.5
sS'OplusAR'
p9
F68.0
sS'M'
p10
F48.0
sS'JP'
p11
F104.5
sS'OmoinsAR'
p12
F70.0
sS'PA'
p13
F122.5
sS'TO_def'
p14
F122.0
sS'OmoinsAV'
p15
F70.0
sS'R'
p16
F179.0
ssS'totaux_old'
p17
(dp18
S'T2'
p19
F194.5
sS'T3'
p20
F103.0
sS'T1'
p21
F195.875
ssS'roles'
p22
(dp23
S'drop1'
p24
(ijoueur
joueur
p25
(dp26
S'rouges_total'
p27
I0
sS'drops_total'
p28
I9
sS'blessure'
p29
I0
sS'RG_max'
p30
(ijoueur
rang
p31
(dp32
S'type_nb'
p33
I4
sS'rang'
p34
S'*'
p35
sS'type'
p36
S'heros'
p37
sbsS'MJ2_total'
p38
(dp39
S'SR'
p40
I0
sS'CT'
p41
I0
sS'CR'
p42
I0
sS'ST'
p43
I0
ssS'MJ3_total'
p44
(dp45
g40
I0
sg41
I0
sg42
I0
sg43
I0
ssS'drop_rates_total'
p46
I0
sS'drop_rates_saison'
p47
I0
sS'essais_saison'
p48
I1
sS'penalite_ratees_saison'
p49
I0
sS'transformations_saison'
p50
I0
sS'postes'
p51
(S'dummy'
p52
S'C1'
p53
S'AR'
p54
S'AI'
p55
tp56
sS'RG'
p57
(ijoueur
rang
p58
(dp59
g33
I4
sg34
g35
sg36
g37
sbsS'MJ1'
p60
(dp61
g40
I0
sg41
I6
sg42
I0
sg43
I0
ssS'MJ2'
p62
(dp63
g40
I0
sg41
I0
sg42
I0
sg43
I0
ssS'MJ3'
p64
(dp65
g40
I0
sg41
I0
sg42
I0
sg43
I0
ssS'MJ1_total'
p66
(dp67
g40
I0
sg41
I6
sg42
I0
sg43
I0
ssS'penalites_total'
p68
I0
sS'penalites_saison'
p69
I0
sS'nom'
p70
S'Soled'
p71
sS'C'
p72
I5
sS'transformations_total'
p73
I0
sS'D'
p74
I18
sS'VAL'
p75
I133
sS'club'
p76
S'KHR'
p77
sS'caracs'
p78
(dp79
S'A'
p80
I14
sS'ME'
p81
I6
sS'RP2'
p82
I9
sS'E'
p83
I11
sS'P'
p84
I8
sS'RP1'
p85
I9
sS'JP'
p86
I11
sS'RP_tot'
p87
I11
sS'TO'
p88
I9
sS'PA'
p89
I14
sS'M'
p90
I10
sS'R'
p91
I7
sS'TB'
p92
I8
sS'PL'
p93
I11
sS'TA'
p94
I5
ssS'fatigue'
p95
I11
sS'drop_ratees_total'
p96
I0
sS'blessures_total'
p97
I0
sS'XP'
p98
I0
sS'EV'
p99
F11.233333333333333
sS'penalite_ratees_total'
p100
I0
sS'blessures_saison'
p101
I0
sS'jaunes_total'
p102
I0
sS'caracs_sans_fatigue'
p103
g79
sS'rouges_saison'
p104
I0
sS'anciens_clubs'
p105
S''
p106
sS'transformation_ratees_total'
p107
I0
sS'drops_saison'
p108
I1
sS'transformation_ratees_saison'
p109
I0
sS'MS'
p110
I8
sS'essais_total'
p111
I9
sS'jaunes_saison'
p112
I0
sS'ARM'
p113
S'ES'
p114
sbsS'SA_scd'
p115
(ijoueur
joueur
p116
(dp117
g27
I0
sg28
I0
sg29
I0
sg30
(ijoueur
rang
p118
(dp119
g33
I5
sg34
S'**'
p120
sg36
S'seigneur'
p121
sbsg38
(dp122
g40
I0
sg41
I0
sg42
I0
sg43
I0
ssg44
(dp123
g40
I0
sg41
I0
sg42
I0
sg43
I0
ssg46
I0
sg47
I0
sg48
I0
sg49
I0
sg50
I0
sg51
(g52
S'DL'
p124
g106
g106
tp125
sg57
(ijoueur
rang
p126
(dp127
g33
I5
sg34
S'**'
p128
sg36
g121
sbsg60
(dp129
g40
I0
sg41
I1
sg42
I5
sg43
I0
ssg62
(dp130
g40
I0
sg41
I0
sg42
I0
sg43
I0
ssg64
(dp131
g40
I0
sg41
I0
sg42
I0
sg43
I0
ssg66
(dp132
g40
I0
sg41
I1
sg42
I5
sg43
I0
ssg68
I0
sg69
I0
sg70
S'Dopregd'
p133
sg72
I6
sg73
I0
sg74
I18
sg75
I153
sg76
g77
sg78
(dp134
g80
I10
sg81
I7
sg82
I7
sg83
I12
sg84
I4
sg85
I10
sg86
I5
sg87
I10
sg88
I13
sg89
I10
sg90
I7
sg91
I8
sg92
I5
sg93
I10
sg94
I4
ssg95
I6
sg96
I0
sg97
I0
sg98
I0
sg99
F10.0
sg100
I0
sg101
I0
sg102
I0
sg103
g134
sg104
I0
sg105
S'MSL9'
p135
sg107
I0
sg108
I0
sg109
I0
sg110
I12
sg111
I1
sg112
I0
sg113
S'HB'
p136
sbsS'RJL'
p137
(ijoueur
joueur
p138
(dp139
g27
I0
sg28
I20
sg29
I0
sg30
(ijoueur
rang
p140
(dp141
g33
I5
sg34
S'**'
p142
sg36
g121
sbsg38
(dp143
g40
I0
sg41
I0
sg42
I0
sg43
I0
ssg44
(dp144
g40
I0
sg41
I0
sg42
I0
sg43
I0
ssg46
I0
sg47
I0
sg48
I1
sg49
I0
sg50
I0
sg51
(g52
S'DO'
p145
S'CE'
p146
S'AR'
p147
tp148
sg57
(ijoueur
rang
p149
(dp150
g33
I5
sg34
S'**'
p151
sg36
g121
sbsg60
(dp152
g40
I0
sg41
I6
sg42
I0
sg43
I0
ssg62
(dp153
g40
I0
sg41
I0
sg42
I0
sg43
I0
ssg64
(dp154
g40
I0
sg41
I0
sg42
I0
sg43
I0
ssg66
(dp155
g40
I0
sg41
I6
sg42
I0
sg43
I0
ssg68
I7
sg69
I0
sg70
S'Rotovlav'
p156
sg72
I1
sg73
I0
sg74
I18
sg75
I477
sg76
g77
sg78
(dp157
g80
I12
sg81
I6
sg82
I10
sg83
I11
sg84
I12
sg85
I7
sg86
I13
sg87
I10
sg88
I7
sg89
I11
sg90
I12
sg91
I8
sg92
I8
sg93
I11
sg94
I6
ssg95
I7
sg96
I0
sg97
I0
sg98
I0
sg99
F11.454545454545455
sg100
I0
sg101
I0
sg102
I0
sg103
g157
sg104
I0
sg105
S'KH11'
p158
sg107
I0
sg108
I3
sg109
I0
sg110
I42
sg111
I4
sg112
I0
sg113
S'CV'
p159
sbsS'cap'
p160
(ijoueur
joueur
p161
(dp162
g27
I0
sg28
I0
sg29
I0
sg30
(ijoueur
rang
p163
(dp164
g33
I1
sg34
S'^'
p165
sg36
S'base'
p166
sbsg38
(dp167
g40
I0
sg41
I0
sg42
I0
sg43
I0
ssg44
(dp168
g40
I0
sg41
I0
sg42
I0
sg43
I0
ssg46
I0
sg47
I0
sg48
I0
sg49
I0
sg50
I0
sg51
(g52
S'TL'
p169
S'DL'
p170
g106
tp171
sg57
(ijoueur
rang
p172
(dp173
g33
I1
sg34
g165
sg36
g166
sbsg60
(dp174
g40
I0
sg41
I5
sg42
I0
sg43
I0
ssg62
(dp175
g40
I0
sg41
I0
sg42
I0
sg43
I0
ssg64
(dp176
g40
I0
sg41
I0
sg42
I0
sg43
I0
ssg66
(dp177
g40
I0
sg41
I5
sg42
I0
sg43
I0
ssg68
I0
sg69
I0
sg70
S'Ryed'
p178
sg72
I3
sg73
I0
sg74
I14
sg75
I14
sg76
g77
sg78
(dp179
g80
I10
sg81
I9
sg82
I5
sg83
I12
sg84
I5
sg85
I11
sg86
I2
sg87
I11
sg88
I9
sg89
I8
sg90
I8
sg91
I10
sg92
I3
sg93
I11
sg94
I6
ssg95
I4
sg96
I0
sg97
I0
sg98
I0
sg99
F10.32258064516129
sg100
I0
sg101
I0
sg102
I0
sg103
g179
sg104
I0
sg105
g106
sg107
I0
sg108
I0
sg109
I0
sg110
I1
sg111
I6
sg112
I0
sg113
S'CHS'
p180
sbsS'B4'
p181
(ijoueur
joueur
p182
(dp183
g27
I0
sg28
I5
sg29
I0
sg30
(ijoueur
rang
p184
(dp185
g33
I2
sg34
S'^^'
p186
sg36
S'special'
p187
sbsg38
(dp188
g40
I0
sg41
I1
sg42
I0
sg43
I0
ssg44
(dp189
g40
I0
sg41
I0
sg42
I0
sg43
I0
ssg46
I0
sg47
I0
sg48
I0
sg49
I3
sg50
I9
sg51
(g52
S'AR'
p190
S'AI'
p191
S'CE'
p192
tp193
sg57
(ijoueur
rang
p194
(dp195
g33
I2
sg34
S'^^'
p196
sg36
g187
sbsg60
(dp197
g40
I0
sg41
I5
sg42
I0
sg43
I0
ssg62
(dp198
g40
I0
sg41
I1
sg42
I0
sg43
I0
ssg64
(dp199
g40
I0
sg41
I0
sg42
I0
sg43
I0
ssg66
(dp200
g40
I0
sg41
I5
sg42
I0
sg43
I0
ssg68
I14
sg69
I14
sg70
S'Wydoeth'
p201
sg72
I5
sg73
I9
sg74
I16
sg75
I62
sg76
g77
sg78
(dp202
g80
I10
sg81
I5
sg82
I11
sg83
I10
sg84
I10
sg85
I6
sg86
I11
sg87
I11
sg88
I4
sg89
I10
sg90
I11
sg91
I7
sg92
I10
sg93
I10
sg94
I3
ssg95
I10
sg96
I0
sg97
I0
sg98
I0
sg99
F10.242424242424242
sg100
I3
sg101
I0
sg102
I0
sg103
g202
sg104
I0
sg105
g106
sg107
I1
sg108
I0
sg109
I1
sg110
I4
sg111
I2
sg112
I0
sg113
S'EN'
p203
sbsS'RJC'
p204
g138
sS'B1'
p205
g182
sS'B2'
p206
g182
sS'B3'
p207
g182
sS'SA_pcp2'
p208
(ijoueur
joueur
p209
(dp210
g27
I0
sg28
I0
sg29
I0
sg30
(ijoueur
rang
p211
(dp212
g33
I2
sg34
S'^^'
p213
sg36
g187
sbsg38
(dp214
g40
I0
sg41
I0
sg42
I0
sg43
I0
ssg44
(dp215
g40
I0
sg41
I0
sg42
I0
sg43
I0
ssg46
I0
sg47
I0
sg48
I0
sg49
I0
sg50
I0
sg51
(g52
S'TL'
p216
S'DL'
p217
g106
tp218
sg57
(ijoueur
rang
p219
(dp220
g33
I2
sg34
S'^^'
p221
sg36
g187
sbsg60
(dp222
g40
I0
sg41
I5
sg42
I0
sg43
I0
ssg62
(dp223
g40
I0
sg41
I0
sg42
I0
sg43
I0
ssg64
(dp224
g40
I0
sg41
I0
sg42
I0
sg43
I0
ssg66
(dp225
g40
I0
sg41
I5
sg42
I0
sg43
I0
ssg68
I0
sg69
I0
sg70
S'Filodil'
p226
sg72
I3
sg73
I0
sg74
I13
sg75
I100
sg76
g77
sg78
(dp227
g80
I7
sg81
I9
sg82
I7
sg83
I10
sg84
I7
sg85
I6
sg86
I3
sg87
I7
sg88
I14
sg89
I9
sg90
I8
sg91
I14
sg92
I5
sg93
I14
sg94
I3
ssg95
I11
sg96
I0
sg97
I0
sg98
I0
sg99
F11.578947368421053
sg100
I0
sg101
I0
sg102
I0
sg103
g227
sg104
I0
sg105
S'DKF11'
p228
sg107
I0
sg108
I0
sg109
I0
sg110
I10
sg111
I0
sg112
I0
sg113
S'ES'
p229
sbsS'SA_pcp1'
p230
(ijoueur
joueur
p231
(dp232
g27
I0
sg28
I0
sg29
I0
sg30
(ijoueur
rang
p233
(dp234
g33
I4
sg34
g35
sg36
g37
sbsg38
(dp235
g40
I0
sg41
I1
sg42
I0
sg43
I0
ssg44
(dp236
g40
I0
sg41
I0
sg42
I0
sg43
I0
ssg46
I0
sg47
I0
sg48
I0
sg49
I0
sg50
I0
sg51
(g52
S'DL'
p237
S'N8'
p238
g106
tp239
sg57
(ijoueur
rang
p240
(dp241
g33
I4
sg34
g35
sg36
g37
sbsg60
(dp242
g40
I0
sg41
I5
sg42
I0
sg43
I0
ssg62
(dp243
g40
I0
sg41
I1
sg42
I0
sg43
I0
ssg64
(dp244
g40
I0
sg41
I0
sg42
I0
sg43
I0
ssg66
(dp245
g40
I0
sg41
I5
sg42
I0
sg43
I0
ssg68
I0
sg69
I0
sg70
S'Vyenzhol'
p246
sg72
I7
sg73
I0
sg74
I14
sg75
I152
sg76
g77
sg78
(dp247
g80
I11
sg81
I13
sg82
I6
sg83
I9
sg84
I3
sg85
I11
sg86
I4
sg87
I11
sg88
I14
sg89
I10
sg90
I9
sg91
I9
sg92
I2
sg93
I10
sg94
I6
ssg95
I8
sg96
I0
sg97
I0
sg98
I0
sg99
F11.0
sg100
I0
sg101
I0
sg102
I0
sg103
g247
sg104
I0
sg105
g106
sg107
I0
sg108
I0
sg109
I0
sg110
I15
sg111
I5
sg112
I0
sg113
S'CHS'
p248
sbsS'drop3'
p249
g182
sS'SA_remp1'
p250
(ijoueur
joueur
p251
(dp252
g27
I0
sg28
I0
sg29
I0
sg30
(ijoueur
rang
p253
(dp254
g33
I4
sg34
g35
sg36
g37
sbsg38
(dp255
g40
I0
sg41
I0
sg42
I0
sg43
I0
ssg44
(dp256
g40
I0
sg41
I0
sg42
I1
sg43
I0
ssg46
I0
sg47
I0
sg48
I0
sg49
I0
sg50
I0
sg51
(g52
S'N8'
p257
S'TL'
p258
S'DL'
p259
tp260
sg57
(ijoueur
rang
p261
(dp262
g33
I4
sg34
g35
sg36
g37
sbsg60
(dp263
g40
I0
sg41
I0
sg42
I0
sg43
I0
ssg62
(dp264
g40
I0
sg41
I0
sg42
I0
sg43
I0
ssg64
(dp265
g40
I0
sg41
I0
sg42
I1
sg43
I0
ssg66
(dp266
g40
I0
sg41
I0
sg42
I0
sg43
I0
ssg68
I0
sg69
I0
sg70
S'Karhol'
p267
sg72
I0
sg73
I0
sg74
I9
sg75
I50
sg76
g77
sg78
(dp268
g80
I10
sg81
I9
sg82
I6
sg83
I8
sg84
I5
sg85
I11
sg86
I4
sg87
I11
sg88
I11
sg89
I8
sg90
I7
sg91
I7
sg92
I4
sg93
I8
sg94
I7
ssg95
I0
sg96
I0
sg97
I0
sg98
I0
sg99
F9.027777777777779
sg100
I0
sg101
I0
sg102
I0
sg103
g268
sg104
I0
sg105
g106
sg107
I0
sg108
I0
sg109
I0
sg110
I8
sg111
I12
sg112
I0
sg113
S'CHS'
p269
sbsS'drop2'
p270
g138
sS'SA_remp2'
p271
(ijoueur
joueur
p272
(dp273
g27
I0
sg28
I0
sg29
I0
sg30
(ijoueur
rang
p274
(dp275
g33
I4
sg34
g35
sg36
g37
sbsg38
(dp276
g40
I0
sg41
I4
sg42
I0
sg43
I0
ssg44
(dp277
g40
I0
sg41
I0
sg42
I0
sg43
I0
ssg46
I0
sg47
I0
sg48
I2
sg49
I0
sg50
I0
sg51
(g52
S'TL'
p278
S'N8'
p279
g106
tp280
sg57
(ijoueur
rang
p281
(dp282
g33
I4
sg34
g35
sg36
g37
sbsg60
(dp283
g40
I0
sg41
I1
sg42
I0
sg43
I0
ssg62
(dp284
g40
I0
sg41
I4
sg42
I0
sg43
I0
ssg64
(dp285
g40
I0
sg41
I0
sg42
I0
sg43
I0
ssg66
(dp286
g40
I0
sg41
I1
sg42
I0
sg43
I0
ssg68
I0
sg69
I0
sg70
S'Vgadhr'
p287
sg72
I7
sg73
I0
sg74
I20
sg75
I494
sg76
g77
sg78
(dp288
g80
I9
sg81
I10
sg82
I7
sg83
I12
sg84
I6
sg85
I11
sg86
I5
sg87
I11
sg88
I10
sg89
I8
sg90
I10
sg91
I11
sg92
I4
sg93
I12
sg94
I6
ssg95
I9
sg96
I0
sg97
I0
sg98
I0
sg99
F10.903225806451612
sg100
I0
sg101
I0
sg102
I0
sg103
g288
sg104
I0
sg105
S'QNL11'
p289
sg107
I0
sg108
I0
sg109
I0
sg110
I42
sg111
I11
sg112
I0
sg113
S'HB'
p290
sbssS'totaux'
p291
(dp292
g19
I0
sg20
I0
sg21
I0
ssS'_compo_defaut_fatigue'
p293
Nsg78
(dp294
g4
I0
sg5
I0
sg6
I0
sg7
I0
sg8
I0
sg9
I0
sg10
I0
sg11
I0
sg12
I0
sg13
I0
sg14
I0
sg15
I0
sg16
I0
ssS'joueurs'
p295
(dp296
S'n12'
p297
g25
sS'n13'
p298
(ijoueur
joueur
p299
(dp300
g27
I0
sg28
I0
sg29
I0
sg30
(ijoueur
rang
p301
(dp302
g33
I3
sg34
S'^^^'
p303
sg36
S'rare'
p304
sbsg38
(dp305
g40
I0
sg41
I0
sg42
I0
sg43
I0
ssg44
(dp306
g40
I0
sg41
I6
sg42
I0
sg43
I0
ssg46
I0
sg47
I0
sg48
I1
sg49
I0
sg50
I0
sg51
(g52
S'AR'
p307
S'AI'
p308
S'CE'
p309
tp310
sg57
(ijoueur
rang
p311
(dp312
g33
I3
sg34
S'^^^'
p313
sg36
g304
sbsg60
(dp314
g40
I0
sg41
I0
sg42
I0
sg43
I0
ssg62
(dp315
g40
I0
sg41
I0
sg42
I0
sg43
I0
ssg64
(dp316
g40
I0
sg41
I6
sg42
I0
sg43
I0
ssg66
(dp317
g40
I0
sg41
I0
sg42
I0
sg43
I0
ssg68
I0
sg69
I0
sg70
S'De Portel'
p318
sg72
I2
sg73
I0
sg74
I15
sg75
I100
sg76
g77
sg78
(dp319
g80
I11
sg81
I5
sg82
I11
sg83
I10
sg84
I10
sg85
I9
sg86
I7
sg87
I13
sg88
I3
sg89
I12
sg90
I10
sg91
I8
sg92
I6
sg93
I9
sg94
I4
ssg95
I13
sg96
I0
sg97
I0
sg98
I0
sg99
F10.393939393939394
sg100
I0
sg101
I0
sg102
I0
sg103
g319
sg104
I0
sg105
S'MSL11'
p320
sg107
I0
sg108
I0
sg109
I0
sg110
I10
sg111
I1
sg112
I0
sg113
S'B'
p321
sbsS'n10'
p322
g138
sS'n11'
p323
(ijoueur
joueur
p324
(dp325
g27
I0
sg28
I0
sg29
I0
sg30
(ijoueur
rang
p326
(dp327
g33
I5
sg34
S'xx'
p328
sg36
g121
sbsg38
(dp329
g40
I0
sg41
I0
sg42
I0
sg43
I0
ssg44
(dp330
g40
I0
sg41
I0
sg42
I0
sg43
I0
ssg46
I0
sg47
I0
sg48
I0
sg49
I0
sg50
I0
sg51
(g52
S'AI'
p331
S'AR'
p332
g106
tp333
sg57
(ijoueur
rang
p334
(dp335
g33
I5
sg34
S'xx'
p336
sg36
g121
sbsg60
(dp337
g40
I0
sg41
I5
sg42
I0
sg43
I0
ssg62
(dp338
g40
I0
sg41
I0
sg42
I0
sg43
I0
ssg64
(dp339
g40
I0
sg41
I0
sg42
I0
sg43
I0
ssg66
(dp340
g40
I0
sg41
I5
sg42
I0
sg43
I0
ssg68
I0
sg69
I0
sg70
S'Thrond'
p341
sg72
I4
sg73
I0
sg74
I11
sg75
I236
sg76
g77
sg78
(dp342
g80
I11
sg81
I6
sg82
I10
sg83
I12
sg84
I7
sg85
I10
sg86
I6
sg87
I13
sg88
I6
sg89
I8
sg90
I9
sg91
I6
sg92
I5
sg93
I12
sg94
I6
ssg95
I10
sg96
I0
sg97
I0
sg98
I0
sg99
F10.580645161290322
sg100
I0
sg101
I0
sg102
I0
sg103
g342
sg104
I0
sg105
g106
sg107
I0
sg108
I0
sg109
I0
sg110
I24
sg111
I16
sg112
I0
sg113
S'N'
p343
sbsS'n16'
p344
(ijoueur
joueur
p345
(dp346
g27
I0
sg28
I0
sg29
I0
sg30
(ijoueur
rang
p347
(dp348
g33
I1
sg34
g165
sg36
g166
sbsg38
(dp349
g40
I0
sg41
I0
sg42
I0
sg43
I0
ssg44
(dp350
g40
I0
sg41
I0
sg42
I0
sg43
I0
ssg46
I0
sg47
I0
sg48
I0
sg49
I0
sg50
I0
sg51
(g52
S'TA'
p351
g106
g106
tp352
sg57
(ijoueur
rang
p353
(dp354
g33
I1
sg34
g165
sg36
g166
sbsg60
(dp355
g40
I0
sg41
I1
sg42
I5
sg43
I0
ssg62
(dp356
g40
I0
sg41
I0
sg42
I0
sg43
I0
ssg64
(dp357
g40
I0
sg41
I0
sg42
I0
sg43
I0
ssg66
(dp358
g40
I0
sg41
I1
sg42
I5
sg43
I0
ssg68
I0
sg69
I0
sg70
S'Naitheor'
p359
sg72
I11
sg73
I0
sg74
I20
sg75
I29
sg76
g77
sg78
(dp360
g80
I11
sg81
I8
sg82
I8
sg83
I9
sg84
I5
sg85
I8
sg86
I3
sg87
I9
sg88
I7
sg89
I8
sg90
I7
sg91
I9
sg92
I3
sg93
I9
sg94
I12
ssg95
I3
sg96
I0
sg97
I0
sg98
I0
sg99
F9.344827586206897
sg100
I0
sg101
I0
sg102
I0
sg103
g360
sg104
I0
sg105
g106
sg107
I0
sg108
I0
sg109
I0
sg110
I3
sg111
I0
sg112
I0
sg113
S'CHS'
p361
sbsS'n17'
p362
(ijoueur
joueur
p363
(dp364
g27
I0
sg28
I0
sg29
I0
sg30
(ijoueur
rang
p365
(dp366
g33
I3
sg34
S'^^^'
p367
sg36
g304
sbsg38
(dp368
g40
I0
sg41
I0
sg42
I0
sg43
I0
ssg44
(dp369
g40
I0
sg41
I0
sg42
I0
sg43
I0
ssg46
I0
sg47
I0
sg48
I0
sg49
I0
sg50
I0
sg51
(g52
S'PI'
p370
g106
g106
tp371
sg57
(ijoueur
rang
p372
(dp373
g33
I3
sg34
S'^^^'
p374
sg36
g304
sbsg60
(dp375
g40
I0
sg41
I0
sg42
I1
sg43
I0
ssg62
(dp376
g40
I0
sg41
I0
sg42
I0
sg43
I0
ssg64
(dp377
g40
I0
sg41
I0
sg42
I0
sg43
I0
ssg66
(dp378
g40
I0
sg41
I0
sg42
I1
sg43
I0
ssg68
I0
sg69
I0
sg70
S'Saluum'
p379
sg72
I3
sg73
I0
sg74
I11
sg75
I124
sg76
g77
sg78
(dp380
g80
I7
sg81
I9
sg82
I8
sg83
I11
sg84
I1
sg85
I10
sg86
I0
sg87
I11
sg88
I5
sg89
I5
sg90
I9
sg91
I8
sg92
I0
sg93
I6
sg94
I9
ssg95
I0
sg96
I0
sg97
I0
sg98
I0
sg99
F8.62962962962963
sg100
I0
sg101
I0
sg102
I0
sg103
g380
sg104
I0
sg105
g106
sg107
I0
sg108
I0
sg109
I0
sg110
I8
sg111
I5
sg112
I0
sg113
S'HL'
p381
sbsS'n14'
p382
(ijoueur
joueur
p383
(dp384
g27
I0
sg28
I0
sg29
I0
sg30
(ijoueur
rang
p385
(dp386
g33
I2
sg34
S'<<'
p387
sg36
g187
sbsg38
(dp388
g40
I0
sg41
I0
sg42
I1
sg43
I0
ssg44
(dp389
g40
I0
sg41
I0
sg42
I0
sg43
I0
ssg46
I0
sg47
I0
sg48
I0
sg49
I0
sg50
I0
sg51
(g52
S'C2'
p390
S'AI'
p391
g106
tp392
sg57
(ijoueur
rang
p393
(dp394
g33
I2
sg34
S'<<'
p395
sg36
g187
sbsg60
(dp396
g40
I0
sg41
I0
sg42
I5
sg43
I0
ssg62
(dp397
g40
I0
sg41
I0
sg42
I1
sg43
I0
ssg64
(dp398
g40
I0
sg41
I0
sg42
I0
sg43
I0
ssg66
(dp399
g40
I0
sg41
I0
sg42
I5
sg43
I0
ssg68
I0
sg69
I0
sg70
S'Laror'
p400
sg72
I8
sg73
I0
sg74
I19
sg75
I29
sg76
g77
sg78
(dp401
g80
I9
sg81
I4
sg82
I6
sg83
I9
sg84
I10
sg85
I9
sg86
I9
sg87
I9
sg88
I4
sg89
I12
sg90
I9
sg91
I5
sg92
I6
sg93
I11
sg94
I6
ssg95
I5
sg96
I0
sg97
I0
sg98
I0
sg99
F9.517241379310345
sg100
I0
sg101
I0
sg102
I0
sg103
g401
sg104
I0
sg105
g106
sg107
I0
sg108
I0
sg109
I0
sg110
I2
sg111
I0
sg112
I0
sg113
S'CHS'
p402
sbsS'n15'
p403
g182
sS'n18'
p404
g251
sS'n19'
p405
(ijoueur
joueur
p406
(dp407
g27
I0
sg28
I0
sg29
I0
sg30
(ijoueur
rang
p408
(dp409
g33
I4
sg34
g35
sg36
g37
sbsg38
(dp410
g40
I0
sg41
I1
sg42
I2
sg43
I0
ssg44
(dp411
g40
I0
sg41
I0
sg42
I0
sg43
I0
ssg46
I0
sg47
I0
sg48
I1
sg49
I0
sg50
I0
sg51
(g52
S'N8'
p412
S'TL'
p413
S'DL'
p414
tp415
sg57
(ijoueur
rang
p416
(dp417
g33
I4
sg34
g35
sg36
g37
sbsg60
(dp418
g40
I0
sg41
I1
sg42
I2
sg43
I0
ssg62
(dp419
g40
I0
sg41
I1
sg42
I2
sg43
I0
ssg64
(dp420
g40
I0
sg41
I0
sg42
I0
sg43
I0
ssg66
(dp421
g40
I0
sg41
I1
sg42
I2
sg43
I0
ssg68
I0
sg69
I0
sg70
S'Garrin'
p422
sg72
I1
sg73
I0
sg74
I10
sg75
I98
sg76
g77
sg78
(dp423
g80
I9
sg81
I10
sg82
I8
sg83
I11
sg84
I8
sg85
I10
sg86
I3
sg87
I11
sg88
I9
sg89
I10
sg90
I7
sg91
I10
sg92
I5
sg93
I9
sg94
I5
ssg95
I5
sg96
I0
sg97
I0
sg98
I0
sg99
F9.931034482758621
sg100
I0
sg101
I0
sg102
I0
sg103
g423
sg104
I0
sg105
S'ALT8'
p424
sg107
I0
sg108
I0
sg109
I0
sg110
I13
sg111
I4
sg112
I0
sg113
S'EMP'
p425
sbsS'n22'
p426
(ijoueur
joueur
p427
(dp428
g27
I0
sg28
I0
sg29
I0
sg30
(ijoueur
rang
p429
(dp430
g33
I2
sg34
S'<<'
p431
sg36
g187
sbsg38
(dp432
g40
I0
sg41
I0
sg42
I0
sg43
I0
ssg44
(dp433
g40
I0
sg41
I0
sg42
I0
sg43
I0
ssg46
I0
sg47
I0
sg48
I0
sg49
I0
sg50
I0
sg51
(g52
S'AR'
p434
S'CE'
p435
S'DO'
p436
tp437
sg57
(ijoueur
rang
p438
(dp439
g33
I2
sg34
S'<<'
p440
sg36
g187
sbsg60
(dp441
g40
I0
sg41
I1
sg42
I5
sg43
I0
ssg62
(dp442
g40
I0
sg41
I0
sg42
I0
sg43
I0
ssg64
(dp443
g40
I0
sg41
I0
sg42
I0
sg43
I0
ssg66
(dp444
g40
I0
sg41
I1
sg42
I5
sg43
I0
ssg68
I0
sg69
I0
sg70
S'Northend'
p445
sg72
I4
sg73
I0
sg74
I16
sg75
I19
sg76
g77
sg78
(dp446
g80
I11
sg81
I4
sg82
I7
sg83
I8
sg84
I8
sg85
I7
sg86
I8
sg87
I7
sg88
I8
sg89
I8
sg90
I13
sg91
I8
sg92
I8
sg93
I11
sg94
I5
ssg95
I7
sg96
I0
sg97
I0
sg98
I0
sg99
F9.545454545454545
sg100
I0
sg101
I0
sg102
I0
sg103
g446
sg104
I0
sg105
g106
sg107
I0
sg108
I0
sg109
I0
sg110
I3
sg111
I4
sg112
I0
sg113
S'EN'
p447
sbsS'n21'
p448
(ijoueur
joueur
p449
(dp450
g27
I0
sg28
I0
sg29
I0
sg30
(ijoueur
rang
p451
(dp452
g33
I4
sg34
g35
sg36
g37
sbsg38
(dp453
g40
I0
sg41
I0
sg42
I0
sg43
I0
ssg44
(dp454
g40
I0
sg41
I0
sg42
I0
sg43
I0
ssg46
I0
sg47
I0
sg48
I0
sg49
I0
sg50
I0
sg51
(g52
S'DO'
p455
S'AR'
p456
S'CE'
p457
tp458
sg57
(ijoueur
rang
p459
(dp460
g33
I4
sg34
g35
sg36
g37
sbsg60
(dp461
g40
I0
sg41
I0
sg42
I0
sg43
I0
ssg62
(dp462
g40
I0
sg41
I0
sg42
I0
sg43
I0
ssg64
(dp463
g40
I0
sg41
I0
sg42
I0
sg43
I0
ssg66
(dp464
g40
I0
sg41
I0
sg42
I0
sg43
I0
ssg68
I0
sg69
I0
sg70
S'Blenkyr'
p465
sg72
I1
sg73
I0
sg74
I8
sg75
I20
sg76
g77
sg78
(dp466
g80
I9
sg81
I8
sg82
I6
sg83
I8
sg84
I6
sg85
I8
sg86
I6
sg87
I8
sg88
I6
sg89
I10
sg90
I7
sg91
I6
sg92
I3
sg93
I10
sg94
I8
ssg95
I0
sg96
I0
sg97
I0
sg98
I0
sg99
F7.878787878787879
sg100
I0
sg101
I0
sg102
I0
sg103
g466
sg104
I0
sg105
g106
sg107
I0
sg108
I0
sg109
I0
sg110
I8
sg111
I6
sg112
I0
sg113
S'CHS'
p467
sbsS'n20'
p468
(ijoueur
joueur
p469
(dp470
g27
I0
sg28
I1
sg29
I0
sg30
(ijoueur
rang
p471
(dp472
g33
I2
sg34
S'^^'
p473
sg36
g187
sbsg38
(dp474
g40
I0
sg41
I0
sg42
I6
sg43
I0
ssg44
(dp475
g40
I0
sg41
I0
sg42
I0
sg43
I0
ssg46
I0
sg47
I0
sg48
I0
sg49
I0
sg50
I0
sg51
(g52
S'C1'
p476
S'DO'
p477
g106
tp478
sg57
(ijoueur
rang
p479
(dp480
g33
I2
sg34
S'^^'
p481
sg36
g187
sbsg60
(dp482
g40
I0
sg41
I0
sg42
I0
sg43
I0
ssg62
(dp483
g40
I0
sg41
I0
sg42
I6
sg43
I0
ssg64
(dp484
g40
I0
sg41
I0
sg42
I0
sg43
I0
ssg66
(dp485
g40
I0
sg41
I0
sg42
I0
sg43
I0
ssg68
I68
sg69
I0
sg70
S'Rieulex'
p486
sg72
I1
sg73
I47
sg74
I9
sg75
I40
sg76
g77
sg78
(dp487
g80
I9
sg81
I5
sg82
I6
sg83
I9
sg84
I9
sg85
I8
sg86
I9
sg87
I8
sg88
I7
sg89
I10
sg90
I7
sg91
I6
sg92
I9
sg93
I10
sg94
I5
ssg95
I1
sg96
I0
sg97
I0
sg98
I0
sg99
F8.78125
sg100
I0
sg101
I0
sg102
I0
sg103
g487
sg104
I0
sg105
g106
sg107
I0
sg108
I0
sg109
I0
sg110
I6
sg111
I9
sg112
I0
sg113
g321
sbsS'n8'
p488
g272
sS'n9'
p489
(ijoueur
joueur
p490
(dp491
g27
I0
sg28
I0
sg29
I0
sg30
(ijoueur
rang
p492
(dp493
g33
I6
sg34
S'***'
p494
sg36
S'personnage'
p495
sbsg38
(dp496
g40
I0
sg41
I0
sg42
I0
sg43
I0
ssg44
(dp497
g40
I0
sg41
I0
sg42
I0
sg43
I0
ssg46
I0
sg47
I0
sg48
I0
sg49
I0
sg50
I0
sg51
(g52
S'DM'
p498
S'DO'
p499
S'AR'
p500
tp501
sg57
(ijoueur
rang
p502
(dp503
g33
I6
sg34
S'***'
p504
sg36
g495
sbsg60
(dp505
g40
I0
sg41
I6
sg42
I0
sg43
I0
ssg62
(dp506
g40
I0
sg41
I0
sg42
I0
sg43
I0
ssg64
(dp507
g40
I0
sg41
I0
sg42
I0
sg43
I0
ssg66
(dp508
g40
I0
sg41
I6
sg42
I0
sg43
I0
ssg68
I0
sg69
I0
sg70
S'Eltharion'
p509
sg72
I8
sg73
I0
sg74
I15
sg75
I587
sg76
g77
sg78
(dp510
g80
I14
sg81
I5
sg82
I9
sg83
I12
sg84
I10
sg85
I7
sg86
I9
sg87
I9
sg88
I7
sg89
I14
sg90
I8
sg91
I7
sg92
I8
sg93
I11
sg94
I7
ssg95
I20
sg96
I0
sg97
I0
sg98
I0
sg99
F11.10344827586207
sg100
I0
sg101
I0
sg102
I0
sg103
g510
sg104
I0
sg105
g106
sg107
I0
sg108
I0
sg109
I0
sg110
I59
sg111
I4
sg112
I0
sg113
S'HE'
p511
sbsS'n1'
p512
(ijoueur
joueur
p513
(dp514
g27
I0
sg28
I0
sg29
I0
sg30
(ijoueur
rang
p515
(dp516
g33
I5
sg34
S'**'
p517
sg36
g121
sbsg38
(dp518
g40
I0
sg41
I0
sg42
I0
sg43
I0
ssg44
(dp519
g40
I0
sg41
I0
sg42
I0
sg43
I0
ssg46
I0
sg47
I0
sg48
I0
sg49
I0
sg50
I0
sg51
(g52
S'PI'
p520
g106
g106
tp521
sg57
(ijoueur
rang
p522
(dp523
g33
I4
sg34
S'x'
p524
sg36
g37
sbsg60
(dp525
g40
I0
sg41
I1
sg42
I5
sg43
I0
ssg62
(dp526
g40
I0
sg41
I0
sg42
I0
sg43
I0
ssg64
(dp527
g40
I0
sg41
I0
sg42
I0
sg43
I0
ssg66
(dp528
g40
I0
sg41
I1
sg42
I5
sg43
I0
ssg68
I0
sg69
I0
sg70
S'Nravyx'
p529
sg72
I9
sg73
I0
sg74
I25
sg75
I114
sg76
g77
sg78
(dp530
g80
I10
sg81
I10
sg82
I9
sg83
I8
sg84
I4
sg85
I11
sg86
I3
sg87
I13
sg88
I9
sg89
I10
sg90
I8
sg91
I7
sg92
I3
sg93
I10
sg94
I8
ssg95
I5
sg96
I0
sg97
I0
sg98
I0
sg99
F9.407407407407407
sg100
I0
sg101
I0
sg102
I0
sg103
g530
sg104
I0
sg105
g106
sg107
I0
sg108
I0
sg109
I0
sg110
I12
sg111
I0
sg112
I0
sg113
S'CHS'
p531
sbsS'n2'
p532
(ijoueur
joueur
p533
(dp534
g27
I0
sg28
I0
sg29
I0
sg30
(ijoueur
rang
p535
(dp536
g33
I5
sg34
S'**'
p537
sg36
g121
sbsg38
(dp538
g40
I0
sg41
I0
sg42
I0
sg43
I0
ssg44
(dp539
g40
I0
sg41
I0
sg42
I0
sg43
I0
ssg46
I0
sg47
I0
sg48
I0
sg49
I0
sg50
I0
sg51
(g52
S'TA'
p540
S'TL'
p541
S'N8'
p542
tp543
sg57
(ijoueur
rang
p544
(dp545
g33
I5
sg34
S'**'
p546
sg36
g121
sbsg60
(dp547
g40
I0
sg41
I5
sg42
I0
sg43
I0
ssg62
(dp548
g40
I0
sg41
I0
sg42
I0
sg43
I0
ssg64
(dp549
g40
I0
sg41
I0
sg42
I0
sg43
I0
ssg66
(dp550
g40
I0
sg41
I5
sg42
I0
sg43
I0
ssg68
I0
sg69
I0
sg70
S'Gound'
p551
sg72
I2
sg73
I0
sg74
I10
sg75
I119
sg76
g77
sg78
(dp552
g80
I9
sg81
I8
sg82
I6
sg83
I11
sg84
I4
sg85
I10
sg86
I4
sg87
I10
sg88
I6
sg89
I9
sg90
I9
sg91
I11
sg92
I3
sg93
I6
sg94
I10
ssg95
I3
sg96
I0
sg97
I0
sg98
I0
sg99
F9.448275862068966
sg100
I0
sg101
I0
sg102
I0
sg103
g552
sg104
I0
sg105
S'FS9'
p553
sg107
I0
sg108
I0
sg109
I0
sg110
I19
sg111
I14
sg112
I0
sg113
S'O'
p554
sbsS'n3'
p555
(ijoueur
joueur
p556
(dp557
g27
I0
sg28
I0
sg29
I0
sg30
(ijoueur
rang
p558
(dp559
g33
I4
sg34
g35
sg36
g37
sbsg38
(dp560
g40
I0
sg41
I0
sg42
I0
sg43
I0
ssg44
(dp561
g40
I0
sg41
I0
sg42
I0
sg43
I0
ssg46
I0
sg47
I0
sg48
I2
sg49
I0
sg50
I0
sg51
(g52
S'PI'
p562
g106
g106
tp563
sg57
(ijoueur
rang
p564
(dp565
g33
I4
sg34
g35
sg36
g37
sbsg60
(dp566
g40
I0
sg41
I5
sg42
I0
sg43
I0
ssg62
(dp567
g40
I0
sg41
I0
sg42
I0
sg43
I0
ssg64
(dp568
g40
I0
sg41
I0
sg42
I0
sg43
I0
ssg66
(dp569
g40
I0
sg41
I5
sg42
I0
sg43
I0
ssg68
I0
sg69
I0
sg70
S'Stavaer'
p570
sg72
I5
sg73
I0
sg74
I15
sg75
I168
sg76
g77
sg78
(dp571
g80
I11
sg81
I9
sg82
I8
sg83
I11
sg84
I8
sg85
I11
sg86
I6
sg87
I12
sg88
I7
sg89
I10
sg90
I7
sg91
I10
sg92
I9
sg93
I12
sg94
I7
ssg95
I9
sg96
I0
sg97
I0
sg98
I0
sg99
F10.518518518518519
sg100
I0
sg101
I0
sg102
I1
sg103
g571
sg104
I0
sg105
S'AL11'
p572
sg107
I0
sg108
I0
sg109
I0
sg110
I7
sg111
I5
sg112
I1
sg113
S'ES'
p573
sbsS'n4'
p574
g116
sS'n5'
p575
g231
sS'n6'
p576
g161
sS'n7'
p577
g209
ssS'remplacements'
p578
(dp579
g344
S'n0'
p580
sg362
g580
sg404
g580
sg405
g580
sg426
g580
sg448
g580
sg468
g580
ssb.