(iclub
compo
p0
(dp1
S'caracs_old'
p2
(dp3
S'A'
p4
F172.0
sS'ME'
p5
cnumpy.core.multiarray
scalar
p6
(cnumpy
dtype
p7
(S'f8'
p8
I0
I1
tp9
Rp10
(I3
S'<'
p11
NNNI-1
I-1
I0
tp12
bS'\x00\x00\x00\x00\x00PZ@'
p13
tp14
Rp15
sS'E'
p16
F205.0
sS'OplusAV'
p17
F102.0
sS'TO_off'
p18
F123.0
sS'OplusAR'
p19
F115.75
sS'M'
p20
F98.5
sS'JP'
p21
F99.0
sS'OmoinsAR'
p22
F106.25
sS'PA'
p23
F109.25
sS'TO_def'
p24
F111.5
sS'OmoinsAV'
p25
F111.25
sS'R'
p26
F182.5
ssS'totaux_old'
p27
(dp28
S'T2'
p29
F190.25
sS'T3'
p30
F102.5
sS'T1'
p31
F202.5
ssS'roles'
p32
(dp33
S'drop1'
p34
(ijoueur
joueur
p35
(dp36
S'EV_saison_11'
p37
F11.233333333333333
sS'rouges_total'
p38
I0
sS'EV_saison_12'
p39
F12.133333333333333
sS'residu_experience'
p40
F16.5
sS'changements_postes'
p41
S''
p42
sS'drops_total'
p43
I12
sS'xp_total'
p44
F54.77477612623294
sS'blessure'
p45
I0
sS'points_retraite'
p46
I0
sS'RG_max'
p47
ccopy_reg
_reconstructor
p48
(cjoueur
rang_new
p49
c__builtin__
object
p50
Ntp51
Rp52
(dp53
S'type_nb'
p54
I4
sS'rang'
p55
S'*'
p56
sS'type'
p57
S'heros'
p58
sbsS'caracs_saison_13'
p59
(dp60
sS'MJ2_total'
p61
(dp62
S'SR'
p63
I3
sS'CT'
p64
I0
sS'CR'
p65
I0
sS'ST'
p66
I1
ssS'EV_saison_13'
p67
F11.666666666666666
sS'xp'
p68
I0
sS'rand_retraite'
p69
I10
sS'drop_rates_total'
p70
I0
sS'carte_evolution'
p71
(dp72
S'couleur'
p73
I1
sS'valeur'
p74
I7
sS'r_n'
p75
S'n'
p76
ssS'drop_rates_saison'
p77
I0
sS'xp_saison'
p78
F54.77477612623294
sS'nouveau_bonus_evolution'
p79
I00
sS'num_dernier_bonus'
p80
I5
sS'essais_saison'
p81
I1
sS'penalite_ratees_saison'
p82
I0
sS'transformations_saison'
p83
I0
sS'bonus'
p84
I3
sS'veut_partir'
p85
I00
sS'experience_total'
p86
F21.5
sS'MJ1'
p87
(dp88
S'SR'
p89
I0
sS'ST'
p90
I0
sS'CR'
p91
I0
sS'CT'
p92
I5
ssS'MJ2'
p93
(dp94
g89
I0
sg90
I0
sg91
I0
sg92
I0
ssS'MJ3'
p95
(dp96
g89
I0
sg90
I0
sg91
I0
sg92
I0
ssS'MJ1_total'
p97
(dp98
g63
I2
sg64
I49
sg65
I0
sg66
I12
ssS'penalites_total'
p99
I5
sS'postes_maitrises'
p100
(lp101
S'dummy'
p102
aI01
aI01
aI01
asS'penalites_saison'
p103
I0
sS'nom'
p104
S'Soled'
p105
sS'C'
p106
I5
sS'transformations_total'
p107
I0
sS'MS_probleme'
p108
I00
sS'VAL'
p109
I133
sS'club'
p110
S'KHR'
p111
sS'retraite'
p112
I00
sS'D'
p113
I18
sS'caracs'
p114
(dp115
S'A'
p116
I13
sS'ME'
p117
I6
sS'RP2'
p118
I12
sS'E'
p119
I12
sS'TO'
p120
I9
sS'RP1'
p121
I11
sS'JP'
p122
I10
sS'RP_tot'
p123
I14
sS'P'
p124
I10
sS'PA'
p125
I14
sS'M'
p126
I10
sS'R'
p127
I5
sS'TB'
p128
I8
sS'PL'
p129
I12
sS'TA'
p130
I5
ssS'caracs_sans_fatigue'
p131
(dp132
g116
I14
sg117
I6
sg118
I12
sg119
I12
sg124
I10
sg121
I11
sg122
I10
sg123
I14
sg120
I9
sg125
I14
sg126
I10
sg127
I6
sg128
I8
sg129
I13
sg130
I5
ssS'RG'
p133
g48
(g49
g50
Ntp134
Rp135
(dp136
g54
I4
sg55
g56
sg57
g58
sbsS'fatigue'
p137
g6
(g7
(S'i4'
p138
I0
I1
tp139
Rp140
(I3
S'<'
p141
NNNI-1
I-1
I0
tp142
bS'\n\x00\x00\x00'
p143
tp144
Rp145
sS'drop_ratees_total'
p146
I0
sS'blessures_total'
p147
I0
sS'experience_saison'
p148
I0
sS'XP'
p149
I0
sS'EV'
p150
F12.1
sS'penalite_ratees_total'
p151
I0
sS'postes'
p152
(S'dummy'
p153
S'C1'
p154
S'AR'
p155
S'AI'
p156
tp157
sS'MJ3_total'
p158
(dp159
g63
I2
sg64
I0
sg65
I0
sg66
I2
ssS'evolution'
p160
I5
sS'blessures_saison'
p161
I0
sS'jj_passe'
p162
(dp163
S's13'
p164
(ijoueur
joueur
p165
(dp166
g38
I0
sg40
F16.5
sg146
I0
sg43
I0
sg80
I5
sg45
I0
sg47
g52
sg61
(dp167
S'SR'
p168
I0
sS'ST'
p169
I0
sS'CR'
p170
I0
sS'CT'
p171
I0
ssg158
g159
sS'anciens_clubs'
p172
g42
sg71
(dp173
S'couleur'
p174
I1
sS'valeur'
p175
I1
sS'r_n'
p176
S'n'
p177
ssg77
I0
sg81
I5
sg82
I0
sg83
I0
sg152
g157
sg85
I00
sg133
g135
sg86
F2.5
sg108
I00
sg95
(dp178
S'SR'
p179
I0
sS'CT'
p180
I0
sS'CR'
p181
I0
sS'ST'
p182
I0
ssg97
g98
sg99
I0
sg100
(lp183
S'dummy'
p184
aI01
aI01
aI01
asg87
(dp185
g179
I1
sg180
I16
sg181
I0
sg182
I5
ssg110
g111
sg104
S'Soled (13)'
p186
sg106
I5
sg107
I0
sg113
I18
sg109
I133
sg84
I0
sg114
(dp187
S'A'
p188
I0
sS'ME'
p189
I0
sS'RP2'
p190
I0
sS'E'
p191
I0
sS'TO'
p192
I0
sS'RP1'
p193
I0
sS'JP'
p194
I0
sS'RP_tot'
p195
I0
sS'P'
p196
I0
sS'PA'
p197
I0
sS'M'
p198
I0
sS'R'
p199
I0
sS'TB'
p200
I0
sS'PL'
p201
I0
sS'TA'
p202
I0
ssg162
(dp203
sg137
I0
sg41
g42
sg147
I0
sg148
F21.5
sg149
I0
sg150
F11.666666666666666
sg151
I0
sg160
I0
sg93
(dp204
g179
I0
sg180
I0
sg181
I0
sg182
I0
ssS'jaunes_total'
p205
I0
sg131
(dp206
S'A'
p207
I13
sS'ME'
p208
I6
sS'RP2'
p209
I11
sS'E'
p210
I12
sS'P'
p211
I9
sS'RP1'
p212
I11
sS'JP'
p213
I9
sS'RP_tot'
p214
I14
sS'TO'
p215
I9
sS'PA'
p216
I14
sS'M'
p217
I10
sS'R'
p218
I6
sS'TB'
p219
I9
sS'PL'
p220
I12
sS'TA'
p221
I5
ssS'rouges_saison'
p222
I0
sS'transformation_ratees_total'
p223
I0
sS'drops_saison'
p224
I0
sS'transformation_ratees_saison'
p225
I0
sS'MS'
p226
I49
sS'essais_total'
p227
I0
sg161
I0
sg103
I5
sS'jaunes_saison'
p228
I0
sS'ARM'
p229
S'ES'
p230
sbsS's12'
p231
(ijoueur
joueur
p232
(dp233
g37
F11.233333333333333
sg38
I0
sg40
F7.0
sg41
g42
sg43
I12
sg80
I4
sg45
I0
sg47
g48
(g49
g50
Ntp234
Rp235
(dp236
g54
I4
sg55
S'*'
p237
sg57
S'heros'
p238
sbsg61
(dp239
S'SR'
p240
I3
sS'CT'
p241
I0
sS'CR'
p242
I0
sS'ST'
p243
I1
ssg158
(dp244
g240
I2
sg241
I0
sg242
I0
sg243
I2
ssg70
I0
sg71
(dp245
g174
I1
sg175
I1
sg176
g177
ssg77
I0
sg81
I4
sg82
I0
sg83
I0
sg152
(S'dummy'
p246
S'C1'
p247
S'AR'
p248
S'AI'
p249
tp250
sg85
I00
sg133
g48
(g49
g50
Ntp251
Rp252
(dp253
g54
I4
sg55
g237
sg57
g238
sbsg86
F2.0
sg108
I01
sg95
(dp254
S'SR'
p255
I0
sS'ST'
p256
I0
sS'CR'
p257
I0
sS'CT'
p258
I0
ssg97
(dp259
g240
I1
sg241
I28
sg242
I0
sg243
I7
ssg99
I0
sg100
(lp260
g184
aI01
aI01
aI01
asg87
(dp261
g255
I0
sg256
I7
sg257
I0
sg258
I14
ssg110
S'KHR'
p262
sg104
S'Soled (12)'
p263
sg106
I5
sg107
I0
sg113
I18
sg109
I133
sg84
I0
sg114
(dp264
S'A'
p265
I14
sS'ME'
p266
I6
sS'RP2'
p267
I11
sS'E'
p268
I12
sS'P'
p269
I9
sS'RP1'
p270
I11
sS'JP'
p271
I11
sS'RP_tot'
p272
I15
sS'TO'
p273
I9
sS'PA'
p274
I14
sS'M'
p275
I10
sS'R'
p276
I7
sS'TB'
p277
I8
sS'PL'
p278
I12
sS'TA'
p279
I5
ssg162
(dp280
S's11'
p281
(ijoueur
joueur
p282
(dp283
g38
I0
sg43
I11
sg45
I0
sg47
g48
(g49
g50
Ntp284
Rp285
(dp286
g54
I4
sg55
S'*'
p287
sg57
S'heros'
p288
sbsg61
(dp289
S'SR'
p290
I3
sS'CT'
p291
I0
sS'CR'
p292
I0
sS'ST'
p293
I1
ssg158
(dp294
g290
I2
sg291
I0
sg292
I0
sg293
I2
ssg70
I0
sg77
I0
sg108
I01
sg81
I2
sg82
I0
sg83
I0
sg152
(S'dummy'
p295
S'C1'
p296
S'AR'
p297
S'AI'
p298
tp299
sg85
I01
sg133
g48
(g49
g50
Ntp300
Rp301
(dp302
g54
I4
sg55
g287
sg57
g288
sbsg87
(dp303
g290
I1
sg291
I14
sg292
I0
sg293
I0
ssg93
(dp304
g290
I3
sg291
I0
sg292
I0
sg293
I1
ssg95
(dp305
g290
I2
sg291
I0
sg292
I0
sg293
I2
ssg97
(dp306
g290
I1
sg291
I14
sg292
I0
sg293
I0
ssg99
I0
sg103
I0
sg104
S'Soled'
p307
sg106
I5
sg107
I0
sg113
I18
sg109
I133
sg110
S'KHR'
p308
sg114
(dp309
S'A'
p310
I14
sS'ME'
p311
I6
sS'RP2'
p312
I9
sS'E'
p313
I11
sS'P'
p314
I8
sS'RP1'
p315
I9
sS'JP'
p316
I11
sS'RP_tot'
p317
I11
sS'TO'
p318
I9
sS'PA'
p319
I14
sS'M'
p320
I10
sS'R'
p321
I7
sS'TB'
p322
I8
sS'PL'
p323
I11
sS'TA'
p324
I5
ssg137
I0
sg146
I0
sg147
I0
sg149
I0
sg150
F11.233333333333333
sg151
I0
sg161
I0
sg205
I0
sS'caracs_saison_11'
p325
(dp326
S'A'
p327
I14
sS'ME'
p328
I6
sS'RP2'
p329
I9
sS'E'
p330
I11
sS'P'
p331
I8
sS'RP1'
p332
I9
sS'JP'
p333
I11
sS'RP_tot'
p334
I11
sS'TO'
p335
I9
sS'PA'
p336
I14
sS'M'
p337
I10
sS'R'
p338
I7
sS'TB'
p339
I8
sS'PL'
p340
I11
sS'TA'
p341
I5
ssg131
g309
sg222
I0
sg172
g42
sg223
I0
sg224
I3
sg225
I0
sg226
I8
sg227
I10
sg228
I0
sg229
S'ES'
p342
sbssg137
I7
sg146
I0
sg147
I0
sg148
F21.0
sg149
I0
sg150
F12.133333333333333
sg151
I0
sg160
I0
sg93
(dp343
g255
I0
sg256
I0
sg257
I0
sg258
I0
ssg205
I1
sg325
(dp344
S'A'
p345
I14
sS'ME'
p346
I6
sS'RP2'
p347
I9
sS'E'
p348
I11
sS'TO'
p349
I9
sS'RP1'
p350
I9
sS'JP'
p351
I11
sS'RP_tot'
p352
I11
sS'P'
p353
I8
sS'PA'
p354
I14
sS'M'
p355
I10
sS'R'
p356
I7
sS'TB'
p357
I8
sS'PL'
p358
I11
sS'TA'
p359
I5
ssg131
g264
sg222
I0
sg172
g42
sg223
I0
sg224
I1
sg225
I0
sg226
I49
sg227
I14
sg161
I0
sg103
I0
sg228
I1
sg229
S'ES'
p360
sbsS's11'
p361
(ijoueur
joueur
p362
(dp363
g38
I0
sg40
F7.0
sg43
I11
sg80
I2
sg45
I0
sg47
g48
(g49
g50
Ntp364
Rp365
(dp366
g54
I4
sg55
S'*'
p367
sg57
S'heros'
p368
sbsg61
(dp369
S'SR'
p370
I3
sS'CT'
p371
I0
sS'CR'
p372
I0
sS'ST'
p373
I1
ssg158
(dp374
g370
I2
sg371
I0
sg372
I0
sg373
I2
ssg70
I0
sg71
(dp375
g174
I1
sg175
I1
sg176
g177
ssg77
I0
sg81
I2
sg82
I0
sg83
I0
sg152
(S'dummy'
p376
S'C1'
p377
S'AR'
p378
S'AI'
p379
tp380
sg85
I01
sg133
g48
(g49
g50
Ntp381
Rp382
(dp383
g54
I4
sg55
g367
sg57
g368
sbsg86
F20.0
sg108
I01
sg95
(dp384
g370
I2
sg371
I0
sg372
I0
sg373
I2
ssg97
(dp385
g370
I1
sg371
I14
sg372
I0
sg373
I0
ssg99
I0
sg100
(lp386
g184
aI01
aI01
aI01
asg103
I0
sg110
S'KHR'
p387
sg104
S'Soled (11)'
p388
sg106
I5
sg107
I0
sg113
I18
sg109
I133
sg84
I0
sg87
(dp389
g370
I1
sg371
I14
sg372
I0
sg373
I0
ssg114
(dp390
S'A'
p391
I14
sS'ME'
p392
I6
sS'RP2'
p393
I9
sS'E'
p394
I11
sS'P'
p395
I8
sS'RP1'
p396
I9
sS'JP'
p397
I11
sS'RP_tot'
p398
I11
sS'TO'
p399
I9
sS'PA'
p400
I14
sS'M'
p401
I10
sS'R'
p402
I7
sS'TB'
p403
I8
sS'PL'
p404
I11
sS'TA'
p405
I5
ssg137
I0
sg146
I0
sg147
I0
sg148
F20.0
sg149
I0
sg150
F11.233333333333333
sg151
I0
sg160
I0
sg93
(dp406
g370
I3
sg371
I0
sg372
I0
sg373
I1
ssg205
I0
sg325
(dp407
S'A'
p408
I14
sS'ME'
p409
I6
sS'RP2'
p410
I9
sS'E'
p411
I11
sS'P'
p412
I8
sS'RP1'
p413
I9
sS'JP'
p414
I11
sS'RP_tot'
p415
I11
sS'TO'
p416
I9
sS'PA'
p417
I14
sS'M'
p418
I10
sS'R'
p419
I7
sS'TB'
p420
I8
sS'PL'
p421
I11
sS'TA'
p422
I5
ssg131
g390
sg222
I0
sg172
g42
sg223
I0
sg224
I3
sg225
I0
sg226
I8
sg227
I10
sg161
I0
sg228
I0
sg229
S'ES'
p423
sbssg205
I1
sg325
(dp424
S'A'
p425
I14
sS'ME'
p426
I6
sS'RP2'
p427
I9
sS'E'
p428
I11
sS'TO'
p429
I9
sS'RP1'
p430
I9
sS'JP'
p431
I11
sS'RP_tot'
p432
I11
sS'P'
p433
I8
sS'PA'
p434
I14
sS'M'
p435
I10
sS'R'
p436
I7
sS'TB'
p437
I8
sS'PL'
p438
I11
sS'TA'
p439
I5
ssg222
I0
sS'caracs_saison_12'
p440
(dp441
sg223
I0
sg172
g42
sg224
I0
sg225
I0
sg226
I49
sg227
I20
sg228
I0
sg229
g230
sbsS'SA_scd'
p442
(ijoueur
joueur
p443
(dp444
g38
I0
sg39
F9.13888888888889
sg40
F3.5
sg41
g42
sg43
I0
sg44
I0
sS'poste3'
p445
g42
sg45
I0
sS'poste1'
p446
g42
sg46
I0
sg47
g48
(g49
g50
Ntp447
Rp448
(dp449
g54
I2
sg55
S'^^'
p450
sg57
S'special'
p451
sbsg59
(dp452
sg61
(dp453
S'SR'
p454
I0
sS'ST'
p455
I0
sS'CR'
p456
I6
sS'CT'
p457
I1
ssg67
F9.444444444444445
sg68
I0
sg69
I10
sg172
g42
sg71
(dp458
g73
I3
sg74
I5
sg75
g76
ssg77
I0
sg78
I0
sg79
I01
sg80
I3
sg81
I0
sg82
I0
sg83
I0
sg84
I0
sg85
I00
sg86
F3.0
sg87
(dp459
g89
I0
sg90
I0
sg91
I0
sg92
I0
ssg93
(dp460
g89
I0
sg90
I0
sg91
I0
sg92
I0
ssg95
(dp461
g89
I0
sg90
I0
sg91
I0
sg92
I0
ssg97
(dp462
g454
I0
sg455
I0
sg456
I1
sg457
I3
ssg99
I0
sg100
(lp463
g102
aI01
aI01
aI00
asg103
I0
sg104
S'Chartoer'
p464
sg106
I12
sg107
I0
sg108
I00
sg109
I42
sg110
g111
sg112
I00
sS'poste2'
p465
g42
sg113
I20
sg114
(dp466
S'RP1'
p467
I10
sS'ME'
p468
I10
sS'RP2'
p469
I6
sS'E'
p470
I9
sS'P'
p471
I5
sS'JP'
p472
I3
sS'M'
p473
I10
sS'RP_tot'
p474
I10
sS'TO'
p475
I10
sS'PA'
p476
I8
sS'A'
p477
I10
sS'R'
p478
I9
sS'TB'
p479
I4
sS'PL'
p480
I11
sS'TA'
p481
I5
ssg133
g448
sg137
I0
sg146
I0
sg147
I0
sg148
I0
sg149
I0
sg150
F9.777777777777779
sg151
I0
sg152
(S'dummy'
p482
S'N8'
p483
S'DL'
p484
g42
tp485
sg158
(dp486
g454
I0
sg455
I0
sg456
I0
sg457
I0
ssg160
I2
sg161
I0
sg162
(dp487
S's13'
p488
(ijoueur
joueur
p489
(dp490
g38
I0
sg40
F3.5
sg146
I0
sg43
I0
sg80
I3
sg45
I0
sg47
g448
sg61
(dp491
g168
I0
sg169
I0
sg170
I0
sg171
I0
ssg158
g486
sg172
g42
sg71
(dp492
g174
I1
sg175
I1
sg176
g177
ssg77
I0
sg81
I0
sg82
I0
sg83
I0
sg152
g485
sg85
I00
sg133
g448
sg86
F2.5
sg108
I00
sg95
(dp493
g179
I0
sg180
I0
sg181
I0
sg182
I0
ssg97
g462
sg99
I0
sg100
(lp494
g184
aI01
aI01
aI00
asg87
(dp495
g179
I0
sg180
I2
sg181
I1
sg182
I0
ssg110
g111
sg104
S'Chartoer (13)'
p496
sg106
I12
sg107
I0
sg113
I20
sg109
I42
sg84
I0
sg114
(dp497
g188
I0
sg189
I0
sg190
I0
sg191
I0
sg192
I0
sg193
I0
sg194
I0
sg195
I0
sg196
I0
sg197
I0
sg198
I0
sg199
I0
sg200
I0
sg201
I0
sg202
I0
ssg162
(dp498
sg137
I0
sg41
g42
sg147
I0
sg148
F3.0
sg149
I0
sg150
F9.444444444444445
sg151
I0
sg160
I0
sg93
(dp499
g179
I0
sg180
I0
sg181
I1
sg182
I0
ssg205
I0
sg131
(dp500
g207
I10
sg208
I10
sg209
I6
sg210
I9
sg211
I5
sg212
I9
sg213
I3
sg214
I9
sg215
I10
sg216
I8
sg217
I10
sg218
I8
sg219
I4
sg220
I11
sg221
I5
ssg222
I0
sg223
I0
sg224
I0
sg225
I0
sg226
I3
sg227
I0
sg161
I0
sg103
I0
sg228
I0
sg229
S'CHS'
p501
sbsg231
(ijoueur
joueur
p502
(dp503
g38
I0
sg40
F0.5
sg41
g42
sg43
I0
sg80
I3
sg445
g42
sg45
I0
sg446
g42
sg47
g48
(g49
g50
Ntp504
Rp505
(dp506
g54
I2
sg55
S'^^'
p507
sg57
S'special'
p508
sbsg61
(dp509
S'SR'
p510
I0
sS'ST'
p511
I0
sS'CR'
p512
I5
sS'CT'
p513
I1
ssg158
(dp514
g510
I0
sg511
I0
sg512
I0
sg513
I0
ssg172
g42
sg71
(dp515
g174
I1
sg175
I1
sg176
g177
ssg77
I0
sg81
I0
sg82
I0
sg83
I0
sg110
g262
sg85
I00
sg86
F4.5
sg87
(dp516
g510
I0
sg511
I0
sg512
I0
sg513
I1
ssg108
I01
sg95
(dp517
g510
I0
sg511
I0
sg512
I0
sg513
I0
ssg97
(dp518
g510
I0
sg511
I0
sg512
I0
sg513
I1
ssg99
I0
sg100
(lp519
g184
aI01
aI01
aI00
asg103
I0
sg104
S'Chartoer (12)'
p520
sg106
I12
sg107
I0
sg113
I20
sg109
I23
sg84
I0
sg465
g42
sg114
(dp521
S'RP1'
p522
I8
sS'ME'
p523
I9
sS'RP2'
p524
I6
sS'E'
p525
I9
sS'TO'
p526
I10
sS'M'
p527
I7
sS'JP'
p528
I3
sS'RP_tot'
p529
I8
sS'P'
p530
I5
sS'PA'
p531
I8
sS'A'
p532
I10
sS'R'
p533
I8
sS'TB'
p534
I4
sS'PL'
p535
I11
sS'TA'
p536
I4
ssg133
g48
(g49
g50
Ntp537
Rp538
(dp539
g54
I1
sg55
S'^'
p540
sg57
S'base'
p541
sbsg137
I0
sg146
I0
sg147
I0
sg148
F4.5
sg149
I0
sg150
F9.13888888888889
sg151
I0
sg152
(S'dummy'
p542
S'N8'
p543
S'DL'
p544
g42
tp545
sg160
I0
sg93
(dp546
g510
I0
sg511
I0
sg512
I5
sg513
I1
ssg162
(dp547
sg205
I0
sg131
g521
sg222
I0
sg223
I0
sg224
I0
sg225
I0
sg226
I2
sg227
I0
sg161
I0
sg228
I0
sg229
S'CHS'
p548
sbssg205
I1
sg131
(dp549
g467
I10
sg468
I10
sg469
I6
sg470
I9
sg475
I10
sg473
I10
sg472
I3
sg474
I10
sg471
I5
sg476
I8
sg477
I10
sg478
I9
sg479
I4
sg480
I11
sg481
I5
ssg222
I0
sg440
(dp550
sg223
I0
sg224
I0
sg225
I0
sg226
I3
sg227
I0
sg228
I0
sg229
g501
sbsS'RJL'
p551
(ijoueur
joueur
p552
(dp553
g37
F11.10344827586207
sg38
I2
sg39
F11.620689655172415
sg40
F5.0
sg41
g42
sg43
I6
sg44
F54.77477612623294
sg45
I0
sg46
I0
sg47
g48
(g49
g50
Ntp554
Rp555
(dp556
g54
I6
sg55
S'***'
p557
sg57
S'personnage'
p558
sbsg59
(dp559
sg61
(dp560
S'SR'
p561
I0
sS'ST'
p562
I0
sS'CR'
p563
I0
sS'CT'
p564
I0
ssg67
F11.413793103448276
sg68
I0
sg69
I10
sg70
I0
sg71
(dp565
S'couleur'
p566
I1
sS'valeur'
p567
I5
sS'r_n'
p568
S'n'
p569
ssg77
I0
sg78
F54.77477612623294
sg79
I00
sg80
I7
sg81
I0
sg82
I1
sg83
I0
sg84
I3
sg85
I00
sg86
F21.0
sg87
(dp570
S'SR'
p571
I0
sS'CT'
p572
I5
sS'CR'
p573
I0
sS'ST'
p574
I0
ssg93
(dp575
g571
I0
sg572
I0
sg573
I0
sg574
I0
ssg95
(dp576
g571
I0
sg572
I0
sg573
I0
sg574
I0
ssg97
(dp577
g561
I0
sg562
I20
sg563
I0
sg564
I47
ssg99
I2
sg100
(lp578
S'dummy'
p579
aI01
aI01
aI01
asg103
I2
sg104
S'Eltharion'
p580
sg106
I8
sg107
I0
sg108
I00
sg109
I587
sg110
S'KHR'
p581
sg112
I00
sg113
I15
sg114
(dp582
S'A'
p583
I13
sS'ME'
p584
I5
sS'RP2'
p585
I9
sS'E'
p586
I12
sS'P'
p587
I13
sS'RP1'
p588
I7
sS'JP'
p589
I12
sS'RP_tot'
p590
I9
sS'TO'
p591
I7
sS'PA'
p592
I14
sS'M'
p593
I9
sS'R'
p594
I7
sS'TB'
p595
I9
sS'PL'
p596
I10
sS'TA'
p597
I7
ssg131
(dp598
g583
I14
sg584
I5
sg585
I9
sg586
I12
sg591
I7
sg588
I7
sg589
I12
sg590
I9
sg587
I13
sg592
I14
sg593
I9
sg594
I8
sg595
I9
sg596
I11
sg597
I7
ssg133
g48
(g49
g50
Ntp599
Rp600
(dp601
g54
I6
sg55
S'***'
p602
sg57
g558
sbsg137
g6
(g140
S'\t\x00\x00\x00'
p603
tp604
Rp605
sg146
I0
sg147
I0
sg148
I0
sg149
I0
sg150
F11.862068965517242
sg151
I1
sg152
(S'dummy'
p606
S'DM'
p607
S'DO'
p608
S'AR'
p609
tp610
sg158
(dp611
g561
I0
sg562
I0
sg563
I0
sg564
I0
ssg160
I5
sg161
I0
sg162
(dp612
S's13'
p613
(ijoueur
joueur
p614
(dp615
g38
I0
sg40
F5.0
sg146
I0
sg43
I0
sg80
I7
sg45
I0
sg47
g555
sg61
(dp616
S'SR'
p617
I0
sS'CT'
p618
I0
sS'CR'
p619
I0
sS'ST'
p620
I0
ssg158
g611
sg84
I0
sg172
g42
sg71
(dp621
S'couleur'
p622
I1
sS'valeur'
p623
I1
sS'r_n'
p624
S'n'
p625
ssg77
I0
sg81
I1
sg82
I0
sg83
I0
sg152
g610
sg85
I00
sg133
g600
sg86
F2.5
sg108
I00
sg95
(dp626
S'SR'
p627
I0
sS'ST'
p628
I0
sS'CR'
p629
I0
sS'CT'
p630
I0
ssg97
g577
sg99
I0
sg100
(lp631
S'dummy'
p632
aI01
aI01
aI01
asg87
(dp633
g627
I0
sg628
I6
sg629
I0
sg630
I15
ssg104
g580
sg106
I8
sg107
I0
sg113
I15
sg109
I587
sg110
g581
sg114
(dp634
S'A'
p635
I0
sS'ME'
p636
I0
sS'RP2'
p637
I0
sS'E'
p638
I0
sS'P'
p639
I0
sS'RP1'
p640
I0
sS'JP'
p641
I0
sS'RP_tot'
p642
I0
sS'TO'
p643
I0
sS'PA'
p644
I0
sS'M'
p645
I0
sS'R'
p646
I0
sS'TB'
p647
I0
sS'PL'
p648
I0
sS'TA'
p649
I0
ssg162
(dp650
sg137
I0
sg41
g42
sg147
I0
sg148
F21.0
sg149
I0
sg150
F11.413793103448276
sg151
I0
sg160
I0
sg93
(dp651
g627
I0
sg628
I0
sg629
I0
sg630
I0
ssg205
I0
sg131
(dp652
S'A'
p653
I14
sS'ME'
p654
I5
sS'RP2'
p655
I9
sS'E'
p656
I12
sS'TO'
p657
I7
sS'RP1'
p658
I7
sS'JP'
p659
I11
sS'RP_tot'
p660
I9
sS'P'
p661
I11
sS'PA'
p662
I14
sS'M'
p663
I8
sS'R'
p664
I7
sS'TB'
p665
I8
sS'PL'
p666
I11
sS'TA'
p667
I7
ssg222
I0
sg223
I0
sg224
I5
sg225
I0
sg226
I59
sg227
I0
sg161
I0
sg103
I0
sg228
I0
sg229
S'HE'
p668
sbsS's12'
p669
(ijoueur
joueur
p670
(dp671
g37
F11.10344827586207
sg38
I2
sg40
F10.0
sg41
g42
sg43
I0
sg80
I5
sg45
I0
sg47
g48
(g49
g50
Ntp672
Rp673
(dp674
g54
I6
sg55
S'***'
p675
sg57
S'personnage'
p676
sbsg61
(dp677
S'SR'
p678
I0
sS'ST'
p679
I0
sS'CR'
p680
I0
sS'CT'
p681
I0
ssg158
(dp682
g678
I0
sg679
I0
sg680
I0
sg681
I0
ssg84
I0
sg70
I0
sg71
(dp683
g622
I1
sg623
I1
sg624
g625
ssg77
I0
sg81
I0
sg82
I0
sg83
I0
sg152
(S'dummy'
p684
S'DM'
p685
S'DO'
p686
S'AR'
p687
tp688
sg85
I00
sg133
g48
(g49
g50
Ntp689
Rp690
(dp691
g54
I6
sg55
S'***'
p692
sg57
g676
sbsg86
F4.5
sg108
I00
sg95
(dp693
S'SR'
p694
I0
sS'CT'
p695
I0
sS'CR'
p696
I0
sS'ST'
p697
I0
ssg97
(dp698
g678
I0
sg679
I14
sg680
I0
sg681
I27
ssg99
I0
sg100
(lp699
g632
aI01
aI01
aI01
asg87
(dp700
g694
I0
sg695
I14
sg696
I0
sg697
I7
ssg104
S'Eltharion'
p701
sg106
I8
sg107
I0
sg113
I15
sg109
I587
sg110
S'KHR'
p702
sg114
(dp703
S'A'
p704
I14
sS'ME'
p705
I5
sS'RP2'
p706
I9
sS'E'
p707
I12
sS'TO'
p708
I7
sS'RP1'
p709
I7
sS'JP'
p710
I11
sS'RP_tot'
p711
I9
sS'P'
p712
I11
sS'PA'
p713
I15
sS'M'
p714
I8
sS'R'
p715
I7
sS'TB'
p716
I8
sS'PL'
p717
I11
sS'TA'
p718
I7
ssg162
(dp719
S's11'
p720
(ijoueur
joueur
p721
(dp722
g38
I0
sg43
I0
sg45
I0
sg47
g48
(g49
g50
Ntp723
Rp724
(dp725
g54
I6
sg55
S'***'
p726
sg57
S'personnage'
p727
sbsg61
(dp728
S'SR'
p729
I0
sS'ST'
p730
I0
sS'CR'
p731
I0
sS'CT'
p732
I0
ssg158
(dp733
g729
I0
sg730
I0
sg731
I0
sg732
I0
ssg70
I0
sg77
I0
sg108
I00
sg81
I0
sg82
I0
sg83
I0
sg152
(S'dummy'
p734
S'DM'
p735
S'DO'
p736
S'AR'
p737
tp738
sg85
I00
sg133
g48
(g49
g50
Ntp739
Rp740
(dp741
g54
I6
sg55
S'***'
p742
sg57
g727
sbsg87
(dp743
g729
I0
sg730
I7
sg731
I0
sg732
I13
ssg93
(dp744
g729
I0
sg730
I0
sg731
I0
sg732
I0
ssg95
(dp745
g729
I0
sg730
I0
sg731
I0
sg732
I0
ssg97
(dp746
g729
I0
sg730
I7
sg731
I0
sg732
I13
ssg99
I0
sg103
I0
sg104
S'Eltharion'
p747
sg106
I8
sg107
I0
sg113
I15
sg109
I587
sg110
S'KHR'
p748
sg114
(dp749
S'A'
p750
I14
sS'ME'
p751
I5
sS'RP2'
p752
I9
sS'E'
p753
I12
sS'TO'
p754
I7
sS'RP1'
p755
I7
sS'JP'
p756
I9
sS'RP_tot'
p757
I9
sS'P'
p758
I10
sS'PA'
p759
I14
sS'M'
p760
I8
sS'R'
p761
I7
sS'TB'
p762
I8
sS'PL'
p763
I11
sS'TA'
p764
I7
ssg137
I0
sg146
I0
sg147
I0
sg149
I0
sg150
F11.10344827586207
sg151
I0
sg161
I0
sg205
I0
sg325
(dp765
S'A'
p766
I14
sS'ME'
p767
I5
sS'RP2'
p768
I9
sS'E'
p769
I12
sS'TO'
p770
I7
sS'RP1'
p771
I7
sS'JP'
p772
I9
sS'RP_tot'
p773
I9
sS'P'
p774
I10
sS'PA'
p775
I14
sS'M'
p776
I8
sS'R'
p777
I7
sS'TB'
p778
I8
sS'PL'
p779
I11
sS'TA'
p780
I7
ssg131
g749
sg222
I0
sg172
g42
sg223
I0
sg224
I0
sg225
I0
sg226
I59
sg227
I4
sg228
I0
sg229
S'HE'
p781
sbssg137
I13
sg146
I0
sg147
I0
sg148
F21.0
sg149
I0
sg150
F11.620689655172415
sg151
I0
sg160
I0
sg93
(dp782
g694
I0
sg695
I0
sg696
I0
sg697
I0
ssg205
I1
sg325
(dp783
S'A'
p784
I14
sS'ME'
p785
I5
sS'RP2'
p786
I9
sS'E'
p787
I12
sS'P'
p788
I10
sS'RP1'
p789
I7
sS'JP'
p790
I9
sS'RP_tot'
p791
I9
sS'TO'
p792
I7
sS'PA'
p793
I14
sS'M'
p794
I8
sS'R'
p795
I7
sS'TB'
p796
I8
sS'PL'
p797
I11
sS'TA'
p798
I7
ssg131
g703
sg222
I2
sg172
g42
sg223
I0
sg224
I0
sg225
I0
sg226
I59
sg227
I4
sg161
I0
sg103
I0
sg228
I1
sg229
S'HE'
p799
sbsS's11'
p800
(ijoueur
joueur
p801
(dp802
g38
I0
sg40
F7.0
sg43
I0
sg80
I3
sg45
I0
sg47
g48
(g49
g50
Ntp803
Rp804
(dp805
g54
I6
sg55
S'***'
p806
sg57
S'personnage'
p807
sbsg61
(dp808
S'SR'
p809
I0
sS'ST'
p810
I0
sS'CR'
p811
I0
sS'CT'
p812
I0
ssg158
(dp813
g809
I0
sg810
I0
sg811
I0
sg812
I0
ssg84
I0
sg70
I0
sg71
(dp814
g622
I1
sg623
I1
sg624
g625
ssg77
I0
sg81
I0
sg82
I0
sg83
I0
sg152
(S'dummy'
p815
S'DM'
p816
S'DO'
p817
S'AR'
p818
tp819
sg85
I00
sg133
g48
(g49
g50
Ntp820
Rp821
(dp822
g54
I6
sg55
S'***'
p823
sg57
g807
sbsg86
F20.0
sg108
I00
sg95
(dp824
g809
I0
sg810
I0
sg811
I0
sg812
I0
ssg97
(dp825
g809
I0
sg810
I7
sg811
I0
sg812
I13
ssg99
I0
sg100
(lp826
g632
aI01
aI01
aI01
asg103
I0
sg104
S'Eltharion'
p827
sg106
I8
sg107
I0
sg113
I15
sg109
I587
sg110
S'KHR'
p828
sg87
(dp829
g809
I0
sg810
I7
sg811
I0
sg812
I13
ssg114
(dp830
S'A'
p831
I14
sS'ME'
p832
I5
sS'RP2'
p833
I9
sS'E'
p834
I12
sS'TO'
p835
I7
sS'RP1'
p836
I7
sS'JP'
p837
I9
sS'RP_tot'
p838
I9
sS'P'
p839
I10
sS'PA'
p840
I14
sS'M'
p841
I8
sS'R'
p842
I7
sS'TB'
p843
I8
sS'PL'
p844
I11
sS'TA'
p845
I7
ssg137
I0
sg146
I0
sg147
I0
sg148
F20.0
sg149
I0
sg150
F11.10344827586207
sg151
I0
sg160
I0
sg93
(dp846
g809
I0
sg810
I0
sg811
I0
sg812
I0
ssg205
I0
sg325
(dp847
S'A'
p848
I14
sS'ME'
p849
I5
sS'RP2'
p850
I9
sS'E'
p851
I12
sS'TO'
p852
I7
sS'RP1'
p853
I7
sS'JP'
p854
I9
sS'RP_tot'
p855
I9
sS'P'
p856
I10
sS'PA'
p857
I14
sS'M'
p858
I8
sS'R'
p859
I7
sS'TB'
p860
I8
sS'PL'
p861
I11
sS'TA'
p862
I7
ssg131
g830
sg222
I0
sg172
g42
sg223
I0
sg224
I0
sg225
I0
sg226
I59
sg227
I4
sg161
I0
sg228
I0
sg229
S'HE'
p863
sbssg205
I1
sg325
(dp864
S'A'
p865
I14
sS'ME'
p866
I5
sS'RP2'
p867
I9
sS'E'
p868
I12
sS'P'
p869
I10
sS'RP1'
p870
I7
sS'JP'
p871
I9
sS'RP_tot'
p872
I9
sS'TO'
p873
I7
sS'PA'
p874
I14
sS'M'
p875
I8
sS'R'
p876
I7
sS'TB'
p877
I8
sS'PL'
p878
I11
sS'TA'
p879
I7
ssg222
I0
sg440
(dp880
sg223
I0
sg172
g42
sg224
I1
sg225
I0
sg226
I59
sg227
I5
sg228
I0
sg229
g668
sbsS'cap'
p881
(ijoueur
joueur
p882
(dp883
g37
F13.838709677419354
sg38
I1
sg39
F13.64516129032258
sg40
F14.0
sg41
g42
sg43
I0
sg44
F44.34675032894925
sg45
I0
sg46
I0
sg47
g48
(g49
g50
Ntp884
Rp885
(dp886
g54
I5
sg55
S'xx'
p887
sg57
S'seigneur'
p888
sbsg59
(dp889
sg61
(dp890
S'SR'
p891
I0
sS'ST'
p892
I0
sS'CR'
p893
I0
sS'CT'
p894
I0
ssg67
F13.451612903225806
sg68
I0
sg69
I10
sg70
I0
sg71
(dp895
g73
I4
sg74
I7
sg75
S'r'
p896
ssg77
I0
sg78
F44.34675032894925
sg79
I00
sg80
I6
sg81
I0
sg82
I0
sg83
I0
sg84
I2
sg85
I00
sg86
F20.0
sg87
(dp897
g89
I0
sg90
I0
sg91
I0
sg92
I4
ssg93
(dp898
g89
I0
sg90
I0
sg91
I0
sg92
I0
ssg95
(dp899
g89
I0
sg90
I0
sg91
I0
sg92
I0
ssg97
(dp900
g891
I0
sg892
I19
sg893
I0
sg894
I47
ssg99
I0
sg100
(lp901
g102
aI01
aI01
aI01
asg103
I0
sg104
S'Drask'
p902
sg106
I7
sg107
I0
sg108
I00
sg109
I3519
sg110
g111
sg112
I00
sg113
I17
sg114
(dp903
S'A'
p904
I14
sS'ME'
p905
I6
sS'RP2'
p906
I11
sS'E'
p907
I13
sS'P'
p908
I9
sS'RP1'
p909
I11
sS'JP'
p910
I8
sS'RP_tot'
p911
I14
sS'TO'
p912
I10
sS'PA'
p913
I13
sS'M'
p914
I14
sS'R'
p915
I8
sS'TB'
p916
I8
sS'PL'
p917
I13
sS'TA'
p918
I8
ssg131
(dp919
g904
I15
sg905
I6
sg906
I11
sg907
I13
sg912
I10
sg909
I11
sg910
I8
sg911
I14
sg908
I9
sg913
I13
sg914
I14
sg915
I9
sg916
I8
sg917
I14
sg918
I8
ssg133
g48
(g49
g50
Ntp920
Rp921
(dp922
g54
I5
sg55
S'xx'
p923
sg57
g888
sbsg137
g6
(g140
S'\x08\x00\x00\x00'
p924
tp925
Rp926
sg146
I0
sg147
I0
sg148
I0
sg149
I0
sg150
F13.451612903225806
sg151
I0
sg152
(S'dummy'
p927
S'AI'
p928
S'CE'
p929
S'AR'
p930
tp931
sg158
(dp932
g891
I0
sg892
I0
sg893
I0
sg894
I0
ssg160
I0
sg161
I0
sg162
(dp933
S's13'
p934
(ijoueur
joueur
p935
(dp936
g38
I0
sg40
F14.0
sg146
I0
sg43
I0
sg80
I6
sg45
I0
sg47
g885
sg61
(dp937
g168
I0
sg169
I0
sg170
I0
sg171
I0
ssg158
g932
sg172
S'TA 9;SN 13'
p938
sg71
(dp939
g174
I1
sg175
I1
sg176
g177
ssg77
I0
sg81
I4
sg82
I0
sg83
I0
sg152
g931
sg85
I00
sg133
g921
sg86
F2.5
sg108
I00
sg95
(dp940
g179
I0
sg180
I0
sg181
I0
sg182
I0
ssg97
g900
sg99
I0
sg100
(lp941
g184
aI01
aI01
aI01
asg87
(dp942
g179
I0
sg180
I15
sg181
I0
sg182
I5
ssg110
g111
sg104
S'Drask (13)'
p943
sg106
I7
sg107
I0
sg113
I17
sg109
I3519
sg84
I0
sg114
(dp944
g188
I0
sg189
I0
sg190
I0
sg191
I0
sg192
I0
sg193
I0
sg194
I0
sg195
I0
sg196
I0
sg197
I0
sg198
I0
sg199
I0
sg200
I0
sg201
I0
sg202
I0
ssg162
(dp945
sg137
I0
sg41
g42
sg147
I0
sg148
F20.0
sg149
I0
sg150
F13.451612903225806
sg151
I0
sg160
I0
sg93
(dp946
g179
I0
sg180
I0
sg181
I0
sg182
I0
ssg205
I0
sg131
(dp947
g207
I15
sg208
I6
sg209
I11
sg210
I13
sg211
I9
sg212
I11
sg213
I8
sg214
I14
sg215
I10
sg216
I13
sg217
I14
sg218
I9
sg219
I7
sg220
I14
sg221
I8
ssg222
I0
sg223
I0
sg224
I0
sg225
I0
sg226
I112
sg227
I0
sg161
I0
sg103
I0
sg228
I0
sg229
S'S'
p948
sbsS's12'
p949
(ijoueur
joueur
p950
(dp951
g37
F13.838709677419354
sg38
I1
sg40
F5.0
sg41
g42
sg43
I0
sg80
I5
sg45
I0
sg47
g48
(g49
g50
Ntp952
Rp953
(dp954
g54
I5
sg55
S'xx'
p955
sg57
S'seigneur'
p956
sbsg61
(dp957
S'SR'
p958
I0
sS'ST'
p959
I0
sS'CR'
p960
I0
sS'CT'
p961
I0
ssg158
(dp962
g958
I0
sg959
I0
sg960
I0
sg961
I0
ssg70
I0
sg71
(dp963
g174
I1
sg175
I1
sg176
g177
ssg77
I0
sg81
I1
sg82
I0
sg83
I0
sg152
(S'dummy'
p964
S'AI'
p965
S'CE'
p966
S'AR'
p967
tp968
sg85
I01
sg133
g48
(g49
g50
Ntp969
Rp970
(dp971
g54
I5
sg55
S'xx'
p972
sg57
g956
sbsg86
F18.0
sg108
I00
sg95
(dp973
S'SR'
p974
I0
sS'CT'
p975
I0
sS'CR'
p976
I0
sS'ST'
p977
I0
ssg97
(dp978
g958
I0
sg959
I14
sg960
I0
sg961
I28
ssg99
I0
sg100
(lp979
g184
aI01
aI01
aI01
asg87
(dp980
g974
I0
sg975
I14
sg976
I0
sg977
I5
ssg110
S'SN'
p981
sg104
S'Drask (12)'
p982
sg106
I7
sg107
I0
sg113
I17
sg109
I1564
sg84
I0
sg114
(dp983
S'A'
p984
I15
sS'ME'
p985
I6
sS'RP2'
p986
I11
sS'E'
p987
I13
sS'TO'
p988
I10
sS'RP1'
p989
I11
sS'JP'
p990
I8
sS'RP_tot'
p991
I15
sS'P'
p992
I9
sS'PA'
p993
I13
sS'M'
p994
I14
sS'R'
p995
I9
sS'TB'
p996
I8
sS'PL'
p997
I14
sS'TA'
p998
I8
ssg162
(dp999
S's11'
p1000
(ijoueur
joueur
p1001
(dp1002
g38
I0
sg43
I0
sg45
I0
sg47
g48
(g49
g50
Ntp1003
Rp1004
(dp1005
g54
I5
sg55
S'xx'
p1006
sg57
S'seigneur'
p1007
sbsg61
(dp1008
S'SR'
p1009
I0
sS'CT'
p1010
I0
sS'CR'
p1011
I0
sS'ST'
p1012
I0
ssg158
(dp1013
g1009
I0
sg1010
I0
sg1011
I0
sg1012
I0
ssg70
I0
sg77
I0
sg108
I00
sg81
I5
sg82
I0
sg83
I0
sg152
(S'dummy'
p1014
S'AI'
p1015
S'CE'
p1016
S'AR'
p1017
tp1018
sg85
I00
sg133
g48
(g49
g50
Ntp1019
Rp1020
(dp1021
g54
I5
sg55
S'xx'
p1022
sg57
g1007
sbsg87
(dp1023
g1009
I0
sg1010
I14
sg1011
I0
sg1012
I8
ssg93
(dp1024
g1009
I0
sg1010
I0
sg1011
I0
sg1012
I0
ssg95
(dp1025
g1009
I0
sg1010
I0
sg1011
I0
sg1012
I0
ssg97
(dp1026
g1009
I0
sg1010
I14
sg1011
I0
sg1012
I8
ssg99
I0
sg103
I0
sg104
S'Drask'
p1027
sg106
I7
sg107
I0
sg113
I17
sg109
I1564
sg110
S'SN'
p1028
sg114
(dp1029
S'A'
p1030
I16
sS'ME'
p1031
I6
sS'RP2'
p1032
I11
sS'E'
p1033
I13
sS'P'
p1034
I9
sS'RP1'
p1035
I11
sS'JP'
p1036
I8
sS'RP_tot'
p1037
I15
sS'TO'
p1038
I10
sS'PA'
p1039
I13
sS'M'
p1040
I14
sS'R'
p1041
I9
sS'TB'
p1042
I9
sS'PL'
p1043
I14
sS'TA'
p1044
I8
ssg137
I0
sg146
I0
sg147
I0
sg149
I0
sg150
F13.838709677419354
sg151
I0
sg161
I0
sg205
I0
sg325
(dp1045
S'A'
p1046
I16
sS'ME'
p1047
I6
sS'RP2'
p1048
I11
sS'E'
p1049
I13
sS'P'
p1050
I9
sS'RP1'
p1051
I11
sS'JP'
p1052
I8
sS'RP_tot'
p1053
I15
sS'TO'
p1054
I10
sS'PA'
p1055
I13
sS'M'
p1056
I14
sS'R'
p1057
I9
sS'TB'
p1058
I9
sS'PL'
p1059
I14
sS'TA'
p1060
I8
ssg131
g1029
sg222
I0
sg172
S'TA 9'
p1061
sg223
I0
sg224
I0
sg225
I0
sg226
I174
sg227
I20
sg228
I0
sg229
S'S'
p1062
sbssg137
I12
sg146
I0
sg147
I0
sg148
F19.0
sg149
I0
sg150
F13.64516129032258
sg151
I0
sg160
I0
sg93
(dp1063
g974
I0
sg975
I0
sg976
I0
sg977
I0
ssg205
I0
sg325
(dp1064
S'A'
p1065
I16
sS'ME'
p1066
I6
sS'RP2'
p1067
I11
sS'E'
p1068
I13
sS'P'
p1069
I9
sS'RP1'
p1070
I11
sS'JP'
p1071
I8
sS'RP_tot'
p1072
I15
sS'TO'
p1073
I10
sS'PA'
p1074
I13
sS'M'
p1075
I14
sS'R'
p1076
I9
sS'TB'
p1077
I9
sS'PL'
p1078
I14
sS'TA'
p1079
I8
ssg131
g983
sg222
I1
sg172
S'TA 9'
p1080
sg223
I0
sg224
I0
sg225
I0
sg226
I174
sg227
I21
sg161
I0
sg103
I0
sg228
I0
sg229
S'S'
p1081
sbsS's11'
p1082
(ijoueur
joueur
p1083
(dp1084
g38
I0
sg40
F6.0
sg43
I0
sg80
I3
sg45
I0
sg47
g48
(g49
g50
Ntp1085
Rp1086
(dp1087
g54
I5
sg55
S'xx'
p1088
sg57
S'seigneur'
p1089
sbsg61
(dp1090
S'SR'
p1091
I0
sS'CT'
p1092
I0
sS'CR'
p1093
I0
sS'ST'
p1094
I0
ssg158
(dp1095
g1091
I0
sg1092
I0
sg1093
I0
sg1094
I0
ssg70
I0
sg71
(dp1096
g174
I1
sg175
I1
sg176
g177
ssg77
I0
sg81
I5
sg82
I0
sg83
I0
sg152
(S'dummy'
p1097
S'AI'
p1098
S'CE'
p1099
S'AR'
p1100
tp1101
sg85
I00
sg133
g48
(g49
g50
Ntp1102
Rp1103
(dp1104
g54
I5
sg55
S'xx'
p1105
sg57
g1089
sbsg86
F22.0
sg108
I00
sg95
(dp1106
g1091
I0
sg1092
I0
sg1093
I0
sg1094
I0
ssg97
(dp1107
g1091
I0
sg1092
I14
sg1093
I0
sg1094
I8
ssg99
I0
sg100
(lp1108
g184
aI01
aI01
aI01
asg103
I0
sg110
S'SN'
p1109
sg104
S'Drask (11)'
p1110
sg106
I7
sg107
I0
sg113
I17
sg109
I1564
sg84
I0
sg87
(dp1111
g1091
I0
sg1092
I14
sg1093
I0
sg1094
I8
ssg114
(dp1112
S'A'
p1113
I16
sS'ME'
p1114
I6
sS'RP2'
p1115
I11
sS'E'
p1116
I13
sS'P'
p1117
I9
sS'RP1'
p1118
I11
sS'JP'
p1119
I8
sS'RP_tot'
p1120
I15
sS'TO'
p1121
I10
sS'PA'
p1122
I13
sS'M'
p1123
I14
sS'R'
p1124
I9
sS'TB'
p1125
I9
sS'PL'
p1126
I14
sS'TA'
p1127
I8
ssg137
I0
sg146
I0
sg147
I0
sg148
F22.0
sg149
I0
sg150
F13.838709677419354
sg151
I0
sg160
I0
sg93
(dp1128
g1091
I0
sg1092
I0
sg1093
I0
sg1094
I0
ssg205
I0
sg325
(dp1129
S'A'
p1130
I16
sS'ME'
p1131
I6
sS'RP2'
p1132
I11
sS'E'
p1133
I13
sS'P'
p1134
I9
sS'RP1'
p1135
I11
sS'JP'
p1136
I8
sS'RP_tot'
p1137
I15
sS'TO'
p1138
I10
sS'PA'
p1139
I13
sS'M'
p1140
I14
sS'R'
p1141
I9
sS'TB'
p1142
I9
sS'PL'
p1143
I14
sS'TA'
p1144
I8
ssg131
g1112
sg222
I0
sg172
S'TA 9'
p1145
sg223
I0
sg224
I0
sg225
I0
sg226
I174
sg227
I20
sg161
I0
sg228
I0
sg229
S'S'
p1146
sbssg205
I3
sg325
(dp1147
S'A'
p1148
I16
sS'ME'
p1149
I6
sS'RP2'
p1150
I11
sS'E'
p1151
I13
sS'P'
p1152
I9
sS'RP1'
p1153
I11
sS'JP'
p1154
I8
sS'RP_tot'
p1155
I15
sS'TO'
p1156
I10
sS'PA'
p1157
I13
sS'M'
p1158
I14
sS'R'
p1159
I9
sS'TB'
p1160
I9
sS'PL'
p1161
I14
sS'TA'
p1162
I8
ssg222
I0
sg440
(dp1163
sg223
I0
sg172
g938
sg224
I0
sg225
I0
sg226
I112
sg227
I25
sg228
I0
sg229
g948
sbsS'B4'
p1164
g552
sS'RJC'
p1165
(ijoueur
joueur
p1166
(dp1167
g37
F11.10344827586207
sg38
I2
sg39
F11.620689655172415
sg40
F5.0
sg41
g42
sg43
I6
sg44
F54.77477612623294
sg45
I0
sg46
I0
sg47
g48
(g49
g50
Ntp1168
Rp1169
(dp1170
g54
I6
sg55
S'***'
p1171
sg57
S'personnage'
p1172
sbsg59
(dp1173
sg61
(dp1174
g63
I0
sg64
I0
sg65
I0
sg66
I0
ssg67
F11.413793103448276
sg68
I0
sg69
I10
sg70
I0
sg71
(dp1175
g73
I1
sg74
I5
sg75
g76
ssg77
I0
sg78
F54.77477612623294
sg79
I00
sg80
I7
sg81
I0
sg82
I1
sg83
I0
sg84
I3
sg85
I00
sg86
F21.0
sg87
(dp1176
g89
I0
sg90
I0
sg91
I0
sg92
I5
ssg93
(dp1177
g89
I0
sg90
I0
sg91
I0
sg92
I0
ssg95
(dp1178
g89
I0
sg90
I0
sg91
I0
sg92
I0
ssg97
(dp1179
g63
I0
sg64
I47
sg65
I0
sg66
I20
ssg99
I2
sg100
(lp1180
g102
aI01
aI01
aI01
asg103
I2
sg104
S'Eltharion'
p1181
sg106
I8
sg107
I0
sg108
I00
sg109
I587
sg110
g111
sg112
I00
sg113
I15
sg114
(dp1182
g116
I13
sg117
I5
sg118
I9
sg119
I12
sg120
I7
sg121
I7
sg122
I12
sg123
I9
sg124
I13
sg125
I14
sg126
I9
sg127
I7
sg128
I9
sg129
I10
sg130
I7
ssg131
(dp1183
g116
I14
sg117
I5
sg118
I9
sg119
I12
sg124
I13
sg121
I7
sg122
I12
sg123
I9
sg120
I7
sg125
I14
sg126
I9
sg127
I8
sg128
I9
sg129
I11
sg130
I7
ssg133
g48
(g49
g50
Ntp1184
Rp1185
(dp1186
g54
I6
sg55
S'***'
p1187
sg57
g1172
sbsg137
g6
(g140
S'\t\x00\x00\x00'
p1188
tp1189
Rp1190
sg146
I0
sg147
I0
sg148
I0
sg149
I0
sg150
F11.862068965517242
sg151
I1
sg152
(g153
S'DM'
p1191
S'DO'
p1192
S'AR'
p1193
tp1194
sg158
(dp1195
g63
I0
sg64
I0
sg65
I0
sg66
I0
ssg160
I5
sg161
I0
sg162
(dp1196
S's13'
p1197
(ijoueur
joueur
p1198
(dp1199
g38
I0
sg40
F5.0
sg146
I0
sg43
I0
sg80
I7
sg45
I0
sg47
g1169
sg61
(dp1200
g168
I0
sg169
I0
sg170
I0
sg171
I0
ssg158
g1195
sg172
g42
sg71
(dp1201
g174
I1
sg175
I1
sg176
g177
ssg77
I0
sg81
I1
sg82
I0
sg83
I0
sg152
g1194
sg85
I00
sg133
g1185
sg86
F2.5
sg108
I00
sg95
(dp1202
g179
I0
sg180
I0
sg181
I0
sg182
I0
ssg97
g1179
sg99
I0
sg100
(lp1203
g184
aI01
aI01
aI01
asg87
(dp1204
g179
I0
sg180
I15
sg181
I0
sg182
I6
ssg110
g111
sg104
S'Eltharion (13)'
p1205
sg106
I8
sg107
I0
sg113
I15
sg109
I587
sg84
I0
sg114
(dp1206
g188
I0
sg189
I0
sg190
I0
sg191
I0
sg192
I0
sg193
I0
sg194
I0
sg195
I0
sg196
I0
sg197
I0
sg198
I0
sg199
I0
sg200
I0
sg201
I0
sg202
I0
ssg162
(dp1207
sg137
I0
sg41
g42
sg147
I0
sg148
F21.0
sg149
I0
sg150
F11.413793103448276
sg151
I0
sg160
I0
sg93
(dp1208
g179
I0
sg180
I0
sg181
I0
sg182
I0
ssg205
I0
sg131
(dp1209
g207
I14
sg208
I5
sg209
I9
sg210
I12
sg211
I11
sg212
I7
sg213
I11
sg214
I9
sg215
I7
sg216
I14
sg217
I8
sg218
I7
sg219
I8
sg220
I11
sg221
I7
ssg222
I0
sg223
I0
sg224
I5
sg225
I0
sg226
I59
sg227
I0
sg161
I0
sg103
I0
sg228
I0
sg229
S'HE'
p1210
sbsg231
(ijoueur
joueur
p1211
(dp1212
g37
F11.10344827586207
sg38
I2
sg40
F10.0
sg41
g42
sg43
I0
sg80
I5
sg45
I0
sg47
g48
(g49
g50
Ntp1213
Rp1214
(dp1215
g54
I6
sg55
S'***'
p1216
sg57
S'personnage'
p1217
sbsg61
(dp1218
g240
I0
sg241
I0
sg242
I0
sg243
I0
ssg158
(dp1219
g240
I0
sg241
I0
sg242
I0
sg243
I0
ssg70
I0
sg71
(dp1220
g174
I1
sg175
I1
sg176
g177
ssg77
I0
sg81
I0
sg82
I0
sg83
I0
sg152
(g246
S'DM'
p1221
S'DO'
p1222
S'AR'
p1223
tp1224
sg85
I00
sg133
g48
(g49
g50
Ntp1225
Rp1226
(dp1227
g54
I6
sg55
S'***'
p1228
sg57
g1217
sbsg86
F4.5
sg108
I00
sg95
(dp1229
g255
I0
sg256
I0
sg257
I0
sg258
I0
ssg97
(dp1230
g240
I0
sg241
I27
sg242
I0
sg243
I14
ssg99
I0
sg100
(lp1231
g184
aI01
aI01
aI01
asg87
(dp1232
g255
I0
sg256
I7
sg257
I0
sg258
I14
ssg110
g262
sg104
S'Eltharion (12)'
p1233
sg106
I8
sg107
I0
sg113
I15
sg109
I587
sg84
I0
sg114
(dp1234
g265
I14
sg266
I5
sg267
I9
sg268
I12
sg269
I11
sg270
I7
sg271
I11
sg272
I9
sg273
I7
sg274
I15
sg275
I8
sg276
I7
sg277
I8
sg278
I11
sg279
I7
ssg162
(dp1235
g281
(ijoueur
joueur
p1236
(dp1237
g38
I0
sg43
I0
sg45
I0
sg47
g48
(g49
g50
Ntp1238
Rp1239
(dp1240
g54
I6
sg55
S'***'
p1241
sg57
S'personnage'
p1242
sbsg61
(dp1243
S'SR'
p1244
I0
sS'CT'
p1245
I0
sS'CR'
p1246
I0
sS'ST'
p1247
I0
ssg158
(dp1248
g1244
I0
sg1245
I0
sg1246
I0
sg1247
I0
ssg70
I0
sg77
I0
sg108
I00
sg81
I0
sg82
I0
sg83
I0
sg152
(S'dummy'
p1249
S'DM'
p1250
S'DO'
p1251
S'AR'
p1252
tp1253
sg85
I00
sg133
g48
(g49
g50
Ntp1254
Rp1255
(dp1256
g54
I6
sg55
S'***'
p1257
sg57
g1242
sbsg87
(dp1258
g1244
I0
sg1245
I13
sg1246
I0
sg1247
I7
ssg93
(dp1259
g1244
I0
sg1245
I0
sg1246
I0
sg1247
I0
ssg95
(dp1260
g1244
I0
sg1245
I0
sg1246
I0
sg1247
I0
ssg97
(dp1261
g1244
I0
sg1245
I13
sg1246
I0
sg1247
I7
ssg99
I0
sg103
I0
sg104
S'Eltharion'
p1262
sg106
I8
sg107
I0
sg113
I15
sg109
I587
sg110
S'KHR'
p1263
sg114
(dp1264
S'A'
p1265
I14
sS'ME'
p1266
I5
sS'RP2'
p1267
I9
sS'E'
p1268
I12
sS'P'
p1269
I10
sS'RP1'
p1270
I7
sS'JP'
p1271
I9
sS'RP_tot'
p1272
I9
sS'TO'
p1273
I7
sS'PA'
p1274
I14
sS'M'
p1275
I8
sS'R'
p1276
I7
sS'TB'
p1277
I8
sS'PL'
p1278
I11
sS'TA'
p1279
I7
ssg137
I0
sg146
I0
sg147
I0
sg149
I0
sg150
F11.10344827586207
sg151
I0
sg161
I0
sg205
I0
sg325
(dp1280
S'A'
p1281
I14
sS'ME'
p1282
I5
sS'RP2'
p1283
I9
sS'E'
p1284
I12
sS'P'
p1285
I10
sS'RP1'
p1286
I7
sS'JP'
p1287
I9
sS'RP_tot'
p1288
I9
sS'TO'
p1289
I7
sS'PA'
p1290
I14
sS'M'
p1291
I8
sS'R'
p1292
I7
sS'TB'
p1293
I8
sS'PL'
p1294
I11
sS'TA'
p1295
I7
ssg131
g1264
sg222
I0
sg172
g42
sg223
I0
sg224
I0
sg225
I0
sg226
I59
sg227
I4
sg228
I0
sg229
S'HE'
p1296
sbssg137
I13
sg146
I0
sg147
I0
sg148
F21.0
sg149
I0
sg150
F11.620689655172415
sg151
I0
sg160
I0
sg93
(dp1297
g255
I0
sg256
I0
sg257
I0
sg258
I0
ssg205
I1
sg325
(dp1298
g345
I14
sg346
I5
sg347
I9
sg348
I12
sg349
I7
sg350
I7
sg351
I9
sg352
I9
sg353
I10
sg354
I14
sg355
I8
sg356
I7
sg357
I8
sg358
I11
sg359
I7
ssg131
g1234
sg222
I2
sg172
g42
sg223
I0
sg224
I0
sg225
I0
sg226
I59
sg227
I4
sg161
I0
sg103
I0
sg228
I1
sg229
S'HE'
p1299
sbsg361
(ijoueur
joueur
p1300
(dp1301
g38
I0
sg40
F7.0
sg43
I0
sg80
I3
sg45
I0
sg47
g48
(g49
g50
Ntp1302
Rp1303
(dp1304
g54
I6
sg55
S'***'
p1305
sg57
S'personnage'
p1306
sbsg61
(dp1307
S'SR'
p1308
I0
sS'CT'
p1309
I0
sS'CR'
p1310
I0
sS'ST'
p1311
I0
ssg158
(dp1312
g1308
I0
sg1309
I0
sg1310
I0
sg1311
I0
ssg70
I0
sg71
(dp1313
g174
I1
sg175
I1
sg176
g177
ssg77
I0
sg81
I0
sg82
I0
sg83
I0
sg152
(S'dummy'
p1314
S'DM'
p1315
S'DO'
p1316
S'AR'
p1317
tp1318
sg85
I00
sg133
g48
(g49
g50
Ntp1319
Rp1320
(dp1321
g54
I6
sg55
S'***'
p1322
sg57
g1306
sbsg86
F20.0
sg108
I00
sg95
(dp1323
g1308
I0
sg1309
I0
sg1310
I0
sg1311
I0
ssg97
(dp1324
g1308
I0
sg1309
I13
sg1310
I0
sg1311
I7
ssg99
I0
sg100
(lp1325
g184
aI01
aI01
aI01
asg103
I0
sg110
S'KHR'
p1326
sg104
S'Eltharion (11)'
p1327
sg106
I8
sg107
I0
sg113
I15
sg109
I587
sg84
I0
sg87
(dp1328
g1308
I0
sg1309
I13
sg1310
I0
sg1311
I7
ssg114
(dp1329
S'A'
p1330
I14
sS'ME'
p1331
I5
sS'RP2'
p1332
I9
sS'E'
p1333
I12
sS'P'
p1334
I10
sS'RP1'
p1335
I7
sS'JP'
p1336
I9
sS'RP_tot'
p1337
I9
sS'TO'
p1338
I7
sS'PA'
p1339
I14
sS'M'
p1340
I8
sS'R'
p1341
I7
sS'TB'
p1342
I8
sS'PL'
p1343
I11
sS'TA'
p1344
I7
ssg137
I0
sg146
I0
sg147
I0
sg148
F20.0
sg149
I0
sg150
F11.10344827586207
sg151
I0
sg160
I0
sg93
(dp1345
g1308
I0
sg1309
I0
sg1310
I0
sg1311
I0
ssg205
I0
sg325
(dp1346
S'A'
p1347
I14
sS'ME'
p1348
I5
sS'RP2'
p1349
I9
sS'E'
p1350
I12
sS'P'
p1351
I10
sS'RP1'
p1352
I7
sS'JP'
p1353
I9
sS'RP_tot'
p1354
I9
sS'TO'
p1355
I7
sS'PA'
p1356
I14
sS'M'
p1357
I8
sS'R'
p1358
I7
sS'TB'
p1359
I8
sS'PL'
p1360
I11
sS'TA'
p1361
I7
ssg131
g1329
sg222
I0
sg172
g42
sg223
I0
sg224
I0
sg225
I0
sg226
I59
sg227
I4
sg161
I0
sg228
I0
sg229
S'HE'
p1362
sbssg205
I1
sg325
(dp1363
g425
I14
sg426
I5
sg427
I9
sg428
I12
sg429
I7
sg430
I7
sg431
I9
sg432
I9
sg433
I10
sg434
I14
sg435
I8
sg436
I7
sg437
I8
sg438
I11
sg439
I7
ssg222
I0
sg440
(dp1364
sg223
I0
sg172
g42
sg224
I1
sg225
I0
sg226
I59
sg227
I5
sg228
I0
sg229
g1210
sbsS'B1'
p1365
(ijoueur
joueur
p1366
(dp1367
g37
F11.066666666666666
sg38
I2
sg39
F11.4
sg40
F6.5
sg41
g42
sg43
I1
sg44
F54.77477612623294
sg45
I0
sg46
I0
sg47
g48
(g49
g50
Ntp1368
Rp1369
(dp1370
g54
I5
sg55
S'**'
p1371
sg57
S'seigneur'
p1372
sbsg59
(dp1373
sg61
(dp1374
S'SR'
p1375
I0
sS'ST'
p1376
I17
sS'CR'
p1377
I0
sS'CT'
p1378
I36
ssg67
F11.033333333333333
sg68
I0
sg69
I10
sg70
I0
sg71
(dp1379
g566
I1
sg567
I13
sg568
g569
ssg77
I0
sS'transformations'
p1380
I0
sS'penalites'
p1381
I0
sg79
I00
sg80
I7
sg81
I0
sg82
I1
sg83
I6
sg84
I3
sg85
I00
sg86
F21.5
sg87
(dp1382
g571
I0
sg572
I0
sg573
I0
sg574
I0
ssg93
(dp1383
g571
I0
sg572
I5
sg573
I0
sg574
I0
ssg95
(dp1384
g571
I0
sg572
I0
sg573
I0
sg574
I0
ssg97
(dp1385
g1375
I0
sg1376
I1
sg1377
I1
sg1378
I13
ssg99
I129
sg100
(lp1386
g579
aI01
aI01
aI01
asg103
I10
sg104
S'Matafierd'
p1387
sg106
I8
sg107
I79
sg108
I00
sg109
I247
sg110
g581
sg112
I00
sg113
I20
sg114
(dp1388
S'A'
p1389
I13
sS'ME'
p1390
I7
sS'RP2'
p1391
I11
sS'E'
p1392
I12
sS'P'
p1393
I9
sS'RP1'
p1394
I10
sS'JP'
p1395
I11
sS'RP_tot'
p1396
I13
sS'TO'
p1397
I6
sS'PA'
p1398
I9
sS'M'
p1399
I10
sS'R'
p1400
I8
sS'TB'
p1401
I11
sS'PL'
p1402
I13
sS'TA'
p1403
I4
ssg131
(dp1404
g1389
I14
sg1390
I7
sg1391
I11
sg1392
I12
sg1397
I6
sg1394
I10
sg1395
I11
sg1396
I13
sg1393
I9
sg1398
I9
sg1399
I10
sg1400
I9
sg1401
I11
sg1402
I14
sg1403
I4
ssg133
g48
(g49
g50
Ntp1405
Rp1406
(dp1407
g54
I5
sg55
S'**'
p1408
sg57
g1372
sbsg137
g6
(g140
S'\t\x00\x00\x00'
p1409
tp1410
Rp1411
sg146
I0
sg147
I0
sg148
I0
sg149
I0
sg150
F11.666666666666666
sg151
I17
sg152
(S'dummy'
p1412
S'C1'
p1413
S'AR'
p1414
S'AI'
p1415
tp1416
sg158
(dp1417
g1375
I0
sg1376
I0
sg1377
I0
sg1378
I1
ssg78
F54.77477612623294
sg160
I7
sS'drops'
p1418
I0
sg161
I0
sg162
(dp1419
S's13'
p1420
(ijoueur
joueur
p1421
(dp1422
g38
I0
sg40
F6.5
sg146
I0
sg43
I0
sg80
I7
sg45
I0
sg47
g1369
sg61
(dp1423
g617
I0
sg618
I0
sg619
I0
sg620
I0
ssg158
g1417
sg84
I0
sg172
S'MSL 12'
p1424
sg71
(dp1425
g622
I1
sg623
I1
sg624
g625
ssg77
I0
sg81
I0
sg82
I6
sg83
I35
sg152
g1416
sg85
I00
sg133
g1406
sg86
F2.5
sg108
I00
sg95
(dp1426
g627
I0
sg628
I0
sg629
I0
sg630
I0
ssg97
g1385
sg99
I0
sg100
(lp1427
g632
aI01
aI01
aI01
asg87
(dp1428
g627
I0
sg628
I0
sg629
I1
sg630
I0
ssg104
g1387
sg106
I8
sg107
I0
sg113
I20
sg109
I247
sg110
g581
sg114
(dp1429
g635
I0
sg636
I0
sg637
I0
sg638
I0
sg639
I0
sg640
I0
sg641
I0
sg642
I0
sg643
I0
sg644
I0
sg645
I0
sg646
I0
sg647
I0
sg648
I0
sg649
I0
ssg162
(dp1430
sg137
I0
sg41
g42
sg147
I0
sg148
F21.5
sg149
I0
sg150
F11.033333333333333
sg151
I0
sg160
I0
sg93
(dp1431
g627
I0
sg628
I6
sg629
I0
sg630
I15
ssg205
I0
sg131
(dp1432
g653
I14
sg654
I7
sg655
I11
sg656
I11
sg657
I6
sg658
I10
sg659
I7
sg660
I13
sg661
I9
sg662
I9
sg663
I10
sg664
I8
sg665
I11
sg666
I13
sg667
I4
ssg222
I0
sg223
I0
sg224
I0
sg225
I4
sg226
I35
sg227
I0
sg161
I0
sg103
I69
sg228
I0
sg229
S'B'
p1433
sbsg669
(ijoueur
joueur
p1434
(dp1435
g37
F11.066666666666666
sg38
I1
sg40
F11.0
sg41
g42
sg43
I0
sg80
I5
sg45
I0
sg47
g48
(g49
g50
Ntp1436
Rp1437
(dp1438
g54
I5
sg55
S'**'
p1439
sg57
S'seigneur'
p1440
sbsg61
(dp1441
S'SR'
p1442
I0
sS'ST'
p1443
I11
sS'CR'
p1444
I0
sS'CT'
p1445
I16
ssg158
(dp1446
g1442
I0
sg1443
I0
sg1444
I0
sg1445
I1
ssg84
I0
sg70
I0
sg71
(dp1447
g622
I1
sg623
I1
sg624
g625
ssg77
I0
sg1380
I0
sg1381
I0
sg81
I5
sg82
I10
sg83
I38
sg152
(S'dummy'
p1448
S'C1'
p1449
S'AR'
p1450
S'AI'
p1451
tp1452
sg85
I00
sg86
F2.0
sg87
(dp1453
g694
I0
sg695
I13
sg696
I0
sg697
I1
ssg108
I00
sg95
(dp1454
g694
I0
sg695
I1
sg696
I0
sg697
I0
ssg97
(dp1455
g1442
I0
sg1443
I1
sg1444
I0
sg1445
I13
ssg99
I50
sg100
(lp1456
g632
aI01
aI01
aI01
asg103
I50
sg104
S'Matafierd'
p1457
sg106
I8
sg107
I38
sg113
I20
sg109
I247
sg110
g702
sg114
(dp1458
S'A'
p1459
I14
sS'ME'
p1460
I7
sS'RP2'
p1461
I11
sS'E'
p1462
I11
sS'TO'
p1463
I6
sS'RP1'
p1464
I10
sS'JP'
p1465
I7
sS'RP_tot'
p1466
I14
sS'P'
p1467
I10
sS'PA'
p1468
I9
sS'M'
p1469
I10
sS'R'
p1470
I8
sS'TB'
p1471
I10
sS'PL'
p1472
I14
sS'TA'
p1473
I4
ssg133
g48
(g49
g50
Ntp1474
Rp1475
(dp1476
g54
I5
sg55
S'**'
p1477
sg57
g1440
sbsg137
I15
sg146
I0
sg147
I0
sg148
F22.0
sg149
I0
sg150
F11.4
sg151
I10
sg160
I0
sg1418
I0
sg93
(dp1478
g694
I0
sg695
I1
sg696
I0
sg697
I6
ssg162
(dp1479
g720
(ijoueur
joueur
p1480
(dp1481
g38
I0
sg43
I0
sg45
I0
sg47
g48
(g49
g50
Ntp1482
Rp1483
(dp1484
g54
I5
sg55
S'**'
p1485
sg57
S'seigneur'
p1486
sbsg61
(dp1487
S'SR'
p1488
I0
sS'ST'
p1489
I5
sS'CR'
p1490
I0
sS'CT'
p1491
I15
ssg158
(dp1492
g1488
I0
sg1489
I0
sg1490
I0
sg1491
I0
ssg93
(dp1493
g1488
I0
sg1489
I5
sg1490
I0
sg1491
I15
ssg70
I0
sg77
I0
sg1380
I0
sg1381
I0
sg81
I1
sg82
I0
sg83
I0
sg152
(S'dummy'
p1494
S'C1'
p1495
S'AR'
p1496
S'AI'
p1497
tp1498
sg85
I01
sg133
g48
(g49
g50
Ntp1499
Rp1500
(dp1501
g54
I5
sg55
S'**'
p1502
sg57
g1486
sbsg87
(dp1503
g1488
I0
sg1489
I0
sg1490
I0
sg1491
I0
ssg108
I01
sg95
(dp1504
g1488
I0
sg1489
I0
sg1490
I0
sg1491
I0
ssg97
(dp1505
g1488
I0
sg1489
I0
sg1490
I0
sg1491
I0
ssg99
I0
sg103
I0
sg104
S'Matafierd'
p1506
sg106
I8
sg107
I0
sg113
I20
sg109
I110
sg110
S'MSL'
p1507
sg114
(dp1508
S'A'
p1509
I13
sS'ME'
p1510
I7
sS'RP2'
p1511
I11
sS'E'
p1512
I11
sS'TO'
p1513
I6
sS'RP1'
p1514
I9
sS'JP'
p1515
I7
sS'RP_tot'
p1516
I13
sS'P'
p1517
I9
sS'PA'
p1518
I9
sS'M'
p1519
I10
sS'R'
p1520
I8
sS'TB'
p1521
I9
sS'PL'
p1522
I14
sS'TA'
p1523
I4
ssg137
I0
sg146
I0
sg147
I0
sg149
I0
sg150
F11.066666666666666
sg151
I0
sg1418
I0
sg161
I0
sg205
I0
sg325
(dp1524
S'A'
p1525
I13
sS'ME'
p1526
I7
sS'RP2'
p1527
I11
sS'E'
p1528
I11
sS'TO'
p1529
I6
sS'RP1'
p1530
I9
sS'JP'
p1531
I7
sS'RP_tot'
p1532
I13
sS'P'
p1533
I9
sS'PA'
p1534
I9
sS'M'
p1535
I10
sS'R'
p1536
I8
sS'TB'
p1537
I9
sS'PL'
p1538
I14
sS'TA'
p1539
I4
ssg131
g1508
sg222
I0
sg172
g42
sg223
I0
sg224
I0
sg225
I0
sg226
I11
sg227
I10
sg228
I0
sg229
S'B'
p1540
sbssg205
I0
sg325
(dp1541
S'A'
p1542
I13
sS'ME'
p1543
I7
sS'RP2'
p1544
I11
sS'E'
p1545
I11
sS'P'
p1546
I9
sS'RP1'
p1547
I9
sS'JP'
p1548
I7
sS'RP_tot'
p1549
I13
sS'TO'
p1550
I6
sS'PA'
p1551
I9
sS'M'
p1552
I10
sS'R'
p1553
I8
sS'TB'
p1554
I9
sS'PL'
p1555
I14
sS'TA'
p1556
I4
ssg131
g1458
sg222
I1
sg172
S'MSL 12'
p1557
sg223
I4
sg224
I0
sg225
I4
sg226
I35
sg227
I15
sg161
I0
sg228
I0
sg229
S'B'
p1558
sbsg800
(ijoueur
joueur
p1559
(dp1560
g38
I0
sg40
F7.0
sg43
I0
sg80
I3
sg45
I0
sg47
g48
(g49
g50
Ntp1561
Rp1562
(dp1563
g54
I5
sg55
S'**'
p1564
sg57
S'seigneur'
p1565
sbsg61
(dp1566
S'SR'
p1567
I0
sS'ST'
p1568
I5
sS'CR'
p1569
I0
sS'CT'
p1570
I15
ssg158
(dp1571
g1567
I0
sg1568
I0
sg1569
I0
sg1570
I0
ssg84
I0
sg70
I0
sg71
(dp1572
g622
I1
sg623
I1
sg624
g625
ssg77
I0
sg1380
I0
sg1381
I0
sg81
I1
sg82
I0
sg83
I0
sg152
(S'dummy'
p1573
S'C1'
p1574
S'AR'
p1575
S'AI'
p1576
tp1577
sg85
I01
sg86
F20.0
sg87
(dp1578
g1567
I0
sg1568
I0
sg1569
I0
sg1570
I0
ssg108
I01
sg95
(dp1579
g1567
I0
sg1568
I0
sg1569
I0
sg1570
I0
ssg97
(dp1580
g1567
I0
sg1568
I0
sg1569
I0
sg1570
I0
ssg99
I0
sg100
(lp1581
g632
aI01
aI01
aI01
asg103
I0
sg104
S'Matafierd'
p1582
sg106
I8
sg107
I0
sg113
I20
sg109
I110
sg110
S'MSL'
p1583
sg114
(dp1584
S'A'
p1585
I13
sS'ME'
p1586
I7
sS'RP2'
p1587
I11
sS'E'
p1588
I11
sS'TO'
p1589
I6
sS'RP1'
p1590
I9
sS'JP'
p1591
I7
sS'RP_tot'
p1592
I13
sS'P'
p1593
I9
sS'PA'
p1594
I9
sS'M'
p1595
I10
sS'R'
p1596
I8
sS'TB'
p1597
I9
sS'PL'
p1598
I14
sS'TA'
p1599
I4
ssg133
g48
(g49
g50
Ntp1600
Rp1601
(dp1602
g54
I5
sg55
S'**'
p1603
sg57
g1565
sbsg137
I0
sg146
I0
sg147
I0
sg148
F20.0
sg149
I0
sg150
F11.066666666666666
sg151
I0
sg160
I0
sg1418
I0
sg93
(dp1604
g1567
I0
sg1568
I5
sg1569
I0
sg1570
I15
ssg205
I0
sg325
(dp1605
S'A'
p1606
I13
sS'ME'
p1607
I7
sS'RP2'
p1608
I11
sS'E'
p1609
I11
sS'TO'
p1610
I6
sS'RP1'
p1611
I9
sS'JP'
p1612
I7
sS'RP_tot'
p1613
I13
sS'P'
p1614
I9
sS'PA'
p1615
I9
sS'M'
p1616
I10
sS'R'
p1617
I8
sS'TB'
p1618
I9
sS'PL'
p1619
I14
sS'TA'
p1620
I4
ssg131
g1584
sg222
I0
sg172
g42
sg223
I0
sg224
I0
sg225
I0
sg226
I11
sg227
I10
sg161
I0
sg228
I0
sg229
S'B'
p1621
sbssg205
I0
sg325
(dp1622
S'A'
p1623
I13
sS'ME'
p1624
I7
sS'RP2'
p1625
I11
sS'E'
p1626
I11
sS'P'
p1627
I9
sS'RP1'
p1628
I9
sS'JP'
p1629
I7
sS'RP_tot'
p1630
I13
sS'TO'
p1631
I6
sS'PA'
p1632
I9
sS'M'
p1633
I10
sS'R'
p1634
I8
sS'TB'
p1635
I9
sS'PL'
p1636
I14
sS'TA'
p1637
I4
ssg222
I0
sg440
(dp1638
sg223
I8
sg172
g1424
sg224
I1
sg225
I0
sg226
I35
sg227
I15
sg228
I0
sg229
g1433
sbsS'B2'
p1639
g1366
sS'B3'
p1640
g1366
sS'SA_pcp2'
p1641
(ijoueur
joueur
p1642
(dp1643
g37
F9.5
sg38
I0
sg39
F10.35483870967742
sg40
F12.0
sg41
g42
sg43
I0
sg44
F54.77477612623294
sg45
I0
sg46
I0
sg47
g48
(g49
g50
Ntp1644
Rp1645
(dp1646
g54
I5
sg55
S'xx'
p1647
sg57
S'seigneur'
p1648
sbsg59
(dp1649
sg61
(dp1650
S'SR'
p1651
I5
sS'ST'
p1652
I1
sS'CR'
p1653
I1
sS'CT'
p1654
I17
ssg67
F10.741935483870968
sg68
I0
sg69
I10
sg70
I0
sg71
(dp1655
g73
Nsg74
I14
sg75
g896
ssg77
I0
sg1380
I0
sg1381
I0
sg79
I00
sg80
I5
sg81
I2
sg82
I0
sg83
I0
sg84
I3
sg85
I00
sg86
F18.0
sg87
(dp1656
g89
I0
sg90
I0
sg91
I0
sg92
I0
ssg108
I00
sg95
(dp1657
g89
I0
sg90
I0
sg91
I0
sg92
I1
ssg97
(dp1658
g1651
I0
sg1652
I0
sg1653
I3
sg1654
I22
ssg99
I0
sg100
(lp1659
g102
aI01
aI01
aI01
asg103
I0
sg104
S'Zhdavr'
p1660
sg106
I8
sg107
I0
sg93
(dp1661
g89
I0
sg90
I0
sg91
I0
sg92
I4
ssg109
I389
sg110
g111
sg112
I00
sg113
I24
sg114
(dp1662
S'A'
p1663
I10
sS'ME'
p1664
I13
sS'RP2'
p1665
I7
sS'E'
p1666
I10
sS'P'
p1667
I6
sS'RP1'
p1668
I13
sS'JP'
p1669
I4
sS'RP_tot'
p1670
I13
sS'TO'
p1671
I13
sS'PA'
p1672
I10
sS'M'
p1673
I14
sS'R'
p1674
I8
sS'TB'
p1675
I4
sS'PL'
p1676
I13
sS'TA'
p1677
I9
ssg131
(dp1678
g1663
I11
sg1664
I13
sg1665
I7
sg1666
I10
sg1671
I13
sg1668
I13
sg1669
I4
sg1670
I13
sg1667
I6
sg1672
I10
sg1673
I14
sg1674
I9
sg1675
I4
sg1676
I14
sg1677
I9
ssg133
g1645
sg137
g6
(g140
S'\n\x00\x00\x00'
p1679
tp1680
Rp1681
sg146
I0
sg147
I0
sg148
I0
sg149
I0
sg150
F11.710526315789474
sg151
I0
sg152
(S'dummy'
p1682
S'TL'
p1683
S'DL'
p1684
S'N8'
p1685
tp1686
sg158
(dp1687
g1651
I0
sg1652
I0
sg1653
I4
sg1654
I2
ssg78
F54.77477612623294
sg160
I8
sg1418
I0
sg161
I0
sg162
(dp1688
S's13'
p1689
(ijoueur
joueur
p1690
(dp1691
g38
I0
sg40
F12.0
sg146
I0
sg43
I0
sg80
I5
sg45
I0
sg47
g1645
sg61
(dp1692
g168
I0
sg169
I0
sg170
I0
sg171
I0
ssg158
g1687
sg172
S'DKW 13'
p1693
sg71
(dp1694
g174
I1
sg175
I1
sg176
g177
ssg77
I0
sg81
I1
sg82
I0
sg83
I0
sg152
g1686
sg85
I00
sg133
g1645
sg86
F2.5
sg108
I00
sg95
(dp1695
g179
I0
sg180
I1
sg181
I1
sg182
I0
ssg97
g1658
sg99
I0
sg100
(lp1696
g184
aI01
aI01
aI01
asg87
(dp1697
g179
I0
sg180
I0
sg181
I0
sg182
I0
ssg110
g111
sg104
S'Zhdavr (13)'
p1698
sg106
I8
sg107
I0
sg113
I24
sg109
I389
sg84
I0
sg114
(dp1699
g188
I0
sg189
I0
sg190
I0
sg191
I0
sg192
I0
sg193
I0
sg194
I0
sg195
I0
sg196
I0
sg197
I0
sg198
I0
sg199
I0
sg200
I0
sg201
I0
sg202
I0
ssg162
(dp1700
sg137
I0
sg41
g42
sg147
I0
sg148
F18.0
sg149
I0
sg150
F10.741935483870968
sg151
I0
sg160
I0
sg93
(dp1701
g179
I4
sg180
I13
sg181
I1
sg182
I1
ssg205
I0
sg131
(dp1702
g207
I11
sg208
I12
sg209
I7
sg210
I9
sg211
I6
sg212
I12
sg213
I4
sg214
I12
sg215
I10
sg216
I10
sg217
I13
sg218
I8
sg219
I4
sg220
I14
sg221
I9
ssg222
I0
sg223
I0
sg224
I0
sg225
I0
sg226
I20
sg227
I0
sg161
I0
sg103
I0
sg228
I0
sg229
S'HB'
p1703
sbsS's12'
p1704
(ijoueur
joueur
p1705
(dp1706
g37
F9.5
sg38
I0
sg40
F3.0
sg41
g42
sg43
I0
sg80
I4
sg45
I0
sg47
g48
(g49
g50
Ntp1707
Rp1708
(dp1709
g54
I5
sg55
S'xx'
p1710
sg57
S'seigneur'
p1711
sbsg61
(dp1712
S'SR'
p1713
I0
sS'ST'
p1714
I0
sS'CR'
p1715
I0
sS'CT'
p1716
I0
ssg158
(dp1717
g1713
I0
sg1714
I0
sg1715
I3
sg1716
I0
ssg70
I0
sg71
(dp1718
g174
I1
sg175
I1
sg176
g177
ssg77
I0
sg1380
I0
sg1381
I0
sg81
I0
sg82
I0
sg83
I0
sg152
(S'dummy'
p1719
S'TL'
p1720
S'DL'
p1721
S'N8'
p1722
tp1723
sg85
I01
sg86
F0.5
sg87
(dp1724
S'SR'
p1725
I0
sS'ST'
p1726
I0
sS'CR'
p1727
I0
sS'CT'
p1728
I14
ssg108
I00
sg95
(dp1729
g1725
I0
sg1726
I0
sg1727
I0
sg1728
I0
ssg97
(dp1730
g1713
I0
sg1714
I0
sg1715
I3
sg1716
I22
ssg99
I0
sg100
(lp1731
g184
aI01
aI01
aI01
asg103
I0
sg110
S'DKW'
p1732
sg104
S'Zhdavr (12)'
p1733
sg106
I8
sg107
I0
sg113
I24
sg109
I173
sg84
I0
sg114
(dp1734
S'A'
p1735
I11
sS'ME'
p1736
I11
sS'RP2'
p1737
I7
sS'E'
p1738
I9
sS'TO'
p1739
I10
sS'RP1'
p1740
I11
sS'JP'
p1741
I4
sS'RP_tot'
p1742
I11
sS'P'
p1743
I6
sS'PA'
p1744
I10
sS'M'
p1745
I13
sS'R'
p1746
I8
sS'TB'
p1747
I4
sS'PL'
p1748
I13
sS'TA'
p1749
I9
ssg133
g1708
sg137
I0
sg146
I0
sg147
I0
sg148
F14.0
sg149
I0
sg150
F10.35483870967742
sg151
I0
sg160
I0
sg1418
I0
sg93
(dp1750
g1725
I0
sg1726
I0
sg1727
I0
sg1728
I0
ssg162
(dp1751
S's11'
p1752
(ijoueur
joueur
p1753
(dp1754
g38
I0
sg43
I0
sg45
I0
sg47
g48
(g49
g50
Ntp1755
Rp1756
(dp1757
g54
I5
sg55
S'xx'
p1758
sg57
S'seigneur'
p1759
sbsg61
(dp1760
S'SR'
p1761
I0
sS'CT'
p1762
I0
sS'CR'
p1763
I0
sS'ST'
p1764
I0
ssg158
(dp1765
g1761
I0
sg1762
I0
sg1763
I3
sg1764
I0
ssg70
I0
sg150
F9.5
sg77
I0
sg1380
I0
sg1381
I0
sg81
I0
sg82
I0
sg83
I0
sg152
(S'dummy'
p1766
S'TL'
p1767
S'DL'
p1768
S'N8'
p1769
tp1770
sg85
I00
sg133
g48
(g49
g50
Ntp1771
Rp1772
(dp1773
g54
I4
sg55
S'*'
p1774
sg57
S'heros'
p1775
sbsg87
(dp1776
g1761
I0
sg1762
I8
sg1763
I3
sg1764
I0
ssg108
I00
sg95
(dp1777
g1761
I0
sg1762
I0
sg1763
I3
sg1764
I0
ssg97
(dp1778
g1761
I0
sg1762
I8
sg1763
I3
sg1764
I0
ssg99
I0
sg103
I0
sg104
S'Zhdavr'
p1779
sg106
I8
sg107
I0
sg113
I24
sg109
I83
sg110
S'DKW'
p1780
sg114
(dp1781
S'A'
p1782
I10
sS'ME'
p1783
I9
sS'RP2'
p1784
I7
sS'E'
p1785
I9
sS'P'
p1786
I6
sS'RP1'
p1787
I9
sS'JP'
p1788
I4
sS'RP_tot'
p1789
I9
sS'TO'
p1790
I10
sS'PA'
p1791
I10
sS'M'
p1792
I10
sS'R'
p1793
I7
sS'TB'
p1794
I4
sS'PL'
p1795
I13
sS'TA'
p1796
I7
ssg137
I0
sg146
I0
sg147
I0
sg149
I0
sg93
(dp1797
g1761
I0
sg1762
I0
sg1763
I0
sg1764
I0
ssg151
I0
sg1418
I0
sg161
I0
sg205
I0
sg325
(dp1798
S'A'
p1799
I10
sS'ME'
p1800
I9
sS'RP2'
p1801
I7
sS'E'
p1802
I9
sS'P'
p1803
I6
sS'RP1'
p1804
I9
sS'JP'
p1805
I4
sS'RP_tot'
p1806
I9
sS'TO'
p1807
I10
sS'PA'
p1808
I10
sS'M'
p1809
I10
sS'R'
p1810
I7
sS'TB'
p1811
I4
sS'PL'
p1812
I13
sS'TA'
p1813
I7
ssg131
g1781
sg222
I0
sg172
g42
sg223
I0
sg224
I0
sg225
I0
sg226
I9
sg227
I0
sg228
I0
sg229
S'HB'
p1814
sbssg205
I0
sg325
(dp1815
S'A'
p1816
I10
sS'ME'
p1817
I9
sS'RP2'
p1818
I7
sS'E'
p1819
I9
sS'TO'
p1820
I10
sS'RP1'
p1821
I9
sS'JP'
p1822
I4
sS'RP_tot'
p1823
I9
sS'P'
p1824
I6
sS'PA'
p1825
I10
sS'M'
p1826
I10
sS'R'
p1827
I7
sS'TB'
p1828
I4
sS'PL'
p1829
I13
sS'TA'
p1830
I7
ssg131
g1734
sg222
I0
sg172
g42
sg223
I0
sg224
I0
sg225
I0
sg226
I18
sg227
I0
sg161
I0
sg228
I0
sg229
S'HB'
p1831
sbsS's11'
p1832
(ijoueur
joueur
p1833
(dp1834
g38
I0
sg40
F4.0
sg43
I0
sg80
I2
sg45
I0
sg47
g48
(g49
g50
Ntp1835
Rp1836
(dp1837
g54
I5
sg55
S'xx'
p1838
sg57
S'seigneur'
p1839
sbsg61
(dp1840
S'SR'
p1841
I0
sS'CT'
p1842
I0
sS'CR'
p1843
I0
sS'ST'
p1844
I0
ssg158
(dp1845
g1841
I0
sg1842
I0
sg1843
I3
sg1844
I0
ssg70
I0
sg71
(dp1846
g174
I1
sg175
I1
sg176
g177
ssg77
I0
sg1380
I0
sg1381
I0
sg81
I0
sg82
I0
sg83
I0
sg152
(S'dummy'
p1847
S'TL'
p1848
S'DL'
p1849
S'N8'
p1850
tp1851
sg85
I00
sg86
F11.0
sg87
(dp1852
g1841
I0
sg1842
I8
sg1843
I3
sg1844
I0
ssg108
I00
sg95
(dp1853
g1841
I0
sg1842
I0
sg1843
I3
sg1844
I0
ssg97
(dp1854
g1841
I0
sg1842
I8
sg1843
I3
sg1844
I0
ssg99
I0
sg100
(lp1855
g184
aI01
aI01
aI01
asg103
I0
sg110
S'DKW'
p1856
sg104
S'Zhdavr (11)'
p1857
sg106
I8
sg107
I0
sg113
I24
sg109
I83
sg84
I0
sg114
(dp1858
S'A'
p1859
I10
sS'ME'
p1860
I9
sS'RP2'
p1861
I7
sS'E'
p1862
I9
sS'P'
p1863
I6
sS'RP1'
p1864
I9
sS'JP'
p1865
I4
sS'RP_tot'
p1866
I9
sS'TO'
p1867
I10
sS'PA'
p1868
I10
sS'M'
p1869
I10
sS'R'
p1870
I7
sS'TB'
p1871
I4
sS'PL'
p1872
I13
sS'TA'
p1873
I7
ssg133
g48
(g49
g50
Ntp1874
Rp1875
(dp1876
g54
I4
sg55
S'*'
p1877
sg57
S'heros'
p1878
sbsg137
I0
sg146
I0
sg147
I0
sg148
F11.0
sg149
I0
sg150
F9.5
sg151
I0
sg160
I0
sg1418
I0
sg93
(dp1879
g1841
I0
sg1842
I0
sg1843
I0
sg1844
I0
ssg205
I0
sg325
(dp1880
S'A'
p1881
I10
sS'ME'
p1882
I9
sS'RP2'
p1883
I7
sS'E'
p1884
I9
sS'P'
p1885
I6
sS'RP1'
p1886
I9
sS'JP'
p1887
I4
sS'RP_tot'
p1888
I9
sS'TO'
p1889
I10
sS'PA'
p1890
I10
sS'M'
p1891
I10
sS'R'
p1892
I7
sS'TB'
p1893
I4
sS'PL'
p1894
I13
sS'TA'
p1895
I7
ssg131
g1858
sg222
I0
sg172
g42
sg223
I0
sg224
I0
sg225
I0
sg226
I9
sg227
I0
sg161
I0
sg228
I0
sg229
S'HB'
p1896
sbssg205
I0
sg325
(dp1897
S'A'
p1898
I10
sS'ME'
p1899
I9
sS'RP2'
p1900
I7
sS'E'
p1901
I9
sS'TO'
p1902
I10
sS'RP1'
p1903
I9
sS'JP'
p1904
I4
sS'RP_tot'
p1905
I9
sS'P'
p1906
I6
sS'PA'
p1907
I10
sS'M'
p1908
I10
sS'R'
p1909
I7
sS'TB'
p1910
I4
sS'PL'
p1911
I13
sS'TA'
p1912
I7
ssg222
I0
sg440
(dp1913
sg223
I0
sg172
g1693
sg224
I0
sg225
I0
sg226
I20
sg227
I3
sg228
I0
sg229
g1703
sbsS'SA_pcp1'
p1914
(ijoueur
joueur
p1915
(dp1916
g38
I0
sg39
F9.529411764705882
sg40
F4.0
sg41
g42
sg43
I0
sg44
F54.77477612623294
sg445
g42
sg45
I0
sg446
g42
sg46
I0
sg47
g48
(g49
g50
Ntp1917
Rp1918
(dp1919
g54
I5
sg55
S'**'
p1920
sg57
S'seigneur'
p1921
sbsg59
(dp1922
sg61
(dp1923
g454
I0
sg455
I0
sg456
I2
sg457
I0
ssg67
F9.941176470588236
sg68
I0
sg69
I10
sg172
g42
sg71
(dp1924
g73
I3
sg74
I1
sg75
g76
ssg77
I0
sg78
F54.77477612623294
sg79
I01
sg80
I5
sg81
I0
sg82
I0
sg83
I0
sg84
I1
sg85
I00
sg86
F10.0
sg87
(dp1925
g89
I0
sg90
I0
sg91
I4
sg92
I1
ssg93
(dp1926
g89
I0
sg90
I0
sg91
I0
sg92
I0
ssg95
(dp1927
g89
I0
sg90
I0
sg91
I0
sg92
I0
ssg97
(dp1928
g454
I0
sg455
I0
sg456
I24
sg457
I10
ssg99
I0
sg100
(lp1929
g102
aI01
aI01
aI00
asg103
I0
sg104
S'Nromaod'
p1930
sg106
I12
sg107
I0
sg108
I00
sg109
I91
sg110
g111
sg112
I00
sg465
g42
sg113
I20
sg114
(dp1931
g467
I10
sg468
I11
sg469
I9
sg470
I10
sg471
I6
sg472
I4
sg473
I9
sg474
I11
sg475
I13
sg476
I8
sg477
I10
sg478
I9
sg479
I3
sg480
I11
sg481
I4
ssg133
g48
(g49
g50
Ntp1932
Rp1933
(dp1934
g54
I4
sg55
S'*'
p1935
sg57
S'heros'
p1936
sbsg137
g6
(g140
S'\x06\x00\x00\x00'
p1937
tp1938
Rp1939
sg146
I0
sg147
I0
sg148
I0
sg149
I0
sg150
F10.676470588235293
sg151
I0
sg152
(g482
S'DL'
p1940
S'TL'
p1941
g42
tp1942
sg158
(dp1943
g454
I0
sg455
I0
sg456
I0
sg457
I0
ssg160
I1
sg161
I0
sg162
(dp1944
S's13'
p1945
(ijoueur
joueur
p1946
(dp1947
g38
I0
sg40
F5.0
sg146
I0
sg43
I0
sg80
I5
sg45
I0
sg47
g1918
sg61
(dp1948
g168
I0
sg169
I0
sg170
I0
sg171
I0
ssg158
g1943
sg172
g42
sg71
(dp1949
g174
I1
sg175
I1
sg176
g177
ssg77
I0
sg81
I0
sg82
I0
sg83
I0
sg152
g1942
sg85
I00
sg133
g48
(g49
g50
Ntp1950
Rp1951
(dp1952
g54
I2
sg55
S'^^'
p1953
sg57
S'special'
p1954
sbsg86
F1.0
sg108
I00
sg95
(dp1955
g179
I0
sg180
I0
sg181
I0
sg182
I0
ssg97
g1928
sg99
I0
sg100
(lp1956
g184
aI01
aI01
aI00
asg87
(dp1957
g179
I0
sg180
I4
sg181
I10
sg182
I0
ssg110
g111
sg104
S'Nromaod (13)'
p1958
sg106
I12
sg107
I0
sg113
I20
sg109
I44
sg84
I0
sg114
(dp1959
g188
I0
sg189
I0
sg190
I0
sg191
I0
sg192
I0
sg193
I0
sg194
I0
sg195
I0
sg196
I0
sg197
I0
sg198
I0
sg199
I0
sg200
I0
sg201
I0
sg202
I0
ssg162
(dp1960
sg137
I0
sg41
g42
sg147
I0
sg148
F10.0
sg149
I0
sg150
F9.941176470588236
sg151
I0
sg160
I0
sg93
(dp1961
g179
I0
sg180
I0
sg181
I2
sg182
I0
ssg205
I0
sg131
(dp1962
g207
I9
sg208
I11
sg209
I8
sg210
I10
sg211
I5
sg212
I8
sg213
I3
sg214
I10
sg215
I11
sg216
I7
sg217
I9
sg218
I9
sg219
I2
sg220
I10
sg221
I4
ssg222
I0
sg223
I0
sg224
I0
sg225
I0
sg226
I3
sg227
I0
sg161
I0
sg103
I0
sg228
I0
sg229
g501
sbsg231
(ijoueur
joueur
p1963
(dp1964
g38
I0
sg40
F0.0
sg41
g42
sg43
I0
sg80
I4
sg445
g42
sg45
I0
sg446
g42
sg47
g48
(g49
g50
Ntp1965
Rp1966
(dp1967
g54
I5
sg55
S'**'
p1968
sg57
S'seigneur'
p1969
sbsg61
(dp1970
g510
I0
sg511
I0
sg512
I0
sg513
I0
ssg158
(dp1971
g510
I0
sg511
I0
sg512
I0
sg513
I0
ssg172
g42
sg71
(dp1972
g174
I1
sg175
I1
sg176
g177
ssg77
I0
sg81
I0
sg82
I0
sg83
I0
sg110
g262
sg85
I00
sg86
F10.0
sg87
(dp1973
g510
I0
sg511
I0
sg512
I10
sg513
I5
ssg108
I01
sg95
(dp1974
g510
I0
sg511
I0
sg512
I0
sg513
I0
ssg97
(dp1975
g510
I0
sg511
I0
sg512
I10
sg513
I5
ssg99
I0
sg100
(lp1976
g184
aI01
aI01
aI00
asg103
I0
sg104
S'Nromaod (12)'
p1977
sg106
I12
sg107
I0
sg113
I20
sg109
I25
sg84
I0
sg465
g42
sg114
(dp1978
g522
I7
sg523
I10
sg524
I8
sg525
I10
sg526
I11
sg527
I7
sg528
I3
sg529
I8
sg530
I5
sg531
I7
sg532
I9
sg533
I9
sg534
I2
sg535
I10
sg536
I3
ssg133
g48
(g49
g50
Ntp1979
Rp1980
(dp1981
g54
I1
sg55
g540
sg57
g541
sbsg137
I0
sg146
I0
sg147
I0
sg148
F10.0
sg149
I0
sg150
F9.529411764705882
sg151
I0
sg152
(g542
S'DL'
p1982
S'TL'
p1983
g42
tp1984
sg160
I0
sg93
(dp1985
g510
I0
sg511
I0
sg512
I0
sg513
I0
ssg162
(dp1986
sg205
I0
sg131
g1978
sg222
I0
sg223
I0
sg224
I0
sg225
I0
sg226
I2
sg227
I0
sg161
I0
sg228
I0
sg229
g548
sbssg205
I2
sg131
(dp1987
g467
I10
sg468
I11
sg469
I9
sg470
I10
sg475
I13
sg473
I9
sg472
I4
sg474
I11
sg471
I6
sg476
I8
sg477
I10
sg478
I9
sg479
I3
sg480
I11
sg481
I4
ssg222
I0
sg440
(dp1988
sg223
I0
sg224
I0
sg225
I0
sg226
I7
sg227
I0
sg228
I1
sg229
g501
sbsS'drop3'
p1989
g1166
sS'SA_remp1'
p1990
(ijoueur
joueur
p1991
(dp1992
g37
F11.578947368421053
sg38
I2
sg39
F11.236842105263158
sg40
F9.0
sg41
g42
sg43
I0
sg44
F54.77477612623294
sg45
I0
sg46
I1
sg47
g48
(g49
g50
Ntp1993
Rp1994
(dp1995
g54
I2
sg55
S'^^'
p1996
sg57
S'special'
p1997
sbsg59
(dp1998
sg61
(dp1999
g63
I0
sg64
I0
sg65
I0
sg66
I7
ssg67
F10.921052631578947
sg68
I0
sS'random_retraite'
p2000
I2
sg70
I0
sg71
(dp2001
g73
I4
sg74
I6
sg75
g896
ssg77
I0
sg78
F54.77477612623294
sg79
I00
sg80
I4
sg81
I0
sg82
I0
sg83
I0
sg84
I2
sg85
I00
sg86
F15.0
sg87
(dp2002
g89
I0
sg90
I0
sg91
I0
sg92
I5
ssg108
I00
sg95
(dp2003
g89
I0
sg90
I0
sg91
I0
sg92
I0
ssg97
(dp2004
g63
I2
sg64
I46
sg65
I0
sg66
I1
ssg99
I0
sg100
(lp2005
g102
aI01
aI01
aI00
asg103
I0
sg104
S'Filodil'
p2006
sg106
I3
sg107
I0
sg113
I13
sg109
I100
sg110
g111
sg112
I00
sg114
(dp2007
g116
I5
sg117
I9
sg118
I7
sg119
I10
sg120
I13
sg121
I6
sg122
I3
sg123
I7
sg124
I7
sg125
I9
sg126
I8
sg127
I12
sg128
I5
sg129
I12
sg130
I3
ssg131
(dp2008
g116
I6
sg117
I9
sg118
I7
sg119
I10
sg124
I7
sg121
I6
sg122
I3
sg123
I7
sg120
I13
sg125
I9
sg126
I8
sg127
I13
sg128
I5
sg129
I13
sg130
I3
ssg133
g48
(g49
g50
Ntp2009
Rp2010
(dp2011
g54
I2
sg55
S'^^'
p2012
sg57
g1997
sbsg137
g6
(g140
S'\x08\x00\x00\x00'
p2013
tp2014
Rp2015
sg146
I0
sg147
I1
sg148
I0
sg149
I0
sg150
F10.921052631578947
sg151
I0
sg152
(g153
S'TL'
p2016
S'DL'
p2017
g42
tp2018
sg158
(dp2019
g63
I0
sg64
I0
sg65
I0
sg66
I0
ssg160
I0
sg93
(dp2020
g89
I0
sg90
I0
sg91
I0
sg92
I0
ssg162
(dp2021
S's13'
p2022
(ijoueur
joueur
p2023
(dp2024
g38
I0
sg40
F9.0
sg146
I0
sg43
I0
sg80
I4
sg45
I0
sg47
g1994
sg61
(dp2025
g168
I0
sg169
I0
sg170
I0
sg171
I0
ssg158
g2019
sg172
S'DKF 11'
p2026
sg71
(dp2027
g174
I1
sg175
I1
sg176
g177
ssg77
I0
sg81
I0
sg82
I0
sg83
I0
sg152
g2018
sg85
I00
sg133
g2010
sg86
F1.0
sg108
I00
sg95
(dp2028
g179
I0
sg180
I0
sg181
I0
sg182
I0
ssg97
g2004
sg99
I0
sg100
(lp2029
g184
aI01
aI01
aI00
asg87
(dp2030
g179
I0
sg180
I15
sg181
I0
sg182
I0
ssg110
g111
sg104
S'Filodil (13)'
p2031
sg106
I3
sg107
I0
sg113
I13
sg109
I100
sg84
I0
sg114
(dp2032
g188
I0
sg189
I0
sg190
I0
sg191
I0
sg192
I0
sg193
I0
sg194
I0
sg195
I0
sg196
I0
sg197
I0
sg198
I0
sg199
I0
sg200
I0
sg201
I0
sg202
I0
ssg162
(dp2033
sg137
I0
sg41
g42
sg147
I0
sg148
F15.0
sg149
I0
sg150
F10.921052631578947
sg151
I0
sg160
I0
sg93
(dp2034
g179
I0
sg180
I0
sg181
I0
sg182
I0
ssg205
I0
sg131
(dp2035
g207
I6
sg208
I9
sg209
I7
sg210
I10
sg211
I7
sg212
I6
sg213
I3
sg214
I7
sg215
I13
sg216
I9
sg217
I8
sg218
I13
sg219
I5
sg220
I13
sg221
I3
ssg222
I0
sg223
I0
sg224
I0
sg225
I0
sg226
I10
sg227
I0
sg161
I0
sg103
I0
sg228
I0
sg229
S'ES'
p2036
sbsg231
(ijoueur
joueur
p2037
(dp2038
g37
F11.578947368421053
sg38
I1
sg40
F7.0
sg41
g42
sg43
I0
sg80
I3
sg45
I0
sg47
g48
(g49
g50
Ntp2039
Rp2040
(dp2041
g54
I2
sg55
S'^^'
p2042
sg57
S'special'
p2043
sbsg61
(dp2044
g240
I0
sg241
I0
sg242
I0
sg243
I7
ssg158
(dp2045
g240
I0
sg241
I0
sg242
I0
sg243
I0
ssg70
I0
sg71
(dp2046
g174
I1
sg175
I1
sg176
g177
ssg77
I0
sg81
I0
sg82
I0
sg83
I0
sg152
(g246
S'TL'
p2047
S'DL'
p2048
g42
tp2049
sg85
I00
sg133
g48
(g49
g50
Ntp2050
Rp2051
(dp2052
g54
I2
sg55
S'^^'
p2053
sg57
g2043
sbsg86
F10.0
sg108
I01
sg95
(dp2054
g255
I0
sg256
I0
sg257
I0
sg258
I0
ssg97
(dp2055
g240
I2
sg241
I26
sg242
I0
sg243
I1
ssg99
I0
sg100
(lp2056
g184
aI01
aI01
aI00
asg87
(dp2057
g255
I1
sg256
I0
sg257
I0
sg258
I14
ssg110
g262
sg104
S'Filodil (12)'
p2058
sg106
I3
sg107
I0
sg113
I13
sg109
I100
sg84
I0
sg114
(dp2059
g265
I6
sg266
I9
sg267
I7
sg268
I11
sg269
I7
sg270
I6
sg271
I3
sg272
I7
sg273
I13
sg274
I9
sg275
I9
sg276
I13
sg277
I5
sg278
I14
sg279
I3
ssg162
(dp2060
g281
(ijoueur
joueur
p2061
(dp2062
g38
I0
sg43
I0
sg45
I0
sg47
g48
(g49
g50
Ntp2063
Rp2064
(dp2065
g54
I2
sg55
S'^^'
p2066
sg57
S'special'
p2067
sbsg61
(dp2068
S'SR'
p2069
I0
sS'CT'
p2070
I0
sS'CR'
p2071
I0
sS'ST'
p2072
I7
ssg158
(dp2073
g2069
I0
sg2070
I0
sg2071
I0
sg2072
I0
ssg70
I0
sg77
I0
sg108
I01
sg81
I0
sg82
I0
sg83
I0
sg152
(S'dummy'
p2074
S'TL'
p2075
S'DL'
p2076
g42
tp2077
sg85
I01
sg133
g48
(g49
g50
Ntp2078
Rp2079
(dp2080
g54
I2
sg55
S'^^'
p2081
sg57
g2067
sbsg87
(dp2082
g2069
I1
sg2070
I12
sg2071
I0
sg2072
I1
ssg93
(dp2083
g2069
I0
sg2070
I0
sg2071
I0
sg2072
I7
ssg95
(dp2084
g2069
I0
sg2070
I0
sg2071
I0
sg2072
I0
ssg97
(dp2085
g2069
I1
sg2070
I12
sg2071
I0
sg2072
I1
ssg99
I0
sg103
I0
sg104
S'Filodil'
p2086
sg106
I3
sg107
I0
sg113
I13
sg109
I100
sg110
S'KHR'
p2087
sg114
(dp2088
S'A'
p2089
I7
sS'ME'
p2090
I9
sS'RP2'
p2091
I7
sS'E'
p2092
I10
sS'P'
p2093
I7
sS'RP1'
p2094
I6
sS'JP'
p2095
I3
sS'RP_tot'
p2096
I7
sS'TO'
p2097
I14
sS'PA'
p2098
I9
sS'M'
p2099
I8
sS'R'
p2100
I14
sS'TB'
p2101
I5
sS'PL'
p2102
I14
sS'TA'
p2103
I3
ssg137
I0
sg146
I0
sg147
I0
sg149
I0
sg150
F11.578947368421053
sg151
I0
sg161
I0
sg205
I0
sg325
(dp2104
S'A'
p2105
I7
sS'ME'
p2106
I9
sS'RP2'
p2107
I7
sS'E'
p2108
I10
sS'P'
p2109
I7
sS'RP1'
p2110
I6
sS'JP'
p2111
I3
sS'RP_tot'
p2112
I7
sS'TO'
p2113
I14
sS'PA'
p2114
I9
sS'M'
p2115
I8
sS'R'
p2116
I14
sS'TB'
p2117
I5
sS'PL'
p2118
I14
sS'TA'
p2119
I3
ssg131
g2088
sg222
I0
sg172
S'DKF 11'
p2120
sg223
I0
sg224
I0
sg225
I0
sg226
I10
sg227
I0
sg228
I0
sg229
S'ES'
p2121
sbssg137
I0
sg146
I0
sg147
I0
sg148
F14.5
sg149
I0
sg150
F11.236842105263158
sg151
I0
sg160
I0
sg93
(dp2122
g255
I0
sg256
I0
sg257
I0
sg258
I0
ssg205
I0
sg325
(dp2123
g345
I7
sg346
I9
sg347
I7
sg348
I10
sg349
I14
sg350
I6
sg351
I3
sg352
I7
sg353
I7
sg354
I9
sg355
I8
sg356
I14
sg357
I5
sg358
I14
sg359
I3
ssg131
g2059
sg222
I1
sg172
S'DKF 11'
p2124
sg223
I0
sg224
I0
sg225
I0
sg226
I10
sg227
I0
sg161
I0
sg103
I0
sg228
I0
sg229
S'ES'
p2125
sbsg361
(ijoueur
joueur
p2126
(dp2127
g38
I0
sg40
F3.5
sg43
I0
sg80
I2
sg45
I0
sg47
g48
(g49
g50
Ntp2128
Rp2129
(dp2130
g54
I2
sg55
S'^^'
p2131
sg57
S'special'
p2132
sbsg61
(dp2133
S'SR'
p2134
I0
sS'CT'
p2135
I0
sS'CR'
p2136
I0
sS'ST'
p2137
I7
ssg158
(dp2138
g2134
I0
sg2135
I0
sg2136
I0
sg2137
I0
ssg70
I0
sg71
(dp2139
g174
I1
sg175
I1
sg176
g177
ssg77
I0
sg81
I0
sg82
I0
sg83
I0
sg152
(S'dummy'
p2140
S'TL'
p2141
S'DL'
p2142
g42
tp2143
sg85
I01
sg133
g48
(g49
g50
Ntp2144
Rp2145
(dp2146
g54
I2
sg55
S'^^'
p2147
sg57
g2132
sbsg86
F20.5
sg108
I01
sg95
(dp2148
g2134
I0
sg2135
I0
sg2136
I0
sg2137
I0
ssg97
(dp2149
g2134
I1
sg2135
I12
sg2136
I0
sg2137
I1
ssg99
I0
sg100
(lp2150
g184
aI01
aI01
aI00
asg103
I0
sg110
S'KHR'
p2151
sg104
S'Filodil (11)'
p2152
sg106
I3
sg107
I0
sg113
I13
sg109
I100
sg84
I0
sg87
(dp2153
g2134
I1
sg2135
I12
sg2136
I0
sg2137
I1
ssg114
(dp2154
S'A'
p2155
I7
sS'ME'
p2156
I9
sS'RP2'
p2157
I7
sS'E'
p2158
I10
sS'P'
p2159
I7
sS'RP1'
p2160
I6
sS'JP'
p2161
I3
sS'RP_tot'
p2162
I7
sS'TO'
p2163
I14
sS'PA'
p2164
I9
sS'M'
p2165
I8
sS'R'
p2166
I14
sS'TB'
p2167
I5
sS'PL'
p2168
I14
sS'TA'
p2169
I3
ssg137
I0
sg146
I0
sg147
I0
sg148
F20.5
sg149
I0
sg150
F11.578947368421053
sg151
I0
sg160
I0
sg93
(dp2170
g2134
I0
sg2135
I0
sg2136
I0
sg2137
I7
ssg205
I0
sg325
(dp2171
S'A'
p2172
I7
sS'ME'
p2173
I9
sS'RP2'
p2174
I7
sS'E'
p2175
I10
sS'P'
p2176
I7
sS'RP1'
p2177
I6
sS'JP'
p2178
I3
sS'RP_tot'
p2179
I7
sS'TO'
p2180
I14
sS'PA'
p2181
I9
sS'M'
p2182
I8
sS'R'
p2183
I14
sS'TB'
p2184
I5
sS'PL'
p2185
I14
sS'TA'
p2186
I3
ssg131
g2154
sg222
I0
sg172
S'DKF 11'
p2187
sg223
I0
sg224
I0
sg225
I0
sg226
I10
sg227
I0
sg161
I0
sg228
I0
sg229
S'ES'
p2188
sbssg205
I1
sg325
(dp2189
g425
I7
sg426
I9
sg427
I7
sg428
I10
sg429
I14
sg430
I6
sg431
I3
sg432
I7
sg433
I7
sg434
I9
sg435
I8
sg436
I14
sg437
I5
sg438
I14
sg439
I3
ssg222
I0
sg440
(dp2190
sg223
I0
sg172
g2026
sg224
I0
sg225
I0
sg226
I10
sg227
I0
sg161
I0
sg228
I0
sg229
g2036
sbsS'drop2'
p2191
g35
sS'SA_remp2'
p2192
(ijoueur
joueur
p2193
(dp2194
g37
F8.68421052631579
sg38
I0
sg39
F9.529411764705882
sg40
F0.5
sg41
S'TL -> DL : 13'
p2195
sg43
I0
sg44
F44.34675032894925
sg45
I0
sg46
I0
sg47
g48
(g49
g50
Ntp2196
Rp2197
(dp2198
g54
I1
sg55
S'>'
p2199
sg57
S'base'
p2200
sbsg59
(dp2201
sg61
(dp2202
S'SR'
p2203
I0
sS'ST'
p2204
I0
sS'CR'
p2205
I3
sS'CT'
p2206
I1
ssg67
F9.529411764705882
sg68
I0
sg69
I10
sg70
I0
sg71
(dp2207
g73
I3
sg74
I11
sg75
g76
ssg77
I0
sg1380
I0
sg1381
I0
sg79
I00
sg80
I2
sg81
I0
sg82
I0
sg83
I0
sg84
I0
sg85
I00
sg86
F5.5
sg87
(dp2208
g89
I0
sg90
I0
sg91
I0
sg92
I0
ssg108
I00
sg95
(dp2209
g89
I0
sg90
I0
sg91
I4
sg92
I0
ssg97
(dp2210
g2203
I0
sg2204
I0
sg2205
I7
sg2206
I15
ssg99
I0
sg100
(lp2211
g102
aI01
aI01
aI01
asg103
I0
sg104
S'Paad'
p2212
sg106
I2
sg107
I0
sg93
(dp2213
g89
I0
sg90
I0
sg91
I0
sg92
I0
ssg109
I50
sg110
g111
sg112
I00
sg113
I15
sg114
(dp2214
S'A'
p2215
I10
sS'ME'
p2216
I12
sS'RP2'
p2217
I8
sS'E'
p2218
I8
sS'P'
p2219
I4
sS'RP1'
p2220
I10
sS'JP'
p2221
I4
sS'RP_tot'
p2222
I11
sS'TO'
p2223
I12
sS'PA'
p2224
I7
sS'M'
p2225
I6
sS'R'
p2226
I10
sS'TB'
p2227
I4
sS'PL'
p2228
I7
sS'TA'
p2229
I6
ssg131
(dp2230
g2215
I10
sg2216
I12
sg2217
I8
sg2218
I8
sg2223
I12
sg2220
I10
sg2221
I4
sg2222
I11
sg2219
I4
sg2224
I7
sg2225
I6
sg2226
I10
sg2227
I4
sg2228
I7
sg2229
I6
ssg133
g48
(g49
g50
Ntp2231
Rp2232
(dp2233
g54
I1
sg55
g2199
sg57
g2200
sbsg137
I4
sg146
I0
sg147
I0
sg148
I0
sg149
I0
sg150
F9.970588235294118
sg151
I0
sg152
(S'dummy'
p2234
S'DL'
p2235
S'TL'
p2236
S'TA'
p2237
tp2238
sg158
(dp2239
g2203
I0
sg2204
I0
sg2205
I5
sg2206
I0
ssg78
F44.34675032894925
sg160
I3
sg1418
I0
sg161
I0
sg162
(dp2240
S's13'
p2241
(ijoueur
joueur
p2242
(dp2243
g38
I0
sg40
F0.5
sg146
I0
sg43
I0
sg80
I2
sg45
I0
sg47
g2197
sg61
(dp2244
g168
I0
sg169
I0
sg170
I0
sg171
I0
ssg158
g2239
sg172
S'TO 10;PRG 13'
p2245
sg71
(dp2246
g174
I1
sg175
I1
sg176
g177
ssg77
I0
sg81
I1
sg82
I0
sg83
I0
sg152
g2238
sg85
I00
sg133
g2232
sg86
F1.0
sg108
I00
sg95
(dp2247
g179
I0
sg180
I0
sg181
I0
sg182
I0
ssg97
g2210
sg99
I0
sg100
(lp2248
g184
aI01
aI01
aI01
asg87
(dp2249
g179
I0
sg180
I3
sg181
I5
sg182
I0
ssg110
g111
sg104
S'Paad (13)'
p2250
sg106
I2
sg107
I0
sg113
I15
sg109
I50
sg84
I0
sg114
(dp2251
g188
I0
sg189
I0
sg190
I0
sg191
I0
sg192
I0
sg193
I0
sg194
I0
sg195
I0
sg196
I0
sg197
I0
sg198
I0
sg199
I0
sg200
I0
sg201
I0
sg202
I0
ssg162
(dp2252
sg137
I0
sg41
g42
sg147
I0
sg148
F5.5
sg149
I0
sg150
F9.529411764705882
sg151
I0
sg160
I0
sg93
(dp2253
g179
I0
sg180
I0
sg181
I0
sg182
I0
ssg205
I0
sg131
(dp2254
g207
I10
sg208
I11
sg209
I7
sg210
I8
sg211
I4
sg212
I10
sg213
I4
sg214
I10
sg215
I11
sg216
I7
sg217
I6
sg218
I10
sg219
I4
sg220
I7
sg221
I6
ssg222
I0
sg223
I0
sg224
I0
sg225
I0
sg226
I8
sg227
I0
sg161
I0
sg103
I0
sg228
I0
sg229
S'HL'
p2255
sbsS's12'
p2256
(ijoueur
joueur
p2257
(dp2258
g37
F8.68421052631579
sg38
I0
sg40
F7.0
sg41
g42
sg43
I0
sg80
I1
sg45
I0
sg47
g48
(g49
g50
Ntp2259
Rp2260
(dp2261
g54
I1
sg55
S'>'
p2262
sg57
S'base'
p2263
sbsg61
(dp2264
S'SR'
p2265
I0
sS'ST'
p2266
I0
sS'CR'
p2267
I2
sS'CT'
p2268
I12
ssg158
(dp2269
g2265
I0
sg2266
I0
sg2267
I1
sg2268
I0
ssg70
I0
sg71
(dp2270
g174
I1
sg175
I1
sg176
g177
ssg77
I0
sg1380
I0
sg1381
I0
sg81
I0
sg82
I0
sg83
I0
sg152
(S'dummy'
p2271
S'TL'
p2272
S'DL'
p2273
S'TA'
p2274
tp2275
sg85
I01
sg86
F8.0
sg87
(dp2276
S'SR'
p2277
I0
sS'CT'
p2278
I1
sS'CR'
p2279
I3
sS'ST'
p2280
I0
ssg108
I00
sg95
(dp2281
g2277
I0
sg2278
I0
sg2279
I1
sg2280
I0
ssg97
(dp2282
g2265
I0
sg2266
I0
sg2267
I3
sg2268
I1
ssg99
I0
sg100
(lp2283
g184
aI01
aI01
aI01
asg103
I0
sg110
S'PRG'
p2284
sg104
S'Paad (12)'
p2285
sg106
I2
sg107
I0
sg113
I15
sg109
I50
sg84
I0
sg114
(dp2286
S'A'
p2287
I10
sS'ME'
p2288
I11
sS'RP2'
p2289
I6
sS'E'
p2290
I8
sS'TO'
p2291
I11
sS'RP1'
p2292
I10
sS'JP'
p2293
I4
sS'RP_tot'
p2294
I10
sS'P'
p2295
I4
sS'PA'
p2296
I7
sS'M'
p2297
I6
sS'R'
p2298
I10
sS'TB'
p2299
I4
sS'PL'
p2300
I7
sS'TA'
p2301
I6
ssg133
g48
(g49
g50
Ntp2302
Rp2303
(dp2304
g54
I1
sg55
g2262
sg57
g2263
sbsg137
I0
sg146
I0
sg147
I0
sg148
F5.0
sg149
I0
sg150
F9.263157894736842
sg151
I0
sg160
I0
sg1418
I0
sg93
(dp2305
g2277
I0
sg2278
I2
sg2279
I0
sg2280
I0
ssg162
(dp2306
S's11'
p2307
(ijoueur
joueur
p2308
(dp2309
g38
I0
sg43
I0
sg45
I0
sg47
g48
(g49
g50
Ntp2310
Rp2311
(dp2312
g54
I1
sg55
S'>'
p2313
sg57
S'base'
p2314
sbsg61
(dp2315
S'SR'
p2316
I0
sS'ST'
p2317
I0
sS'CR'
p2318
I2
sS'CT'
p2319
I10
ssg158
(dp2320
g2316
I0
sg2317
I0
sg2318
I0
sg2319
I0
ssg70
I0
sg150
F8.68421052631579
sg77
I0
sg1380
I0
sg1381
I0
sg81
I0
sg82
I0
sg83
I0
sg152
(S'dummy'
p2321
S'TL'
p2322
S'DL'
p2323
S'TA'
p2324
tp2325
sg85
I00
sg133
g48
(g49
g50
Ntp2326
Rp2327
(dp2328
g54
I1
sg55
g2313
sg57
g2314
sbsg87
(dp2329
g2316
I0
sg2317
I0
sg2318
I0
sg2319
I0
ssg108
I00
sg95
(dp2330
g2316
I0
sg2317
I0
sg2318
I0
sg2319
I0
ssg97
(dp2331
g2316
I0
sg2317
I0
sg2318
I0
sg2319
I0
ssg99
I0
sg103
I0
sg104
S'Paad'
p2332
sg106
I2
sg107
I0
sg113
I15
sg109
I50
sg110
S'PRG'
p2333
sg114
(dp2334
S'A'
p2335
I9
sS'ME'
p2336
I11
sS'RP2'
p2337
I6
sS'E'
p2338
I8
sS'TO'
p2339
I9
sS'RP1'
p2340
I10
sS'JP'
p2341
I4
sS'RP_tot'
p2342
I10
sS'P'
p2343
I4
sS'PA'
p2344
I7
sS'M'
p2345
I8
sS'R'
p2346
I9
sS'TB'
p2347
I4
sS'PL'
p2348
I7
sS'TA'
p2349
I6
ssg137
I0
sg146
I0
sg147
I0
sg149
I0
sg93
(dp2350
g2316
I0
sg2317
I0
sg2318
I2
sg2319
I10
ssg151
I0
sg1418
I0
sg161
I0
sg205
I0
sg325
(dp2351
S'A'
p2352
I9
sS'ME'
p2353
I11
sS'RP2'
p2354
I6
sS'E'
p2355
I8
sS'TO'
p2356
I9
sS'RP1'
p2357
I10
sS'JP'
p2358
I4
sS'RP_tot'
p2359
I10
sS'P'
p2360
I4
sS'PA'
p2361
I7
sS'M'
p2362
I8
sS'R'
p2363
I9
sS'TB'
p2364
I4
sS'PL'
p2365
I7
sS'TA'
p2366
I6
ssg131
g2334
sg222
I0
sg172
S'TO 10'
p2367
sg223
I0
sg224
I0
sg225
I0
sg226
I5
sg227
I3
sg228
I0
sg229
S'HL'
p2368
sbssg205
I0
sg325
(dp2369
S'A'
p2370
I9
sS'ME'
p2371
I11
sS'RP2'
p2372
I6
sS'E'
p2373
I8
sS'P'
p2374
I4
sS'RP1'
p2375
I10
sS'JP'
p2376
I4
sS'RP_tot'
p2377
I10
sS'TO'
p2378
I9
sS'PA'
p2379
I7
sS'M'
p2380
I8
sS'R'
p2381
I9
sS'TB'
p2382
I4
sS'PL'
p2383
I7
sS'TA'
p2384
I6
ssg131
g2286
sg222
I0
sg172
S'TO 10'
p2385
sg223
I0
sg224
I0
sg225
I0
sg226
I5
sg227
I3
sg161
I0
sg228
I0
sg229
S'HL'
p2386
sbsS's11'
p2387
(ijoueur
joueur
p2388
(dp2389
g38
I0
sg40
F2.0
sg43
I0
sg80
I1
sg45
I0
sg47
g48
(g49
g50
Ntp2390
Rp2391
(dp2392
g54
I1
sg55
S'>'
p2393
sg57
S'base'
p2394
sbsg61
(dp2395
S'SR'
p2396
I0
sS'ST'
p2397
I0
sS'CR'
p2398
I2
sS'CT'
p2399
I10
ssg158
(dp2400
g2396
I0
sg2397
I0
sg2398
I0
sg2399
I0
ssg70
I0
sg71
(dp2401
g174
I1
sg175
I1
sg176
g177
ssg77
I0
sg1380
I0
sg1381
I0
sg81
I0
sg82
I0
sg83
I0
sg152
(S'dummy'
p2402
S'TL'
p2403
S'DL'
p2404
S'TA'
p2405
tp2406
sg85
I00
sg86
F11.0
sg87
(dp2407
g2396
I0
sg2397
I0
sg2398
I0
sg2399
I0
ssg108
I00
sg95
(dp2408
g2396
I0
sg2397
I0
sg2398
I0
sg2399
I0
ssg97
(dp2409
g2396
I0
sg2397
I0
sg2398
I0
sg2399
I0
ssg99
I0
sg100
(lp2410
g184
aI01
aI01
aI01
asg103
I0
sg110
S'PRG'
p2411
sg104
S'Paad (11)'
p2412
sg106
I2
sg107
I0
sg113
I15
sg109
I50
sg84
I0
sg114
(dp2413
S'A'
p2414
I9
sS'ME'
p2415
I11
sS'RP2'
p2416
I6
sS'E'
p2417
I8
sS'TO'
p2418
I9
sS'RP1'
p2419
I10
sS'JP'
p2420
I4
sS'RP_tot'
p2421
I10
sS'P'
p2422
I4
sS'PA'
p2423
I7
sS'M'
p2424
I8
sS'R'
p2425
I9
sS'TB'
p2426
I4
sS'PL'
p2427
I7
sS'TA'
p2428
I6
ssg133
g48
(g49
g50
Ntp2429
Rp2430
(dp2431
g54
I1
sg55
g2393
sg57
g2394
sbsg137
I0
sg146
I0
sg147
I0
sg148
F11.0
sg149
I0
sg150
F8.68421052631579
sg151
I0
sg160
I0
sg1418
I0
sg93
(dp2432
g2396
I0
sg2397
I0
sg2398
I2
sg2399
I10
ssg205
I0
sg325
(dp2433
S'A'
p2434
I9
sS'ME'
p2435
I11
sS'RP2'
p2436
I6
sS'E'
p2437
I8
sS'TO'
p2438
I9
sS'RP1'
p2439
I10
sS'JP'
p2440
I4
sS'RP_tot'
p2441
I10
sS'P'
p2442
I4
sS'PA'
p2443
I7
sS'M'
p2444
I8
sS'R'
p2445
I9
sS'TB'
p2446
I4
sS'PL'
p2447
I7
sS'TA'
p2448
I6
ssg131
g2413
sg222
I0
sg172
S'TO 10'
p2449
sg223
I0
sg224
I0
sg225
I0
sg226
I5
sg227
I3
sg161
I0
sg228
I0
sg229
S'HL'
p2450
sbssg205
I0
sg325
(dp2451
S'A'
p2452
I9
sS'ME'
p2453
I11
sS'RP2'
p2454
I6
sS'E'
p2455
I8
sS'P'
p2456
I4
sS'RP1'
p2457
I10
sS'JP'
p2458
I4
sS'RP_tot'
p2459
I10
sS'TO'
p2460
I9
sS'PA'
p2461
I7
sS'M'
p2462
I8
sS'R'
p2463
I9
sS'TB'
p2464
I4
sS'PL'
p2465
I7
sS'TA'
p2466
I6
ssg222
I0
sg440
(dp2467
sg223
I0
sg172
g2245
sg224
I0
sg225
I0
sg226
I8
sg227
I4
sg228
I0
sg229
g2255
sbssg104
csip
_unpickle_type
p2468
(S'PyQt4.QtCore'
p2469
S'QString'
p2470
(VKHR_APA_c
p2471
tp2472
tp2473
Rp2474
sS'totaux'
p2475
(dp2476
g29
I0
sg30
I0
sg31
I0
ssS'_compo_defaut_fatigue'
p2477
Nsg114
(dp2478
g4
I0
sg5
I0
sg16
I0
sg17
I0
sg18
I0
sg19
I0
sg20
I0
sg21
I0
sg22
I0
sg23
I0
sg24
I0
sg25
I0
sg26
I0
ssS'joueurs'
p2479
(dp2480
S'n12'
p2481
(ijoueur
joueur
p2482
(dp2483
g38
I0
sg40
I0
sg146
I0
sg43
I0
sg80
I0
sg445
g42
sg45
I0
sg446
g42
sg47
g48
(g49
g50
Ntp2484
Rp2485
(dp2486
g54
I4
sg55
S'*'
p2487
sg57
S'heros'
p2488
sbsg61
(dp2489
S'SR'
p2490
I0
sS'CT'
p2491
I0
sS'CR'
p2492
I0
sS'ST'
p2493
I0
ssg158
(dp2494
g2490
I0
sg2491
I0
sg2492
I0
sg2493
I0
ssg172
g42
sg226
I1
sg71
(dp2495
S'couleur'
p2496
I1
sS'r_nr'
p2497
S'n'
p2498
sS'valeur'
p2499
I0
ssg77
I0
sg78
F54.77477612623294
sg79
I01
sg44
F54.77477612623294
sg81
I0
sg82
I0
sg83
I0
sg110
g111
sg85
I00
sg133
g48
(g49
g50
Ntp2500
Rp2501
(dp2502
g54
I1
sg55
S'^'
p2503
sg57
S'base'
p2504
sbsg87
(dp2505
g2490
I0
sg2491
I0
sg2492
I5
sg2493
I0
ssg108
I00
sg95
(dp2506
g2490
I0
sg2491
I0
sg2492
I0
sg2493
I0
ssg97
(dp2507
g2490
I0
sg2491
I0
sg2492
I5
sg2493
I0
ssg99
I0
sg100
(lp2508
S'dummy'
p2509
aI01
aI00
aI00
asg86
I0
sg104
S'Ztalaesh'
p2510
sg106
I14
sg107
I0
sg113
g6
(g140
S'\x16\x00\x00\x00'
p2511
tp2512
Rp2513
sg109
I18
sg152
(g2509
S'C1'
p2514
g42
g42
tp2515
sg112
I00
sg465
g42
sg228
I0
sg114
(dp2516
S'RP1'
p2517
I10
sS'ME'
p2518
g6
(g140
S'\x04\x00\x00\x00'
p2519
tp2520
Rp2521
sS'RP2'
p2522
I8
sS'E'
p2523
I10
sS'TO'
p2524
g6
(g140
S'\x05\x00\x00\x00'
p2525
tp2526
Rp2527
sS'M'
p2528
I9
sS'JP'
p2529
I6
sS'RP_tot'
p2530
I11
sS'P'
p2531
I8
sS'PA'
p2532
I10
sS'A'
p2533
I12
sS'R'
p2534
I9
sS'TB'
p2535
I6
sS'PL'
p2536
I9
sS'TA'
p2537
g6
(g140
S'\x06\x00\x00\x00'
p2538
tp2539
Rp2540
ssg162
(dp2541
sg137
I6
sg41
g42
sg147
I0
sg148
I0
sg150
g6
(g10
S'UUUUUU#@'
p2542
tp2543
Rp2544
sg151
I0
sg160
I0
sg93
(dp2545
g2490
I0
sg2491
I0
sg2492
I0
sg2493
I0
ssg205
I0
sg131
(dp2546
g2517
I10
sg2518
g6
(g140
S'\x04\x00\x00\x00'
p2547
tp2548
Rp2549
sg2522
I8
sg2523
I10
sg2531
I8
sg2529
I6
sg2528
I9
sg2530
I11
sg2524
g6
(g140
S'\x05\x00\x00\x00'
p2550
tp2551
Rp2552
sg2532
I10
sg2533
I12
sg2534
I9
sg2535
I6
sg2536
I9
sg2537
g6
(g140
S'\x06\x00\x00\x00'
p2553
tp2554
Rp2555
ssg222
I0
sg223
I0
sg224
I0
sg225
I0
sg84
I0
sg227
I0
sg161
I0
sg103
I0
sg229
S'CHS'
p2556
sbsS'n13'
p2557
(ijoueur
joueur
p2558
(dp2559
g37
F11.233333333333333
sg38
I0
sg39
F12.133333333333333
sg40
F16.5
sg41
g42
sg43
I12
sg44
F54.77477612623294
sg45
I0
sg46
I0
sg47
g48
(g49
g50
Ntp2560
Rp2561
(dp2562
g54
I4
sg55
S'*'
p2563
sg57
S'heros'
p2564
sbsg59
(dp2565
sg61
(dp2566
g561
I3
sg562
I1
sg563
I0
sg564
I0
ssg67
F11.666666666666666
sg68
I0
sg69
I10
sg70
I0
sg71
(dp2567
g566
I1
sg567
I7
sg568
g569
ssg77
I0
sg78
F54.77477612623294
sg79
I00
sg80
I5
sg81
I1
sg82
I0
sg83
I0
sg84
I3
sg85
I00
sg86
F21.5
sg87
(dp2568
g571
I0
sg572
I5
sg573
I0
sg574
I0
ssg93
(dp2569
g571
I0
sg572
I0
sg573
I0
sg574
I0
ssg95
(dp2570
g571
I0
sg572
I0
sg573
I0
sg574
I0
ssg97
(dp2571
g561
I2
sg562
I12
sg563
I0
sg564
I49
ssg99
I5
sg100
(lp2572
g579
aI01
aI01
aI01
asg103
I0
sg104
S'Soled'
p2573
sg106
I5
sg107
I0
sg108
I00
sg109
I133
sg110
g581
sg112
I00
sg113
I18
sg114
(dp2574
g583
I13
sg584
I6
sg585
I12
sg586
I12
sg587
I10
sg588
I11
sg589
I10
sg590
I14
sg591
I9
sg592
I14
sg593
I10
sg594
I5
sg595
I8
sg596
I12
sg597
I5
ssg131
(dp2575
g583
I14
sg584
I6
sg585
I12
sg586
I12
sg591
I9
sg588
I11
sg589
I10
sg590
I14
sg587
I10
sg592
I14
sg593
I10
sg594
I6
sg595
I8
sg596
I13
sg597
I5
ssg133
g48
(g49
g50
Ntp2576
Rp2577
(dp2578
g54
I4
sg55
g2563
sg57
g2564
sbsg137
g6
(g140
S'\n\x00\x00\x00'
p2579
tp2580
Rp2581
sg146
I0
sg147
I0
sg148
I0
sg149
I0
sg150
F12.1
sg151
I0
sg152
(g606
S'C1'
p2582
S'AR'
p2583
S'AI'
p2584
tp2585
sg158
(dp2586
g561
I2
sg562
I2
sg563
I0
sg564
I0
ssg160
I5
sg161
I0
sg162
(dp2587
S's13'
p2588
(ijoueur
joueur
p2589
(dp2590
g38
I0
sg40
F16.5
sg146
I0
sg43
I0
sg80
I5
sg45
I0
sg47
g2561
sg61
(dp2591
g617
I0
sg618
I0
sg619
I0
sg620
I0
ssg158
g2586
sg84
I0
sg172
g42
sg71
(dp2592
g622
I1
sg623
I1
sg624
g625
ssg77
I0
sg81
I5
sg82
I0
sg83
I0
sg152
g2585
sg85
I00
sg133
g2577
sg86
F2.5
sg108
I00
sg95
(dp2593
g627
I0
sg628
I0
sg629
I0
sg630
I0
ssg97
g2571
sg99
I0
sg100
(lp2594
g632
aI01
aI01
aI01
asg87
(dp2595
g627
I1
sg628
I5
sg629
I0
sg630
I16
ssg104
g2573
sg106
I5
sg107
I0
sg113
I18
sg109
I133
sg110
g581
sg114
(dp2596
g635
I0
sg636
I0
sg637
I0
sg638
I0
sg639
I0
sg640
I0
sg641
I0
sg642
I0
sg643
I0
sg644
I0
sg645
I0
sg646
I0
sg647
I0
sg648
I0
sg649
I0
ssg162
(dp2597
sg137
I0
sg41
g42
sg147
I0
sg148
F21.5
sg149
I0
sg150
F11.666666666666666
sg151
I0
sg160
I0
sg93
(dp2598
g627
I0
sg628
I0
sg629
I0
sg630
I0
ssg205
I0
sg131
(dp2599
g653
I13
sg654
I6
sg655
I11
sg656
I12
sg657
I9
sg658
I11
sg659
I9
sg660
I14
sg661
I9
sg662
I14
sg663
I10
sg664
I6
sg665
I9
sg666
I12
sg667
I5
ssg222
I0
sg223
I0
sg224
I0
sg225
I0
sg226
I49
sg227
I0
sg161
I0
sg103
I5
sg228
I0
sg229
S'ES'
p2600
sbsg669
(ijoueur
joueur
p2601
(dp2602
g37
F11.233333333333333
sg38
I0
sg40
F7.0
sg41
g42
sg43
I12
sg80
I4
sg45
I0
sg47
g48
(g49
g50
Ntp2603
Rp2604
(dp2605
g54
I4
sg55
S'*'
p2606
sg57
S'heros'
p2607
sbsg61
(dp2608
g678
I3
sg679
I1
sg680
I0
sg681
I0
ssg158
(dp2609
g678
I2
sg679
I2
sg680
I0
sg681
I0
ssg84
I0
sg70
I0
sg71
(dp2610
g622
I1
sg623
I1
sg624
g625
ssg77
I0
sg81
I4
sg82
I0
sg83
I0
sg152
(g684
S'C1'
p2611
S'AR'
p2612
S'AI'
p2613
tp2614
sg85
I00
sg133
g48
(g49
g50
Ntp2615
Rp2616
(dp2617
g54
I4
sg55
g2606
sg57
g2607
sbsg86
F2.0
sg108
I01
sg95
(dp2618
g694
I0
sg695
I0
sg696
I0
sg697
I0
ssg97
(dp2619
g678
I1
sg679
I7
sg680
I0
sg681
I28
ssg99
I0
sg100
(lp2620
g632
aI01
aI01
aI01
asg87
(dp2621
g694
I0
sg695
I14
sg696
I0
sg697
I7
ssg104
S'Soled'
p2622
sg106
I5
sg107
I0
sg113
I18
sg109
I133
sg110
g702
sg114
(dp2623
g704
I14
sg705
I6
sg706
I11
sg707
I12
sg708
I9
sg709
I11
sg710
I11
sg711
I15
sg712
I9
sg713
I14
sg714
I10
sg715
I7
sg716
I8
sg717
I12
sg718
I5
ssg162
(dp2624
g720
(ijoueur
joueur
p2625
(dp2626
g38
I0
sg43
I11
sg45
I0
sg47
g48
(g49
g50
Ntp2627
Rp2628
(dp2629
g54
I4
sg55
S'*'
p2630
sg57
S'heros'
p2631
sbsg61
(dp2632
S'SR'
p2633
I3
sS'ST'
p2634
I1
sS'CR'
p2635
I0
sS'CT'
p2636
I0
ssg158
(dp2637
g2633
I2
sg2634
I2
sg2635
I0
sg2636
I0
ssg70
I0
sg77
I0
sg108
I01
sg81
I2
sg82
I0
sg83
I0
sg152
(S'dummy'
p2638
S'C1'
p2639
S'AR'
p2640
S'AI'
p2641
tp2642
sg85
I01
sg133
g48
(g49
g50
Ntp2643
Rp2644
(dp2645
g54
I4
sg55
g2630
sg57
g2631
sbsg87
(dp2646
g2633
I1
sg2634
I0
sg2635
I0
sg2636
I14
ssg93
(dp2647
g2633
I3
sg2634
I1
sg2635
I0
sg2636
I0
ssg95
(dp2648
g2633
I2
sg2634
I2
sg2635
I0
sg2636
I0
ssg97
(dp2649
g2633
I1
sg2634
I0
sg2635
I0
sg2636
I14
ssg99
I0
sg103
I0
sg104
S'Soled'
p2650
sg106
I5
sg107
I0
sg113
I18
sg109
I133
sg110
S'KHR'
p2651
sg114
(dp2652
S'A'
p2653
I14
sS'ME'
p2654
I6
sS'RP2'
p2655
I9
sS'E'
p2656
I11
sS'TO'
p2657
I9
sS'RP1'
p2658
I9
sS'JP'
p2659
I11
sS'RP_tot'
p2660
I11
sS'P'
p2661
I8
sS'PA'
p2662
I14
sS'M'
p2663
I10
sS'R'
p2664
I7
sS'TB'
p2665
I8
sS'PL'
p2666
I11
sS'TA'
p2667
I5
ssg137
I0
sg146
I0
sg147
I0
sg149
I0
sg150
F11.233333333333333
sg151
I0
sg161
I0
sg205
I0
sg325
(dp2668
S'A'
p2669
I14
sS'ME'
p2670
I6
sS'RP2'
p2671
I9
sS'E'
p2672
I11
sS'TO'
p2673
I9
sS'RP1'
p2674
I9
sS'JP'
p2675
I11
sS'RP_tot'
p2676
I11
sS'P'
p2677
I8
sS'PA'
p2678
I14
sS'M'
p2679
I10
sS'R'
p2680
I7
sS'TB'
p2681
I8
sS'PL'
p2682
I11
sS'TA'
p2683
I5
ssg131
g2652
sg222
I0
sg172
g42
sg223
I0
sg224
I3
sg225
I0
sg226
I8
sg227
I10
sg228
I0
sg229
S'ES'
p2684
sbssg137
I7
sg146
I0
sg147
I0
sg148
F21.0
sg149
I0
sg150
F12.133333333333333
sg151
I0
sg160
I0
sg93
(dp2685
g694
I0
sg695
I0
sg696
I0
sg697
I0
ssg205
I1
sg325
(dp2686
g784
I14
sg785
I6
sg786
I9
sg787
I11
sg788
I8
sg789
I9
sg790
I11
sg791
I11
sg792
I9
sg793
I14
sg794
I10
sg795
I7
sg796
I8
sg797
I11
sg798
I5
ssg131
g2623
sg222
I0
sg172
g42
sg223
I0
sg224
I1
sg225
I0
sg226
I49
sg227
I14
sg161
I0
sg103
I0
sg228
I1
sg229
S'ES'
p2687
sbsg800
(ijoueur
joueur
p2688
(dp2689
g38
I0
sg40
F7.0
sg43
I11
sg80
I2
sg45
I0
sg47
g48
(g49
g50
Ntp2690
Rp2691
(dp2692
g54
I4
sg55
S'*'
p2693
sg57
S'heros'
p2694
sbsg61
(dp2695
S'SR'
p2696
I3
sS'ST'
p2697
I1
sS'CR'
p2698
I0
sS'CT'
p2699
I0
ssg158
(dp2700
g2696
I2
sg2697
I2
sg2698
I0
sg2699
I0
ssg84
I0
sg70
I0
sg71
(dp2701
g622
I1
sg623
I1
sg624
g625
ssg77
I0
sg81
I2
sg82
I0
sg83
I0
sg152
(S'dummy'
p2702
S'C1'
p2703
S'AR'
p2704
S'AI'
p2705
tp2706
sg85
I01
sg133
g48
(g49
g50
Ntp2707
Rp2708
(dp2709
g54
I4
sg55
g2693
sg57
g2694
sbsg86
F20.0
sg108
I01
sg95
(dp2710
g2696
I2
sg2697
I2
sg2698
I0
sg2699
I0
ssg97
(dp2711
g2696
I1
sg2697
I0
sg2698
I0
sg2699
I14
ssg99
I0
sg100
(lp2712
g632
aI01
aI01
aI01
asg103
I0
sg104
S'Soled'
p2713
sg106
I5
sg107
I0
sg113
I18
sg109
I133
sg110
S'KHR'
p2714
sg87
(dp2715
g2696
I1
sg2697
I0
sg2698
I0
sg2699
I14
ssg114
(dp2716
S'A'
p2717
I14
sS'ME'
p2718
I6
sS'RP2'
p2719
I9
sS'E'
p2720
I11
sS'TO'
p2721
I9
sS'RP1'
p2722
I9
sS'JP'
p2723
I11
sS'RP_tot'
p2724
I11
sS'P'
p2725
I8
sS'PA'
p2726
I14
sS'M'
p2727
I10
sS'R'
p2728
I7
sS'TB'
p2729
I8
sS'PL'
p2730
I11
sS'TA'
p2731
I5
ssg137
I0
sg146
I0
sg147
I0
sg148
F20.0
sg149
I0
sg150
F11.233333333333333
sg151
I0
sg160
I0
sg93
(dp2732
g2696
I3
sg2697
I1
sg2698
I0
sg2699
I0
ssg205
I0
sg325
(dp2733
S'A'
p2734
I14
sS'ME'
p2735
I6
sS'RP2'
p2736
I9
sS'E'
p2737
I11
sS'TO'
p2738
I9
sS'RP1'
p2739
I9
sS'JP'
p2740
I11
sS'RP_tot'
p2741
I11
sS'P'
p2742
I8
sS'PA'
p2743
I14
sS'M'
p2744
I10
sS'R'
p2745
I7
sS'TB'
p2746
I8
sS'PL'
p2747
I11
sS'TA'
p2748
I5
ssg131
g2716
sg222
I0
sg172
g42
sg223
I0
sg224
I3
sg225
I0
sg226
I8
sg227
I10
sg161
I0
sg228
I0
sg229
S'ES'
p2749
sbssg205
I1
sg325
(dp2750
g865
I14
sg866
I6
sg867
I9
sg868
I11
sg869
I8
sg870
I9
sg871
I11
sg872
I11
sg873
I9
sg874
I14
sg875
I10
sg876
I7
sg877
I8
sg878
I11
sg879
I5
ssg222
I0
sg440
(dp2751
sg223
I0
sg172
g42
sg224
I0
sg225
I0
sg226
I49
sg227
I20
sg228
I0
sg229
g2600
sbsS'n10'
p2752
g1166
sS'n11'
p2753
(ijoueur
joueur
p2754
(dp2755
g37
F13.838709677419354
sg38
I1
sg39
F13.64516129032258
sg40
F14.0
sg41
g42
sg43
I0
sg44
F44.34675032894925
sg45
I0
sg46
I0
sg47
g48
(g49
g50
Ntp2756
Rp2757
(dp2758
g54
I5
sg55
S'xx'
p2759
sg57
S'seigneur'
p2760
sbsg59
(dp2761
sg61
(dp2762
S'SR'
p2763
I0
sS'CT'
p2764
I0
sS'CR'
p2765
I0
sS'ST'
p2766
I0
ssg67
F13.451612903225806
sg68
I0
sg69
I10
sg70
I0
sg71
(dp2767
g566
I4
sg567
I7
sg568
S'r'
p2768
ssg77
I0
sg78
F44.34675032894925
sg79
I00
sg80
I6
sg81
I0
sg82
I0
sg83
I0
sg84
I2
sg85
I00
sg86
F20.0
sg87
(dp2769
g571
I0
sg572
I4
sg573
I0
sg574
I0
ssg93
(dp2770
g571
I0
sg572
I0
sg573
I0
sg574
I0
ssg95
(dp2771
g571
I0
sg572
I0
sg573
I0
sg574
I0
ssg97
(dp2772
g2763
I0
sg2764
I47
sg2765
I0
sg2766
I19
ssg99
I0
sg100
(lp2773
g579
aI01
aI01
aI01
asg103
I0
sg104
S'Drask'
p2774
sg106
I7
sg107
I0
sg108
I00
sg109
I3519
sg110
g581
sg112
I00
sg113
I17
sg114
(dp2775
S'A'
p2776
I14
sS'ME'
p2777
I6
sS'RP2'
p2778
I11
sS'E'
p2779
I13
sS'TO'
p2780
I10
sS'RP1'
p2781
I11
sS'JP'
p2782
I8
sS'RP_tot'
p2783
I14
sS'P'
p2784
I9
sS'PA'
p2785
I13
sS'M'
p2786
I14
sS'R'
p2787
I8
sS'TB'
p2788
I8
sS'PL'
p2789
I13
sS'TA'
p2790
I8
ssg131
(dp2791
g2776
I15
sg2777
I6
sg2778
I11
sg2779
I13
sg2784
I9
sg2781
I11
sg2782
I8
sg2783
I14
sg2780
I10
sg2785
I13
sg2786
I14
sg2787
I9
sg2788
I8
sg2789
I14
sg2790
I8
ssg133
g48
(g49
g50
Ntp2792
Rp2793
(dp2794
g54
I5
sg55
S'xx'
p2795
sg57
g2760
sbsg137
g6
(g140
S'\x08\x00\x00\x00'
p2796
tp2797
Rp2798
sg146
I0
sg147
I0
sg148
I0
sg149
I0
sg150
F13.451612903225806
sg151
I0
sg152
(S'dummy'
p2799
S'AI'
p2800
S'CE'
p2801
S'AR'
p2802
tp2803
sg158
(dp2804
g2763
I0
sg2764
I0
sg2765
I0
sg2766
I0
ssg160
I0
sg161
I0
sg162
(dp2805
S's13'
p2806
(ijoueur
joueur
p2807
(dp2808
g38
I0
sg40
F14.0
sg146
I0
sg43
I0
sg80
I6
sg45
I0
sg47
g2757
sg61
(dp2809
g617
I0
sg618
I0
sg619
I0
sg620
I0
ssg158
g2804
sg84
I0
sg172
S'TA 9;SN 13'
p2810
sg71
(dp2811
g622
I1
sg623
I1
sg624
g625
ssg77
I0
sg81
I4
sg82
I0
sg83
I0
sg152
g2803
sg85
I00
sg133
g2793
sg86
F2.5
sg108
I00
sg95
(dp2812
g627
I0
sg628
I0
sg629
I0
sg630
I0
ssg97
g2772
sg99
I0
sg100
(lp2813
g632
aI01
aI01
aI01
asg87
(dp2814
g627
I0
sg628
I5
sg629
I0
sg630
I15
ssg104
g2774
sg106
I7
sg107
I0
sg113
I17
sg109
I3519
sg110
g581
sg114
(dp2815
g635
I0
sg636
I0
sg637
I0
sg638
I0
sg639
I0
sg640
I0
sg641
I0
sg642
I0
sg643
I0
sg644
I0
sg645
I0
sg646
I0
sg647
I0
sg648
I0
sg649
I0
ssg162
(dp2816
sg137
I0
sg41
g42
sg147
I0
sg148
F20.0
sg149
I0
sg150
F13.451612903225806
sg151
I0
sg160
I0
sg93
(dp2817
g627
I0
sg628
I0
sg629
I0
sg630
I0
ssg205
I0
sg131
(dp2818
g653
I15
sg654
I6
sg655
I11
sg656
I13
sg657
I10
sg658
I11
sg659
I8
sg660
I14
sg661
I9
sg662
I13
sg663
I14
sg664
I9
sg665
I7
sg666
I14
sg667
I8
ssg222
I0
sg223
I0
sg224
I0
sg225
I0
sg226
I112
sg227
I0
sg161
I0
sg103
I0
sg228
I0
sg229
S'S'
p2819
sbsS's12'
p2820
(ijoueur
joueur
p2821
(dp2822
g37
F13.838709677419354
sg38
I1
sg40
F5.0
sg41
g42
sg43
I0
sg80
I5
sg45
I0
sg47
g48
(g49
g50
Ntp2823
Rp2824
(dp2825
g54
I5
sg55
S'xx'
p2826
sg57
S'seigneur'
p2827
sbsg61
(dp2828
S'SR'
p2829
I0
sS'CT'
p2830
I0
sS'CR'
p2831
I0
sS'ST'
p2832
I0
ssg158
(dp2833
g2829
I0
sg2830
I0
sg2831
I0
sg2832
I0
ssg84
I0
sg70
I0
sg71
(dp2834
g622
I1
sg623
I1
sg624
g625
ssg77
I0
sg81
I1
sg82
I0
sg83
I0
sg152
(S'dummy'
p2835
S'AI'
p2836
S'CE'
p2837
S'AR'
p2838
tp2839
sg85
I01
sg133
g48
(g49
g50
Ntp2840
Rp2841
(dp2842
g54
I5
sg55
S'xx'
p2843
sg57
g2827
sbsg86
F18.0
sg108
I00
sg95
(dp2844
S'SR'
p2845
I0
sS'ST'
p2846
I0
sS'CR'
p2847
I0
sS'CT'
p2848
I0
ssg97
(dp2849
g2829
I0
sg2830
I28
sg2831
I0
sg2832
I14
ssg99
I0
sg100
(lp2850
g632
aI01
aI01
aI01
asg87
(dp2851
g2845
I0
sg2846
I5
sg2847
I0
sg2848
I14
ssg104
S'Drask'
p2852
sg106
I7
sg107
I0
sg113
I17
sg109
I1564
sg110
S'SN'
p2853
sg114
(dp2854
S'A'
p2855
I15
sS'ME'
p2856
I6
sS'RP2'
p2857
I11
sS'E'
p2858
I13
sS'P'
p2859
I9
sS'RP1'
p2860
I11
sS'JP'
p2861
I8
sS'RP_tot'
p2862
I15
sS'TO'
p2863
I10
sS'PA'
p2864
I13
sS'M'
p2865
I14
sS'R'
p2866
I9
sS'TB'
p2867
I8
sS'PL'
p2868
I14
sS'TA'
p2869
I8
ssg162
(dp2870
S's11'
p2871
(ijoueur
joueur
p2872
(dp2873
g38
I0
sg43
I0
sg45
I0
sg47
g48
(g49
g50
Ntp2874
Rp2875
(dp2876
g54
I5
sg55
S'xx'
p2877
sg57
S'seigneur'
p2878
sbsg61
(dp2879
S'SR'
p2880
I0
sS'ST'
p2881
I0
sS'CR'
p2882
I0
sS'CT'
p2883
I0
ssg158
(dp2884
g2880
I0
sg2881
I0
sg2882
I0
sg2883
I0
ssg70
I0
sg77
I0
sg108
I00
sg81
I5
sg82
I0
sg83
I0
sg152
(S'dummy'
p2885
S'AI'
p2886
S'CE'
p2887
S'AR'
p2888
tp2889
sg85
I00
sg133
g48
(g49
g50
Ntp2890
Rp2891
(dp2892
g54
I5
sg55
S'xx'
p2893
sg57
g2878
sbsg87
(dp2894
g2880
I0
sg2881
I8
sg2882
I0
sg2883
I14
ssg93
(dp2895
g2880
I0
sg2881
I0
sg2882
I0
sg2883
I0
ssg95
(dp2896
g2880
I0
sg2881
I0
sg2882
I0
sg2883
I0
ssg97
(dp2897
g2880
I0
sg2881
I8
sg2882
I0
sg2883
I14
ssg99
I0
sg103
I0
sg104
S'Drask'
p2898
sg106
I7
sg107
I0
sg113
I17
sg109
I1564
sg110
S'SN'
p2899
sg114
(dp2900
S'A'
p2901
I16
sS'ME'
p2902
I6
sS'RP2'
p2903
I11
sS'E'
p2904
I13
sS'TO'
p2905
I10
sS'RP1'
p2906
I11
sS'JP'
p2907
I8
sS'RP_tot'
p2908
I15
sS'P'
p2909
I9
sS'PA'
p2910
I13
sS'M'
p2911
I14
sS'R'
p2912
I9
sS'TB'
p2913
I9
sS'PL'
p2914
I14
sS'TA'
p2915
I8
ssg137
I0
sg146
I0
sg147
I0
sg149
I0
sg150
F13.838709677419354
sg151
I0
sg161
I0
sg205
I0
sg325
(dp2916
S'A'
p2917
I16
sS'ME'
p2918
I6
sS'RP2'
p2919
I11
sS'E'
p2920
I13
sS'TO'
p2921
I10
sS'RP1'
p2922
I11
sS'JP'
p2923
I8
sS'RP_tot'
p2924
I15
sS'P'
p2925
I9
sS'PA'
p2926
I13
sS'M'
p2927
I14
sS'R'
p2928
I9
sS'TB'
p2929
I9
sS'PL'
p2930
I14
sS'TA'
p2931
I8
ssg131
g2900
sg222
I0
sg172
S'TA 9'
p2932
sg223
I0
sg224
I0
sg225
I0
sg226
I174
sg227
I20
sg228
I0
sg229
S'S'
p2933
sbssg137
I12
sg146
I0
sg147
I0
sg148
F19.0
sg149
I0
sg150
F13.64516129032258
sg151
I0
sg160
I0
sg93
(dp2934
g2845
I0
sg2846
I0
sg2847
I0
sg2848
I0
ssg205
I0
sg325
(dp2935
S'A'
p2936
I16
sS'ME'
p2937
I6
sS'RP2'
p2938
I11
sS'E'
p2939
I13
sS'TO'
p2940
I10
sS'RP1'
p2941
I11
sS'JP'
p2942
I8
sS'RP_tot'
p2943
I15
sS'P'
p2944
I9
sS'PA'
p2945
I13
sS'M'
p2946
I14
sS'R'
p2947
I9
sS'TB'
p2948
I9
sS'PL'
p2949
I14
sS'TA'
p2950
I8
ssg131
g2854
sg222
I1
sg172
S'TA 9'
p2951
sg223
I0
sg224
I0
sg225
I0
sg226
I174
sg227
I21
sg161
I0
sg103
I0
sg228
I0
sg229
S'S'
p2952
sbsS's11'
p2953
(ijoueur
joueur
p2954
(dp2955
g38
I0
sg40
F6.0
sg43
I0
sg80
I3
sg45
I0
sg47
g48
(g49
g50
Ntp2956
Rp2957
(dp2958
g54
I5
sg55
S'xx'
p2959
sg57
S'seigneur'
p2960
sbsg61
(dp2961
S'SR'
p2962
I0
sS'ST'
p2963
I0
sS'CR'
p2964
I0
sS'CT'
p2965
I0
ssg158
(dp2966
g2962
I0
sg2963
I0
sg2964
I0
sg2965
I0
ssg84
I0
sg70
I0
sg71
(dp2967
g622
I1
sg623
I1
sg624
g625
ssg77
I0
sg81
I5
sg82
I0
sg83
I0
sg152
(S'dummy'
p2968
S'AI'
p2969
S'CE'
p2970
S'AR'
p2971
tp2972
sg85
I00
sg133
g48
(g49
g50
Ntp2973
Rp2974
(dp2975
g54
I5
sg55
S'xx'
p2976
sg57
g2960
sbsg86
F22.0
sg108
I00
sg95
(dp2977
g2962
I0
sg2963
I0
sg2964
I0
sg2965
I0
ssg97
(dp2978
g2962
I0
sg2963
I8
sg2964
I0
sg2965
I14
ssg99
I0
sg100
(lp2979
g632
aI01
aI01
aI01
asg103
I0
sg104
S'Drask'
p2980
sg106
I7
sg107
I0
sg113
I17
sg109
I1564
sg110
S'SN'
p2981
sg87
(dp2982
g2962
I0
sg2963
I8
sg2964
I0
sg2965
I14
ssg114
(dp2983
S'A'
p2984
I16
sS'ME'
p2985
I6
sS'RP2'
p2986
I11
sS'E'
p2987
I13
sS'TO'
p2988
I10
sS'RP1'
p2989
I11
sS'JP'
p2990
I8
sS'RP_tot'
p2991
I15
sS'P'
p2992
I9
sS'PA'
p2993
I13
sS'M'
p2994
I14
sS'R'
p2995
I9
sS'TB'
p2996
I9
sS'PL'
p2997
I14
sS'TA'
p2998
I8
ssg137
I0
sg146
I0
sg147
I0
sg148
F22.0
sg149
I0
sg150
F13.838709677419354
sg151
I0
sg160
I0
sg93
(dp2999
g2962
I0
sg2963
I0
sg2964
I0
sg2965
I0
ssg205
I0
sg325
(dp3000
S'A'
p3001
I16
sS'ME'
p3002
I6
sS'RP2'
p3003
I11
sS'E'
p3004
I13
sS'TO'
p3005
I10
sS'RP1'
p3006
I11
sS'JP'
p3007
I8
sS'RP_tot'
p3008
I15
sS'P'
p3009
I9
sS'PA'
p3010
I13
sS'M'
p3011
I14
sS'R'
p3012
I9
sS'TB'
p3013
I9
sS'PL'
p3014
I14
sS'TA'
p3015
I8
ssg131
g2983
sg222
I0
sg172
S'TA 9'
p3016
sg223
I0
sg224
I0
sg225
I0
sg226
I174
sg227
I20
sg161
I0
sg228
I0
sg229
S'S'
p3017
sbssg205
I3
sg325
(dp3018
S'A'
p3019
I16
sS'ME'
p3020
I6
sS'RP2'
p3021
I11
sS'E'
p3022
I13
sS'TO'
p3023
I10
sS'RP1'
p3024
I11
sS'JP'
p3025
I8
sS'RP_tot'
p3026
I15
sS'P'
p3027
I9
sS'PA'
p3028
I13
sS'M'
p3029
I14
sS'R'
p3030
I9
sS'TB'
p3031
I9
sS'PL'
p3032
I14
sS'TA'
p3033
I8
ssg222
I0
sg440
(dp3034
sg223
I0
sg172
g2810
sg224
I0
sg225
I0
sg226
I112
sg227
I25
sg228
I0
sg229
g2819
sbsS'n16'
p3035
(ijoueur
joueur
p3036
(dp3037
g37
F9.344827586206897
sg38
I0
sg39
F9.448275862068966
sg40
F7.0
sg41
g42
sg43
I0
sg44
F54.77477612623294
sg45
I0
sg46
I0
sg47
g48
(g49
g50
Ntp3038
Rp3039
(dp3040
g54
I1
sg55
S'^'
p3041
sg57
S'base'
p3042
sbsg59
(dp3043
sg61
(dp3044
g63
I0
sg64
I0
sg65
I0
sg66
I0
ssg67
F9.275862068965518
sg68
I0
sg69
I10
sg70
I0
sg71
(dp3045
g73
I3
sg74
I9
sg75
g76
ssg77
I0
sg78
F54.77477612623294
sg79
I01
sg80
I6
sg81
I0
sg82
I0
sg83
I0
sg84
I1
sg85
I00
sg86
F10.0
sg87
(dp3046
g89
I0
sg90
I0
sg91
I1
sg92
I4
ssg93
(dp3047
g89
I0
sg90
I0
sg91
I0
sg92
I0
ssg95
(dp3048
g89
I0
sg90
I0
sg91
I0
sg92
I0
ssg97
(dp3049
g63
I0
sg64
I22
sg65
I27
sg66
I0
ssg99
I0
sg100
(lp3050
g102
aI01
aI00
aI00
asg103
I0
sg104
S'Naitheor'
p3051
sg106
I11
sg107
I0
sg108
I00
sg109
I29
sg110
g111
sg112
I00
sg113
I20
sg114
(dp3052
g116
I11
sg117
I9
sg118
I9
sg119
I9
sg120
I7
sg121
I7
sg122
I3
sg123
I9
sg124
I5
sg125
I8
sg126
I8
sg127
I7
sg128
I3
sg129
I8
sg130
I14
ssg131
(dp3053
g116
I12
sg117
I9
sg118
I9
sg119
I9
sg124
I5
sg121
I7
sg122
I3
sg123
I9
sg120
I7
sg125
I8
sg126
I8
sg127
I8
sg128
I3
sg129
I9
sg130
I14
ssg133
g48
(g49
g50
Ntp3054
Rp3055
(dp3056
g54
I1
sg55
g3041
sg57
g3042
sbsg137
g6
(g140
S'\x08\x00\x00\x00'
p3057
tp3058
Rp3059
sg146
I0
sg147
I0
sg148
I0
sg149
I0
sg150
F9.620689655172415
sg151
I0
sg152
(g153
S'TA'
p3060
g42
g42
tp3061
sg158
(dp3062
g63
I0
sg64
I0
sg65
I0
sg66
I0
ssg160
I4
sg161
I0
sg162
(dp3063
S's13'
p3064
(ijoueur
joueur
p3065
(dp3066
g38
I0
sg40
F8.0
sg146
I0
sg43
I0
sg80
I6
sg45
I0
sg47
g3039
sg61
(dp3067
g168
I0
sg169
I0
sg170
I0
sg171
I0
ssg158
g3062
sg172
g42
sg71
(dp3068
g174
I1
sg175
I1
sg176
g177
ssg77
I0
sg81
I0
sg82
I0
sg83
I0
sg152
g3061
sg85
I00
sg133
g3055
sg86
F1.0
sg108
I00
sg95
(dp3069
g179
I0
sg180
I0
sg181
I0
sg182
I0
ssg97
g3049
sg99
I0
sg100
(lp3070
g184
aI01
aI00
aI00
asg87
(dp3071
g179
I0
sg180
I3
sg181
I14
sg182
I0
ssg110
g111
sg104
S'Naitheor (13)'
p3072
sg106
I11
sg107
I0
sg113
I20
sg109
I29
sg84
I0
sg114
(dp3073
g188
I0
sg189
I0
sg190
I0
sg191
I0
sg192
I0
sg193
I0
sg194
I0
sg195
I0
sg196
I0
sg197
I0
sg198
I0
sg199
I0
sg200
I0
sg201
I0
sg202
I0
ssg162
(dp3074
sg137
I0
sg41
g42
sg147
I0
sg148
F10.0
sg149
I0
sg150
F9.275862068965518
sg151
I0
sg160
I0
sg93
(dp3075
g179
I0
sg180
I0
sg181
I0
sg182
I0
ssg205
I0
sg131
(dp3076
g207
I11
sg208
I8
sg209
I9
sg210
I9
sg211
I5
sg212
I7
sg213
I3
sg214
I9
sg215
I7
sg216
I8
sg217
I7
sg218
I8
sg219
I3
sg220
I9
sg221
I13
ssg222
I0
sg223
I0
sg224
I0
sg225
I0
sg226
I3
sg227
I0
sg161
I0
sg103
I0
sg228
I0
sg229
S'CHS'
p3077
sbsg231
(ijoueur
joueur
p3078
(dp3079
g37
F9.344827586206897
sg38
I0
sg40
F5.0
sg41
g42
sg43
I0
sg80
I5
sg45
I0
sg47
g48
(g49
g50
Ntp3080
Rp3081
(dp3082
g54
I1
sg55
S'^'
p3083
sg57
S'base'
p3084
sbsg61
(dp3085
g240
I0
sg241
I0
sg242
I0
sg243
I0
ssg158
(dp3086
g240
I0
sg241
I0
sg242
I0
sg243
I0
ssg70
I0
sg71
(dp3087
g174
I1
sg175
I1
sg176
g177
ssg77
I0
sg81
I0
sg82
I0
sg83
I0
sg152
(g246
S'TA'
p3088
g42
g42
tp3089
sg85
I00
sg133
g48
(g49
g50
Ntp3090
Rp3091
(dp3092
g54
I1
sg55
g3083
sg57
g3084
sbsg86
F2.0
sg108
I01
sg95
(dp3093
g255
I0
sg256
I0
sg257
I0
sg258
I0
ssg97
(dp3094
g240
I0
sg241
I15
sg242
I12
sg243
I0
ssg99
I0
sg100
(lp3095
g184
aI01
aI00
aI00
asg87
(dp3096
g255
I0
sg256
I0
sg257
I2
sg258
I12
ssg110
g262
sg104
S'Naitheor (12)'
p3097
sg106
I11
sg107
I0
sg113
I20
sg109
I29
sg84
I0
sg114
(dp3098
g265
I11
sg266
I8
sg267
I9
sg268
I9
sg269
I5
sg270
I8
sg271
I3
sg272
I10
sg273
I7
sg274
I8
sg275
I8
sg276
I8
sg277
I3
sg278
I9
sg279
I13
ssg162
(dp3099
g281
(ijoueur
joueur
p3100
(dp3101
g38
I0
sg43
I0
sg45
I0
sg47
g48
(g49
g50
Ntp3102
Rp3103
(dp3104
g54
I1
sg55
S'^'
p3105
sg57
S'base'
p3106
sbsg61
(dp3107
S'SR'
p3108
I0
sS'CT'
p3109
I0
sS'CR'
p3110
I0
sS'ST'
p3111
I0
ssg158
(dp3112
g3108
I0
sg3109
I0
sg3110
I0
sg3111
I0
ssg70
I0
sg77
I0
sg108
I01
sg81
I0
sg82
I0
sg83
I0
sg152
(S'dummy'
p3113
S'TA'
p3114
g42
g42
tp3115
sg85
I00
sg133
g48
(g49
g50
Ntp3116
Rp3117
(dp3118
g54
I1
sg55
g3105
sg57
g3106
sbsg87
(dp3119
g3108
I0
sg3109
I3
sg3110
I10
sg3111
I0
ssg93
(dp3120
g3108
I0
sg3109
I0
sg3110
I0
sg3111
I0
ssg95
(dp3121
g3108
I0
sg3109
I0
sg3110
I0
sg3111
I0
ssg97
(dp3122
g3108
I0
sg3109
I3
sg3110
I10
sg3111
I0
ssg99
I0
sg103
I0
sg104
S'Naitheor'
p3123
sg106
I11
sg107
I0
sg113
I20
sg109
I29
sg110
S'KHR'
p3124
sg114
(dp3125
S'A'
p3126
I11
sS'ME'
p3127
I8
sS'RP2'
p3128
I8
sS'E'
p3129
I9
sS'P'
p3130
I5
sS'RP1'
p3131
I8
sS'JP'
p3132
I3
sS'RP_tot'
p3133
I9
sS'TO'
p3134
I7
sS'PA'
p3135
I8
sS'M'
p3136
I7
sS'R'
p3137
I9
sS'TB'
p3138
I3
sS'PL'
p3139
I9
sS'TA'
p3140
I12
ssg137
I0
sg146
I0
sg147
I0
sg149
I0
sg150
F9.344827586206897
sg151
I0
sg161
I0
sg205
I0
sg325
(dp3141
S'A'
p3142
I11
sS'ME'
p3143
I8
sS'RP2'
p3144
I8
sS'E'
p3145
I9
sS'P'
p3146
I5
sS'RP1'
p3147
I8
sS'JP'
p3148
I3
sS'RP_tot'
p3149
I9
sS'TO'
p3150
I7
sS'PA'
p3151
I8
sS'M'
p3152
I7
sS'R'
p3153
I9
sS'TB'
p3154
I3
sS'PL'
p3155
I9
sS'TA'
p3156
I12
ssg131
g3125
sg222
I0
sg172
g42
sg223
I0
sg224
I0
sg225
I0
sg226
I3
sg227
I0
sg228
I0
sg229
S'CHS'
p3157
sbssg137
I0
sg146
I0
sg147
I0
sg148
F13.0
sg149
I0
sg150
F9.448275862068966
sg151
I0
sg160
I0
sg93
(dp3158
g255
I0
sg256
I0
sg257
I0
sg258
I0
ssg205
I0
sg325
(dp3159
g345
I11
sg346
I8
sg347
I8
sg348
I9
sg349
I7
sg350
I8
sg351
I3
sg352
I9
sg353
I5
sg354
I8
sg355
I7
sg356
I9
sg357
I3
sg358
I9
sg359
I12
ssg131
g3098
sg222
I0
sg172
g42
sg223
I0
sg224
I0
sg225
I0
sg226
I3
sg227
I0
sg161
I0
sg103
I0
sg228
I0
sg229
S'CHS'
p3160
sbsg361
(ijoueur
joueur
p3161
(dp3162
g38
I0
sg40
F4.0
sg43
I0
sg80
I3
sg45
I0
sg47
g48
(g49
g50
Ntp3163
Rp3164
(dp3165
g54
I1
sg55
S'^'
p3166
sg57
S'base'
p3167
sbsg61
(dp3168
S'SR'
p3169
I0
sS'CT'
p3170
I0
sS'CR'
p3171
I0
sS'ST'
p3172
I0
ssg158
(dp3173
g3169
I0
sg3170
I0
sg3171
I0
sg3172
I0
ssg70
I0
sg71
(dp3174
g174
I1
sg175
I1
sg176
g177
ssg77
I0
sg81
I0
sg82
I0
sg83
I0
sg152
(S'dummy'
p3175
S'TA'
p3176
g42
g42
tp3177
sg85
I00
sg133
g48
(g49
g50
Ntp3178
Rp3179
(dp3180
g54
I1
sg55
g3166
sg57
g3167
sbsg86
F8.0
sg108
I01
sg95
(dp3181
g3169
I0
sg3170
I0
sg3171
I0
sg3172
I0
ssg97
(dp3182
g3169
I0
sg3170
I3
sg3171
I10
sg3172
I0
ssg99
I0
sg100
(lp3183
g184
aI01
aI00
aI00
asg103
I0
sg110
S'KHR'
p3184
sg104
S'Naitheor (11)'
p3185
sg106
I11
sg107
I0
sg113
I20
sg109
I29
sg84
I0
sg87
(dp3186
g3169
I0
sg3170
I3
sg3171
I10
sg3172
I0
ssg114
(dp3187
S'A'
p3188
I11
sS'ME'
p3189
I8
sS'RP2'
p3190
I8
sS'E'
p3191
I9
sS'P'
p3192
I5
sS'RP1'
p3193
I8
sS'JP'
p3194
I3
sS'RP_tot'
p3195
I9
sS'TO'
p3196
I7
sS'PA'
p3197
I8
sS'M'
p3198
I7
sS'R'
p3199
I9
sS'TB'
p3200
I3
sS'PL'
p3201
I9
sS'TA'
p3202
I12
ssg137
I0
sg146
I0
sg147
I0
sg148
F8.0
sg149
I0
sg150
F9.344827586206897
sg151
I0
sg160
I0
sg93
(dp3203
g3169
I0
sg3170
I0
sg3171
I0
sg3172
I0
ssg205
I0
sg325
(dp3204
S'A'
p3205
I11
sS'ME'
p3206
I8
sS'RP2'
p3207
I8
sS'E'
p3208
I9
sS'P'
p3209
I5
sS'RP1'
p3210
I8
sS'JP'
p3211
I3
sS'RP_tot'
p3212
I9
sS'TO'
p3213
I7
sS'PA'
p3214
I8
sS'M'
p3215
I7
sS'R'
p3216
I9
sS'TB'
p3217
I3
sS'PL'
p3218
I9
sS'TA'
p3219
I12
ssg131
g3187
sg222
I0
sg172
g42
sg223
I0
sg224
I0
sg225
I0
sg226
I3
sg227
I0
sg161
I0
sg228
I0
sg229
S'CHS'
p3220
sbssg205
I0
sg325
(dp3221
g425
I11
sg426
I8
sg427
I8
sg428
I9
sg429
I7
sg430
I8
sg431
I3
sg432
I9
sg433
I5
sg434
I8
sg435
I7
sg436
I9
sg437
I3
sg438
I9
sg439
I12
ssg222
I0
sg440
(dp3222
sg223
I0
sg172
g42
sg224
I0
sg225
I0
sg226
I3
sg227
I0
sg228
I0
sg229
g3077
sbsS'n17'
p3223
(ijoueur
joueur
p3224
(dp3225
g38
I0
sg39
F8.382352941176471
sg40
F0.0
sg41
g42
sg43
I0
sg44
F10.428025797283693
sg445
g42
sg45
I0
sg446
g42
sg46
I0
sg47
g48
(g49
g50
Ntp3226
Rp3227
(dp3228
g54
I1
sg55
S'>'
p3229
sg57
S'base'
p3230
sbsg59
(dp3231
sg61
(dp3232
g454
I0
sg455
I0
sg456
I0
sg457
I0
ssg67
F8.205882352941176
sg68
I0
sg69
I10
sg172
g42
sg71
(dp3233
g73
I3
sg74
I8
sg75
g76
ssg77
I0
sg78
F10.428025797283693
sg79
I01
sg80
I4
sg81
I0
sg82
I0
sg83
I0
sg84
I2
sg85
I00
sg86
F10.0
sg87
(dp3234
g89
I0
sg90
I0
sg91
I1
sg92
I0
ssg93
(dp3235
g89
I0
sg90
I0
sg91
I0
sg92
I0
ssg95
(dp3236
g89
I0
sg90
I0
sg91
I0
sg92
I0
ssg97
(dp3237
g454
I0
sg455
I0
sg456
I15
sg457
I5
ssg99
I0
sg100
(lp3238
g102
aI01
aI01
aI00
asg103
I0
sg104
S'Jenhedyl'
p3239
sg106
I12
sg107
I0
sg108
I00
sg109
I15
sg110
g111
sg112
I00
sg465
g42
sg113
I20
sg114
(dp3240
g467
I8
sg468
I10
sg469
I6
sg470
I9
sg471
I4
sg472
I3
sg473
I8
sg474
I8
sg475
I9
sg476
I7
sg477
I7
sg478
I8
sg479
I5
sg480
I10
sg481
I6
ssg133
g3227
sg137
I0
sg146
I0
sg147
I0
sg148
I0
sg149
I0
sg150
F8.764705882352942
sg151
I0
sg152
(g482
S'PI'
p3241
S'DL'
p3242
g42
tp3243
sg158
(dp3244
g454
I0
sg455
I0
sg456
I0
sg457
I0
ssg160
I4
sg161
I0
sg162
(dp3245
S's13'
p3246
(ijoueur
joueur
p3247
(dp3248
g38
I0
sg40
F2.0
sg146
I0
sg43
I0
sg80
I4
sg45
I0
sg47
g3227
sg61
(dp3249
g168
I0
sg169
I0
sg170
I0
sg171
I0
ssg158
g3244
sg172
g42
sg71
(dp3250
g174
I1
sg175
I1
sg176
g177
ssg77
I0
sg81
I1
sg82
I0
sg83
I0
sg152
g3243
sg85
I00
sg133
g3227
sg86
F1.0
sg108
I00
sg95
(dp3251
g179
I0
sg180
I0
sg181
I0
sg182
I0
ssg97
g3237
sg99
I0
sg100
(lp3252
g184
aI01
aI01
aI00
asg87
(dp3253
g179
I0
sg180
I4
sg181
I12
sg182
I0
ssg110
g111
sg104
S'Jenhedyl (13)'
p3254
sg106
I12
sg107
I0
sg113
I20
sg109
I15
sg84
I0
sg114
(dp3255
g188
I0
sg189
I0
sg190
I0
sg191
I0
sg192
I0
sg193
I0
sg194
I0
sg195
I0
sg196
I0
sg197
I0
sg198
I0
sg199
I0
sg200
I0
sg201
I0
sg202
I0
ssg162
(dp3256
sg137
I0
sg41
g42
sg147
I0
sg148
F10.0
sg149
I0
sg150
F8.205882352941176
sg151
I0
sg160
I0
sg93
(dp3257
g179
I0
sg180
I0
sg181
I0
sg182
I0
ssg205
I0
sg131
(dp3258
g207
I7
sg208
I9
sg209
I6
sg210
I9
sg211
I4
sg212
I8
sg213
I3
sg214
I8
sg215
I9
sg216
I7
sg217
I8
sg218
I7
sg219
I5
sg220
I8
sg221
I6
ssg222
I0
sg223
I0
sg224
I0
sg225
I0
sg226
I1
sg227
I0
sg161
I0
sg103
I0
sg228
I0
sg229
g501
sbsg231
(ijoueur
joueur
p3259
(dp3260
g38
I0
sg40
F1.0
sg41
g42
sg43
I0
sg80
I2
sg445
g42
sg45
I0
sg446
g42
sg47
g48
(g49
g50
Ntp3261
Rp3262
(dp3263
g54
I1
sg55
S'>'
p3264
sg57
g541
sbsg61
(dp3265
g510
I0
sg511
I0
sg512
I0
sg513
I0
ssg158
(dp3266
g510
I0
sg511
I0
sg512
I0
sg513
I0
ssg172
g42
sg71
(dp3267
g174
I1
sg175
I1
sg176
g177
ssg77
I0
sg81
I0
sg82
I0
sg83
I0
sg110
g262
sg85
I00
sg86
F2.0
sg87
(dp3268
g510
I0
sg511
I0
sg512
I2
sg513
I1
ssg108
I01
sg95
(dp3269
g510
I0
sg511
I0
sg512
I0
sg513
I0
ssg97
(dp3270
g510
I0
sg511
I0
sg512
I2
sg513
I1
ssg99
I0
sg100
(lp3271
g184
aI01
aI01
aI00
asg103
I0
sg104
S'Jenhedyl (12)'
p3272
sg106
I12
sg107
I0
sg113
I20
sg109
I15
sg84
I0
sg465
g42
sg114
(dp3273
g522
I8
sg523
I9
sg524
I6
sg525
I9
sg526
I9
sg527
I8
sg528
I3
sg529
I8
sg530
I4
sg531
I7
sg532
I7
sg533
I8
sg534
I5
sg535
I8
sg536
I6
ssg133
g3262
sg137
I0
sg146
I0
sg147
I0
sg148
F2.0
sg149
I0
sg150
F8.382352941176471
sg151
I0
sg152
(g542
S'PI'
p3274
S'DL'
p3275
g42
tp3276
sg160
I0
sg93
(dp3277
g510
I0
sg511
I0
sg512
I0
sg513
I0
ssg162
(dp3278
sg205
I0
sg131
g3273
sg222
I0
sg223
I0
sg224
I0
sg225
I0
sg226
I1
sg227
I0
sg161
I0
sg228
I0
sg229
g548
sbssg205
I0
sg131
(dp3279
g467
I8
sg468
I10
sg469
I6
sg470
I9
sg475
I9
sg473
I8
sg472
I3
sg474
I8
sg471
I4
sg476
I7
sg477
I7
sg478
I8
sg479
I5
sg480
I10
sg481
I6
ssg222
I0
sg440
(dp3280
sg223
I0
sg224
I0
sg225
I0
sg226
I1
sg227
I1
sg228
I0
sg229
g501
sbsS'n14'
p3281
(ijoueur
joueur
p3282
(dp3283
g38
I0
sg40
F0.5
sg146
I0
sg43
I0
sg44
F10.428025797283693
sg445
g42
sg45
I0
sg446
g42
sg46
I0
sg47
g48
(g49
g50
Ntp3284
Rp3285
(dp3286
g54
I4
sg55
S'x'
p3287
sg57
S'heros'
p3288
sbsg59
(dp3289
sg61
(dp3290
S'SR'
p3291
I0
sS'CT'
p3292
I0
sS'CR'
p3293
I0
sS'ST'
p3294
I0
ssg67
F8.548387096774194
sg68
I0
sg69
I10
sg172
g42
sg71
(dp3295
g73
I3
sg74
I6
sg75
g76
ssg77
I0
sg78
F10.428025797283693
sg79
I01
sg80
I1
sg81
I0
sg82
I0
sg83
I0
sg84
I1
sg85
I00
sg86
F1.5
sg87
(dp3296
g89
I0
sg90
I0
sg91
I1
sg92
I0
ssg108
I00
sg95
(dp3297
g89
I0
sg90
I0
sg91
I0
sg92
I0
ssg97
(dp3298
g3291
I0
sg3292
I1
sg3293
I2
sg3294
I0
ssg99
I0
sg100
(lp3299
g102
aI01
aI00
aI00
asg103
I0
sg104
S'Wardymr'
p3300
sg106
I13
sg107
I0
sg93
(dp3301
g89
I0
sg90
I0
sg91
I0
sg92
I0
ssg109
I26
sg110
g111
sg112
I00
sg465
g42
sg113
I24
sg114
(dp3302
S'RP1'
p3303
I8
sS'ME'
p3304
I5
sS'RP2'
p3305
I9
sS'E'
p3306
I12
sS'TO'
p3307
I5
sS'M'
p3308
I7
sS'JP'
p3309
I6
sS'RP_tot'
p3310
I10
sS'P'
p3311
I7
sS'PA'
p3312
I9
sS'A'
p3313
I12
sS'R'
p3314
I8
sS'TB'
p3315
I6
sS'PL'
p3316
I11
sS'TA'
p3317
I5
ssg133
g48
(g49
g50
Ntp3318
Rp3319
(dp3320
g54
I2
sg55
S'<<'
p3321
sg57
S'special'
p3322
sbsg137
I0
sg41
g42
sg147
I0
sg148
I0
sg149
I0
sg150
F9.903225806451612
sg151
I0
sg152
(S'dummy'
p3323
S'AI'
p3324
g42
g42
tp3325
sg158
(dp3326
g3291
I0
sg3292
I0
sg3293
I0
sg3294
I0
ssg160
I3
sg161
I0
sg162
(dp3327
S's13'
p3328
(ijoueur
joueur
p3329
(dp3330
g38
I0
sg40
F0.5
sg146
I0
sg43
I0
sg80
I2
sg45
I0
sg47
g3285
sg61
(dp3331
g168
I0
sg169
I0
sg170
I0
sg171
I0
ssg158
g3326
sg172
g42
sg71
(dp3332
g174
I1
sg175
I1
sg176
g177
ssg77
I0
sg81
I0
sg82
I0
sg83
I0
sg152
g3325
sg85
I00
sg133
g48
(g49
g50
Ntp3333
Rp3334
(dp3335
g54
I1
sg55
S'<'
p3336
sg57
S'base'
p3337
sbsg86
F1.5
sg108
I00
sg95
(dp3338
g3291
I0
sg3292
I0
sg3293
I0
sg3294
I0
ssg97
g3298
sg99
I0
sg100
(lp3339
g184
aI01
aI00
aI00
asg87
(dp3340
g3291
I0
sg3292
I1
sg3293
I1
sg3294
I0
ssg110
g111
sg104
S'Wardymr (13)'
p3341
sg106
I13
sg107
I0
sg113
I24
sg109
I8
sg84
I0
sg114
(dp3342
g188
I0
sg189
I0
sg190
I0
sg191
I0
sg192
I0
sg193
I0
sg194
I0
sg195
I0
sg196
I0
sg197
I0
sg198
I0
sg199
I0
sg200
I0
sg201
I0
sg202
I0
ssg162
(dp3343
sg137
I0
sg41
g42
sg147
I0
sg148
F1.5
sg149
I0
sg150
F8.548387096774194
sg151
I0
sg160
I0
sg93
(dp3344
g3291
I0
sg3292
I0
sg3293
I0
sg3294
I0
ssg205
I0
sg131
(dp3345
g207
I10
sg208
I4
sg209
I9
sg210
I10
sg211
I7
sg212
I7
sg213
I6
sg214
I9
sg215
I4
sg216
I8
sg217
I7
sg218
I7
sg219
I6
sg220
I8
sg221
I4
ssg222
I0
sg223
I0
sg224
I0
sg225
I0
sg226
I0
sg227
I0
sg161
I0
sg103
I0
sg228
I0
sg229
S'CHS'
p3346
sbssg205
I0
sg131
(dp3347
g3303
I8
sg3304
I5
sg3305
I9
sg3306
I12
sg3311
I7
sg3309
I6
sg3308
I7
sg3310
I10
sg3307
I5
sg3312
I9
sg3313
I12
sg3314
I8
sg3315
I6
sg3316
I11
sg3317
I5
ssg222
I0
sg223
I0
sg224
I0
sg225
I0
sg226
I1
sg227
I0
sg228
I0
sg229
g3346
sbsS'n15'
p3348
g1366
sS'n18'
p3349
g2193
sS'n19'
p3350
g1991
sS'n22'
p3351
(ijoueur
joueur
p3352
(dp3353
g38
I0
sg39
F9.03225806451613
sg40
F2.5
sg41
g42
sg43
I0
sg44
F54.77477612623294
sg445
g42
sg45
I0
sg446
g42
sg46
I0
sg47
g48
(g49
g50
Ntp3354
Rp3355
(dp3356
g54
I2
sg55
S'<<'
p3357
sg57
g451
sbsg59
(dp3358
sg61
(dp3359
g454
I0
sg455
I0
sg456
I0
sg457
I0
ssg67
F9.67741935483871
sg68
I0
sg69
I10
sg172
g42
sg71
(dp3360
g73
I3
sg74
I3
sg75
g76
ssg77
I0
sg78
F54.77477612623294
sg79
I01
sg80
I3
sg81
I0
sg82
I0
sg83
I0
sg84
I2
sg85
I00
sg86
F10.0
sg87
(dp3361
g89
I0
sg90
I0
sg91
I4
sg92
I1
ssg93
(dp3362
g89
I0
sg90
I0
sg91
I0
sg92
I0
ssg95
(dp3363
g89
I0
sg90
I0
sg91
I0
sg92
I0
ssg97
(dp3364
g454
I0
sg455
I0
sg456
I17
sg457
I5
ssg99
I0
sg100
(lp3365
g102
aI01
aI00
aI00
asg103
I0
sg104
S'Eskeow'
p3366
sg106
I12
sg107
I0
sg108
I00
sg109
I27
sg110
g111
sg112
I00
sg465
g42
sg113
I20
sg114
(dp3367
g467
I10
sg468
I5
sg469
I7
sg470
I9
sg471
I9
sg472
I5
sg473
I10
sg474
I10
sg475
I5
sg476
I8
sg477
I13
sg478
I10
sg479
I8
sg480
I10
sg481
I4
ssg133
g3355
sg137
I3
sg146
I0
sg147
I0
sg148
I0
sg149
I0
sg150
F10.064516129032258
sg151
I0
sg152
(g482
S'AI'
p3368
g42
g42
tp3369
sg158
(dp3370
g454
I0
sg455
I0
sg456
I0
sg457
I0
ssg160
I3
sg161
I0
sg162
(dp3371
S's13'
p3372
(ijoueur
joueur
p3373
(dp3374
g38
I0
sg40
F4.5
sg146
I0
sg43
I0
sg80
I3
sg45
I0
sg47
g3355
sg61
(dp3375
g168
I0
sg169
I0
sg170
I0
sg171
I0
ssg158
g3370
sg172
g42
sg71
(dp3376
g174
I1
sg175
I1
sg176
g177
ssg77
I0
sg81
I1
sg82
I0
sg83
I0
sg152
g3369
sg85
I00
sg133
g3355
sg86
F2.5
sg108
I00
sg95
(dp3377
g179
I0
sg180
I0
sg181
I0
sg182
I0
ssg97
g3364
sg99
I0
sg100
(lp3378
g184
aI01
aI00
aI00
asg87
(dp3379
g179
I0
sg180
I4
sg181
I12
sg182
I0
ssg110
g111
sg104
S'Eskeow (13)'
p3380
sg106
I12
sg107
I0
sg113
I20
sg109
I27
sg84
I0
sg114
(dp3381
g188
I0
sg189
I0
sg190
I0
sg191
I0
sg192
I0
sg193
I0
sg194
I0
sg195
I0
sg196
I0
sg197
I0
sg198
I0
sg199
I0
sg200
I0
sg201
I0
sg202
I0
ssg162
(dp3382
sg137
I0
sg41
g42
sg147
I0
sg148
F10.0
sg149
I0
sg150
F9.67741935483871
sg151
I0
sg160
I0
sg93
(dp3383
g179
I0
sg180
I0
sg181
I0
sg182
I0
ssg205
I0
sg131
(dp3384
g207
I12
sg208
I5
sg209
I7
sg210
I9
sg211
I9
sg212
I10
sg213
I5
sg214
I10
sg215
I5
sg216
I8
sg217
I9
sg218
I9
sg219
I7
sg220
I10
sg221
I4
ssg222
I0
sg223
I0
sg224
I0
sg225
I0
sg226
I1
sg227
I0
sg161
I0
sg103
I0
sg228
I0
sg229
g501
sbsg231
(ijoueur
joueur
p3385
(dp3386
g38
I0
sg40
F0.5
sg41
g42
sg43
I0
sg80
I1
sg445
g42
sg45
I0
sg446
g42
sg47
g48
(g49
g50
Ntp3387
Rp3388
(dp3389
g54
I2
sg55
S'<<'
p3390
sg57
g508
sbsg61
(dp3391
g510
I0
sg511
I0
sg512
I0
sg513
I0
ssg158
(dp3392
g510
I0
sg511
I0
sg512
I0
sg513
I0
ssg172
g42
sg71
(dp3393
g174
I1
sg175
I1
sg176
g177
ssg77
I0
sg81
I0
sg82
I0
sg83
I0
sg110
g262
sg85
I00
sg86
F0.5
sg87
(dp3394
g510
I0
sg511
I0
sg512
I1
sg513
I0
ssg108
I01
sg95
(dp3395
g510
I0
sg511
I0
sg512
I0
sg513
I0
ssg97
(dp3396
g510
I0
sg511
I0
sg512
I1
sg513
I0
ssg99
I0
sg100
(lp3397
g184
aI01
aI00
aI00
asg103
I0
sg104
S'Eskeow (12)'
p3398
sg106
I12
sg107
I0
sg113
I20
sg109
I18
sg84
I0
sg465
g42
sg114
(dp3399
g522
I8
sg523
I5
sg524
I7
sg525
I9
sg526
I5
sg527
I9
sg528
I5
sg529
I8
sg530
I9
sg531
I8
sg532
I12
sg533
I9
sg534
I8
sg535
I8
sg536
I4
ssg133
g48
(g49
g50
Ntp3400
Rp3401
(dp3402
g54
I1
sg55
g540
sg57
g541
sbsg137
I0
sg146
I0
sg147
I0
sg148
F0.5
sg149
I0
sg150
F9.03225806451613
sg151
I0
sg152
(g542
S'AI'
p3403
g42
g42
tp3404
sg160
I0
sg93
(dp3405
g510
I0
sg511
I0
sg512
I0
sg513
I0
ssg162
(dp3406
sg205
I0
sg131
g3399
sg222
I0
sg223
I0
sg224
I0
sg225
I0
sg226
I1
sg227
I0
sg161
I0
sg228
I0
sg229
g548
sbssg205
I0
sg131
(dp3407
g467
I10
sg468
I5
sg469
I7
sg470
I9
sg475
I5
sg473
I10
sg472
I5
sg474
I10
sg471
I9
sg476
I8
sg477
I13
sg478
I10
sg479
I8
sg480
I10
sg481
I4
ssg222
I0
sg440
(dp3408
sg223
I0
sg224
I0
sg225
I0
sg226
I1
sg227
I1
sg228
I0
sg229
g501
sbsS'n21'
p3409
(ijoueur
joueur
p3410
(dp3411
g37
F10.393939393939394
sg38
I0
sg39
F10.0
sg40
F13.0
sg41
g42
sg43
I0
sg44
F54.77477612623294
sg45
I0
sg46
I0
sg47
g48
(g49
g50
Ntp3412
Rp3413
(dp3414
g54
I3
sg55
S'^^^'
p3415
sg57
S'rare'
p3416
sbsg59
(dp3417
sg61
(dp3418
g63
I0
sg64
I13
sg65
I0
sg66
I0
ssg67
F10.151515151515152
sg68
I0
sg69
I10
sg70
I0
sg71
(dp3419
g73
Nsg74
I14
sg75
g76
ssg77
I0
sg78
F54.77477612623294
sg79
I00
sg80
I4
sg81
I1
sg82
I0
sg83
I0
sg84
I4
sg85
I00
sg86
F22.0
sg87
(dp3420
g89
I0
sg90
I0
sg91
I0
sg92
I0
ssg93
(dp3421
g89
I0
sg90
I0
sg91
I0
sg92
I0
ssg95
(dp3422
g89
I0
sg90
I0
sg91
I0
sg92
I5
ssg97
(dp3423
g63
I0
sg64
I0
sg65
I0
sg66
I0
ssg99
I0
sg100
(lp3424
g102
aI01
aI01
aI01
asg103
I0
sg104
S'De Portel'
p3425
sg106
I2
sg107
I0
sg108
I00
sg109
I100
sg110
g111
sg112
I00
sg113
I15
sg114
(dp3426
g116
I10
sg117
I5
sg118
I12
sg119
I10
sg120
I3
sg121
I9
sg122
I8
sg123
I13
sg124
I11
sg125
I12
sg126
I11
sg127
I9
sg128
I6
sg129
I9
sg130
I4
ssg131
(dp3427
g116
I11
sg117
I5
sg118
I12
sg119
I10
sg124
I11
sg121
I9
sg122
I8
sg123
I13
sg120
I3
sg125
I12
sg126
I11
sg127
I10
sg128
I6
sg129
I10
sg130
I4
ssg133
g48
(g49
g50
Ntp3428
Rp3429
(dp3430
g54
I3
sg55
S'^^^'
p3431
sg57
g3416
sbsg137
g6
(g140
S'\n\x00\x00\x00'
p3432
tp3433
Rp3434
sg146
I0
sg147
I0
sg148
I0
sg149
I0
sg150
F10.878787878787879
sg151
I0
sg152
(g153
S'AR'
p3435
S'AI'
p3436
S'CE'
p3437
tp3438
sg158
(dp3439
g63
I0
sg64
I33
sg65
I0
sg66
I19
ssg160
I9
sg161
I0
sg162
(dp3440
S's13'
p3441
(ijoueur
joueur
p3442
(dp3443
g38
I0
sg40
F13.0
sg146
I0
sg43
I0
sg80
I4
sg45
I0
sg47
g3413
sg61
(dp3444
g168
I0
sg169
I0
sg170
I0
sg171
I0
ssg158
g3439
sg172
S'MSL 11'
p3445
sg71
(dp3446
g174
I1
sg175
I1
sg176
g177
ssg77
I0
sg81
I1
sg82
I0
sg83
I0
sg152
g3438
sg85
I00
sg133
g3429
sg86
F2.5
sg108
I00
sg95
(dp3447
g179
I0
sg180
I15
sg181
I0
sg182
I7
ssg97
g3423
sg99
I0
sg100
(lp3448
g184
aI01
aI01
aI01
asg87
(dp3449
g179
I0
sg180
I0
sg181
I0
sg182
I0
ssg110
g111
sg104
S'De Portel (13)'
p3450
sg106
I2
sg107
I0
sg113
I15
sg109
I100
sg84
I0
sg114
(dp3451
g188
I0
sg189
I0
sg190
I0
sg191
I0
sg192
I0
sg193
I0
sg194
I0
sg195
I0
sg196
I0
sg197
I0
sg198
I0
sg199
I0
sg200
I0
sg201
I0
sg202
I0
ssg162
(dp3452
sg137
I0
sg41
g42
sg147
I0
sg148
F22.0
sg149
I0
sg150
F10.151515151515152
sg151
I0
sg160
I0
sg93
(dp3453
g179
I0
sg180
I0
sg181
I0
sg182
I0
ssg205
I0
sg131
(dp3454
g207
I11
sg208
I5
sg209
I11
sg210
I10
sg211
I10
sg212
I8
sg213
I7
sg214
I12
sg215
I3
sg216
I11
sg217
I10
sg218
I8
sg219
I6
sg220
I9
sg221
I4
ssg222
I0
sg223
I0
sg224
I0
sg225
I0
sg226
I10
sg227
I0
sg161
I0
sg103
I0
sg228
I0
sg229
S'B'
p3455
sbsg231
(ijoueur
joueur
p3456
(dp3457
g37
F10.393939393939394
sg38
I0
sg40
F5.0
sg41
g42
sg43
I0
sg80
I3
sg45
I0
sg47
g48
(g49
g50
Ntp3458
Rp3459
(dp3460
g54
I3
sg55
S'^^^'
p3461
sg57
S'rare'
p3462
sbsg61
(dp3463
g240
I0
sg241
I13
sg242
I0
sg243
I0
ssg158
(dp3464
g240
I0
sg241
I13
sg242
I0
sg243
I12
ssg70
I0
sg71
(dp3465
g174
I1
sg175
I1
sg176
g177
ssg77
I0
sg81
I5
sg82
I0
sg83
I0
sg152
(g246
S'AR'
p3466
S'AI'
p3467
S'CE'
p3468
tp3469
sg85
I00
sg133
g48
(g49
g50
Ntp3470
Rp3471
(dp3472
g54
I3
sg55
S'^^^'
p3473
sg57
g3462
sbsg86
F0.5
sg108
I00
sg95
(dp3474
g255
I0
sg256
I7
sg257
I0
sg258
I0
ssg97
(dp3475
g240
I0
sg241
I0
sg242
I0
sg243
I0
ssg99
I0
sg100
(lp3476
g184
aI01
aI01
aI01
asg87
(dp3477
g255
I0
sg256
I0
sg257
I0
sg258
I0
ssg110
g262
sg104
S'De Portel (12)'
p3478
sg106
I2
sg107
I0
sg113
I15
sg109
I100
sg84
I0
sg114
(dp3479
g265
I11
sg266
I5
sg267
I10
sg268
I10
sg269
I10
sg270
I8
sg271
I7
sg272
I11
sg273
I3
sg274
I11
sg275
I10
sg276
I8
sg277
I6
sg278
I9
sg279
I4
ssg162
(dp3480
g281
(ijoueur
joueur
p3481
(dp3482
g38
I0
sg43
I0
sg45
I0
sg47
g48
(g49
g50
Ntp3483
Rp3484
(dp3485
g54
I3
sg55
S'^^^'
p3486
sg57
S'rare'
p3487
sbsg61
(dp3488
S'SR'
p3489
I0
sS'CT'
p3490
I0
sS'CR'
p3491
I0
sS'ST'
p3492
I0
ssg158
(dp3493
g3489
I0
sg3490
I13
sg3491
I0
sg3492
I5
ssg70
I0
sg77
I0
sg108
I00
sg81
I4
sg82
I0
sg83
I0
sg152
(S'dummy'
p3494
S'AR'
p3495
S'AI'
p3496
S'CE'
p3497
tp3498
sg85
I00
sg133
g48
(g49
g50
Ntp3499
Rp3500
(dp3501
g54
I3
sg55
S'^^^'
p3502
sg57
g3487
sbsg87
(dp3503
g3489
I0
sg3490
I0
sg3491
I0
sg3492
I0
ssg93
(dp3504
g3489
I0
sg3490
I0
sg3491
I0
sg3492
I0
ssg95
(dp3505
g3489
I0
sg3490
I13
sg3491
I0
sg3492
I5
ssg97
(dp3506
g3489
I0
sg3490
I0
sg3491
I0
sg3492
I0
ssg99
I0
sg103
I0
sg104
S'De Portel'
p3507
sg106
I2
sg107
I0
sg113
I15
sg109
I100
sg110
S'KHR'
p3508
sg114
(dp3509
S'A'
p3510
I11
sS'ME'
p3511
I5
sS'RP2'
p3512
I11
sS'E'
p3513
I10
sS'P'
p3514
I10
sS'RP1'
p3515
I9
sS'JP'
p3516
I7
sS'RP_tot'
p3517
I13
sS'TO'
p3518
I3
sS'PA'
p3519
I12
sS'M'
p3520
I10
sS'R'
p3521
I8
sS'TB'
p3522
I6
sS'PL'
p3523
I9
sS'TA'
p3524
I4
ssg137
I0
sg146
I0
sg147
I0
sg149
I0
sg150
F10.393939393939394
sg151
I0
sg161
I0
sg205
I0
sg325
(dp3525
S'A'
p3526
I11
sS'ME'
p3527
I5
sS'RP2'
p3528
I11
sS'E'
p3529
I10
sS'P'
p3530
I10
sS'RP1'
p3531
I9
sS'JP'
p3532
I7
sS'RP_tot'
p3533
I13
sS'TO'
p3534
I3
sS'PA'
p3535
I12
sS'M'
p3536
I10
sS'R'
p3537
I8
sS'TB'
p3538
I6
sS'PL'
p3539
I9
sS'TA'
p3540
I4
ssg131
g3509
sg222
I0
sg172
S'MSL 11'
p3541
sg223
I0
sg224
I0
sg225
I0
sg226
I10
sg227
I4
sg228
I0
sg229
S'B'
p3542
sbssg137
I6
sg146
I0
sg147
I0
sg148
F20.0
sg149
I0
sg150
F10.0
sg151
I0
sg160
I0
sg93
(dp3543
g255
I0
sg256
I0
sg257
I0
sg258
I13
ssg205
I0
sg325
(dp3544
g345
I11
sg346
I5
sg347
I11
sg348
I10
sg349
I3
sg350
I9
sg351
I7
sg352
I13
sg353
I10
sg354
I12
sg355
I10
sg356
I8
sg357
I6
sg358
I9
sg359
I4
ssg131
g3479
sg222
I0
sg172
S'MSL 11'
p3545
sg223
I0
sg224
I0
sg225
I0
sg226
I10
sg227
I9
sg161
I0
sg103
I0
sg228
I0
sg229
S'B'
p3546
sbsg361
(ijoueur
joueur
p3547
(dp3548
g38
I0
sg40
F9.0
sg43
I0
sg80
I1
sg45
I0
sg47
g48
(g49
g50
Ntp3549
Rp3550
(dp3551
g54
I3
sg55
S'^^^'
p3552
sg57
S'rare'
p3553
sbsg61
(dp3554
S'SR'
p3555
I0
sS'CT'
p3556
I0
sS'CR'
p3557
I0
sS'ST'
p3558
I0
ssg158
(dp3559
g3555
I0
sg3556
I13
sg3557
I0
sg3558
I5
ssg70
I0
sg71
(dp3560
g174
I1
sg175
I1
sg176
g177
ssg77
I0
sg81
I4
sg82
I0
sg83
I0
sg152
(S'dummy'
p3561
S'AR'
p3562
S'AI'
p3563
S'CE'
p3564
tp3565
sg85
I00
sg133
g48
(g49
g50
Ntp3566
Rp3567
(dp3568
g54
I3
sg55
S'^^^'
p3569
sg57
g3553
sbsg86
F18.0
sg108
I00
sg95
(dp3570
g3555
I0
sg3556
I13
sg3557
I0
sg3558
I5
ssg97
(dp3571
g3555
I0
sg3556
I0
sg3557
I0
sg3558
I0
ssg99
I0
sg100
(lp3572
g184
aI01
aI01
aI01
asg103
I0
sg110
S'KHR'
p3573
sg104
S'De Portel (11)'
p3574
sg106
I2
sg107
I0
sg113
I15
sg109
I100
sg84
I0
sg87
(dp3575
g3555
I0
sg3556
I0
sg3557
I0
sg3558
I0
ssg114
(dp3576
S'A'
p3577
I11
sS'ME'
p3578
I5
sS'RP2'
p3579
I11
sS'E'
p3580
I10
sS'P'
p3581
I10
sS'RP1'
p3582
I9
sS'JP'
p3583
I7
sS'RP_tot'
p3584
I13
sS'TO'
p3585
I3
sS'PA'
p3586
I12
sS'M'
p3587
I10
sS'R'
p3588
I8
sS'TB'
p3589
I6
sS'PL'
p3590
I9
sS'TA'
p3591
I4
ssg137
I0
sg146
I0
sg147
I0
sg148
F18.0
sg149
I0
sg150
F10.393939393939394
sg151
I0
sg160
I0
sg93
(dp3592
g3555
I0
sg3556
I0
sg3557
I0
sg3558
I0
ssg205
I0
sg325
(dp3593
S'A'
p3594
I11
sS'ME'
p3595
I5
sS'RP2'
p3596
I11
sS'E'
p3597
I10
sS'P'
p3598
I10
sS'RP1'
p3599
I9
sS'JP'
p3600
I7
sS'RP_tot'
p3601
I13
sS'TO'
p3602
I3
sS'PA'
p3603
I12
sS'M'
p3604
I10
sS'R'
p3605
I8
sS'TB'
p3606
I6
sS'PL'
p3607
I9
sS'TA'
p3608
I4
ssg131
g3576
sg222
I0
sg172
S'MSL 11'
p3609
sg223
I0
sg224
I0
sg225
I0
sg226
I10
sg227
I4
sg161
I0
sg228
I0
sg229
S'B'
p3610
sbssg205
I0
sg325
(dp3611
g425
I11
sg426
I5
sg427
I11
sg428
I10
sg429
I3
sg430
I9
sg431
I7
sg432
I13
sg433
I10
sg434
I12
sg435
I10
sg436
I8
sg437
I6
sg438
I9
sg439
I4
ssg222
I0
sg440
(dp3612
sg223
I0
sg172
g3445
sg224
I0
sg225
I0
sg226
I10
sg227
I11
sg228
I0
sg229
g3455
sbsS'n20'
p3613
(ijoueur
joueur
p3614
(dp3615
g37
F9.517241379310345
sg38
I0
sg39
F9.620689655172415
sg40
F11.5
sg41
g42
sg43
I0
sg44
I0
sg45
I0
sg46
I1
sg47
g48
(g49
g50
Ntp3616
Rp3617
(dp3618
g54
I3
sg55
S'^^^'
p3619
sg57
S'rare'
p3620
sbsg59
(dp3621
sg61
(dp3622
S'SR'
p3623
I0
sS'ST'
p3624
I0
sS'CR'
p3625
I9
sS'CT'
p3626
I5
ssg67
F9.413793103448276
sg68
I0
sg2000
I8
sg70
I0
sg71
(dp3627
g73
I3
sg74
I1
sg75
g76
ssg77
I0
sg78
I0
sg79
I00
sg80
I1
sg81
I0
sg82
I0
sg83
I0
sg84
I0
sg85
I00
sg86
F3.5
sg87
(dp3628
g89
I0
sg90
I0
sg91
I0
sg92
I0
ssg108
I00
sg95
(dp3629
g89
I0
sg90
I0
sg91
I0
sg92
I0
ssg97
(dp3630
g3623
I0
sg3624
I0
sg3625
I14
sg3626
I6
ssg99
I0
sg100
(lp3631
g102
aI01
aI01
aI00
asg103
I0
sg104
S'Paezol'
p3632
sg106
I1
sg107
I0
sg113
I13
sg109
I50
sg110
g111
sg112
I00
sg114
(dp3633
S'A'
p3634
I12
sS'ME'
p3635
I4
sS'RP2'
p3636
I9
sS'E'
p3637
I12
sS'P'
p3638
I8
sS'RP1'
p3639
I7
sS'JP'
p3640
I7
sS'RP_tot'
p3641
I9
sS'TO'
p3642
I6
sS'PA'
p3643
I9
sS'M'
p3644
I8
sS'R'
p3645
I6
sS'TB'
p3646
I7
sS'PL'
p3647
I11
sS'TA'
p3648
I7
ssg131
(dp3649
g3634
I12
sg3635
I4
sg3636
I9
sg3637
I12
sg3642
I6
sg3639
I7
sg3640
I7
sg3641
I9
sg3638
I8
sg3643
I9
sg3644
I8
sg3645
I6
sg3646
I7
sg3647
I11
sg3648
I7
ssg133
g48
(g49
g50
Ntp3650
Rp3651
(dp3652
g54
I3
sg55
S'^^^'
p3653
sg57
g3620
sbsg137
I0
sg146
I2
sg147
I0
sg148
I0
sg149
I0
sg150
F9.413793103448276
sg151
I0
sg152
(S'dummy'
p3654
S'DM'
p3655
S'DO'
p3656
g42
tp3657
sg158
(dp3658
g3623
I0
sg3624
I0
sg3625
I0
sg3626
I0
ssg160
I0
sg93
(dp3659
g89
I0
sg90
I0
sg91
I0
sg92
I0
ssg162
(dp3660
S's13'
p3661
(ijoueur
joueur
p3662
(dp3663
g38
I0
sg40
F11.5
sg146
I0
sg43
I0
sg80
I1
sg45
I0
sg47
g3617
sg61
(dp3664
g168
I0
sg169
I0
sg170
I0
sg171
I0
ssg158
g3658
sg172
S'CAT 12'
p3665
sg71
(dp3666
g174
I1
sg175
I1
sg176
g177
ssg77
I0
sg81
I1
sg82
I0
sg83
I0
sg152
g3657
sg85
I00
sg133
g3651
sg86
F2.5
sg108
I00
sg95
(dp3667
g179
I0
sg180
I0
sg181
I0
sg182
I0
ssg97
g3630
sg99
I0
sg100
(lp3668
g184
aI01
aI01
aI00
asg87
(dp3669
g179
I0
sg180
I2
sg181
I0
sg182
I0
ssg110
g111
sg104
S'Paezol (13)'
p3670
sg106
I1
sg107
I0
sg113
I13
sg109
I50
sg84
I0
sg114
(dp3671
g188
I0
sg189
I0
sg190
I0
sg191
I0
sg192
I0
sg193
I0
sg194
I0
sg195
I0
sg196
I0
sg197
I0
sg198
I0
sg199
I0
sg200
I0
sg201
I0
sg202
I0
ssg162
(dp3672
sg137
I0
sg41
g42
sg147
I0
sg148
F3.5
sg149
I0
sg150
F9.413793103448276
sg151
I0
sg160
I0
sg93
(dp3673
g179
I0
sg180
I1
sg181
I1
sg182
I0
ssg205
I0
sg131
(dp3674
g207
I12
sg208
I4
sg209
I9
sg210
I12
sg211
I8
sg212
I7
sg213
I7
sg214
I9
sg215
I6
sg216
I9
sg217
I8
sg218
I6
sg219
I7
sg220
I11
sg221
I7
ssg222
I0
sg223
I0
sg224
I0
sg225
I0
sg226
I5
sg227
I0
sg161
I0
sg103
I0
sg228
I0
sg229
S'EN'
p3675
sbsg231
(ijoueur
joueur
p3676
(dp3677
g37
F9.517241379310345
sg38
I0
sg40
F8.0
sg41
g42
sg43
I0
sg80
I1
sg45
I0
sg47
g48
(g49
g50
Ntp3678
Rp3679
(dp3680
g54
I3
sg55
S'^^^'
p3681
sg57
S'rare'
p3682
sbsg61
(dp3683
S'SR'
p3684
I0
sS'ST'
p3685
I0
sS'CR'
p3686
I8
sS'CT'
p3687
I4
ssg158
(dp3688
g3684
I0
sg3685
I0
sg3686
I0
sg3687
I0
ssg70
I0
sg71
(dp3689
g174
I1
sg175
I1
sg176
g177
ssg77
I0
sg81
I0
sg82
I0
sg83
I0
sg152
(S'dummy'
p3690
S'DM'
p3691
S'DO'
p3692
g42
tp3693
sg85
I00
sg133
g48
(g49
g50
Ntp3694
Rp3695
(dp3696
g54
I3
sg55
S'^^^'
p3697
sg57
g3682
sbsg86
F4.5
sg108
I00
sg95
(dp3698
S'SR'
p3699
I0
sS'ST'
p3700
I0
sS'CR'
p3701
I0
sS'CT'
p3702
I0
ssg97
(dp3703
g3684
I0
sg3685
I0
sg3686
I14
sg3687
I4
ssg99
I0
sg100
(lp3704
g184
aI01
aI01
aI00
asg87
(dp3705
g3699
I0
sg3700
I0
sg3701
I8
sg3702
I1
ssg110
g262
sg104
S'Paezol (12)'
p3706
sg106
I1
sg107
I0
sg113
I13
sg109
I50
sg84
I0
sg114
(dp3707
S'A'
p3708
I12
sS'ME'
p3709
I4
sS'RP2'
p3710
I9
sS'E'
p3711
I12
sS'TO'
p3712
I6
sS'RP1'
p3713
I7
sS'JP'
p3714
I8
sS'RP_tot'
p3715
I9
sS'P'
p3716
I9
sS'PA'
p3717
I9
sS'M'
p3718
I8
sS'R'
p3719
I6
sS'TB'
p3720
I8
sS'PL'
p3721
I11
sS'TA'
p3722
I7
ssg162
(dp3723
g281
(ijoueur
joueur
p3724
(dp3725
g38
I0
sg43
I0
sg45
I0
sg47
g48
(g49
g50
Ntp3726
Rp3727
(dp3728
g54
I3
sg55
S'^^^'
p3729
sg57
S'rare'
p3730
sbsg61
(dp3731
S'SR'
p3732
I0
sS'CT'
p3733
I2
sS'CR'
p3734
I3
sS'ST'
p3735
I0
ssg158
(dp3736
g3732
I0
sg3733
I0
sg3734
I0
sg3735
I0
ssg70
I0
sg77
I2
sg108
I01
sg81
I0
sg82
I0
sg83
I0
sg152
(S'dummy'
p3737
S'DM'
p3738
S'DO'
p3739
g42
tp3740
sg85
I01
sg133
g48
(g49
g50
Ntp3741
Rp3742
(dp3743
g54
I3
sg55
S'^^^'
p3744
sg57
g3730
sbsg87
(dp3745
g3732
I0
sg3733
I3
sg3734
I6
sg3735
I0
ssg93
(dp3746
g3732
I0
sg3733
I2
sg3734
I3
sg3735
I0
ssg95
(dp3747
g3732
I0
sg3733
I0
sg3734
I0
sg3735
I0
ssg97
(dp3748
g3732
I0
sg3733
I3
sg3734
I6
sg3735
I0
ssg99
I0
sg103
I0
sg104
S'Paezol'
p3749
sg106
I1
sg107
I0
sg113
I13
sg109
I13
sg110
S'CAT'
p3750
sg114
(dp3751
S'A'
p3752
I11
sS'ME'
p3753
I4
sS'RP2'
p3754
I9
sS'E'
p3755
I12
sS'P'
p3756
I9
sS'RP1'
p3757
I7
sS'JP'
p3758
I8
sS'RP_tot'
p3759
I9
sS'TO'
p3760
I6
sS'PA'
p3761
I9
sS'M'
p3762
I8
sS'R'
p3763
I6
sS'TB'
p3764
I7
sS'PL'
p3765
I11
sS'TA'
p3766
I7
ssg137
I0
sg146
I2
sg147
I0
sg149
I0
sg150
F9.517241379310345
sg151
I0
sg161
I0
sg205
I0
sg325
(dp3767
S'A'
p3768
I11
sS'ME'
p3769
I4
sS'RP2'
p3770
I9
sS'E'
p3771
I12
sS'P'
p3772
I9
sS'RP1'
p3773
I7
sS'JP'
p3774
I8
sS'RP_tot'
p3775
I9
sS'TO'
p3776
I6
sS'PA'
p3777
I9
sS'M'
p3778
I8
sS'R'
p3779
I6
sS'TB'
p3780
I7
sS'PL'
p3781
I11
sS'TA'
p3782
I7
ssg131
g3751
sg222
I0
sg172
g42
sg223
I0
sg224
I0
sg225
I0
sg226
I1
sg227
I0
sg228
I0
sg229
S'EN'
p3783
sbssg137
I0
sg146
I2
sg147
I0
sg148
F9.5
sg149
I0
sg150
F9.620689655172415
sg151
I0
sg160
I0
sg93
(dp3784
g3699
I0
sg3700
I0
sg3701
I5
sg3702
I2
ssg205
I2
sg325
(dp3785
S'A'
p3786
I11
sS'ME'
p3787
I4
sS'RP2'
p3788
I9
sS'E'
p3789
I12
sS'TO'
p3790
I6
sS'RP1'
p3791
I7
sS'JP'
p3792
I8
sS'RP_tot'
p3793
I9
sS'P'
p3794
I9
sS'PA'
p3795
I9
sS'M'
p3796
I8
sS'R'
p3797
I6
sS'TB'
p3798
I7
sS'PL'
p3799
I11
sS'TA'
p3800
I7
ssg131
g3707
sg222
I0
sg172
S'CAT 12'
p3801
sg223
I0
sg224
I0
sg225
I0
sg226
I5
sg227
I0
sg161
I0
sg103
I0
sg228
I2
sg229
S'EN'
p3802
sbsg361
(ijoueur
joueur
p3803
(dp3804
g38
I0
sg40
F9.5
sg43
I0
sg80
I0
sg45
I0
sg47
g48
(g49
g50
Ntp3805
Rp3806
(dp3807
g54
I3
sg55
S'^^^'
p3808
sg57
S'rare'
p3809
sbsg61
(dp3810
S'SR'
p3811
I0
sS'CT'
p3812
I2
sS'CR'
p3813
I3
sS'ST'
p3814
I0
ssg158
(dp3815
g3811
I0
sg3812
I0
sg3813
I0
sg3814
I0
ssg70
I0
sg71
(dp3816
g174
I1
sg175
I1
sg176
g177
ssg77
I2
sg81
I0
sg82
I0
sg83
I0
sg152
(S'dummy'
p3817
S'DM'
p3818
S'DO'
p3819
g42
tp3820
sg85
I01
sg133
g48
(g49
g50
Ntp3821
Rp3822
(dp3823
g54
I3
sg55
S'^^^'
p3824
sg57
g3809
sbsg86
F9.5
sg108
I01
sg95
(dp3825
g3811
I0
sg3812
I0
sg3813
I0
sg3814
I0
ssg97
(dp3826
g3811
I0
sg3812
I3
sg3813
I6
sg3814
I0
ssg99
I0
sg100
(lp3827
g184
aI01
aI01
aI00
asg103
I0
sg110
S'CAT'
p3828
sg104
S'Paezol (11)'
p3829
sg106
I1
sg107
I0
sg113
I13
sg109
I13
sg84
I0
sg87
(dp3830
g3811
I0
sg3812
I3
sg3813
I6
sg3814
I0
ssg114
(dp3831
S'A'
p3832
I11
sS'ME'
p3833
I4
sS'RP2'
p3834
I9
sS'E'
p3835
I12
sS'P'
p3836
I9
sS'RP1'
p3837
I7
sS'JP'
p3838
I8
sS'RP_tot'
p3839
I9
sS'TO'
p3840
I6
sS'PA'
p3841
I9
sS'M'
p3842
I8
sS'R'
p3843
I6
sS'TB'
p3844
I7
sS'PL'
p3845
I11
sS'TA'
p3846
I7
ssg137
I0
sg146
I2
sg147
I0
sg148
F9.5
sg149
I0
sg150
F9.517241379310345
sg151
I0
sg160
I0
sg93
(dp3847
g3811
I0
sg3812
I2
sg3813
I3
sg3814
I0
ssg205
I0
sg325
(dp3848
S'A'
p3849
I11
sS'ME'
p3850
I4
sS'RP2'
p3851
I9
sS'E'
p3852
I12
sS'P'
p3853
I9
sS'RP1'
p3854
I7
sS'JP'
p3855
I8
sS'RP_tot'
p3856
I9
sS'TO'
p3857
I6
sS'PA'
p3858
I9
sS'M'
p3859
I8
sS'R'
p3860
I6
sS'TB'
p3861
I7
sS'PL'
p3862
I11
sS'TA'
p3863
I7
ssg131
g3831
sg222
I0
sg172
g42
sg223
I0
sg224
I0
sg225
I0
sg226
I1
sg227
I0
sg161
I0
sg228
I0
sg229
S'EN'
p3864
sbssg205
I2
sg325
(dp3865
S'A'
p3866
I11
sS'ME'
p3867
I4
sS'RP2'
p3868
I9
sS'E'
p3869
I12
sS'TO'
p3870
I6
sS'RP1'
p3871
I7
sS'JP'
p3872
I8
sS'RP_tot'
p3873
I9
sS'P'
p3874
I9
sS'PA'
p3875
I9
sS'M'
p3876
I8
sS'R'
p3877
I6
sS'TB'
p3878
I7
sS'PL'
p3879
I11
sS'TA'
p3880
I7
ssg222
I0
sg440
(dp3881
sg223
I0
sg172
g3665
sg224
I0
sg225
I0
sg226
I5
sg227
I1
sg161
I0
sg228
I0
sg229
g3675
sbsS'n8'
p3882
g443
sS'n9'
p3883
(ijoueur
joueur
p3884
(dp3885
g38
I0
sg39
F8.969696969696969
sg40
F4.5
sg41
g42
sg43
I1
sg44
F54.77477612623294
sg445
g42
sg45
I0
sg446
g42
sg46
I0
sg47
g48
(g49
g50
Ntp3886
Rp3887
(dp3888
g54
I5
sg55
g1920
sg57
g1921
sbsg59
(dp3889
sg61
(dp3890
g454
I0
sg455
I5
sg456
I11
sg457
I1
ssg67
F9.454545454545455
sg68
I0
sg69
I10
sg172
g42
sg71
(dp3891
g73
I4
sg74
I9
sg75
g896
ssg77
I0
sg78
F54.77477612623294
sg79
I01
sg80
I4
sg81
I0
sg82
I0
sg83
I0
sg84
I2
sg85
I00
sg86
F14.5
sg87
(dp3892
g89
I0
sg90
I0
sg91
I1
sg92
I0
ssg93
(dp3893
g89
I0
sg90
I0
sg91
I4
sg92
I0
ssg95
(dp3894
g89
I0
sg90
I0
sg91
I0
sg92
I0
ssg97
(dp3895
g454
I0
sg455
I0
sg456
I11
sg457
I2
ssg99
I0
sg100
(lp3896
g102
aI01
aI01
aI00
asg103
I0
sg104
S'Bretof'
p3897
sg106
I12
sg107
I0
sg108
I00
sg109
I82
sg110
g111
sg112
I00
sg465
g42
sg113
I26
sg114
(dp3898
g467
I8
sg468
I5
sg469
I7
sg470
I10
sg471
I9
sg472
I9
sg473
I11
sg474
I9
sg475
I8
sg476
I12
sg477
I11
sg478
I8
sg479
I9
sg480
I11
sg481
I7
ssg133
g48
(g49
g50
Ntp3899
Rp3900
(dp3901
g54
I4
sg55
g1935
sg57
g1936
sbsg137
I3
sg146
I0
sg147
I0
sg148
I0
sg149
I0
sg150
F10.151515151515152
sg151
I0
sg152
(g482
S'DO'
p3902
S'DM'
p3903
g42
tp3904
sg158
(dp3905
g454
I0
sg455
I0
sg456
I0
sg457
I0
ssg160
I-1
sg161
I0
sg162
(dp3906
S's13'
p3907
(ijoueur
joueur
p3908
(dp3909
g38
I0
sg40
F6.5
sg146
I0
sg43
I0
sg80
I4
sg45
I0
sg47
g3887
sg61
(dp3910
g168
I0
sg169
I0
sg170
I0
sg171
I0
ssg158
g3905
sg172
g42
sg71
(dp3911
g174
I1
sg175
I1
sg176
g177
ssg77
I0
sg81
I1
sg82
I0
sg83
I0
sg152
g3904
sg85
I00
sg133
g48
(g49
g50
Ntp3912
Rp3913
(dp3914
g54
I2
sg55
g1953
sg57
g1954
sbsg86
F2.5
sg108
I00
sg95
(dp3915
g179
I0
sg180
I0
sg181
I0
sg182
I0
ssg97
g3895
sg99
I0
sg100
(lp3916
g184
aI01
aI01
aI00
asg87
(dp3917
g179
I0
sg180
I2
sg181
I8
sg182
I0
ssg110
g111
sg104
S'Bretof (13)'
p3918
sg106
I12
sg107
I0
sg113
I26
sg109
I35
sg84
I0
sg114
(dp3919
g188
I0
sg189
I0
sg190
I0
sg191
I0
sg192
I0
sg193
I0
sg194
I0
sg195
I0
sg196
I0
sg197
I0
sg198
I0
sg199
I0
sg200
I0
sg201
I0
sg202
I0
ssg162
(dp3920
sg137
I0
sg41
g42
sg147
I0
sg148
F14.5
sg149
I0
sg150
F9.454545454545455
sg151
I0
sg160
I0
sg93
(dp3921
g179
I0
sg180
I0
sg181
I7
sg182
I5
ssg205
I0
sg131
(dp3922
g207
I10
sg208
I5
sg209
I6
sg210
I10
sg211
I8
sg212
I6
sg213
I9
sg214
I7
sg215
I7
sg216
I11
sg217
I11
sg218
I8
sg219
I7
sg220
I10
sg221
I7
ssg222
I0
sg223
I0
sg224
I1
sg225
I0
sg226
I2
sg227
I0
sg161
I0
sg103
I0
sg228
I0
sg229
g501
sbsg231
(ijoueur
joueur
p3923
(dp3924
g38
I0
sg40
F1.0
sg41
g42
sg43
I0
sg80
I2
sg445
g42
sg45
I0
sg446
g42
sg47
g48
(g49
g50
Ntp3925
Rp3926
(dp3927
g54
I5
sg55
g1968
sg57
g1969
sbsg61
(dp3928
g510
I0
sg511
I0
sg512
I0
sg513
I1
ssg158
(dp3929
g510
I0
sg511
I0
sg512
I0
sg513
I0
ssg172
g42
sg71
(dp3930
g174
I1
sg175
I1
sg176
g177
ssg77
I0
sg81
I0
sg82
I0
sg83
I0
sg110
g262
sg85
I00
sg86
F2.0
sg87
(dp3931
g510
I0
sg511
I0
sg512
I2
sg513
I0
ssg108
I01
sg95
(dp3932
g510
I0
sg511
I0
sg512
I0
sg513
I0
ssg97
(dp3933
g510
I0
sg511
I0
sg512
I2
sg513
I0
ssg99
I0
sg100
(lp3934
g184
aI01
aI01
aI00
asg103
I0
sg104
S'Bretof (12)'
p3935
sg106
I12
sg107
I0
sg113
I26
sg109
I16
sg84
I0
sg465
g42
sg114
(dp3936
g522
I6
sg523
I4
sg524
I6
sg525
I10
sg526
I7
sg527
I10
sg528
I8
sg529
I6
sg530
I8
sg531
I10
sg532
I10
sg533
I8
sg534
I8
sg535
I10
sg536
I6
ssg133
g48
(g49
g50
Ntp3937
Rp3938
(dp3939
g54
I1
sg55
g540
sg57
g541
sbsg137
I0
sg146
I0
sg147
I0
sg148
F2.0
sg149
I0
sg150
F8.969696969696969
sg151
I0
sg152
(g542
S'DO'
p3940
S'DM'
p3941
g42
tp3942
sg160
I0
sg93
(dp3943
g510
I0
sg511
I0
sg512
I0
sg513
I1
ssg162
(dp3944
sg205
I0
sg131
g3936
sg222
I0
sg223
I0
sg224
I0
sg225
I0
sg226
I1
sg227
I0
sg161
I0
sg228
I0
sg229
g548
sbssg205
I0
sg131
(dp3945
g467
I8
sg468
I5
sg469
I7
sg470
I10
sg475
I8
sg473
I11
sg472
I9
sg474
I9
sg471
I9
sg476
I12
sg477
I11
sg478
I8
sg479
I9
sg480
I11
sg481
I7
ssg222
I0
sg440
(dp3946
sg223
I0
sg224
I0
sg225
I0
sg226
I6
sg227
I1
sg228
I0
sg229
g501
sbsS'n1'
p3947
(ijoueur
joueur
p3948
(dp3949
g38
I0
sg40
F1.0
sg146
I0
sg43
I0
sg44
F54.77477612623294
sg445
g42
sg45
I0
sg446
g42
sg46
I0
sg47
g48
(g49
g50
Ntp3950
Rp3951
(dp3952
g54
I4
sg55
S'*'
p3953
sg57
g3288
sbsg59
(dp3954
sg61
(dp3955
g3291
I0
sg3292
I2
sg3293
I9
sg3294
I0
ssg67
F7.862068965517241
sg68
I0
sg69
I10
sg172
g42
sg71
(dp3956
g73
I4
sg74
I1
sg75
g896
ssg77
I0
sg78
F54.77477612623294
sg79
I01
sg80
I2
sg81
I1
sg82
I0
sg83
I0
sg84
I2
sg85
I00
sg86
F4.0
sg87
(dp3957
g89
I0
sg90
I0
sg91
I0
sg92
I0
ssg108
I00
sg95
(dp3958
g89
I0
sg90
I0
sg91
I0
sg92
I0
ssg97
(dp3959
g3291
I0
sg3292
I0
sg3293
I1
sg3294
I0
ssg99
I0
sg100
(lp3960
g102
aI01
aI01
aI00
asg103
I0
sg104
S'Kraos'
p3961
sg106
I13
sg107
I0
sg93
(dp3962
g89
I0
sg90
I0
sg91
I4
sg92
I1
ssg109
I36
sg110
g111
sg112
I00
sg465
g42
sg113
I21
sg114
(dp3963
g3303
I8
sg3304
I8
sg3305
I6
sg3306
I10
sg3307
I7
sg3308
I8
sg3309
I4
sg3310
I8
sg3311
I2
sg3312
I8
sg3313
I11
sg3314
I10
sg3315
I4
sg3316
I9
sg3317
I10
ssg133
g48
(g49
g50
Ntp3964
Rp3965
(dp3966
g54
I2
sg55
g3321
sg57
g3322
sbsg137
g6
(g140
S'\x04\x00\x00\x00'
p3967
tp3968
Rp3969
sg41
g42
sg147
I0
sg148
I0
sg149
I0
sg150
F9.310344827586206
sg151
I0
sg152
(g3323
g3317
S'PI'
p3970
g42
tp3971
sg158
(dp3972
g3291
I0
sg3292
I0
sg3293
I0
sg3294
I0
ssg160
I2
sg161
I0
sg162
(dp3973
S's13'
p3974
(ijoueur
joueur
p3975
(dp3976
g38
I0
sg40
F0.0
sg146
I0
sg43
I0
sg80
I3
sg45
I0
sg47
g3951
sg61
(dp3977
g168
I0
sg169
I0
sg170
I0
sg171
I0
ssg158
g3972
sg172
g42
sg71
(dp3978
g174
I1
sg175
I1
sg176
g177
ssg77
I0
sg81
I0
sg82
I0
sg83
I0
sg152
g3971
sg85
I00
sg133
g48
(g49
g50
Ntp3979
Rp3980
(dp3981
g54
I1
sg55
S'>'
p3982
sg57
g3337
sbsg86
F4.0
sg108
I00
sg95
(dp3983
g3291
I0
sg3292
I0
sg3293
I0
sg3294
I0
ssg97
g3959
sg99
I0
sg100
(lp3984
g184
aI01
aI01
aI00
asg87
(dp3985
g3291
I0
sg3292
I0
sg3293
I1
sg3294
I0
ssg110
g111
sg104
S'Kraos (13)'
p3986
sg106
I13
sg107
I0
sg113
I21
sg109
I26
sg84
I0
sg114
(dp3987
g188
I0
sg189
I0
sg190
I0
sg191
I0
sg192
I0
sg193
I0
sg194
I0
sg195
I0
sg196
I0
sg197
I0
sg198
I0
sg199
I0
sg200
I0
sg201
I0
sg202
I0
ssg162
(dp3988
sg137
I0
sg41
g42
sg147
I0
sg148
F4.0
sg149
I0
sg150
F7.862068965517241
sg151
I0
sg160
I0
sg93
(dp3989
g3291
I0
sg3292
I1
sg3293
I5
sg3294
I0
ssg205
I0
sg131
(dp3990
g207
I10
sg208
I7
sg209
I6
sg210
I9
sg211
I2
sg212
I7
sg213
I4
sg214
I7
sg215
I6
sg216
I7
sg217
I8
sg218
I8
sg219
I4
sg220
I7
sg221
I8
ssg222
I0
sg223
I0
sg224
I0
sg225
I0
sg226
I2
sg227
I0
sg161
I0
sg103
I0
sg228
I0
sg229
g3346
sbssg205
I0
sg131
(dp3991
g3303
I8
sg3304
I8
sg3305
I6
sg3306
I10
sg3311
I2
sg3309
I4
sg3308
I8
sg3310
I8
sg3307
I7
sg3312
I8
sg3313
I11
sg3314
I10
sg3315
I4
sg3316
I9
sg3317
I10
ssg222
I0
sg223
I0
sg224
I0
sg225
I0
sg226
I3
sg227
I1
sg228
I0
sg229
g3346
sbsS'n2'
p3992
(ijoueur
joueur
p3993
(dp3994
g37
F10.0
sg38
I3
sg39
F10.620689655172415
sg40
F12.0
sg41
S'PI -> TA : 13'
p3995
sg43
I0
sg44
F54.77477612623294
sg45
I0
sg46
I0
sg47
g48
(g49
g50
Ntp3996
Rp3997
(dp3998
g54
I3
sg55
S'^^^'
p3999
sg57
S'rare'
p4000
sbsg59
(dp4001
sg61
(dp4002
S'SR'
p4003
I0
sS'ST'
p4004
I0
sS'CR'
p4005
I0
sS'CT'
p4006
I5
ssg67
F10.89655172413793
sg68
I0
sg69
I10
sg70
I0
sg71
(dp4007
g73
I2
sg74
I6
sg75
g896
ssg77
I0
sg78
F54.77477612623294
sg79
I00
sg80
I5
sg81
I0
sg82
I0
sg83
I0
sg84
I4
sg85
I00
sg86
F20.0
sg87
(dp4008
g89
I0
sg90
I0
sg91
I0
sg92
I1
ssg93
(dp4009
g89
I0
sg90
I0
sg91
I0
sg92
I4
ssg95
(dp4010
g89
I0
sg90
I0
sg91
I0
sg92
I0
ssg97
(dp4011
g4003
I5
sg4004
I12
sg4005
I1
sg4006
I39
ssg99
I0
sg100
(lp4012
g102
aI01
aI01
aI00
asg103
I0
sg104
S'Vuzgr'
p4013
sg106
I6
sg107
I0
sg108
I00
sg109
I117
sg110
g111
sg112
I00
sg113
I15
sg114
(dp4014
S'A'
p4015
I9
sS'ME'
p4016
I13
sS'RP2'
p4017
I10
sS'E'
p4018
I10
sS'P'
p4019
I3
sS'RP1'
p4020
I10
sS'JP'
p4021
I0
sS'RP_tot'
p4022
I12
sS'TO'
p4023
I4
sS'PA'
p4024
I7
sS'M'
p4025
I10
sS'R'
p4026
I10
sS'TB'
p4027
I1
sS'PL'
p4028
I9
sS'TA'
p4029
I16
ssg131
(dp4030
g4015
I9
sg4016
I13
sg4017
I10
sg4018
I10
sg4023
I4
sg4020
I10
sg4021
I0
sg4022
I12
sg4019
I3
sg4024
I7
sg4025
I10
sg4026
I10
sg4027
I1
sg4028
I9
sg4029
I16
ssg133
g48
(g49
g50
Ntp4031
Rp4032
(dp4033
g54
I3
sg55
S'^^^'
p4034
sg57
g4000
sbsg137
g6
(g140
S'\x07\x00\x00\x00'
p4035
tp4036
Rp4037
sg146
I0
sg147
I2
sg148
I0
sg149
I0
sg150
F11.10344827586207
sg151
I0
sg152
(g2234
S'TA'
p4038
S'PI'
p4039
g42
tp4040
sg158
(dp4041
g4003
I0
sg4004
I0
sg4005
I0
sg4006
I0
ssg160
I2
sg161
I0
sg162
(dp4042
S's13'
p4043
(ijoueur
joueur
p4044
(dp4045
g38
I0
sg40
F12.0
sg146
I0
sg43
I0
sg80
I5
sg45
I0
sg47
g3997
sg61
(dp4046
g168
I0
sg169
I0
sg170
I0
sg171
I0
ssg158
g4041
sg172
S'MDL 10;ED 13'
p4047
sg71
(dp4048
g174
I1
sg175
I1
sg176
g177
ssg77
I0
sg81
I0
sg82
I0
sg83
I0
sg152
g4040
sg85
I00
sg133
g4032
sg86
F1.0
sg108
I00
sg95
(dp4049
g179
I0
sg180
I0
sg181
I0
sg182
I0
ssg97
g4011
sg99
I0
sg100
(lp4050
g184
aI01
aI01
aI00
asg87
(dp4051
g179
I0
sg180
I14
sg181
I0
sg182
I5
ssg110
g111
sg104
S'Vuzgr (13)'
p4052
sg106
I6
sg107
I0
sg113
I15
sg109
I117
sg84
I0
sg114
(dp4053
g188
I0
sg189
I0
sg190
I0
sg191
I0
sg192
I0
sg193
I0
sg194
I0
sg195
I0
sg196
I0
sg197
I0
sg198
I0
sg199
I0
sg200
I0
sg201
I0
sg202
I0
ssg162
(dp4054
sg137
I0
sg41
g42
sg147
I0
sg148
F20.0
sg149
I0
sg150
F10.89655172413793
sg151
I0
sg160
I0
sg93
(dp4055
g179
I0
sg180
I1
sg181
I0
sg182
I0
ssg205
I0
sg131
(dp4056
g207
I8
sg208
I13
sg209
I9
sg210
I10
sg211
I3
sg212
I10
sg213
I0
sg214
I11
sg215
I4
sg216
I7
sg217
I10
sg218
I10
sg219
I1
sg220
I9
sg221
I16
ssg222
I0
sg223
I0
sg224
I0
sg225
I0
sg226
I16
sg227
I0
sg161
I0
sg103
I0
sg228
I0
sg229
S'OG'
p4057
sbsS's12'
p4058
(ijoueur
joueur
p4059
(dp4060
g37
F10.0
sg38
I2
sg40
F3.0
sg41
g42
sg43
I0
sg80
I4
sg45
I0
sg47
g48
(g49
g50
Ntp4061
Rp4062
(dp4063
g54
I3
sg55
S'^^^'
p4064
sg57
S'rare'
p4065
sbsg61
(dp4066
S'SR'
p4067
I5
sS'ST'
p4068
I7
sS'CR'
p4069
I1
sS'CT'
p4070
I24
ssg158
(dp4071
g4067
I0
sg4068
I0
sg4069
I0
sg4070
I0
ssg70
I0
sg71
(dp4072
g174
I1
sg175
I1
sg176
g177
ssg77
I0
sg81
I2
sg82
I0
sg83
I0
sg152
(S'dummy'
p4073
S'PI'
p4074
S'TA'
p4075
g42
tp4076
sg85
I01
sg133
g48
(g49
g50
Ntp4077
Rp4078
(dp4079
g54
I3
sg55
S'^^^'
p4080
sg57
g4065
sbsg86
F0.0
sg108
I00
sg95
(dp4081
S'SR'
p4082
I0
sS'CT'
p4083
I0
sS'CR'
p4084
I0
sS'ST'
p4085
I0
ssg97
(dp4086
g4067
I0
sg4068
I0
sg4069
I0
sg4070
I0
ssg99
I0
sg100
(lp4087
g184
aI01
aI01
aI00
asg87
(dp4088
g4082
I0
sg4083
I0
sg4084
I0
sg4085
I0
ssg110
S'ED'
p4089
sg104
S'Vuzgr (12)'
p4090
sg106
I6
sg107
I0
sg113
I15
sg109
I92
sg84
I0
sg114
(dp4091
S'A'
p4092
I7
sS'ME'
p4093
I13
sS'RP2'
p4094
I9
sS'E'
p4095
I10
sS'TO'
p4096
I4
sS'RP1'
p4097
I10
sS'JP'
p4098
I0
sS'RP_tot'
p4099
I12
sS'P'
p4100
I3
sS'PA'
p4101
I7
sS'M'
p4102
I10
sS'R'
p4103
I9
sS'TB'
p4104
I1
sS'PL'
p4105
I9
sS'TA'
p4106
I15
ssg162
(dp4107
S's11'
p4108
(ijoueur
joueur
p4109
(dp4110
g38
I1
sg43
I0
sg45
I0
sg47
g48
(g49
g50
Ntp4111
Rp4112
(dp4113
g54
I3
sg55
S'^^^'
p4114
sg57
S'rare'
p4115
sbsg61
(dp4116
S'SR'
p4117
I5
sS'ST'
p4118
I0
sS'CR'
p4119
I1
sS'CT'
p4120
I12
ssg158
(dp4121
g4117
I0
sg4118
I0
sg4119
I0
sg4120
I0
ssg70
I0
sg77
I0
sg108
I00
sg81
I0
sg82
I0
sg83
I0
sg152
(S'dummy'
p4122
S'PI'
p4123
S'TA'
p4124
g42
tp4125
sg85
I00
sg133
g48
(g49
g50
Ntp4126
Rp4127
(dp4128
g54
I3
sg55
S'^^^'
p4129
sg57
g4115
sbsg87
(dp4130
g4117
I0
sg4118
I0
sg4119
I0
sg4120
I0
ssg93
(dp4131
g4117
I5
sg4118
I0
sg4119
I1
sg4120
I12
ssg95
(dp4132
g4117
I0
sg4118
I0
sg4119
I0
sg4120
I0
ssg97
(dp4133
g4117
I0
sg4118
I0
sg4119
I0
sg4120
I0
ssg99
I0
sg103
I0
sg104
S'Vuzgr'
p4134
sg106
I6
sg107
I0
sg113
I15
sg109
I92
sg110
S'ED'
p4135
sg114
(dp4136
S'A'
p4137
I7
sS'ME'
p4138
I13
sS'RP2'
p4139
I8
sS'E'
p4140
I10
sS'TO'
p4141
I4
sS'RP1'
p4142
I10
sS'JP'
p4143
I0
sS'RP_tot'
p4144
I11
sS'P'
p4145
I3
sS'PA'
p4146
I7
sS'M'
p4147
I10
sS'R'
p4148
I9
sS'TB'
p4149
I1
sS'PL'
p4150
I9
sS'TA'
p4151
I13
ssg137
I0
sg146
I0
sg147
I0
sg149
I0
sg150
F10.206896551724139
sg151
I0
sg161
I0
sg205
I0
sg325
(dp4152
S'A'
p4153
I7
sS'ME'
p4154
I13
sS'RP2'
p4155
I8
sS'E'
p4156
I10
sS'TO'
p4157
I4
sS'RP1'
p4158
I10
sS'JP'
p4159
I0
sS'RP_tot'
p4160
I11
sS'P'
p4161
I3
sS'PA'
p4162
I7
sS'M'
p4163
I10
sS'R'
p4164
I9
sS'TB'
p4165
I1
sS'PL'
p4166
I9
sS'TA'
p4167
I13
ssg131
g4136
sg222
I1
sg172
S'MDL 10'
p4168
sg223
I0
sg224
I0
sg225
I0
sg226
I20
sg227
I9
sg228
I0
sg229
S'OG'
p4169
sbssg137
I8
sg146
I0
sg147
I1
sg148
F18.0
sg149
I0
sg150
F10.482758620689655
sg151
I0
sg160
I0
sg93
(dp4170
g4082
I0
sg4083
I12
sg4084
I0
sg4085
I6
ssg205
I0
sg325
(dp4171
S'A'
p4172
I7
sS'ME'
p4173
I13
sS'RP2'
p4174
I8
sS'E'
p4175
I10
sS'TO'
p4176
I4
sS'RP1'
p4177
I10
sS'JP'
p4178
I0
sS'RP_tot'
p4179
I11
sS'P'
p4180
I3
sS'PA'
p4181
I7
sS'M'
p4182
I10
sS'R'
p4183
I9
sS'TB'
p4184
I1
sS'PL'
p4185
I9
sS'TA'
p4186
I13
ssg131
g4091
sg222
I1
sg172
S'MDL 10'
p4187
sg223
I0
sg224
I0
sg225
I0
sg226
I20
sg227
I11
sg161
I1
sg103
I0
sg228
I0
sg229
S'OG'
p4188
sbsS's11'
p4189
(ijoueur
joueur
p4190
(dp4191
g38
I1
sg40
F4.0
sg43
I0
sg80
I2
sg45
I0
sg47
g48
(g49
g50
Ntp4192
Rp4193
(dp4194
g54
I3
sg55
S'^^^'
p4195
sg57
S'rare'
p4196
sbsg61
(dp4197
S'SR'
p4198
I5
sS'ST'
p4199
I0
sS'CR'
p4200
I1
sS'CT'
p4201
I12
ssg158
(dp4202
g4198
I0
sg4199
I0
sg4200
I0
sg4201
I0
ssg70
I0
sg71
(dp4203
g174
I1
sg175
I1
sg176
g177
ssg77
I0
sg81
I0
sg82
I0
sg83
I0
sg152
(S'dummy'
p4204
S'PI'
p4205
S'TA'
p4206
g42
tp4207
sg85
I00
sg133
g48
(g49
g50
Ntp4208
Rp4209
(dp4210
g54
I3
sg55
S'^^^'
p4211
sg57
g4196
sbsg86
F15.0
sg108
I00
sg95
(dp4212
g4198
I0
sg4199
I0
sg4200
I0
sg4201
I0
ssg97
(dp4213
g4198
I0
sg4199
I0
sg4200
I0
sg4201
I0
ssg99
I0
sg100
(lp4214
g184
aI01
aI01
aI00
asg103
I0
sg110
S'ED'
p4215
sg104
S'Vuzgr (11)'
p4216
sg106
I6
sg107
I0
sg113
I15
sg109
I92
sg84
I0
sg87
(dp4217
g4198
I0
sg4199
I0
sg4200
I0
sg4201
I0
ssg114
(dp4218
S'A'
p4219
I7
sS'ME'
p4220
I13
sS'RP2'
p4221
I8
sS'E'
p4222
I10
sS'TO'
p4223
I4
sS'RP1'
p4224
I10
sS'JP'
p4225
I0
sS'RP_tot'
p4226
I11
sS'P'
p4227
I3
sS'PA'
p4228
I7
sS'M'
p4229
I10
sS'R'
p4230
I9
sS'TB'
p4231
I1
sS'PL'
p4232
I9
sS'TA'
p4233
I13
ssg137
I0
sg146
I0
sg147
I0
sg148
F15.0
sg149
I0
sg150
F10.206896551724139
sg151
I0
sg160
I0
sg93
(dp4234
g4198
I5
sg4199
I0
sg4200
I1
sg4201
I12
ssg205
I0
sg325
(dp4235
S'A'
p4236
I7
sS'ME'
p4237
I13
sS'RP2'
p4238
I8
sS'E'
p4239
I10
sS'TO'
p4240
I4
sS'RP1'
p4241
I10
sS'JP'
p4242
I0
sS'RP_tot'
p4243
I11
sS'P'
p4244
I3
sS'PA'
p4245
I7
sS'M'
p4246
I10
sS'R'
p4247
I9
sS'TB'
p4248
I1
sS'PL'
p4249
I9
sS'TA'
p4250
I13
ssg131
g4218
sg222
I1
sg172
S'MDL 10'
p4251
sg223
I0
sg224
I0
sg225
I0
sg226
I20
sg227
I9
sg161
I0
sg228
I0
sg229
S'OG'
p4252
sbssg205
I0
sg325
(dp4253
S'A'
p4254
I7
sS'ME'
p4255
I13
sS'RP2'
p4256
I8
sS'E'
p4257
I10
sS'TO'
p4258
I4
sS'RP1'
p4259
I10
sS'JP'
p4260
I0
sS'RP_tot'
p4261
I11
sS'P'
p4262
I3
sS'PA'
p4263
I7
sS'M'
p4264
I10
sS'R'
p4265
I9
sS'TB'
p4266
I1
sS'PL'
p4267
I9
sS'TA'
p4268
I13
ssg222
I0
sg440
(dp4269
sg223
I0
sg172
g4047
sg224
I0
sg225
I0
sg226
I16
sg227
I11
sg228
I0
sg229
g4057
sbsS'n3'
p4270
(ijoueur
joueur
p4271
(dp4272
g37
F10.518518518518519
sg38
I2
sg39
F11.296296296296296
sg40
F4.0
sg41
g42
sg43
I0
sg44
F54.77477612623294
sg45
I0
sg46
I0
sg47
g48
(g49
g50
Ntp4273
Rp4274
(dp4275
g54
I4
sg55
g2563
sg57
g2564
sbsg59
(dp4276
sg61
(dp4277
g561
I0
sg562
I0
sg563
I0
sg564
I0
ssg67
F11.518518518518519
sg68
I0
sg69
I10
sg70
I0
sg71
(dp4278
g566
I2
sg567
I3
sg568
g2768
ssg77
I0
sg78
F54.77477612623294
sg79
I00
sg80
I6
sg81
I0
sg82
I0
sg83
I0
sg84
I4
sg85
I00
sg86
F22.0
sg87
(dp4279
g571
I0
sg572
I5
sg573
I0
sg574
I0
ssg93
(dp4280
g571
I0
sg572
I0
sg573
I0
sg574
I0
ssg95
(dp4281
g571
I0
sg572
I0
sg573
I0
sg574
I0
ssg97
(dp4282
g561
I0
sg562
I22
sg563
I0
sg564
I48
ssg99
I5
sg100
(lp4283
g579
aI01
aI00
aI00
asg103
I0
sg104
S'Stavaer'
p4284
sg106
I5
sg107
I8
sg108
I00
sg109
I233
sg110
g581
sg112
I00
sg113
I15
sg114
(dp4285
g583
I12
sg584
I11
sg585
I11
sg586
I12
sg587
I9
sg588
I11
sg589
I6
sg590
I14
sg591
I8
sg592
I11
sg593
I8
sg594
I11
sg595
I10
sg596
I13
sg597
I7
ssg131
(dp4286
g583
I12
sg584
I11
sg585
I11
sg586
I12
sg591
I8
sg588
I11
sg589
I6
sg590
I14
sg587
I9
sg592
I11
sg593
I8
sg594
I11
sg595
I10
sg596
I13
sg597
I7
ssg133
g48
(g49
g50
Ntp4287
Rp4288
(dp4289
g54
I5
sg55
S'**'
p4290
sg57
S'seigneur'
p4291
sbsg137
g6
(g140
S'\x07\x00\x00\x00'
p4292
tp4293
Rp4294
sg146
I0
sg147
I0
sg148
I0
sg149
I0
sg150
F11.851851851851851
sg151
I1
sg152
(g606
S'PI'
p4295
g42
g42
tp4296
sg158
(dp4297
g561
I0
sg562
I0
sg563
I0
sg564
I0
ssg160
I3
sg161
I0
sg162
(dp4298
S's13'
p4299
(ijoueur
joueur
p4300
(dp4301
g38
I0
sg40
F4.0
sg146
I0
sg43
I0
sg80
I6
sg45
I0
sg47
g4274
sg61
(dp4302
g617
I0
sg618
I0
sg619
I0
sg620
I0
ssg158
g4297
sg84
I0
sg172
S'AL 11'
p4303
sg71
(dp4304
g622
I1
sg623
I1
sg624
g625
ssg77
I0
sg81
I3
sg82
I1
sg83
I7
sg152
g4296
sg85
I00
sg133
g4288
sg86
F1.0
sg108
I00
sg95
(dp4305
g627
I0
sg628
I0
sg629
I0
sg630
I0
ssg97
g4282
sg99
I0
sg100
(lp4306
g632
aI01
aI00
aI00
asg87
(dp4307
g627
I0
sg628
I6
sg629
I0
sg630
I16
ssg104
g4284
sg106
I5
sg107
I0
sg113
I15
sg109
I233
sg110
g581
sg114
(dp4308
g635
I0
sg636
I0
sg637
I0
sg638
I0
sg639
I0
sg640
I0
sg641
I0
sg642
I0
sg643
I0
sg644
I0
sg645
I0
sg646
I0
sg647
I0
sg648
I0
sg649
I0
ssg162
(dp4309
sg137
I0
sg41
g42
sg147
I0
sg148
F22.0
sg149
I0
sg150
F11.518518518518519
sg151
I0
sg160
I0
sg93
(dp4310
g627
I0
sg628
I0
sg629
I0
sg630
I0
ssg205
I0
sg131
(dp4311
g653
I12
sg654
I11
sg655
I9
sg656
I12
sg657
I8
sg658
I11
sg659
I7
sg660
I12
sg661
I9
sg662
I11
sg663
I7
sg664
I11
sg665
I10
sg666
I13
sg667
I7
ssg222
I0
sg223
I0
sg224
I0
sg225
I0
sg226
I13
sg227
I0
sg161
I0
sg103
I5
sg228
I0
sg229
S'ES'
p4312
sbsg669
(ijoueur
joueur
p4313
(dp4314
g37
F10.518518518518519
sg38
I0
sg40
F11.0
sg41
g42
sg43
I0
sg80
I4
sg45
I0
sg47
g48
(g49
g50
Ntp4315
Rp4316
(dp4317
g54
I4
sg55
g2606
sg57
g2607
sbsg61
(dp4318
g678
I0
sg679
I0
sg680
I0
sg681
I0
ssg158
(dp4319
g678
I0
sg679
I0
sg680
I0
sg681
I0
ssg84
I0
sg70
I0
sg71
(dp4320
g622
I1
sg623
I1
sg624
g625
ssg77
I0
sg81
I0
sg82
I0
sg83
I0
sg152
(g684
S'PI'
p4321
g42
g42
tp4322
sg85
I00
sg133
g48
(g49
g50
Ntp4323
Rp4324
(dp4325
g54
I5
sg55
S'**'
p4326
sg57
S'seigneur'
p4327
sbsg86
F1.5
sg108
I01
sg95
(dp4328
g694
I0
sg695
I0
sg696
I0
sg697
I0
ssg97
(dp4329
g678
I0
sg679
I16
sg680
I0
sg681
I27
ssg99
I0
sg100
(lp4330
g632
aI01
aI00
aI00
asg87
(dp4331
g694
I0
sg695
I14
sg696
I0
sg697
I7
ssg104
S'Stavaer'
p4332
sg106
I5
sg107
I1
sg113
I15
sg109
I233
sg110
g702
sg114
(dp4333
g704
I12
sg705
I9
sg706
I9
sg707
I12
sg708
I8
sg709
I11
sg710
I8
sg711
I13
sg712
I10
sg713
I11
sg714
I7
sg715
I11
sg716
I11
sg717
I13
sg718
I7
ssg162
(dp4334
g720
(ijoueur
joueur
p4335
(dp4336
g38
I0
sg43
I0
sg45
I0
sg47
g48
(g49
g50
Ntp4337
Rp4338
(dp4339
g54
I4
sg55
S'*'
p4340
sg57
S'heros'
p4341
sbsg61
(dp4342
S'SR'
p4343
I0
sS'ST'
p4344
I0
sS'CR'
p4345
I0
sS'CT'
p4346
I0
ssg158
(dp4347
g4343
I0
sg4344
I0
sg4345
I0
sg4346
I0
ssg70
I0
sg77
I0
sg108
I01
sg81
I3
sg82
I0
sg83
I1
sg152
(S'dummy'
p4348
S'PI'
p4349
g42
g42
tp4350
sg85
I01
sg133
g48
(g49
g50
Ntp4351
Rp4352
(dp4353
g54
I4
sg55
g4340
sg57
g4341
sbsg87
(dp4354
g4343
I0
sg4344
I9
sg4345
I0
sg4346
I13
ssg93
(dp4355
g4343
I0
sg4344
I0
sg4345
I0
sg4346
I0
ssg95
(dp4356
g4343
I0
sg4344
I0
sg4345
I0
sg4346
I0
ssg97
(dp4357
g4343
I0
sg4344
I9
sg4345
I0
sg4346
I13
ssg99
I0
sg103
I0
sg104
S'Stavaer'
p4358
sg106
I5
sg107
I1
sg113
I15
sg109
I168
sg110
S'KHR'
p4359
sg114
(dp4360
S'A'
p4361
I11
sS'ME'
p4362
I9
sS'RP2'
p4363
I8
sS'E'
p4364
I11
sS'TO'
p4365
I7
sS'RP1'
p4366
I11
sS'JP'
p4367
I6
sS'RP_tot'
p4368
I12
sS'P'
p4369
I8
sS'PA'
p4370
I10
sS'M'
p4371
I7
sS'R'
p4372
I10
sS'TB'
p4373
I9
sS'PL'
p4374
I12
sS'TA'
p4375
I7
ssg137
I0
sg146
I0
sg147
I0
sg149
I0
sg150
F10.518518518518519
sg151
I0
sg161
I0
sg205
I1
sg325
(dp4376
S'A'
p4377
I11
sS'ME'
p4378
I9
sS'RP2'
p4379
I8
sS'E'
p4380
I11
sS'TO'
p4381
I7
sS'RP1'
p4382
I11
sS'JP'
p4383
I6
sS'RP_tot'
p4384
I12
sS'P'
p4385
I8
sS'PA'
p4386
I10
sS'M'
p4387
I7
sS'R'
p4388
I10
sS'TB'
p4389
I9
sS'PL'
p4390
I12
sS'TA'
p4391
I7
ssg131
g4360
sg222
I0
sg172
S'AL 11'
p4392
sg223
I0
sg224
I0
sg225
I0
sg226
I7
sg227
I6
sg228
I1
sg229
S'ES'
p4393
sbssg137
I3
sg146
I0
sg147
I0
sg148
F21.0
sg149
I0
sg150
F11.296296296296296
sg151
I0
sg160
I0
sg93
(dp4394
g694
I0
sg695
I0
sg696
I0
sg697
I0
ssg205
I1
sg325
(dp4395
g784
I11
sg785
I9
sg786
I8
sg787
I11
sg788
I8
sg789
I11
sg790
I6
sg791
I12
sg792
I7
sg793
I10
sg794
I7
sg795
I10
sg796
I9
sg797
I12
sg798
I7
ssg131
g4333
sg222
I0
sg172
S'AL 11'
p4396
sg223
I0
sg224
I0
sg225
I0
sg226
I13
sg227
I6
sg161
I0
sg103
I0
sg228
I0
sg229
S'ES'
p4397
sbsg800
(ijoueur
joueur
p4398
(dp4399
g38
I0
sg40
F0.0
sg43
I0
sg80
I3
sg45
I0
sg47
g48
(g49
g50
Ntp4400
Rp4401
(dp4402
g54
I4
sg55
S'*'
p4403
sg57
S'heros'
p4404
sbsg61
(dp4405
S'SR'
p4406
I0
sS'ST'
p4407
I0
sS'CR'
p4408
I0
sS'CT'
p4409
I0
ssg158
(dp4410
g4406
I0
sg4407
I0
sg4408
I0
sg4409
I0
ssg84
I0
sg70
I0
sg71
(dp4411
g622
I1
sg623
I1
sg624
g625
ssg77
I0
sg81
I3
sg82
I0
sg83
I1
sg152
(S'dummy'
p4412
S'PI'
p4413
g42
g42
tp4414
sg85
I01
sg133
g48
(g49
g50
Ntp4415
Rp4416
(dp4417
g54
I4
sg55
g4403
sg57
g4404
sbsg86
F22.0
sg108
I01
sg95
(dp4418
g4406
I0
sg4407
I0
sg4408
I0
sg4409
I0
ssg97
(dp4419
g4406
I0
sg4407
I9
sg4408
I0
sg4409
I13
ssg99
I0
sg100
(lp4420
g632
aI01
aI00
aI00
asg103
I0
sg104
S'Stavaer'
p4421
sg106
I5
sg107
I1
sg113
I15
sg109
I168
sg110
S'KHR'
p4422
sg87
(dp4423
g4406
I0
sg4407
I9
sg4408
I0
sg4409
I13
ssg114
(dp4424
S'A'
p4425
I11
sS'ME'
p4426
I9
sS'RP2'
p4427
I8
sS'E'
p4428
I11
sS'TO'
p4429
I7
sS'RP1'
p4430
I11
sS'JP'
p4431
I6
sS'RP_tot'
p4432
I12
sS'P'
p4433
I8
sS'PA'
p4434
I10
sS'M'
p4435
I7
sS'R'
p4436
I10
sS'TB'
p4437
I9
sS'PL'
p4438
I12
sS'TA'
p4439
I7
ssg137
I0
sg146
I0
sg147
I0
sg148
F22.0
sg149
I0
sg150
F10.518518518518519
sg151
I0
sg160
I0
sg93
(dp4440
g4406
I0
sg4407
I0
sg4408
I0
sg4409
I0
ssg205
I1
sg325
(dp4441
S'A'
p4442
I11
sS'ME'
p4443
I9
sS'RP2'
p4444
I8
sS'E'
p4445
I11
sS'TO'
p4446
I7
sS'RP1'
p4447
I11
sS'JP'
p4448
I6
sS'RP_tot'
p4449
I12
sS'P'
p4450
I8
sS'PA'
p4451
I10
sS'M'
p4452
I7
sS'R'
p4453
I10
sS'TB'
p4454
I9
sS'PL'
p4455
I12
sS'TA'
p4456
I7
ssg131
g4424
sg222
I0
sg172
S'AL 11'
p4457
sg223
I0
sg224
I0
sg225
I0
sg226
I7
sg227
I6
sg161
I0
sg228
I1
sg229
S'ES'
p4458
sbssg205
I1
sg325
(dp4459
g865
I11
sg866
I9
sg867
I8
sg868
I11
sg869
I8
sg870
I11
sg871
I6
sg872
I12
sg873
I7
sg874
I10
sg875
I7
sg876
I10
sg877
I9
sg878
I12
sg879
I7
ssg222
I0
sg440
(dp4460
sg223
I0
sg172
g4303
sg224
I0
sg225
I0
sg226
I13
sg227
I9
sg228
I0
sg229
g4312
sbsS'n4'
p4461
g1915
sS'n5'
p4462
(ijoueur
joueur
p4463
(dp4464
g37
F9.5
sg38
I0
sg39
F10.35483870967742
sg40
F12.0
sg41
g42
sg43
I0
sg44
F54.77477612623294
sg45
I0
sg46
I0
sg47
g48
(g49
g50
Ntp4465
Rp4466
(dp4467
g54
I5
sg55
S'xx'
p4468
sg57
S'seigneur'
p4469
sbsg59
(dp4470
sg61
(dp4471
S'SR'
p4472
I5
sS'CT'
p4473
I17
sS'CR'
p4474
I1
sS'ST'
p4475
I1
ssg67
F10.741935483870968
sg68
I0
sg69
I10
sg70
I0
sg71
(dp4476
g566
Nsg567
I14
sg568
g2768
ssg77
I0
sg1380
I0
sg1381
I0
sg79
I00
sg80
I5
sg81
I2
sg82
I0
sg83
I0
sg84
I3
sg85
I00
sg86
F18.0
sg87
(dp4477
g571
I0
sg572
I0
sg573
I0
sg574
I0
ssg108
I00
sg95
(dp4478
g571
I0
sg572
I1
sg573
I0
sg574
I0
ssg97
(dp4479
g4472
I0
sg4473
I22
sg4474
I3
sg4475
I0
ssg99
I0
sg100
(lp4480
g579
aI01
aI01
aI01
asg103
I0
sg104
S'Zhdavr'
p4481
sg106
I8
sg107
I0
sg93
(dp4482
g571
I0
sg572
I4
sg573
I0
sg574
I0
ssg109
I389
sg110
g581
sg112
I00
sg113
I24
sg114
(dp4483
S'A'
p4484
I10
sS'ME'
p4485
I13
sS'RP2'
p4486
I7
sS'E'
p4487
I10
sS'TO'
p4488
I13
sS'RP1'
p4489
I13
sS'JP'
p4490
I4
sS'RP_tot'
p4491
I13
sS'P'
p4492
I6
sS'PA'
p4493
I10
sS'M'
p4494
I14
sS'R'
p4495
I8
sS'TB'
p4496
I4
sS'PL'
p4497
I13
sS'TA'
p4498
I9
ssg131
(dp4499
g4484
I11
sg4485
I13
sg4486
I7
sg4487
I10
sg4492
I6
sg4489
I13
sg4490
I4
sg4491
I13
sg4488
I13
sg4493
I10
sg4494
I14
sg4495
I9
sg4496
I4
sg4497
I14
sg4498
I9
ssg133
g4466
sg137
g6
(g140
S'\n\x00\x00\x00'
p4500
tp4501
Rp4502
sg146
I0
sg147
I0
sg148
I0
sg149
I0
sg150
F11.710526315789474
sg151
I0
sg152
(S'dummy'
p4503
S'TL'
p4504
S'DL'
p4505
S'N8'
p4506
tp4507
sg158
(dp4508
g4472
I0
sg4473
I2
sg4474
I4
sg4475
I0
ssg78
F54.77477612623294
sg160
I8
sg1418
I0
sg161
I0
sg162
(dp4509
S's13'
p4510
(ijoueur
joueur
p4511
(dp4512
g38
I0
sg40
F12.0
sg146
I0
sg43
I0
sg80
I5
sg45
I0
sg47
g4466
sg61
(dp4513
g617
I0
sg618
I0
sg619
I0
sg620
I0
ssg158
g4508
sg84
I0
sg172
S'DKW 13'
p4514
sg71
(dp4515
g622
I1
sg623
I1
sg624
g625
ssg77
I0
sg81
I1
sg82
I0
sg83
I0
sg152
g4507
sg85
I00
sg133
g4466
sg86
F2.5
sg108
I00
sg95
(dp4516
g627
I0
sg628
I0
sg629
I1
sg630
I1
ssg97
g4479
sg99
I0
sg100
(lp4517
g632
aI01
aI01
aI01
asg87
(dp4518
g627
I0
sg628
I0
sg629
I0
sg630
I0
ssg104
g4481
sg106
I8
sg107
I0
sg113
I24
sg109
I389
sg110
g581
sg114
(dp4519
g635
I0
sg636
I0
sg637
I0
sg638
I0
sg639
I0
sg640
I0
sg641
I0
sg642
I0
sg643
I0
sg644
I0
sg645
I0
sg646
I0
sg647
I0
sg648
I0
sg649
I0
ssg162
(dp4520
sg137
I0
sg41
g42
sg147
I0
sg148
F18.0
sg149
I0
sg150
F10.741935483870968
sg151
I0
sg160
I0
sg93
(dp4521
g627
I4
sg628
I1
sg629
I1
sg630
I13
ssg205
I0
sg131
(dp4522
g653
I11
sg654
I12
sg655
I7
sg656
I9
sg657
I10
sg658
I12
sg659
I4
sg660
I12
sg661
I6
sg662
I10
sg663
I13
sg664
I8
sg665
I4
sg666
I14
sg667
I9
ssg222
I0
sg223
I0
sg224
I0
sg225
I0
sg226
I20
sg227
I0
sg161
I0
sg103
I0
sg228
I0
sg229
S'HB'
p4523
sbsS's12'
p4524
(ijoueur
joueur
p4525
(dp4526
g37
F9.5
sg38
I0
sg40
F3.0
sg41
g42
sg43
I0
sg80
I4
sg45
I0
sg47
g48
(g49
g50
Ntp4527
Rp4528
(dp4529
g54
I5
sg55
S'xx'
p4530
sg57
S'seigneur'
p4531
sbsg61
(dp4532
S'SR'
p4533
I0
sS'CT'
p4534
I0
sS'CR'
p4535
I0
sS'ST'
p4536
I0
ssg158
(dp4537
g4533
I0
sg4534
I0
sg4535
I3
sg4536
I0
ssg84
I0
sg70
I0
sg71
(dp4538
g622
I1
sg623
I1
sg624
g625
ssg77
I0
sg1380
I0
sg1381
I0
sg81
I0
sg82
I0
sg83
I0
sg152
(S'dummy'
p4539
S'TL'
p4540
S'DL'
p4541
S'N8'
p4542
tp4543
sg85
I01
sg86
F0.5
sg87
(dp4544
S'SR'
p4545
I0
sS'CT'
p4546
I14
sS'CR'
p4547
I0
sS'ST'
p4548
I0
ssg108
I00
sg95
(dp4549
g4545
I0
sg4546
I0
sg4547
I0
sg4548
I0
ssg97
(dp4550
g4533
I0
sg4534
I22
sg4535
I3
sg4536
I0
ssg99
I0
sg100
(lp4551
g632
aI01
aI01
aI01
asg103
I0
sg104
S'Zhdavr'
p4552
sg106
I8
sg107
I0
sg113
I24
sg109
I173
sg110
S'DKW'
p4553
sg114
(dp4554
S'A'
p4555
I11
sS'ME'
p4556
I11
sS'RP2'
p4557
I7
sS'E'
p4558
I9
sS'P'
p4559
I6
sS'RP1'
p4560
I11
sS'JP'
p4561
I4
sS'RP_tot'
p4562
I11
sS'TO'
p4563
I10
sS'PA'
p4564
I10
sS'M'
p4565
I13
sS'R'
p4566
I8
sS'TB'
p4567
I4
sS'PL'
p4568
I13
sS'TA'
p4569
I9
ssg133
g4528
sg137
I0
sg146
I0
sg147
I0
sg148
F14.0
sg149
I0
sg150
F10.35483870967742
sg151
I0
sg160
I0
sg1418
I0
sg93
(dp4570
g4545
I0
sg4546
I0
sg4547
I0
sg4548
I0
ssg162
(dp4571
S's11'
p4572
(ijoueur
joueur
p4573
(dp4574
g38
I0
sg43
I0
sg45
I0
sg47
g48
(g49
g50
Ntp4575
Rp4576
(dp4577
g54
I5
sg55
S'xx'
p4578
sg57
S'seigneur'
p4579
sbsg61
(dp4580
S'SR'
p4581
I0
sS'ST'
p4582
I0
sS'CR'
p4583
I0
sS'CT'
p4584
I0
ssg158
(dp4585
g4581
I0
sg4582
I0
sg4583
I3
sg4584
I0
ssg93
(dp4586
g4581
I0
sg4582
I0
sg4583
I0
sg4584
I0
ssg70
I0
sg77
I0
sg1380
I0
sg1381
I0
sg81
I0
sg82
I0
sg83
I0
sg152
(S'dummy'
p4587
S'TL'
p4588
S'DL'
p4589
S'N8'
p4590
tp4591
sg85
I00
sg133
g48
(g49
g50
Ntp4592
Rp4593
(dp4594
g54
I4
sg55
S'*'
p4595
sg57
S'heros'
p4596
sbsg87
(dp4597
g4581
I0
sg4582
I0
sg4583
I3
sg4584
I8
ssg108
I00
sg95
(dp4598
g4581
I0
sg4582
I0
sg4583
I3
sg4584
I0
ssg97
(dp4599
g4581
I0
sg4582
I0
sg4583
I3
sg4584
I8
ssg99
I0
sg103
I0
sg104
S'Zhdavr'
p4600
sg106
I8
sg107
I0
sg113
I24
sg109
I83
sg110
S'DKW'
p4601
sg114
(dp4602
S'A'
p4603
I10
sS'ME'
p4604
I9
sS'RP2'
p4605
I7
sS'E'
p4606
I9
sS'TO'
p4607
I10
sS'RP1'
p4608
I9
sS'JP'
p4609
I4
sS'RP_tot'
p4610
I9
sS'P'
p4611
I6
sS'PA'
p4612
I10
sS'M'
p4613
I10
sS'R'
p4614
I7
sS'TB'
p4615
I4
sS'PL'
p4616
I13
sS'TA'
p4617
I7
ssg137
I0
sg146
I0
sg147
I0
sg149
I0
sg150
F9.5
sg151
I0
sg1418
I0
sg161
I0
sg205
I0
sg325
(dp4618
S'A'
p4619
I10
sS'ME'
p4620
I9
sS'RP2'
p4621
I7
sS'E'
p4622
I9
sS'TO'
p4623
I10
sS'RP1'
p4624
I9
sS'JP'
p4625
I4
sS'RP_tot'
p4626
I9
sS'P'
p4627
I6
sS'PA'
p4628
I10
sS'M'
p4629
I10
sS'R'
p4630
I7
sS'TB'
p4631
I4
sS'PL'
p4632
I13
sS'TA'
p4633
I7
ssg131
g4602
sg222
I0
sg172
g42
sg223
I0
sg224
I0
sg225
I0
sg226
I9
sg227
I0
sg228
I0
sg229
S'HB'
p4634
sbssg205
I0
sg325
(dp4635
S'A'
p4636
I10
sS'ME'
p4637
I9
sS'RP2'
p4638
I7
sS'E'
p4639
I9
sS'P'
p4640
I6
sS'RP1'
p4641
I9
sS'JP'
p4642
I4
sS'RP_tot'
p4643
I9
sS'TO'
p4644
I10
sS'PA'
p4645
I10
sS'M'
p4646
I10
sS'R'
p4647
I7
sS'TB'
p4648
I4
sS'PL'
p4649
I13
sS'TA'
p4650
I7
ssg131
g4554
sg222
I0
sg172
g42
sg223
I0
sg224
I0
sg225
I0
sg226
I18
sg227
I0
sg161
I0
sg228
I0
sg229
S'HB'
p4651
sbsS's11'
p4652
(ijoueur
joueur
p4653
(dp4654
g38
I0
sg40
F4.0
sg43
I0
sg80
I2
sg45
I0
sg47
g48
(g49
g50
Ntp4655
Rp4656
(dp4657
g54
I5
sg55
S'xx'
p4658
sg57
S'seigneur'
p4659
sbsg61
(dp4660
S'SR'
p4661
I0
sS'ST'
p4662
I0
sS'CR'
p4663
I0
sS'CT'
p4664
I0
ssg158
(dp4665
g4661
I0
sg4662
I0
sg4663
I3
sg4664
I0
ssg84
I0
sg70
I0
sg71
(dp4666
g622
I1
sg623
I1
sg624
g625
ssg77
I0
sg1380
I0
sg1381
I0
sg81
I0
sg82
I0
sg83
I0
sg152
(S'dummy'
p4667
S'TL'
p4668
S'DL'
p4669
S'N8'
p4670
tp4671
sg85
I00
sg86
F11.0
sg87
(dp4672
g4661
I0
sg4662
I0
sg4663
I3
sg4664
I8
ssg108
I00
sg95
(dp4673
g4661
I0
sg4662
I0
sg4663
I3
sg4664
I0
ssg97
(dp4674
g4661
I0
sg4662
I0
sg4663
I3
sg4664
I8
ssg99
I0
sg100
(lp4675
g632
aI01
aI01
aI01
asg103
I0
sg104
S'Zhdavr'
p4676
sg106
I8
sg107
I0
sg113
I24
sg109
I83
sg110
S'DKW'
p4677
sg114
(dp4678
S'A'
p4679
I10
sS'ME'
p4680
I9
sS'RP2'
p4681
I7
sS'E'
p4682
I9
sS'TO'
p4683
I10
sS'RP1'
p4684
I9
sS'JP'
p4685
I4
sS'RP_tot'
p4686
I9
sS'P'
p4687
I6
sS'PA'
p4688
I10
sS'M'
p4689
I10
sS'R'
p4690
I7
sS'TB'
p4691
I4
sS'PL'
p4692
I13
sS'TA'
p4693
I7
ssg133
g48
(g49
g50
Ntp4694
Rp4695
(dp4696
g54
I4
sg55
S'*'
p4697
sg57
S'heros'
p4698
sbsg137
I0
sg146
I0
sg147
I0
sg148
F11.0
sg149
I0
sg150
F9.5
sg151
I0
sg160
I0
sg1418
I0
sg93
(dp4699
g4661
I0
sg4662
I0
sg4663
I0
sg4664
I0
ssg205
I0
sg325
(dp4700
S'A'
p4701
I10
sS'ME'
p4702
I9
sS'RP2'
p4703
I7
sS'E'
p4704
I9
sS'TO'
p4705
I10
sS'RP1'
p4706
I9
sS'JP'
p4707
I4
sS'RP_tot'
p4708
I9
sS'P'
p4709
I6
sS'PA'
p4710
I10
sS'M'
p4711
I10
sS'R'
p4712
I7
sS'TB'
p4713
I4
sS'PL'
p4714
I13
sS'TA'
p4715
I7
ssg131
g4678
sg222
I0
sg172
g42
sg223
I0
sg224
I0
sg225
I0
sg226
I9
sg227
I0
sg161
I0
sg228
I0
sg229
S'HB'
p4716
sbssg205
I0
sg325
(dp4717
S'A'
p4718
I10
sS'ME'
p4719
I9
sS'RP2'
p4720
I7
sS'E'
p4721
I9
sS'P'
p4722
I6
sS'RP1'
p4723
I9
sS'JP'
p4724
I4
sS'RP_tot'
p4725
I9
sS'TO'
p4726
I10
sS'PA'
p4727
I10
sS'M'
p4728
I10
sS'R'
p4729
I7
sS'TB'
p4730
I4
sS'PL'
p4731
I13
sS'TA'
p4732
I7
ssg222
I0
sg440
(dp4733
sg223
I0
sg172
g4514
sg224
I0
sg225
I0
sg226
I20
sg227
I3
sg228
I0
sg229
g4523
sbsS'n6'
p4734
(ijoueur
joueur
p4735
(dp4736
g38
I0
sg40
I0
sg146
I0
sg43
I0
sg80
I0
sg445
g42
sg45
I0
sg446
g42
sg47
g48
(g49
g50
Ntp4737
Rp4738
(dp4739
g54
I4
sg55
S'x'
p4740
sg57
g2488
sbsg61
(dp4741
g2490
I0
sg2491
I0
sg2492
I0
sg2493
I0
ssg158
(dp4742
g2490
I0
sg2491
I0
sg2492
I0
sg2493
I0
ssg172
g42
sg226
I4
sg71
(dp4743
g2496
I1
sg2497
g2498
sg2499
I0
ssg77
I0
sg78
I0
sg79
I01
sg44
I0
sg81
I0
sg82
I0
sg83
I0
sg110
g111
sg85
I00
sg133
g48
(g49
g50
Ntp4744
Rp4745
(dp4746
g54
I2
sg55
S'<<'
p4747
sg57
S'special'
p4748
sbsg87
(dp4749
g2490
I0
sg2491
I0
sg2492
I0
sg2493
I0
ssg108
I00
sg95
(dp4750
g2490
I0
sg2491
I0
sg2492
I0
sg2493
I0
ssg97
(dp4751
g2490
I0
sg2491
I0
sg2492
I0
sg2493
I0
ssg99
I0
sg100
(lp4752
g2509
aI01
aI01
aI00
asg86
I0
sg104
S'Vyolarden'
p4753
sg106
I14
sg107
I0
sg113
I28
sg109
I48
sg152
(g2509
S'TL'
p4754
S'N8'
p4755
g42
tp4756
sg112
I00
sg465
g42
sg228
I0
sg114
(dp4757
g2517
I8
sg2518
I8
sg2522
I6
sg2523
I10
sg2524
I8
sg2528
I8
sg2529
I4
sg2530
I8
sg2531
I5
sg2532
I8
sg2533
I10
sg2534
g6
(g140
S'\n\x00\x00\x00'
p4758
tp4759
Rp4760
sg2535
I4
sg2536
g6
(g140
S'\n\x00\x00\x00'
p4761
tp4762
Rp4763
sg2537
g6
(g140
S'\x05\x00\x00\x00'
p4764
tp4765
Rp4766
ssg162
(dp4767
sg137
I0
sg41
g42
sg147
I0
sg148
I0
sg150
F9.419354838709678
sg151
I0
sg160
I0
sg93
(dp4768
g2490
I0
sg2491
I0
sg2492
I0
sg2493
I0
ssg205
I0
sg131
(dp4769
g2517
I8
sg2518
I8
sg2522
I6
sg2523
I10
sg2531
I5
sg2529
I4
sg2528
I8
sg2530
I8
sg2524
I8
sg2532
I8
sg2533
I10
sg2534
g6
(g140
S'\n\x00\x00\x00'
p4770
tp4771
Rp4772
sg2535
I4
sg2536
g6
(g140
S'\n\x00\x00\x00'
p4773
tp4774
Rp4775
sg2537
g6
(g140
S'\x05\x00\x00\x00'
p4776
tp4777
Rp4778
ssg222
I0
sg223
I0
sg224
I0
sg225
I0
sg84
I0
sg227
I0
sg161
I0
sg103
I0
sg229
g2556
sbsS'n7'
p4779
(ijoueur
joueur
p4780
(dp4781
g37
F10.526315789473685
sg38
I0
sg39
F9.548387096774194
sg40
F6.0
sg41
g42
sg43
I0
sg44
F54.77477612623294
sg45
I0
sg46
I0
sg47
g48
(g49
g50
Ntp4782
Rp4783
(dp4784
g54
I5
sg55
S'xx'
p4785
sg57
S'seigneur'
p4786
sbsg59
(dp4787
sg61
(dp4788
S'SR'
p4789
I0
sS'ST'
p4790
I5
sS'CR'
p4791
I1
sS'CT'
p4792
I16
ssg67
F9.870967741935484
sg68
I0
sg69
I10
sg70
I0
sg71
(dp4793
g73
I3
sg74
I10
sg75
g76
ssg77
I0
sg1380
I0
sg1381
I0
sg79
I00
sg80
I3
sg81
I0
sg82
I0
sg83
I0
sg84
I1
sg85
I00
sg86
F10.5
sg87
(dp4794
g89
I0
sg90
I0
sg91
I3
sg92
I1
ssg93
(dp4795
g89
I0
sg90
I0
sg91
I0
sg92
I1
ssg95
(dp4796
g89
I0
sg90
I0
sg91
I0
sg92
I0
ssg97
(dp4797
g4789
I0
sg4790
I0
sg4791
I22
sg4792
I10
ssg99
I0
sg100
(lp4798
g102
aI01
aI01
aI00
asg103
I0
sg104
S'Huken'
p4799
sg106
I2
sg107
I0
sg108
I00
sg109
I277
sg110
g111
sg112
I00
sg113
I15
sg114
(dp4800
S'A'
p4801
I9
sS'ME'
p4802
I9
sS'RP2'
p4803
I7
sS'E'
p4804
I13
sS'P'
p4805
I5
sS'RP1'
p4806
I13
sS'JP'
p4807
I4
sS'RP_tot'
p4808
I13
sS'TO'
p4809
I9
sS'PA'
p4810
I8
sS'M'
p4811
I9
sS'R'
p4812
I8
sS'TB'
p4813
I5
sS'PL'
p4814
I14
sS'TA'
p4815
I7
ssg131
(dp4816
g4801
I9
sg4802
I9
sg4803
I7
sg4804
I13
sg4809
I9
sg4806
I13
sg4807
I4
sg4808
I13
sg4805
I5
sg4810
I8
sg4811
I9
sg4812
I8
sg4813
I5
sg4814
I14
sg4815
I7
ssg133
g48
(g49
g50
Ntp4817
Rp4818
(dp4819
g54
I5
sg55
S'xx'
p4820
sg57
g4786
sbsg137
g6
(g140
S'\x04\x00\x00\x00'
p4821
tp4822
Rp4823
sg146
I0
sg147
I0
sg148
I0
sg149
I0
sg150
F10.67741935483871
sg151
I0
sg152
(S'dummy'
p4824
S'TL'
p4825
S'DL'
p4826
g42
tp4827
sg158
(dp4828
g4789
I0
sg4790
I0
sg4791
I0
sg4792
I0
ssg78
F54.77477612623294
sg160
I4
sg1418
I0
sg161
I0
sg162
(dp4829
S's13'
p4830
(ijoueur
joueur
p4831
(dp4832
g38
I0
sg40
F6.0
sg146
I0
sg43
I0
sg80
I3
sg45
I0
sg47
g4783
sg61
(dp4833
g168
I0
sg169
I0
sg170
I0
sg171
I0
ssg158
g4828
sg172
S'KH 9;KAK 13'
p4834
sg71
(dp4835
g174
I1
sg175
I1
sg176
g177
ssg77
I0
sg81
I0
sg82
I0
sg83
I0
sg152
g4827
sg85
I00
sg133
g4818
sg86
F2.5
sg108
I00
sg95
(dp4836
g179
I0
sg180
I0
sg181
I0
sg182
I0
ssg97
g4797
sg99
I0
sg100
(lp4837
g184
aI01
aI01
aI00
asg87
(dp4838
g179
I0
sg180
I3
sg181
I11
sg182
I0
ssg110
g111
sg104
S'Huken (13)'
p4839
sg106
I2
sg107
I0
sg113
I15
sg109
I277
sg84
I0
sg114
(dp4840
g188
I0
sg189
I0
sg190
I0
sg191
I0
sg192
I0
sg193
I0
sg194
I0
sg195
I0
sg196
I0
sg197
I0
sg198
I0
sg199
I0
sg200
I0
sg201
I0
sg202
I0
ssg162
(dp4841
sg137
I0
sg41
g42
sg147
I0
sg148
F10.5
sg149
I0
sg150
F9.870967741935484
sg151
I0
sg160
I0
sg93
(dp4842
g179
I0
sg180
I2
sg181
I0
sg182
I0
ssg205
I0
sg131
(dp4843
g207
I9
sg208
I9
sg209
I7
sg210
I13
sg211
I5
sg212
I12
sg213
I4
sg214
I12
sg215
I9
sg216
I8
sg217
I9
sg218
I7
sg219
I5
sg220
I12
sg221
I7
ssg222
I0
sg223
I0
sg224
I0
sg225
I0
sg226
I8
sg227
I0
sg161
I0
sg103
I0
sg228
I0
sg229
S'N'
p4844
sbsS's12'
p4845
(ijoueur
joueur
p4846
(dp4847
g37
F10.526315789473685
sg38
I0
sg40
F8.5
sg41
g42
sg43
I0
sg80
I2
sg45
I0
sg47
g48
(g49
g50
Ntp4848
Rp4849
(dp4850
g54
I5
sg55
S'xx'
p4851
sg57
S'seigneur'
p4852
sbsg61
(dp4853
S'SR'
p4854
I0
sS'ST'
p4855
I5
sS'CR'
p4856
I1
sS'CT'
p4857
I13
ssg158
(dp4858
g4854
I0
sg4855
I0
sg4856
I0
sg4857
I0
ssg70
I0
sg71
(dp4859
g174
I1
sg175
I1
sg176
g177
ssg77
I0
sg1380
I0
sg1381
I0
sg81
I0
sg82
I0
sg83
I0
sg152
(S'dummy'
p4860
S'TL'
p4861
S'DL'
p4862
g42
tp4863
sg85
I01
sg86
F1.5
sg87
(dp4864
S'SR'
p4865
I0
sS'ST'
p4866
I0
sS'CR'
p4867
I8
sS'CT'
p4868
I6
ssg108
I00
sg95
(dp4869
g4865
I0
sg4866
I0
sg4867
I0
sg4868
I0
ssg97
(dp4870
g4854
I0
sg4855
I0
sg4856
I8
sg4857
I6
ssg99
I0
sg100
(lp4871
g184
aI01
aI01
aI00
asg103
I0
sg110
S'KAK'
p4872
sg104
S'Huken (12)'
p4873
sg106
I2
sg107
I0
sg113
I15
sg109
I168
sg84
I0
sg114
(dp4874
S'A'
p4875
I9
sS'ME'
p4876
I9
sS'RP2'
p4877
I7
sS'E'
p4878
I13
sS'TO'
p4879
I9
sS'RP1'
p4880
I11
sS'JP'
p4881
I4
sS'RP_tot'
p4882
I11
sS'P'
p4883
I5
sS'PA'
p4884
I8
sS'M'
p4885
I9
sS'R'
p4886
I7
sS'TB'
p4887
I5
sS'PL'
p4888
I11
sS'TA'
p4889
I7
ssg133
g48
(g49
g50
Ntp4890
Rp4891
(dp4892
g54
I5
sg55
S'xx'
p4893
sg57
g4852
sbsg137
I0
sg146
I0
sg147
I0
sg148
F10.0
sg149
I0
sg150
F9.548387096774194
sg151
I0
sg160
I0
sg1418
I0
sg93
(dp4894
g4865
I0
sg4866
I0
sg4867
I0
sg4868
I0
ssg162
(dp4895
S's11'
p4896
(ijoueur
joueur
p4897
(dp4898
g38
I0
sg43
I0
sg45
I0
sg47
g48
(g49
g50
Ntp4899
Rp4900
(dp4901
g54
I5
sg55
S'xx'
p4902
sg57
S'seigneur'
p4903
sbsg61
(dp4904
S'SR'
p4905
I0
sS'ST'
p4906
I5
sS'CR'
p4907
I1
sS'CT'
p4908
I13
ssg158
(dp4909
g4905
I0
sg4906
I0
sg4907
I0
sg4908
I0
ssg93
(dp4910
g4905
I0
sg4906
I5
sg4907
I1
sg4908
I13
ssg70
I0
sg77
I0
sg1380
I0
sg1381
I0
sg81
I1
sg82
I0
sg83
I0
sg152
(S'dummy'
p4911
S'TL'
p4912
S'DL'
p4913
g42
tp4914
sg85
I00
sg133
g48
(g49
g50
Ntp4915
Rp4916
(dp4917
g54
I5
sg55
S'xx'
p4918
sg57
g4903
sbsg87
(dp4919
g4905
I0
sg4906
I0
sg4907
I0
sg4908
I0
ssg108
I00
sg95
(dp4920
g4905
I0
sg4906
I0
sg4907
I0
sg4908
I0
ssg97
(dp4921
g4905
I0
sg4906
I0
sg4907
I0
sg4908
I0
ssg99
I0
sg103
I0
sg104
S'Huken'
p4922
sg106
I2
sg107
I0
sg113
I15
sg109
I168
sg110
S'KAK'
p4923
sg114
(dp4924
S'A'
p4925
I9
sS'ME'
p4926
I10
sS'RP2'
p4927
I7
sS'E'
p4928
I14
sS'TO'
p4929
I11
sS'RP1'
p4930
I12
sS'JP'
p4931
I4
sS'RP_tot'
p4932
I12
sS'P'
p4933
I5
sS'PA'
p4934
I8
sS'M'
p4935
I10
sS'R'
p4936
I8
sS'TB'
p4937
I5
sS'PL'
p4938
I12
sS'TA'
p4939
I7
ssg137
I0
sg146
I0
sg147
I0
sg149
I0
sg150
F10.526315789473685
sg151
I0
sg1418
I0
sg161
I0
sg205
I1
sg325
(dp4940
S'A'
p4941
I9
sS'ME'
p4942
I10
sS'RP2'
p4943
I7
sS'E'
p4944
I14
sS'TO'
p4945
I11
sS'RP1'
p4946
I12
sS'JP'
p4947
I4
sS'RP_tot'
p4948
I12
sS'P'
p4949
I5
sS'PA'
p4950
I8
sS'M'
p4951
I10
sS'R'
p4952
I8
sS'TB'
p4953
I5
sS'PL'
p4954
I12
sS'TA'
p4955
I7
ssg131
g4924
sg222
I0
sg172
S'KH 9'
p4956
sg223
I0
sg224
I0
sg225
I0
sg226
I18
sg227
I2
sg228
I1
sg229
S'N'
p4957
sbssg205
I1
sg325
(dp4958
S'A'
p4959
I9
sS'ME'
p4960
I10
sS'RP2'
p4961
I7
sS'E'
p4962
I14
sS'TO'
p4963
I11
sS'RP1'
p4964
I12
sS'JP'
p4965
I4
sS'RP_tot'
p4966
I12
sS'P'
p4967
I5
sS'PA'
p4968
I8
sS'M'
p4969
I10
sS'R'
p4970
I8
sS'TB'
p4971
I5
sS'PL'
p4972
I12
sS'TA'
p4973
I7
ssg131
g4874
sg222
I0
sg172
S'KH 9'
p4974
sg223
I0
sg224
I0
sg225
I0
sg226
I18
sg227
I2
sg161
I0
sg228
I0
sg229
S'N'
p4975
sbsS's11'
p4976
(ijoueur
joueur
p4977
(dp4978
g38
I0
sg40
F9.5
sg43
I0
sg80
I1
sg45
I0
sg47
g48
(g49
g50
Ntp4979
Rp4980
(dp4981
g54
I5
sg55
S'xx'
p4982
sg57
S'seigneur'
p4983
sbsg61
(dp4984
S'SR'
p4985
I0
sS'ST'
p4986
I5
sS'CR'
p4987
I1
sS'CT'
p4988
I13
ssg158
(dp4989
g4985
I0
sg4986
I0
sg4987
I0
sg4988
I0
ssg70
I0
sg71
(dp4990
g174
I1
sg175
I1
sg176
g177
ssg77
I0
sg1380
I0
sg1381
I0
sg81
I1
sg82
I0
sg83
I0
sg152
(S'dummy'
p4991
S'TL'
p4992
S'DL'
p4993
g42
tp4994
sg85
I00
sg86
F18.5
sg87
(dp4995
g4985
I0
sg4986
I0
sg4987
I0
sg4988
I0
ssg108
I00
sg95
(dp4996
g4985
I0
sg4986
I0
sg4987
I0
sg4988
I0
ssg97
(dp4997
g4985
I0
sg4986
I0
sg4987
I0
sg4988
I0
ssg99
I0
sg100
(lp4998
g184
aI01
aI01
aI00
asg103
I0
sg110
S'KAK'
p4999
sg104
S'Huken (11)'
p5000
sg106
I2
sg107
I0
sg113
I15
sg109
I168
sg84
I0
sg114
(dp5001
S'A'
p5002
I9
sS'ME'
p5003
I10
sS'RP2'
p5004
I7
sS'E'
p5005
I14
sS'TO'
p5006
I11
sS'RP1'
p5007
I12
sS'JP'
p5008
I4
sS'RP_tot'
p5009
I12
sS'P'
p5010
I5
sS'PA'
p5011
I8
sS'M'
p5012
I10
sS'R'
p5013
I8
sS'TB'
p5014
I5
sS'PL'
p5015
I12
sS'TA'
p5016
I7
ssg133
g48
(g49
g50
Ntp5017
Rp5018
(dp5019
g54
I5
sg55
S'xx'
p5020
sg57
g4983
sbsg137
I0
sg146
I0
sg147
I0
sg148
F18.5
sg149
I0
sg150
F10.526315789473685
sg151
I0
sg160
I0
sg1418
I0
sg93
(dp5021
g4985
I0
sg4986
I5
sg4987
I1
sg4988
I13
ssg205
I1
sg325
(dp5022
S'A'
p5023
I9
sS'ME'
p5024
I10
sS'RP2'
p5025
I7
sS'E'
p5026
I14
sS'TO'
p5027
I11
sS'RP1'
p5028
I12
sS'JP'
p5029
I4
sS'RP_tot'
p5030
I12
sS'P'
p5031
I5
sS'PA'
p5032
I8
sS'M'
p5033
I10
sS'R'
p5034
I8
sS'TB'
p5035
I5
sS'PL'
p5036
I12
sS'TA'
p5037
I7
ssg131
g5001
sg222
I0
sg172
S'KH 9'
p5038
sg223
I0
sg224
I0
sg225
I0
sg226
I18
sg227
I2
sg161
I0
sg228
I1
sg229
S'N'
p5039
sbssg205
I1
sg325
(dp5040
S'A'
p5041
I9
sS'ME'
p5042
I10
sS'RP2'
p5043
I7
sS'E'
p5044
I14
sS'TO'
p5045
I11
sS'RP1'
p5046
I12
sS'JP'
p5047
I4
sS'RP_tot'
p5048
I12
sS'P'
p5049
I5
sS'PA'
p5050
I8
sS'M'
p5051
I10
sS'R'
p5052
I8
sS'TB'
p5053
I5
sS'PL'
p5054
I12
sS'TA'
p5055
I7
ssg222
I0
sg440
(dp5056
sg223
I0
sg172
g4834
sg224
I0
sg225
I0
sg226
I8
sg227
I2
sg228
I0
sg229
g4844
sbssS'remplacements'
p5057
(dp5058
g3035
S'n0'
p5059
sg3223
g5059
sg3349
g5059
sg3350
g5059
sg3351
g5059
sg3409
g5059
sg3613
g5059
ssb.