(iclub
compo
p0
(dp1
S'caracs_old'
p2
(dp3
S'A'
p4
F122.5
sS'ME'
p5
F86.0
sS'E'
p6
I211
sS'OplusAV'
p7
F71.0
sS'TO_off'
p8
F71.0
sS'OplusAR'
p9
F73.0
sS'M'
p10
F48.0
sS'JP'
p11
F69.5
sS'OmoinsAR'
p12
F60.5
sS'PA'
p13
F73.0
sS'TO_def'
p14
F64.0
sS'OmoinsAV'
p15
F34.5
sS'R'
p16
F159.0
ssS'totaux_old'
p17
(dp18
S'T2'
p19
F132.5
sS'T3'
p20
F105.5
sS'T1'
p21
F156.25
ssS'roles'
p22
(dp23
S'drop1'
p24
(ijoueur
joueur
p25
(dp26
S'rouges_total'
p27
I0
sS'drops_total'
p28
I0
sS'blessure'
p29
I0
sS'RG_max'
p30
(ijoueur
rang
p31
(dp32
S'type_nb'
p33
I5
sS'rang'
p34
S'**'
p35
sS'type'
p36
S'seigneur'
p37
sbsS'MJ2_total'
p38
(dp39
S'SR'
p40
I0
sS'CT'
p41
I0
sS'CR'
p42
I0
sS'ST'
p43
I0
ssS'MJ3_total'
p44
(dp45
g40
I0
sg41
I0
sg42
I0
sg43
I0
ssS'drop_rates_total'
p46
I0
sS'drop_rates_saison'
p47
I0
sS'transformations'
p48
I0
sS'penalites'
p49
I0
sS'essais_saison'
p50
I0
sS'penalite_ratees_saison'
p51
I2
sS'transformations_saison'
p52
I0
sS'postes'
p53
(S'dummy'
p54
S'C1'
p55
S'DO'
p56
S''
p57
tp58
sS'RG'
p59
(ijoueur
rang
p60
(dp61
g33
I5
sg34
S'**'
p62
sg36
g37
sbsS'MJ1'
p63
(dp64
g40
I0
sg41
I0
sg42
I0
sg43
I0
ssS'MJ2'
p65
(dp66
g40
I0
sg41
I0
sg42
I0
sg43
I0
ssS'MJ3'
p67
(dp68
g40
I0
sg41
I0
sg42
I0
sg43
I0
ssS'MJ1_total'
p69
(dp70
g40
I0
sg41
I0
sg42
I0
sg43
I0
ssS'penalites_total'
p71
I0
sS'penalites_saison'
p72
I0
sS'nom'
p73
S'Dsess'
p74
sS'C'
p75
I7
sS'transformations_total'
p76
I0
sS'D'
p77
I18
sS'VAL'
p78
I90
sS'club'
p79
S'TLB'
p80
sS'caracs'
p81
(dp82
S'A'
p83
I10
sS'ME'
p84
I5
sS'RP2'
p85
I10
sS'E'
p86
I9
sS'P'
p87
I11
sS'RP1'
p88
I11
sS'JP'
p89
I10
sS'RP_tot'
p90
I14
sS'TO'
p91
I8
sS'PA'
p92
I12
sS'M'
p93
I10
sS'R'
p94
I7
sS'TB'
p95
I10
sS'PL'
p96
I12
sS'TA'
p97
I4
ssS'fatigue'
p98
I0
sS'drop_ratees_total'
p99
I0
sS'blessures_total'
p100
I0
sS'XP'
p101
I0
sS'EV'
p102
F10.866666666666667
sS'penalite_ratees_total'
p103
I2
sS'drops'
p104
I0
sS'blessures_saison'
p105
I0
sS'jaunes_total'
p106
I0
sS'caracs_sans_fatigue'
p107
g82
sS'rouges_saison'
p108
I0
sS'anciens_clubs'
p109
g57
sS'transformation_ratees_total'
p110
I0
sS'drops_saison'
p111
I0
sS'transformation_ratees_saison'
p112
I0
sS'MS'
p113
I9
sS'essais_total'
p114
I0
sS'jaunes_saison'
p115
I0
sS'ARM'
p116
S'S'
p117
sbsS'SA_scd'
p118
(ijoueur
joueur
p119
(dp120
g27
I0
sg28
I0
sg29
I0
sg30
(ijoueur
rang
p121
(dp122
g33
I1
sg34
S'^'
p123
sg36
S'base'
p124
sbsg38
(dp125
g40
I0
sg41
I0
sg42
I0
sg43
I0
ssg44
(dp126
g40
I0
sg41
I0
sg42
I0
sg43
I0
ssg46
I0
sg47
I0
sg48
I0
sg49
I0
sg50
I0
sg51
I0
sg52
I0
sg53
(g54
S'TL'
p127
g57
g57
tp128
sg59
(ijoueur
rang
p129
(dp130
g33
I1
sg34
g123
sg36
g124
sbsg63
(dp131
g40
I0
sg41
I0
sg42
I0
sg43
I0
ssg65
(dp132
g40
I0
sg41
I0
sg42
I0
sg43
I0
ssg67
(dp133
g40
I0
sg41
I0
sg42
I0
sg43
I0
ssg69
(dp134
g40
I0
sg41
I0
sg42
I0
sg43
I0
ssg71
I0
sg72
I0
sg73
S'Jerelt'
p135
sg75
I4
sg76
I0
sg77
I13
sg78
I6
sg79
g80
sg81
(dp136
g83
I7
sg84
I7
sg85
I6
sg86
I11
sg87
I6
sg88
I7
sg89
I5
sg90
I7
sg91
I9
sg92
I7
sg93
I8
sg94
I10
sg95
I4
sg96
I11
sg97
I3
ssg98
I0
sg99
I0
sg100
I0
sg101
I0
sg102
F9.225806451612904
sg103
I0
sg104
I0
sg105
I0
sg106
I0
sg107
g136
sg108
I0
sg109
g57
sg110
I0
sg111
I0
sg112
I0
sg113
I1
sg114
I0
sg115
I0
sg116
S'EMP'
p137
sbsS'RJL'
p138
g25
sS'cap'
p139
(ijoueur
joueur
p140
(dp141
g27
I0
sg28
I0
sg29
I0
sg30
(ijoueur
rang
p142
(dp143
g33
I5
sg34
S'**'
p144
sg36
g37
sbsg38
(dp145
g40
I0
sg41
I0
sg42
I0
sg43
I0
ssg44
(dp146
g40
I0
sg41
I0
sg42
I0
sg43
I0
ssg46
I0
sg47
I0
sg48
I0
sg49
I0
sg50
I0
sg51
I0
sg52
I0
sg53
(g54
S'AR'
p147
S'CE'
p148
S'AI'
p149
tp150
sg59
(ijoueur
rang
p151
(dp152
g33
I5
sg34
S'**'
p153
sg36
g37
sbsg63
(dp154
g40
I0
sg41
I0
sg42
I0
sg43
I0
ssg65
(dp155
g40
I0
sg41
I0
sg42
I0
sg43
I0
ssg67
(dp156
g40
I0
sg41
I0
sg42
I0
sg43
I0
ssg69
(dp157
g40
I0
sg41
I0
sg42
I0
sg43
I0
ssg71
I0
sg72
I0
sg73
S'Hrgoth'
p158
sg75
I7
sg76
I0
sg77
I17
sg78
I100
sg79
g80
sg81
(dp159
g83
I11
sg84
I4
sg85
I10
sg86
I13
sg87
I9
sg88
I9
sg89
I7
sg90
I12
sg91
I7
sg92
I10
sg93
I9
sg94
I10
sg95
I8
sg96
I13
sg97
I6
ssg98
I0
sg99
I0
sg100
I0
sg101
I0
sg102
F11.030303030303031
sg103
I0
sg104
I0
sg105
I0
sg106
I0
sg107
g159
sg108
I0
sg109
g57
sg110
I0
sg111
I0
sg112
I0
sg113
I10
sg114
I0
sg115
I0
sg116
S'HB'
p160
sbsS'B4'
p161
g25
sS'RJC'
p162
g25
sS'B1'
p163
g25
sS'B2'
p164
g25
sS'B3'
p165
g25
sS'SA_pcp2'
p166
(ijoueur
joueur
p167
(dp168
g27
I0
sg28
I0
sg29
I0
sg30
(ijoueur
rang
p169
(dp170
g33
I3
sg34
S'<<<'
p171
sg36
S'rare'
p172
sbsg38
(dp173
g40
I0
sg41
I0
sg42
I0
sg43
I0
ssg44
(dp174
g40
I0
sg41
I0
sg42
I0
sg43
I0
ssg46
I0
sg47
I0
sg48
I0
sg49
I0
sg50
I0
sg51
I0
sg52
I0
sg53
(g54
S'N8'
p175
S'DL'
p176
g57
tp177
sg59
(ijoueur
rang
p178
(dp179
g33
I3
sg34
S'<<<'
p180
sg36
g172
sbsg63
(dp181
g40
I0
sg41
I0
sg42
I0
sg43
I0
ssg65
(dp182
g40
I0
sg41
I0
sg42
I0
sg43
I0
ssg67
(dp183
g40
I0
sg41
I0
sg42
I0
sg43
I0
ssg69
(dp184
g40
I0
sg41
I0
sg42
I0
sg43
I0
ssg71
I0
sg72
I0
sg73
S'Imtorghf'
p185
sg75
I3
sg76
I0
sg77
I13
sg78
I100
sg79
g80
sg81
(dp186
g83
I7
sg84
I12
sg85
I7
sg86
I10
sg87
I1
sg88
I11
sg89
I0
sg90
I11
sg91
I9
sg92
I6
sg93
I12
sg94
I12
sg95
I0
sg96
I7
sg97
I7
ssg98
I0
sg99
I0
sg100
I0
sg101
I0
sg102
F9.96551724137931
sg103
I0
sg104
I0
sg105
I0
sg106
I0
sg107
g186
sg108
I0
sg109
g57
sg110
I0
sg111
I0
sg112
I0
sg113
I10
sg114
I0
sg115
I0
sg116
S'HB'
p187
sbsS'SA_pcp1'
p188
(ijoueur
joueur
p189
(dp190
g27
I0
sg28
I0
sg29
I0
sg30
(ijoueur
rang
p191
(dp192
g33
I2
sg34
S'^^'
p193
sg36
S'special'
p194
sbsg38
(dp195
g40
I0
sg41
I0
sg42
I0
sg43
I0
ssg44
(dp196
g40
I0
sg41
I0
sg42
I0
sg43
I0
ssg46
I0
sg47
I0
sg48
I0
sg49
I0
sg50
I0
sg51
I0
sg52
I0
sg53
(g54
S'N8'
p197
S'TL'
p198
g57
tp199
sg59
(ijoueur
rang
p200
(dp201
g33
I1
sg34
S'>'
p202
sg36
g124
sbsg63
(dp203
g40
I0
sg41
I0
sg42
I0
sg43
I0
ssg65
(dp204
g40
I0
sg41
I0
sg42
I0
sg43
I0
ssg67
(dp205
g40
I0
sg41
I0
sg42
I0
sg43
I0
ssg69
(dp206
g40
I0
sg41
I0
sg42
I0
sg43
I0
ssg71
I0
sg72
I0
sg73
S'Lyemaeth'
p207
sg75
I11
sg76
I0
sg77
I19
sg78
I10
sg79
g80
sg81
(dp208
g83
I10
sg84
I8
sg85
I6
sg86
I11
sg87
I6
sg88
I10
sg89
I4
sg90
I10
sg91
I10
sg92
I7
sg93
I7
sg94
I9
sg95
I4
sg96
I9
sg97
I3
ssg98
I0
sg99
I0
sg100
I0
sg101
I0
sg102
F9.444444444444445
sg103
I0
sg104
I0
sg105
I0
sg106
I0
sg107
g208
sg108
I0
sg109
g57
sg110
I0
sg111
I0
sg112
I0
sg113
I1
sg114
I0
sg115
I0
sg116
S'HE'
p209
sbsS'drop3'
p210
(ijoueur
joueur
p211
(dp212
g27
I0
sg28
I0
sg29
I0
sg30
(ijoueur
rang
p213
(dp214
g33
I1
sg34
g202
sg36
g124
sbsg38
(dp215
g40
I0
sg41
I0
sg42
I0
sg43
I0
ssg44
(dp216
g40
I0
sg41
I0
sg42
I0
sg43
I0
ssg46
I0
sg47
I0
sg48
I0
sg49
I0
sg50
I0
sg51
I0
sg52
I0
sg53
(g54
S'C1'
p217
S'DO'
p218
g57
tp219
sg59
(ijoueur
rang
p220
(dp221
g33
I1
sg34
g202
sg36
g124
sbsg63
(dp222
g40
I0
sg41
I0
sg42
I0
sg43
I0
ssg65
(dp223
g40
I0
sg41
I0
sg42
I0
sg43
I0
ssg67
(dp224
g40
I0
sg41
I0
sg42
I0
sg43
I0
ssg69
(dp225
g40
I0
sg41
I0
sg42
I0
sg43
I0
ssg71
I0
sg72
I0
sg73
S'Aaron'
p226
sg75
I7
sg76
I0
sg77
I19
sg78
I5
sg79
g80
sg81
(dp227
g83
I10
sg84
I2
sg85
I10
sg86
I8
sg87
I8
sg88
I8
sg89
I9
sg90
I11
sg91
I3
sg92
I8
sg93
I9
sg94
I8
sg95
I8
sg96
I7
sg97
I5
ssg98
I0
sg99
I0
sg100
I0
sg101
I0
sg102
F8.666666666666666
sg103
I0
sg104
I0
sg105
I0
sg106
I0
sg107
g227
sg108
I0
sg109
g57
sg110
I0
sg111
I0
sg112
I0
sg113
I1
sg114
I0
sg115
I0
sg116
S'EMP'
p228
sbsS'SA_remp1'
p229
(ijoueur
joueur
p230
(dp231
g27
I0
sg28
I0
sg29
I0
sg30
(ijoueur
rang
p232
(dp233
g33
I2
sg34
S'^^'
p234
sg36
g194
sbsg38
(dp235
g40
I0
sg41
I0
sg42
I0
sg43
I0
ssg44
(dp236
g40
I0
sg41
I0
sg42
I0
sg43
I0
ssg46
I0
sg47
I0
sg48
I0
sg49
I0
sg50
I0
sg51
I0
sg52
I0
sg53
(g54
S'DL'
p237
g57
g57
tp238
sg59
(ijoueur
rang
p239
(dp240
g33
I2
sg34
S'^^'
p241
sg36
g194
sbsg63
(dp242
g40
I0
sg41
I0
sg42
I0
sg43
I0
ssg65
(dp243
g40
I0
sg41
I0
sg42
I0
sg43
I0
ssg67
(dp244
g40
I0
sg41
I0
sg42
I0
sg43
I0
ssg69
(dp245
g40
I0
sg41
I0
sg42
I0
sg43
I0
ssg71
I0
sg72
I0
sg73
S'Patrick'
p246
sg75
I11
sg76
I0
sg77
I23
sg78
I10
sg79
g80
sg81
(dp247
g83
I7
sg84
I8
sg85
I6
sg86
I12
sg87
I6
sg88
I10
sg89
I1
sg90
I10
sg91
I9
sg92
I7
sg93
I7
sg94
I6
sg95
I2
sg96
I9
sg97
I3
ssg98
I0
sg99
I0
sg100
I0
sg101
I0
sg102
F8.5
sg103
I0
sg104
I0
sg105
I0
sg106
I0
sg107
g247
sg108
I0
sg109
g57
sg110
I0
sg111
I0
sg112
I0
sg113
I1
sg114
I0
sg115
I0
sg116
S'EMP'
p248
sbsS'drop2'
p249
g25
sS'SA_remp2'
p250
(ijoueur
joueur
p251
(dp252
g27
I0
sg28
I0
sg29
I0
sg30
(ijoueur
rang
p253
(dp254
g33
I2
sg34
S'^^'
p255
sg36
g194
sbsg38
(dp256
g40
I0
sg41
I0
sg42
I0
sg43
I0
ssg44
(dp257
g40
I0
sg41
I0
sg42
I0
sg43
I0
ssg46
I0
sg47
I0
sg48
I0
sg49
I0
sg50
I0
sg51
I0
sg52
I0
sg53
(g54
S'TL'
p258
g57
g57
tp259
sg59
(ijoueur
rang
p260
(dp261
g33
I2
sg34
S'^^'
p262
sg36
g194
sbsg63
(dp263
g40
I0
sg41
I0
sg42
I0
sg43
I0
ssg65
(dp264
g40
I0
sg41
I0
sg42
I0
sg43
I0
ssg67
(dp265
g40
I0
sg41
I0
sg42
I0
sg43
I0
ssg69
(dp266
g40
I0
sg41
I0
sg42
I0
sg43
I0
ssg71
I0
sg72
I0
sg73
S'Kerfuen'
p267
sg75
I11
sg76
I0
sg77
I19
sg78
I8
sg79
g80
sg81
(dp268
g83
I7
sg84
I8
sg85
I7
sg86
I8
sg87
I5
sg88
I8
sg89
I5
sg90
I8
sg91
I8
sg92
I6
sg93
I9
sg94
I9
sg95
I3
sg96
I10
sg97
I3
ssg98
I0
sg99
I0
sg100
I0
sg101
I0
sg102
F8.580645161290322
sg103
I0
sg104
I0
sg105
I0
sg106
I0
sg107
g268
sg108
I0
sg109
g57
sg110
I0
sg111
I0
sg112
I0
sg113
I1
sg114
I0
sg115
I0
sg116
S'HB'
p269
sbssS'totaux'
p270
(dp271
g19
I0
sg20
I0
sg21
I0
ssS'_compo_defaut_fatigue'
p272
Nsg81
(dp273
g4
I0
sg5
I0
sg6
I0
sg7
I0
sg8
I0
sg9
I0
sg10
I0
sg11
I0
sg12
I0
sg13
I0
sg14
I0
sg15
I0
sg16
I0
ssS'joueurs'
p274
(dp275
S'n12'
p276
g25
sS'n13'
p277
(ijoueur
joueur
p278
(dp279
g27
I0
sg28
I0
sg29
I0
sg30
(ijoueur
rang
p280
(dp281
g33
I5
sg34
S'**'
p282
sg36
g37
sbsg38
(dp283
g40
I0
sg41
I0
sg42
I0
sg43
I0
ssg44
(dp284
g40
I0
sg41
I0
sg42
I0
sg43
I0
ssg46
I0
sg47
I0
sg48
I0
sg49
I0
sg50
I0
sg51
I0
sg52
I0
sg53
(g54
S'C2'
p285
S'AI'
p286
g57
tp287
sg59
(ijoueur
rang
p288
(dp289
g33
I5
sg34
S'**'
p290
sg36
g37
sbsg63
(dp291
g40
I0
sg41
I0
sg42
I0
sg43
I0
ssg65
(dp292
g40
I0
sg41
I0
sg42
I0
sg43
I0
ssg67
(dp293
g40
I0
sg41
I0
sg42
I0
sg43
I0
ssg69
(dp294
g40
I0
sg41
I0
sg42
I0
sg43
I0
ssg71
I0
sg72
I0
sg73
S'Zryvagh'
p295
sg75
I11
sg76
I0
sg77
I21
sg78
I10
sg79
g80
sg81
(dp296
g83
I10
sg84
I5
sg85
I7
sg86
I11
sg87
I9
sg88
I11
sg89
I6
sg90
I11
sg91
I5
sg92
I10
sg93
I8
sg94
I8
sg95
I8
sg96
I11
sg97
I5
ssg98
I0
sg99
I0
sg100
I0
sg101
I0
sg102
F9.96551724137931
sg103
I0
sg104
I0
sg105
I0
sg106
I0
sg107
g296
sg108
I0
sg109
g57
sg110
I0
sg111
I0
sg112
I0
sg113
I10
sg114
I0
sg115
I0
sg116
S'HB'
p297
sbsS'n10'
p298
(ijoueur
joueur
p299
(dp300
g27
I0
sg28
I1
sg29
I0
sg30
(ijoueur
rang
p301
(dp302
g33
I2
sg34
S'<<'
p303
sg36
g194
sbsg38
(dp304
g40
I0
sg41
I0
sg42
I0
sg43
I0
ssg44
(dp305
g40
I0
sg41
I0
sg42
I0
sg43
I0
ssg46
I0
sg47
I0
sg48
I0
sg49
I0
sg50
I0
sg51
I0
sg52
I0
sg53
(g54
S'DO'
p306
S'AR'
p307
g57
tp308
sg59
(ijoueur
rang
p309
(dp310
g33
I2
sg34
S'<<'
p311
sg36
g194
sbsg63
(dp312
g40
I0
sg41
I0
sg42
I0
sg43
I0
ssg65
(dp313
g40
I0
sg41
I0
sg42
I0
sg43
I0
ssg67
(dp314
g40
I0
sg41
I0
sg42
I0
sg43
I0
ssg69
(dp315
g40
I0
sg41
I0
sg42
I0
sg43
I0
ssg71
I0
sg72
I0
sg73
S'Von Duek'
p316
sg75
I10
sg76
I0
sg77
I17
sg78
I26
sg79
g80
sg81
(dp317
g83
I8
sg84
I4
sg85
I7
sg86
I9
sg87
I9
sg88
I6
sg89
I9
sg90
I7
sg91
I3
sg92
I8
sg93
I11
sg94
I7
sg95
I8
sg96
I11
sg97
I5
ssg98
I0
sg99
I0
sg100
I0
sg101
I0
sg102
F8.93939393939394
sg103
I0
sg104
I1
sg105
I0
sg106
I0
sg107
g317
sg108
I0
sg109
g57
sg110
I0
sg111
I1
sg112
I0
sg113
I3
sg114
I0
sg115
I0
sg116
S'EMP'
p318
sbsS'n11'
p319
(ijoueur
joueur
p320
(dp321
g27
I0
sg28
I0
sg29
I0
sg30
(ijoueur
rang
p322
(dp323
g33
I5
sg34
S'**'
p324
sg36
g37
sbsg38
(dp325
g40
I0
sg41
I0
sg42
I0
sg43
I0
ssg44
(dp326
g40
I0
sg41
I0
sg42
I0
sg43
I0
ssg46
I0
sg47
I0
sg48
I0
sg49
I0
sg50
I0
sg51
I0
sg52
I0
sg53
(g54
S'AI'
p327
g57
g57
tp328
sg59
(ijoueur
rang
p329
(dp330
g33
I5
sg34
S'**'
p331
sg36
g37
sbsg63
(dp332
g40
I0
sg41
I0
sg42
I0
sg43
I0
ssg65
(dp333
g40
I0
sg41
I0
sg42
I0
sg43
I0
ssg67
(dp334
g40
I0
sg41
I0
sg42
I0
sg43
I0
ssg69
(dp335
g40
I0
sg41
I0
sg42
I0
sg43
I0
ssg71
I0
sg72
I0
sg73
S'Namytrgh'
p336
sg75
I10
sg76
I0
sg77
I22
sg78
I100
sg79
g80
sg81
(dp337
g83
I12
sg84
I4
sg85
I8
sg86
I11
sg87
I8
sg88
I13
sg89
I6
sg90
I14
sg91
I9
sg92
I9
sg93
I9
sg94
I4
sg95
I6
sg96
I10
sg97
I3
ssg98
I0
sg99
I0
sg100
I0
sg101
I0
sg102
F10.64516129032258
sg103
I0
sg104
I0
sg105
I0
sg106
I0
sg107
g337
sg108
I0
sg109
g57
sg110
I0
sg111
I0
sg112
I0
sg113
I10
sg114
I0
sg115
I0
sg116
S'HB'
p338
sbsS'n16'
p339
(ijoueur
joueur
p340
(dp341
g27
I0
sg28
I0
sg29
I0
sg30
(ijoueur
rang
p342
(dp343
g33
I3
sg34
S'<<<'
p344
sg36
g172
sbsg38
(dp345
g40
I0
sg41
I0
sg42
I0
sg43
I0
ssg44
(dp346
g40
I0
sg41
I0
sg42
I0
sg43
I0
ssg46
I0
sg47
I0
sg48
I0
sg49
I0
sg50
I0
sg51
I0
sg52
I0
sg53
(g54
S'PI'
p347
S'TA'
p348
g57
tp349
sg59
(ijoueur
rang
p350
(dp351
g33
I3
sg34
S'<<<'
p352
sg36
g172
sbsg63
(dp353
g40
I0
sg41
I0
sg42
I0
sg43
I0
ssg65
(dp354
g40
I0
sg41
I0
sg42
I0
sg43
I0
ssg67
(dp355
g40
I0
sg41
I0
sg42
I0
sg43
I0
ssg69
(dp356
g40
I0
sg41
I0
sg42
I0
sg43
I0
ssg71
I0
sg72
I0
sg73
S'Ibolet'
p357
sg75
I11
sg76
I0
sg77
I18
sg78
I75
sg79
g80
sg81
(dp358
g83
I6
sg84
I9
sg85
I9
sg86
I10
sg87
I0
sg88
I11
sg89
I0
sg90
I13
sg91
I2
sg92
I5
sg93
I9
sg94
I9
sg95
I0
sg96
I6
sg97
I9
ssg98
I0
sg99
I0
sg100
I0
sg101
I0
sg102
F8.931034482758621
sg103
I0
sg104
I0
sg105
I0
sg106
I0
sg107
g358
sg108
I0
sg109
g57
sg110
I0
sg111
I0
sg112
I0
sg113
I8
sg114
I0
sg115
I0
sg116
S'OG'
p359
sbsS'n17'
p360
(ijoueur
joueur
p361
(dp362
g27
I0
sg28
I0
sg29
I0
sg30
(ijoueur
rang
p363
(dp364
g33
I1
sg34
g123
sg36
g124
sbsg38
(dp365
g40
I0
sg41
I0
sg42
I0
sg43
I0
ssg44
(dp366
g40
I0
sg41
I0
sg42
I0
sg43
I0
ssg46
I0
sg47
I0
sg48
I0
sg49
I0
sg50
I0
sg51
I0
sg52
I0
sg53
(g54
S'TA'
p367
S'PI'
p368
g57
tp369
sg59
(ijoueur
rang
p370
(dp371
g33
I1
sg34
g123
sg36
g124
sbsg63
(dp372
g40
I0
sg41
I0
sg42
I0
sg43
I0
ssg65
(dp373
g40
I0
sg41
I0
sg42
I0
sg43
I0
ssg67
(dp374
g40
I0
sg41
I0
sg42
I0
sg43
I0
ssg69
(dp375
g40
I0
sg41
I0
sg42
I0
sg43
I0
ssg71
I0
sg72
I0
sg73
S'Erkyel'
p376
sg75
I7
sg76
I0
sg77
I21
sg78
I6
sg79
g80
sg81
(dp377
g83
I6
sg84
I11
sg85
I6
sg86
I11
sg87
I6
sg88
I8
sg89
I2
sg90
I8
sg91
I4
sg92
I6
sg93
I7
sg94
I9
sg95
I2
sg96
I7
sg97
I9
ssg98
I0
sg99
I0
sg100
I0
sg101
I0
sg102
F8.689655172413794
sg103
I0
sg104
I0
sg105
I0
sg106
I0
sg107
g377
sg108
I0
sg109
g57
sg110
I0
sg111
I0
sg112
I0
sg113
I1
sg114
I0
sg115
I0
sg116
S'HB'
p378
sbsS'n14'
p379
(ijoueur
joueur
p380
(dp381
g27
I0
sg28
I0
sg29
I0
sg30
(ijoueur
rang
p382
(dp383
g33
I2
sg34
S'<<'
p384
sg36
g194
sbsg38
(dp385
g40
I0
sg41
I0
sg42
I0
sg43
I0
ssg44
(dp386
g40
I0
sg41
I0
sg42
I0
sg43
I0
ssg46
I0
sg47
I0
sg48
I0
sg49
I0
sg50
I0
sg51
I0
sg52
I0
sg53
(g54
S'AI'
p387
g57
g57
tp388
sg59
(ijoueur
rang
p389
(dp390
g33
I2
sg34
S'<<'
p391
sg36
g194
sbsg63
(dp392
g40
I0
sg41
I0
sg42
I0
sg43
I0
ssg65
(dp393
g40
I0
sg41
I0
sg42
I0
sg43
I0
ssg67
(dp394
g40
I0
sg41
I0
sg42
I0
sg43
I0
ssg69
(dp395
g40
I0
sg41
I0
sg42
I0
sg43
I0
ssg71
I0
sg72
I0
sg73
S'Quertil'
p396
sg75
I2
sg76
I0
sg77
I15
sg78
I26
sg79
g80
sg81
(dp397
g83
I11
sg84
I4
sg85
I9
sg86
I9
sg87
I8
sg88
I5
sg89
I5
sg90
I9
sg91
I5
sg92
I7
sg93
I13
sg94
I8
sg95
I6
sg96
I8
sg97
I3
ssg98
I0
sg99
I0
sg100
I0
sg101
I0
sg102
F9.516129032258064
sg103
I0
sg104
I0
sg105
I0
sg106
I0
sg107
g397
sg108
I0
sg109
g57
sg110
I0
sg111
I0
sg112
I0
sg113
I3
sg114
I0
sg115
I0
sg116
S'EMP'
p398
sbsS'n15'
p399
g140
sS'n18'
p400
g230
sS'n19'
p401
g251
sS'n22'
p402
(ijoueur
joueur
p403
(dp404
g27
I0
sg28
I0
sg29
I0
sg30
(ijoueur
rang
p405
(dp406
g33
I4
sg34
S'*'
p407
sg36
S'heros'
p408
sbsg38
(dp409
g40
I0
sg41
I0
sg42
I0
sg43
I0
ssg44
(dp410
g40
I0
sg41
I0
sg42
I0
sg43
I0
ssg46
I0
sg47
I0
sg48
I0
sg49
I0
sg50
I0
sg51
I0
sg52
I0
sg53
(g54
S'AR'
p411
S'AI'
p412
g57
tp413
sg59
(ijoueur
rang
p414
(dp415
g33
I2
sg34
S'^^'
p416
sg36
g194
sbsg63
(dp417
g40
I0
sg41
I0
sg42
I0
sg43
I0
ssg65
(dp418
g40
I0
sg41
I0
sg42
I0
sg43
I0
ssg67
(dp419
g40
I0
sg41
I0
sg42
I0
sg43
I0
ssg69
(dp420
g40
I0
sg41
I0
sg42
I0
sg43
I0
ssg71
I0
sg72
I0
sg73
S'Hepryz'
p421
sg75
I11
sg76
I0
sg77
I23
sg78
I8
sg79
g80
sg81
(dp422
g83
I7
sg84
I2
sg85
I9
sg86
I10
sg87
I7
sg88
I6
sg89
I7
sg90
I9
sg91
I5
sg92
I6
sg93
I11
sg94
I8
sg95
I7
sg96
I7
sg97
I5
ssg98
I0
sg99
I0
sg100
I0
sg101
I0
sg102
F8.090909090909092
sg103
I0
sg104
I0
sg105
I0
sg106
I0
sg107
g422
sg108
I0
sg109
g57
sg110
I0
sg111
I0
sg112
I0
sg113
I1
sg114
I0
sg115
I0
sg116
S'HB'
p423
sbsS'n21'
p424
(ijoueur
joueur
p425
(dp426
g27
I0
sg28
I0
sg29
I0
sg30
(ijoueur
rang
p427
(dp428
g33
I2
sg34
S'^^'
p429
sg36
g194
sbsg38
(dp430
g40
I0
sg41
I0
sg42
I0
sg43
I0
ssg44
(dp431
g40
I0
sg41
I0
sg42
I0
sg43
I0
ssg46
I0
sg47
I0
sg48
I0
sg49
I0
sg50
I0
sg51
I0
sg52
I0
sg53
(g54
S'C2'
p432
S'AI'
p433
g57
tp434
sg59
(ijoueur
rang
p435
(dp436
g33
I2
sg34
S'^^'
p437
sg36
g194
sbsg63
(dp438
g40
I0
sg41
I0
sg42
I0
sg43
I0
ssg65
(dp439
g40
I0
sg41
I0
sg42
I0
sg43
I0
ssg67
(dp440
g40
I0
sg41
I0
sg42
I0
sg43
I0
ssg69
(dp441
g40
I0
sg41
I0
sg42
I0
sg43
I0
ssg71
I0
sg72
I0
sg73
S'Pretendt'
p442
sg75
I9
sg76
I0
sg77
I21
sg78
I10
sg79
g80
sg81
(dp443
g83
I7
sg84
I4
sg85
I10
sg86
I9
sg87
I7
sg88
I7
sg89
I5
sg90
I10
sg91
I3
sg92
I8
sg93
I8
sg94
I10
sg95
I6
sg96
I8
sg97
I5
ssg98
I0
sg99
I0
sg100
I0
sg101
I0
sg102
F8.344827586206897
sg103
I0
sg104
I0
sg105
I0
sg106
I0
sg107
g443
sg108
I0
sg109
g57
sg110
I0
sg111
I0
sg112
I0
sg113
I1
sg114
I0
sg115
I0
sg116
S'EMP'
p444
sbsS'n20'
p445
g211
sS'n8'
p446
(ijoueur
joueur
p447
(dp448
g27
I0
sg28
I0
sg29
I0
sg30
(ijoueur
rang
p449
(dp450
g33
I4
sg34
g407
sg36
g408
sbsg38
(dp451
g40
I0
sg41
I0
sg42
I0
sg43
I0
ssg44
(dp452
g40
I0
sg41
I0
sg42
I0
sg43
I0
ssg46
I0
sg47
I0
sg48
I0
sg49
I0
sg50
I0
sg51
I0
sg52
I0
sg53
(g54
S'PI'
p453
S'N8'
p454
g57
tp455
sg59
(ijoueur
rang
p456
(dp457
g33
I4
sg34
g407
sg36
g408
sbsg63
(dp458
g40
I0
sg41
I0
sg42
I0
sg43
I0
ssg65
(dp459
g40
I0
sg41
I0
sg42
I0
sg43
I0
ssg67
(dp460
g40
I0
sg41
I0
sg42
I0
sg43
I0
ssg69
(dp461
g40
I0
sg41
I0
sg42
I0
sg43
I0
ssg71
I0
sg72
I0
sg73
S'Sentherd'
p462
sg75
I1
sg76
I0
sg77
I11
sg78
I35
sg79
g80
sg81
(dp463
g83
I9
sg84
I7
sg85
I8
sg86
I10
sg87
I6
sg88
I10
sg89
I5
sg90
I11
sg91
I8
sg92
I8
sg93
I7
sg94
I10
sg95
I4
sg96
I8
sg97
I7
ssg98
I0
sg99
I0
sg100
I0
sg101
I0
sg102
F9.037037037037036
sg103
I0
sg104
I0
sg105
I0
sg106
I0
sg107
g463
sg108
I0
sg109
g57
sg110
I0
sg111
I0
sg112
I0
sg113
I5
sg114
I0
sg115
I0
sg116
S'EMP'
p464
sbsS'n9'
p465
(ijoueur
joueur
p466
(dp467
g27
I0
sg28
I0
sg29
I0
sg30
(ijoueur
rang
p468
(dp469
g33
I2
sg34
S'^^'
p470
sg36
g194
sbsg38
(dp471
g40
I0
sg41
I0
sg42
I0
sg43
I0
ssg44
(dp472
g40
I0
sg41
I0
sg42
I0
sg43
I0
ssg46
I0
sg47
I0
sg48
I0
sg49
I0
sg50
I0
sg51
I0
sg52
I0
sg53
(g54
S'DM'
p473
g57
g57
tp474
sg59
(ijoueur
rang
p475
(dp476
g33
I2
sg34
S'^^'
p477
sg36
g194
sbsg63
(dp478
g40
I0
sg41
I0
sg42
I0
sg43
I0
ssg65
(dp479
g40
I0
sg41
I0
sg42
I0
sg43
I0
ssg67
(dp480
g40
I0
sg41
I0
sg42
I0
sg43
I0
ssg69
(dp481
g40
I0
sg41
I0
sg42
I0
sg43
I0
ssg71
I0
sg72
I0
sg73
S'Xyter'
p482
sg75
I8
sg76
I0
sg77
I17
sg78
I10
sg79
g80
sg81
(dp483
g83
I7
sg84
I5
sg85
I7
sg86
I11
sg87
I8
sg88
I7
sg89
I7
sg90
I7
sg91
I1
sg92
I9
sg93
I7
sg94
I6
sg95
I7
sg96
I7
sg97
I1
ssg98
I0
sg99
I0
sg100
I0
sg101
I0
sg102
F8.03448275862069
sg103
I0
sg104
I0
sg105
I0
sg106
I0
sg107
g483
sg108
I0
sg109
g57
sg110
I0
sg111
I0
sg112
I0
sg113
I1
sg114
I0
sg115
I0
sg116
S'EMP'
p484
sbsS'n1'
p485
(ijoueur
joueur
p486
(dp487
g27
I0
sg28
I0
sg29
I0
sg30
(ijoueur
rang
p488
(dp489
g33
I4
sg34
g407
sg36
g408
sbsg38
(dp490
g40
I0
sg41
I0
sg42
I0
sg43
I0
ssg44
(dp491
g40
I0
sg41
I0
sg42
I0
sg43
I0
ssg46
I0
sg47
I0
sg48
I0
sg49
I0
sg50
I0
sg51
I0
sg52
I0
sg53
(g54
S'PI'
p492
S'TA'
p493
g57
tp494
sg59
(ijoueur
rang
p495
(dp496
g33
I3
sg34
S'^^^'
p497
sg36
g172
sbsg63
(dp498
g40
I0
sg41
I0
sg42
I0
sg43
I0
ssg65
(dp499
g40
I0
sg41
I0
sg42
I0
sg43
I0
ssg67
(dp500
g40
I0
sg41
I0
sg42
I0
sg43
I0
ssg69
(dp501
g40
I0
sg41
I0
sg42
I0
sg43
I0
ssg71
I0
sg72
I0
sg73
S'Qamr'
p502
sg75
I11
sg76
I0
sg77
I21
sg78
I45
sg79
g80
sg81
(dp503
g83
I7
sg84
I10
sg85
I7
sg86
I11
sg87
I3
sg88
I11
sg89
I3
sg90
I11
sg91
I6
sg92
I9
sg93
I9
sg94
I8
sg95
I2
sg96
I7
sg97
I9
ssg98
I0
sg99
I0
sg100
I0
sg101
I0
sg102
F9.11111111111111
sg103
I0
sg104
I0
sg105
I0
sg106
I0
sg107
g503
sg108
I0
sg109
g57
sg110
I0
sg111
I0
sg112
I0
sg113
I5
sg114
I0
sg115
I0
sg116
S'HB'
p504
sbsS'n2'
p505
(ijoueur
joueur
p506
(dp507
g27
I0
sg28
I0
sg29
I0
sg30
(ijoueur
rang
p508
(dp509
g33
I5
sg34
S'**'
p510
sg36
g37
sbsg38
(dp511
g40
I0
sg41
I0
sg42
I0
sg43
I0
ssg44
(dp512
g40
I0
sg41
I0
sg42
I0
sg43
I0
ssg46
I0
sg47
I0
sg48
I0
sg49
I0
sg50
I0
sg51
I0
sg52
I0
sg53
(g54
S'TA'
p513
g57
g57
tp514
sg59
(ijoueur
rang
p515
(dp516
g33
I5
sg34
S'**'
p517
sg36
g37
sbsg63
(dp518
g40
I0
sg41
I0
sg42
I0
sg43
I0
ssg65
(dp519
g40
I0
sg41
I0
sg42
I0
sg43
I0
ssg67
(dp520
g40
I0
sg41
I0
sg42
I0
sg43
I0
ssg69
(dp521
g40
I0
sg41
I0
sg42
I0
sg43
I0
ssg71
I0
sg72
I0
sg73
S"Dad'Rey"
p522
sg75
I4
sg76
I0
sg77
I22
sg78
I200
sg79
g80
sg81
(dp523
g83
I7
sg84
I8
sg85
I7
sg86
I11
sg87
I2
sg88
I12
sg89
I3
sg90
I12
sg91
I6
sg92
I6
sg93
I9
sg94
I9
sg95
I5
sg96
I9
sg97
I10
ssg98
I0
sg99
I0
sg100
I0
sg101
I0
sg102
F9.482758620689655
sg103
I0
sg104
I0
sg105
I0
sg106
I0
sg107
g523
sg108
I0
sg109
g57
sg110
I0
sg111
I0
sg112
I0
sg113
I20
sg114
I0
sg115
I0
sg116
S'HL'
p524
sbsS'n3'
p525
(ijoueur
joueur
p526
(dp527
g27
I0
sg28
I0
sg29
I0
sg30
(ijoueur
rang
p528
(dp529
g33
I5
sg34
S'xx'
p530
sg36
g37
sbsg38
(dp531
g40
I0
sg41
I0
sg42
I0
sg43
I0
ssg44
(dp532
g40
I0
sg41
I0
sg42
I0
sg43
I0
ssg46
I0
sg47
I0
sg48
I0
sg49
I0
sg50
I0
sg51
I0
sg52
I0
sg53
(g54
S'TA'
p533
S'PI'
p534
g57
tp535
sg59
(ijoueur
rang
p536
(dp537
g33
I5
sg34
S'xx'
p538
sg36
g37
sbsg63
(dp539
g40
I0
sg41
I0
sg42
I0
sg43
I0
ssg65
(dp540
g40
I0
sg41
I0
sg42
I0
sg43
I0
ssg67
(dp541
g40
I0
sg41
I0
sg42
I0
sg43
I0
ssg69
(dp542
g40
I0
sg41
I0
sg42
I0
sg43
I0
ssg71
I0
sg72
I0
sg73
S"Qap'Qa"
p543
sg75
I6
sg76
I0
sg77
I18
sg78
I350
sg79
g80
sg81
(dp544
g83
I8
sg84
I10
sg85
I7
sg86
I12
sg87
I4
sg88
I14
sg89
I3
sg90
I14
sg91
I4
sg92
I7
sg93
I9
sg94
I10
sg95
I5
sg96
I8
sg97
I10
ssg98
I0
sg99
I0
sg100
I0
sg101
I0
sg102
F10.275862068965518
sg103
I0
sg104
I0
sg105
I0
sg106
I0
sg107
g544
sg108
I0
sg109
g57
sg110
I0
sg111
I0
sg112
I0
sg113
I35
sg114
I0
sg115
I0
sg116
S'HL'
p545
sbsS'n4'
p546
(ijoueur
joueur
p547
(dp548
g27
I0
sg28
I0
sg29
I0
sg30
(ijoueur
rang
p549
(dp550
g33
I4
sg34
g407
sg36
g408
sbsg38
(dp551
g40
I0
sg41
I0
sg42
I0
sg43
I0
ssg44
(dp552
g40
I0
sg41
I0
sg42
I0
sg43
I0
ssg46
I0
sg47
I0
sg48
I0
sg49
I0
sg50
I0
sg51
I0
sg52
I0
sg53
(g54
S'DL'
p553
S'N8'
p554
g57
tp555
sg59
(ijoueur
rang
p556
(dp557
g33
I4
sg34
g407
sg36
g408
sbsg63
(dp558
g40
I0
sg41
I0
sg42
I0
sg43
I0
ssg65
(dp559
g40
I0
sg41
I0
sg42
I0
sg43
I0
ssg67
(dp560
g40
I0
sg41
I0
sg42
I0
sg43
I0
ssg69
(dp561
g40
I0
sg41
I0
sg42
I0
sg43
I0
ssg71
I0
sg72
I0
sg73
S'Rekig'
p562
sg75
I1
sg76
I0
sg77
I13
sg78
I60
sg79
g80
sg81
(dp563
g83
I8
sg84
I10
sg85
I7
sg86
I11
sg87
I6
sg88
I10
sg89
I4
sg90
I10
sg91
I8
sg92
I6
sg93
I7
sg94
I7
sg95
I5
sg96
I10
sg97
I7
ssg98
I0
sg99
I0
sg100
I0
sg101
I0
sg102
F8.962962962962964
sg103
I0
sg104
I0
sg105
I0
sg106
I0
sg107
g563
sg108
I0
sg109
g57
sg110
I0
sg111
I0
sg112
I0
sg113
I6
sg114
I0
sg115
I0
sg116
S'N'
p564
sbsS'n5'
p565
g167
sS'n6'
p566
g119
sS'n7'
p567
g189
ssS'remplacements'
p568
(dp569
g339
S'n0'
p570
sg360
g570
sg400
g570
sg401
g570
sg402
g570
sg424
g570
sg445
g570
ssb.