(iclub
compo
p0
(dp1
S'caracs_old'
p2
(dp3
S'A'
p4
F150.5
sS'ME'
p5
F104.5
sS'E'
p6
I184
sS'OplusAV'
p7
F60.0
sS'TO_off'
p8
F118.5
sS'OplusAR'
p9
F50.5
sS'M'
p10
F37.5
sS'JP'
p11
F83.5
sS'OmoinsAR'
p12
F71.5
sS'PA'
p13
F118.0
sS'TO_def'
p14
F110.5
sS'OmoinsAV'
p15
F71.5
sS'R'
p16
F157.5
ssS'totaux_old'
p17
(dp18
S'T2'
p19
F176.0
sS'T3'
p20
F92.0
sS'T1'
p21
F188.25
ssS'roles'
p22
(dp23
S'drop1'
p24
(ijoueur
joueur
p25
(dp26
S'rouges_total'
p27
I0
sS'drops_total'
p28
I0
sS'blessure'
p29
I0
sS'RG_max'
p30
(ijoueur
rang
p31
(dp32
S'type_nb'
p33
I4
sS'rang'
p34
S'*'
p35
sS'type'
p36
S'heros'
p37
sbsS'MJ2_total'
p38
(dp39
S'SR'
p40
I0
sS'ST'
p41
I0
sS'CR'
p42
I0
sS'CT'
p43
I0
ssS'MJ3_total'
p44
(dp45
g40
I0
sg41
I0
sg42
I0
sg43
I0
ssS'anciens_clubs'
p46
S'APA10'
p47
sS'drop_rates_saison'
p48
I0
sS'essais_saison'
p49
I0
sS'penalite_ratees_saison'
p50
I0
sS'transformations_saison'
p51
I0
sS'postes'
p52
(S'dummy'
p53
S'DO'
p54
S'CE'
p55
S''
p56
tp57
sS'RG'
p58
(ijoueur
rang
p59
(dp60
g33
I4
sg34
g35
sg36
g37
sbsS'MJ1'
p61
(dp62
g40
I0
sg41
I0
sg42
I0
sg43
I0
ssS'MJ2'
p63
(dp64
g40
I0
sg41
I0
sg42
I0
sg43
I0
ssS'MJ3'
p65
(dp66
g40
I0
sg41
I0
sg42
I0
sg43
I0
ssS'MJ1_total'
p67
(dp68
g40
I0
sg41
I0
sg42
I0
sg43
I0
ssS'penalites_total'
p69
I0
sS'penalites_saison'
p70
I0
sS'nom'
p71
S'Ientl'
p72
sS'C'
p73
I8
sS'transformations_total'
p74
I0
sS'D'
p75
I22
sS'VAL'
p76
I20
sS'club'
p77
S'PRG'
p78
sS'caracs'
p79
(dp80
S'A'
p81
I10
sS'ME'
p82
I5
sS'RP2'
p83
I8
sS'E'
p84
I15
sS'TO'
p85
I8
sS'RP1'
p86
I8
sS'JP'
p87
I9
sS'RP_tot'
p88
I9
sS'P'
p89
I10
sS'PA'
p90
I11
sS'M'
p91
I10
sS'R'
p92
I9
sS'TB'
p93
I7
sS'PL'
p94
I11
sS'TA'
p95
I8
ssS'fatigue'
p96
I0
sS'drop_ratees_total'
p97
I0
sS'blessures_total'
p98
I0
sS'XP'
p99
I0
sS'EV'
p100
F10.606060606060606
sS'penalite_ratees_total'
p101
I0
sS'blessures_saison'
p102
I0
sS'jaunes_total'
p103
I0
sS'caracs_sans_fatigue'
p104
g80
sS'rouges_saison'
p105
I0
sS'transformation_ratees_total'
p106
I0
sS'drops_saison'
p107
I0
sS'transformation_ratees_saison'
p108
I0
sS'MS'
p109
I2
sS'essais_total'
p110
I1
sS'jaunes_saison'
p111
I0
sS'ARM'
p112
S'HL'
p113
sbsS'SA_scd'
p114
(ijoueur
joueur
p115
(dp116
g27
I0
sg28
I0
sg29
I0
sg30
(ijoueur
rang
p117
(dp118
g33
I4
sg34
S'x'
p119
sg36
g37
sbsg38
(dp120
g40
I0
sg41
I0
sg42
I0
sg43
I0
ssg44
(dp121
g40
I0
sg41
I0
sg42
I0
sg43
I0
ssg46
g56
sg48
I0
sg49
I0
sg50
I0
sg51
I0
sg52
(g53
S'N8'
p122
S'TL'
p123
g56
tp124
sg58
(ijoueur
rang
p125
(dp126
g33
I4
sg34
g119
sg36
g37
sbsg61
(dp127
g40
I0
sg41
I0
sg42
I0
sg43
I0
ssg63
(dp128
g40
I0
sg41
I0
sg42
I0
sg43
I0
ssg65
(dp129
g40
I0
sg41
I0
sg42
I0
sg43
I0
ssg67
(dp130
g40
I0
sg41
I0
sg42
I0
sg43
I0
ssg69
I0
sg70
I0
sg71
S'Equyx'
p131
sg73
I10
sg74
I0
sg75
I21
sg76
I130
sg77
g78
sg79
(dp132
g81
I12
sg82
I8
sg83
I6
sg84
I9
sg85
I12
sg86
I9
sg87
I5
sg88
I9
sg89
I7
sg90
I10
sg91
I7
sg92
I8
sg93
I6
sg94
I15
sg95
I5
ssg96
I0
sg97
I0
sg98
I0
sg99
I0
sg100
F10.36111111111111
sg101
I0
sg102
I0
sg103
I0
sg104
g132
sg105
I0
sg106
I0
sg107
I0
sg108
I0
sg109
I12
sg110
I1
sg111
I0
sg112
S'CHS'
p133
sbsS'RJL'
p134
(ijoueur
joueur
p135
(dp136
g27
I0
sg28
I7
sg29
I0
sg30
(ijoueur
rang
p137
(dp138
g33
I3
sg34
S'^^^'
p139
sg36
S'rare'
p140
sbsg38
(dp141
g40
I0
sg41
I0
sg42
I0
sg43
I0
ssg44
(dp142
g40
I0
sg41
I0
sg42
I0
sg43
I0
ssg46
g56
sg48
I0
sg49
I0
sg50
I0
sg51
I0
sg52
(g53
S'DO'
p143
S'CE'
p144
g56
tp145
sg58
(ijoueur
rang
p146
(dp147
g33
I3
sg34
S'^^^'
p148
sg36
g140
sbsg61
(dp149
g40
I0
sg41
I0
sg42
I0
sg43
I0
ssg63
(dp150
g40
I0
sg41
I0
sg42
I0
sg43
I0
ssg65
(dp151
g40
I0
sg41
I0
sg42
I0
sg43
I0
ssg67
(dp152
g40
I0
sg41
I0
sg42
I0
sg43
I0
ssg69
I0
sg70
I0
sg71
S'Habdal'
p153
sg73
I8
sg74
I0
sg75
I17
sg76
I25
sg77
g78
sg79
(dp154
g81
I8
sg82
I4
sg83
I6
sg84
I10
sg85
I6
sg86
I7
sg87
I11
sg88
I7
sg89
I10
sg90
I11
sg91
I10
sg92
I8
sg93
I6
sg94
I8
sg95
I5
ssg96
I0
sg97
I0
sg98
I0
sg99
I0
sg100
F9.545454545454545
sg101
I0
sg102
I0
sg103
I0
sg104
g154
sg105
I0
sg106
I0
sg107
I0
sg108
I0
sg109
I3
sg110
I0
sg111
I0
sg112
S'HE'
p155
sbsS'cap'
p156
g25
sS'B4'
p157
g25
sS'RJC'
p158
g135
sS'B1'
p159
(ijoueur
joueur
p160
(dp161
g27
I0
sg28
I0
sg29
I0
sg30
(ijoueur
rang
p162
(dp163
g33
I4
sg34
g35
sg36
g37
sbsg38
(dp164
g40
I0
sg41
I0
sg42
I0
sg43
I0
ssg44
(dp165
g40
I0
sg41
I0
sg42
I0
sg43
I0
ssg46
S'ALT9'
p166
sg48
I0
sg49
I0
sg50
I0
sg51
I0
sg52
(g53
S'C2'
p167
S'AR'
p168
S'AI'
p169
tp170
sg58
(ijoueur
rang
p171
(dp172
g33
I4
sg34
g35
sg36
g37
sbsg61
(dp173
g40
I0
sg41
I0
sg42
I0
sg43
I0
ssg63
(dp174
g40
I0
sg41
I0
sg42
I0
sg43
I0
ssg65
(dp175
g40
I0
sg41
I0
sg42
I0
sg43
I0
ssg67
(dp176
g40
I0
sg41
I0
sg42
I0
sg43
I0
ssg69
I0
sg70
I0
sg71
S'Aralt'
p177
sg73
I3
sg74
I0
sg75
I13
sg76
I95
sg77
g78
sg79
(dp178
g81
I9
sg82
I5
sg83
I6
sg84
I10
sg85
I7
sg86
I10
sg87
I7
sg88
I10
sg89
I9
sg90
I14
sg91
I9
sg92
I8
sg93
I8
sg94
I13
sg95
I4
ssg96
I0
sg97
I0
sg98
I0
sg99
I0
sg100
F10.551724137931034
sg101
I0
sg102
I0
sg103
I0
sg104
g178
sg105
I0
sg106
I0
sg107
I0
sg108
I0
sg109
I7
sg110
I12
sg111
I0
sg112
S'EMP'
p179
sbsS'B2'
p180
g160
sS'B3'
p181
g160
sS'SA_pcp2'
p182
(ijoueur
joueur
p183
(dp184
g27
I0
sg28
I0
sg29
I0
sg30
(ijoueur
rang
p185
(dp186
g33
I4
sg34
g35
sg36
g37
sbsg38
(dp187
g40
I0
sg41
I0
sg42
I0
sg43
I0
ssg44
(dp188
g40
I0
sg41
I0
sg42
I0
sg43
I0
ssg46
S'TA10'
p189
sg48
I0
sg49
I0
sg50
I0
sg51
I0
sg52
(g53
S'DL'
p190
g56
g56
tp191
sg58
(ijoueur
rang
p192
(dp193
g33
I4
sg34
g35
sg36
g37
sbsg61
(dp194
g40
I0
sg41
I0
sg42
I0
sg43
I0
ssg63
(dp195
g40
I0
sg41
I0
sg42
I0
sg43
I0
ssg65
(dp196
g40
I0
sg41
I0
sg42
I0
sg43
I0
ssg67
(dp197
g40
I0
sg41
I0
sg42
I0
sg43
I0
ssg69
I0
sg70
I0
sg71
S'Muss'
p198
sg73
I4
sg74
I0
sg75
I11
sg76
I98
sg77
g78
sg79
(dp199
g81
I10
sg82
I10
sg83
I9
sg84
I8
sg85
I13
sg86
I6
sg87
I5
sg88
I9
sg89
I7
sg90
I10
sg91
I8
sg92
I8
sg93
I5
sg94
I7
sg95
I6
ssg96
I0
sg97
I0
sg98
I0
sg99
I0
sg100
F9.441176470588236
sg101
I0
sg102
I0
sg103
I0
sg104
g199
sg105
I0
sg106
I0
sg107
I0
sg108
I0
sg109
I12
sg110
I2
sg111
I0
sg112
S'S'
p200
sbsS'SA_pcp1'
p201
(ijoueur
joueur
p202
(dp203
g27
I0
sg28
I0
sg29
I0
sg30
(ijoueur
rang
p204
(dp205
g33
I5
sg34
S'**'
p206
sg36
S'seigneur'
p207
sbsg38
(dp208
g40
I0
sg41
I0
sg42
I0
sg43
I0
ssg44
(dp209
g40
I0
sg41
I0
sg42
I0
sg43
I0
ssg46
g56
sg48
I0
sg49
I0
sg50
I0
sg51
I0
sg52
(g53
S'DL'
p210
S'TL'
p211
S'N8'
p212
tp213
sg58
(ijoueur
rang
p214
(dp215
g33
I5
sg34
S'**'
p216
sg36
g207
sbsg61
(dp217
g40
I0
sg41
I0
sg42
I0
sg43
I0
ssg63
(dp218
g40
I0
sg41
I0
sg42
I0
sg43
I0
ssg65
(dp219
g40
I0
sg41
I0
sg42
I0
sg43
I0
ssg67
(dp220
g40
I0
sg41
I0
sg42
I0
sg43
I0
ssg69
I0
sg70
I0
sg71
S'Zysken'
p221
sg73
I1
sg74
I0
sg75
I12
sg76
I210
sg77
g78
sg79
(dp222
g81
I14
sg82
I10
sg83
I7
sg84
I10
sg85
I13
sg86
I13
sg87
I4
sg88
I13
sg89
I4
sg90
I11
sg91
I8
sg92
I9
sg93
I3
sg94
I13
sg95
I5
ssg96
I0
sg97
I0
sg98
I0
sg99
I0
sg100
F11.323529411764707
sg101
I0
sg102
I0
sg103
I0
sg104
g222
sg105
I0
sg106
I0
sg107
I0
sg108
I0
sg109
I21
sg110
I5
sg111
I0
sg112
S'CHS'
p223
sbsS'drop3'
p224
g25
sS'SA_remp1'
p225
(ijoueur
joueur
p226
(dp227
g27
I0
sg28
I0
sg29
I0
sg30
(ijoueur
rang
p228
(dp229
g33
I5
sg34
S'**'
p230
sg36
g207
sbsg38
(dp231
g40
I0
sg41
I0
sg42
I0
sg43
I0
ssg44
(dp232
g40
I0
sg41
I0
sg42
I0
sg43
I0
ssg46
S'MSL9'
p233
sg48
I0
sg49
I0
sg50
I0
sg51
I0
sg52
(g53
S'TL'
p234
S'DL'
p235
g56
tp236
sg58
(ijoueur
rang
p237
(dp238
g33
I5
sg34
S'**'
p239
sg36
g207
sbsg61
(dp240
g40
I0
sg41
I0
sg42
I0
sg43
I0
ssg63
(dp241
g40
I0
sg41
I0
sg42
I0
sg43
I0
ssg65
(dp242
g40
I0
sg41
I0
sg42
I0
sg43
I0
ssg67
(dp243
g40
I0
sg41
I0
sg42
I0
sg43
I0
ssg69
I0
sg70
I0
sg71
S'Obolendt'
p244
sg73
I6
sg74
I0
sg75
I20
sg76
I140
sg77
g78
sg79
(dp245
g81
I13
sg82
I10
sg83
I9
sg84
I10
sg85
I11
sg86
I7
sg87
I5
sg88
I9
sg89
I7
sg90
I10
sg91
I10
sg92
I10
sg93
I6
sg94
I11
sg95
I6
ssg96
I0
sg97
I0
sg98
I0
sg99
I0
sg100
F10.473684210526315
sg101
I0
sg102
I0
sg103
I0
sg104
g245
sg105
I0
sg106
I0
sg107
I0
sg108
I0
sg109
I12
sg110
I6
sg111
I0
sg112
S'CV'
p246
sbsS'drop2'
p247
g135
sS'SA_remp2'
p248
(ijoueur
joueur
p249
(dp250
g27
I0
sg28
I0
sg29
I0
sg30
(ijoueur
rang
p251
(dp252
g33
I5
sg34
S'**'
p253
sg36
g207
sbsg38
(dp254
g40
I0
sg41
I0
sg42
I0
sg43
I0
ssg44
(dp255
g40
I0
sg41
I0
sg42
I0
sg43
I0
ssg46
g56
sg48
I0
sg49
I0
sg50
I0
sg51
I0
sg52
(g53
S'PI'
p256
S'N8'
p257
S'TA'
p258
tp259
sg58
(ijoueur
rang
p260
(dp261
g33
I5
sg34
S'**'
p262
sg36
g207
sbsg61
(dp263
g40
I0
sg41
I0
sg42
I0
sg43
I0
ssg63
(dp264
g40
I0
sg41
I0
sg42
I0
sg43
I0
ssg65
(dp265
g40
I0
sg41
I0
sg42
I0
sg43
I0
ssg67
(dp266
g40
I0
sg41
I0
sg42
I0
sg43
I0
ssg69
I0
sg70
I0
sg71
S'Stavehyr'
p267
sg73
I4
sg74
I0
sg75
I11
sg76
I210
sg77
g78
sg79
(dp268
g81
I11
sg82
I10
sg83
I7
sg84
I9
sg85
I10
sg86
I11
sg87
I2
sg88
I11
sg89
I5
sg90
I13
sg91
I6
sg92
I10
sg93
I3
sg94
I14
sg95
I8
ssg96
I0
sg97
I0
sg98
I0
sg99
I0
sg100
F10.62962962962963
sg101
I0
sg102
I0
sg103
I0
sg104
g268
sg105
I0
sg106
I0
sg107
I0
sg108
I0
sg109
I21
sg110
I7
sg111
I0
sg112
S'CHS'
p269
sbssS'totaux'
p270
(dp271
g19
I0
sg20
I0
sg21
I0
ssS'_compo_defaut_fatigue'
p272
Nsg79
(dp273
g4
I0
sg5
I0
sg6
I0
sg7
I0
sg8
I0
sg9
I0
sg10
I0
sg11
I0
sg12
I0
sg13
I0
sg14
I0
sg15
I0
sg16
I0
ssS'joueurs'
p274
(dp275
S'n12'
p276
g25
sS'n13'
p277
(ijoueur
joueur
p278
(dp279
g27
I0
sg28
I0
sg29
I0
sg30
(ijoueur
rang
p280
(dp281
g33
I5
sg34
S'**'
p282
sg36
g207
sbsg38
(dp283
g40
I0
sg41
I0
sg42
I0
sg43
I0
ssg44
(dp284
g40
I0
sg41
I0
sg42
I0
sg43
I0
ssg46
g56
sg48
I0
sg49
I0
sg50
I0
sg51
I0
sg52
(g53
S'C2'
p285
S'AI'
p286
S'DM'
p287
tp288
sg58
(ijoueur
rang
p289
(dp290
g33
I5
sg34
S'**'
p291
sg36
g207
sbsg61
(dp292
g40
I0
sg41
I0
sg42
I0
sg43
I0
ssg63
(dp293
g40
I0
sg41
I0
sg42
I0
sg43
I0
ssg65
(dp294
g40
I0
sg41
I0
sg42
I0
sg43
I0
ssg67
(dp295
g40
I0
sg41
I0
sg42
I0
sg43
I0
ssg69
I0
sg70
I0
sg71
S'Mill'
p296
sg73
I8
sg74
I0
sg75
I20
sg76
I145
sg77
g78
sg79
(dp297
g81
I10
sg82
I4
sg83
I11
sg84
I11
sg85
I5
sg86
I9
sg87
I7
sg88
I13
sg89
I8
sg90
I12
sg91
I10
sg92
I6
sg93
I6
sg94
I13
sg95
I6
ssg96
I0
sg97
I0
sg98
I0
sg99
I0
sg100
F11.0
sg101
I0
sg102
I0
sg103
I0
sg104
g297
sg105
I0
sg106
I0
sg107
I0
sg108
I0
sg109
I15
sg110
I4
sg111
I0
sg112
S'EMP'
p298
sbsS'n10'
p299
g135
sS'n11'
p300
(ijoueur
joueur
p301
(dp302
g27
I0
sg28
I0
sg29
I0
sg30
(ijoueur
rang
p303
(dp304
g33
I4
sg34
g35
sg36
g37
sbsg38
(dp305
g40
I0
sg41
I0
sg42
I0
sg43
I0
ssg44
(dp306
g40
I0
sg41
I0
sg42
I0
sg43
I0
ssg46
g56
sg48
I0
sg49
I0
sg50
I0
sg51
I0
sg52
(g53
S'C2'
p307
S'AI'
p308
S'AR'
p309
tp310
sg58
(ijoueur
rang
p311
(dp312
g33
I2
sg34
S'<<'
p313
sg36
S'special'
p314
sbsg61
(dp315
g40
I0
sg41
I0
sg42
I0
sg43
I0
ssg63
(dp316
g40
I0
sg41
I0
sg42
I0
sg43
I0
ssg65
(dp317
g40
I0
sg41
I0
sg42
I0
sg43
I0
ssg67
(dp318
g40
I0
sg41
I0
sg42
I0
sg43
I0
ssg69
I0
sg70
I0
sg71
S'Braklyr'
p319
sg73
I11
sg74
I0
sg75
I20
sg76
I41
sg77
g78
sg79
(dp320
g81
I9
sg82
I6
sg83
I6
sg84
I9
sg85
I5
sg86
I9
sg87
I7
sg88
I9
sg89
I6
sg90
I10
sg91
I9
sg92
I7
sg93
I6
sg94
I11
sg95
I6
ssg96
I0
sg97
I0
sg98
I0
sg99
I0
sg100
F9.172413793103448
sg101
I0
sg102
I0
sg103
I0
sg104
g320
sg105
I0
sg106
I0
sg107
I0
sg108
I0
sg109
I4
sg110
I0
sg111
I0
sg112
S'CHS'
p321
sbsS'n16'
p322
(ijoueur
joueur
p323
(dp324
g27
I0
sg28
I0
sg29
I0
sg30
(ijoueur
rang
p325
(dp326
g33
I4
sg34
g35
sg36
g37
sbsg38
(dp327
g40
I0
sg41
I0
sg42
I0
sg43
I0
ssg44
(dp328
g40
I0
sg41
I0
sg42
I0
sg43
I0
ssg46
g56
sg48
I0
sg49
I0
sg50
I0
sg51
I0
sg52
(g53
S'TA'
p329
g56
g56
tp330
sg58
(ijoueur
rang
p331
(dp332
g33
I1
sg34
S'^'
p333
sg36
S'base'
p334
sbsg61
(dp335
g40
I0
sg41
I0
sg42
I0
sg43
I0
ssg63
(dp336
g40
I0
sg41
I0
sg42
I0
sg43
I0
ssg65
(dp337
g40
I0
sg41
I0
sg42
I0
sg43
I0
ssg67
(dp338
g40
I0
sg41
I0
sg42
I0
sg43
I0
ssg69
I0
sg70
I0
sg71
S'Wadwyr'
p339
sg73
I11
sg74
I0
sg75
I23
sg76
I21
sg77
g78
sg79
(dp340
g81
I8
sg82
I9
sg83
I6
sg84
I10
sg85
I5
sg86
I8
sg87
I2
sg88
I8
sg89
I3
sg90
I8
sg91
I7
sg92
I8
sg93
I0
sg94
I9
sg95
I9
ssg96
I0
sg97
I0
sg98
I0
sg99
I0
sg100
F8.620689655172415
sg101
I0
sg102
I0
sg103
I0
sg104
g340
sg105
I0
sg106
I0
sg107
I0
sg108
I0
sg109
I3
sg110
I0
sg111
I0
sg112
S'CHS'
p341
sbsS'n17'
p342
(ijoueur
joueur
p343
(dp344
g27
I0
sg28
I0
sg29
I0
sg30
(ijoueur
rang
p345
(dp346
g33
I5
sg34
S'**'
p347
sg36
g207
sbsg38
(dp348
g40
I0
sg41
I0
sg42
I0
sg43
I0
ssg44
(dp349
g40
I0
sg41
I0
sg42
I0
sg43
I0
ssg46
S'ED9'
p350
sg48
I0
sg49
I0
sg50
I0
sg51
I0
sg52
(g53
S'PI'
p351
g56
g56
tp352
sg58
(ijoueur
rang
p353
(dp354
g33
I5
sg34
S'**'
p355
sg36
g207
sbsg61
(dp356
g40
I0
sg41
I0
sg42
I0
sg43
I0
ssg63
(dp357
g40
I0
sg41
I0
sg42
I0
sg43
I0
ssg65
(dp358
g40
I0
sg41
I0
sg42
I0
sg43
I0
ssg67
(dp359
g40
I0
sg41
I0
sg42
I0
sg43
I0
ssg69
I0
sg70
I0
sg71
S'Aked'
p360
sg73
I6
sg74
I0
sg75
I18
sg76
I105
sg77
g78
sg79
(dp361
g81
I9
sg82
I10
sg83
I10
sg84
I10
sg85
I9
sg86
I9
sg87
I7
sg88
I12
sg89
I5
sg90
I10
sg91
I7
sg92
I5
sg93
I6
sg94
I9
sg95
I7
ssg96
I0
sg97
I0
sg98
I0
sg99
I0
sg100
F8.882352941176471
sg101
I0
sg102
I0
sg103
I0
sg104
g361
sg105
I0
sg106
I0
sg107
I0
sg108
I0
sg109
I9
sg110
I3
sg111
I0
sg112
g200
sbsS'n14'
p362
(ijoueur
joueur
p363
(dp364
g27
I0
sg28
I0
sg29
I0
sg30
(ijoueur
rang
p365
(dp366
g33
I4
sg34
g35
sg36
g37
sbsg38
(dp367
g40
I0
sg41
I0
sg42
I0
sg43
I0
ssg44
(dp368
g40
I0
sg41
I0
sg42
I0
sg43
I0
ssg46
g56
sg48
I0
sg49
I0
sg50
I0
sg51
I0
sg52
(g53
S'AI'
p369
g56
g56
tp370
sg58
(ijoueur
rang
p371
(dp372
g33
I4
sg34
g35
sg36
g37
sbsg61
(dp373
g40
I0
sg41
I0
sg42
I0
sg43
I0
ssg63
(dp374
g40
I0
sg41
I0
sg42
I0
sg43
I0
ssg65
(dp375
g40
I0
sg41
I0
sg42
I0
sg43
I0
ssg67
(dp376
g40
I0
sg41
I0
sg42
I0
sg43
I0
ssg69
I0
sg70
I0
sg71
S'Qapry'
p377
sg73
I8
sg74
I0
sg75
I19
sg76
I80
sg77
g78
sg79
(dp378
g81
I10
sg82
I5
sg83
I10
sg84
I8
sg85
I6
sg86
I7
sg87
I8
sg88
I10
sg89
I10
sg90
I8
sg91
I9
sg92
I8
sg93
I5
sg94
I8
sg95
I5
ssg96
I0
sg97
I0
sg98
I0
sg99
I0
sg100
F9.0
sg101
I0
sg102
I0
sg103
I0
sg104
g378
sg105
I0
sg106
I0
sg107
I0
sg108
I0
sg109
I8
sg110
I0
sg111
I0
sg112
S'CHS'
p379
sbsS'n15'
p380
g160
sS'n18'
p381
(ijoueur
joueur
p382
(dp383
g27
I0
sg28
I0
sg29
I0
sg30
(ijoueur
rang
p384
(dp385
g33
I4
sg34
g35
sg36
g37
sbsg38
(dp386
g40
I0
sg41
I0
sg42
I0
sg43
I0
ssg44
(dp387
g40
I0
sg41
I0
sg42
I0
sg43
I0
ssg46
g56
sg48
I0
sg49
I0
sg50
I0
sg51
I0
sg52
(g53
S'TL'
p388
S'DL'
p389
g56
tp390
sg58
(ijoueur
rang
p391
(dp392
g33
I4
sg34
g35
sg36
g37
sbsg61
(dp393
g40
I0
sg41
I0
sg42
I0
sg43
I0
ssg63
(dp394
g40
I0
sg41
I0
sg42
I0
sg43
I0
ssg65
(dp395
g40
I0
sg41
I0
sg42
I0
sg43
I0
ssg67
(dp396
g40
I0
sg41
I0
sg42
I0
sg43
I0
ssg69
I0
sg70
I0
sg71
S'Xhyrev'
p397
sg73
I8
sg74
I0
sg75
I19
sg76
I60
sg77
g78
sg79
(dp398
g81
I5
sg82
I10
sg83
I9
sg84
I11
sg85
I5
sg86
I7
sg87
I3
sg88
I9
sg89
I4
sg90
I6
sg91
I8
sg92
I8
sg93
I3
sg94
I9
sg95
I2
ssg96
I0
sg97
I0
sg98
I0
sg99
I0
sg100
F8.483870967741936
sg101
I0
sg102
I0
sg103
I0
sg104
g398
sg105
I0
sg106
I0
sg107
I0
sg108
I0
sg109
I6
sg110
I1
sg111
I0
sg112
S'CV'
p399
sbsS'n19'
p400
(ijoueur
joueur
p401
(dp402
g27
I0
sg28
I0
sg29
I0
sg30
(ijoueur
rang
p403
(dp404
g33
I4
sg34
g119
sg36
g37
sbsg38
(dp405
g40
I0
sg41
I0
sg42
I0
sg43
I0
ssg44
(dp406
g40
I0
sg41
I0
sg42
I0
sg43
I0
ssg46
g56
sg48
I0
sg49
I0
sg50
I0
sg51
I0
sg52
(g53
S'PI'
p407
S'TL'
p408
g56
tp409
sg58
(ijoueur
rang
p410
(dp411
g33
I2
sg34
S'<<'
p412
sg36
g314
sbsg61
(dp413
g40
I0
sg41
I0
sg42
I0
sg43
I0
ssg63
(dp414
g40
I0
sg41
I0
sg42
I0
sg43
I0
ssg65
(dp415
g40
I0
sg41
I0
sg42
I0
sg43
I0
ssg67
(dp416
g40
I0
sg41
I0
sg42
I0
sg43
I0
ssg69
I0
sg70
I0
sg71
S'Kareops'
p417
sg73
I11
sg74
I0
sg75
I20
sg76
I51
sg77
g78
sg79
(dp418
g81
I11
sg82
I7
sg83
I6
sg84
I10
sg85
I6
sg86
I9
sg87
I4
sg88
I9
sg89
I3
sg90
I8
sg91
I7
sg92
I10
sg93
I0
sg94
I10
sg95
I8
ssg96
I0
sg97
I0
sg98
I0
sg99
I0
sg100
F9.185185185185185
sg101
I0
sg102
I0
sg103
I0
sg104
g418
sg105
I0
sg106
I0
sg107
I0
sg108
I0
sg109
I4
sg110
I0
sg111
I0
sg112
S'CHS'
p419
sbsS'n22'
p420
(ijoueur
joueur
p421
(dp422
g27
I0
sg28
I1
sg29
I0
sg30
(ijoueur
rang
p423
(dp424
g33
I5
sg34
S'xx'
p425
sg36
g207
sbsg38
(dp426
g40
I0
sg41
I0
sg42
I0
sg43
I0
ssg44
(dp427
g40
I0
sg41
I0
sg42
I0
sg43
I0
ssg46
g56
sg48
I0
sg49
I0
sg50
I0
sg51
I0
sg52
(g53
S'AI'
p428
S'AR'
p429
S'CE'
p430
tp431
sg58
(ijoueur
rang
p432
(dp433
g33
I5
sg34
S'xx'
p434
sg36
g207
sbsg61
(dp435
g40
I0
sg41
I0
sg42
I0
sg43
I0
ssg63
(dp436
g40
I0
sg41
I0
sg42
I0
sg43
I0
ssg65
(dp437
g40
I0
sg41
I0
sg42
I0
sg43
I0
ssg67
(dp438
g40
I0
sg41
I0
sg42
I0
sg43
I0
ssg69
I3
sg70
I0
sg71
S'Meblann'
p439
sg73
I-1
sg74
I2
sg75
I9
sg76
I50
sg77
g78
sg79
(dp440
g81
I10
sg82
I4
sg83
I7
sg84
I10
sg85
I4
sg86
I8
sg87
I6
sg88
I8
sg89
I9
sg90
I7
sg91
I10
sg92
I7
sg93
I8
sg94
I8
sg95
I4
ssg96
I0
sg97
I0
sg98
I0
sg99
I0
sg100
F8.806451612903226
sg101
I0
sg102
I0
sg103
I0
sg104
g440
sg105
I0
sg106
I0
sg107
I0
sg108
I0
sg109
I8
sg110
I1
sg111
I0
sg112
S'EMP'
p441
sbsS'n21'
p442
(ijoueur
joueur
p443
(dp444
g27
I0
sg28
I0
sg29
I0
sg30
(ijoueur
rang
p445
(dp446
g33
I2
sg34
S'^^'
p447
sg36
g314
sbsg38
(dp448
g40
I0
sg41
I0
sg42
I0
sg43
I0
ssg44
(dp449
g40
I0
sg41
I0
sg42
I0
sg43
I0
ssg46
g56
sg48
I0
sg49
I0
sg50
I0
sg51
I0
sg52
(g53
S'C1'
p450
S'DO'
p451
S'DM'
p452
tp453
sg58
(ijoueur
rang
p454
(dp455
g33
I2
sg34
S'^^'
p456
sg36
g314
sbsg61
(dp457
g40
I0
sg41
I0
sg42
I0
sg43
I0
ssg63
(dp458
g40
I0
sg41
I0
sg42
I0
sg43
I0
ssg65
(dp459
g40
I0
sg41
I0
sg42
I0
sg43
I0
ssg67
(dp460
g40
I0
sg41
I0
sg42
I0
sg43
I0
ssg69
I0
sg70
I0
sg71
S'Myhed'
p461
sg73
I9
sg74
I0
sg75
I19
sg76
I63
sg77
g78
sg79
(dp462
g81
I10
sg82
I6
sg83
I6
sg84
I9
sg85
I7
sg86
I8
sg87
I8
sg88
I8
sg89
I9
sg90
I11
sg91
I9
sg92
I7
sg93
I6
sg94
I10
sg95
I6
ssg96
I0
sg97
I0
sg98
I0
sg99
I0
sg100
F9.233333333333333
sg101
I0
sg102
I0
sg103
I0
sg104
g462
sg105
I0
sg106
I0
sg107
I0
sg108
I0
sg109
I7
sg110
I0
sg111
I0
sg112
S'CHS'
p463
sbsS'n20'
p464
(ijoueur
joueur
p465
(dp466
g27
I0
sg28
I0
sg29
I0
sg30
(ijoueur
rang
p467
(dp468
g33
I2
sg34
S'<<'
p469
sg36
g314
sbsg38
(dp470
g40
I0
sg41
I0
sg42
I0
sg43
I0
ssg44
(dp471
g40
I0
sg41
I0
sg42
I0
sg43
I0
ssg46
g56
sg48
I0
sg49
I0
sg50
I0
sg51
I0
sg52
(g53
S'DO'
p472
S'CE'
p473
S'AR'
p474
tp475
sg58
(ijoueur
rang
p476
(dp477
g33
I2
sg34
S'<<'
p478
sg36
g314
sbsg61
(dp479
g40
I0
sg41
I0
sg42
I0
sg43
I0
ssg63
(dp480
g40
I0
sg41
I0
sg42
I0
sg43
I0
ssg65
(dp481
g40
I0
sg41
I0
sg42
I0
sg43
I0
ssg67
(dp482
g40
I0
sg41
I0
sg42
I0
sg43
I0
ssg69
I0
sg70
I0
sg71
S'Dyrthied'
p483
sg73
I11
sg74
I0
sg75
I22
sg76
I25
sg77
g78
sg79
(dp484
g81
I8
sg82
I5
sg83
I6
sg84
I9
sg85
I7
sg86
I7
sg87
I8
sg88
I7
sg89
I10
sg90
I11
sg91
I10
sg92
I7
sg93
I8
sg94
I11
sg95
I6
ssg96
I0
sg97
I0
sg98
I0
sg99
I0
sg100
F9.303030303030303
sg101
I0
sg102
I0
sg103
I0
sg104
g484
sg105
I0
sg106
I0
sg107
I0
sg108
I0
sg109
I5
sg110
I0
sg111
I0
sg112
S'CHS'
p485
sbsS'n8'
p486
g202
sS'n9'
p487
(ijoueur
joueur
p488
(dp489
g27
I0
sg28
I0
sg29
I0
sg30
(ijoueur
rang
p490
(dp491
g33
I4
sg34
g35
sg36
g37
sbsg38
(dp492
g40
I0
sg41
I0
sg42
I0
sg43
I0
ssg44
(dp493
g40
I0
sg41
I0
sg42
I0
sg43
I0
ssg46
g56
sg48
I0
sg49
I0
sg50
I0
sg51
I0
sg52
(g53
S'DM'
p494
S'DO'
p495
g56
tp496
sg58
(ijoueur
rang
p497
(dp498
g33
I4
sg34
g35
sg36
g37
sbsg61
(dp499
g40
I0
sg41
I0
sg42
I0
sg43
I0
ssg63
(dp500
g40
I0
sg41
I0
sg42
I0
sg43
I0
ssg65
(dp501
g40
I0
sg41
I0
sg42
I0
sg43
I0
ssg67
(dp502
g40
I0
sg41
I0
sg42
I0
sg43
I0
ssg69
I0
sg70
I0
sg71
S'Joherd'
p503
sg73
I2
sg74
I0
sg75
I12
sg76
I80
sg77
g78
sg79
(dp504
g81
I11
sg82
I3
sg83
I9
sg84
I9
sg85
I4
sg86
I8
sg87
I8
sg88
I10
sg89
I9
sg90
I13
sg91
I7
sg92
I7
sg93
I8
sg94
I10
sg95
I4
ssg96
I0
sg97
I0
sg98
I0
sg99
I0
sg100
F9.862068965517242
sg101
I0
sg102
I0
sg103
I0
sg104
g504
sg105
I0
sg106
I0
sg107
I0
sg108
I0
sg109
I8
sg110
I2
sg111
I0
sg112
S'CHS'
p505
sbsS'n1'
p506
g249
sS'n2'
p507
(ijoueur
joueur
p508
(dp509
g27
I0
sg28
I0
sg29
I0
sg30
(ijoueur
rang
p510
(dp511
g33
I4
sg34
g35
sg36
g37
sbsg38
(dp512
g40
I0
sg41
I0
sg42
I0
sg43
I0
ssg44
(dp513
g40
I0
sg41
I0
sg42
I0
sg43
I0
ssg46
g56
sg48
I0
sg49
I0
sg50
I0
sg51
I0
sg52
(g53
S'TA'
p514
S'PI'
p515
g56
tp516
sg58
(ijoueur
rang
p517
(dp518
g33
I4
sg34
g35
sg36
g37
sbsg61
(dp519
g40
I0
sg41
I0
sg42
I0
sg43
I0
ssg63
(dp520
g40
I0
sg41
I0
sg42
I0
sg43
I0
ssg65
(dp521
g40
I0
sg41
I0
sg42
I0
sg43
I0
ssg67
(dp522
g40
I0
sg41
I0
sg42
I0
sg43
I0
ssg69
I0
sg70
I0
sg71
S'Cloendal'
p523
sg73
I2
sg74
I0
sg75
I14
sg76
I80
sg77
g78
sg79
(dp524
g81
I10
sg82
I11
sg83
I7
sg84
I10
sg85
I6
sg86
I10
sg87
I2
sg88
I10
sg89
I5
sg90
I8
sg91
I7
sg92
I11
sg93
I3
sg94
I11
sg95
I11
ssg96
I0
sg97
I0
sg98
I0
sg99
I0
sg100
F10.413793103448276
sg101
I0
sg102
I0
sg103
I0
sg104
g524
sg105
I0
sg106
I0
sg107
I0
sg108
I0
sg109
I8
sg110
I0
sg111
I0
sg112
S'CHS'
p525
sbsS'n3'
p526
(ijoueur
joueur
p527
(dp528
g27
I0
sg28
I0
sg29
I0
sg30
(ijoueur
rang
p529
(dp530
g33
I1
sg34
S'<'
p531
sg36
g334
sbsg38
(dp532
g40
I0
sg41
I0
sg42
I0
sg43
I0
ssg44
(dp533
g40
I0
sg41
I0
sg42
I0
sg43
I0
ssg46
S'DKF11'
p534
sg48
I0
sg49
I0
sg50
I0
sg51
I0
sg52
(g53
S'DL'
p535
S'PI'
p536
g56
tp537
sg58
(ijoueur
rang
p538
(dp539
g33
I1
sg34
g531
sg36
g334
sbsg61
(dp540
g40
I0
sg41
I0
sg42
I0
sg43
I0
ssg63
(dp541
g40
I0
sg41
I0
sg42
I0
sg43
I0
ssg65
(dp542
g40
I0
sg41
I0
sg42
I0
sg43
I0
ssg67
(dp543
g40
I0
sg41
I0
sg42
I0
sg43
I0
ssg69
I0
sg70
I0
sg71
S'Haradt'
p544
sg73
I3
sg74
I0
sg75
I16
sg76
I20
sg77
g78
sg79
(dp545
g81
I9
sg82
I13
sg83
I8
sg84
I9
sg85
I9
sg86
I9
sg87
I3
sg88
I10
sg89
I3
sg90
I6
sg91
I6
sg92
I11
sg93
I2
sg94
I7
sg95
I4
ssg96
I0
sg97
I0
sg98
I0
sg99
I0
sg100
F9.74074074074074
sg101
I0
sg102
I0
sg103
I0
sg104
g545
sg105
I0
sg106
I0
sg107
I0
sg108
I0
sg109
I2
sg110
I0
sg111
I0
sg112
S'CV'
p546
sbsS'n4'
p547
g183
sS'n5'
p548
(ijoueur
joueur
p549
(dp550
g27
I0
sg28
I0
sg29
I0
sg30
(ijoueur
rang
p551
(dp552
g33
I1
sg34
S'>'
p553
sg36
g334
sbsg38
(dp554
g40
I0
sg41
I0
sg42
I0
sg43
I0
ssg44
(dp555
g40
I0
sg41
I0
sg42
I0
sg43
I0
ssg46
S'TO10'
p556
sg48
I0
sg49
I0
sg50
I0
sg51
I0
sg52
(g53
S'TL'
p557
S'DL'
p558
S'TA'
p559
tp560
sg58
(ijoueur
rang
p561
(dp562
g33
I1
sg34
g553
sg36
g334
sbsg61
(dp563
g40
I0
sg41
I0
sg42
I0
sg43
I0
ssg63
(dp564
g40
I0
sg41
I0
sg42
I0
sg43
I0
ssg65
(dp565
g40
I0
sg41
I0
sg42
I0
sg43
I0
ssg67
(dp566
g40
I0
sg41
I0
sg42
I0
sg43
I0
ssg69
I0
sg70
I0
sg71
S'Paad'
p567
sg73
I2
sg74
I0
sg75
I15
sg76
I50
sg77
g78
sg79
(dp568
g81
I9
sg82
I11
sg83
I6
sg84
I8
sg85
I9
sg86
I10
sg87
I4
sg88
I10
sg89
I4
sg90
I7
sg91
I8
sg92
I9
sg93
I4
sg94
I7
sg95
I6
ssg96
I0
sg97
I0
sg98
I0
sg99
I0
sg100
F8.68421052631579
sg101
I0
sg102
I0
sg103
I0
sg104
g568
sg105
I0
sg106
I0
sg107
I0
sg108
I0
sg109
I5
sg110
I3
sg111
I0
sg112
S'HL'
p569
sbsS'n6'
p570
g115
sS'n7'
p571
g226
ssS'remplacements'
p572
(dp573
g322
S'n0'
p574
sg342
g574
sg381
g574
sg400
g574
sg420
g574
sg442
g574
sg464
g574
ssb.