(iclub
compo
p0
(dp1
S'caracs_old'
p2
(dp3
S'A'
p4
F152.5
sS'ME'
p5
F96.0
sS'E'
p6
I185
sS'OplusAV'
p7
F59.0
sS'TO_off'
p8
F118.5
sS'OplusAR'
p9
F52.5
sS'M'
p10
F38.0
sS'JP'
p11
F79.0
sS'OmoinsAR'
p12
F75.0
sS'PA'
p13
F117.5
sS'TO_def'
p14
F110.5
sS'OmoinsAV'
p15
F75.0
sS'R'
p16
F159.5
ssS'totaux_old'
p17
(dp18
S'T2'
p19
F174.5
sS'T3'
p20
F92.5
sS'T1'
p21
F185.0
ssS'roles'
p22
(dp23
S'drop1'
p24
(ijoueur
joueur
p25
(dp26
S'rouges_total'
p27
I0
sS'drops_total'
p28
I0
sS'blessure'
p29
I0
sS'RG_max'
p30
(ijoueur
rang
p31
(dp32
S'type_nb'
p33
I4
sS'rang'
p34
S'*'
p35
sS'type'
p36
S'heros'
p37
sbsS'MJ2_total'
p38
(dp39
S'SR'
p40
I0
sS'CT'
p41
I0
sS'CR'
p42
I0
sS'ST'
p43
I0
ssS'MJ3_total'
p44
(dp45
g40
I0
sg41
I0
sg42
I0
sg43
I0
ssS'drop_rates_total'
p46
I0
sS'drop_rates_saison'
p47
I0
sS'transformations'
p48
I0
sS'penalites'
p49
I0
sS'essais_saison'
p50
I0
sS'penalite_ratees_saison'
p51
I0
sS'transformations_saison'
p52
I0
sS'postes'
p53
(S'dummy'
p54
S'DO'
p55
S'CE'
p56
S''
p57
tp58
sS'RG'
p59
(ijoueur
rang
p60
(dp61
g33
I4
sg34
g35
sg36
g37
sbsS'MJ1'
p62
(dp63
g40
I0
sg41
I0
sg42
I0
sg43
I0
ssS'MJ2'
p64
(dp65
g40
I0
sg41
I0
sg42
I0
sg43
I0
ssS'MJ3'
p66
(dp67
g40
I0
sg41
I0
sg42
I0
sg43
I0
ssS'MJ1_total'
p68
(dp69
g40
I0
sg41
I0
sg42
I0
sg43
I0
ssS'penalites_total'
p70
I0
sS'penalites_saison'
p71
I0
sS'nom'
p72
S'Ientl'
p73
sS'C'
p74
I8
sS'transformations_total'
p75
I0
sS'D'
p76
I22
sS'VAL'
p77
I20
sS'club'
p78
S'PRG'
p79
sS'caracs'
p80
(dp81
S'A'
p82
I10
sS'ME'
p83
I5
sS'RP2'
p84
I8
sS'E'
p85
I15
sS'P'
p86
I10
sS'RP1'
p87
I8
sS'JP'
p88
I9
sS'RP_tot'
p89
I9
sS'TO'
p90
I8
sS'PA'
p91
I11
sS'M'
p92
I10
sS'R'
p93
I9
sS'TB'
p94
I7
sS'PL'
p95
I11
sS'TA'
p96
I8
ssS'fatigue'
p97
I0
sS'drop_ratees_total'
p98
I0
sS'blessures_total'
p99
I0
sS'XP'
p100
I0
sS'EV'
p101
F10.606060606060606
sS'penalite_ratees_total'
p102
I0
sS'drops'
p103
I0
sS'blessures_saison'
p104
I0
sS'jaunes_total'
p105
I0
sS'caracs_sans_fatigue'
p106
g81
sS'rouges_saison'
p107
I0
sS'anciens_clubs'
p108
S'APA10'
p109
sS'transformation_ratees_total'
p110
I0
sS'drops_saison'
p111
I0
sS'transformation_ratees_saison'
p112
I0
sS'MS'
p113
I2
sS'essais_total'
p114
I1
sS'jaunes_saison'
p115
I0
sS'ARM'
p116
S'HL'
p117
sbsS'SA_scd'
p118
(ijoueur
joueur
p119
(dp120
g27
I0
sg28
I0
sg29
I0
sg30
(ijoueur
rang
p121
(dp122
g33
I4
sg34
S'x'
p123
sg36
g37
sbsg38
(dp124
g40
I0
sg41
I0
sg42
I0
sg43
I0
ssg44
(dp125
g40
I0
sg41
I0
sg42
I0
sg43
I0
ssg46
I0
sg47
I0
sg48
I0
sg49
I0
sg50
I0
sg51
I0
sg52
I0
sg53
(g54
S'N8'
p126
S'TL'
p127
g57
tp128
sg59
(ijoueur
rang
p129
(dp130
g33
I4
sg34
g123
sg36
g37
sbsg62
(dp131
g40
I0
sg41
I0
sg42
I0
sg43
I0
ssg64
(dp132
g40
I0
sg41
I0
sg42
I0
sg43
I0
ssg66
(dp133
g40
I0
sg41
I0
sg42
I0
sg43
I0
ssg68
(dp134
g40
I0
sg41
I0
sg42
I0
sg43
I0
ssg70
I0
sg71
I0
sg72
S'Equyx'
p135
sg74
I10
sg75
I0
sg76
I21
sg77
I130
sg78
g79
sg80
(dp136
g82
I12
sg83
I8
sg84
I6
sg85
I9
sg86
I7
sg87
I9
sg88
I5
sg89
I9
sg90
I12
sg91
I10
sg92
I7
sg93
I8
sg94
I6
sg95
I15
sg96
I5
ssg97
I0
sg98
I0
sg99
I0
sg100
I0
sg101
F10.36111111111111
sg102
I0
sg103
I0
sg104
I0
sg105
I0
sg106
g136
sg107
I0
sg108
g57
sg110
I0
sg111
I0
sg112
I0
sg113
I12
sg114
I1
sg115
I0
sg116
S'CHS'
p137
sbsS'RJL'
p138
(ijoueur
joueur
p139
(dp140
g27
I0
sg28
I7
sg29
I0
sg30
(ijoueur
rang
p141
(dp142
g33
I3
sg34
S'^^^'
p143
sg36
S'rare'
p144
sbsg38
(dp145
g40
I0
sg41
I0
sg42
I0
sg43
I0
ssg44
(dp146
g40
I0
sg41
I0
sg42
I0
sg43
I0
ssg46
I0
sg47
I0
sg48
I0
sg49
I0
sg50
I0
sg51
I0
sg52
I0
sg53
(g54
S'DO'
p147
S'CE'
p148
g57
tp149
sg59
(ijoueur
rang
p150
(dp151
g33
I3
sg34
S'^^^'
p152
sg36
g144
sbsg62
(dp153
g40
I0
sg41
I0
sg42
I0
sg43
I0
ssg64
(dp154
g40
I0
sg41
I0
sg42
I0
sg43
I0
ssg66
(dp155
g40
I0
sg41
I0
sg42
I0
sg43
I0
ssg68
(dp156
g40
I0
sg41
I0
sg42
I0
sg43
I0
ssg70
I0
sg71
I0
sg72
S'Habdal'
p157
sg74
I8
sg75
I0
sg76
I17
sg77
I25
sg78
g79
sg80
(dp158
g82
I8
sg83
I4
sg84
I6
sg85
I10
sg86
I10
sg87
I7
sg88
I11
sg89
I7
sg90
I6
sg91
I11
sg92
I10
sg93
I8
sg94
I6
sg95
I8
sg96
I5
ssg97
I0
sg98
I0
sg99
I0
sg100
I0
sg101
F9.545454545454545
sg102
I0
sg103
I7
sg104
I0
sg105
I0
sg106
g158
sg107
I0
sg108
g57
sg110
I0
sg111
I0
sg112
I0
sg113
I3
sg114
I0
sg115
I0
sg116
S'HE'
p159
sbsS'cap'
p160
g25
sS'B4'
p161
g25
sS'RJC'
p162
g139
sS'B1'
p163
(ijoueur
joueur
p164
(dp165
g27
I0
sg28
I0
sg29
I0
sg30
(ijoueur
rang
p166
(dp167
g33
I4
sg34
g35
sg36
g37
sbsg38
(dp168
g40
I0
sg41
I0
sg42
I0
sg43
I0
ssg44
(dp169
g40
I0
sg41
I0
sg42
I0
sg43
I0
ssg46
I0
sg47
I0
sg48
I0
sg49
I0
sg50
I0
sg51
I0
sg52
I0
sg53
(g54
S'C2'
p170
S'AR'
p171
S'AI'
p172
tp173
sg59
(ijoueur
rang
p174
(dp175
g33
I4
sg34
g35
sg36
g37
sbsg62
(dp176
g40
I0
sg41
I0
sg42
I0
sg43
I0
ssg64
(dp177
g40
I0
sg41
I0
sg42
I0
sg43
I0
ssg66
(dp178
g40
I0
sg41
I0
sg42
I0
sg43
I0
ssg68
(dp179
g40
I0
sg41
I0
sg42
I0
sg43
I0
ssg70
I0
sg71
I0
sg72
S'Aralt'
p180
sg74
I3
sg75
I0
sg76
I13
sg77
I95
sg78
g79
sg80
(dp181
g82
I9
sg83
I5
sg84
I6
sg85
I10
sg86
I9
sg87
I10
sg88
I7
sg89
I10
sg90
I7
sg91
I14
sg92
I9
sg93
I8
sg94
I8
sg95
I13
sg96
I4
ssg97
I0
sg98
I0
sg99
I0
sg100
I0
sg101
F10.551724137931034
sg102
I0
sg103
I0
sg104
I0
sg105
I0
sg106
g181
sg107
I0
sg108
S'ALT9'
p182
sg110
I0
sg111
I0
sg112
I0
sg113
I7
sg114
I12
sg115
I0
sg116
S'EMP'
p183
sbsS'B2'
p184
g164
sS'B3'
p185
g164
sS'SA_pcp2'
p186
(ijoueur
joueur
p187
(dp188
g27
I0
sg28
I0
sg29
I0
sg30
(ijoueur
rang
p189
(dp190
g33
I4
sg34
g35
sg36
g37
sbsg38
(dp191
g40
I0
sg41
I0
sg42
I0
sg43
I0
ssg44
(dp192
g40
I0
sg41
I0
sg42
I0
sg43
I0
ssg46
I0
sg47
I0
sg48
I0
sg49
I0
sg50
I0
sg51
I0
sg52
I0
sg53
(g54
S'DL'
p193
g57
g57
tp194
sg59
(ijoueur
rang
p195
(dp196
g33
I4
sg34
g35
sg36
g37
sbsg62
(dp197
g40
I0
sg41
I0
sg42
I0
sg43
I0
ssg64
(dp198
g40
I0
sg41
I0
sg42
I0
sg43
I0
ssg66
(dp199
g40
I0
sg41
I0
sg42
I0
sg43
I0
ssg68
(dp200
g40
I0
sg41
I0
sg42
I0
sg43
I0
ssg70
I0
sg71
I0
sg72
S'Muss'
p201
sg74
I4
sg75
I0
sg76
I11
sg77
I98
sg78
g79
sg80
(dp202
g82
I10
sg83
I10
sg84
I9
sg85
I8
sg86
I7
sg87
I6
sg88
I5
sg89
I9
sg90
I13
sg91
I10
sg92
I8
sg93
I8
sg94
I5
sg95
I7
sg96
I6
ssg97
I0
sg98
I0
sg99
I0
sg100
I0
sg101
F9.441176470588236
sg102
I0
sg103
I0
sg104
I0
sg105
I0
sg106
g202
sg107
I0
sg108
S'TA10'
p203
sg110
I0
sg111
I0
sg112
I0
sg113
I12
sg114
I2
sg115
I0
sg116
S'S'
p204
sbsS'SA_pcp1'
p205
(ijoueur
joueur
p206
(dp207
g27
I0
sg28
I0
sg29
I0
sg30
(ijoueur
rang
p208
(dp209
g33
I5
sg34
S'**'
p210
sg36
S'seigneur'
p211
sbsg38
(dp212
g40
I0
sg41
I0
sg42
I0
sg43
I0
ssg44
(dp213
g40
I0
sg41
I0
sg42
I0
sg43
I0
ssg46
I0
sg47
I0
sg48
I0
sg49
I0
sg50
I0
sg51
I0
sg52
I0
sg53
(g54
S'DL'
p214
S'TL'
p215
S'N8'
p216
tp217
sg59
(ijoueur
rang
p218
(dp219
g33
I5
sg34
S'**'
p220
sg36
g211
sbsg62
(dp221
g40
I0
sg41
I0
sg42
I0
sg43
I0
ssg64
(dp222
g40
I0
sg41
I0
sg42
I0
sg43
I0
ssg66
(dp223
g40
I0
sg41
I0
sg42
I0
sg43
I0
ssg68
(dp224
g40
I0
sg41
I0
sg42
I0
sg43
I0
ssg70
I0
sg71
I0
sg72
S'Zysken'
p225
sg74
I1
sg75
I0
sg76
I12
sg77
I210
sg78
g79
sg80
(dp226
g82
I14
sg83
I10
sg84
I7
sg85
I10
sg86
I4
sg87
I13
sg88
I4
sg89
I13
sg90
I13
sg91
I11
sg92
I8
sg93
I9
sg94
I3
sg95
I13
sg96
I5
ssg97
I0
sg98
I0
sg99
I0
sg100
I0
sg101
F11.323529411764707
sg102
I0
sg103
I0
sg104
I0
sg105
I0
sg106
g226
sg107
I0
sg108
g57
sg110
I0
sg111
I0
sg112
I0
sg113
I21
sg114
I5
sg115
I0
sg116
S'CHS'
p227
sbsS'drop3'
p228
g25
sS'SA_remp1'
p229
(ijoueur
joueur
p230
(dp231
g27
I0
sg28
I0
sg29
I0
sg30
(ijoueur
rang
p232
(dp233
g33
I5
sg34
S'**'
p234
sg36
g211
sbsg38
(dp235
g40
I0
sg41
I0
sg42
I0
sg43
I0
ssg44
(dp236
g40
I0
sg41
I0
sg42
I0
sg43
I0
ssg46
I0
sg47
I0
sg48
I0
sg49
I0
sg50
I0
sg51
I0
sg52
I0
sg53
(g54
S'TL'
p237
S'DL'
p238
g57
tp239
sg59
(ijoueur
rang
p240
(dp241
g33
I5
sg34
S'**'
p242
sg36
g211
sbsg62
(dp243
g40
I0
sg41
I0
sg42
I0
sg43
I0
ssg64
(dp244
g40
I0
sg41
I0
sg42
I0
sg43
I0
ssg66
(dp245
g40
I0
sg41
I0
sg42
I0
sg43
I0
ssg68
(dp246
g40
I0
sg41
I0
sg42
I0
sg43
I0
ssg70
I0
sg71
I0
sg72
S'Obolendt'
p247
sg74
I6
sg75
I0
sg76
I20
sg77
I140
sg78
g79
sg80
(dp248
g82
I13
sg83
I10
sg84
I9
sg85
I10
sg86
I7
sg87
I7
sg88
I5
sg89
I9
sg90
I11
sg91
I10
sg92
I10
sg93
I10
sg94
I6
sg95
I11
sg96
I6
ssg97
I0
sg98
I0
sg99
I0
sg100
I0
sg101
F10.473684210526315
sg102
I0
sg103
I0
sg104
I0
sg105
I0
sg106
g248
sg107
I0
sg108
S'MSL9'
p249
sg110
I0
sg111
I0
sg112
I0
sg113
I12
sg114
I6
sg115
I0
sg116
S'CV'
p250
sbsS'drop2'
p251
g139
sS'SA_remp2'
p252
(ijoueur
joueur
p253
(dp254
g27
I0
sg28
I0
sg29
I0
sg30
(ijoueur
rang
p255
(dp256
g33
I5
sg34
S'**'
p257
sg36
g211
sbsg38
(dp258
g40
I0
sg41
I0
sg42
I0
sg43
I0
ssg44
(dp259
g40
I0
sg41
I0
sg42
I0
sg43
I0
ssg46
I0
sg47
I0
sg48
I0
sg49
I0
sg50
I0
sg51
I0
sg52
I0
sg53
(g54
S'PI'
p260
S'N8'
p261
S'TA'
p262
tp263
sg59
(ijoueur
rang
p264
(dp265
g33
I5
sg34
S'**'
p266
sg36
g211
sbsg62
(dp267
g40
I0
sg41
I0
sg42
I0
sg43
I0
ssg64
(dp268
g40
I0
sg41
I0
sg42
I0
sg43
I0
ssg66
(dp269
g40
I0
sg41
I0
sg42
I0
sg43
I0
ssg68
(dp270
g40
I0
sg41
I0
sg42
I0
sg43
I0
ssg70
I0
sg71
I0
sg72
S'Stavehyr'
p271
sg74
I4
sg75
I0
sg76
I11
sg77
I210
sg78
g79
sg80
(dp272
g82
I11
sg83
I10
sg84
I7
sg85
I9
sg86
I5
sg87
I11
sg88
I2
sg89
I11
sg90
I10
sg91
I13
sg92
I6
sg93
I10
sg94
I3
sg95
I14
sg96
I8
ssg97
I0
sg98
I0
sg99
I0
sg100
I0
sg101
F10.62962962962963
sg102
I0
sg103
I0
sg104
I0
sg105
I0
sg106
g272
sg107
I0
sg108
g57
sg110
I0
sg111
I0
sg112
I0
sg113
I21
sg114
I7
sg115
I0
sg116
S'CHS'
p273
sbssS'totaux'
p274
(dp275
g19
I0
sg20
I0
sg21
I0
ssS'_compo_defaut_fatigue'
p276
Nsg80
(dp277
g4
I0
sg5
I0
sg6
I0
sg7
I0
sg8
I0
sg9
I0
sg10
I0
sg11
I0
sg12
I0
sg13
I0
sg14
I0
sg15
I0
sg16
I0
ssS'joueurs'
p278
(dp279
S'n12'
p280
g25
sS'n13'
p281
(ijoueur
joueur
p282
(dp283
g27
I0
sg28
I0
sg29
I0
sg30
(ijoueur
rang
p284
(dp285
g33
I4
sg34
g35
sg36
g37
sbsg38
(dp286
g40
I0
sg41
I0
sg42
I0
sg43
I0
ssg44
(dp287
g40
I0
sg41
I0
sg42
I0
sg43
I0
ssg46
I0
sg47
I0
sg48
I0
sg49
I0
sg50
I0
sg51
I0
sg52
I0
sg53
(g54
S'C2'
p288
S'AI'
p289
S'AR'
p290
tp291
sg59
(ijoueur
rang
p292
(dp293
g33
I2
sg34
S'<<'
p294
sg36
S'special'
p295
sbsg62
(dp296
g40
I0
sg41
I0
sg42
I0
sg43
I0
ssg64
(dp297
g40
I0
sg41
I0
sg42
I0
sg43
I0
ssg66
(dp298
g40
I0
sg41
I0
sg42
I0
sg43
I0
ssg68
(dp299
g40
I0
sg41
I0
sg42
I0
sg43
I0
ssg70
I0
sg71
I0
sg72
S'Braklyr'
p300
sg74
I11
sg75
I0
sg76
I20
sg77
I41
sg78
g79
sg80
(dp301
g82
I9
sg83
I6
sg84
I6
sg85
I9
sg86
I6
sg87
I9
sg88
I7
sg89
I9
sg90
I5
sg91
I10
sg92
I9
sg93
I7
sg94
I6
sg95
I11
sg96
I6
ssg97
I0
sg98
I0
sg99
I0
sg100
I0
sg101
F9.172413793103448
sg102
I0
sg103
I0
sg104
I0
sg105
I0
sg106
g301
sg107
I0
sg108
g57
sg110
I0
sg111
I0
sg112
I0
sg113
I4
sg114
I0
sg115
I0
sg116
S'CHS'
p302
sbsS'n10'
p303
(ijoueur
joueur
p304
(dp305
g27
I0
sg28
I0
sg29
I0
sg30
(ijoueur
rang
p306
(dp307
g33
I2
sg34
S'<<'
p308
sg36
g295
sbsg38
(dp309
g40
I0
sg41
I0
sg42
I0
sg43
I0
ssg44
(dp310
g40
I0
sg41
I0
sg42
I0
sg43
I0
ssg46
I0
sg47
I0
sg48
I0
sg49
I1
sg50
I0
sg51
I0
sg52
I0
sg53
(g54
S'DO'
p311
S'CE'
p312
S'AR'
p313
tp314
sg59
(ijoueur
rang
p315
(dp316
g33
I2
sg34
S'<<'
p317
sg36
g295
sbsg62
(dp318
g40
I0
sg41
I0
sg42
I0
sg43
I0
ssg64
(dp319
g40
I0
sg41
I0
sg42
I0
sg43
I0
ssg66
(dp320
g40
I0
sg41
I0
sg42
I0
sg43
I0
ssg68
(dp321
g40
I0
sg41
I0
sg42
I0
sg43
I0
ssg70
I1
sg71
I1
sg72
S'Dyrthied'
p322
sg74
I11
sg75
I0
sg76
I22
sg77
I25
sg78
g79
sg80
(dp323
g82
I8
sg83
I5
sg84
I6
sg85
I9
sg86
I10
sg87
I7
sg88
I8
sg89
I7
sg90
I7
sg91
I11
sg92
I10
sg93
I7
sg94
I8
sg95
I11
sg96
I6
ssg97
I0
sg98
I0
sg99
I0
sg100
I0
sg101
F9.303030303030303
sg102
I0
sg103
I0
sg104
I0
sg105
I0
sg106
g323
sg107
I0
sg108
g57
sg110
I0
sg111
I0
sg112
I0
sg113
I5
sg114
I0
sg115
I0
sg116
S'CHS'
p324
sbsS'n11'
p325
(ijoueur
joueur
p326
(dp327
g27
I0
sg28
I0
sg29
I0
sg30
(ijoueur
rang
p328
(dp329
g33
I5
sg34
S'**'
p330
sg36
g211
sbsg38
(dp331
g40
I0
sg41
I0
sg42
I0
sg43
I0
ssg44
(dp332
g40
I0
sg41
I0
sg42
I0
sg43
I0
ssg46
I0
sg47
I0
sg48
I0
sg49
I0
sg50
I0
sg51
I0
sg52
I0
sg53
(g54
S'C2'
p333
S'AI'
p334
S'DM'
p335
tp336
sg59
(ijoueur
rang
p337
(dp338
g33
I5
sg34
S'**'
p339
sg36
g211
sbsg62
(dp340
g40
I0
sg41
I0
sg42
I0
sg43
I0
ssg64
(dp341
g40
I0
sg41
I0
sg42
I0
sg43
I0
ssg66
(dp342
g40
I0
sg41
I0
sg42
I0
sg43
I0
ssg68
(dp343
g40
I0
sg41
I0
sg42
I0
sg43
I0
ssg70
I0
sg71
I0
sg72
S'Mill'
p344
sg74
I8
sg75
I0
sg76
I20
sg77
I145
sg78
g79
sg80
(dp345
g82
I10
sg83
I4
sg84
I11
sg85
I11
sg86
I8
sg87
I9
sg88
I7
sg89
I13
sg90
I5
sg91
I12
sg92
I10
sg93
I6
sg94
I6
sg95
I13
sg96
I6
ssg97
I0
sg98
I0
sg99
I0
sg100
I0
sg101
F11.0
sg102
I0
sg103
I0
sg104
I0
sg105
I0
sg106
g345
sg107
I0
sg108
g57
sg110
I0
sg111
I0
sg112
I0
sg113
I15
sg114
I4
sg115
I0
sg116
S'EMP'
p346
sbsS'n16'
p347
(ijoueur
joueur
p348
(dp349
g27
I0
sg28
I0
sg29
I0
sg30
(ijoueur
rang
p350
(dp351
g33
I4
sg34
g35
sg36
g37
sbsg38
(dp352
g40
I0
sg41
I0
sg42
I0
sg43
I0
ssg44
(dp353
g40
I0
sg41
I0
sg42
I0
sg43
I0
ssg46
I0
sg47
I0
sg48
I0
sg49
I0
sg50
I0
sg51
I0
sg52
I0
sg53
(g54
S'TA'
p354
g57
g57
tp355
sg59
(ijoueur
rang
p356
(dp357
g33
I1
sg34
S'^'
p358
sg36
S'base'
p359
sbsg62
(dp360
g40
I0
sg41
I0
sg42
I0
sg43
I0
ssg64
(dp361
g40
I0
sg41
I0
sg42
I0
sg43
I0
ssg66
(dp362
g40
I0
sg41
I0
sg42
I0
sg43
I0
ssg68
(dp363
g40
I0
sg41
I0
sg42
I0
sg43
I0
ssg70
I0
sg71
I0
sg72
S'Wadwyr'
p364
sg74
I11
sg75
I0
sg76
I23
sg77
I21
sg78
g79
sg80
(dp365
g82
I8
sg83
I9
sg84
I6
sg85
I10
sg86
I3
sg87
I8
sg88
I2
sg89
I8
sg90
I5
sg91
I8
sg92
I7
sg93
I8
sg94
I0
sg95
I9
sg96
I9
ssg97
I0
sg98
I0
sg99
I0
sg100
I0
sg101
F8.620689655172415
sg102
I0
sg103
I0
sg104
I0
sg105
I0
sg106
g365
sg107
I0
sg108
g57
sg110
I0
sg111
I0
sg112
I0
sg113
I3
sg114
I0
sg115
I0
sg116
S'CHS'
p366
sbsS'n17'
p367
(ijoueur
joueur
p368
(dp369
g27
I0
sg28
I0
sg29
I0
sg30
(ijoueur
rang
p370
(dp371
g33
I5
sg34
S'**'
p372
sg36
g211
sbsg38
(dp373
g40
I0
sg41
I0
sg42
I0
sg43
I0
ssg44
(dp374
g40
I0
sg41
I0
sg42
I0
sg43
I0
ssg46
I0
sg47
I0
sg48
I0
sg49
I0
sg50
I0
sg51
I0
sg52
I0
sg53
(g54
S'PI'
p375
g57
g57
tp376
sg59
(ijoueur
rang
p377
(dp378
g33
I5
sg34
S'**'
p379
sg36
g211
sbsg62
(dp380
g40
I0
sg41
I0
sg42
I0
sg43
I0
ssg64
(dp381
g40
I0
sg41
I0
sg42
I0
sg43
I0
ssg66
(dp382
g40
I0
sg41
I0
sg42
I0
sg43
I0
ssg68
(dp383
g40
I0
sg41
I0
sg42
I0
sg43
I0
ssg70
I0
sg71
I0
sg72
S'Aked'
p384
sg74
I6
sg75
I0
sg76
I18
sg77
I105
sg78
g79
sg80
(dp385
g82
I9
sg83
I10
sg84
I10
sg85
I10
sg86
I5
sg87
I9
sg88
I7
sg89
I12
sg90
I9
sg91
I10
sg92
I7
sg93
I5
sg94
I6
sg95
I9
sg96
I7
ssg97
I0
sg98
I0
sg99
I0
sg100
I0
sg101
F8.882352941176471
sg102
I0
sg103
I0
sg104
I0
sg105
I0
sg106
g385
sg107
I0
sg108
S'ED9'
p386
sg110
I0
sg111
I0
sg112
I0
sg113
I9
sg114
I3
sg115
I0
sg116
g204
sbsS'n14'
p387
(ijoueur
joueur
p388
(dp389
g27
I0
sg28
I0
sg29
I0
sg30
(ijoueur
rang
p390
(dp391
g33
I4
sg34
g35
sg36
g37
sbsg38
(dp392
g40
I0
sg41
I0
sg42
I0
sg43
I0
ssg44
(dp393
g40
I0
sg41
I0
sg42
I0
sg43
I0
ssg46
I0
sg47
I0
sg48
I0
sg49
I0
sg50
I0
sg51
I0
sg52
I0
sg53
(g54
S'AI'
p394
g57
g57
tp395
sg59
(ijoueur
rang
p396
(dp397
g33
I4
sg34
g35
sg36
g37
sbsg62
(dp398
g40
I0
sg41
I0
sg42
I0
sg43
I0
ssg64
(dp399
g40
I0
sg41
I0
sg42
I0
sg43
I0
ssg66
(dp400
g40
I0
sg41
I0
sg42
I0
sg43
I0
ssg68
(dp401
g40
I0
sg41
I0
sg42
I0
sg43
I0
ssg70
I0
sg71
I0
sg72
S'Qapry'
p402
sg74
I8
sg75
I0
sg76
I19
sg77
I80
sg78
g79
sg80
(dp403
g82
I10
sg83
I5
sg84
I10
sg85
I8
sg86
I10
sg87
I7
sg88
I8
sg89
I10
sg90
I6
sg91
I8
sg92
I9
sg93
I8
sg94
I5
sg95
I8
sg96
I5
ssg97
I0
sg98
I0
sg99
I0
sg100
I0
sg101
F9.0
sg102
I0
sg103
I0
sg104
I0
sg105
I0
sg106
g403
sg107
I0
sg108
g57
sg110
I0
sg111
I0
sg112
I0
sg113
I8
sg114
I0
sg115
I0
sg116
S'CHS'
p404
sbsS'n15'
p405
g164
sS'n18'
p406
(ijoueur
joueur
p407
(dp408
g27
I0
sg28
I0
sg29
I0
sg30
(ijoueur
rang
p409
(dp410
g33
I1
sg34
S'>'
p411
sg36
g359
sbsg38
(dp412
g40
I0
sg41
I0
sg42
I0
sg43
I0
ssg44
(dp413
g40
I0
sg41
I0
sg42
I0
sg43
I0
ssg46
I0
sg47
I0
sg48
I0
sg49
I0
sg50
I0
sg51
I0
sg52
I0
sg53
(g54
S'TL'
p414
S'DL'
p415
S'TA'
p416
tp417
sg59
(ijoueur
rang
p418
(dp419
g33
I1
sg34
g411
sg36
g359
sbsg62
(dp420
g40
I0
sg41
I0
sg42
I0
sg43
I0
ssg64
(dp421
g40
I0
sg41
I0
sg42
I0
sg43
I0
ssg66
(dp422
g40
I0
sg41
I0
sg42
I0
sg43
I0
ssg68
(dp423
g40
I0
sg41
I0
sg42
I0
sg43
I0
ssg70
I0
sg71
I0
sg72
S'Paad'
p424
sg74
I2
sg75
I0
sg76
I15
sg77
I50
sg78
g79
sg80
(dp425
g82
I9
sg83
I11
sg84
I6
sg85
I8
sg86
I4
sg87
I10
sg88
I4
sg89
I10
sg90
I9
sg91
I7
sg92
I8
sg93
I9
sg94
I4
sg95
I7
sg96
I6
ssg97
I0
sg98
I0
sg99
I0
sg100
I0
sg101
F8.68421052631579
sg102
I0
sg103
I0
sg104
I0
sg105
I0
sg106
g425
sg107
I0
sg108
S'TO10'
p426
sg110
I0
sg111
I0
sg112
I0
sg113
I5
sg114
I3
sg115
I0
sg116
S'HL'
p427
sbsS'n19'
p428
(ijoueur
joueur
p429
(dp430
g27
I0
sg28
I0
sg29
I0
sg30
(ijoueur
rang
p431
(dp432
g33
I4
sg34
g35
sg36
g37
sbsg38
(dp433
g40
I0
sg41
I0
sg42
I0
sg43
I0
ssg44
(dp434
g40
I0
sg41
I0
sg42
I0
sg43
I0
ssg46
I0
sg47
I0
sg48
I0
sg49
I0
sg50
I0
sg51
I0
sg52
I0
sg53
(g54
S'TL'
p435
S'DL'
p436
g57
tp437
sg59
(ijoueur
rang
p438
(dp439
g33
I4
sg34
g35
sg36
g37
sbsg62
(dp440
g40
I0
sg41
I0
sg42
I0
sg43
I0
ssg64
(dp441
g40
I0
sg41
I0
sg42
I0
sg43
I0
ssg66
(dp442
g40
I0
sg41
I0
sg42
I0
sg43
I0
ssg68
(dp443
g40
I0
sg41
I0
sg42
I0
sg43
I0
ssg70
I0
sg71
I0
sg72
S'Xhyrev'
p444
sg74
I8
sg75
I0
sg76
I19
sg77
I60
sg78
g79
sg80
(dp445
g82
I5
sg83
I10
sg84
I9
sg85
I11
sg86
I4
sg87
I7
sg88
I3
sg89
I9
sg90
I5
sg91
I6
sg92
I8
sg93
I8
sg94
I3
sg95
I9
sg96
I2
ssg97
I0
sg98
I0
sg99
I0
sg100
I0
sg101
F8.483870967741936
sg102
I0
sg103
I0
sg104
I0
sg105
I0
sg106
g445
sg107
I0
sg108
g57
sg110
I0
sg111
I0
sg112
I0
sg113
I6
sg114
I1
sg115
I0
sg116
S'CV'
p446
sbsS'n22'
p447
(ijoueur
joueur
p448
(dp449
g27
I0
sg28
I1
sg29
I0
sg30
(ijoueur
rang
p450
(dp451
g33
I5
sg34
S'xx'
p452
sg36
g211
sbsg38
(dp453
g40
I0
sg41
I0
sg42
I0
sg43
I0
ssg44
(dp454
g40
I0
sg41
I0
sg42
I0
sg43
I0
ssg46
I0
sg47
I0
sg48
I1
sg49
I3
sg50
I0
sg51
I0
sg52
I0
sg53
(g54
S'AI'
p455
S'AR'
p456
S'CE'
p457
tp458
sg59
(ijoueur
rang
p459
(dp460
g33
I5
sg34
S'xx'
p461
sg36
g211
sbsg62
(dp462
g40
I0
sg41
I0
sg42
I0
sg43
I0
ssg64
(dp463
g40
I0
sg41
I0
sg42
I0
sg43
I0
ssg66
(dp464
g40
I0
sg41
I0
sg42
I0
sg43
I0
ssg68
(dp465
g40
I0
sg41
I0
sg42
I0
sg43
I0
ssg70
I3
sg71
I0
sg72
S'Meblann'
p466
sg74
I-1
sg75
I2
sg76
I9
sg77
I50
sg78
g79
sg80
(dp467
g82
I10
sg83
I4
sg84
I7
sg85
I10
sg86
I9
sg87
I8
sg88
I6
sg89
I8
sg90
I4
sg91
I7
sg92
I10
sg93
I7
sg94
I8
sg95
I8
sg96
I4
ssg97
I0
sg98
I0
sg99
I0
sg100
I0
sg101
F8.806451612903226
sg102
I0
sg103
I1
sg104
I0
sg105
I0
sg106
g467
sg107
I0
sg108
g57
sg110
I0
sg111
I0
sg112
I0
sg113
I8
sg114
I1
sg115
I0
sg116
S'EMP'
p468
sbsS'n21'
p469
(ijoueur
joueur
p470
(dp471
g27
I0
sg28
I0
sg29
I0
sg30
(ijoueur
rang
p472
(dp473
g33
I2
sg34
S'^^'
p474
sg36
g295
sbsg38
(dp475
g40
I0
sg41
I0
sg42
I0
sg43
I0
ssg44
(dp476
g40
I0
sg41
I0
sg42
I0
sg43
I0
ssg46
I0
sg47
I0
sg48
I0
sg49
I0
sg50
I0
sg51
I0
sg52
I0
sg53
(g54
S'C1'
p477
S'DO'
p478
S'DM'
p479
tp480
sg59
(ijoueur
rang
p481
(dp482
g33
I2
sg34
S'^^'
p483
sg36
g295
sbsg62
(dp484
g40
I0
sg41
I0
sg42
I0
sg43
I0
ssg64
(dp485
g40
I0
sg41
I0
sg42
I0
sg43
I0
ssg66
(dp486
g40
I0
sg41
I0
sg42
I0
sg43
I0
ssg68
(dp487
g40
I0
sg41
I0
sg42
I0
sg43
I0
ssg70
I0
sg71
I0
sg72
S'Myhed'
p488
sg74
I9
sg75
I0
sg76
I19
sg77
I63
sg78
g79
sg80
(dp489
g82
I10
sg83
I6
sg84
I6
sg85
I9
sg86
I9
sg87
I8
sg88
I8
sg89
I8
sg90
I7
sg91
I11
sg92
I9
sg93
I7
sg94
I6
sg95
I10
sg96
I6
ssg97
I0
sg98
I0
sg99
I0
sg100
I0
sg101
F9.233333333333333
sg102
I0
sg103
I0
sg104
I0
sg105
I0
sg106
g489
sg107
I0
sg108
g57
sg110
I0
sg111
I0
sg112
I0
sg113
I7
sg114
I0
sg115
I0
sg116
S'CHS'
p490
sbsS'n20'
p491
g139
sS'n8'
p492
g206
sS'n9'
p493
(ijoueur
joueur
p494
(dp495
g27
I0
sg28
I0
sg29
I0
sg30
(ijoueur
rang
p496
(dp497
g33
I4
sg34
g35
sg36
g37
sbsg38
(dp498
g40
I0
sg41
I0
sg42
I0
sg43
I0
ssg44
(dp499
g40
I0
sg41
I0
sg42
I0
sg43
I0
ssg46
I0
sg47
I0
sg48
I0
sg49
I0
sg50
I0
sg51
I0
sg52
I0
sg53
(g54
S'DM'
p500
S'DO'
p501
g57
tp502
sg59
(ijoueur
rang
p503
(dp504
g33
I4
sg34
g35
sg36
g37
sbsg62
(dp505
g40
I0
sg41
I0
sg42
I0
sg43
I0
ssg64
(dp506
g40
I0
sg41
I0
sg42
I0
sg43
I0
ssg66
(dp507
g40
I0
sg41
I0
sg42
I0
sg43
I0
ssg68
(dp508
g40
I0
sg41
I0
sg42
I0
sg43
I0
ssg70
I0
sg71
I0
sg72
S'Joherd'
p509
sg74
I2
sg75
I0
sg76
I12
sg77
I80
sg78
g79
sg80
(dp510
g82
I11
sg83
I3
sg84
I9
sg85
I9
sg86
I9
sg87
I8
sg88
I8
sg89
I10
sg90
I4
sg91
I13
sg92
I7
sg93
I7
sg94
I8
sg95
I10
sg96
I4
ssg97
I0
sg98
I0
sg99
I0
sg100
I0
sg101
F9.862068965517242
sg102
I0
sg103
I0
sg104
I0
sg105
I0
sg106
g510
sg107
I0
sg108
g57
sg110
I0
sg111
I0
sg112
I0
sg113
I8
sg114
I2
sg115
I0
sg116
S'CHS'
p511
sbsS'n1'
p512
g253
sS'n2'
p513
(ijoueur
joueur
p514
(dp515
g27
I0
sg28
I0
sg29
I0
sg30
(ijoueur
rang
p516
(dp517
g33
I4
sg34
g35
sg36
g37
sbsg38
(dp518
g40
I0
sg41
I0
sg42
I0
sg43
I0
ssg44
(dp519
g40
I0
sg41
I0
sg42
I0
sg43
I0
ssg46
I0
sg47
I0
sg48
I0
sg49
I0
sg50
I0
sg51
I0
sg52
I0
sg53
(g54
S'TA'
p520
S'PI'
p521
g57
tp522
sg59
(ijoueur
rang
p523
(dp524
g33
I4
sg34
g35
sg36
g37
sbsg62
(dp525
g40
I0
sg41
I0
sg42
I0
sg43
I0
ssg64
(dp526
g40
I0
sg41
I0
sg42
I0
sg43
I0
ssg66
(dp527
g40
I0
sg41
I0
sg42
I0
sg43
I0
ssg68
(dp528
g40
I0
sg41
I0
sg42
I0
sg43
I0
ssg70
I0
sg71
I0
sg72
S'Cloendal'
p529
sg74
I2
sg75
I0
sg76
I14
sg77
I80
sg78
g79
sg80
(dp530
g82
I10
sg83
I11
sg84
I7
sg85
I10
sg86
I5
sg87
I10
sg88
I2
sg89
I10
sg90
I6
sg91
I8
sg92
I7
sg93
I11
sg94
I3
sg95
I11
sg96
I11
ssg97
I0
sg98
I0
sg99
I0
sg100
I0
sg101
F10.413793103448276
sg102
I0
sg103
I0
sg104
I0
sg105
I0
sg106
g530
sg107
I0
sg108
g57
sg110
I0
sg111
I0
sg112
I0
sg113
I8
sg114
I0
sg115
I0
sg116
S'CHS'
p531
sbsS'n3'
p532
(ijoueur
joueur
p533
(dp534
g27
I0
sg28
I0
sg29
I0
sg30
(ijoueur
rang
p535
(dp536
g33
I4
sg34
g123
sg36
g37
sbsg38
(dp537
g40
I0
sg41
I0
sg42
I0
sg43
I0
ssg44
(dp538
g40
I0
sg41
I0
sg42
I0
sg43
I0
ssg46
I0
sg47
I0
sg48
I0
sg49
I0
sg50
I0
sg51
I0
sg52
I0
sg53
(g54
S'PI'
p539
S'TL'
p540
g57
tp541
sg59
(ijoueur
rang
p542
(dp543
g33
I2
sg34
S'<<'
p544
sg36
g295
sbsg62
(dp545
g40
I0
sg41
I0
sg42
I0
sg43
I0
ssg64
(dp546
g40
I0
sg41
I0
sg42
I0
sg43
I0
ssg66
(dp547
g40
I0
sg41
I0
sg42
I0
sg43
I0
ssg68
(dp548
g40
I0
sg41
I0
sg42
I0
sg43
I0
ssg70
I0
sg71
I0
sg72
S'Kareops'
p549
sg74
I11
sg75
I0
sg76
I20
sg77
I51
sg78
g79
sg80
(dp550
g82
I11
sg83
I7
sg84
I6
sg85
I10
sg86
I3
sg87
I9
sg88
I4
sg89
I9
sg90
I6
sg91
I8
sg92
I7
sg93
I10
sg94
I0
sg95
I10
sg96
I8
ssg97
I0
sg98
I0
sg99
I0
sg100
I0
sg101
F9.185185185185185
sg102
I0
sg103
I0
sg104
I0
sg105
I0
sg106
g550
sg107
I0
sg108
g57
sg110
I0
sg111
I0
sg112
I0
sg113
I4
sg114
I0
sg115
I0
sg116
S'CHS'
p551
sbsS'n4'
p552
g187
sS'n5'
p553
(ijoueur
joueur
p554
(dp555
g27
I0
sg28
I0
sg29
I0
sg30
(ijoueur
rang
p556
(dp557
g33
I1
sg34
S'<'
p558
sg36
g359
sbsg38
(dp559
g40
I0
sg41
I0
sg42
I0
sg43
I0
ssg44
(dp560
g40
I0
sg41
I0
sg42
I0
sg43
I0
ssg46
I0
sg47
I0
sg48
I0
sg49
I0
sg50
I0
sg51
I0
sg52
I0
sg53
(g54
S'DL'
p561
S'PI'
p562
g57
tp563
sg59
(ijoueur
rang
p564
(dp565
g33
I1
sg34
g558
sg36
g359
sbsg62
(dp566
g40
I0
sg41
I0
sg42
I0
sg43
I0
ssg64
(dp567
g40
I0
sg41
I0
sg42
I0
sg43
I0
ssg66
(dp568
g40
I0
sg41
I0
sg42
I0
sg43
I0
ssg68
(dp569
g40
I0
sg41
I0
sg42
I0
sg43
I0
ssg70
I0
sg71
I0
sg72
S'Haradt'
p570
sg74
I3
sg75
I0
sg76
I16
sg77
I20
sg78
g79
sg80
(dp571
g82
I9
sg83
I13
sg84
I8
sg85
I9
sg86
I3
sg87
I9
sg88
I3
sg89
I10
sg90
I9
sg91
I6
sg92
I6
sg93
I11
sg94
I2
sg95
I7
sg96
I4
ssg97
I0
sg98
I0
sg99
I0
sg100
I0
sg101
F9.74074074074074
sg102
I0
sg103
I0
sg104
I0
sg105
I0
sg106
g571
sg107
I0
sg108
S'DKF11'
p572
sg110
I0
sg111
I0
sg112
I0
sg113
I2
sg114
I0
sg115
I0
sg116
S'CV'
p573
sbsS'n6'
p574
g119
sS'n7'
p575
g230
ssS'remplacements'
p576
(dp577
g347
S'n0'
p578
sg367
g578
sg406
g578
sg428
g578
sg447
g578
sg469
g578
sg491
g578
ssb.