(iclub
compo
p0
(dp1
S'caracs_old'
p2
(dp3
S'A'
p4
F169.5
sS'ME'
p5
F117.0
sS'E'
p6
I229
sS'OplusAV'
p7
F89.0
sS'TO_off'
p8
F121.0
sS'OplusAR'
p9
F90.5
sS'M'
p10
F63.5
sS'JP'
p11
F101.5
sS'OmoinsAR'
p12
F74.5
sS'PA'
p13
F97.0
sS'TO_def'
p14
F109.0
sS'OmoinsAV'
p15
F61.5
sS'R'
p16
F193.5
ssS'totaux_old'
p17
(dp18
S'T2'
p19
F184.0
sS'T3'
p20
F114.5
sS'T1'
p21
F212.75
ssS'roles'
p22
(dp23
S'drop1'
p24
(ijoueur
joueur
p25
(dp26
S'rouges_total'
p27
I0
sS'drops_total'
p28
I18
sS'blessure'
p29
I0
sS'RG_max'
p30
(ijoueur
rang
p31
(dp32
S'type_nb'
p33
I2
sS'rang'
p34
S'^^'
p35
sS'type'
p36
S'special'
p37
sbsS'MJ2_total'
p38
(dp39
S'SR'
p40
I0
sS'ST'
p41
I0
sS'CR'
p42
I0
sS'CT'
p43
I1
ssS'MJ3_total'
p44
(dp45
g40
I0
sg41
I0
sg42
I0
sg43
I0
ssS'drop_rates_total'
p46
I0
sS'drop_rates_saison'
p47
I0
sS'transformations'
p48
I0
sS'penalites'
p49
I0
sS'essais_saison'
p50
I0
sS'penalite_ratees_saison'
p51
I0
sS'transformations_saison'
p52
I0
sS'postes'
p53
(S'dummy'
p54
S'DO'
p55
S'CE'
p56
S'AR'
p57
tp58
sS'RG'
p59
(ijoueur
rang
p60
(dp61
g33
I2
sg34
S'^^'
p62
sg36
g37
sbsS'MJ1'
p63
(dp64
g40
I0
sg41
I0
sg42
I0
sg43
I0
ssS'MJ2'
p65
(dp66
g40
I0
sg41
I0
sg42
I0
sg43
I1
ssS'MJ3'
p67
(dp68
g40
I0
sg41
I0
sg42
I0
sg43
I0
ssS'MJ1_total'
p69
(dp70
g40
I0
sg41
I0
sg42
I0
sg43
I0
ssS'penalites_total'
p71
I0
sS'penalites_saison'
p72
I0
sS'nom'
p73
S'Vistaed'
p74
sS'C'
p75
I4
sS'transformations_total'
p76
I0
sS'D'
p77
I14
sS'VAL'
p78
I24
sS'club'
p79
S'DKW'
p80
sS'caracs'
p81
(dp82
S'A'
p83
I12
sS'ME'
p84
I3
sS'RP2'
p85
I8
sS'E'
p86
I11
sS'TO'
p87
I7
sS'RP1'
p88
I8
sS'JP'
p89
I11
sS'RP_tot'
p90
I9
sS'P'
p91
I10
sS'PA'
p92
I10
sS'M'
p93
I8
sS'R'
p94
I8
sS'TB'
p95
I10
sS'PL'
p96
I14
sS'TA'
p97
I5
ssS'fatigue'
p98
I4
sS'drop_ratees_total'
p99
I0
sS'blessures_total'
p100
I0
sS'XP'
p101
I0
sS'EV'
p102
F10.606060606060606
sS'penalite_ratees_total'
p103
I0
sS'drops'
p104
I18
sS'blessures_saison'
p105
I0
sS'jaunes_total'
p106
I0
sS'caracs_sans_fatigue'
p107
g82
sS'rouges_saison'
p108
I0
sS'anciens_clubs'
p109
S''
p110
sS'transformation_ratees_total'
p111
I0
sS'drops_saison'
p112
I0
sS'transformation_ratees_saison'
p113
I0
sS'MS'
p114
I2
sS'essais_total'
p115
I9
sS'jaunes_saison'
p116
I0
sS'ARM'
p117
S'HE'
p118
sbsS'SA_scd'
p119
(ijoueur
joueur
p120
(dp121
g27
I0
sg28
I0
sg29
I0
sg30
(ijoueur
rang
p122
(dp123
g33
I5
sg34
S'xx'
p124
sg36
S'seigneur'
p125
sbsg38
(dp126
g40
I0
sg41
I0
sg42
I0
sg43
I0
ssg44
(dp127
g40
I0
sg41
I0
sg42
I0
sg43
I0
ssg46
I0
sg47
I0
sg48
I0
sg49
I0
sg50
I0
sg51
I0
sg52
I0
sg53
(g54
S'DL'
p128
S'PI'
p129
g110
tp130
sg59
(ijoueur
rang
p131
(dp132
g33
I4
sg34
S'*'
p133
sg36
S'heros'
p134
sbsg63
(dp135
g40
I0
sg41
I0
sg42
I0
sg43
I1
ssg65
(dp136
g40
I0
sg41
I0
sg42
I0
sg43
I0
ssg67
(dp137
g40
I0
sg41
I0
sg42
I0
sg43
I0
ssg69
(dp138
g40
I0
sg41
I0
sg42
I0
sg43
I1
ssg71
I0
sg72
I0
sg73
S'Cashak'
p139
sg75
I10
sg76
I0
sg77
I19
sg78
I210
sg79
g80
sg81
(dp140
g83
I9
sg84
I14
sg85
I7
sg86
I13
sg87
I11
sg88
I13
sg89
I4
sg90
I13
sg91
I7
sg92
I7
sg93
I10
sg94
I12
sg95
I6
sg96
I9
sg97
I6
ssg98
I4
sg99
I0
sg100
I0
sg101
I0
sg102
F11.666666666666666
sg103
I0
sg104
I0
sg105
I0
sg106
I0
sg107
g140
sg108
I0
sg109
g110
sg111
I0
sg112
I0
sg113
I0
sg114
I16
sg115
I1
sg116
I0
sg117
S'HB'
p141
sbsS'RJL'
p142
(ijoueur
joueur
p143
(dp144
g27
I0
sg28
I2
sg29
I0
sg30
(ijoueur
rang
p145
(dp146
g33
I6
sg34
S'***'
p147
sg36
S'personnage'
p148
sbsg38
(dp149
g40
I0
sg41
I0
sg42
I0
sg43
I0
ssg44
(dp150
g40
I0
sg41
I0
sg42
I0
sg43
I0
ssg46
I0
sg47
I0
sg48
I30
sg49
I48
sg50
I0
sg51
I0
sg52
I0
sg53
(g54
S'DO'
p151
S'CE'
p152
S'AR'
p153
tp154
sg59
(ijoueur
rang
p155
(dp156
g33
I6
sg34
S'***'
p157
sg36
g148
sbsg63
(dp158
g40
I0
sg41
I0
sg42
I1
sg43
I0
ssg65
(dp159
g40
I0
sg41
I0
sg42
I0
sg43
I0
ssg67
(dp160
g40
I0
sg41
I0
sg42
I0
sg43
I0
ssg69
(dp161
g40
I0
sg41
I0
sg42
I1
sg43
I0
ssg71
I48
sg72
I0
sg73
S'Valten'
p162
sg75
I9
sg76
I30
sg77
I18
sg78
I301
sg79
g80
sg81
(dp163
g83
I10
sg84
I7
sg85
I11
sg86
I12
sg87
I7
sg88
I7
sg89
I13
sg90
I11
sg91
I12
sg92
I12
sg93
I8
sg94
I5
sg95
I10
sg96
I10
sg97
I6
ssg98
I0
sg99
I0
sg100
I0
sg101
I0
sg102
F11.06060606060606
sg103
I0
sg104
I2
sg105
I0
sg106
I0
sg107
g163
sg108
I0
sg109
g110
sg111
I0
sg112
I0
sg113
I0
sg114
I26
sg115
I3
sg116
I0
sg117
S'EMP'
p164
sbsS'cap'
p165
(ijoueur
joueur
p166
(dp167
g27
I0
sg28
I0
sg29
I0
sg30
(ijoueur
rang
p168
(dp169
g33
I5
sg34
S'xx'
p170
sg36
g125
sbsg38
(dp171
g40
I0
sg41
I0
sg42
I0
sg43
I0
ssg44
(dp172
g40
I0
sg41
I0
sg42
I0
sg43
I0
ssg46
I0
sg47
I0
sg48
I0
sg49
I0
sg50
I1
sg51
I0
sg52
I0
sg53
(g54
S'DM'
p173
g110
g110
tp174
sg59
(ijoueur
rang
p175
(dp176
g33
I5
sg34
S'xx'
p177
sg36
g125
sbsg63
(dp178
g40
I0
sg41
I0
sg42
I0
sg43
I1
ssg65
(dp179
g40
I0
sg41
I0
sg42
I0
sg43
I0
ssg67
(dp180
g40
I0
sg41
I0
sg42
I0
sg43
I0
ssg69
(dp181
g40
I0
sg41
I0
sg42
I0
sg43
I1
ssg71
I0
sg72
I0
sg73
S'Grogf'
p182
sg75
I9
sg76
I0
sg77
I23
sg78
I200
sg79
g80
sg81
(dp183
g83
I14
sg84
I8
sg85
I8
sg86
I13
sg87
I6
sg88
I13
sg89
I8
sg90
I14
sg91
I8
sg92
I11
sg93
I13
sg94
I10
sg95
I8
sg96
I11
sg97
I8
ssg98
I4
sg99
I0
sg100
I0
sg101
I0
sg102
F11.448275862068966
sg103
I0
sg104
I0
sg105
I0
sg106
I0
sg107
g183
sg108
I0
sg109
g110
sg111
I0
sg112
I0
sg113
I0
sg114
I32
sg115
I2
sg116
I0
sg117
S'HB'
p184
sbsS'B4'
p185
(ijoueur
joueur
p186
(dp187
g27
I0
sg28
I0
sg29
I0
sg30
(ijoueur
rang
p188
(dp189
g33
I5
sg34
S'xx'
p190
sg36
S'seigneur'
p191
sbsg38
(dp192
S'SR'
p193
I0
sS'CT'
p194
I0
sS'CR'
p195
I0
sS'ST'
p196
I0
ssg44
(dp197
g193
I0
sg194
I0
sg195
I0
sg196
I0
ssg46
I0
sg47
I0
sg48
I0
sg49
I0
sg50
I0
sg51
I0
sg52
I0
sg53
(g54
S'AR'
p198
S'AI'
p199
g110
tp200
sg59
(ijoueur
rang
p201
(dp202
g33
I4
sg34
S'*'
p203
sg36
S'heros'
p204
sbsg63
(dp205
g193
I0
sg194
I0
sg195
I0
sg196
I0
ssg65
(dp206
g193
I0
sg194
I0
sg195
I0
sg196
I0
ssg67
(dp207
g193
I0
sg194
I0
sg195
I0
sg196
I0
ssg69
(dp208
g193
I0
sg194
I0
sg195
I0
sg196
I0
ssg71
I0
sg72
I0
sg73
S'Hazavgh'
p209
sg75
I8
sg76
I0
sg77
I24
sg78
I99
sg79
g80
sg81
(dp210
S'A'
p211
I10
sS'ME'
p212
I7
sS'RP2'
p213
I8
sS'E'
p214
I9
sS'P'
p215
I11
sS'RP1'
p216
I11
sS'JP'
p217
I10
sS'RP_tot'
p218
I12
sS'TO'
p219
I8
sS'PA'
p220
I7
sS'M'
p221
I12
sS'R'
p222
I10
sS'TB'
p223
I11
sS'PL'
p224
I11
sS'TA'
p225
I7
ssg98
I0
sg99
I0
sg100
I0
sg101
I0
sg102
F10.428571428571429
sg103
I0
sg104
I0
sg105
I0
sg106
I0
sg107
g210
sg108
I0
sg109
g110
sg111
I0
sg112
I0
sg113
I0
sg114
I10
sg115
I0
sg116
I0
sg117
S'HB'
p226
sbsS'RJC'
p227
g143
sS'B1'
p228
g186
sS'B2'
p229
g186
sS'B3'
p230
g186
sS'SA_pcp2'
p231
(ijoueur
joueur
p232
(dp233
g27
I0
sg28
I0
sg29
I0
sg30
(ijoueur
rang
p234
(dp235
g33
I4
sg34
S'x'
p236
sg36
g134
sbsg38
(dp237
g40
I0
sg41
I0
sg42
I0
sg43
I0
ssg44
(dp238
g40
I0
sg41
I0
sg42
I0
sg43
I0
ssg46
I0
sg47
I0
sg48
I0
sg49
I0
sg50
I0
sg51
I0
sg52
I0
sg53
(g54
S'DL'
p239
S'N8'
p240
g110
tp241
sg59
(ijoueur
rang
p242
(dp243
g33
I4
sg34
g236
sg36
g134
sbsg63
(dp244
g40
I0
sg41
I0
sg42
I0
sg43
I1
ssg65
(dp245
g40
I0
sg41
I0
sg42
I0
sg43
I0
ssg67
(dp246
g40
I0
sg41
I0
sg42
I0
sg43
I0
ssg69
(dp247
g40
I0
sg41
I0
sg42
I0
sg43
I1
ssg71
I0
sg72
I0
sg73
S'Hraegh'
p248
sg75
I7
sg76
I0
sg77
I16
sg78
I758
sg79
g80
sg81
(dp249
g83
I11
sg84
I10
sg85
I7
sg86
I10
sg87
I13
sg88
I13
sg89
I5
sg90
I13
sg91
I3
sg92
I10
sg93
I7
sg94
I11
sg95
I2
sg96
I11
sg97
I5
ssg98
I4
sg99
I0
sg100
I0
sg101
I0
sg102
F11.264705882352942
sg103
I0
sg104
I0
sg105
I0
sg106
I0
sg107
g249
sg108
I0
sg109
S'HTH9;ED11'
p250
sg111
I0
sg112
I0
sg113
I0
sg114
I59
sg115
I4
sg116
I0
sg117
S'CHS'
p251
sbsS'SA_pcp1'
p252
(ijoueur
joueur
p253
(dp254
g27
I0
sg28
I0
sg29
I0
sg30
(ijoueur
rang
p255
(dp256
g33
I5
sg34
S'**'
p257
sg36
g125
sbsg38
(dp258
g40
I0
sg41
I0
sg42
I0
sg43
I0
ssg44
(dp259
g40
I0
sg41
I0
sg42
I0
sg43
I0
ssg46
I0
sg47
I0
sg48
I0
sg49
I0
sg50
I0
sg51
I0
sg52
I0
sg53
(g54
S'DL'
p260
S'N8'
p261
g110
tp262
sg59
(ijoueur
rang
p263
(dp264
g33
I5
sg34
S'**'
p265
sg36
g125
sbsg63
(dp266
g40
I0
sg41
I0
sg42
I0
sg43
I0
ssg65
(dp267
g40
I0
sg41
I0
sg42
I0
sg43
I0
ssg67
(dp268
g40
I0
sg41
I0
sg42
I0
sg43
I0
ssg69
(dp269
g40
I0
sg41
I0
sg42
I0
sg43
I0
ssg71
I0
sg72
I0
sg73
S'Acharoel'
p270
sg75
I6
sg76
I0
sg77
I20
sg78
I273
sg79
g80
sg81
(dp271
g83
I13
sg84
I13
sg85
I7
sg86
I12
sg87
I14
sg88
I15
sg89
I4
sg90
I15
sg91
I5
sg92
I11
sg93
I8
sg94
I11
sg95
I3
sg96
I11
sg97
I8
ssg98
I0
sg99
I0
sg100
I0
sg101
I0
sg102
F12.470588235294118
sg103
I0
sg104
I0
sg105
I0
sg106
I0
sg107
g271
sg108
I0
sg109
g110
sg111
I0
sg112
I0
sg113
I0
sg114
I36
sg115
I12
sg116
I0
sg117
S'CHS'
p272
sbsS'drop3'
p273
g143
sS'SA_remp1'
p274
(ijoueur
joueur
p275
(dp276
g27
I0
sg28
I0
sg29
I0
sg30
(ijoueur
rang
p277
(dp278
g33
I1
sg34
S'^'
p279
sg36
S'base'
p280
sbsg38
(dp281
g40
I0
sg41
I0
sg42
I0
sg43
I0
ssg44
(dp282
g40
I0
sg41
I0
sg42
I0
sg43
I0
ssg46
I0
sg47
I0
sg48
I0
sg49
I0
sg50
I0
sg51
I0
sg52
I0
sg53
(g54
S'DL'
p283
g110
g110
tp284
sg59
(ijoueur
rang
p285
(dp286
g33
I1
sg34
g279
sg36
g280
sbsg63
(dp287
g40
I0
sg41
I0
sg42
I1
sg43
I0
ssg65
(dp288
g40
I0
sg41
I0
sg42
I0
sg43
I0
ssg67
(dp289
g40
I0
sg41
I0
sg42
I0
sg43
I0
ssg69
(dp290
g40
I0
sg41
I0
sg42
I1
sg43
I0
ssg71
I0
sg72
I0
sg73
S'Qend'
p291
sg75
I4
sg76
I0
sg77
I17
sg78
I12
sg79
g80
sg81
(dp292
g83
I11
sg84
I7
sg85
I6
sg86
I10
sg87
I10
sg88
I7
sg89
I4
sg90
I7
sg91
I5
sg92
I9
sg93
I7
sg94
I8
sg95
I4
sg96
I9
sg97
I3
ssg98
I2
sg99
I0
sg100
I0
sg101
I0
sg102
F8.705882352941176
sg103
I0
sg104
I0
sg105
I0
sg106
I0
sg107
g292
sg108
I0
sg109
g110
sg111
I0
sg112
I0
sg113
I0
sg114
I1
sg115
I5
sg116
I0
sg117
S'EN'
p293
sbsS'drop2'
p294
g25
sS'SA_remp2'
p295
(ijoueur
joueur
p296
(dp297
g27
I0
sg28
I0
sg29
I0
sg30
(ijoueur
rang
p298
(dp299
g33
I5
sg34
S'xx'
p300
sg36
g125
sbsg38
(dp301
g40
I0
sg41
I0
sg42
I0
sg43
I0
ssg44
(dp302
g40
I0
sg41
I0
sg42
I1
sg43
I0
ssg46
I0
sg47
I0
sg48
I0
sg49
I0
sg50
I0
sg51
I0
sg52
I0
sg53
(g54
S'TL'
p303
S'DL'
p304
S'N8'
p305
tp306
sg59
(ijoueur
rang
p307
(dp308
g33
I4
sg34
g133
sg36
g134
sbsg63
(dp309
g40
I0
sg41
I0
sg42
I0
sg43
I0
ssg65
(dp310
g40
I0
sg41
I0
sg42
I0
sg43
I0
ssg67
(dp311
g40
I0
sg41
I0
sg42
I1
sg43
I0
ssg69
(dp312
g40
I0
sg41
I0
sg42
I0
sg43
I0
ssg71
I0
sg72
I0
sg73
S'Zhdavr'
p313
sg75
I8
sg76
I0
sg77
I24
sg78
I83
sg79
g80
sg81
(dp314
g83
I10
sg84
I9
sg85
I7
sg86
I9
sg87
I10
sg88
I9
sg89
I4
sg90
I9
sg91
I6
sg92
I10
sg93
I10
sg94
I7
sg95
I4
sg96
I13
sg97
I7
ssg98
I2
sg99
I0
sg100
I0
sg101
I0
sg102
F9.5
sg103
I0
sg104
I0
sg105
I0
sg106
I0
sg107
g314
sg108
I0
sg109
g110
sg111
I0
sg112
I0
sg113
I0
sg114
I9
sg115
I0
sg116
I0
sg117
S'HB'
p315
sbssS'totaux'
p316
(dp317
g19
I0
sg20
I0
sg21
I0
ssS'_compo_defaut_fatigue'
p318
Nsg81
(dp319
g4
I0
sg5
I0
sg6
I0
sg7
I0
sg8
I0
sg9
I0
sg10
I0
sg11
I0
sg12
I0
sg13
I0
sg14
I0
sg15
I0
sg16
I0
ssS'joueurs'
p320
(dp321
S'n12'
p322
g25
sS'n13'
p323
(ijoueur
joueur
p324
(dp325
g27
I0
sg28
I0
sg29
I0
sg30
(ijoueur
rang
p326
(dp327
g33
I5
sg34
S'**'
p328
sg36
g125
sbsg38
(dp329
g40
I0
sg41
I0
sg42
I0
sg43
I0
ssg44
(dp330
g40
I0
sg41
I0
sg42
I0
sg43
I0
ssg46
I0
sg47
I0
sg48
I0
sg49
I0
sg50
I1
sg51
I0
sg52
I0
sg53
(g54
S'C1'
p331
S'TA'
p332
g110
tp333
sg59
(ijoueur
rang
p334
(dp335
g33
I4
sg34
g133
sg36
g134
sbsg63
(dp336
g40
I0
sg41
I0
sg42
I0
sg43
I1
ssg65
(dp337
g40
I0
sg41
I0
sg42
I0
sg43
I0
ssg67
(dp338
g40
I0
sg41
I0
sg42
I0
sg43
I0
ssg69
(dp339
g40
I0
sg41
I0
sg42
I0
sg43
I1
ssg71
I0
sg72
I0
sg73
S'Aylefrg'
p340
sg75
I10
sg76
I0
sg77
I22
sg78
I190
sg79
g80
sg81
(dp341
g83
I10
sg84
I9
sg85
I8
sg86
I11
sg87
I3
sg88
I13
sg89
I8
sg90
I14
sg91
I8
sg92
I11
sg93
I11
sg94
I10
sg95
I9
sg96
I10
sg97
I8
ssg98
I3
sg99
I0
sg100
I0
sg101
I0
sg102
F10.633333333333333
sg103
I0
sg104
I0
sg105
I0
sg106
I0
sg107
g341
sg108
I0
sg109
g110
sg111
I0
sg112
I0
sg113
I0
sg114
I23
sg115
I1
sg116
I0
sg117
S'HB'
p342
sbsS'n10'
p343
g143
sS'n11'
p344
g186
sS'n16'
p345
(ijoueur
joueur
p346
(dp347
g27
I0
sg28
I0
sg29
I0
sg30
(ijoueur
rang
p348
(dp349
g33
I4
sg34
g236
sg36
g134
sbsg38
(dp350
g40
I0
sg41
I0
sg42
I0
sg43
I1
ssg44
(dp351
g40
I0
sg41
I0
sg42
I0
sg43
I0
ssg46
I0
sg47
I0
sg48
I0
sg49
I0
sg50
I0
sg51
I0
sg52
I0
sg53
(g54
S'PI'
p352
S'TA'
p353
g110
tp354
sg59
(ijoueur
rang
p355
(dp356
g33
I4
sg34
g236
sg36
g134
sbsg63
(dp357
g40
I0
sg41
I0
sg42
I0
sg43
I0
ssg65
(dp358
g40
I0
sg41
I0
sg42
I0
sg43
I1
ssg67
(dp359
g40
I0
sg41
I0
sg42
I0
sg43
I0
ssg69
(dp360
g40
I0
sg41
I0
sg42
I0
sg43
I0
ssg71
I0
sg72
I0
sg73
S"Rok'Aald"
p361
sg75
I7
sg76
I0
sg77
I14
sg78
I319
sg79
g80
sg81
(dp362
g83
I7
sg84
I10
sg85
I7
sg86
I10
sg87
I6
sg88
I11
sg89
I0
sg90
I11
sg91
I0
sg92
I6
sg93
I7
sg94
I10
sg95
I1
sg96
I9
sg97
I13
ssg98
I3
sg99
I0
sg100
I0
sg101
I0
sg102
F9.758620689655173
sg103
I0
sg104
I0
sg105
I0
sg106
I0
sg107
g362
sg108
I0
sg109
S'FS9'
p363
sg111
I0
sg112
I0
sg113
I0
sg114
I15
sg115
I3
sg116
I0
sg117
S'HL'
p364
sbsS'n17'
p365
(ijoueur
joueur
p366
(dp367
g27
I0
sg28
I0
sg29
I0
sg30
(ijoueur
rang
p368
(dp369
g33
I3
sg34
S'^^^'
p370
sg36
S'rare'
p371
sbsg38
(dp372
g40
I0
sg41
I0
sg42
I0
sg43
I0
ssg44
(dp373
g40
I0
sg41
I0
sg42
I0
sg43
I0
ssg46
I0
sg47
I0
sg48
I0
sg49
I0
sg50
I1
sg51
I0
sg52
I0
sg53
(g54
S'PI'
p374
g110
g110
tp375
sg59
(ijoueur
rang
p376
(dp377
g33
I3
sg34
S'^^^'
p378
sg36
g371
sbsg63
(dp379
g40
I0
sg41
I0
sg42
I0
sg43
I1
ssg65
(dp380
g40
I0
sg41
I0
sg42
I0
sg43
I0
ssg67
(dp381
g40
I0
sg41
I0
sg42
I0
sg43
I0
ssg69
(dp382
g40
I0
sg41
I0
sg42
I0
sg43
I1
ssg71
I0
sg72
I0
sg73
S'Hirodh'
p383
sg75
I5
sg76
I0
sg77
I12
sg78
I45
sg79
g80
sg81
(dp384
g83
I8
sg84
I10
sg85
I7
sg86
I11
sg87
I7
sg88
I8
sg89
I3
sg90
I8
sg91
I6
sg92
I8
sg93
I9
sg94
I10
sg95
I1
sg96
I10
sg97
I8
ssg98
I2
sg99
I0
sg100
I0
sg101
I0
sg102
F9.592592592592593
sg103
I0
sg104
I0
sg105
I0
sg106
I0
sg107
g384
sg108
I0
sg109
g110
sg111
I0
sg112
I0
sg113
I0
sg114
I5
sg115
I5
sg116
I0
sg117
S'HB'
p385
sbsS'n14'
p386
(ijoueur
joueur
p387
(dp388
g27
I0
sg28
I3
sg29
I0
sg30
(ijoueur
rang
p389
(dp390
g33
I4
sg34
g203
sg36
g204
sbsg38
(dp391
g193
I0
sg194
I0
sg195
I0
sg196
I0
ssg44
(dp392
g193
I0
sg194
I0
sg195
I0
sg196
I0
ssg46
I0
sg47
I0
sg48
I0
sg49
I0
sg50
I0
sg51
I0
sg52
I0
sg53
(g54
S'AI'
p393
S'CE'
p394
S'DO'
p395
tp396
sg59
(ijoueur
rang
p397
(dp398
g33
I4
sg34
g203
sg36
g204
sbsg63
(dp399
g193
I0
sg194
I1
sg195
I0
sg196
I0
ssg65
(dp400
g193
I0
sg194
I0
sg195
I0
sg196
I0
ssg67
(dp401
g193
I0
sg194
I0
sg195
I0
sg196
I0
ssg69
(dp402
g193
I0
sg194
I1
sg195
I0
sg196
I0
ssg71
I0
sg72
I0
sg73
S'Flessel'
p403
sg75
I2
sg76
I0
sg77
I14
sg78
I330
sg79
g80
sg81
(dp404
g211
I13
sg212
I4
sg213
I7
sg214
I12
sg215
I10
sg216
I11
sg217
I9
sg218
I11
sg219
I9
sg220
I9
sg221
I9
sg222
I7
sg223
I8
sg224
I10
sg225
I6
ssg98
I3
sg99
I0
sg100
I0
sg101
I0
sg102
F10.64516129032258
sg103
I0
sg104
I3
sg105
I0
sg106
I0
sg107
g404
sg108
I0
sg109
S'SN8'
p405
sg111
I0
sg112
I0
sg113
I0
sg114
I20
sg115
I26
sg116
I0
sg117
S'ES'
p406
sbsS'n15'
p407
(ijoueur
joueur
p408
(dp409
g27
I0
sg28
I0
sg29
I0
sg30
(ijoueur
rang
p410
(dp411
g33
I6
sg34
S'***'
p412
sg36
S'personnage'
p413
sbsg38
(dp414
S'SR'
p415
I0
sS'CT'
p416
I0
sS'CR'
p417
I0
sS'ST'
p418
I0
ssg44
(dp419
g415
I0
sg416
I0
sg417
I0
sg418
I0
ssg46
I0
sg47
I0
sg48
I4
sg49
I1
sg50
I0
sg51
I2
sg52
I4
sg53
(S'dummy'
p420
S'AR'
p421
g110
g110
tp422
sg59
(ijoueur
rang
p423
(dp424
g33
I6
sg34
S'***'
p425
sg36
g413
sbsg63
(dp426
g415
I0
sg416
I1
sg417
I0
sg418
I0
ssg65
(dp427
g415
I0
sg416
I0
sg417
I0
sg418
I0
ssg67
(dp428
g415
I0
sg416
I0
sg417
I0
sg418
I0
ssg69
(dp429
g415
I0
sg416
I1
sg417
I0
sg418
I0
ssg71
I1
sg72
I1
sg73
S'Caradryan'
p430
sg75
I11
sg76
I4
sg77
I20
sg78
I290
sg79
g80
sg81
(dp431
S'A'
p432
I12
sS'ME'
p433
I6
sS'RP2'
p434
I9
sS'E'
p435
I10
sS'P'
p436
I10
sS'RP1'
p437
I6
sS'JP'
p438
I8
sS'RP_tot'
p439
I9
sS'TO'
p440
I8
sS'PA'
p441
I11
sS'M'
p442
I13
sS'R'
p443
I5
sS'TB'
p444
I11
sS'PL'
p445
I12
sS'TA'
p446
I5
ssg98
I4
sg99
I0
sg100
I0
sg101
I0
sg102
F10.771428571428572
sg103
I2
sg104
I0
sg105
I0
sg106
I0
sg107
g431
sg108
I0
sg109
g110
sg111
I0
sg112
I0
sg113
I0
sg114
I46
sg115
I0
sg116
I0
sg117
S'HE'
p447
sbsS'n18'
p448
g275
sS'n19'
p449
g296
sS'n22'
p450
(ijoueur
joueur
p451
(dp452
g27
I0
sg28
I0
sg29
I0
sg30
(ijoueur
rang
p453
(dp454
g33
I1
sg34
S'^'
p455
sg36
S'base'
p456
sbsg38
(dp457
g193
I0
sg194
I0
sg195
I1
sg196
I0
ssg44
(dp458
g193
I0
sg194
I0
sg195
I0
sg196
I0
ssg46
I0
sg47
I0
sg48
I0
sg49
I0
sg50
I0
sg51
I0
sg52
I0
sg53
(g54
S'AI'
p459
S'AR'
p460
g110
tp461
sg59
(ijoueur
rang
p462
(dp463
g33
I1
sg34
g455
sg36
g456
sbsg63
(dp464
g193
I0
sg194
I0
sg195
I0
sg196
I0
ssg65
(dp465
g193
I0
sg194
I0
sg195
I1
sg196
I0
ssg67
(dp466
g193
I0
sg194
I0
sg195
I0
sg196
I0
ssg69
(dp467
g193
I0
sg194
I0
sg195
I0
sg196
I0
ssg71
I0
sg72
I0
sg73
S'Iohel'
p468
sg75
I5
sg76
I0
sg77
I14
sg78
I18
sg79
g80
sg81
(dp469
g211
I10
sg212
I7
sg213
I8
sg214
I11
sg215
I7
sg216
I11
sg217
I6
sg218
I12
sg219
I6
sg220
I9
sg221
I10
sg222
I6
sg223
I6
sg224
I10
sg225
I5
ssg98
I1
sg99
I0
sg100
I0
sg101
I0
sg102
F10.064516129032258
sg103
I0
sg104
I0
sg105
I0
sg106
I0
sg107
g469
sg108
I0
sg109
g110
sg111
I0
sg112
I0
sg113
I0
sg114
I3
sg115
I11
sg116
I0
sg117
S'CHS'
p470
sbsS'n21'
p471
(ijoueur
joueur
p472
(dp473
g27
I0
sg28
I0
sg29
I0
sg30
(ijoueur
rang
p474
(dp475
g33
I4
sg34
g236
sg36
g134
sbsg38
(dp476
g40
I0
sg41
I0
sg42
I0
sg43
I0
ssg44
(dp477
g40
I0
sg41
I0
sg42
I0
sg43
I0
ssg46
I0
sg47
I0
sg48
I0
sg49
I0
sg50
I0
sg51
I0
sg52
I0
sg53
(g54
S'C2'
p478
S'AR'
p479
S'AI'
p480
tp481
sg59
(ijoueur
rang
p482
(dp483
g33
I4
sg34
g236
sg36
g134
sbsg63
(dp484
g40
I0
sg41
I0
sg42
I1
sg43
I0
ssg65
(dp485
g40
I0
sg41
I0
sg42
I0
sg43
I0
ssg67
(dp486
g40
I0
sg41
I0
sg42
I0
sg43
I0
ssg69
(dp487
g40
I0
sg41
I0
sg42
I1
sg43
I0
ssg71
I0
sg72
I0
sg73
S'Mlidaal'
p488
sg75
I3
sg76
I0
sg77
I10
sg78
I70
sg79
g80
sg81
(dp489
g83
I10
sg84
I7
sg85
I5
sg86
I11
sg87
I3
sg88
I14
sg89
I5
sg90
I14
sg91
I4
sg92
I10
sg93
I8
sg94
I9
sg95
I1
sg96
I9
sg97
I4
ssg98
I1
sg99
I0
sg100
I0
sg101
I0
sg102
F10.0
sg103
I0
sg104
I0
sg105
I0
sg106
I0
sg107
g489
sg108
I0
sg109
S'TO10'
p490
sg111
I0
sg112
I0
sg113
I0
sg114
I16
sg115
I23
sg116
I0
sg117
S'HL'
p491
sbsS'n20'
p492
(ijoueur
joueur
p493
(dp494
g27
I0
sg28
I3
sg29
I0
sg30
(ijoueur
rang
p495
(dp496
g33
I3
sg34
S'^^^'
p497
sg36
g371
sbsg38
(dp498
g40
I0
sg41
I0
sg42
I0
sg43
I0
ssg44
(dp499
g40
I0
sg41
I0
sg42
I0
sg43
I0
ssg46
I0
sg47
I0
sg48
I0
sg49
I0
sg50
I0
sg51
I0
sg52
I0
sg53
(g54
S'DM'
p500
S'DO'
p501
S'CE'
p502
tp503
sg59
(ijoueur
rang
p504
(dp505
g33
I3
sg34
S'^^^'
p506
sg36
g371
sbsg63
(dp507
g40
I0
sg41
I0
sg42
I0
sg43
I0
ssg65
(dp508
g40
I0
sg41
I0
sg42
I0
sg43
I0
ssg67
(dp509
g40
I0
sg41
I0
sg42
I0
sg43
I0
ssg69
(dp510
g40
I0
sg41
I0
sg42
I0
sg43
I0
ssg71
I0
sg72
I0
sg73
S'Rden'
p511
sg75
I3
sg76
I0
sg77
I10
sg78
I14
sg79
g80
sg81
(dp512
g83
I8
sg84
I6
sg85
I6
sg86
I10
sg87
I6
sg88
I9
sg89
I8
sg90
I9
sg91
I10
sg92
I11
sg93
I10
sg94
I6
sg95
I6
sg96
I8
sg97
I6
ssg98
I0
sg99
I0
sg100
I0
sg101
I0
sg102
F9.344827586206897
sg103
I0
sg104
I3
sg105
I0
sg106
I0
sg107
g512
sg108
I0
sg109
g110
sg111
I0
sg112
I0
sg113
I0
sg114
I5
sg115
I6
sg116
I0
sg117
S'HB'
p513
sbsS'n8'
p514
g253
sS'n9'
p515
g166
sS'n1'
p516
(ijoueur
joueur
p517
(dp518
g27
I0
sg28
I0
sg29
I0
sg30
(ijoueur
rang
p519
(dp520
g33
I3
sg34
S'^^^'
p521
sg36
g371
sbsg38
(dp522
g40
I0
sg41
I0
sg42
I0
sg43
I0
ssg44
(dp523
g40
I0
sg41
I0
sg42
I0
sg43
I0
ssg46
I0
sg47
I0
sg48
I0
sg49
I0
sg50
I0
sg51
I0
sg52
I0
sg53
(g54
S'PI'
p524
g110
g110
tp525
sg59
(ijoueur
rang
p526
(dp527
g33
I3
sg34
S'^^^'
p528
sg36
g371
sbsg63
(dp529
g40
I0
sg41
I0
sg42
I0
sg43
I0
ssg65
(dp530
g40
I0
sg41
I0
sg42
I0
sg43
I0
ssg67
(dp531
g40
I0
sg41
I0
sg42
I0
sg43
I0
ssg69
(dp532
g40
I0
sg41
I0
sg42
I0
sg43
I0
ssg71
I0
sg72
I0
sg73
S'Rodoel'
p533
sg75
I4
sg76
I0
sg77
I16
sg78
I50
sg79
g80
sg81
(dp534
g83
I11
sg84
I10
sg85
I7
sg86
I11
sg87
I9
sg88
I10
sg89
I1
sg90
I10
sg91
I5
sg92
I8
sg93
I9
sg94
I9
sg95
I5
sg96
I10
sg97
I7
ssg98
I0
sg99
I0
sg100
I0
sg101
I0
sg102
F9.88888888888889
sg103
I0
sg104
I0
sg105
I0
sg106
I0
sg107
g534
sg108
I0
sg109
S'MRB10'
p535
sg111
I0
sg112
I0
sg113
I0
sg114
I5
sg115
I6
sg116
I0
sg117
S'EN'
p536
sbsS'n2'
p537
(ijoueur
joueur
p538
(dp539
g27
I0
sg28
I0
sg29
I0
sg30
(ijoueur
rang
p540
(dp541
g33
I1
sg34
g279
sg36
g280
sbsg38
(dp542
g40
I0
sg41
I0
sg42
I0
sg43
I0
ssg44
(dp543
g40
I0
sg41
I0
sg42
I0
sg43
I0
ssg46
I0
sg47
I0
sg48
I0
sg49
I0
sg50
I0
sg51
I0
sg52
I0
sg53
(g54
S'TA'
p544
S'PI'
p545
g110
tp546
sg59
(ijoueur
rang
p547
(dp548
g33
I2
sg34
S'^^'
p549
sg36
g37
sbsg63
(dp550
g40
I0
sg41
I0
sg42
I1
sg43
I0
ssg65
(dp551
g40
I0
sg41
I0
sg42
I0
sg43
I0
ssg67
(dp552
g40
I0
sg41
I0
sg42
I0
sg43
I0
ssg69
(dp553
g40
I0
sg41
I0
sg42
I1
sg43
I0
ssg71
I0
sg72
I0
sg73
S'Rodenk'
p554
sg75
I3
sg76
I0
sg77
I12
sg78
I6
sg79
g80
sg81
(dp555
g83
I9
sg84
I10
sg85
I6
sg86
I11
sg87
I3
sg88
I10
sg89
I4
sg90
I10
sg91
I2
sg92
I5
sg93
I8
sg94
I12
sg95
I2
sg96
I8
sg97
I13
ssg98
I1
sg99
I0
sg100
I0
sg101
I0
sg102
F10.379310344827585
sg103
I0
sg104
I0
sg105
I0
sg106
I0
sg107
g555
sg108
I0
sg109
g110
sg111
I0
sg112
I0
sg113
I0
sg114
I1
sg115
I7
sg116
I0
sg117
S'HB'
p556
sbsS'n3'
p557
(ijoueur
joueur
p558
(dp559
g27
I0
sg28
I0
sg29
I0
sg30
(ijoueur
rang
p560
(dp561
g33
I3
sg34
S'<<<'
p562
sg36
g371
sbsg38
(dp563
g40
I0
sg41
I0
sg42
I0
sg43
I0
ssg44
(dp564
g40
I0
sg41
I0
sg42
I0
sg43
I0
ssg46
I0
sg47
I0
sg48
I0
sg49
I0
sg50
I0
sg51
I0
sg52
I0
sg53
(g54
S'PI'
p565
S'N8'
p566
S'TA'
p567
tp568
sg59
(ijoueur
rang
p569
(dp570
g33
I3
sg34
S'<<<'
p571
sg36
g371
sbsg63
(dp572
g40
I0
sg41
I0
sg42
I0
sg43
I1
ssg65
(dp573
g40
I0
sg41
I0
sg42
I0
sg43
I0
ssg67
(dp574
g40
I0
sg41
I0
sg42
I0
sg43
I0
ssg69
(dp575
g40
I0
sg41
I0
sg42
I0
sg43
I1
ssg71
I0
sg72
I0
sg73
S'Ngaod'
p576
sg75
I11
sg76
I0
sg77
I22
sg78
I200
sg79
g80
sg81
(dp577
g83
I9
sg84
I12
sg85
I7
sg86
I12
sg87
I5
sg88
I13
sg89
I0
sg90
I13
sg91
I3
sg92
I6
sg93
I10
sg94
I11
sg95
I2
sg96
I10
sg97
I11
ssg98
I1
sg99
I0
sg100
I0
sg101
I0
sg102
F11.11111111111111
sg103
I0
sg104
I0
sg105
I0
sg106
I0
sg107
g577
sg108
I0
sg109
g110
sg111
I0
sg112
I0
sg113
I0
sg114
I21
sg115
I0
sg116
I0
sg117
S'HB'
p578
sbsS'n4'
p579
g232
sS'n5'
p580
g120
sS'n6'
p581
(ijoueur
joueur
p582
(dp583
g27
I0
sg28
I0
sg29
I0
sg30
(ijoueur
rang
p584
(dp585
g33
I4
sg34
g133
sg36
g134
sbsg38
(dp586
g40
I0
sg41
I0
sg42
I0
sg43
I1
ssg44
(dp587
g40
I0
sg41
I0
sg42
I0
sg43
I0
ssg46
I0
sg47
I0
sg48
I0
sg49
I0
sg50
I0
sg51
I0
sg52
I0
sg53
(g54
S'N8'
p588
S'TL'
p589
g110
tp590
sg59
(ijoueur
rang
p591
(dp592
g33
I4
sg34
g133
sg36
g134
sbsg63
(dp593
g40
I0
sg41
I0
sg42
I0
sg43
I0
ssg65
(dp594
g40
I0
sg41
I0
sg42
I0
sg43
I1
ssg67
(dp595
g40
I0
sg41
I0
sg42
I0
sg43
I0
ssg69
(dp596
g40
I0
sg41
I0
sg42
I0
sg43
I0
ssg71
I0
sg72
I0
sg73
S'Trund'
p597
sg75
I2
sg76
I0
sg77
I13
sg78
I80
sg79
g80
sg81
(dp598
g83
I9
sg84
I10
sg85
I9
sg86
I8
sg87
I8
sg88
I10
sg89
I4
sg90
I12
sg91
I5
sg92
I9
sg93
I9
sg94
I9
sg95
I3
sg96
I11
sg97
I5
ssg98
I4
sg99
I0
sg100
I0
sg101
I0
sg102
F9.827586206896552
sg103
I0
sg104
I0
sg105
I0
sg106
I0
sg107
g598
sg108
I0
sg109
g110
sg111
I0
sg112
I0
sg113
I0
sg114
I8
sg115
I10
sg116
I0
sg117
S'HB'
p599
sbsS'n7'
p600
(ijoueur
joueur
p601
(dp602
g27
I0
sg28
I0
sg29
I0
sg30
(ijoueur
rang
p603
(dp604
g33
I3
sg34
S'<<<'
p605
sg36
g371
sbsg38
(dp606
g40
I0
sg41
I0
sg42
I0
sg43
I0
ssg44
(dp607
g40
I0
sg41
I0
sg42
I0
sg43
I0
ssg46
I0
sg47
I0
sg48
I0
sg49
I0
sg50
I0
sg51
I0
sg52
I0
sg53
(g54
S'N8'
p608
S'TL'
p609
g110
tp610
sg59
(ijoueur
rang
p611
(dp612
g33
I3
sg34
S'<<<'
p613
sg36
g371
sbsg63
(dp614
g40
I0
sg41
I0
sg42
I0
sg43
I1
ssg65
(dp615
g40
I0
sg41
I0
sg42
I0
sg43
I0
ssg67
(dp616
g40
I0
sg41
I0
sg42
I0
sg43
I0
ssg69
(dp617
g40
I0
sg41
I0
sg42
I0
sg43
I1
ssg71
I0
sg72
I0
sg73
S'Ghazvor'
p618
sg75
I6
sg76
I0
sg77
I17
sg78
I100
sg79
g80
sg81
(dp619
g83
I7
sg84
I11
sg85
I7
sg86
I12
sg87
I7
sg88
I12
sg89
I2
sg90
I12
sg91
I1
sg92
I6
sg93
I11
sg94
I10
sg95
I0
sg96
I9
sg97
I8
ssg98
I4
sg99
I0
sg100
I0
sg101
I0
sg102
F10.137931034482758
sg103
I0
sg104
I0
sg105
I0
sg106
I0
sg107
g619
sg108
I0
sg109
g110
sg111
I0
sg112
I0
sg113
I0
sg114
I10
sg115
I17
sg116
I0
sg117
S'HB'
p620
sbssS'remplacements'
p621
(dp622
g345
S'n0'
p623
sg365
g623
sg448
g623
sg449
g623
sg450
g623
sg471
g623
sg492
g623
ssb.