(iclub
compo
p0
(dp1
S'caracs_old'
p2
(dp3
S'A'
p4
F153.0
sS'ME'
p5
F96.0
sS'E'
p6
F190.5
sS'OplusAV'
p7
F100.5
sS'TO_off'
p8
F111.0
sS'OplusAR'
p9
F103.5
sS'M'
p10
F90.75
sS'JP'
p11
F107.25
sS'OmoinsAR'
p12
F92.25
sS'PA'
p13
F110.0
sS'TO_def'
p14
F105.0
sS'OmoinsAV'
p15
F103.25
sS'R'
p16
F176.75
ssS'totaux_old'
p17
(dp18
S'T2'
p19
F185.25
sS'T3'
p20
F95.25
sS'T1'
p21
F190.5
ssS'roles'
p22
(dp23
S'SA_scd'
p24
(ijoueur
joueur
p25
(dp26
S'EV_saison_11'
p27
F9.735294117647058
sS'rouges_total'
p28
I1
sS'EV_saison_12'
p29
F9.617647058823529
sS'changements_postes'
p30
S''
p31
sS'drops_total'
p32
I0
sS'xp_total'
p33
F63.03058922098782
sS'blessure'
p34
I0
sS'RG_max'
p35
ccopy_reg
_reconstructor
p36
(cjoueur
rang_new
p37
c__builtin__
object
p38
Ntp39
Rp40
(dp41
S'type_nb'
p42
I1
sS'rang'
p43
S'^'
p44
sS'type'
p45
S'base'
p46
sbsS'MJ2_total'
p47
(dp48
S'SR'
p49
I0
sS'ST'
p50
I0
sS'CR'
p51
I0
sS'CT'
p52
I0
ssS'MJ3_total'
p53
(dp54
g49
I0
sg50
I0
sg51
I0
sg52
I0
ssS'xp'
p55
I0
sS'drop_rates_total'
p56
I0
sS'EV'
p57
F9.617647058823529
sS'drop_rates_saison'
p58
I0
sS'xp_saison'
p59
F63.03058922098782
sS'essais_saison'
p60
I0
sS'penalite_ratees_saison'
p61
I0
sS'transformations_saison'
p62
I0
sS'postes'
p63
(S'dummy'
p64
S'DL'
p65
g31
g31
tp66
sS'veut_partir'
p67
I00
sS'RG'
p68
g36
(g37
g38
Ntp69
Rp70
(dp71
g42
I2
sg43
S'^^'
p72
sg45
S'special'
p73
sbsS'MJ1'
p74
(dp75
S'SR'
p76
I0
sS'CT'
p77
I6
sS'CR'
p78
I0
sS'ST'
p79
I0
ssS'MS_probleme'
p80
I00
sS'MJ3'
p81
(dp82
g76
I0
sg77
I0
sg78
I0
sg79
I0
ssS'MJ1_total'
p83
(dp84
g49
I7
sg50
I1
sg51
I7
sg52
I20
ssS'penalites_total'
p85
I0
sS'penalites_saison'
p86
I0
sS'nom'
p87
S'Lyath'
p88
sS'C'
p89
I1
sS'transformations_total'
p90
I0
sS'D'
p91
I14
sS'VAL'
p92
I50
sS'club'
p93
S'DKF'
p94
sS'caracs'
p95
(dp96
S'A'
p97
I11
sS'ME'
p98
I9
sS'RP2'
p99
I5
sS'E'
p100
I9
sS'P'
p101
I7
sS'RP1'
p102
I11
sS'JP'
p103
I4
sS'RP_tot'
p104
I11
sS'TO'
p105
I11
sS'PA'
p106
I10
sS'M'
p107
I8
sS'R'
p108
I7
sS'TB'
p109
I4
sS'PL'
p110
I8
sS'TA'
p111
I5
ssS'jj_passe'
p112
(dp113
S's12'
p114
(ijoueur
joueur
p115
(dp116
g27
F9.735294117647058
sg28
I1
sg30
g31
sg32
I0
sg34
I0
sg35
g36
(g37
g38
Ntp117
Rp118
(dp119
g42
I1
sg43
S'^'
p120
sg45
S'base'
p121
sbsg47
(dp122
S'SR'
p123
I0
sS'ST'
p124
I0
sS'CR'
p125
I0
sS'CT'
p126
I0
ssg53
(dp127
g123
I0
sg124
I0
sg125
I0
sg126
I0
ssg56
I0
sg58
I0
sg80
I00
sg60
I1
sg61
I0
sg62
I0
sg63
(S'dummy'
p128
S'DL'
p129
g31
g31
tp130
sg67
I00
sg68
g36
(g37
g38
Ntp131
Rp132
(dp133
g42
I2
sg43
S'^^'
p134
sg45
S'special'
p135
sbsg74
(dp136
S'SR'
p137
I0
sS'CT'
p138
I12
sS'CR'
p139
I0
sS'ST'
p140
I0
ssS'MJ2'
p141
(dp142
g137
I0
sg138
I0
sg139
I0
sg140
I0
ssg81
(dp143
g137
I0
sg138
I0
sg139
I0
sg140
I0
ssg83
(dp144
g123
I7
sg124
I1
sg125
I7
sg126
I14
ssg85
I0
sg86
I0
sg87
S'Lyath'
p145
sg89
I1
sg90
I0
sg91
I14
sg92
I50
sg93
S'DKF'
p146
sg95
(dp147
S'A'
p148
I12
sS'ME'
p149
I9
sS'RP2'
p150
I5
sS'E'
p151
I9
sS'TO'
p152
I11
sS'RP1'
p153
I11
sS'JP'
p154
I4
sS'RP_tot'
p155
I11
sS'P'
p156
I7
sS'PA'
p157
I10
sS'M'
p158
I8
sS'R'
p159
I8
sS'TB'
p160
I4
sS'PL'
p161
I9
sS'TA'
p162
I5
ssg112
(dp163
S's11'
p164
(ijoueur
joueur
p165
(dp166
g28
I0
sg32
I0
sg34
I0
sg35
g36
(g37
g38
Ntp167
Rp168
(dp169
g42
I1
sg43
S'^'
p170
sg45
S'base'
p171
sbsg47
(dp172
S'SR'
p173
I0
sS'CT'
p174
I0
sS'CR'
p175
I0
sS'ST'
p176
I0
ssg53
(dp177
g173
I0
sg174
I0
sg175
I0
sg176
I0
ssg56
I0
sg58
I0
sg80
I01
sg60
I1
sg61
I0
sg62
I0
sg63
(S'dummy'
p178
S'DL'
p179
g31
g31
tp180
sg67
I01
sg68
g36
(g37
g38
Ntp181
Rp182
(dp183
g42
I2
sg43
S'^^'
p184
sg45
S'special'
p185
sbsg74
(dp186
g173
I7
sg174
I2
sg175
I7
sg176
I1
ssg141
(dp187
g173
I0
sg174
I0
sg175
I0
sg176
I0
ssg81
(dp188
g173
I0
sg174
I0
sg175
I0
sg176
I0
ssg83
(dp189
g173
I7
sg174
I2
sg175
I7
sg176
I1
ssg85
I0
sg86
I0
sg87
S'Lyath'
p190
sg89
I1
sg90
I0
sg91
I14
sg92
I11
sg93
S'SN'
p191
sg95
(dp192
S'A'
p193
I12
sS'ME'
p194
I9
sS'RP2'
p195
I5
sS'E'
p196
I9
sS'P'
p197
I7
sS'RP1'
p198
I11
sS'JP'
p199
I4
sS'RP_tot'
p200
I11
sS'TO'
p201
I11
sS'PA'
p202
I10
sS'M'
p203
I8
sS'R'
p204
I8
sS'TB'
p205
I4
sS'PL'
p206
I10
sS'TA'
p207
I5
ssS'fatigue'
p208
I0
sS'drop_ratees_total'
p209
I0
sS'blessures_total'
p210
I0
sS'XP'
p211
I0
sg57
F9.735294117647058
sS'penalite_ratees_total'
p212
I0
sS'blessures_saison'
p213
I0
sS'jaunes_total'
p214
I0
sS'caracs_saison_11'
p215
(dp216
S'A'
p217
I12
sS'ME'
p218
I9
sS'RP2'
p219
I5
sS'E'
p220
I9
sS'P'
p221
I7
sS'RP1'
p222
I11
sS'JP'
p223
I4
sS'RP_tot'
p224
I11
sS'TO'
p225
I11
sS'PA'
p226
I10
sS'M'
p227
I8
sS'R'
p228
I8
sS'TB'
p229
I4
sS'PL'
p230
I10
sS'TA'
p231
I5
ssS'caracs_sans_fatigue'
p232
g192
sS'rouges_saison'
p233
I0
sS'anciens_clubs'
p234
g31
sS'transformation_ratees_total'
p235
I0
sS'drops_saison'
p236
I0
sS'transformation_ratees_saison'
p237
I0
sS'MS'
p238
I1
sS'essais_total'
p239
I5
sS'jaunes_saison'
p240
I0
sS'ARM'
p241
S'HE'
p242
sbssg208
I0
sg209
I0
sg210
I1
sg211
I0
sg57
F9.617647058823529
sg212
I0
sg213
I1
sg214
I0
sg215
(dp243
S'A'
p244
I12
sS'ME'
p245
I9
sS'RP2'
p246
I5
sS'E'
p247
I9
sS'P'
p248
I7
sS'RP1'
p249
I11
sS'JP'
p250
I4
sS'RP_tot'
p251
I11
sS'TO'
p252
I11
sS'PA'
p253
I10
sS'M'
p254
I8
sS'R'
p255
I8
sS'TB'
p256
I4
sS'PL'
p257
I10
sS'TA'
p258
I5
ssg232
g147
sg233
I1
sg234
S'SN 12'
p259
sg235
I0
sg236
I0
sg237
I0
sg238
I6
sg239
I6
sg240
I0
sg241
S'HE'
p260
sbsS's11'
p261
(ijoueur
joueur
p262
(dp263
g28
I0
sg32
I0
sg34
I0
sg35
g36
(g37
g38
Ntp264
Rp265
(dp266
g42
I1
sg43
S'^'
p267
sg45
S'base'
p268
sbsg47
(dp269
S'SR'
p270
I0
sS'CT'
p271
I0
sS'CR'
p272
I0
sS'ST'
p273
I0
ssg53
(dp274
g270
I0
sg271
I0
sg272
I0
sg273
I0
ssg56
I0
sg58
I0
sg80
I01
sg60
I1
sg61
I0
sg62
I0
sg63
(S'dummy'
p275
S'DL'
p276
g31
g31
tp277
sg67
I01
sg68
g36
(g37
g38
Ntp278
Rp279
(dp280
g42
I2
sg43
S'^^'
p281
sg45
S'special'
p282
sbsg74
(dp283
g270
I7
sg271
I2
sg272
I7
sg273
I1
ssg141
(dp284
g270
I0
sg271
I0
sg272
I0
sg273
I0
ssg81
(dp285
g270
I0
sg271
I0
sg272
I0
sg273
I0
ssg83
(dp286
g270
I7
sg271
I2
sg272
I7
sg273
I1
ssg85
I0
sg86
I0
sg87
S'Lyath'
p287
sg89
I1
sg90
I0
sg91
I14
sg92
I11
sg93
S'SN'
p288
sg95
(dp289
S'A'
p290
I12
sS'ME'
p291
I9
sS'RP2'
p292
I5
sS'E'
p293
I9
sS'P'
p294
I7
sS'RP1'
p295
I11
sS'JP'
p296
I4
sS'RP_tot'
p297
I11
sS'TO'
p298
I11
sS'PA'
p299
I10
sS'M'
p300
I8
sS'R'
p301
I8
sS'TB'
p302
I4
sS'PL'
p303
I10
sS'TA'
p304
I5
ssg208
I0
sg209
I0
sg210
I0
sg211
I0
sg57
F9.735294117647058
sg212
I0
sg213
I0
sg214
I0
sg215
(dp305
S'A'
p306
I12
sS'ME'
p307
I9
sS'RP2'
p308
I5
sS'E'
p309
I9
sS'P'
p310
I7
sS'RP1'
p311
I11
sS'JP'
p312
I4
sS'RP_tot'
p313
I11
sS'TO'
p314
I11
sS'PA'
p315
I10
sS'M'
p316
I8
sS'R'
p317
I8
sS'TB'
p318
I4
sS'PL'
p319
I10
sS'TA'
p320
I5
ssg232
g289
sg233
I0
sg234
g31
sg235
I0
sg236
I0
sg237
I0
sg238
I1
sg239
I5
sg240
I0
sg241
S'HE'
p321
sbssg208
I8
sg209
I0
sg210
I1
sg211
I0
sg141
(dp322
g76
I0
sg77
I0
sg78
I0
sg79
I0
ssg212
I0
sg213
I0
sg214
I0
sg215
(dp323
S'A'
p324
I12
sS'ME'
p325
I9
sS'RP2'
p326
I5
sS'E'
p327
I9
sS'P'
p328
I7
sS'RP1'
p329
I11
sS'JP'
p330
I4
sS'RP_tot'
p331
I11
sS'TO'
p332
I11
sS'PA'
p333
I10
sS'M'
p334
I8
sS'R'
p335
I8
sS'TB'
p336
I4
sS'PL'
p337
I10
sS'TA'
p338
I5
ssg232
(dp339
g97
I12
sg98
I9
sg99
I5
sg100
I9
sg105
I11
sg102
I11
sg103
I4
sg104
I11
sg101
I7
sg106
I10
sg107
I8
sg108
I8
sg109
I4
sg110
I9
sg111
I5
ssg233
I0
sS'caracs_saison_12'
p340
(dp341
sg235
I0
sg234
S'SN 12'
p342
sg236
I0
sg237
I0
sg238
I6
sg239
I6
sg240
I0
sg241
S'HE'
p343
sbsS'RJL'
p344
(ijoueur
joueur
p345
(dp346
g27
F10.606060606060606
sg28
I1
sg29
F11.82857142857143
sg30
g31
sg32
I7
sg33
F63.66143871754078
sg34
I0
sg35
g36
(g37
g38
Ntp347
Rp348
(dp349
g42
I4
sg43
S'*'
p350
sg45
S'heros'
p351
sbsg47
(dp352
S'SR'
p353
I0
sS'CT'
p354
I0
sS'CR'
p355
I0
sS'ST'
p356
I0
ssg53
(dp357
g353
I0
sg354
I0
sg355
I0
sg356
I0
ssg55
I0
sg56
I2
sg57
F12.06060606060606
sg58
I0
sS'transformations'
p358
I1
sS'penalites'
p359
I3
sg60
I0
sg61
I1
sg62
I5
sg63
(S'dummy'
p360
S'DO'
p361
g31
g31
tp362
sg67
I00
sg68
g36
(g37
g38
Ntp363
Rp364
(dp365
g42
I5
sg43
S'**'
p366
sg45
S'seigneur'
p367
sbsg74
(dp368
g76
I0
sg77
I6
sg78
I0
sg79
I0
ssg80
I00
sg81
(dp369
g76
I0
sg77
I0
sg78
I0
sg79
I0
ssg83
(dp370
g353
I0
sg354
I32
sg355
I0
sg356
I0
ssg85
I32
sg86
I17
sg87
S'Flolar'
p371
sg89
I7
sg90
I5
sg91
I15
sg92
I215
sg93
g94
sg95
(dp372
S'A'
p373
I13
sS'ME'
p374
I5
sS'RP2'
p375
I9
sS'E'
p376
I13
sS'TO'
p377
I8
sS'RP1'
p378
I7
sS'JP'
p379
I14
sS'RP_tot'
p380
I9
sS'P'
p381
I14
sS'PA'
p382
I12
sS'M'
p383
I9
sS'R'
p384
I9
sS'TB'
p385
I11
sS'PL'
p386
I11
sS'TA'
p387
I5
ssg112
(dp388
g114
(ijoueur
joueur
p389
(dp390
g27
F10.606060606060606
sg28
I1
sg30
g31
sg32
I5
sg34
I0
sg35
g36
(g37
g38
Ntp391
Rp392
(dp393
g42
I4
sg43
S'*'
p394
sg45
S'heros'
p395
sbsg47
(dp396
S'SR'
p397
I0
sS'CT'
p398
I0
sS'CR'
p399
I0
sS'ST'
p400
I0
ssg53
(dp401
g397
I0
sg398
I0
sg399
I0
sg400
I0
ssg56
I2
sg58
I0
sg358
I1
sg359
I3
sg80
I00
sg60
I0
sg61
I0
sg62
I0
sg63
(S'dummy'
p402
S'DO'
p403
g31
g31
tp404
sg67
I00
sg68
g36
(g37
g38
Ntp405
Rp406
(dp407
g42
I5
sg43
S'**'
p408
sg45
S'seigneur'
p409
sbsg74
(dp410
S'SR'
p411
I0
sS'CT'
p412
I12
sS'CR'
p413
I0
sS'ST'
p414
I0
ssg141
(dp415
g411
I0
sg412
I0
sg413
I0
sg414
I0
ssg81
(dp416
g411
I0
sg412
I0
sg413
I0
sg414
I0
ssg83
(dp417
g397
I0
sg398
I26
sg399
I0
sg400
I0
ssg85
I15
sg86
I7
sg87
S'Flolar'
p418
sg89
I7
sg90
I0
sg91
I15
sg92
I215
sg93
g146
sg95
(dp419
S'A'
p420
I12
sS'ME'
p421
I5
sS'RP2'
p422
I9
sS'E'
p423
I13
sS'P'
p424
I14
sS'RP1'
p425
I7
sS'JP'
p426
I13
sS'RP_tot'
p427
I9
sS'TO'
p428
I8
sS'PA'
p429
I12
sS'M'
p430
I9
sS'R'
p431
I9
sS'TB'
p432
I12
sS'PL'
p433
I11
sS'TA'
p434
I5
ssg112
(dp435
g164
(ijoueur
joueur
p436
(dp437
g28
I0
sg32
I3
sg34
I0
sg35
g36
(g37
g38
Ntp438
Rp439
(dp440
g42
I4
sg43
S'*'
p441
sg45
S'heros'
p442
sbsg47
(dp443
S'SR'
p444
I0
sS'CT'
p445
I0
sS'CR'
p446
I0
sS'ST'
p447
I0
ssg53
(dp448
g444
I0
sg445
I0
sg446
I0
sg447
I0
ssg56
I2
sg57
F10.606060606060606
sg58
I2
sg358
I1
sg359
I3
sg60
I0
sg61
I3
sg62
I0
sg63
(S'dummy'
p449
S'DO'
p450
g31
g31
tp451
sg67
I00
sg68
g36
(g37
g38
Ntp452
Rp453
(dp454
g42
I4
sg43
g441
sg45
g442
sbsg74
(dp455
g444
I0
sg445
I14
sg446
I0
sg447
I0
ssg80
I00
sg81
(dp456
g444
I0
sg445
I0
sg446
I0
sg447
I0
ssg83
(dp457
g444
I0
sg445
I14
sg446
I0
sg447
I0
ssg85
I8
sg86
I6
sg87
S'Flolar'
p458
sg89
I7
sg90
I0
sg91
I15
sg92
I150
sg93
S'DKF'
p459
sg95
(dp460
S'A'
p461
I11
sS'ME'
p462
I5
sS'RP2'
p463
I8
sS'E'
p464
I12
sS'P'
p465
I13
sS'RP1'
p466
I7
sS'JP'
p467
I10
sS'RP_tot'
p468
I8
sS'TO'
p469
I7
sS'PA'
p470
I11
sS'M'
p471
I9
sS'R'
p472
I8
sS'TB'
p473
I10
sS'PL'
p474
I10
sS'TA'
p475
I5
ssg208
I0
sg209
I0
sg210
I0
sg211
I0
sg141
(dp476
g444
I0
sg445
I0
sg446
I0
sg447
I0
ssg212
I3
sS'drops'
p477
I1
sg213
I0
sg214
I3
sg215
(dp478
S'A'
p479
I11
sS'ME'
p480
I5
sS'RP2'
p481
I8
sS'E'
p482
I12
sS'P'
p483
I13
sS'RP1'
p484
I7
sS'JP'
p485
I10
sS'RP_tot'
p486
I8
sS'TO'
p487
I7
sS'PA'
p488
I11
sS'M'
p489
I9
sS'R'
p490
I8
sS'TB'
p491
I10
sS'PL'
p492
I10
sS'TA'
p493
I5
ssg232
g460
sg233
I0
sg234
S'KAK 11'
p494
sg235
I0
sg236
I2
sg237
I0
sg238
I30
sg239
I6
sg240
I3
sg241
S'ES'
p495
sbssg208
I0
sg209
I0
sg210
I0
sg211
I0
sg57
F11.82857142857143
sg212
I3
sg477
I1
sg213
I0
sg214
I3
sg215
(dp496
S'A'
p497
I11
sS'ME'
p498
I5
sS'RP2'
p499
I8
sS'E'
p500
I12
sS'P'
p501
I13
sS'RP1'
p502
I7
sS'JP'
p503
I10
sS'RP_tot'
p504
I8
sS'TO'
p505
I7
sS'PA'
p506
I11
sS'M'
p507
I9
sS'R'
p508
I8
sS'TB'
p509
I10
sS'PL'
p510
I10
sS'TA'
p511
I5
ssg232
g419
sg233
I1
sg234
S'KAK 11'
p512
sg235
I0
sg236
I2
sg237
I0
sg238
I36
sg239
I6
sg240
I0
sg241
S'ES'
p513
sbsg261
(ijoueur
joueur
p514
(dp515
g28
I0
sg32
I3
sg34
I0
sg35
g36
(g37
g38
Ntp516
Rp517
(dp518
g42
I4
sg43
S'*'
p519
sg45
S'heros'
p520
sbsg47
(dp521
S'SR'
p522
I0
sS'CT'
p523
I0
sS'CR'
p524
I0
sS'ST'
p525
I0
ssg53
(dp526
g522
I0
sg523
I0
sg524
I0
sg525
I0
ssg56
I2
sg57
F10.606060606060606
sg58
I2
sg358
I1
sg359
I3
sg60
I0
sg61
I3
sg62
I0
sg63
(S'dummy'
p527
S'DO'
p528
g31
g31
tp529
sg67
I00
sg68
g36
(g37
g38
Ntp530
Rp531
(dp532
g42
I4
sg43
g519
sg45
g520
sbsg74
(dp533
g522
I0
sg523
I14
sg524
I0
sg525
I0
ssg80
I00
sg81
(dp534
g522
I0
sg523
I0
sg524
I0
sg525
I0
ssg83
(dp535
g522
I0
sg523
I14
sg524
I0
sg525
I0
ssg85
I8
sg86
I6
sg87
S'Flolar'
p536
sg89
I7
sg90
I0
sg91
I15
sg92
I150
sg93
S'DKF'
p537
sg95
(dp538
S'A'
p539
I11
sS'ME'
p540
I5
sS'RP2'
p541
I8
sS'E'
p542
I12
sS'P'
p543
I13
sS'RP1'
p544
I7
sS'JP'
p545
I10
sS'RP_tot'
p546
I8
sS'TO'
p547
I7
sS'PA'
p548
I11
sS'M'
p549
I9
sS'R'
p550
I8
sS'TB'
p551
I10
sS'PL'
p552
I10
sS'TA'
p553
I5
ssg208
I0
sg209
I0
sg210
I0
sg211
I0
sg141
(dp554
g522
I0
sg523
I0
sg524
I0
sg525
I0
ssg212
I3
sg477
I1
sg213
I0
sg214
I3
sg215
(dp555
S'A'
p556
I11
sS'ME'
p557
I5
sS'RP2'
p558
I8
sS'E'
p559
I12
sS'P'
p560
I13
sS'RP1'
p561
I7
sS'JP'
p562
I10
sS'RP_tot'
p563
I8
sS'TO'
p564
I7
sS'PA'
p565
I11
sS'M'
p566
I9
sS'R'
p567
I8
sS'TB'
p568
I10
sS'PL'
p569
I10
sS'TA'
p570
I5
ssg232
g538
sg233
I0
sg234
S'KAK 11'
p571
sg235
I0
sg236
I2
sg237
I0
sg238
I30
sg239
I6
sg240
I3
sg241
S'ES'
p572
sbssg208
I5
sg209
I0
sg210
I0
sg211
I0
sg141
(dp573
g76
I0
sg77
I0
sg78
I0
sg79
I0
ssg212
I4
sg59
F63.66143871754078
sg477
I1
sg213
I0
sg214
I3
sg215
(dp574
S'A'
p575
I11
sS'ME'
p576
I5
sS'RP2'
p577
I8
sS'E'
p578
I12
sS'P'
p579
I13
sS'RP1'
p580
I7
sS'JP'
p581
I10
sS'RP_tot'
p582
I8
sS'TO'
p583
I7
sS'PA'
p584
I11
sS'M'
p585
I9
sS'R'
p586
I8
sS'TB'
p587
I10
sS'PL'
p588
I10
sS'TA'
p589
I5
ssg232
(dp590
g373
I13
sg374
I5
sg375
I9
sg376
I13
sg381
I14
sg378
I7
sg379
I14
sg380
I9
sg377
I8
sg382
I12
sg383
I9
sg384
I9
sg385
I11
sg386
I11
sg387
I5
ssg233
I0
sg340
(dp591
sg235
I1
sg234
S'KAK 11'
p592
sg236
I2
sg237
I1
sg238
I36
sg239
I6
sg240
I0
sg241
S'ES'
p593
sbsS'cap'
p594
g345
sS'B4'
p595
g345
sS'RJC'
p596
g345
sS'B1'
p597
g345
sS'B2'
p598
g345
sS'B3'
p599
g345
sS'SA_pcp2'
p600
(ijoueur
joueur
p601
(dp602
g27
F8.275862068965518
sg28
I1
sg29
F9.551724137931034
sg30
g31
sg32
I0
sg33
F63.03058922098782
sg34
I0
sg35
g36
(g37
g38
Ntp603
Rp604
(dp605
g42
I5
sg43
S'xx'
p606
sg45
S'seigneur'
p607
sbsg47
(dp608
g353
I0
sg354
I11
sg355
I1
sg356
I0
ssg53
(dp609
g353
I8
sg354
I17
sg355
I0
sg356
I0
ssg55
I0
sg56
I0
sg57
F11.333333333333334
sg58
I0
sg358
I0
sg359
I0
sg60
I1
sg61
I0
sg62
I0
sg63
(g360
S'N8'
p610
S'DL'
p611
S'PI'
p612
tp613
sg67
I00
sg68
g604
sg74
(dp614
g76
I0
sg77
I0
sg78
I0
sg79
I0
ssg80
I00
sg81
(dp615
g76
I0
sg77
I6
sg78
I0
sg79
I0
ssg83
(dp616
g353
I0
sg354
I2
sg355
I1
sg356
I0
ssg85
I0
sg86
I0
sg87
S'Lyogar'
p617
sg89
I11
sg90
I0
sg91
I26
sg92
I290
sg93
g94
sg95
(dp618
g373
I9
sg374
I13
sg375
I11
sg376
I11
sg377
I12
sg378
I7
sg379
I6
sg380
I11
sg381
I7
sg382
I10
sg383
I11
sg384
I9
sg385
I8
sg386
I12
sg387
I5
ssg112
(dp619
g114
(ijoueur
joueur
p620
(dp621
g27
F8.275862068965518
sg28
I1
sg30
g31
sg32
I0
sg34
I0
sg35
g36
(g37
g38
Ntp622
Rp623
(dp624
g42
I5
sg43
S'xx'
p625
sg45
S'seigneur'
p626
sbsg47
(dp627
g397
I0
sg398
I11
sg399
I1
sg400
I0
ssg53
(dp628
g397
I8
sg398
I11
sg399
I0
sg400
I0
ssg56
I0
sg58
I0
sg358
I0
sg359
I0
sg80
I00
sg60
I0
sg61
I0
sg62
I0
sg63
(g402
S'N8'
p629
S'DL'
p630
S'PI'
p631
tp632
sg67
I00
sg68
g36
(g37
g38
Ntp633
Rp634
(dp635
g42
I4
sg43
S'*'
p636
sg45
S'heros'
p637
sbsg74
(dp638
g411
I0
sg412
I1
sg413
I0
sg414
I0
ssg141
(dp639
g411
I0
sg412
I0
sg413
I0
sg414
I0
ssg81
(dp640
g411
I6
sg412
I11
sg413
I0
sg414
I0
ssg83
(dp641
g397
I0
sg398
I2
sg399
I1
sg400
I0
ssg85
I0
sg86
I0
sg87
S'Lyogar'
p642
sg89
I11
sg90
I0
sg91
I26
sg92
I100
sg93
g146
sg95
(dp643
g420
I6
sg421
I12
sg422
I10
sg423
I10
sg424
I7
sg425
I7
sg426
I5
sg427
I10
sg428
I8
sg429
I6
sg430
I9
sg431
I9
sg432
I6
sg433
I11
sg434
I4
ssg112
(dp644
g164
(ijoueur
joueur
p645
(dp646
g28
I0
sg32
I0
sg34
I0
sg35
g36
(g37
g38
Ntp647
Rp648
(dp649
g42
I5
sg43
S'xx'
p650
sg45
S'seigneur'
p651
sbsg47
(dp652
S'SR'
p653
I0
sS'CT'
p654
I11
sS'CR'
p655
I1
sS'ST'
p656
I0
ssg53
(dp657
g653
I1
sg654
I0
sg655
I0
sg656
I0
ssg56
I0
sg57
F8.275862068965518
sg58
I0
sg358
I0
sg359
I0
sg60
I0
sg61
I0
sg62
I0
sg63
(S'dummy'
p658
S'N8'
p659
S'DL'
p660
S'PI'
p661
tp662
sg67
I00
sg68
g36
(g37
g38
Ntp663
Rp664
(dp665
g42
I1
sg43
S'^'
p666
sg45
S'base'
p667
sbsg74
(dp668
g653
I0
sg654
I1
sg655
I1
sg656
I0
ssg80
I00
sg81
(dp669
g653
I1
sg654
I0
sg655
I0
sg656
I0
ssg83
(dp670
g653
I0
sg654
I1
sg655
I1
sg656
I0
ssg85
I0
sg86
I0
sg87
S'Lyogar'
p671
sg89
I11
sg90
I0
sg91
I26
sg92
I50
sg93
S'DKF'
p672
sg95
(dp673
S'A'
p674
I6
sS'ME'
p675
I10
sS'RP2'
p676
I6
sS'E'
p677
I10
sS'P'
p678
I5
sS'RP1'
p679
I6
sS'JP'
p680
I3
sS'RP_tot'
p681
I6
sS'TO'
p682
I8
sS'PA'
p683
I6
sS'M'
p684
I8
sS'R'
p685
I9
sS'TB'
p686
I4
sS'PL'
p687
I9
sS'TA'
p688
I3
ssg208
I0
sg209
I0
sg210
I0
sg211
I0
sg141
(dp689
g653
I0
sg654
I11
sg655
I1
sg656
I0
ssg212
I0
sg477
I0
sg213
I0
sg214
I0
sg215
(dp690
S'A'
p691
I6
sS'ME'
p692
I10
sS'RP2'
p693
I6
sS'E'
p694
I10
sS'P'
p695
I5
sS'RP1'
p696
I6
sS'JP'
p697
I3
sS'RP_tot'
p698
I6
sS'TO'
p699
I8
sS'PA'
p700
I6
sS'M'
p701
I8
sS'R'
p702
I9
sS'TB'
p703
I4
sS'PL'
p704
I9
sS'TA'
p705
I3
ssg232
g673
sg233
I0
sg234
g31
sg235
I0
sg236
I0
sg237
I0
sg238
I4
sg239
I0
sg240
I0
sg241
S'CV'
p706
sbssg208
I0
sg209
I0
sg210
I0
sg211
I0
sg57
F9.551724137931034
sg212
I0
sg477
I0
sg213
I0
sg214
I0
sg215
(dp707
g497
I6
sg498
I10
sg499
I6
sg500
I10
sg501
I5
sg502
I6
sg503
I3
sg504
I6
sg505
I8
sg506
I6
sg507
I8
sg508
I9
sg509
I4
sg510
I9
sg511
I3
ssg232
g643
sg233
I1
sg234
g31
sg235
I0
sg236
I0
sg237
I0
sg238
I9
sg239
I0
sg240
I0
sg241
S'CV'
p708
sbsg261
(ijoueur
joueur
p709
(dp710
g28
I0
sg32
I0
sg34
I0
sg35
g36
(g37
g38
Ntp711
Rp712
(dp713
g42
I5
sg43
S'xx'
p714
sg45
S'seigneur'
p715
sbsg47
(dp716
S'SR'
p717
I0
sS'CT'
p718
I11
sS'CR'
p719
I1
sS'ST'
p720
I0
ssg53
(dp721
g717
I1
sg718
I0
sg719
I0
sg720
I0
ssg56
I0
sg57
F8.275862068965518
sg58
I0
sg358
I0
sg359
I0
sg60
I0
sg61
I0
sg62
I0
sg63
(S'dummy'
p722
S'N8'
p723
S'DL'
p724
S'PI'
p725
tp726
sg67
I00
sg68
g36
(g37
g38
Ntp727
Rp728
(dp729
g42
I1
sg43
S'^'
p730
sg45
S'base'
p731
sbsg74
(dp732
g717
I0
sg718
I1
sg719
I1
sg720
I0
ssg80
I00
sg81
(dp733
g717
I1
sg718
I0
sg719
I0
sg720
I0
ssg83
(dp734
g717
I0
sg718
I1
sg719
I1
sg720
I0
ssg85
I0
sg86
I0
sg87
S'Lyogar'
p735
sg89
I11
sg90
I0
sg91
I26
sg92
I50
sg93
S'DKF'
p736
sg95
(dp737
S'A'
p738
I6
sS'ME'
p739
I10
sS'RP2'
p740
I6
sS'E'
p741
I10
sS'P'
p742
I5
sS'RP1'
p743
I6
sS'JP'
p744
I3
sS'RP_tot'
p745
I6
sS'TO'
p746
I8
sS'PA'
p747
I6
sS'M'
p748
I8
sS'R'
p749
I9
sS'TB'
p750
I4
sS'PL'
p751
I9
sS'TA'
p752
I3
ssg208
I0
sg209
I0
sg210
I0
sg211
I0
sg141
(dp753
g717
I0
sg718
I11
sg719
I1
sg720
I0
ssg212
I0
sg477
I0
sg213
I0
sg214
I0
sg215
(dp754
S'A'
p755
I6
sS'ME'
p756
I10
sS'RP2'
p757
I6
sS'E'
p758
I10
sS'P'
p759
I5
sS'RP1'
p760
I6
sS'JP'
p761
I3
sS'RP_tot'
p762
I6
sS'TO'
p763
I8
sS'PA'
p764
I6
sS'M'
p765
I8
sS'R'
p766
I9
sS'TB'
p767
I4
sS'PL'
p768
I9
sS'TA'
p769
I3
ssg232
g737
sg233
I0
sg234
g31
sg235
I0
sg236
I0
sg237
I0
sg238
I4
sg239
I0
sg240
I0
sg241
S'CV'
p770
sbssg208
I10
sg209
I0
sg210
I0
sg211
I0
sg141
(dp771
g76
I0
sg77
I0
sg78
I0
sg79
I0
ssg212
I0
sg59
F63.03058922098782
sg477
I0
sg213
I0
sg214
I0
sg215
(dp772
g575
I6
sg576
I10
sg577
I6
sg578
I10
sg579
I5
sg580
I6
sg581
I3
sg582
I6
sg583
I8
sg584
I6
sg585
I8
sg586
I9
sg587
I4
sg588
I9
sg589
I3
ssg232
(dp773
g373
I10
sg374
I13
sg375
I11
sg376
I11
sg381
I7
sg378
I7
sg379
I6
sg380
I11
sg377
I12
sg382
I10
sg383
I11
sg384
I10
sg385
I8
sg386
I13
sg387
I5
ssg233
I0
sg340
(dp774
sg235
I0
sg234
g31
sg236
I0
sg237
I0
sg238
I28
sg239
I1
sg240
I0
sg241
S'CV'
p775
sbsS'SA_pcp1'
p776
(ijoueur
joueur
p777
(dp778
g27
F8.323529411764707
sg28
I1
sg29
F10.735294117647058
sg30
g31
sg32
I0
sg33
F63.66143871754078
sg34
I0
sg35
g36
(g37
g38
Ntp779
Rp780
(dp781
g42
I4
sg43
S'x'
p782
sg45
g351
sbsg47
(dp783
S'SR'
p784
I0
sS'ST'
p785
I0
sS'CR'
p786
I7
sS'CT'
p787
I5
ssg53
(dp788
g784
I0
sg785
I0
sg786
I0
sg787
I0
ssg55
I0
sg56
I0
sg57
F11.294117647058824
sg58
I0
sg358
I0
sg359
I0
sg60
I0
sg61
I0
sg62
I0
sg63
(g360
S'DL'
p789
S'TL'
p790
g31
tp791
sg67
I00
sg68
g780
sg74
(dp792
g76
I0
sg77
I6
sg78
I0
sg79
I0
ssg80
I00
sg81
(dp793
g76
I0
sg77
I0
sg78
I0
sg79
I0
ssg83
(dp794
g784
I0
sg785
I7
sg786
I2
sg787
I18
ssg85
I0
sg86
I0
sg87
S'Cartayd'
p795
sg89
I11
sg90
I0
sg91
I21
sg92
I101
sg93
g94
sg95
(dp796
S'A'
p797
I10
sS'ME'
p798
I13
sS'RP2'
p799
I8
sS'E'
p800
I9
sS'P'
p801
I6
sS'RP1'
p802
I12
sS'JP'
p803
I6
sS'RP_tot'
p804
I13
sS'TO'
p805
I14
sS'PA'
p806
I11
sS'M'
p807
I12
sS'R'
p808
I9
sS'TB'
p809
I3
sS'PL'
p810
I10
sS'TA'
p811
I4
ssg112
(dp812
g114
(ijoueur
joueur
p813
(dp814
g27
F8.323529411764707
sg28
I1
sg30
g31
sg32
I0
sg34
I0
sg35
g36
(g37
g38
Ntp815
Rp816
(dp817
g42
I4
sg43
S'x'
p818
sg45
g395
sbsg47
(dp819
S'SR'
p820
I0
sS'ST'
p821
I0
sS'CR'
p822
I7
sS'CT'
p823
I5
ssg53
(dp824
g820
I0
sg821
I0
sg822
I0
sg823
I0
ssg56
I0
sg58
I0
sg358
I0
sg359
I0
sg80
I01
sg60
I0
sg61
I0
sg62
I0
sg63
(g402
S'DL'
p825
S'TL'
p826
g31
tp827
sg67
I00
sg68
g816
sg74
(dp828
g411
I0
sg412
I12
sg413
I0
sg414
I6
ssg141
(dp829
g411
I0
sg412
I1
sg413
I0
sg414
I0
ssg81
(dp830
g411
I0
sg412
I0
sg413
I0
sg414
I0
ssg83
(dp831
g820
I0
sg821
I7
sg822
I2
sg823
I12
ssg85
I0
sg86
I0
sg87
S'Cartayd'
p832
sg89
I11
sg90
I0
sg91
I21
sg92
I101
sg93
g146
sg95
(dp833
S'A'
p834
I10
sS'ME'
p835
I12
sS'RP2'
p836
I8
sS'E'
p837
I9
sS'TO'
p838
I13
sS'RP1'
p839
I10
sS'JP'
p840
I6
sS'RP_tot'
p841
I11
sS'P'
p842
I6
sS'PA'
p843
I11
sS'M'
p844
I12
sS'R'
p845
I9
sS'TB'
p846
I3
sS'PL'
p847
I10
sS'TA'
p848
I4
ssg112
(dp849
g164
(ijoueur
joueur
p850
(dp851
g28
I0
sg32
I0
sg34
I0
sg35
g36
(g37
g38
Ntp852
Rp853
(dp854
g42
I4
sg43
S'x'
p855
sg45
S'heros'
p856
sbsg47
(dp857
S'SR'
p858
I0
sS'ST'
p859
I0
sS'CR'
p860
I7
sS'CT'
p861
I4
ssg53
(dp862
g858
I0
sg859
I0
sg860
I0
sg861
I0
ssg56
I0
sg57
F8.323529411764707
sg58
I0
sg358
I0
sg359
I0
sg60
I0
sg61
I0
sg62
I0
sg63
(S'dummy'
p863
S'DL'
p864
S'TL'
p865
g31
tp866
sg67
I00
sg68
g36
(g37
g38
Ntp867
Rp868
(dp869
g42
I1
sg43
S'^'
p870
sg45
S'base'
p871
sbsg74
(dp872
g858
I0
sg859
I0
sg860
I2
sg861
I0
ssg80
I00
sg81
(dp873
g858
I0
sg859
I0
sg860
I0
sg861
I0
ssg83
(dp874
g858
I0
sg859
I0
sg860
I2
sg861
I0
ssg85
I0
sg86
I0
sg87
S'Cartayd'
p875
sg89
I11
sg90
I0
sg91
I21
sg92
I36
sg93
S'DKF'
p876
sg95
(dp877
S'A'
p878
I8
sS'ME'
p879
I8
sS'RP2'
p880
I6
sS'E'
p881
I9
sS'TO'
p882
I9
sS'RP1'
p883
I8
sS'JP'
p884
I4
sS'RP_tot'
p885
I8
sS'P'
p886
I4
sS'PA'
p887
I8
sS'M'
p888
I8
sS'R'
p889
I8
sS'TB'
p890
I1
sS'PL'
p891
I8
sS'TA'
p892
I3
ssg208
I0
sg209
I0
sg210
I0
sg211
I0
sg141
(dp893
g858
I0
sg859
I0
sg860
I7
sg861
I4
ssg212
I0
sg477
I0
sg213
I0
sg214
I0
sg215
(dp894
S'A'
p895
I8
sS'ME'
p896
I8
sS'RP2'
p897
I6
sS'E'
p898
I9
sS'TO'
p899
I9
sS'RP1'
p900
I8
sS'JP'
p901
I4
sS'RP_tot'
p902
I8
sS'P'
p903
I4
sS'PA'
p904
I8
sS'M'
p905
I8
sS'R'
p906
I8
sS'TB'
p907
I1
sS'PL'
p908
I8
sS'TA'
p909
I3
ssg232
g877
sg233
I0
sg234
g31
sg235
I0
sg236
I0
sg237
I0
sg238
I3
sg239
I0
sg240
I0
sg241
S'CV'
p910
sbssg208
I14
sg209
I0
sg210
I0
sg211
I0
sg57
F10.735294117647058
sg212
I0
sg477
I0
sg213
I0
sg214
I1
sg215
(dp911
S'A'
p912
I8
sS'ME'
p913
I8
sS'RP2'
p914
I6
sS'E'
p915
I9
sS'TO'
p916
I9
sS'RP1'
p917
I8
sS'JP'
p918
I4
sS'RP_tot'
p919
I8
sS'P'
p920
I4
sS'PA'
p921
I8
sS'M'
p922
I8
sS'R'
p923
I8
sS'TB'
p924
I1
sS'PL'
p925
I8
sS'TA'
p926
I3
ssg232
g833
sg233
I1
sg234
g31
sg235
I0
sg236
I0
sg237
I0
sg238
I9
sg239
I0
sg240
I1
sg241
S'CV'
p927
sbsg261
(ijoueur
joueur
p928
(dp929
g28
I0
sg32
I0
sg34
I0
sg35
g36
(g37
g38
Ntp930
Rp931
(dp932
g42
I4
sg43
S'x'
p933
sg45
S'heros'
p934
sbsg47
(dp935
S'SR'
p936
I0
sS'ST'
p937
I0
sS'CR'
p938
I7
sS'CT'
p939
I4
ssg53
(dp940
g936
I0
sg937
I0
sg938
I0
sg939
I0
ssg56
I0
sg57
F8.323529411764707
sg58
I0
sg358
I0
sg359
I0
sg60
I0
sg61
I0
sg62
I0
sg63
(S'dummy'
p941
S'DL'
p942
S'TL'
p943
g31
tp944
sg67
I00
sg68
g36
(g37
g38
Ntp945
Rp946
(dp947
g42
I1
sg43
S'^'
p948
sg45
S'base'
p949
sbsg74
(dp950
g936
I0
sg937
I0
sg938
I2
sg939
I0
ssg80
I00
sg81
(dp951
g936
I0
sg937
I0
sg938
I0
sg939
I0
ssg83
(dp952
g936
I0
sg937
I0
sg938
I2
sg939
I0
ssg85
I0
sg86
I0
sg87
S'Cartayd'
p953
sg89
I11
sg90
I0
sg91
I21
sg92
I36
sg93
S'DKF'
p954
sg95
(dp955
S'A'
p956
I8
sS'ME'
p957
I8
sS'RP2'
p958
I6
sS'E'
p959
I9
sS'TO'
p960
I9
sS'RP1'
p961
I8
sS'JP'
p962
I4
sS'RP_tot'
p963
I8
sS'P'
p964
I4
sS'PA'
p965
I8
sS'M'
p966
I8
sS'R'
p967
I8
sS'TB'
p968
I1
sS'PL'
p969
I8
sS'TA'
p970
I3
ssg208
I0
sg209
I0
sg210
I0
sg211
I0
sg141
(dp971
g936
I0
sg937
I0
sg938
I7
sg939
I4
ssg212
I0
sg477
I0
sg213
I0
sg214
I0
sg215
(dp972
S'A'
p973
I8
sS'ME'
p974
I8
sS'RP2'
p975
I6
sS'E'
p976
I9
sS'TO'
p977
I9
sS'RP1'
p978
I8
sS'JP'
p979
I4
sS'RP_tot'
p980
I8
sS'P'
p981
I4
sS'PA'
p982
I8
sS'M'
p983
I8
sS'R'
p984
I8
sS'TB'
p985
I1
sS'PL'
p986
I8
sS'TA'
p987
I3
ssg232
g955
sg233
I0
sg234
g31
sg235
I0
sg236
I0
sg237
I0
sg238
I3
sg239
I0
sg240
I0
sg241
S'CV'
p988
sbssg208
I6
sg209
I0
sg210
I0
sg211
I0
sg141
(dp989
g76
I0
sg77
I0
sg78
I0
sg79
I0
ssg212
I0
sg59
F63.66143871754078
sg477
I0
sg213
I0
sg214
I1
sg215
(dp990
S'A'
p991
I8
sS'ME'
p992
I8
sS'RP2'
p993
I6
sS'E'
p994
I9
sS'TO'
p995
I9
sS'RP1'
p996
I8
sS'JP'
p997
I4
sS'RP_tot'
p998
I8
sS'P'
p999
I4
sS'PA'
p1000
I8
sS'M'
p1001
I8
sS'R'
p1002
I8
sS'TB'
p1003
I1
sS'PL'
p1004
I8
sS'TA'
p1005
I3
ssg232
(dp1006
g797
I10
sg798
I13
sg799
I8
sg800
I9
sg805
I14
sg802
I12
sg803
I6
sg804
I13
sg801
I6
sg806
I11
sg807
I12
sg808
I9
sg809
I3
sg810
I10
sg811
I4
ssg233
I0
sg340
(dp1007
sg235
I0
sg234
g31
sg236
I0
sg237
I0
sg238
I9
sg239
I0
sg240
I0
sg241
S'CV'
p1008
sbsS'drop3'
p1009
(ijoueur
joueur
p1010
(dp1011
g27
F10.46875
sg28
I1
sg29
F10.4375
sg30
g31
sg32
I12
sg33
F63.03058922098782
sg34
I0
sg35
g36
(g37
g38
Ntp1012
Rp1013
(dp1014
g42
I4
sg43
S'*'
p1015
sg45
g351
sbsg47
(dp1016
S'SR'
p1017
I0
sS'ST'
p1018
I0
sS'CR'
p1019
I0
sS'CT'
p1020
I1
ssg53
(dp1021
g1017
I0
sg1018
I0
sg1019
I0
sg1020
I0
ssg55
I0
sg56
I0
sg57
F9.78125
sg58
I0
sg358
I7
sg359
I10
sg60
I0
sg61
I0
sg62
I0
sg63
(g360
S'C1'
p1022
S'DO'
p1023
S'AR'
p1024
tp1025
sg67
I00
sg68
g36
(g37
g38
Ntp1026
Rp1027
(dp1028
g42
I5
sg43
S'**'
p1029
sg45
g607
sbsg74
(dp1030
g76
I0
sg77
I5
sg78
I0
sg79
I0
ssg80
I00
sg81
(dp1031
g76
I0
sg77
I0
sg78
I0
sg79
I0
ssg83
(dp1032
g1017
I0
sg1018
I11
sg1019
I0
sg1020
I31
ssg85
I51
sg86
I0
sg87
S'Drumakar'
p1033
sg89
I4
sg90
I28
sg91
I15
sg92
I208
sg93
g94
sg95
(dp1034
S'A'
p1035
I7
sS'ME'
p1036
I7
sS'RP2'
p1037
I7
sS'E'
p1038
I11
sS'P'
p1039
I11
sS'RP1'
p1040
I9
sS'JP'
p1041
I10
sS'RP_tot'
p1042
I9
sS'TO'
p1043
I4
sS'PA'
p1044
I11
sS'M'
p1045
I9
sS'R'
p1046
I7
sS'TB'
p1047
I11
sS'PL'
p1048
I9
sS'TA'
p1049
I4
ssg112
(dp1050
g114
(ijoueur
joueur
p1051
(dp1052
g27
F10.46875
sg28
I1
sg30
g31
sg32
I10
sg34
I0
sg35
g36
(g37
g38
Ntp1053
Rp1054
(dp1055
g42
I4
sg43
S'*'
p1056
sg45
g395
sbsg47
(dp1057
S'SR'
p1058
I0
sS'ST'
p1059
I0
sS'CR'
p1060
I0
sS'CT'
p1061
I0
ssg53
(dp1062
g1058
I0
sg1059
I0
sg1060
I0
sg1061
I0
ssg56
I0
sg58
I1
sg358
I7
sg359
I10
sg80
I00
sg60
I1
sg61
I0
sg62
I18
sg63
(g402
S'C1'
p1063
S'DO'
p1064
S'AR'
p1065
tp1066
sg67
I00
sg68
g36
(g37
g38
Ntp1067
Rp1068
(dp1069
g42
I5
sg43
S'**'
p1070
sg45
g626
sbsg74
(dp1071
g411
I0
sg412
I13
sg413
I0
sg414
I6
ssg141
(dp1072
g411
I0
sg412
I0
sg413
I0
sg414
I0
ssg81
(dp1073
g411
I0
sg412
I0
sg413
I0
sg414
I0
ssg83
(dp1074
g1058
I0
sg1059
I11
sg1060
I0
sg1061
I26
ssg85
I51
sg86
I24
sg87
S'Drumakar'
p1075
sg89
I4
sg90
I28
sg91
I15
sg92
I208
sg93
g146
sg95
(dp1076
S'A'
p1077
I8
sS'ME'
p1078
I7
sS'RP2'
p1079
I9
sS'E'
p1080
I12
sS'TO'
p1081
I4
sS'RP1'
p1082
I10
sS'JP'
p1083
I10
sS'RP_tot'
p1084
I12
sS'P'
p1085
I11
sS'PA'
p1086
I11
sS'M'
p1087
I10
sS'R'
p1088
I8
sS'TB'
p1089
I12
sS'PL'
p1090
I10
sS'TA'
p1091
I4
ssg112
(dp1092
g164
(ijoueur
joueur
p1093
(dp1094
g28
I0
sg32
I8
sg34
I0
sg35
g36
(g37
g38
Ntp1095
Rp1096
(dp1097
g42
I4
sg43
S'*'
p1098
sg45
S'heros'
p1099
sbsg47
(dp1100
S'SR'
p1101
I0
sS'ST'
p1102
I0
sS'CR'
p1103
I0
sS'CT'
p1104
I0
ssg53
(dp1105
g1101
I0
sg1102
I0
sg1103
I0
sg1104
I0
ssg56
I0
sg57
F10.46875
sg58
I0
sg358
I7
sg359
I10
sg60
I0
sg61
I0
sg62
I7
sg63
(S'dummy'
p1106
S'C1'
p1107
S'DO'
p1108
S'AR'
p1109
tp1110
sg67
I00
sg68
g36
(g37
g38
Ntp1111
Rp1112
(dp1113
g42
I5
sg43
S'**'
p1114
sg45
S'seigneur'
p1115
sbsg74
(dp1116
g1101
I0
sg1102
I5
sg1103
I0
sg1104
I13
ssg80
I00
sg81
(dp1117
g1101
I0
sg1102
I0
sg1103
I0
sg1104
I0
ssg83
(dp1118
g1101
I0
sg1102
I5
sg1103
I0
sg1104
I13
ssg85
I27
sg86
I17
sg87
S'Drumakar'
p1119
sg89
I4
sg90
I10
sg91
I15
sg92
I208
sg93
S'DKF'
p1120
sg95
(dp1121
S'A'
p1122
I8
sS'ME'
p1123
I7
sS'RP2'
p1124
I9
sS'E'
p1125
I12
sS'TO'
p1126
I4
sS'RP1'
p1127
I10
sS'JP'
p1128
I10
sS'RP_tot'
p1129
I12
sS'P'
p1130
I11
sS'PA'
p1131
I10
sS'M'
p1132
I10
sS'R'
p1133
I8
sS'TB'
p1134
I12
sS'PL'
p1135
I11
sS'TA'
p1136
I4
ssg208
I0
sg209
I0
sg210
I1
sg211
I0
sg141
(dp1137
g1101
I0
sg1102
I0
sg1103
I0
sg1104
I0
ssg212
I0
sg477
I6
sg213
I1
sg214
I1
sg215
(dp1138
S'A'
p1139
I8
sS'ME'
p1140
I7
sS'RP2'
p1141
I9
sS'E'
p1142
I12
sS'TO'
p1143
I4
sS'RP1'
p1144
I10
sS'JP'
p1145
I10
sS'RP_tot'
p1146
I12
sS'P'
p1147
I11
sS'PA'
p1148
I10
sS'M'
p1149
I10
sS'R'
p1150
I8
sS'TB'
p1151
I12
sS'PL'
p1152
I11
sS'TA'
p1153
I4
ssg232
g1121
sg233
I0
sg234
S'KAK 10'
p1154
sg235
I2
sg236
I2
sg237
I1
sg238
I19
sg239
I9
sg240
I1
sg241
S'N'
p1155
sbssg208
I8
sg209
I1
sg210
I1
sg211
I0
sg57
F10.4375
sg212
I0
sg477
I6
sg213
I0
sg214
I1
sg215
(dp1156
S'A'
p1157
I8
sS'ME'
p1158
I7
sS'RP2'
p1159
I9
sS'E'
p1160
I12
sS'TO'
p1161
I4
sS'RP1'
p1162
I10
sS'JP'
p1163
I10
sS'RP_tot'
p1164
I12
sS'P'
p1165
I11
sS'PA'
p1166
I10
sS'M'
p1167
I10
sS'R'
p1168
I8
sS'TB'
p1169
I12
sS'PL'
p1170
I11
sS'TA'
p1171
I4
ssg232
g1076
sg233
I1
sg234
S'KAK 10'
p1172
sg235
I2
sg236
I2
sg237
I0
sg238
I19
sg239
I10
sg240
I0
sg241
S'N'
p1173
sbsg261
(ijoueur
joueur
p1174
(dp1175
g28
I0
sg32
I8
sg34
I0
sg35
g36
(g37
g38
Ntp1176
Rp1177
(dp1178
g42
I4
sg43
S'*'
p1179
sg45
S'heros'
p1180
sbsg47
(dp1181
S'SR'
p1182
I0
sS'ST'
p1183
I0
sS'CR'
p1184
I0
sS'CT'
p1185
I0
ssg53
(dp1186
g1182
I0
sg1183
I0
sg1184
I0
sg1185
I0
ssg56
I0
sg57
F10.46875
sg58
I0
sg358
I7
sg359
I10
sg60
I0
sg61
I0
sg62
I7
sg63
(S'dummy'
p1187
S'C1'
p1188
S'DO'
p1189
S'AR'
p1190
tp1191
sg67
I00
sg68
g36
(g37
g38
Ntp1192
Rp1193
(dp1194
g42
I5
sg43
S'**'
p1195
sg45
S'seigneur'
p1196
sbsg74
(dp1197
g1182
I0
sg1183
I5
sg1184
I0
sg1185
I13
ssg80
I00
sg81
(dp1198
g1182
I0
sg1183
I0
sg1184
I0
sg1185
I0
ssg83
(dp1199
g1182
I0
sg1183
I5
sg1184
I0
sg1185
I13
ssg85
I27
sg86
I17
sg87
S'Drumakar'
p1200
sg89
I4
sg90
I10
sg91
I15
sg92
I208
sg93
S'DKF'
p1201
sg95
(dp1202
S'A'
p1203
I8
sS'ME'
p1204
I7
sS'RP2'
p1205
I9
sS'E'
p1206
I12
sS'TO'
p1207
I4
sS'RP1'
p1208
I10
sS'JP'
p1209
I10
sS'RP_tot'
p1210
I12
sS'P'
p1211
I11
sS'PA'
p1212
I10
sS'M'
p1213
I10
sS'R'
p1214
I8
sS'TB'
p1215
I12
sS'PL'
p1216
I11
sS'TA'
p1217
I4
ssg208
I0
sg209
I0
sg210
I1
sg211
I0
sg141
(dp1218
g1182
I0
sg1183
I0
sg1184
I0
sg1185
I0
ssg212
I0
sg477
I6
sg213
I1
sg214
I1
sg215
(dp1219
S'A'
p1220
I8
sS'ME'
p1221
I7
sS'RP2'
p1222
I9
sS'E'
p1223
I12
sS'TO'
p1224
I4
sS'RP1'
p1225
I10
sS'JP'
p1226
I10
sS'RP_tot'
p1227
I12
sS'P'
p1228
I11
sS'PA'
p1229
I10
sS'M'
p1230
I10
sS'R'
p1231
I8
sS'TB'
p1232
I12
sS'PL'
p1233
I11
sS'TA'
p1234
I4
ssg232
g1202
sg233
I0
sg234
S'KAK 10'
p1235
sg235
I2
sg236
I2
sg237
I1
sg238
I19
sg239
I9
sg240
I1
sg241
S'N'
p1236
sbssg208
I8
sg209
I1
sg210
I1
sg211
I0
sg141
(dp1237
g76
I0
sg77
I1
sg78
I0
sg79
I0
ssg212
I0
sg59
F63.03058922098782
sg477
I6
sg213
I0
sg214
I2
sg215
(dp1238
S'A'
p1239
I8
sS'ME'
p1240
I7
sS'RP2'
p1241
I9
sS'E'
p1242
I12
sS'TO'
p1243
I4
sS'RP1'
p1244
I10
sS'JP'
p1245
I10
sS'RP_tot'
p1246
I12
sS'P'
p1247
I11
sS'PA'
p1248
I10
sS'M'
p1249
I10
sS'R'
p1250
I8
sS'TB'
p1251
I12
sS'PL'
p1252
I11
sS'TA'
p1253
I4
ssg232
(dp1254
g1035
I8
sg1036
I7
sg1037
I7
sg1038
I11
sg1043
I4
sg1040
I9
sg1041
I10
sg1042
I9
sg1039
I11
sg1044
I11
sg1045
I9
sg1046
I8
sg1047
I11
sg1048
I10
sg1049
I4
ssg233
I0
sg340
(dp1255
sg235
I2
sg234
S'KAK 10'
p1256
sg236
I2
sg237
I0
sg238
I19
sg239
I10
sg240
I1
sg241
S'N'
p1257
sbsS'SA_remp1'
p1258
(ijoueur
joueur
p1259
(dp1260
g27
F12.03448275862069
sg28
I0
sg29
F11.931034482758621
sg30
g31
sg32
I0
sg33
F63.66143871754078
sg34
I0
sg35
g36
(g37
g38
Ntp1261
Rp1262
(dp1263
g42
I6
sg43
S'***'
p1264
sg45
S'personnage'
p1265
sbsg47
(dp1266
g353
I0
sg354
I9
sg355
I0
sg356
I0
ssg53
(dp1267
g353
I0
sg354
I0
sg355
I0
sg356
I0
ssg55
I0
sg56
I0
sg57
F11.89655172413793
sg58
I0
sg358
I0
sg359
I0
sg60
I1
sg61
I0
sg62
I0
sg63
(g360
S'N8'
p1268
S'TL'
p1269
g31
tp1270
sg67
I00
sg68
g36
(g37
g38
Ntp1271
Rp1272
(dp1273
g42
I6
sg43
S'***'
p1274
sg45
g1265
sbsg74
(dp1275
g76
I0
sg77
I1
sg78
I0
sg79
I0
ssg80
I00
sg81
(dp1276
g76
I0
sg77
I0
sg78
I0
sg79
I0
ssg83
(dp1277
g353
I0
sg354
I24
sg355
I0
sg356
I3
ssg85
I0
sg86
I0
sg87
S'Crom'
p1278
sg89
I1
sg90
I0
sg91
I9
sg92
I320
sg93
g94
sg95
(dp1279
g373
I13
sg374
I10
sg375
I8
sg376
I11
sg377
I10
sg378
I14
sg379
I3
sg380
I15
sg381
I9
sg382
I10
sg383
I5
sg384
I11
sg385
I4
sg386
I13
sg387
I7
ssg112
(dp1280
g114
(ijoueur
joueur
p1281
(dp1282
g27
F12.03448275862069
sg28
I0
sg30
g31
sg32
I0
sg34
I0
sg35
g36
(g37
g38
Ntp1283
Rp1284
(dp1285
g42
I6
sg43
S'***'
p1286
sg45
S'personnage'
p1287
sbsg47
(dp1288
g397
I0
sg398
I4
sg399
I0
sg400
I0
ssg53
(dp1289
g397
I0
sg398
I0
sg399
I0
sg400
I0
ssg56
I0
sg58
I0
sg358
I0
sg359
I0
sg80
I00
sg60
I1
sg61
I0
sg62
I0
sg63
(g402
S'N8'
p1290
S'TL'
p1291
g31
tp1292
sg67
I00
sg68
g36
(g37
g38
Ntp1293
Rp1294
(dp1295
g42
I6
sg43
S'***'
p1296
sg45
g1287
sbsg74
(dp1297
g411
I0
sg412
I9
sg413
I0
sg414
I0
ssg141
(dp1298
g411
I0
sg412
I4
sg413
I0
sg414
I0
ssg81
(dp1299
g411
I0
sg412
I0
sg413
I0
sg414
I0
ssg83
(dp1300
g397
I0
sg398
I23
sg399
I0
sg400
I3
ssg85
I0
sg86
I0
sg87
S'Crom'
p1301
sg89
I1
sg90
I0
sg91
I9
sg92
I320
sg93
g146
sg95
(dp1302
g420
I13
sg421
I10
sg422
I8
sg423
I11
sg424
I8
sg425
I14
sg426
I3
sg427
I15
sg428
I10
sg429
I10
sg430
I6
sg431
I11
sg432
I4
sg433
I13
sg434
I7
ssg112
(dp1303
g164
(ijoueur
joueur
p1304
(dp1305
g28
I0
sg32
I0
sg34
I0
sg35
g36
(g37
g38
Ntp1306
Rp1307
(dp1308
g42
I6
sg43
S'***'
p1309
sg45
S'personnage'
p1310
sbsg47
(dp1311
S'SR'
p1312
I0
sS'CT'
p1313
I0
sS'CR'
p1314
I0
sS'ST'
p1315
I0
ssg53
(dp1316
g1312
I0
sg1313
I0
sg1314
I0
sg1315
I0
ssg56
I0
sg57
F12.03448275862069
sg58
I0
sg358
I0
sg359
I0
sg60
I1
sg61
I0
sg62
I0
sg63
(S'dummy'
p1317
S'N8'
p1318
S'TL'
p1319
g31
tp1320
sg67
I00
sg68
g36
(g37
g38
Ntp1321
Rp1322
(dp1323
g42
I6
sg43
S'***'
p1324
sg45
g1310
sbsg74
(dp1325
g1312
I0
sg1313
I14
sg1314
I0
sg1315
I3
ssg80
I01
sg81
(dp1326
g1312
I0
sg1313
I0
sg1314
I0
sg1315
I0
ssg83
(dp1327
g1312
I0
sg1313
I14
sg1314
I0
sg1315
I3
ssg85
I0
sg86
I0
sg87
S'Crom'
p1328
sg89
I1
sg90
I0
sg91
I9
sg92
I320
sg93
S'DKF'
p1329
sg95
(dp1330
S'A'
p1331
I13
sS'ME'
p1332
I11
sS'RP2'
p1333
I8
sS'E'
p1334
I11
sS'P'
p1335
I7
sS'RP1'
p1336
I14
sS'JP'
p1337
I3
sS'RP_tot'
p1338
I15
sS'TO'
p1339
I11
sS'PA'
p1340
I10
sS'M'
p1341
I6
sS'R'
p1342
I11
sS'TB'
p1343
I4
sS'PL'
p1344
I13
sS'TA'
p1345
I7
ssg208
I0
sg209
I0
sg210
I0
sg211
I0
sg141
(dp1346
g1312
I0
sg1313
I0
sg1314
I0
sg1315
I0
ssg212
I0
sg477
I0
sg213
I0
sg214
I0
sg215
(dp1347
S'A'
p1348
I13
sS'ME'
p1349
I11
sS'RP2'
p1350
I8
sS'E'
p1351
I11
sS'P'
p1352
I7
sS'RP1'
p1353
I14
sS'JP'
p1354
I3
sS'RP_tot'
p1355
I15
sS'TO'
p1356
I11
sS'PA'
p1357
I10
sS'M'
p1358
I6
sS'R'
p1359
I11
sS'TB'
p1360
I4
sS'PL'
p1361
I13
sS'TA'
p1362
I7
ssg232
g1330
sg233
I0
sg234
S'KHR 9'
p1363
sg235
I0
sg236
I0
sg237
I0
sg238
I40
sg239
I21
sg240
I0
sg241
S'CHS'
p1364
sbssg208
I0
sg209
I0
sg210
I0
sg211
I0
sg57
F11.931034482758621
sg212
I0
sg477
I0
sg213
I0
sg214
I0
sg215
(dp1365
g497
I13
sg498
I11
sg499
I8
sg500
I11
sg501
I7
sg502
I14
sg503
I3
sg504
I15
sg505
I11
sg506
I10
sg507
I6
sg508
I11
sg509
I4
sg510
I13
sg511
I7
ssg232
g1302
sg233
I0
sg234
S'KHR 9'
p1366
sg235
I0
sg236
I0
sg237
I0
sg238
I40
sg239
I22
sg240
I0
sg241
S'CHS'
p1367
sbsg261
(ijoueur
joueur
p1368
(dp1369
g28
I0
sg32
I0
sg34
I0
sg35
g36
(g37
g38
Ntp1370
Rp1371
(dp1372
g42
I6
sg43
S'***'
p1373
sg45
S'personnage'
p1374
sbsg47
(dp1375
S'SR'
p1376
I0
sS'CT'
p1377
I0
sS'CR'
p1378
I0
sS'ST'
p1379
I0
ssg53
(dp1380
g1376
I0
sg1377
I0
sg1378
I0
sg1379
I0
ssg56
I0
sg57
F12.03448275862069
sg58
I0
sg358
I0
sg359
I0
sg60
I1
sg61
I0
sg62
I0
sg63
(S'dummy'
p1381
S'N8'
p1382
S'TL'
p1383
g31
tp1384
sg67
I00
sg68
g36
(g37
g38
Ntp1385
Rp1386
(dp1387
g42
I6
sg43
S'***'
p1388
sg45
g1374
sbsg74
(dp1389
g1376
I0
sg1377
I14
sg1378
I0
sg1379
I3
ssg80
I01
sg81
(dp1390
g1376
I0
sg1377
I0
sg1378
I0
sg1379
I0
ssg83
(dp1391
g1376
I0
sg1377
I14
sg1378
I0
sg1379
I3
ssg85
I0
sg86
I0
sg87
S'Crom'
p1392
sg89
I1
sg90
I0
sg91
I9
sg92
I320
sg93
S'DKF'
p1393
sg95
(dp1394
S'A'
p1395
I13
sS'ME'
p1396
I11
sS'RP2'
p1397
I8
sS'E'
p1398
I11
sS'P'
p1399
I7
sS'RP1'
p1400
I14
sS'JP'
p1401
I3
sS'RP_tot'
p1402
I15
sS'TO'
p1403
I11
sS'PA'
p1404
I10
sS'M'
p1405
I6
sS'R'
p1406
I11
sS'TB'
p1407
I4
sS'PL'
p1408
I13
sS'TA'
p1409
I7
ssg208
I0
sg209
I0
sg210
I0
sg211
I0
sg141
(dp1410
g1376
I0
sg1377
I0
sg1378
I0
sg1379
I0
ssg212
I0
sg477
I0
sg213
I0
sg214
I0
sg215
(dp1411
S'A'
p1412
I13
sS'ME'
p1413
I11
sS'RP2'
p1414
I8
sS'E'
p1415
I11
sS'P'
p1416
I7
sS'RP1'
p1417
I14
sS'JP'
p1418
I3
sS'RP_tot'
p1419
I15
sS'TO'
p1420
I11
sS'PA'
p1421
I10
sS'M'
p1422
I6
sS'R'
p1423
I11
sS'TB'
p1424
I4
sS'PL'
p1425
I13
sS'TA'
p1426
I7
ssg232
g1394
sg233
I0
sg234
S'KHR 9'
p1427
sg235
I0
sg236
I0
sg237
I0
sg238
I40
sg239
I21
sg240
I0
sg241
S'CHS'
p1428
sbssg208
I7
sg209
I0
sg210
I0
sg211
I0
sg141
(dp1429
g76
I0
sg77
I5
sg78
I0
sg79
I0
ssg212
I0
sg59
F63.66143871754078
sg477
I0
sg213
I0
sg214
I0
sg215
(dp1430
g575
I13
sg576
I11
sg577
I8
sg578
I11
sg579
I7
sg580
I14
sg581
I3
sg582
I15
sg583
I11
sg584
I10
sg585
I6
sg586
I11
sg587
I4
sg588
I13
sg589
I7
ssg232
(dp1431
g373
I13
sg374
I10
sg375
I8
sg376
I11
sg381
I9
sg378
I14
sg379
I3
sg380
I15
sg377
I10
sg382
I10
sg383
I5
sg384
I11
sg385
I4
sg386
I13
sg387
I7
ssg233
I0
sg340
(dp1432
sg235
I0
sg234
S'KHR 9'
p1433
sg236
I0
sg237
I0
sg238
I40
sg239
I23
sg240
I0
sg241
S'CHS'
p1434
sbsS'drop1'
p1435
g1010
sS'drop2'
p1436
(ijoueur
joueur
p1437
(dp1438
g27
F11.233333333333333
sg28
I0
sg29
F11.566666666666666
sg30
g31
sg32
I1
sg33
F63.66143871754078
sg34
I0
sg35
g36
(g37
g38
Ntp1439
Rp1440
(dp1441
g42
I4
sg43
S'*'
p1442
sg45
S'heros'
p1443
sbsg47
(dp1444
S'SR'
p1445
I0
sS'CT'
p1446
I0
sS'CR'
p1447
I0
sS'ST'
p1448
I0
ssg53
(dp1449
g1445
I0
sg1446
I33
sg1447
I0
sg1448
I14
ssg55
I0
sg56
I0
sg57
F11.6
sg58
I0
sg358
I0
sg359
I0
sg60
I0
sg61
I0
sg62
I0
sg63
(S'dummy'
p1450
S'C1'
p1451
S'AI'
p1452
S'AR'
p1453
tp1454
sg67
I00
sg68
g36
(g37
g38
Ntp1455
Rp1456
(dp1457
g42
I4
sg43
S'*'
p1458
sg45
g1443
sbsg74
(dp1459
g76
I0
sg77
I0
sg78
I0
sg79
I0
ssg80
I00
sg81
(dp1460
g76
I0
sg77
I6
sg78
I0
sg79
I0
ssg83
(dp1461
g1445
I0
sg1446
I2
sg1447
I0
sg1448
I0
ssg85
I0
sg86
I0
sg87
S'Sdaehir'
p1462
sg89
I7
sg90
I0
sg91
I23
sg92
I200
sg93
g94
sg95
(dp1463
S'A'
p1464
I14
sS'ME'
p1465
I5
sS'RP2'
p1466
I11
sS'E'
p1467
I9
sS'TO'
p1468
I8
sS'RP1'
p1469
I9
sS'JP'
p1470
I10
sS'RP_tot'
p1471
I12
sS'P'
p1472
I12
sS'PA'
p1473
I12
sS'M'
p1474
I10
sS'R'
p1475
I5
sS'TB'
p1476
I9
sS'PL'
p1477
I13
sS'TA'
p1478
I4
ssg112
(dp1479
S's12'
p1480
(ijoueur
joueur
p1481
(dp1482
g27
F11.233333333333333
sg28
I0
sg30
g31
sg32
I0
sg34
I0
sg35
g36
(g37
g38
Ntp1483
Rp1484
(dp1485
g42
I4
sg43
S'*'
p1486
sg45
S'heros'
p1487
sbsg47
(dp1488
S'SR'
p1489
I0
sS'CT'
p1490
I0
sS'CR'
p1491
I0
sS'ST'
p1492
I0
ssg53
(dp1493
g1489
I0
sg1490
I27
sg1491
I0
sg1492
I14
ssg56
I0
sg58
I0
sg358
I0
sg359
I0
sg80
I01
sg60
I4
sg61
I0
sg62
I0
sg63
(S'dummy'
p1494
S'C1'
p1495
S'AI'
p1496
S'AR'
p1497
tp1498
sg67
I01
sg68
g36
(g37
g38
Ntp1499
Rp1500
(dp1501
g42
I4
sg43
S'*'
p1502
sg45
g1487
sbsg74
(dp1503
S'SR'
p1504
I0
sS'ST'
p1505
I0
sS'CR'
p1506
I0
sS'CT'
p1507
I2
ssg141
(dp1508
g1504
I0
sg1505
I0
sg1506
I0
sg1507
I0
ssg81
(dp1509
g1504
I0
sg1505
I7
sg1506
I0
sg1507
I12
ssg83
(dp1510
g1489
I0
sg1490
I2
sg1491
I0
sg1492
I0
ssg85
I0
sg86
I0
sg87
S'Sdaehir'
p1511
sg89
I7
sg90
I0
sg91
I23
sg92
I64
sg93
S'ALT'
p1512
sg95
(dp1513
S'A'
p1514
I15
sS'ME'
p1515
I5
sS'RP2'
p1516
I11
sS'E'
p1517
I9
sS'P'
p1518
I12
sS'RP1'
p1519
I9
sS'JP'
p1520
I10
sS'RP_tot'
p1521
I13
sS'TO'
p1522
I8
sS'PA'
p1523
I12
sS'M'
p1524
I10
sS'R'
p1525
I6
sS'TB'
p1526
I10
sS'PL'
p1527
I13
sS'TA'
p1528
I4
ssg112
(dp1529
S's11'
p1530
(ijoueur
joueur
p1531
(dp1532
g28
I0
sg32
I0
sg34
I0
sg35
g36
(g37
g38
Ntp1533
Rp1534
(dp1535
g42
I4
sg43
S'*'
p1536
sg45
S'heros'
p1537
sbsg47
(dp1538
S'SR'
p1539
I0
sS'CT'
p1540
I0
sS'CR'
p1541
I0
sS'ST'
p1542
I0
ssg53
(dp1543
g1539
I0
sg1540
I15
sg1541
I0
sg1542
I7
ssg56
I0
sg57
F11.233333333333333
sg58
I0
sg358
I0
sg359
I0
sg60
I3
sg61
I0
sg62
I0
sg63
(S'dummy'
p1544
S'C1'
p1545
S'AI'
p1546
S'AR'
p1547
tp1548
sg67
I00
sg68
g36
(g37
g38
Ntp1549
Rp1550
(dp1551
g42
I4
sg43
S'*'
p1552
sg45
g1537
sbsg74
(dp1553
g1539
I0
sg1540
I0
sg1541
I0
sg1542
I0
ssg80
I01
sg81
(dp1554
g1539
I0
sg1540
I15
sg1541
I0
sg1542
I7
ssg83
(dp1555
g1539
I0
sg1540
I0
sg1541
I0
sg1542
I0
ssg85
I0
sg86
I0
sg87
S'Sdaehir'
p1556
sg89
I7
sg90
I0
sg91
I23
sg92
I64
sg93
S'ALT'
p1557
sg95
(dp1558
S'A'
p1559
I13
sS'ME'
p1560
I5
sS'RP2'
p1561
I11
sS'E'
p1562
I9
sS'P'
p1563
I12
sS'RP1'
p1564
I9
sS'JP'
p1565
I10
sS'RP_tot'
p1566
I13
sS'TO'
p1567
I8
sS'PA'
p1568
I12
sS'M'
p1569
I10
sS'R'
p1570
I5
sS'TB'
p1571
I9
sS'PL'
p1572
I13
sS'TA'
p1573
I4
ssg208
I0
sg209
I0
sg210
I0
sg211
I0
sg141
(dp1574
g1539
I0
sg1540
I0
sg1541
I0
sg1542
I0
ssg212
I0
sg477
I0
sg213
I0
sg214
I0
sg215
(dp1575
S'A'
p1576
I13
sS'ME'
p1577
I5
sS'RP2'
p1578
I11
sS'E'
p1579
I9
sS'P'
p1580
I12
sS'RP1'
p1581
I9
sS'JP'
p1582
I10
sS'RP_tot'
p1583
I13
sS'TO'
p1584
I8
sS'PA'
p1585
I12
sS'M'
p1586
I10
sS'R'
p1587
I5
sS'TB'
p1588
I9
sS'PL'
p1589
I13
sS'TA'
p1590
I4
ssg232
g1558
sg233
I0
sg234
g31
sg235
I0
sg236
I0
sg237
I0
sg238
I6
sg239
I4
sg240
I0
sg241
S'ES'
p1591
sbssg208
I8
sg209
I0
sg210
I0
sg211
I0
sg57
F11.566666666666666
sg212
I0
sg477
I0
sg213
I0
sg214
I0
sg215
(dp1592
S'A'
p1593
I13
sS'ME'
p1594
I5
sS'RP2'
p1595
I11
sS'E'
p1596
I9
sS'TO'
p1597
I8
sS'RP1'
p1598
I9
sS'JP'
p1599
I10
sS'RP_tot'
p1600
I13
sS'P'
p1601
I12
sS'PA'
p1602
I12
sS'M'
p1603
I10
sS'R'
p1604
I5
sS'TB'
p1605
I9
sS'PL'
p1606
I13
sS'TA'
p1607
I4
ssg232
g1513
sg233
I0
sg234
g31
sg235
I0
sg236
I0
sg237
I0
sg238
I6
sg239
I8
sg240
I0
sg241
S'ES'
p1608
sbsS's11'
p1609
(ijoueur
joueur
p1610
(dp1611
g28
I0
sg32
I0
sg34
I0
sg35
g36
(g37
g38
Ntp1612
Rp1613
(dp1614
g42
I4
sg43
S'*'
p1615
sg45
S'heros'
p1616
sbsg47
(dp1617
S'SR'
p1618
I0
sS'CT'
p1619
I0
sS'CR'
p1620
I0
sS'ST'
p1621
I0
ssg53
(dp1622
g1618
I0
sg1619
I15
sg1620
I0
sg1621
I7
ssg56
I0
sg57
F11.233333333333333
sg58
I0
sg358
I0
sg359
I0
sg60
I3
sg61
I0
sg62
I0
sg63
(S'dummy'
p1623
S'C1'
p1624
S'AI'
p1625
S'AR'
p1626
tp1627
sg67
I00
sg68
g36
(g37
g38
Ntp1628
Rp1629
(dp1630
g42
I4
sg43
S'*'
p1631
sg45
g1616
sbsg74
(dp1632
g1618
I0
sg1619
I0
sg1620
I0
sg1621
I0
ssg80
I01
sg81
(dp1633
g1618
I0
sg1619
I15
sg1620
I0
sg1621
I7
ssg83
(dp1634
g1618
I0
sg1619
I0
sg1620
I0
sg1621
I0
ssg85
I0
sg86
I0
sg87
S'Sdaehir'
p1635
sg89
I7
sg90
I0
sg91
I23
sg92
I64
sg93
S'ALT'
p1636
sg95
(dp1637
S'A'
p1638
I13
sS'ME'
p1639
I5
sS'RP2'
p1640
I11
sS'E'
p1641
I9
sS'P'
p1642
I12
sS'RP1'
p1643
I9
sS'JP'
p1644
I10
sS'RP_tot'
p1645
I13
sS'TO'
p1646
I8
sS'PA'
p1647
I12
sS'M'
p1648
I10
sS'R'
p1649
I5
sS'TB'
p1650
I9
sS'PL'
p1651
I13
sS'TA'
p1652
I4
ssg208
I0
sg209
I0
sg210
I0
sg211
I0
sg141
(dp1653
g1618
I0
sg1619
I0
sg1620
I0
sg1621
I0
ssg212
I0
sg477
I0
sg213
I0
sg214
I0
sg215
(dp1654
S'A'
p1655
I13
sS'ME'
p1656
I5
sS'RP2'
p1657
I11
sS'E'
p1658
I9
sS'P'
p1659
I12
sS'RP1'
p1660
I9
sS'JP'
p1661
I10
sS'RP_tot'
p1662
I13
sS'TO'
p1663
I8
sS'PA'
p1664
I12
sS'M'
p1665
I10
sS'R'
p1666
I5
sS'TB'
p1667
I9
sS'PL'
p1668
I13
sS'TA'
p1669
I4
ssg232
g1637
sg233
I0
sg234
g31
sg235
I0
sg236
I0
sg237
I0
sg238
I6
sg239
I4
sg240
I0
sg241
S'ES'
p1670
sbssg208
I11
sg209
I0
sg210
I0
sg211
I0
sg141
(dp1671
g76
I0
sg77
I0
sg78
I0
sg79
I0
ssg212
I0
sg59
F63.66143871754078
sg477
I0
sg213
I0
sg214
I0
sg215
(dp1672
S'A'
p1673
I13
sS'ME'
p1674
I5
sS'RP2'
p1675
I11
sS'E'
p1676
I9
sS'TO'
p1677
I8
sS'RP1'
p1678
I9
sS'JP'
p1679
I10
sS'RP_tot'
p1680
I13
sS'P'
p1681
I12
sS'PA'
p1682
I12
sS'M'
p1683
I10
sS'R'
p1684
I5
sS'TB'
p1685
I9
sS'PL'
p1686
I13
sS'TA'
p1687
I4
ssg232
(dp1688
g1464
I15
sg1465
I5
sg1466
I11
sg1467
I9
sg1472
I12
sg1469
I9
sg1470
I10
sg1471
I12
sg1468
I8
sg1473
I12
sg1474
I10
sg1475
I6
sg1476
I9
sg1477
I14
sg1478
I4
ssg233
I0
sg340
(dp1689
sg235
I0
sg234
S'ALT 13'
p1690
sg236
I1
sg237
I0
sg238
I20
sg239
I8
sg240
I0
sg241
S'ES'
p1691
sbsS'SA_remp2'
p1692
(ijoueur
joueur
p1693
(dp1694
g27
F10.451612903225806
sg28
I1
sg29
F9.763157894736842
sg30
g31
sg32
I0
sg33
F63.87696174186581
sg34
I0
sg35
g36
(g37
g38
Ntp1695
Rp1696
(dp1697
g42
I3
sg43
S'^^^'
p1698
sg45
S'rare'
p1699
sbsg47
(dp1700
S'SR'
p1701
I0
sS'ST'
p1702
I0
sS'CR'
p1703
I0
sS'CT'
p1704
I0
ssg53
(dp1705
g1701
I0
sg1702
I12
sg1703
I0
sg1704
I15
ssg55
I0
sg141
(dp1706
g76
I0
sg77
I0
sg78
I0
sg79
I0
ssg56
I0
sg58
I0
sg358
I0
sg359
I0
sg60
I0
sg61
I0
sg62
I0
sg63
(S'dummy'
p1707
S'TL'
p1708
S'DL'
p1709
S'PI'
p1710
tp1711
sg67
I00
sg68
g36
(g37
g38
Ntp1712
Rp1713
(dp1714
g42
I3
sg43
S'^^^'
p1715
sg45
g1699
sbsg74
(dp1716
g76
I0
sg77
I3
sg78
I3
sg79
I0
ssg80
I00
sg81
(dp1717
g76
I0
sg77
I0
sg78
I0
sg79
I0
ssg83
(dp1718
g1701
I0
sg1702
I0
sg1703
I6
sg1704
I14
ssg85
I0
sg86
I0
sg87
S'Beragueux'
p1719
sg89
I4
sg90
I0
sg91
I12
sg92
I100
sg93
g94
sg95
(dp1720
S'A'
p1721
I11
sS'ME'
p1722
I8
sS'RP2'
p1723
I9
sS'E'
p1724
I10
sS'P'
p1725
I5
sS'RP1'
p1726
I5
sS'JP'
p1727
I4
sS'RP_tot'
p1728
I9
sS'TO'
p1729
I10
sS'PA'
p1730
I10
sS'M'
p1731
I6
sS'R'
p1732
I10
sS'TB'
p1733
I5
sS'PL'
p1734
I10
sS'TA'
p1735
I3
ssg112
(dp1736
g114
(ijoueur
joueur
p1737
(dp1738
g27
F10.451612903225806
sg28
I1
sg30
g31
sg32
I0
sg34
I0
sg35
g36
(g37
g38
Ntp1739
Rp1740
(dp1741
g42
I3
sg43
S'^^^'
p1742
sg45
S'rare'
p1743
sbsg47
(dp1744
S'SR'
p1745
I0
sS'ST'
p1746
I0
sS'CR'
p1747
I0
sS'CT'
p1748
I0
ssg53
(dp1749
g1745
I0
sg1746
I12
sg1747
I0
sg1748
I15
ssg56
I0
sg57
F9.763157894736842
sg58
I0
sg358
I0
sg359
I0
sg60
I2
sg61
I0
sg62
I0
sg63
(S'dummy'
p1750
S'TL'
p1751
S'DL'
p1752
S'PI'
p1753
tp1754
sg67
I00
sg68
g36
(g37
g38
Ntp1755
Rp1756
(dp1757
g42
I3
sg43
S'^^^'
p1758
sg45
g1743
sbsg74
(dp1759
g411
I0
sg412
I9
sg413
I2
sg414
I0
ssg80
I00
sg81
(dp1760
g411
I0
sg412
I2
sg413
I0
sg414
I7
ssg83
(dp1761
g1745
I0
sg1746
I0
sg1747
I3
sg1748
I11
ssg85
I0
sg86
I0
sg87
S'Beragueux'
p1762
sg89
I4
sg90
I0
sg91
I12
sg92
I100
sg93
g146
sg95
(dp1763
S'A'
p1764
I11
sS'ME'
p1765
I9
sS'RP2'
p1766
I9
sS'E'
p1767
I10
sS'TO'
p1768
I10
sS'RP1'
p1769
I5
sS'JP'
p1770
I4
sS'RP_tot'
p1771
I9
sS'P'
p1772
I5
sS'PA'
p1773
I10
sS'M'
p1774
I7
sS'R'
p1775
I10
sS'TB'
p1776
I5
sS'PL'
p1777
I10
sS'TA'
p1778
I3
ssg112
(dp1779
g164
(ijoueur
joueur
p1780
(dp1781
g28
I1
sg32
I0
sg34
I0
sg35
g36
(g37
g38
Ntp1782
Rp1783
(dp1784
g42
I3
sg43
S'^^^'
p1785
sg45
S'rare'
p1786
sbsg47
(dp1787
S'SR'
p1788
I0
sS'ST'
p1789
I0
sS'CR'
p1790
I0
sS'CT'
p1791
I0
ssg53
(dp1792
g1788
I0
sg1789
I5
sg1790
I0
sg1791
I13
ssg141
(dp1793
g1788
I0
sg1789
I0
sg1790
I0
sg1791
I0
ssg56
I0
sg58
I0
sg358
I0
sg359
I0
sg60
I0
sg61
I0
sg62
I0
sg63
(S'dummy'
p1794
S'TL'
p1795
S'DL'
p1796
S'PI'
p1797
tp1798
sg67
I01
sg68
g36
(g37
g38
Ntp1799
Rp1800
(dp1801
g42
I3
sg43
S'^^^'
p1802
sg45
g1786
sbsg74
(dp1803
g1788
I0
sg1789
I0
sg1790
I1
sg1791
I2
ssg80
I01
sg81
(dp1804
g1788
I0
sg1789
I5
sg1790
I0
sg1791
I13
ssg83
(dp1805
g1788
I0
sg1789
I0
sg1790
I1
sg1791
I2
ssg85
I0
sg86
I0
sg87
S'Beragueux'
p1806
sg89
I4
sg90
I0
sg91
I12
sg92
I38
sg93
S'TA'
p1807
sg95
(dp1808
S'A'
p1809
I11
sS'ME'
p1810
I9
sS'RP2'
p1811
I9
sS'E'
p1812
I10
sS'TO'
p1813
I10
sS'RP1'
p1814
I6
sS'JP'
p1815
I4
sS'RP_tot'
p1816
I9
sS'P'
p1817
I5
sS'PA'
p1818
I10
sS'M'
p1819
I8
sS'R'
p1820
I11
sS'TB'
p1821
I5
sS'PL'
p1822
I12
sS'TA'
p1823
I4
ssg208
I0
sg209
I0
sg210
I0
sg211
I0
sg57
F10.451612903225806
sg212
I0
sg477
I0
sg213
I0
sg214
I0
sg215
(dp1824
S'A'
p1825
I11
sS'ME'
p1826
I9
sS'RP2'
p1827
I9
sS'E'
p1828
I10
sS'TO'
p1829
I10
sS'RP1'
p1830
I6
sS'JP'
p1831
I4
sS'RP_tot'
p1832
I9
sS'P'
p1833
I5
sS'PA'
p1834
I10
sS'M'
p1835
I8
sS'R'
p1836
I11
sS'TB'
p1837
I5
sS'PL'
p1838
I12
sS'TA'
p1839
I4
ssg232
g1808
sg233
I1
sg234
g31
sg235
I0
sg236
I0
sg237
I0
sg238
I4
sg239
I1
sg240
I0
sg241
S'B'
p1840
sbssg208
I7
sg209
I0
sg210
I0
sg211
I0
sg141
(dp1841
g411
I0
sg412
I0
sg413
I0
sg414
I0
ssg212
I0
sg477
I0
sg213
I0
sg214
I0
sg215
(dp1842
S'A'
p1843
I11
sS'ME'
p1844
I9
sS'RP2'
p1845
I9
sS'E'
p1846
I10
sS'TO'
p1847
I10
sS'RP1'
p1848
I6
sS'JP'
p1849
I4
sS'RP_tot'
p1850
I9
sS'P'
p1851
I5
sS'PA'
p1852
I10
sS'M'
p1853
I8
sS'R'
p1854
I11
sS'TB'
p1855
I5
sS'PL'
p1856
I12
sS'TA'
p1857
I4
ssg232
g1763
sg233
I0
sg234
S'TA 12'
p1858
sg235
I0
sg236
I0
sg237
I0
sg238
I15
sg239
I3
sg240
I0
sg241
S'B'
p1859
sbsg261
(ijoueur
joueur
p1860
(dp1861
g28
I1
sg32
I0
sg34
I0
sg35
g36
(g37
g38
Ntp1862
Rp1863
(dp1864
g42
I3
sg43
S'^^^'
p1865
sg45
S'rare'
p1866
sbsg47
(dp1867
S'SR'
p1868
I0
sS'ST'
p1869
I0
sS'CR'
p1870
I0
sS'CT'
p1871
I0
ssg53
(dp1872
g1868
I0
sg1869
I5
sg1870
I0
sg1871
I13
ssg141
(dp1873
g1868
I0
sg1869
I0
sg1870
I0
sg1871
I0
ssg56
I0
sg58
I0
sg358
I0
sg359
I0
sg60
I0
sg61
I0
sg62
I0
sg63
(S'dummy'
p1874
S'TL'
p1875
S'DL'
p1876
S'PI'
p1877
tp1878
sg67
I01
sg68
g36
(g37
g38
Ntp1879
Rp1880
(dp1881
g42
I3
sg43
S'^^^'
p1882
sg45
g1866
sbsg74
(dp1883
g1868
I0
sg1869
I0
sg1870
I1
sg1871
I2
ssg80
I01
sg81
(dp1884
g1868
I0
sg1869
I5
sg1870
I0
sg1871
I13
ssg83
(dp1885
g1868
I0
sg1869
I0
sg1870
I1
sg1871
I2
ssg85
I0
sg86
I0
sg87
S'Beragueux'
p1886
sg89
I4
sg90
I0
sg91
I12
sg92
I38
sg93
S'TA'
p1887
sg95
(dp1888
S'A'
p1889
I11
sS'ME'
p1890
I9
sS'RP2'
p1891
I9
sS'E'
p1892
I10
sS'TO'
p1893
I10
sS'RP1'
p1894
I6
sS'JP'
p1895
I4
sS'RP_tot'
p1896
I9
sS'P'
p1897
I5
sS'PA'
p1898
I10
sS'M'
p1899
I8
sS'R'
p1900
I11
sS'TB'
p1901
I5
sS'PL'
p1902
I12
sS'TA'
p1903
I4
ssg208
I0
sg209
I0
sg210
I0
sg211
I0
sg57
F10.451612903225806
sg212
I0
sg477
I0
sg213
I0
sg214
I0
sg215
(dp1904
S'A'
p1905
I11
sS'ME'
p1906
I9
sS'RP2'
p1907
I9
sS'E'
p1908
I10
sS'TO'
p1909
I10
sS'RP1'
p1910
I6
sS'JP'
p1911
I4
sS'RP_tot'
p1912
I9
sS'P'
p1913
I5
sS'PA'
p1914
I10
sS'M'
p1915
I8
sS'R'
p1916
I11
sS'TB'
p1917
I5
sS'PL'
p1918
I12
sS'TA'
p1919
I4
ssg232
g1888
sg233
I1
sg234
g31
sg235
I0
sg236
I0
sg237
I0
sg238
I4
sg239
I1
sg240
I0
sg241
S'B'
p1920
sbssg208
I5
sg209
I0
sg210
I0
sg211
I0
sg57
F9.657894736842104
sg212
I0
sg59
F63.87696174186581
sg477
I0
sg213
I0
sg214
I0
sg215
(dp1921
S'A'
p1922
I11
sS'ME'
p1923
I9
sS'RP2'
p1924
I9
sS'E'
p1925
I10
sS'TO'
p1926
I10
sS'RP1'
p1927
I6
sS'JP'
p1928
I4
sS'RP_tot'
p1929
I9
sS'P'
p1930
I5
sS'PA'
p1931
I10
sS'M'
p1932
I8
sS'R'
p1933
I11
sS'TB'
p1934
I5
sS'PL'
p1935
I12
sS'TA'
p1936
I4
ssg232
(dp1937
g1721
I11
sg1722
I8
sg1723
I9
sg1724
I10
sg1729
I10
sg1726
I5
sg1727
I4
sg1728
I9
sg1725
I5
sg1730
I10
sg1731
I6
sg1732
I10
sg1733
I5
sg1734
I10
sg1735
I3
ssg233
I0
sg340
(dp1938
sg235
I0
sg234
S'TA 12'
p1939
sg236
I0
sg237
I0
sg238
I15
sg239
I3
sg240
I0
sg241
S'B'
p1940
sbssS'totaux'
p1941
(dp1942
g19
I0
sg20
I0
sg21
I0
ssS'_compo_defaut_fatigue'
p1943
Nsg95
(dp1944
g4
I0
sg5
I0
sg6
I0
sg7
I0
sg8
I0
sg9
I0
sg10
I0
sg11
I0
sg12
I0
sg13
I0
sg14
I0
sg15
I0
sg16
I0
ssS'joueurs'
p1945
(dp1946
S'n12'
p1947
g1010
sS'n13'
p1948
(ijoueur
joueur
p1949
(dp1950
g27
F9.696969696969697
sg28
I0
sg29
F8.878787878787879
sg30
g31
sg32
I0
sg33
F32.14881106355112
sg34
I0
sg35
g36
(g37
g38
Ntp1951
Rp1952
(dp1953
g42
I4
sg43
S'x'
p1954
sg45
S'heros'
p1955
sbsg47
(dp1956
S'SR'
p1957
I0
sS'CT'
p1958
I15
sS'CR'
p1959
I7
sS'ST'
p1960
I0
ssg53
(dp1961
g1957
I0
sg1958
I0
sg1959
I0
sg1960
I0
ssg55
I0
sg141
(dp1962
S'SR'
p1963
I0
sS'CT'
p1964
I1
sS'CR'
p1965
I0
sS'ST'
p1966
I0
ssg56
I0
sg58
I0
sg358
I0
sg359
I1
sg60
I0
sg61
I0
sg62
I0
sg63
(S'dummy'
p1967
S'DO'
p1968
S'CE'
p1969
g31
tp1970
sg67
I00
sg68
g36
(g37
g38
Ntp1971
Rp1972
(dp1973
g42
I4
sg43
g1954
sg45
g1955
sbsg74
(dp1974
g1963
I0
sg1964
I0
sg1965
I2
sg1966
I0
ssg80
I00
sg81
(dp1975
g1963
I0
sg1964
I0
sg1965
I0
sg1966
I0
ssg83
(dp1976
g1957
I0
sg1958
I1
sg1959
I8
sg1960
I0
ssg85
I1
sg86
I0
sg87
S'Jevoff'
p1977
sg89
I8
sg90
I0
sg91
I22
sg92
I82
sg93
S'DKF'
p1978
sg95
(dp1979
S'A'
p1980
I9
sS'ME'
p1981
I5
sS'RP2'
p1982
I10
sS'E'
p1983
I9
sS'TO'
p1984
I8
sS'RP1'
p1985
I10
sS'JP'
p1986
I8
sS'RP_tot'
p1987
I12
sS'P'
p1988
I9
sS'PA'
p1989
I11
sS'M'
p1990
I10
sS'R'
p1991
I8
sS'TB'
p1992
I9
sS'PL'
p1993
I6
sS'TA'
p1994
I6
ssg112
(dp1995
S's12'
p1996
(ijoueur
joueur
p1997
(dp1998
g27
F9.696969696969697
sg28
I0
sg30
g31
sg32
I0
sg34
I0
sg35
g36
(g37
g38
Ntp1999
Rp2000
(dp2001
g42
I4
sg43
S'x'
p2002
sg45
S'heros'
p2003
sbsg47
(dp2004
S'SR'
p2005
I0
sS'CT'
p2006
I14
sS'CR'
p2007
I7
sS'ST'
p2008
I0
ssg53
(dp2009
g2005
I0
sg2006
I0
sg2007
I0
sg2008
I0
ssg56
I0
sg57
F8.878787878787879
sg58
I0
sg358
I0
sg359
I1
sg60
I1
sg61
I0
sg62
I0
sg63
(S'dummy'
p2010
S'DO'
p2011
S'CE'
p2012
g31
tp2013
sg67
I00
sg68
g36
(g37
g38
Ntp2014
Rp2015
(dp2016
g42
I4
sg43
g2002
sg45
g2003
sbsg74
(dp2017
S'SR'
p2018
I0
sS'CT'
p2019
I0
sS'CR'
p2020
I5
sS'ST'
p2021
I0
ssg80
I00
sg81
(dp2022
g2018
I0
sg2019
I0
sg2020
I0
sg2021
I0
ssg83
(dp2023
g2005
I0
sg2006
I1
sg2007
I6
sg2008
I0
ssg85
I1
sg86
I0
sg87
S'Jevoff (12)'
p2024
sg89
I8
sg90
I0
sg91
I22
sg92
I82
sg93
S'DKF'
p2025
sg95
(dp2026
S'A'
p2027
I9
sS'ME'
p2028
I5
sS'RP2'
p2029
I9
sS'E'
p2030
I9
sS'P'
p2031
I9
sS'RP1'
p2032
I9
sS'JP'
p2033
I7
sS'RP_tot'
p2034
I11
sS'TO'
p2035
I8
sS'PA'
p2036
I11
sS'M'
p2037
I10
sS'R'
p2038
I8
sS'TB'
p2039
I8
sS'PL'
p2040
I6
sS'TA'
p2041
I6
ssg112
(dp2042
S's11'
p2043
(ijoueur
joueur
p2044
(dp2045
g28
I0
sg32
I0
sg34
I0
sg35
g36
(g37
g38
Ntp2046
Rp2047
(dp2048
g42
I4
sg43
S'x'
p2049
sg45
S'heros'
p2050
sbsg47
(dp2051
S'SR'
p2052
I0
sS'CT'
p2053
I11
sS'CR'
p2054
I1
sS'ST'
p2055
I0
ssg53
(dp2056
g2052
I0
sg2053
I0
sg2054
I0
sg2055
I0
ssg56
I0
sg57
F9.696969696969697
sg58
I0
sg358
I0
sg359
I1
sg60
I2
sg61
I0
sg62
I0
sg63
(S'dummy'
p2057
S'DO'
p2058
S'CE'
p2059
g31
tp2060
sg67
I00
sg68
g36
(g37
g38
Ntp2061
Rp2062
(dp2063
g42
I4
sg43
g2049
sg45
g2050
sbsg74
(dp2064
g2052
I0
sg2053
I1
sg2054
I1
sg2055
I0
ssg80
I00
sg81
(dp2065
g2052
I0
sg2053
I0
sg2054
I0
sg2055
I0
ssg83
(dp2066
g2052
I0
sg2053
I1
sg2054
I1
sg2055
I0
ssg85
I1
sg86
I0
sg87
S'Jevoff'
p2067
sg89
I8
sg90
I0
sg91
I22
sg92
I82
sg93
S'DKF'
p2068
sg95
(dp2069
S'A'
p2070
I9
sS'ME'
p2071
I5
sS'RP2'
p2072
I9
sS'E'
p2073
I9
sS'P'
p2074
I9
sS'RP1'
p2075
I9
sS'JP'
p2076
I10
sS'RP_tot'
p2077
I11
sS'TO'
p2078
I8
sS'PA'
p2079
I11
sS'M'
p2080
I10
sS'R'
p2081
I8
sS'TB'
p2082
I8
sS'PL'
p2083
I9
sS'TA'
p2084
I6
ssg208
I0
sg209
I0
sg210
I0
sg211
I0
sg141
(dp2085
g2052
I0
sg2053
I11
sg2054
I1
sg2055
I0
ssg212
I0
sg477
I0
sg213
I0
sg214
I2
sg215
(dp2086
S'A'
p2087
I9
sS'ME'
p2088
I5
sS'RP2'
p2089
I9
sS'E'
p2090
I9
sS'P'
p2091
I9
sS'RP1'
p2092
I9
sS'JP'
p2093
I10
sS'RP_tot'
p2094
I11
sS'TO'
p2095
I8
sS'PA'
p2096
I11
sS'M'
p2097
I10
sS'R'
p2098
I8
sS'TB'
p2099
I8
sS'PL'
p2100
I9
sS'TA'
p2101
I6
ssg232
g2069
sg233
I0
sg234
g31
sg235
I0
sg236
I0
sg237
I0
sg238
I9
sg239
I2
sg240
I2
sg241
S'CV'
p2102
sbssg208
I0
sg209
I0
sg210
I0
sg211
I0
sg141
(dp2103
g2018
I0
sg2019
I3
sg2020
I6
sg2021
I0
ssg212
I0
sg477
I0
sg213
I0
sg214
I3
sg215
(dp2104
S'A'
p2105
I9
sS'ME'
p2106
I5
sS'RP2'
p2107
I9
sS'E'
p2108
I9
sS'P'
p2109
I9
sS'RP1'
p2110
I9
sS'JP'
p2111
I10
sS'RP_tot'
p2112
I11
sS'TO'
p2113
I8
sS'PA'
p2114
I11
sS'M'
p2115
I10
sS'R'
p2116
I8
sS'TB'
p2117
I8
sS'PL'
p2118
I9
sS'TA'
p2119
I6
ssg232
g2026
sg233
I0
sg234
g31
sg235
I0
sg236
I0
sg237
I0
sg238
I9
sg239
I3
sg240
I1
sg241
S'CV'
p2120
sbsS's11'
p2121
(ijoueur
joueur
p2122
(dp2123
g28
I0
sg32
I0
sg34
I0
sg35
g36
(g37
g38
Ntp2124
Rp2125
(dp2126
g42
I4
sg43
S'x'
p2127
sg45
S'heros'
p2128
sbsg47
(dp2129
S'SR'
p2130
I0
sS'CT'
p2131
I11
sS'CR'
p2132
I1
sS'ST'
p2133
I0
ssg53
(dp2134
g2130
I0
sg2131
I0
sg2132
I0
sg2133
I0
ssg56
I0
sg57
F9.696969696969697
sg58
I0
sg358
I0
sg359
I1
sg60
I2
sg61
I0
sg62
I0
sg63
(S'dummy'
p2135
S'DO'
p2136
S'CE'
p2137
g31
tp2138
sg67
I00
sg68
g36
(g37
g38
Ntp2139
Rp2140
(dp2141
g42
I4
sg43
g2127
sg45
g2128
sbsg74
(dp2142
g2130
I0
sg2131
I1
sg2132
I1
sg2133
I0
ssg80
I00
sg81
(dp2143
g2130
I0
sg2131
I0
sg2132
I0
sg2133
I0
ssg83
(dp2144
g2130
I0
sg2131
I1
sg2132
I1
sg2133
I0
ssg85
I1
sg86
I0
sg87
S'Jevoff (11)'
p2145
sg89
I8
sg90
I0
sg91
I22
sg92
I82
sg93
S'DKF'
p2146
sg95
(dp2147
S'A'
p2148
I9
sS'ME'
p2149
I5
sS'RP2'
p2150
I9
sS'E'
p2151
I9
sS'P'
p2152
I9
sS'RP1'
p2153
I9
sS'JP'
p2154
I10
sS'RP_tot'
p2155
I11
sS'TO'
p2156
I8
sS'PA'
p2157
I11
sS'M'
p2158
I10
sS'R'
p2159
I8
sS'TB'
p2160
I8
sS'PL'
p2161
I9
sS'TA'
p2162
I6
ssg208
I0
sg209
I0
sg210
I0
sg211
I0
sg141
(dp2163
g2130
I0
sg2131
I11
sg2132
I1
sg2133
I0
ssg212
I0
sg477
I0
sg213
I0
sg214
I2
sg215
(dp2164
S'A'
p2165
I9
sS'ME'
p2166
I5
sS'RP2'
p2167
I9
sS'E'
p2168
I9
sS'P'
p2169
I9
sS'RP1'
p2170
I9
sS'JP'
p2171
I10
sS'RP_tot'
p2172
I11
sS'TO'
p2173
I8
sS'PA'
p2174
I11
sS'M'
p2175
I10
sS'R'
p2176
I8
sS'TB'
p2177
I8
sS'PL'
p2178
I9
sS'TA'
p2179
I6
ssg232
g2147
sg233
I0
sg234
g31
sg235
I0
sg236
I0
sg237
I0
sg238
I9
sg239
I2
sg240
I2
sg241
S'CV'
p2180
sbssg208
I0
sg209
I0
sg210
I1
sg211
I0
sg57
F9.121212121212121
sg212
I0
sg59
F32.14881106355112
sg477
I0
sg213
I1
sg214
I3
sg215
(dp2181
S'A'
p2182
I9
sS'ME'
p2183
I5
sS'RP2'
p2184
I9
sS'E'
p2185
I9
sS'P'
p2186
I9
sS'RP1'
p2187
I9
sS'JP'
p2188
I10
sS'RP_tot'
p2189
I11
sS'TO'
p2190
I8
sS'PA'
p2191
I11
sS'M'
p2192
I10
sS'R'
p2193
I8
sS'TB'
p2194
I8
sS'PL'
p2195
I9
sS'TA'
p2196
I6
ssg232
(dp2197
g1980
I9
sg1981
I5
sg1982
I10
sg1983
I9
sg1988
I9
sg1985
I10
sg1986
I8
sg1987
I12
sg1984
I8
sg1989
I11
sg1990
I10
sg1991
I8
sg1992
I9
sg1993
I6
sg1994
I6
ssg233
I0
sg340
(dp2198
sg235
I0
sg234
g31
sg236
I0
sg237
I0
sg238
I9
sg239
I3
sg240
I0
sg241
S'CV'
p2199
sbsS'n10'
p2200
g345
sS'n11'
p2201
(ijoueur
joueur
p2202
(dp2203
g27
F8.903225806451612
sg28
I0
sg29
F10.575757575757576
sg30
g31
sg32
I0
sg33
F63.66143871754078
sg34
I0
sg35
g36
(g37
g38
Ntp2204
Rp2205
(dp2206
g42
I4
sg43
S'*'
p2207
sg45
S'heros'
p2208
sbsg47
(dp2209
S'SR'
p2210
I0
sS'CT'
p2211
I0
sS'CR'
p2212
I0
sS'ST'
p2213
I0
ssg53
(dp2214
g2210
I0
sg2211
I0
sg2212
I0
sg2213
I0
ssg55
I0
sg56
I0
sg58
I0
sg59
F63.66143871754078
sg80
I00
sg60
I1
sg61
I0
sg62
I0
sg63
(S'dummy'
p2215
S'AI'
p2216
g31
g31
tp2217
sg67
I00
sg68
g2205
sg74
(dp2218
g76
I0
sg77
I6
sg78
I0
sg79
I0
ssg141
(dp2219
g76
I0
sg77
I0
sg78
I0
sg79
I0
ssg81
(dp2220
g76
I0
sg77
I0
sg78
I0
sg79
I0
ssg83
(dp2221
g2210
I5
sg2211
I10
sg2212
I10
sg2213
I1
ssg85
I9
sg86
I0
sg87
S'Kyeem'
p2222
sg89
I10
sg90
I14
sg91
I24
sg92
I100
sg93
g94
sg95
(dp2223
S'A'
p2224
I9
sS'ME'
p2225
I6
sS'RP2'
p2226
I9
sS'E'
p2227
I10
sS'TO'
p2228
I4
sS'RP1'
p2229
I11
sS'JP'
p2230
I6
sS'RP_tot'
p2231
I12
sS'P'
p2232
I9
sS'PA'
p2233
I8
sS'M'
p2234
I11
sS'R'
p2235
I2
sS'TB'
p2236
I11
sS'PL'
p2237
I9
sS'TA'
p2238
I6
ssg112
(dp2239
S's12'
p2240
(ijoueur
joueur
p2241
(dp2242
g27
F8.903225806451612
sg28
I0
sg30
g31
sg32
I0
sg34
I0
sg35
g36
(g37
g38
Ntp2243
Rp2244
(dp2245
g42
I4
sg43
S'*'
p2246
sg45
S'heros'
p2247
sbsg47
(dp2248
S'SR'
p2249
I0
sS'CT'
p2250
I0
sS'CR'
p2251
I0
sS'ST'
p2252
I0
ssg53
(dp2253
g2249
I0
sg2250
I0
sg2251
I0
sg2252
I0
ssg141
(dp2254
S'SR'
p2255
I0
sS'CT'
p2256
I0
sS'CR'
p2257
I0
sS'ST'
p2258
I0
ssg56
I0
sg58
I0
sg60
I2
sg61
I0
sg62
I14
sg63
(S'dummy'
p2259
S'AI'
p2260
g31
g31
tp2261
sg67
I01
sg68
g2244
sg74
(dp2262
g2255
I5
sg2256
I4
sg2257
I10
sg2258
I1
ssg80
I01
sg81
(dp2263
g2255
I0
sg2256
I0
sg2257
I0
sg2258
I0
ssg83
(dp2264
g2249
I5
sg2250
I4
sg2251
I10
sg2252
I1
ssg85
I9
sg86
I9
sg87
S'Kyeem'
p2265
sg89
I10
sg90
I14
sg91
I24
sg92
I27
sg93
S'TO'
p2266
sg95
(dp2267
S'A'
p2268
I11
sS'ME'
p2269
I6
sS'RP2'
p2270
I9
sS'E'
p2271
I10
sS'P'
p2272
I9
sS'RP1'
p2273
I11
sS'JP'
p2274
I6
sS'RP_tot'
p2275
I13
sS'TO'
p2276
I4
sS'PA'
p2277
I8
sS'M'
p2278
I11
sS'R'
p2279
I5
sS'TB'
p2280
I11
sS'PL'
p2281
I11
sS'TA'
p2282
I6
ssg112
(dp2283
S's11'
p2284
(ijoueur
joueur
p2285
(dp2286
g28
I0
sg32
I0
sg34
I0
sg35
g36
(g37
g38
Ntp2287
Rp2288
(dp2289
g42
I4
sg43
S'*'
p2290
sg45
S'heros'
p2291
sbsg47
(dp2292
S'SR'
p2293
I0
sS'CT'
p2294
I0
sS'CR'
p2295
I0
sS'ST'
p2296
I0
ssg53
(dp2297
g2293
I0
sg2294
I0
sg2295
I0
sg2296
I0
ssg56
I0
sg58
I0
sg80
I00
sg60
I0
sg61
I0
sg62
I0
sg63
(S'dummy'
p2298
S'AI'
p2299
g31
g31
tp2300
sg67
I00
sg68
g36
(g37
g38
Ntp2301
Rp2302
(dp2303
g42
I3
sg43
S'^^^'
p2304
sg45
S'rare'
p2305
sbsg74
(dp2306
g2293
I0
sg2294
I0
sg2295
I0
sg2296
I0
ssg141
(dp2307
g2293
I0
sg2294
I0
sg2295
I0
sg2296
I0
ssg81
(dp2308
g2293
I0
sg2294
I0
sg2295
I0
sg2296
I0
ssg83
(dp2309
g2293
I0
sg2294
I0
sg2295
I0
sg2296
I0
ssg85
I0
sg86
I0
sg87
S'Kyeem'
p2310
sg89
I10
sg90
I0
sg91
I24
sg92
I27
sg93
S'TO'
p2311
sg95
(dp2312
S'A'
p2313
I8
sS'ME'
p2314
I6
sS'RP2'
p2315
I8
sS'E'
p2316
I10
sS'P'
p2317
I4
sS'RP1'
p2318
I11
sS'JP'
p2319
I1
sS'RP_tot'
p2320
I12
sS'TO'
p2321
I2
sS'PA'
p2322
I5
sS'M'
p2323
I11
sS'R'
p2324
I5
sS'TB'
p2325
I5
sS'PL'
p2326
I9
sS'TA'
p2327
I6
ssg208
I0
sg209
I0
sg210
I0
sg211
I0
sg57
F8.903225806451612
sg212
I0
sg213
I0
sg214
I0
sg215
(dp2328
S'A'
p2329
I8
sS'ME'
p2330
I6
sS'RP2'
p2331
I8
sS'E'
p2332
I10
sS'P'
p2333
I4
sS'RP1'
p2334
I11
sS'JP'
p2335
I1
sS'RP_tot'
p2336
I12
sS'TO'
p2337
I2
sS'PA'
p2338
I5
sS'M'
p2339
I11
sS'R'
p2340
I5
sS'TB'
p2341
I5
sS'PL'
p2342
I9
sS'TA'
p2343
I6
ssg232
g2312
sg233
I0
sg234
g31
sg235
I0
sg236
I0
sg237
I0
sg238
I4
sg239
I0
sg240
I0
sg241
S'HL'
p2344
sbssg208
I2
sg209
I0
sg210
I1
sg211
I0
sg57
F10.575757575757576
sg212
I0
sg213
I1
sg214
I0
sg215
(dp2345
S'A'
p2346
I8
sS'ME'
p2347
I6
sS'RP2'
p2348
I8
sS'E'
p2349
I10
sS'TO'
p2350
I2
sS'RP1'
p2351
I11
sS'JP'
p2352
I1
sS'RP_tot'
p2353
I12
sS'P'
p2354
I4
sS'PA'
p2355
I5
sS'M'
p2356
I11
sS'R'
p2357
I5
sS'TB'
p2358
I5
sS'PL'
p2359
I9
sS'TA'
p2360
I6
ssg232
g2267
sg233
I0
sg234
g31
sg235
I0
sg236
I0
sg237
I0
sg238
I4
sg239
I2
sg240
I0
sg241
S'HL'
p2361
sbsS's11'
p2362
(ijoueur
joueur
p2363
(dp2364
g28
I0
sg32
I0
sg34
I0
sg35
g36
(g37
g38
Ntp2365
Rp2366
(dp2367
g42
I4
sg43
S'*'
p2368
sg45
S'heros'
p2369
sbsg47
(dp2370
S'SR'
p2371
I0
sS'CT'
p2372
I0
sS'CR'
p2373
I0
sS'ST'
p2374
I0
ssg53
(dp2375
g2371
I0
sg2372
I0
sg2373
I0
sg2374
I0
ssg56
I0
sg58
I0
sg80
I00
sg60
I0
sg61
I0
sg62
I0
sg63
(S'dummy'
p2376
S'AI'
p2377
g31
g31
tp2378
sg67
I00
sg68
g36
(g37
g38
Ntp2379
Rp2380
(dp2381
g42
I3
sg43
S'^^^'
p2382
sg45
S'rare'
p2383
sbsg74
(dp2384
g2371
I0
sg2372
I0
sg2373
I0
sg2374
I0
ssg141
(dp2385
g2371
I0
sg2372
I0
sg2373
I0
sg2374
I0
ssg81
(dp2386
g2371
I0
sg2372
I0
sg2373
I0
sg2374
I0
ssg83
(dp2387
g2371
I0
sg2372
I0
sg2373
I0
sg2374
I0
ssg85
I0
sg86
I0
sg87
S'Kyeem'
p2388
sg89
I10
sg90
I0
sg91
I24
sg92
I27
sg93
S'TO'
p2389
sg95
(dp2390
S'A'
p2391
I8
sS'ME'
p2392
I6
sS'RP2'
p2393
I8
sS'E'
p2394
I10
sS'P'
p2395
I4
sS'RP1'
p2396
I11
sS'JP'
p2397
I1
sS'RP_tot'
p2398
I12
sS'TO'
p2399
I2
sS'PA'
p2400
I5
sS'M'
p2401
I11
sS'R'
p2402
I5
sS'TB'
p2403
I5
sS'PL'
p2404
I9
sS'TA'
p2405
I6
ssg208
I0
sg209
I0
sg210
I0
sg211
I0
sg57
F8.903225806451612
sg212
I0
sg213
I0
sg214
I0
sg215
(dp2406
S'A'
p2407
I8
sS'ME'
p2408
I6
sS'RP2'
p2409
I8
sS'E'
p2410
I10
sS'P'
p2411
I4
sS'RP1'
p2412
I11
sS'JP'
p2413
I1
sS'RP_tot'
p2414
I12
sS'TO'
p2415
I2
sS'PA'
p2416
I5
sS'M'
p2417
I11
sS'R'
p2418
I5
sS'TB'
p2419
I5
sS'PL'
p2420
I9
sS'TA'
p2421
I6
ssg232
g2390
sg233
I0
sg234
g31
sg235
I0
sg236
I0
sg237
I0
sg238
I4
sg239
I0
sg240
I0
sg241
S'HL'
p2422
sbssg208
I9
sg209
I0
sg210
I1
sg211
I0
sg57
F10.030303030303031
sg212
I0
sg213
I0
sg214
I0
sg215
(dp2423
S'A'
p2424
I8
sS'ME'
p2425
I6
sS'RP2'
p2426
I8
sS'E'
p2427
I10
sS'TO'
p2428
I2
sS'RP1'
p2429
I11
sS'JP'
p2430
I1
sS'RP_tot'
p2431
I12
sS'P'
p2432
I4
sS'PA'
p2433
I5
sS'M'
p2434
I11
sS'R'
p2435
I5
sS'TB'
p2436
I5
sS'PL'
p2437
I9
sS'TA'
p2438
I6
ssg232
(dp2439
g2224
I10
sg2225
I6
sg2226
I9
sg2227
I10
sg2232
I9
sg2229
I11
sg2230
I6
sg2231
I12
sg2228
I4
sg2233
I8
sg2234
I11
sg2235
I3
sg2236
I11
sg2237
I10
sg2238
I6
ssg233
I0
sg340
(dp2440
sg235
I0
sg234
S'TO 13'
p2441
sg236
I0
sg237
I0
sg238
I11
sg239
I3
sg240
I0
sg241
S'HL'
p2442
sbsS'n16'
p2443
(ijoueur
joueur
p2444
(dp2445
g27
F8.275862068965518
sg28
I1
sg29
F7.931034482758621
sg30
g31
sg32
I0
sg33
F20.920829379536166
sg34
I0
sg35
g36
(g37
g38
Ntp2446
Rp2447
(dp2448
g42
I1
sg43
S'^'
p2449
sg45
S'base'
p2450
sbsg47
(dp2451
S'SR'
p2452
I0
sS'CT'
p2453
I0
sS'CR'
p2454
I0
sS'ST'
p2455
I0
ssg53
(dp2456
g2452
I0
sg2453
I0
sg2454
I0
sg2455
I0
ssg55
I0
sg56
I0
sg58
I0
sg358
I0
sg359
I0
sg80
I00
sg60
I0
sg61
I0
sg62
I0
sg63
(S'dummy'
p2457
S'TA'
p2458
g31
g31
tp2459
sg67
I00
sg68
g36
(g37
g38
Ntp2460
Rp2461
(dp2462
g42
I1
sg43
g2449
sg45
g2450
sbsg74
(dp2463
S'SR'
p2464
I0
sS'ST'
p2465
I0
sS'CR'
p2466
I2
sS'CT'
p2467
I0
ssg141
(dp2468
g2464
I0
sg2465
I0
sg2466
I0
sg2467
I0
ssg81
(dp2469
g2464
I0
sg2465
I0
sg2466
I0
sg2467
I0
ssg83
(dp2470
g2452
I0
sg2453
I15
sg2454
I12
sg2455
I0
ssg85
I0
sg86
I0
sg87
S'Antbyop'
p2471
sg89
I11
sg90
I0
sg91
I21
sg92
I29
sg93
S'DKF'
p2472
sg95
(dp2473
S'A'
p2474
I8
sS'ME'
p2475
I8
sS'RP2'
p2476
I7
sS'E'
p2477
I9
sS'TO'
p2478
I5
sS'RP1'
p2479
I9
sS'JP'
p2480
I3
sS'RP_tot'
p2481
I9
sS'P'
p2482
I5
sS'PA'
p2483
I6
sS'M'
p2484
I8
sS'R'
p2485
I9
sS'TB'
p2486
I2
sS'PL'
p2487
I5
sS'TA'
p2488
I10
ssg112
(dp2489
S's12'
p2490
(ijoueur
joueur
p2491
(dp2492
g27
F8.275862068965518
sg28
I1
sg30
g31
sg32
I0
sg34
I0
sg35
g36
(g37
g38
Ntp2493
Rp2494
(dp2495
g42
I1
sg43
S'^'
p2496
sg45
S'base'
p2497
sbsg47
(dp2498
S'SR'
p2499
I0
sS'CT'
p2500
I0
sS'CR'
p2501
I0
sS'ST'
p2502
I0
ssg53
(dp2503
g2499
I0
sg2500
I0
sg2501
I0
sg2502
I0
ssg141
(dp2504
S'SR'
p2505
I0
sS'ST'
p2506
I0
sS'CR'
p2507
I0
sS'CT'
p2508
I0
ssg56
I0
sg58
I0
sg358
I0
sg359
I0
sg60
I0
sg61
I0
sg62
I0
sg63
(S'dummy'
p2509
S'TA'
p2510
g31
g31
tp2511
sg67
I00
sg68
g36
(g37
g38
Ntp2512
Rp2513
(dp2514
g42
I1
sg43
g2496
sg45
g2497
sbsg74
(dp2515
g2505
I0
sg2506
I0
sg2507
I10
sg2508
I3
ssg80
I00
sg81
(dp2516
g2505
I0
sg2506
I0
sg2507
I0
sg2508
I0
ssg83
(dp2517
g2499
I0
sg2500
I15
sg2501
I10
sg2502
I0
ssg85
I0
sg86
I0
sg87
S'Antbyop'
p2518
sg89
I11
sg90
I0
sg91
I21
sg92
I29
sg93
S'DKF'
p2519
sg95
(dp2520
S'A'
p2521
I8
sS'ME'
p2522
I8
sS'RP2'
p2523
I6
sS'E'
p2524
I9
sS'P'
p2525
I5
sS'RP1'
p2526
I9
sS'JP'
p2527
I3
sS'RP_tot'
p2528
I9
sS'TO'
p2529
I5
sS'PA'
p2530
I6
sS'M'
p2531
I8
sS'R'
p2532
I8
sS'TB'
p2533
I2
sS'PL'
p2534
I5
sS'TA'
p2535
I9
ssg112
(dp2536
S's11'
p2537
(ijoueur
joueur
p2538
(dp2539
g28
I1
sg32
I0
sg34
I0
sg35
g36
(g37
g38
Ntp2540
Rp2541
(dp2542
g42
I1
sg43
S'^'
p2543
sg45
S'base'
p2544
sbsg47
(dp2545
S'SR'
p2546
I0
sS'CT'
p2547
I0
sS'CR'
p2548
I0
sS'ST'
p2549
I0
ssg53
(dp2550
g2546
I0
sg2547
I0
sg2548
I0
sg2549
I0
ssg141
(dp2551
g2546
I0
sg2547
I0
sg2548
I0
sg2549
I0
ssg56
I0
sg58
I0
sg358
I0
sg359
I0
sg60
I0
sg61
I0
sg62
I0
sg63
(S'dummy'
p2552
S'TA'
p2553
g31
g31
tp2554
sg67
I00
sg68
g36
(g37
g38
Ntp2555
Rp2556
(dp2557
g42
I1
sg43
g2543
sg45
g2544
sbsg74
(dp2558
g2546
I0
sg2547
I12
sg2548
I0
sg2549
I0
ssg80
I00
sg81
(dp2559
g2546
I0
sg2547
I0
sg2548
I0
sg2549
I0
ssg83
(dp2560
g2546
I0
sg2547
I12
sg2548
I0
sg2549
I0
ssg85
I0
sg86
I0
sg87
S'Antbyop'
p2561
sg89
I11
sg90
I0
sg91
I21
sg92
I29
sg93
S'DKF'
p2562
sg95
(dp2563
S'A'
p2564
I8
sS'ME'
p2565
I8
sS'RP2'
p2566
I6
sS'E'
p2567
I9
sS'P'
p2568
I5
sS'RP1'
p2569
I9
sS'JP'
p2570
I3
sS'RP_tot'
p2571
I9
sS'TO'
p2572
I5
sS'PA'
p2573
I6
sS'M'
p2574
I8
sS'R'
p2575
I9
sS'TB'
p2576
I2
sS'PL'
p2577
I6
sS'TA'
p2578
I9
ssg208
I0
sg209
I0
sg210
I0
sg211
I0
sg57
F8.275862068965518
sg212
I0
sg477
I0
sg213
I0
sg214
I0
sg215
(dp2579
S'A'
p2580
I8
sS'ME'
p2581
I8
sS'RP2'
p2582
I6
sS'E'
p2583
I9
sS'P'
p2584
I5
sS'RP1'
p2585
I9
sS'JP'
p2586
I3
sS'RP_tot'
p2587
I9
sS'TO'
p2588
I5
sS'PA'
p2589
I6
sS'M'
p2590
I8
sS'R'
p2591
I9
sS'TB'
p2592
I2
sS'PL'
p2593
I6
sS'TA'
p2594
I9
ssg232
g2563
sg233
I1
sg234
g31
sg235
I0
sg236
I0
sg237
I0
sg238
I6
sg239
I0
sg240
I0
sg241
S'CV'
p2595
sbssg208
I0
sg209
I0
sg210
I0
sg211
I0
sg57
F7.931034482758621
sg212
I0
sg477
I0
sg213
I0
sg214
I0
sg215
(dp2596
S'A'
p2597
I8
sS'ME'
p2598
I8
sS'RP2'
p2599
I6
sS'E'
p2600
I9
sS'P'
p2601
I5
sS'RP1'
p2602
I9
sS'JP'
p2603
I3
sS'RP_tot'
p2604
I9
sS'TO'
p2605
I5
sS'PA'
p2606
I6
sS'M'
p2607
I8
sS'R'
p2608
I9
sS'TB'
p2609
I2
sS'PL'
p2610
I6
sS'TA'
p2611
I9
ssg232
g2520
sg233
I0
sg234
g31
sg235
I0
sg236
I0
sg237
I0
sg238
I6
sg239
I0
sg240
I0
sg241
S'CV'
p2612
sbsS's11'
p2613
(ijoueur
joueur
p2614
(dp2615
g28
I1
sg32
I0
sg34
I0
sg35
g36
(g37
g38
Ntp2616
Rp2617
(dp2618
g42
I1
sg43
S'^'
p2619
sg45
S'base'
p2620
sbsg47
(dp2621
S'SR'
p2622
I0
sS'CT'
p2623
I0
sS'CR'
p2624
I0
sS'ST'
p2625
I0
ssg53
(dp2626
g2622
I0
sg2623
I0
sg2624
I0
sg2625
I0
ssg141
(dp2627
g2622
I0
sg2623
I0
sg2624
I0
sg2625
I0
ssg56
I0
sg58
I0
sg358
I0
sg359
I0
sg60
I0
sg61
I0
sg62
I0
sg63
(S'dummy'
p2628
S'TA'
p2629
g31
g31
tp2630
sg67
I00
sg68
g36
(g37
g38
Ntp2631
Rp2632
(dp2633
g42
I1
sg43
g2619
sg45
g2620
sbsg74
(dp2634
g2622
I0
sg2623
I12
sg2624
I0
sg2625
I0
ssg80
I00
sg81
(dp2635
g2622
I0
sg2623
I0
sg2624
I0
sg2625
I0
ssg83
(dp2636
g2622
I0
sg2623
I12
sg2624
I0
sg2625
I0
ssg85
I0
sg86
I0
sg87
S'Antbyop'
p2637
sg89
I11
sg90
I0
sg91
I21
sg92
I29
sg93
S'DKF'
p2638
sg95
(dp2639
S'A'
p2640
I8
sS'ME'
p2641
I8
sS'RP2'
p2642
I6
sS'E'
p2643
I9
sS'P'
p2644
I5
sS'RP1'
p2645
I9
sS'JP'
p2646
I3
sS'RP_tot'
p2647
I9
sS'TO'
p2648
I5
sS'PA'
p2649
I6
sS'M'
p2650
I8
sS'R'
p2651
I9
sS'TB'
p2652
I2
sS'PL'
p2653
I6
sS'TA'
p2654
I9
ssg208
I0
sg209
I0
sg210
I0
sg211
I0
sg57
F8.275862068965518
sg212
I0
sg477
I0
sg213
I0
sg214
I0
sg215
(dp2655
S'A'
p2656
I8
sS'ME'
p2657
I8
sS'RP2'
p2658
I6
sS'E'
p2659
I9
sS'P'
p2660
I5
sS'RP1'
p2661
I9
sS'JP'
p2662
I3
sS'RP_tot'
p2663
I9
sS'TO'
p2664
I5
sS'PA'
p2665
I6
sS'M'
p2666
I8
sS'R'
p2667
I9
sS'TB'
p2668
I2
sS'PL'
p2669
I6
sS'TA'
p2670
I9
ssg232
g2639
sg233
I1
sg234
g31
sg235
I0
sg236
I0
sg237
I0
sg238
I6
sg239
I0
sg240
I0
sg241
S'CV'
p2671
sbssg208
I7
sg209
I0
sg210
I0
sg211
I0
sg57
F8.275862068965518
sg212
I0
sg59
F20.920829379536166
sg477
I0
sg213
I0
sg214
I0
sg215
(dp2672
S'A'
p2673
I8
sS'ME'
p2674
I8
sS'RP2'
p2675
I6
sS'E'
p2676
I9
sS'P'
p2677
I5
sS'RP1'
p2678
I9
sS'JP'
p2679
I3
sS'RP_tot'
p2680
I9
sS'TO'
p2681
I5
sS'PA'
p2682
I6
sS'M'
p2683
I8
sS'R'
p2684
I9
sS'TB'
p2685
I2
sS'PL'
p2686
I6
sS'TA'
p2687
I9
ssg232
(dp2688
g2474
I8
sg2475
I8
sg2476
I7
sg2477
I9
sg2482
I5
sg2479
I9
sg2480
I3
sg2481
I9
sg2478
I5
sg2483
I6
sg2484
I8
sg2485
I9
sg2486
I2
sg2487
I5
sg2488
I10
ssg233
I0
sg340
(dp2689
sg235
I0
sg234
g31
sg236
I0
sg237
I0
sg238
I6
sg239
I0
sg240
I0
sg241
S'CV'
p2690
sbsS'n17'
p2691
(ijoueur
joueur
p2692
(dp2693
g27
F7.111111111111111
sg28
I1
sg29
F8.705882352941176
sg30
g31
sg32
I0
sg33
F63.515536666714446
sg34
I0
sg35
g36
(g37
g38
Ntp2694
Rp2695
(dp2696
g42
I5
sg43
S'xx'
p2697
sg45
S'seigneur'
p2698
sbsg47
(dp2699
S'SR'
p2700
I0
sS'CT'
p2701
I0
sS'CR'
p2702
I0
sS'ST'
p2703
I0
ssg53
(dp2704
g2700
I0
sg2701
I0
sg2702
I0
sg2703
I0
ssg55
I0
sg141
(dp2705
g1963
I0
sg1964
I0
sg1965
I0
sg1966
I0
ssg56
I0
sg58
I0
sg358
I0
sg359
I0
sg60
I0
sg61
I0
sg62
I0
sg63
(g1967
S'PI'
p2706
g31
g31
tp2707
sg67
I00
sg68
g2695
sg74
(dp2708
g1963
I0
sg1964
I6
sg1965
I0
sg1966
I0
ssg80
I00
sg81
(dp2709
g1963
I0
sg1964
I0
sg1965
I0
sg1966
I0
ssg83
(dp2710
g2700
I0
sg2701
I14
sg2702
I9
sg2703
I0
ssg85
I0
sg86
I0
sg87
S'Artmeyer'
p2711
sg89
I11
sg90
I0
sg91
I27
sg92
I251
sg93
g1978
sg95
(dp2712
S'A'
p2713
I7
sS'ME'
p2714
I9
sS'RP2'
p2715
I9
sS'E'
p2716
I11
sS'TO'
p2717
I10
sS'RP1'
p2718
I8
sS'JP'
p2719
I6
sS'RP_tot'
p2720
I10
sS'P'
p2721
I8
sS'PA'
p2722
I10
sS'M'
p2723
I7
sS'R'
p2724
I8
sS'TB'
p2725
I3
sS'PL'
p2726
I9
sS'TA'
p2727
I8
ssg112
(dp2728
g1996
(ijoueur
joueur
p2729
(dp2730
g27
F7.111111111111111
sg28
I1
sg30
g31
sg32
I0
sg34
I0
sg35
g36
(g37
g38
Ntp2731
Rp2732
(dp2733
g42
I5
sg43
S'xx'
p2734
sg45
S'seigneur'
p2735
sbsg47
(dp2736
S'SR'
p2737
I0
sS'CT'
p2738
I0
sS'CR'
p2739
I0
sS'ST'
p2740
I0
ssg53
(dp2741
g2737
I0
sg2738
I0
sg2739
I0
sg2740
I0
ssg56
I0
sg57
F8.705882352941176
sg58
I0
sg358
I0
sg359
I0
sg60
I0
sg61
I0
sg62
I0
sg63
(g2010
S'PI'
p2742
g31
g31
tp2743
sg67
I00
sg68
g36
(g37
g38
Ntp2744
Rp2745
(dp2746
g42
I4
sg43
S'x'
p2747
sg45
S'heros'
p2748
sbsg74
(dp2749
g2018
I0
sg2019
I5
sg2020
I7
sg2021
I0
ssg80
I00
sg81
(dp2750
g2018
I0
sg2019
I0
sg2020
I0
sg2021
I0
ssg83
(dp2751
g2737
I0
sg2738
I8
sg2739
I9
sg2740
I0
ssg85
I0
sg86
I0
sg87
S'Artmeyer'
p2752
sg89
I11
sg90
I0
sg91
I27
sg92
I76
sg93
g2025
sg95
(dp2753
S'A'
p2754
I8
sS'ME'
p2755
I8
sS'RP2'
p2756
I8
sS'E'
p2757
I10
sS'P'
p2758
I6
sS'RP1'
p2759
I8
sS'JP'
p2760
I5
sS'RP_tot'
p2761
I9
sS'TO'
p2762
I9
sS'PA'
p2763
I9
sS'M'
p2764
I8
sS'R'
p2765
I8
sS'TB'
p2766
I2
sS'PL'
p2767
I9
sS'TA'
p2768
I7
ssg112
(dp2769
g2043
(ijoueur
joueur
p2770
(dp2771
g28
I0
sg32
I0
sg34
I0
sg35
g36
(g37
g38
Ntp2772
Rp2773
(dp2774
g42
I5
sg43
S'xx'
p2775
sg45
S'seigneur'
p2776
sbsg47
(dp2777
S'SR'
p2778
I0
sS'CT'
p2779
I0
sS'CR'
p2780
I0
sS'ST'
p2781
I0
ssg53
(dp2782
g2778
I0
sg2779
I0
sg2780
I0
sg2781
I0
ssg56
I0
sg57
F7.111111111111111
sg58
I0
sg358
I0
sg359
I0
sg60
I0
sg61
I0
sg62
I0
sg63
(S'dummy'
p2783
S'PI'
p2784
g31
g31
tp2785
sg67
I00
sg68
g36
(g37
g38
Ntp2786
Rp2787
(dp2788
g42
I1
sg43
S'>'
p2789
sg45
S'base'
p2790
sbsg74
(dp2791
g2778
I0
sg2779
I3
sg2780
I2
sg2781
I0
ssg80
I00
sg81
(dp2792
g2778
I0
sg2779
I0
sg2780
I0
sg2781
I0
ssg83
(dp2793
g2778
I0
sg2779
I3
sg2780
I2
sg2781
I0
ssg85
I0
sg86
I0
sg87
S'Artmeyer'
p2794
sg89
I11
sg90
I0
sg91
I27
sg92
I8
sg93
S'DKF'
p2795
sg95
(dp2796
S'A'
p2797
I5
sS'ME'
p2798
I8
sS'RP2'
p2799
I6
sS'E'
p2800
I9
sS'P'
p2801
I4
sS'RP1'
p2802
I7
sS'JP'
p2803
I3
sS'RP_tot'
p2804
I7
sS'TO'
p2805
I5
sS'PA'
p2806
I5
sS'M'
p2807
I7
sS'R'
p2808
I7
sS'TB'
p2809
I0
sS'PL'
p2810
I6
sS'TA'
p2811
I6
ssg208
I0
sg209
I0
sg210
I0
sg211
I0
sg141
(dp2812
g2778
I0
sg2779
I0
sg2780
I0
sg2781
I0
ssg212
I0
sg477
I0
sg213
I0
sg214
I0
sg215
(dp2813
S'A'
p2814
I5
sS'ME'
p2815
I8
sS'RP2'
p2816
I6
sS'E'
p2817
I9
sS'P'
p2818
I4
sS'RP1'
p2819
I7
sS'JP'
p2820
I3
sS'RP_tot'
p2821
I7
sS'TO'
p2822
I5
sS'PA'
p2823
I5
sS'M'
p2824
I7
sS'R'
p2825
I7
sS'TB'
p2826
I0
sS'PL'
p2827
I6
sS'TA'
p2828
I6
ssg232
g2796
sg233
I0
sg234
g31
sg235
I0
sg236
I0
sg237
I0
sg238
I1
sg239
I0
sg240
I0
sg241
S'CV'
p2829
sbssg208
I0
sg209
I0
sg210
I0
sg211
I0
sg141
(dp2830
g2018
I0
sg2019
I0
sg2020
I0
sg2021
I0
ssg212
I0
sg477
I0
sg213
I0
sg214
I0
sg215
(dp2831
S'A'
p2832
I5
sS'ME'
p2833
I8
sS'RP2'
p2834
I6
sS'E'
p2835
I9
sS'P'
p2836
I4
sS'RP1'
p2837
I7
sS'JP'
p2838
I3
sS'RP_tot'
p2839
I7
sS'TO'
p2840
I5
sS'PA'
p2841
I5
sS'M'
p2842
I7
sS'R'
p2843
I7
sS'TB'
p2844
I0
sS'PL'
p2845
I6
sS'TA'
p2846
I6
ssg232
g2753
sg233
I1
sg234
g31
sg235
I0
sg236
I0
sg237
I0
sg238
I7
sg239
I0
sg240
I0
sg241
S'CV'
p2847
sbsg2121
(ijoueur
joueur
p2848
(dp2849
g28
I0
sg32
I0
sg34
I0
sg35
g36
(g37
g38
Ntp2850
Rp2851
(dp2852
g42
I5
sg43
S'xx'
p2853
sg45
S'seigneur'
p2854
sbsg47
(dp2855
S'SR'
p2856
I0
sS'CT'
p2857
I0
sS'CR'
p2858
I0
sS'ST'
p2859
I0
ssg53
(dp2860
g2856
I0
sg2857
I0
sg2858
I0
sg2859
I0
ssg56
I0
sg57
F7.111111111111111
sg58
I0
sg358
I0
sg359
I0
sg60
I0
sg61
I0
sg62
I0
sg63
(S'dummy'
p2861
S'PI'
p2862
g31
g31
tp2863
sg67
I00
sg68
g36
(g37
g38
Ntp2864
Rp2865
(dp2866
g42
I1
sg43
S'>'
p2867
sg45
S'base'
p2868
sbsg74
(dp2869
g2856
I0
sg2857
I3
sg2858
I2
sg2859
I0
ssg80
I00
sg81
(dp2870
g2856
I0
sg2857
I0
sg2858
I0
sg2859
I0
ssg83
(dp2871
g2856
I0
sg2857
I3
sg2858
I2
sg2859
I0
ssg85
I0
sg86
I0
sg87
S'Artmeyer'
p2872
sg89
I11
sg90
I0
sg91
I27
sg92
I8
sg93
S'DKF'
p2873
sg95
(dp2874
S'A'
p2875
I5
sS'ME'
p2876
I8
sS'RP2'
p2877
I6
sS'E'
p2878
I9
sS'P'
p2879
I4
sS'RP1'
p2880
I7
sS'JP'
p2881
I3
sS'RP_tot'
p2882
I7
sS'TO'
p2883
I5
sS'PA'
p2884
I5
sS'M'
p2885
I7
sS'R'
p2886
I7
sS'TB'
p2887
I0
sS'PL'
p2888
I6
sS'TA'
p2889
I6
ssg208
I0
sg209
I0
sg210
I0
sg211
I0
sg141
(dp2890
g2856
I0
sg2857
I0
sg2858
I0
sg2859
I0
ssg212
I0
sg477
I0
sg213
I0
sg214
I0
sg215
(dp2891
S'A'
p2892
I5
sS'ME'
p2893
I8
sS'RP2'
p2894
I6
sS'E'
p2895
I9
sS'P'
p2896
I4
sS'RP1'
p2897
I7
sS'JP'
p2898
I3
sS'RP_tot'
p2899
I7
sS'TO'
p2900
I5
sS'PA'
p2901
I5
sS'M'
p2902
I7
sS'R'
p2903
I7
sS'TB'
p2904
I0
sS'PL'
p2905
I6
sS'TA'
p2906
I6
ssg232
g2874
sg233
I0
sg234
g31
sg235
I0
sg236
I0
sg237
I0
sg238
I1
sg239
I0
sg240
I0
sg241
S'CV'
p2907
sbssg208
I10
sg209
I0
sg210
I0
sg211
I0
sg57
F9.588235294117647
sg212
I0
sg59
F63.515536666714446
sg477
I0
sg213
I0
sg214
I0
sg215
(dp2908
S'A'
p2909
I5
sS'ME'
p2910
I8
sS'RP2'
p2911
I6
sS'E'
p2912
I9
sS'P'
p2913
I4
sS'RP1'
p2914
I7
sS'JP'
p2915
I3
sS'RP_tot'
p2916
I7
sS'TO'
p2917
I5
sS'PA'
p2918
I5
sS'M'
p2919
I7
sS'R'
p2920
I7
sS'TB'
p2921
I0
sS'PL'
p2922
I6
sS'TA'
p2923
I6
ssg232
(dp2924
g2713
I8
sg2714
I9
sg2715
I9
sg2716
I11
sg2721
I8
sg2718
I8
sg2719
I6
sg2720
I10
sg2717
I10
sg2722
I10
sg2723
I7
sg2724
I9
sg2725
I3
sg2726
I10
sg2727
I8
ssg233
I0
sg340
(dp2925
sg235
I0
sg234
g31
sg236
I0
sg237
I0
sg238
I24
sg239
I0
sg240
I0
sg241
S'CV'
p2926
sbsS'n14'
p2927
(ijoueur
joueur
p2928
(dp2929
g27
F10.193548387096774
sg28
I0
sg29
F9.806451612903226
sg30
g31
sg32
I0
sg33
F74.16952625532213
sg34
I0
sg35
g36
(g37
g38
Ntp2930
Rp2931
(dp2932
g42
I4
sg43
S'x'
p2933
sg45
S'heros'
p2934
sbsg47
(dp2935
S'SR'
p2936
I0
sS'CT'
p2937
I0
sS'CR'
p2938
I0
sS'ST'
p2939
I0
ssg53
(dp2940
g2936
I0
sg2937
I1
sg2938
I2
sg2939
I0
ssg55
I0
sg56
I0
sg57
F9.64516129032258
sg58
I0
sg358
I0
sg359
I0
sg60
I0
sg61
I0
sg62
I0
sg63
(S'dummy'
p2941
S'AI'
p2942
S'CE'
p2943
S'AR'
p2944
tp2945
sg67
I00
sg68
g36
(g37
g38
Ntp2946
Rp2947
(dp2948
g42
I4
sg43
g2933
sg45
g2934
sbsg74
(dp2949
S'SR'
p2950
I0
sS'ST'
p2951
I0
sS'CR'
p2952
I4
sS'CT'
p2953
I2
ssg80
I00
sg81
(dp2954
g2950
I0
sg2951
I0
sg2952
I1
sg2953
I0
ssg83
(dp2955
g2936
I0
sg2937
I22
sg2938
I8
sg2939
I0
ssg85
I0
sg86
I0
sg87
S'Baefol'
p2956
sg89
I7
sg90
I0
sg91
I17
sg92
I184
sg93
S'DKF'
p2957
sg95
(dp2958
S'A'
p2959
I11
sS'ME'
p2960
I4
sS'RP2'
p2961
I9
sS'E'
p2962
I9
sS'TO'
p2963
I11
sS'RP1'
p2964
I5
sS'JP'
p2965
I5
sS'RP_tot'
p2966
I9
sS'P'
p2967
I6
sS'PA'
p2968
I11
sS'M'
p2969
I10
sS'R'
p2970
I2
sS'TB'
p2971
I6
sS'PL'
p2972
I9
sS'TA'
p2973
I4
ssg112
(dp2974
S's12'
p2975
(ijoueur
joueur
p2976
(dp2977
g27
F10.193548387096774
sg28
I0
sg30
g31
sg32
I0
sg34
I0
sg35
g36
(g37
g38
Ntp2978
Rp2979
(dp2980
g42
I4
sg43
S'x'
p2981
sg45
S'heros'
p2982
sbsg47
(dp2983
S'SR'
p2984
I0
sS'CT'
p2985
I0
sS'CR'
p2986
I0
sS'ST'
p2987
I0
ssg53
(dp2988
g2984
I0
sg2985
I1
sg2986
I1
sg2987
I0
ssg56
I0
sg58
I0
sg358
I0
sg359
I0
sg80
I00
sg60
I2
sg61
I0
sg62
I0
sg63
(S'dummy'
p2989
S'AI'
p2990
S'CE'
p2991
S'AR'
p2992
tp2993
sg67
I00
sg68
g36
(g37
g38
Ntp2994
Rp2995
(dp2996
g42
I4
sg43
g2981
sg45
g2982
sbsg74
(dp2997
S'SR'
p2998
I0
sS'ST'
p2999
I0
sS'CR'
p3000
I4
sS'CT'
p3001
I7
ssg141
(dp3002
g2998
I0
sg2999
I0
sg3000
I0
sg3001
I0
ssg81
(dp3003
g2998
I0
sg2999
I0
sg3000
I1
sg3001
I1
ssg83
(dp3004
g2984
I0
sg2985
I20
sg2986
I4
sg2987
I0
ssg85
I0
sg86
I0
sg87
S'Baefol'
p3005
sg89
I7
sg90
I0
sg91
I17
sg92
I184
sg93
S'DKF'
p3006
sg95
(dp3007
S'A'
p3008
I12
sS'ME'
p3009
I4
sS'RP2'
p3010
I9
sS'E'
p3011
I9
sS'P'
p3012
I6
sS'RP1'
p3013
I5
sS'JP'
p3014
I5
sS'RP_tot'
p3015
I9
sS'TO'
p3016
I11
sS'PA'
p3017
I11
sS'M'
p3018
I11
sS'R'
p3019
I3
sS'TB'
p3020
I6
sS'PL'
p3021
I10
sS'TA'
p3022
I4
ssg112
(dp3023
S's11'
p3024
(ijoueur
joueur
p3025
(dp3026
g28
I0
sg32
I0
sg34
I0
sg35
g36
(g37
g38
Ntp3027
Rp3028
(dp3029
g42
I4
sg43
S'x'
p3030
sg45
S'heros'
p3031
sbsg47
(dp3032
S'SR'
p3033
I0
sS'CT'
p3034
I0
sS'CR'
p3035
I0
sS'ST'
p3036
I0
ssg53
(dp3037
g3033
I0
sg3034
I0
sg3035
I0
sg3036
I0
ssg141
(dp3038
g3033
I0
sg3034
I0
sg3035
I0
sg3036
I0
ssg56
I0
sg58
I0
sg358
I0
sg359
I0
sg60
I1
sg61
I0
sg62
I0
sg63
(S'dummy'
p3039
S'AI'
p3040
S'CE'
p3041
S'AR'
p3042
tp3043
sg67
I00
sg68
g36
(g37
g38
Ntp3044
Rp3045
(dp3046
g42
I4
sg43
g3030
sg45
g3031
sbsg74
(dp3047
g3033
I0
sg3034
I13
sg3035
I0
sg3036
I0
ssg80
I00
sg81
(dp3048
g3033
I0
sg3034
I0
sg3035
I0
sg3036
I0
ssg83
(dp3049
g3033
I0
sg3034
I13
sg3035
I0
sg3036
I0
ssg85
I0
sg86
I0
sg87
S'Baefol'
p3050
sg89
I7
sg90
I0
sg91
I17
sg92
I184
sg93
S'DKF'
p3051
sg95
(dp3052
S'A'
p3053
I12
sS'ME'
p3054
I4
sS'RP2'
p3055
I9
sS'E'
p3056
I10
sS'P'
p3057
I6
sS'RP1'
p3058
I7
sS'JP'
p3059
I6
sS'RP_tot'
p3060
I9
sS'TO'
p3061
I11
sS'PA'
p3062
I12
sS'M'
p3063
I11
sS'R'
p3064
I3
sS'TB'
p3065
I6
sS'PL'
p3066
I11
sS'TA'
p3067
I4
ssg208
I0
sg209
I0
sg210
I0
sg211
I0
sg57
F10.193548387096774
sg212
I0
sg477
I0
sg213
I0
sg214
I0
sg215
(dp3068
S'A'
p3069
I12
sS'ME'
p3070
I4
sS'RP2'
p3071
I9
sS'E'
p3072
I10
sS'P'
p3073
I6
sS'RP1'
p3074
I7
sS'JP'
p3075
I6
sS'RP_tot'
p3076
I9
sS'TO'
p3077
I11
sS'PA'
p3078
I12
sS'M'
p3079
I11
sS'R'
p3080
I3
sS'TB'
p3081
I6
sS'PL'
p3082
I11
sS'TA'
p3083
I4
ssg232
g3052
sg233
I0
sg234
g31
sg235
I0
sg236
I0
sg237
I0
sg238
I15
sg239
I4
sg240
I0
sg241
S'ES'
p3084
sbssg208
I0
sg209
I0
sg210
I0
sg211
I0
sg57
F9.806451612903226
sg212
I0
sg477
I0
sg213
I0
sg214
I0
sg215
(dp3085
S'A'
p3086
I12
sS'ME'
p3087
I4
sS'RP2'
p3088
I9
sS'E'
p3089
I10
sS'P'
p3090
I6
sS'RP1'
p3091
I7
sS'JP'
p3092
I6
sS'RP_tot'
p3093
I9
sS'TO'
p3094
I11
sS'PA'
p3095
I12
sS'M'
p3096
I11
sS'R'
p3097
I3
sS'TB'
p3098
I6
sS'PL'
p3099
I11
sS'TA'
p3100
I4
ssg232
g3007
sg233
I0
sg234
g31
sg235
I0
sg236
I0
sg237
I0
sg238
I15
sg239
I6
sg240
I0
sg241
S'ES'
p3101
sbsS's11'
p3102
(ijoueur
joueur
p3103
(dp3104
g28
I0
sg32
I0
sg34
I0
sg35
g36
(g37
g38
Ntp3105
Rp3106
(dp3107
g42
I4
sg43
S'x'
p3108
sg45
S'heros'
p3109
sbsg47
(dp3110
S'SR'
p3111
I0
sS'CT'
p3112
I0
sS'CR'
p3113
I0
sS'ST'
p3114
I0
ssg53
(dp3115
g3111
I0
sg3112
I0
sg3113
I0
sg3114
I0
ssg141
(dp3116
g3111
I0
sg3112
I0
sg3113
I0
sg3114
I0
ssg56
I0
sg58
I0
sg358
I0
sg359
I0
sg60
I1
sg61
I0
sg62
I0
sg63
(S'dummy'
p3117
S'AI'
p3118
S'CE'
p3119
S'AR'
p3120
tp3121
sg67
I00
sg68
g36
(g37
g38
Ntp3122
Rp3123
(dp3124
g42
I4
sg43
g3108
sg45
g3109
sbsg74
(dp3125
g3111
I0
sg3112
I13
sg3113
I0
sg3114
I0
ssg80
I00
sg81
(dp3126
g3111
I0
sg3112
I0
sg3113
I0
sg3114
I0
ssg83
(dp3127
g3111
I0
sg3112
I13
sg3113
I0
sg3114
I0
ssg85
I0
sg86
I0
sg87
S'Baefol'
p3128
sg89
I7
sg90
I0
sg91
I17
sg92
I184
sg93
S'DKF'
p3129
sg95
(dp3130
S'A'
p3131
I12
sS'ME'
p3132
I4
sS'RP2'
p3133
I9
sS'E'
p3134
I10
sS'P'
p3135
I6
sS'RP1'
p3136
I7
sS'JP'
p3137
I6
sS'RP_tot'
p3138
I9
sS'TO'
p3139
I11
sS'PA'
p3140
I12
sS'M'
p3141
I11
sS'R'
p3142
I3
sS'TB'
p3143
I6
sS'PL'
p3144
I11
sS'TA'
p3145
I4
ssg208
I0
sg209
I0
sg210
I0
sg211
I0
sg57
F10.193548387096774
sg212
I0
sg477
I0
sg213
I0
sg214
I0
sg215
(dp3146
S'A'
p3147
I12
sS'ME'
p3148
I4
sS'RP2'
p3149
I9
sS'E'
p3150
I10
sS'P'
p3151
I6
sS'RP1'
p3152
I7
sS'JP'
p3153
I6
sS'RP_tot'
p3154
I9
sS'TO'
p3155
I11
sS'PA'
p3156
I12
sS'M'
p3157
I11
sS'R'
p3158
I3
sS'TB'
p3159
I6
sS'PL'
p3160
I11
sS'TA'
p3161
I4
ssg232
g3130
sg233
I0
sg234
g31
sg235
I0
sg236
I0
sg237
I0
sg238
I15
sg239
I4
sg240
I0
sg241
S'ES'
p3162
sbssg208
I10
sg209
I0
sg210
I0
sg211
I0
sg141
(dp3163
g2950
I0
sg2951
I0
sg2952
I0
sg2953
I0
ssg212
I0
sg59
F74.16952625532213
sg477
I0
sg213
I0
sg214
I0
sg215
(dp3164
S'A'
p3165
I12
sS'ME'
p3166
I4
sS'RP2'
p3167
I9
sS'E'
p3168
I10
sS'P'
p3169
I6
sS'RP1'
p3170
I7
sS'JP'
p3171
I6
sS'RP_tot'
p3172
I9
sS'TO'
p3173
I11
sS'PA'
p3174
I12
sS'M'
p3175
I11
sS'R'
p3176
I3
sS'TB'
p3177
I6
sS'PL'
p3178
I11
sS'TA'
p3179
I4
ssg232
(dp3180
g2959
I12
sg2960
I4
sg2961
I9
sg2962
I9
sg2967
I6
sg2964
I5
sg2965
I5
sg2966
I9
sg2963
I11
sg2968
I11
sg2969
I10
sg2970
I3
sg2971
I6
sg2972
I10
sg2973
I4
ssg233
I0
sg340
(dp3181
sg235
I0
sg234
g31
sg236
I0
sg237
I0
sg238
I15
sg239
I6
sg240
I0
sg241
S'ES'
p3182
sbsS'n15'
p3183
g1437
sS'n18'
p3184
(ijoueur
joueur
p3185
(dp3186
g27
F8.35483870967742
sg28
I0
sg29
F8.921052631578947
sg30
g31
sg32
I0
sg33
I0
sg34
I0
sg35
g36
(g37
g38
Ntp3187
Rp3188
(dp3189
g42
I1
sg43
S'^'
p3190
sg45
g2450
sbsg47
(dp3191
S'SR'
p3192
I0
sS'ST'
p3193
I0
sS'CR'
p3194
I4
sS'CT'
p3195
I0
ssg53
(dp3196
g3192
I0
sg3193
I0
sg3194
I0
sg3195
I0
ssg55
I0
sg56
I0
sg58
I0
sg358
I0
sg359
I0
sg80
I00
sg60
I0
sg61
I0
sg62
I0
sg63
(g2457
S'TL'
p3197
S'DL'
p3198
g31
tp3199
sg67
I00
sg68
g36
(g37
g38
Ntp3200
Rp3201
(dp3202
g42
I1
sg43
g3190
sg45
g2450
sbsg74
(dp3203
g2464
I0
sg2465
I0
sg2466
I0
sg2467
I0
ssg141
(dp3204
g2464
I0
sg2465
I0
sg2466
I0
sg2467
I0
ssg81
(dp3205
g2464
I0
sg2465
I0
sg2466
I0
sg2467
I0
ssg83
(dp3206
g3192
I0
sg3193
I0
sg3194
I5
sg3195
I4
ssg85
I0
sg86
I0
sg87
S'Iegamor'
p3207
sg89
I11
sg90
I0
sg91
I21
sg92
I41
sg93
g2472
sg95
(dp3208
S'A'
p3209
I8
sS'ME'
p3210
I9
sS'RP2'
p3211
I6
sS'E'
p3212
I11
sS'P'
p3213
I5
sS'RP1'
p3214
I8
sS'JP'
p3215
I4
sS'RP_tot'
p3216
I8
sS'TO'
p3217
I9
sS'PA'
p3218
I6
sS'M'
p3219
I10
sS'R'
p3220
I8
sS'TB'
p3221
I3
sS'PL'
p3222
I10
sS'TA'
p3223
I5
ssg112
(dp3224
g2490
(ijoueur
joueur
p3225
(dp3226
g27
F8.35483870967742
sg28
I0
sg30
g31
sg32
I0
sg34
I0
sg35
g36
(g37
g38
Ntp3227
Rp3228
(dp3229
g42
I1
sg43
S'^'
p3230
sg45
g2497
sbsg47
(dp3231
S'SR'
p3232
I0
sS'ST'
p3233
I0
sS'CR'
p3234
I4
sS'CT'
p3235
I0
ssg53
(dp3236
g3232
I0
sg3233
I0
sg3234
I0
sg3235
I0
ssg141
(dp3237
g2505
I0
sg2506
I0
sg2507
I4
sg2508
I0
ssg56
I0
sg58
I0
sg358
I0
sg359
I0
sg60
I0
sg61
I0
sg62
I0
sg63
(g2509
S'TL'
p3238
S'DL'
p3239
g31
tp3240
sg67
I00
sg68
g36
(g37
g38
Ntp3241
Rp3242
(dp3243
g42
I1
sg43
g3230
sg45
g2497
sbsg74
(dp3244
g2505
I0
sg2506
I0
sg2507
I0
sg2508
I1
ssg80
I00
sg81
(dp3245
g2505
I0
sg2506
I0
sg2507
I0
sg2508
I0
ssg83
(dp3246
g3232
I0
sg3233
I0
sg3234
I5
sg3235
I4
ssg85
I0
sg86
I0
sg87
S'Iegamor'
p3247
sg89
I11
sg90
I0
sg91
I21
sg92
I41
sg93
g2519
sg95
(dp3248
S'A'
p3249
I8
sS'ME'
p3250
I9
sS'RP2'
p3251
I6
sS'E'
p3252
I11
sS'TO'
p3253
I9
sS'RP1'
p3254
I8
sS'JP'
p3255
I4
sS'RP_tot'
p3256
I8
sS'P'
p3257
I5
sS'PA'
p3258
I6
sS'M'
p3259
I10
sS'R'
p3260
I8
sS'TB'
p3261
I3
sS'PL'
p3262
I10
sS'TA'
p3263
I5
ssg112
(dp3264
g2537
(ijoueur
joueur
p3265
(dp3266
g28
I0
sg32
I0
sg34
I1
sg35
g36
(g37
g38
Ntp3267
Rp3268
(dp3269
g42
I1
sg43
S'^'
p3270
sg45
S'base'
p3271
sbsg47
(dp3272
S'SR'
p3273
I0
sS'ST'
p3274
I0
sS'CR'
p3275
I0
sS'CT'
p3276
I0
ssg53
(dp3277
g3273
I0
sg3274
I0
sg3275
I0
sg3276
I0
ssg141
(dp3278
g3273
I0
sg3274
I0
sg3275
I0
sg3276
I0
ssg56
I0
sg58
I0
sg358
I0
sg359
I0
sg60
I0
sg61
I0
sg62
I0
sg63
(S'dummy'
p3279
S'TL'
p3280
S'DL'
p3281
g31
tp3282
sg67
I00
sg68
g36
(g37
g38
Ntp3283
Rp3284
(dp3285
g42
I1
sg43
g3270
sg45
g3271
sbsg74
(dp3286
g3273
I0
sg3274
I0
sg3275
I5
sg3276
I3
ssg80
I00
sg81
(dp3287
g3273
I0
sg3274
I0
sg3275
I0
sg3276
I0
ssg83
(dp3288
g3273
I0
sg3274
I0
sg3275
I5
sg3276
I3
ssg85
I0
sg86
I0
sg87
S'Iegamor'
p3289
sg89
I11
sg90
I0
sg91
I21
sg92
I41
sg93
S'DKF'
p3290
sg95
(dp3291
S'A'
p3292
I8
sS'ME'
p3293
I8
sS'RP2'
p3294
I6
sS'E'
p3295
I11
sS'TO'
p3296
I8
sS'RP1'
p3297
I8
sS'JP'
p3298
I4
sS'RP_tot'
p3299
I8
sS'P'
p3300
I5
sS'PA'
p3301
I6
sS'M'
p3302
I10
sS'R'
p3303
I7
sS'TB'
p3304
I3
sS'PL'
p3305
I9
sS'TA'
p3306
I5
ssg208
I0
sg209
I0
sg210
I2
sg211
I0
sg57
F8.35483870967742
sg212
I0
sg477
I0
sg213
I2
sg214
I0
sg215
(dp3307
S'A'
p3308
I8
sS'ME'
p3309
I8
sS'RP2'
p3310
I6
sS'E'
p3311
I11
sS'TO'
p3312
I8
sS'RP1'
p3313
I8
sS'JP'
p3314
I4
sS'RP_tot'
p3315
I8
sS'P'
p3316
I5
sS'PA'
p3317
I6
sS'M'
p3318
I10
sS'R'
p3319
I7
sS'TB'
p3320
I3
sS'PL'
p3321
I9
sS'TA'
p3322
I5
ssg232
g3291
sg233
I0
sg234
g31
sg235
I0
sg236
I0
sg237
I0
sg238
I6
sg239
I0
sg240
I0
sg241
S'CV'
p3323
sbssg208
I0
sg209
I0
sg210
I2
sg211
I0
sg57
F8.921052631578947
sg212
I0
sg477
I0
sg213
I0
sg214
I0
sg215
(dp3324
S'A'
p3325
I8
sS'ME'
p3326
I8
sS'RP2'
p3327
I6
sS'E'
p3328
I11
sS'TO'
p3329
I8
sS'RP1'
p3330
I8
sS'JP'
p3331
I4
sS'RP_tot'
p3332
I8
sS'P'
p3333
I5
sS'PA'
p3334
I6
sS'M'
p3335
I10
sS'R'
p3336
I7
sS'TB'
p3337
I3
sS'PL'
p3338
I9
sS'TA'
p3339
I5
ssg232
g3248
sg233
I0
sg234
g31
sg235
I0
sg236
I0
sg237
I0
sg238
I6
sg239
I0
sg240
I0
sg241
S'CV'
p3340
sbsg2613
(ijoueur
joueur
p3341
(dp3342
g28
I0
sg32
I0
sg34
I1
sg35
g36
(g37
g38
Ntp3343
Rp3344
(dp3345
g42
I1
sg43
S'^'
p3346
sg45
S'base'
p3347
sbsg47
(dp3348
S'SR'
p3349
I0
sS'ST'
p3350
I0
sS'CR'
p3351
I0
sS'CT'
p3352
I0
ssg53
(dp3353
g3349
I0
sg3350
I0
sg3351
I0
sg3352
I0
ssg141
(dp3354
g3349
I0
sg3350
I0
sg3351
I0
sg3352
I0
ssg56
I0
sg58
I0
sg358
I0
sg359
I0
sg60
I0
sg61
I0
sg62
I0
sg63
(S'dummy'
p3355
S'TL'
p3356
S'DL'
p3357
g31
tp3358
sg67
I00
sg68
g36
(g37
g38
Ntp3359
Rp3360
(dp3361
g42
I1
sg43
g3346
sg45
g3347
sbsg74
(dp3362
g3349
I0
sg3350
I0
sg3351
I5
sg3352
I3
ssg80
I00
sg81
(dp3363
g3349
I0
sg3350
I0
sg3351
I0
sg3352
I0
ssg83
(dp3364
g3349
I0
sg3350
I0
sg3351
I5
sg3352
I3
ssg85
I0
sg86
I0
sg87
S'Iegamor'
p3365
sg89
I11
sg90
I0
sg91
I21
sg92
I41
sg93
S'DKF'
p3366
sg95
(dp3367
S'A'
p3368
I8
sS'ME'
p3369
I8
sS'RP2'
p3370
I6
sS'E'
p3371
I11
sS'TO'
p3372
I8
sS'RP1'
p3373
I8
sS'JP'
p3374
I4
sS'RP_tot'
p3375
I8
sS'P'
p3376
I5
sS'PA'
p3377
I6
sS'M'
p3378
I10
sS'R'
p3379
I7
sS'TB'
p3380
I3
sS'PL'
p3381
I9
sS'TA'
p3382
I5
ssg208
I0
sg209
I0
sg210
I2
sg211
I0
sg57
F8.35483870967742
sg212
I0
sg477
I0
sg213
I2
sg214
I0
sg215
(dp3383
S'A'
p3384
I8
sS'ME'
p3385
I8
sS'RP2'
p3386
I6
sS'E'
p3387
I11
sS'TO'
p3388
I8
sS'RP1'
p3389
I8
sS'JP'
p3390
I4
sS'RP_tot'
p3391
I8
sS'P'
p3392
I5
sS'PA'
p3393
I6
sS'M'
p3394
I10
sS'R'
p3395
I7
sS'TB'
p3396
I3
sS'PL'
p3397
I9
sS'TA'
p3398
I5
ssg232
g3367
sg233
I0
sg234
g31
sg235
I0
sg236
I0
sg237
I0
sg238
I6
sg239
I0
sg240
I0
sg241
S'CV'
p3399
sbssg208
I0
sg209
I0
sg210
I2
sg211
I0
sg57
F8.921052631578947
sg212
I0
sg59
I0
sg477
I0
sg213
I0
sg214
I0
sg215
(dp3400
S'A'
p3401
I8
sS'ME'
p3402
I8
sS'RP2'
p3403
I6
sS'E'
p3404
I11
sS'TO'
p3405
I8
sS'RP1'
p3406
I8
sS'JP'
p3407
I4
sS'RP_tot'
p3408
I8
sS'P'
p3409
I5
sS'PA'
p3410
I6
sS'M'
p3411
I10
sS'R'
p3412
I7
sS'TB'
p3413
I3
sS'PL'
p3414
I9
sS'TA'
p3415
I5
ssg232
(dp3416
g3209
I8
sg3210
I9
sg3211
I6
sg3212
I11
sg3217
I9
sg3214
I8
sg3215
I4
sg3216
I8
sg3213
I5
sg3218
I6
sg3219
I10
sg3220
I8
sg3221
I3
sg3222
I10
sg3223
I5
ssg233
I0
sg340
(dp3417
sg235
I0
sg234
g31
sg236
I0
sg237
I0
sg238
I6
sg239
I0
sg240
I0
sg241
S'CV'
p3418
sbsS'n19'
p3419
(ijoueur
joueur
p3420
(dp3421
g27
F9.342105263157896
sg28
I0
sg29
F9.026315789473685
sg30
g31
sg32
I0
sg33
F42.59357867417967
sg34
I0
sg35
g36
(g37
g38
Ntp3422
Rp3423
(dp3424
g42
I4
sg43
S'*'
p3425
sg45
S'heros'
p3426
sbsg47
(dp3427
S'SR'
p3428
I0
sS'ST'
p3429
I0
sS'CR'
p3430
I0
sS'CT'
p3431
I0
ssg53
(dp3432
g3428
I0
sg3429
I0
sg3430
I0
sg3431
I0
ssg55
I0
sg56
I0
sg58
I0
sg358
I0
sg359
I0
sg80
I00
sg60
I0
sg61
I0
sg62
I0
sg63
(S'dummy'
p3433
S'TL'
p3434
g31
g31
tp3435
sg67
I00
sg68
g36
(g37
g38
Ntp3436
Rp3437
(dp3438
g42
I4
sg43
S'*'
p3439
sg45
g3426
sbsg74
(dp3440
g1963
I0
sg1964
I0
sg1965
I4
sg1966
I0
ssg141
(dp3441
g1963
I0
sg1964
I0
sg1965
I0
sg1966
I0
ssg81
(dp3442
g1963
I0
sg1964
I0
sg1965
I0
sg1966
I0
ssg83
(dp3443
g3428
I0
sg3429
I0
sg3430
I13
sg3431
I3
ssg85
I0
sg86
I0
sg87
S'Rohr'
p3444
sg89
I4
sg90
I0
sg91
I18
sg92
I142
sg93
g1978
sg95
(dp3445
S'A'
p3446
I8
sS'ME'
p3447
I8
sS'RP2'
p3448
I8
sS'E'
p3449
I8
sS'P'
p3450
I4
sS'RP1'
p3451
I10
sS'JP'
p3452
I4
sS'RP_tot'
p3453
I11
sS'TO'
p3454
I11
sS'PA'
p3455
I8
sS'M'
p3456
I7
sS'R'
p3457
I9
sS'TB'
p3458
I4
sS'PL'
p3459
I10
sS'TA'
p3460
I6
ssg112
(dp3461
g1996
(ijoueur
joueur
p3462
(dp3463
g27
F9.342105263157896
sg28
I0
sg30
g31
sg32
I0
sg34
I0
sg35
g36
(g37
g38
Ntp3464
Rp3465
(dp3466
g42
I4
sg43
S'*'
p3467
sg45
S'heros'
p3468
sbsg47
(dp3469
S'SR'
p3470
I0
sS'ST'
p3471
I0
sS'CR'
p3472
I0
sS'CT'
p3473
I0
ssg53
(dp3474
g3470
I0
sg3471
I0
sg3472
I0
sg3473
I0
ssg141
(dp3475
g2018
I0
sg2019
I0
sg2020
I0
sg2021
I0
ssg56
I0
sg58
I0
sg358
I0
sg359
I0
sg60
I0
sg61
I0
sg62
I0
sg63
(S'dummy'
p3476
S'TL'
p3477
g31
g31
tp3478
sg67
I00
sg68
g36
(g37
g38
Ntp3479
Rp3480
(dp3481
g42
I4
sg43
S'*'
p3482
sg45
g3468
sbsg74
(dp3483
g2018
I0
sg2019
I2
sg2020
I4
sg2021
I0
ssg80
I00
sg81
(dp3484
g2018
I0
sg2019
I0
sg2020
I0
sg2021
I0
ssg83
(dp3485
g3470
I0
sg3471
I0
sg3472
I9
sg3473
I3
ssg85
I0
sg86
I0
sg87
S'Rohr'
p3486
sg89
I4
sg90
I0
sg91
I18
sg92
I142
sg93
g2025
sg95
(dp3487
S'A'
p3488
I8
sS'ME'
p3489
I8
sS'RP2'
p3490
I7
sS'E'
p3491
I8
sS'TO'
p3492
I11
sS'RP1'
p3493
I10
sS'JP'
p3494
I4
sS'RP_tot'
p3495
I10
sS'P'
p3496
I4
sS'PA'
p3497
I8
sS'M'
p3498
I7
sS'R'
p3499
I8
sS'TB'
p3500
I4
sS'PL'
p3501
I10
sS'TA'
p3502
I6
ssg112
(dp3503
g2043
(ijoueur
joueur
p3504
(dp3505
g28
I0
sg32
I0
sg34
I0
sg35
g36
(g37
g38
Ntp3506
Rp3507
(dp3508
g42
I4
sg43
S'*'
p3509
sg45
S'heros'
p3510
sbsg47
(dp3511
S'SR'
p3512
I0
sS'ST'
p3513
I0
sS'CR'
p3514
I0
sS'CT'
p3515
I0
ssg53
(dp3516
g3512
I0
sg3513
I0
sg3514
I0
sg3515
I0
ssg141
(dp3517
g3512
I0
sg3513
I0
sg3514
I0
sg3515
I0
ssg56
I0
sg58
I0
sg358
I0
sg359
I0
sg60
I0
sg61
I0
sg62
I0
sg63
(S'dummy'
p3518
S'TL'
p3519
g31
g31
tp3520
sg67
I01
sg68
g36
(g37
g38
Ntp3521
Rp3522
(dp3523
g42
I4
sg43
S'*'
p3524
sg45
g3510
sbsg74
(dp3525
g3512
I0
sg3513
I0
sg3514
I5
sg3515
I1
ssg80
I00
sg81
(dp3526
g3512
I0
sg3513
I0
sg3514
I0
sg3515
I0
ssg83
(dp3527
g3512
I0
sg3513
I0
sg3514
I5
sg3515
I1
ssg85
I0
sg86
I0
sg87
S'Rohr'
p3528
sg89
I4
sg90
I0
sg91
I18
sg92
I112
sg93
S'ALT'
p3529
sg95
(dp3530
S'A'
p3531
I8
sS'ME'
p3532
I8
sS'RP2'
p3533
I7
sS'E'
p3534
I9
sS'TO'
p3535
I11
sS'RP1'
p3536
I10
sS'JP'
p3537
I4
sS'RP_tot'
p3538
I10
sS'P'
p3539
I4
sS'PA'
p3540
I8
sS'M'
p3541
I8
sS'R'
p3542
I8
sS'TB'
p3543
I4
sS'PL'
p3544
I11
sS'TA'
p3545
I6
ssg208
I0
sg209
I0
sg210
I0
sg211
I0
sg57
F9.342105263157896
sg212
I0
sg477
I0
sg213
I0
sg214
I0
sg215
(dp3546
S'A'
p3547
I8
sS'ME'
p3548
I8
sS'RP2'
p3549
I7
sS'E'
p3550
I9
sS'TO'
p3551
I11
sS'RP1'
p3552
I10
sS'JP'
p3553
I4
sS'RP_tot'
p3554
I10
sS'P'
p3555
I4
sS'PA'
p3556
I8
sS'M'
p3557
I8
sS'R'
p3558
I8
sS'TB'
p3559
I4
sS'PL'
p3560
I11
sS'TA'
p3561
I6
ssg232
g3530
sg233
I0
sg234
g31
sg235
I0
sg236
I0
sg237
I0
sg238
I14
sg239
I3
sg240
I0
sg241
S'HB'
p3562
sbssg208
I0
sg209
I0
sg210
I0
sg211
I0
sg57
F9.026315789473685
sg212
I0
sg477
I0
sg213
I0
sg214
I0
sg215
(dp3563
S'A'
p3564
I8
sS'ME'
p3565
I8
sS'RP2'
p3566
I7
sS'E'
p3567
I9
sS'TO'
p3568
I11
sS'RP1'
p3569
I10
sS'JP'
p3570
I4
sS'RP_tot'
p3571
I10
sS'P'
p3572
I4
sS'PA'
p3573
I8
sS'M'
p3574
I8
sS'R'
p3575
I8
sS'TB'
p3576
I4
sS'PL'
p3577
I11
sS'TA'
p3578
I6
ssg232
g3487
sg233
I0
sg234
S'ALT 12'
p3579
sg235
I0
sg236
I0
sg237
I0
sg238
I6
sg239
I3
sg240
I0
sg241
S'HB'
p3580
sbsg2121
(ijoueur
joueur
p3581
(dp3582
g28
I0
sg32
I0
sg34
I0
sg35
g36
(g37
g38
Ntp3583
Rp3584
(dp3585
g42
I4
sg43
S'*'
p3586
sg45
S'heros'
p3587
sbsg47
(dp3588
S'SR'
p3589
I0
sS'ST'
p3590
I0
sS'CR'
p3591
I0
sS'CT'
p3592
I0
ssg53
(dp3593
g3589
I0
sg3590
I0
sg3591
I0
sg3592
I0
ssg141
(dp3594
g3589
I0
sg3590
I0
sg3591
I0
sg3592
I0
ssg56
I0
sg58
I0
sg358
I0
sg359
I0
sg60
I0
sg61
I0
sg62
I0
sg63
(S'dummy'
p3595
S'TL'
p3596
g31
g31
tp3597
sg67
I01
sg68
g36
(g37
g38
Ntp3598
Rp3599
(dp3600
g42
I4
sg43
S'*'
p3601
sg45
g3587
sbsg74
(dp3602
g3589
I0
sg3590
I0
sg3591
I5
sg3592
I1
ssg80
I00
sg81
(dp3603
g3589
I0
sg3590
I0
sg3591
I0
sg3592
I0
ssg83
(dp3604
g3589
I0
sg3590
I0
sg3591
I5
sg3592
I1
ssg85
I0
sg86
I0
sg87
S'Rohr'
p3605
sg89
I4
sg90
I0
sg91
I18
sg92
I112
sg93
S'ALT'
p3606
sg95
(dp3607
S'A'
p3608
I8
sS'ME'
p3609
I8
sS'RP2'
p3610
I7
sS'E'
p3611
I9
sS'TO'
p3612
I11
sS'RP1'
p3613
I10
sS'JP'
p3614
I4
sS'RP_tot'
p3615
I10
sS'P'
p3616
I4
sS'PA'
p3617
I8
sS'M'
p3618
I8
sS'R'
p3619
I8
sS'TB'
p3620
I4
sS'PL'
p3621
I11
sS'TA'
p3622
I6
ssg208
I0
sg209
I0
sg210
I0
sg211
I0
sg57
F9.342105263157896
sg212
I0
sg477
I0
sg213
I0
sg214
I0
sg215
(dp3623
S'A'
p3624
I8
sS'ME'
p3625
I8
sS'RP2'
p3626
I7
sS'E'
p3627
I9
sS'TO'
p3628
I11
sS'RP1'
p3629
I10
sS'JP'
p3630
I4
sS'RP_tot'
p3631
I10
sS'P'
p3632
I4
sS'PA'
p3633
I8
sS'M'
p3634
I8
sS'R'
p3635
I8
sS'TB'
p3636
I4
sS'PL'
p3637
I11
sS'TA'
p3638
I6
ssg232
g3607
sg233
I0
sg234
g31
sg235
I0
sg236
I0
sg237
I0
sg238
I14
sg239
I3
sg240
I0
sg241
S'HB'
p3639
sbssg208
I1
sg209
I0
sg210
I0
sg211
I0
sg57
F9.368421052631579
sg212
I0
sg59
F42.59357867417967
sg477
I0
sg213
I0
sg214
I0
sg215
(dp3640
S'A'
p3641
I8
sS'ME'
p3642
I8
sS'RP2'
p3643
I7
sS'E'
p3644
I9
sS'TO'
p3645
I11
sS'RP1'
p3646
I10
sS'JP'
p3647
I4
sS'RP_tot'
p3648
I10
sS'P'
p3649
I4
sS'PA'
p3650
I8
sS'M'
p3651
I8
sS'R'
p3652
I8
sS'TB'
p3653
I4
sS'PL'
p3654
I11
sS'TA'
p3655
I6
ssg232
(dp3656
g3446
I8
sg3447
I8
sg3448
I8
sg3449
I8
sg3454
I11
sg3451
I10
sg3452
I4
sg3453
I11
sg3450
I4
sg3455
I8
sg3456
I7
sg3457
I9
sg3458
I4
sg3459
I10
sg3460
I6
ssg233
I0
sg340
(dp3657
sg235
I0
sg234
S'ALT 12'
p3658
sg236
I0
sg237
I0
sg238
I6
sg239
I3
sg240
I0
sg241
S'HB'
p3659
sbsS'n22'
p3660
(ijoueur
joueur
p3661
(dp3662
g28
I0
sg29
F8.363636363636363
sg30
g31
sg32
I0
sg33
F21.64702457211566
sS'poste3'
p3663
g31
sg34
I0
sS'poste1'
p3664
g31
sg35
g36
(g37
g38
Ntp3665
Rp3666
(dp3667
g42
I4
sg43
S'x'
p3668
sg45
S'heros'
p3669
sbsg47
(dp3670
S'SR'
p3671
I0
sS'CT'
p3672
I0
sS'CR'
p3673
I3
sS'ST'
p3674
I0
ssg53
(dp3675
g3671
I0
sg3672
I0
sg3673
I0
sg3674
I0
ssg55
I0
sg141
(dp3676
g1963
I0
sg1964
I0
sg1965
I1
sg1966
I0
ssg234
g31
sg58
I0
sg59
F21.64702457211566
sg60
I0
sg61
I0
sg62
I0
sg93
g1978
sg67
I00
sg68
g36
(g37
g38
Ntp3677
Rp3678
(dp3679
g42
I3
sg43
S'^^^'
p3680
sg45
S'rare'
p3681
sbsg74
(dp3682
g1963
I0
sg1964
I1
sg1965
I0
sg1966
I0
ssg80
I00
sg81
(dp3683
g1963
I0
sg1964
I0
sg1965
I0
sg1966
I0
ssg83
(dp3684
g3671
I0
sg3672
I3
sg3673
I1
sg3674
I0
ssg85
I0
sg86
I0
sg87
S'Idic'
p3685
sg89
I12
sg90
I0
sg91
I24
sg92
I13
sg63
(S'dummy'
p3686
S'AR'
p3687
S'AI'
p3688
g31
tp3689
sS'poste2'
p3690
g31
sg95
(dp3691
S'RP1'
p3692
I7
sS'ME'
p3693
I4
sS'RP2'
p3694
I10
sS'E'
p3695
I10
sS'TO'
p3696
I3
sS'M'
p3697
I9
sS'JP'
p3698
I7
sS'RP_tot'
p3699
I10
sS'P'
p3700
I6
sS'PA'
p3701
I9
sS'A'
p3702
I10
sS'R'
p3703
I9
sS'TB'
p3704
I6
sS'PL'
p3705
I9
sS'TA'
p3706
I6
ssg112
(dp3707
g1996
(ijoueur
joueur
p3708
(dp3709
g28
I0
sg30
g31
sg32
I0
sg3663
g31
sg34
I0
sg3664
g31
sg35
g36
(g37
g38
Ntp3710
Rp3711
(dp3712
g42
I4
sg43
S'x'
p3713
sg45
S'heros'
p3714
sbsg47
(dp3715
S'SR'
p3716
I0
sS'CT'
p3717
I0
sS'CR'
p3718
I2
sS'ST'
p3719
I0
ssg53
(dp3720
g3716
I0
sg3717
I0
sg3718
I0
sg3719
I0
ssg234
g31
sg57
F8.363636363636363
sg58
I0
sg60
I1
sg61
I0
sg62
I0
sg93
g2025
sg67
I00
sg68
g36
(g37
g38
Ntp3721
Rp3722
(dp3723
g42
I1
sg43
S'<'
p3724
sg45
S'base'
p3725
sbsg74
(dp3726
g3716
I0
sg3717
I2
sg3718
I1
sg3719
I0
ssg80
I01
sg81
(dp3727
g3716
I0
sg3717
I0
sg3718
I0
sg3719
I0
ssg83
(dp3728
g3716
I0
sg3717
I2
sg3718
I1
sg3719
I0
ssg85
I0
sg86
I0
sg87
S'Idic'
p3729
sg89
I12
sg90
I0
sg91
I24
sg92
I12
sg63
(S'dummy'
p3730
S'AR'
p3731
S'AI'
p3732
g31
tp3733
sg3690
g31
sg95
(dp3734
S'RP1'
p3735
I7
sS'ME'
p3736
I4
sS'RP2'
p3737
I10
sS'E'
p3738
I7
sS'P'
p3739
I6
sS'JP'
p3740
I5
sS'M'
p3741
I9
sS'RP_tot'
p3742
I10
sS'TO'
p3743
I3
sS'PA'
p3744
I8
sS'A'
p3745
I10
sS'R'
p3746
I8
sS'TB'
p3747
I6
sS'PL'
p3748
I8
sS'TA'
p3749
I6
ssg112
(dp3750
sg208
I0
sg209
I0
sg210
I0
sg211
I0
sg141
(dp3751
g3716
I0
sg3717
I0
sg3718
I2
sg3719
I0
ssg212
I0
sg213
I0
sg214
I0
sg232
g3734
sg233
I0
sg235
I0
sg236
I0
sg237
I0
sg238
I1
sg239
I1
sg240
I0
sg241
S'CV'
p3752
sbssg208
I3
sg209
I0
sg210
I0
sg211
I0
sg57
F9.151515151515152
sg212
I0
sg213
I0
sg214
I0
sg232
(dp3753
g3692
I7
sg3693
I4
sg3694
I10
sg3695
I10
sg3700
I6
sg3698
I7
sg3697
I9
sg3699
I10
sg3696
I3
sg3701
I9
sg3702
I10
sg3703
I9
sg3704
I6
sg3705
I9
sg3706
I6
ssg233
I0
sg340
(dp3754
sg235
I0
sg236
I0
sg237
I0
sg238
I1
sg239
I1
sg240
I0
sg241
S'CV'
p3755
sbsS'n21'
p3756
(ijoueur
joueur
p3757
(dp3758
g27
F9.580645161290322
sg28
I0
sg29
F9.806451612903226
sg30
g31
sg32
I0
sg33
F74.16952625532213
sg34
I0
sg35
g36
(g37
g38
Ntp3759
Rp3760
(dp3761
g42
I1
sg43
S'^'
p3762
sg45
S'base'
p3763
sbsg47
(dp3764
g2936
I0
sg2937
I21
sg2938
I3
sg2939
I0
ssg53
(dp3765
g2936
I0
sg2937
I0
sg2938
I0
sg2939
I0
ssg55
I0
sg56
I0
sg57
F9.548387096774194
sg58
I0
sg358
I0
sg359
I0
sg60
I0
sg61
I0
sg62
I0
sg63
(g2941
S'C2'
p3766
S'AI'
p3767
g31
tp3768
sg67
I00
sg68
g36
(g37
g38
Ntp3769
Rp3770
(dp3771
g42
I1
sg43
g3762
sg45
g3763
sbsg74
(dp3772
g2950
I0
sg2951
I0
sg2952
I5
sg2953
I2
ssg80
I00
sg81
(dp3773
g2950
I0
sg2951
I0
sg2952
I0
sg2953
I0
ssg83
(dp3774
g2936
I0
sg2937
I4
sg2938
I5
sg2939
I0
ssg85
I11
sg86
I0
sg87
S'Eathol'
p3775
sg89
I6
sg90
I1
sg91
I14
sg92
I36
sg93
g2957
sg95
(dp3776
g2959
I9
sg2960
I3
sg2961
I7
sg2962
I9
sg2963
I6
sg2964
I10
sg2965
I5
sg2966
I10
sg2967
I9
sg2968
I11
sg2969
I10
sg2970
I4
sg2971
I11
sg2972
I9
sg2973
I4
ssg112
(dp3777
g2975
(ijoueur
joueur
p3778
(dp3779
g27
F9.580645161290322
sg28
I0
sg30
g31
sg32
I0
sg34
I0
sg35
g36
(g37
g38
Ntp3780
Rp3781
(dp3782
g42
I1
sg43
S'^'
p3783
sg45
S'base'
p3784
sbsg47
(dp3785
g2984
I0
sg2985
I21
sg2986
I3
sg2987
I0
ssg53
(dp3786
g2984
I0
sg2985
I0
sg2986
I0
sg2987
I0
ssg56
I0
sg58
I0
sg358
I0
sg359
I0
sg80
I01
sg60
I1
sg61
I3
sg62
I0
sg63
(g2989
S'C2'
p3787
S'AI'
p3788
g31
tp3789
sg67
I00
sg68
g36
(g37
g38
Ntp3790
Rp3791
(dp3792
g42
I1
sg43
g3783
sg45
g3784
sbsg74
(dp3793
g2998
I0
sg2999
I0
sg3000
I0
sg3001
I0
ssg141
(dp3794
g2998
I0
sg2999
I0
sg3000
I2
sg3001
I11
ssg81
(dp3795
g2998
I0
sg2999
I0
sg3000
I0
sg3001
I0
ssg83
(dp3796
g2984
I0
sg2985
I2
sg2986
I0
sg2987
I0
ssg85
I11
sg86
I5
sg87
S'Eathol'
p3797
sg89
I6
sg90
I1
sg91
I14
sg92
I36
sg93
g3006
sg95
(dp3798
g3008
I11
sg3009
I3
sg3010
I7
sg3011
I10
sg3012
I9
sg3013
I10
sg3014
I5
sg3015
I10
sg3016
I6
sg3017
I11
sg3018
I10
sg3019
I5
sg3020
I11
sg3021
I10
sg3022
I4
ssg112
(dp3799
g3024
(ijoueur
joueur
p3800
(dp3801
g28
I0
sg32
I0
sg34
I0
sg35
g36
(g37
g38
Ntp3802
Rp3803
(dp3804
g42
I1
sg43
S'^'
p3805
sg45
S'base'
p3806
sbsg47
(dp3807
S'SR'
p3808
I0
sS'CT'
p3809
I10
sS'CR'
p3810
I1
sS'ST'
p3811
I0
ssg53
(dp3812
g3808
I0
sg3809
I0
sg3810
I0
sg3811
I0
ssg141
(dp3813
g3808
I0
sg3809
I10
sg3810
I1
sg3811
I0
ssg56
I0
sg58
I0
sg358
I0
sg359
I0
sg60
I0
sg61
I0
sg62
I1
sg63
(S'dummy'
p3814
S'C2'
p3815
S'AI'
p3816
g31
tp3817
sg67
I00
sg68
g36
(g37
g38
Ntp3818
Rp3819
(dp3820
g42
I1
sg43
g3805
sg45
g3806
sbsg74
(dp3821
g3808
I0
sg3809
I2
sg3810
I0
sg3811
I0
ssg80
I01
sg81
(dp3822
g3808
I0
sg3809
I0
sg3810
I0
sg3811
I0
ssg83
(dp3823
g3808
I0
sg3809
I2
sg3810
I0
sg3811
I0
ssg85
I6
sg86
I6
sg87
S'Eathol'
p3824
sg89
I6
sg90
I1
sg91
I14
sg92
I36
sg93
S'DKF'
p3825
sg95
(dp3826
S'A'
p3827
I11
sS'ME'
p3828
I3
sS'RP2'
p3829
I7
sS'E'
p3830
I10
sS'P'
p3831
I9
sS'RP1'
p3832
I9
sS'JP'
p3833
I6
sS'RP_tot'
p3834
I9
sS'TO'
p3835
I6
sS'PA'
p3836
I11
sS'M'
p3837
I9
sS'R'
p3838
I6
sS'TB'
p3839
I10
sS'PL'
p3840
I10
sS'TA'
p3841
I4
ssg208
I0
sg209
I0
sg210
I0
sg211
I0
sg57
F9.580645161290322
sg212
I0
sg477
I0
sg213
I0
sg214
I0
sg215
(dp3842
S'A'
p3843
I11
sS'ME'
p3844
I3
sS'RP2'
p3845
I7
sS'E'
p3846
I10
sS'P'
p3847
I9
sS'RP1'
p3848
I9
sS'JP'
p3849
I6
sS'RP_tot'
p3850
I9
sS'TO'
p3851
I6
sS'PA'
p3852
I11
sS'M'
p3853
I9
sS'R'
p3854
I6
sS'TB'
p3855
I10
sS'PL'
p3856
I10
sS'TA'
p3857
I4
ssg232
g3826
sg233
I0
sg234
g31
sg235
I0
sg236
I0
sg237
I0
sg238
I2
sg239
I2
sg240
I0
sg241
S'HE'
p3858
sbssg208
I0
sg209
I0
sg210
I0
sg211
I0
sg57
F9.806451612903226
sg212
I3
sg477
I0
sg213
I0
sg214
I0
sg215
(dp3859
g3086
I11
sg3087
I3
sg3088
I7
sg3089
I10
sg3090
I9
sg3091
I9
sg3092
I6
sg3093
I9
sg3094
I6
sg3095
I11
sg3096
I9
sg3097
I6
sg3098
I10
sg3099
I10
sg3100
I4
ssg232
g3798
sg233
I0
sg234
g31
sg235
I0
sg236
I0
sg237
I0
sg238
I2
sg239
I3
sg240
I0
sg241
S'HE'
p3860
sbsg3102
(ijoueur
joueur
p3861
(dp3862
g28
I0
sg32
I0
sg34
I0
sg35
g36
(g37
g38
Ntp3863
Rp3864
(dp3865
g42
I1
sg43
S'^'
p3866
sg45
S'base'
p3867
sbsg47
(dp3868
S'SR'
p3869
I0
sS'CT'
p3870
I10
sS'CR'
p3871
I1
sS'ST'
p3872
I0
ssg53
(dp3873
g3869
I0
sg3870
I0
sg3871
I0
sg3872
I0
ssg141
(dp3874
g3869
I0
sg3870
I10
sg3871
I1
sg3872
I0
ssg56
I0
sg58
I0
sg358
I0
sg359
I0
sg60
I0
sg61
I0
sg62
I1
sg63
(S'dummy'
p3875
S'C2'
p3876
S'AI'
p3877
g31
tp3878
sg67
I00
sg68
g36
(g37
g38
Ntp3879
Rp3880
(dp3881
g42
I1
sg43
g3866
sg45
g3867
sbsg74
(dp3882
g3869
I0
sg3870
I2
sg3871
I0
sg3872
I0
ssg80
I01
sg81
(dp3883
g3869
I0
sg3870
I0
sg3871
I0
sg3872
I0
ssg83
(dp3884
g3869
I0
sg3870
I2
sg3871
I0
sg3872
I0
ssg85
I6
sg86
I6
sg87
S'Eathol'
p3885
sg89
I6
sg90
I1
sg91
I14
sg92
I36
sg93
S'DKF'
p3886
sg95
(dp3887
S'A'
p3888
I11
sS'ME'
p3889
I3
sS'RP2'
p3890
I7
sS'E'
p3891
I10
sS'P'
p3892
I9
sS'RP1'
p3893
I9
sS'JP'
p3894
I6
sS'RP_tot'
p3895
I9
sS'TO'
p3896
I6
sS'PA'
p3897
I11
sS'M'
p3898
I9
sS'R'
p3899
I6
sS'TB'
p3900
I10
sS'PL'
p3901
I10
sS'TA'
p3902
I4
ssg208
I0
sg209
I0
sg210
I0
sg211
I0
sg57
F9.580645161290322
sg212
I0
sg477
I0
sg213
I0
sg214
I0
sg215
(dp3903
S'A'
p3904
I11
sS'ME'
p3905
I3
sS'RP2'
p3906
I7
sS'E'
p3907
I10
sS'P'
p3908
I9
sS'RP1'
p3909
I9
sS'JP'
p3910
I6
sS'RP_tot'
p3911
I9
sS'TO'
p3912
I6
sS'PA'
p3913
I11
sS'M'
p3914
I9
sS'R'
p3915
I6
sS'TB'
p3916
I10
sS'PL'
p3917
I10
sS'TA'
p3918
I4
ssg232
g3887
sg233
I0
sg234
g31
sg235
I0
sg236
I0
sg237
I0
sg238
I2
sg239
I2
sg240
I0
sg241
S'HE'
p3919
sbssg208
I11
sg209
I0
sg210
I0
sg211
I0
sg141
(dp3920
g2950
I0
sg2951
I0
sg2952
I0
sg2953
I0
ssg212
I3
sg59
F74.16952625532213
sg477
I0
sg213
I0
sg214
I0
sg215
(dp3921
g3165
I11
sg3166
I3
sg3167
I7
sg3168
I10
sg3169
I9
sg3170
I9
sg3171
I6
sg3172
I9
sg3173
I6
sg3174
I11
sg3175
I9
sg3176
I6
sg3177
I10
sg3178
I10
sg3179
I4
ssg232
(dp3922
g2959
I10
sg2960
I3
sg2961
I7
sg2962
I9
sg2967
I9
sg2964
I10
sg2965
I5
sg2966
I10
sg2963
I6
sg2968
I11
sg2969
I10
sg2970
I5
sg2971
I11
sg2972
I10
sg2973
I4
ssg233
I0
sg340
(dp3923
sg235
I0
sg234
g31
sg236
I0
sg237
I0
sg238
I2
sg239
I3
sg240
I0
sg241
S'HE'
p3924
sbsS'n20'
p3925
(ijoueur
joueur
p3926
(dp3927
g27
F7.833333333333333
sg28
I0
sg29
F8.666666666666666
sg30
g31
sg32
I0
sg33
F53.15965222610532
sg34
I0
sg35
g36
(g37
g38
Ntp3928
Rp3929
(dp3930
g42
I1
sg43
S'<'
p3931
sg45
S'base'
p3932
sbsg47
(dp3933
S'SR'
p3934
I0
sS'ST'
p3935
I0
sS'CR'
p3936
I2
sS'CT'
p3937
I0
ssg53
(dp3938
g3934
I0
sg3935
I0
sg3936
I3
sg3937
I1
ssg55
I0
sg141
(dp3939
g1963
I0
sg1964
I0
sg1965
I1
sg1966
I0
ssg56
I0
sg58
I0
sg358
I0
sg359
I0
sg60
I0
sg61
I0
sg62
I0
sg63
(g1967
S'C1'
p3940
S'DO'
p3941
S'DM'
p3942
tp3943
sg67
I00
sg68
g36
(g37
g38
Ntp3944
Rp3945
(dp3946
g42
I1
sg43
g3931
sg45
g3932
sbsg74
(dp3947
g1963
I0
sg1964
I0
sg1965
I1
sg1966
I0
ssg80
I00
sg81
(dp3948
g1963
I0
sg1964
I1
sg1965
I2
sg1966
I0
ssg83
(dp3949
g3934
I0
sg3935
I0
sg3936
I2
sg3937
I1
ssg85
I0
sg86
I0
sg87
S'Xevarh'
p3950
sg89
I8
sg90
I0
sg91
I15
sg92
I14
sg93
g1978
sg95
(dp3951
S'A'
p3952
I8
sS'ME'
p3953
I4
sS'RP2'
p3954
I6
sS'E'
p3955
I8
sS'P'
p3956
I7
sS'RP1'
p3957
I6
sS'JP'
p3958
I8
sS'RP_tot'
p3959
I7
sS'TO'
p3960
I2
sS'PA'
p3961
I13
sS'M'
p3962
I7
sS'R'
p3963
I8
sS'TB'
p3964
I5
sS'PL'
p3965
I11
sS'TA'
p3966
I6
ssg112
(dp3967
g1996
(ijoueur
joueur
p3968
(dp3969
g27
F7.833333333333333
sg28
I0
sg30
g31
sg32
I0
sg34
I0
sg35
g36
(g37
g38
Ntp3970
Rp3971
(dp3972
g42
I1
sg43
S'<'
p3973
sg45
S'base'
p3974
sbsg47
(dp3975
S'SR'
p3976
I0
sS'ST'
p3977
I0
sS'CR'
p3978
I1
sS'CT'
p3979
I0
ssg53
(dp3980
g3976
I0
sg3977
I0
sg3978
I1
sg3979
I0
ssg56
I0
sg57
F8.666666666666666
sg58
I0
sg358
I0
sg359
I0
sg60
I0
sg61
I0
sg62
I0
sg63
(g2010
S'C1'
p3981
S'DO'
p3982
S'DM'
p3983
tp3984
sg67
I00
sg68
g36
(g37
g38
Ntp3985
Rp3986
(dp3987
g42
I1
sg43
g3973
sg45
g3974
sbsg74
(dp3988
g2018
I0
sg2019
I1
sg2020
I1
sg2021
I0
ssg80
I00
sg81
(dp3989
g2018
I0
sg2019
I0
sg2020
I1
sg2021
I0
ssg83
(dp3990
g3976
I0
sg3977
I0
sg3978
I1
sg3979
I1
ssg85
I0
sg86
I0
sg87
S'Xevarh'
p3991
sg89
I8
sg90
I0
sg91
I15
sg92
I14
sg93
g2025
sg95
(dp3992
S'A'
p3993
I8
sS'ME'
p3994
I4
sS'RP2'
p3995
I6
sS'E'
p3996
I8
sS'TO'
p3997
I2
sS'RP1'
p3998
I6
sS'JP'
p3999
I7
sS'RP_tot'
p4000
I6
sS'P'
p4001
I7
sS'PA'
p4002
I13
sS'M'
p4003
I7
sS'R'
p4004
I8
sS'TB'
p4005
I5
sS'PL'
p4006
I11
sS'TA'
p4007
I6
ssg112
(dp4008
g2043
(ijoueur
joueur
p4009
(dp4010
g28
I0
sg32
I0
sg34
I0
sg35
g36
(g37
g38
Ntp4011
Rp4012
(dp4013
g42
I1
sg43
S'<'
p4014
sg45
S'base'
p4015
sbsg47
(dp4016
S'SR'
p4017
I0
sS'ST'
p4018
I0
sS'CR'
p4019
I0
sS'CT'
p4020
I0
ssg53
(dp4021
g4017
I0
sg4018
I0
sg4019
I0
sg4020
I0
ssg56
I0
sg57
F7.833333333333333
sg58
I0
sg358
I0
sg359
I0
sg60
I0
sg61
I0
sg62
I0
sg63
(S'dummy'
p4022
S'C1'
p4023
S'DO'
p4024
S'DM'
p4025
tp4026
sg67
I00
sg68
g36
(g37
g38
Ntp4027
Rp4028
(dp4029
g42
I1
sg43
g4014
sg45
g4015
sbsg74
(dp4030
g4017
I0
sg4018
I0
sg4019
I0
sg4020
I0
ssg80
I00
sg81
(dp4031
g4017
I0
sg4018
I0
sg4019
I0
sg4020
I0
ssg83
(dp4032
g4017
I0
sg4018
I0
sg4019
I0
sg4020
I0
ssg85
I0
sg86
I0
sg87
S'Xevarh'
p4033
sg89
I8
sg90
I0
sg91
I15
sg92
I14
sg93
S'DKF'
p4034
sg95
(dp4035
S'A'
p4036
I7
sS'ME'
p4037
I4
sS'RP2'
p4038
I6
sS'E'
p4039
I8
sS'TO'
p4040
I2
sS'RP1'
p4041
I6
sS'JP'
p4042
I7
sS'RP_tot'
p4043
I6
sS'P'
p4044
I7
sS'PA'
p4045
I9
sS'M'
p4046
I7
sS'R'
p4047
I8
sS'TB'
p4048
I5
sS'PL'
p4049
I10
sS'TA'
p4050
I6
ssg208
I0
sg209
I0
sg210
I0
sg211
I0
sg141
(dp4051
g4017
I0
sg4018
I0
sg4019
I0
sg4020
I0
ssg212
I0
sg477
I0
sg213
I0
sg214
I0
sg215
(dp4052
S'A'
p4053
I7
sS'ME'
p4054
I4
sS'RP2'
p4055
I6
sS'E'
p4056
I8
sS'TO'
p4057
I2
sS'RP1'
p4058
I6
sS'JP'
p4059
I7
sS'RP_tot'
p4060
I6
sS'P'
p4061
I7
sS'PA'
p4062
I9
sS'M'
p4063
I7
sS'R'
p4064
I8
sS'TB'
p4065
I5
sS'PL'
p4066
I10
sS'TA'
p4067
I6
ssg232
g4035
sg233
I0
sg234
g31
sg235
I0
sg236
I0
sg237
I0
sg238
I2
sg239
I0
sg240
I0
sg241
S'CV'
p4068
sbssg208
I0
sg209
I0
sg210
I0
sg211
I0
sg141
(dp4069
g2018
I0
sg2019
I0
sg2020
I1
sg2021
I0
ssg212
I0
sg477
I0
sg213
I0
sg214
I0
sg215
(dp4070
S'A'
p4071
I7
sS'ME'
p4072
I4
sS'RP2'
p4073
I6
sS'E'
p4074
I8
sS'TO'
p4075
I2
sS'RP1'
p4076
I6
sS'JP'
p4077
I7
sS'RP_tot'
p4078
I6
sS'P'
p4079
I7
sS'PA'
p4080
I9
sS'M'
p4081
I7
sS'R'
p4082
I8
sS'TB'
p4083
I5
sS'PL'
p4084
I10
sS'TA'
p4085
I6
ssg232
g3992
sg233
I0
sg234
g31
sg235
I0
sg236
I0
sg237
I0
sg238
I2
sg239
I0
sg240
I0
sg241
S'CV'
p4086
sbsg2121
(ijoueur
joueur
p4087
(dp4088
g28
I0
sg32
I0
sg34
I0
sg35
g36
(g37
g38
Ntp4089
Rp4090
(dp4091
g42
I1
sg43
S'<'
p4092
sg45
S'base'
p4093
sbsg47
(dp4094
S'SR'
p4095
I0
sS'ST'
p4096
I0
sS'CR'
p4097
I0
sS'CT'
p4098
I0
ssg53
(dp4099
g4095
I0
sg4096
I0
sg4097
I0
sg4098
I0
ssg56
I0
sg57
F7.833333333333333
sg58
I0
sg358
I0
sg359
I0
sg60
I0
sg61
I0
sg62
I0
sg63
(S'dummy'
p4100
S'C1'
p4101
S'DO'
p4102
S'DM'
p4103
tp4104
sg67
I00
sg68
g36
(g37
g38
Ntp4105
Rp4106
(dp4107
g42
I1
sg43
g4092
sg45
g4093
sbsg74
(dp4108
g4095
I0
sg4096
I0
sg4097
I0
sg4098
I0
ssg80
I00
sg81
(dp4109
g4095
I0
sg4096
I0
sg4097
I0
sg4098
I0
ssg83
(dp4110
g4095
I0
sg4096
I0
sg4097
I0
sg4098
I0
ssg85
I0
sg86
I0
sg87
S'Xevarh'
p4111
sg89
I8
sg90
I0
sg91
I15
sg92
I14
sg93
S'DKF'
p4112
sg95
(dp4113
S'A'
p4114
I7
sS'ME'
p4115
I4
sS'RP2'
p4116
I6
sS'E'
p4117
I8
sS'TO'
p4118
I2
sS'RP1'
p4119
I6
sS'JP'
p4120
I7
sS'RP_tot'
p4121
I6
sS'P'
p4122
I7
sS'PA'
p4123
I9
sS'M'
p4124
I7
sS'R'
p4125
I8
sS'TB'
p4126
I5
sS'PL'
p4127
I10
sS'TA'
p4128
I6
ssg208
I0
sg209
I0
sg210
I0
sg211
I0
sg141
(dp4129
g4095
I0
sg4096
I0
sg4097
I0
sg4098
I0
ssg212
I0
sg477
I0
sg213
I0
sg214
I0
sg215
(dp4130
S'A'
p4131
I7
sS'ME'
p4132
I4
sS'RP2'
p4133
I6
sS'E'
p4134
I8
sS'TO'
p4135
I2
sS'RP1'
p4136
I6
sS'JP'
p4137
I7
sS'RP_tot'
p4138
I6
sS'P'
p4139
I7
sS'PA'
p4140
I9
sS'M'
p4141
I7
sS'R'
p4142
I8
sS'TB'
p4143
I5
sS'PL'
p4144
I10
sS'TA'
p4145
I6
ssg232
g4113
sg233
I0
sg234
g31
sg235
I0
sg236
I0
sg237
I0
sg238
I2
sg239
I0
sg240
I0
sg241
S'CV'
p4146
sbssg208
I5
sg209
I0
sg210
I0
sg211
I0
sg57
F8.866666666666667
sg212
I0
sg59
F53.15965222610532
sg477
I0
sg213
I0
sg214
I0
sg215
(dp4147
S'A'
p4148
I7
sS'ME'
p4149
I4
sS'RP2'
p4150
I6
sS'E'
p4151
I8
sS'TO'
p4152
I2
sS'RP1'
p4153
I6
sS'JP'
p4154
I7
sS'RP_tot'
p4155
I6
sS'P'
p4156
I7
sS'PA'
p4157
I9
sS'M'
p4158
I7
sS'R'
p4159
I8
sS'TB'
p4160
I5
sS'PL'
p4161
I10
sS'TA'
p4162
I6
ssg232
(dp4163
g3952
I8
sg3953
I4
sg3954
I6
sg3955
I8
sg3960
I2
sg3957
I6
sg3958
I8
sg3959
I7
sg3956
I7
sg3961
I13
sg3962
I7
sg3963
I8
sg3964
I5
sg3965
I11
sg3966
I6
ssg233
I0
sg340
(dp4164
sg235
I0
sg234
g31
sg236
I0
sg237
I0
sg238
I2
sg239
I0
sg240
I0
sg241
S'CV'
p4165
sbsS'n8'
p4166
(ijoueur
joueur
p4167
(dp4168
g27
F9.472222222222221
sg28
I1
sg29
F9.444444444444445
sg30
g31
sg32
I0
sg33
F32.30101416072335
sg34
I0
sg35
g36
(g37
g38
Ntp4169
Rp4170
(dp4171
g42
I2
sg43
S'<<'
p4172
sg45
S'special'
p4173
sbsg47
(dp4174
S'SR'
p4175
I0
sS'CT'
p4176
I2
sS'CR'
p4177
I2
sS'ST'
p4178
I0
ssg53
(dp4179
g4175
I0
sg4176
I0
sg4177
I0
sg4178
I0
ssg55
I0
sg56
I0
sg58
I0
sg59
F32.30101416072335
sg80
I00
sg60
I0
sg61
I0
sg62
I0
sg63
(S'dummy'
p4180
S'N8'
p4181
S'DL'
p4182
g31
tp4183
sg67
I00
sg68
g36
(g37
g38
Ntp4184
Rp4185
(dp4186
g42
I2
sg43
S'<<'
p4187
sg45
g4173
sbsg74
(dp4188
g2464
I0
sg2465
I0
sg2466
I0
sg2467
I1
ssg141
(dp4189
g2464
I0
sg2465
I0
sg2466
I0
sg2467
I2
ssg81
(dp4190
g2464
I0
sg2465
I0
sg2466
I0
sg2467
I0
ssg83
(dp4191
g4175
I0
sg4176
I17
sg4177
I7
sg4178
I0
ssg85
I0
sg86
I0
sg87
S'Famyed'
p4192
sg89
I6
sg90
I0
sg91
I13
sg92
I50
sg93
g2472
sg95
(dp4193
S'A'
p4194
I11
sS'ME'
p4195
I9
sS'RP2'
p4196
I6
sS'E'
p4197
I12
sS'TO'
p4198
I10
sS'RP1'
p4199
I9
sS'JP'
p4200
I4
sS'RP_tot'
p4201
I9
sS'P'
p4202
I4
sS'PA'
p4203
I9
sS'M'
p4204
I7
sS'R'
p4205
I8
sS'TB'
p4206
I5
sS'PL'
p4207
I9
sS'TA'
p4208
I4
ssg112
(dp4209
g2490
(ijoueur
joueur
p4210
(dp4211
g27
F9.472222222222221
sg28
I1
sg30
g31
sg32
I0
sg34
I0
sg35
g36
(g37
g38
Ntp4212
Rp4213
(dp4214
g42
I2
sg43
S'<<'
p4215
sg45
S'special'
p4216
sbsg47
(dp4217
S'SR'
p4218
I0
sS'CT'
p4219
I0
sS'CR'
p4220
I2
sS'ST'
p4221
I0
ssg53
(dp4222
g4218
I0
sg4219
I0
sg4220
I0
sg4221
I0
ssg141
(dp4223
g2505
I0
sg2506
I0
sg2507
I2
sg2508
I0
ssg56
I0
sg58
I0
sg60
I0
sg61
I0
sg62
I0
sg63
(S'dummy'
p4224
S'N8'
p4225
S'DL'
p4226
g31
tp4227
sg67
I00
sg68
g36
(g37
g38
Ntp4228
Rp4229
(dp4230
g42
I2
sg43
S'<<'
p4231
sg45
g4216
sbsg74
(dp4232
g2505
I0
sg2506
I0
sg2507
I6
sg2508
I5
ssg80
I00
sg81
(dp4233
g2505
I0
sg2506
I0
sg2507
I0
sg2508
I0
ssg83
(dp4234
g4218
I0
sg4219
I16
sg4220
I7
sg4221
I0
ssg85
I0
sg86
I0
sg87
S'Famyed'
p4235
sg89
I6
sg90
I0
sg91
I13
sg92
I50
sg93
g2519
sg95
(dp4236
S'A'
p4237
I11
sS'ME'
p4238
I9
sS'RP2'
p4239
I6
sS'E'
p4240
I12
sS'P'
p4241
I4
sS'RP1'
p4242
I9
sS'JP'
p4243
I4
sS'RP_tot'
p4244
I9
sS'TO'
p4245
I10
sS'PA'
p4246
I9
sS'M'
p4247
I7
sS'R'
p4248
I8
sS'TB'
p4249
I5
sS'PL'
p4250
I9
sS'TA'
p4251
I4
ssg112
(dp4252
g2537
(ijoueur
joueur
p4253
(dp4254
g28
I1
sg32
I0
sg34
I0
sg35
g36
(g37
g38
Ntp4255
Rp4256
(dp4257
g42
I2
sg43
S'<<'
p4258
sg45
S'special'
p4259
sbsg47
(dp4260
S'SR'
p4261
I0
sS'CT'
p4262
I0
sS'CR'
p4263
I0
sS'ST'
p4264
I0
ssg53
(dp4265
g4261
I0
sg4262
I0
sg4263
I0
sg4264
I0
ssg56
I0
sg58
I0
sg80
I01
sg60
I3
sg61
I0
sg62
I0
sg63
(S'dummy'
p4266
S'N8'
p4267
S'DL'
p4268
g31
tp4269
sg67
I01
sg68
g36
(g37
g38
Ntp4270
Rp4271
(dp4272
g42
I2
sg43
S'<<'
p4273
sg45
g4259
sbsg74
(dp4274
g4261
I0
sg4262
I11
sg4263
I1
sg4264
I0
ssg141
(dp4275
g4261
I0
sg4262
I0
sg4263
I0
sg4264
I0
ssg81
(dp4276
g4261
I0
sg4262
I0
sg4263
I0
sg4264
I0
ssg83
(dp4277
g4261
I0
sg4262
I11
sg4263
I1
sg4264
I0
ssg85
I0
sg86
I0
sg87
S'Famyed'
p4278
sg89
I6
sg90
I0
sg91
I13
sg92
I11
sg93
S'CAT'
p4279
sg95
(dp4280
S'A'
p4281
I11
sS'ME'
p4282
I8
sS'RP2'
p4283
I6
sS'E'
p4284
I11
sS'P'
p4285
I4
sS'RP1'
p4286
I9
sS'JP'
p4287
I4
sS'RP_tot'
p4288
I9
sS'TO'
p4289
I11
sS'PA'
p4290
I9
sS'M'
p4291
I8
sS'R'
p4292
I8
sS'TB'
p4293
I5
sS'PL'
p4294
I9
sS'TA'
p4295
I4
ssg208
I0
sg209
I0
sg210
I0
sg211
I0
sg57
F9.472222222222221
sg212
I0
sg213
I0
sg214
I1
sg215
(dp4296
S'A'
p4297
I11
sS'ME'
p4298
I8
sS'RP2'
p4299
I6
sS'E'
p4300
I11
sS'P'
p4301
I4
sS'RP1'
p4302
I9
sS'JP'
p4303
I4
sS'RP_tot'
p4304
I9
sS'TO'
p4305
I11
sS'PA'
p4306
I9
sS'M'
p4307
I8
sS'R'
p4308
I8
sS'TB'
p4309
I5
sS'PL'
p4310
I9
sS'TA'
p4311
I4
ssg232
g4280
sg233
I1
sg234
g31
sg235
I0
sg236
I0
sg237
I0
sg238
I1
sg239
I3
sg240
I1
sg241
S'EN'
p4312
sbssg208
I0
sg209
I0
sg210
I0
sg211
I0
sg57
F9.444444444444445
sg212
I0
sg213
I0
sg214
I2
sg215
(dp4313
S'A'
p4314
I11
sS'ME'
p4315
I8
sS'RP2'
p4316
I6
sS'E'
p4317
I11
sS'P'
p4318
I4
sS'RP1'
p4319
I9
sS'JP'
p4320
I4
sS'RP_tot'
p4321
I9
sS'TO'
p4322
I11
sS'PA'
p4323
I9
sS'M'
p4324
I8
sS'R'
p4325
I8
sS'TB'
p4326
I5
sS'PL'
p4327
I9
sS'TA'
p4328
I4
ssg232
g4236
sg233
I0
sg234
S'CAT 12'
p4329
sg235
I0
sg236
I0
sg237
I0
sg238
I5
sg239
I3
sg240
I1
sg241
S'EN'
p4330
sbsg2613
(ijoueur
joueur
p4331
(dp4332
g28
I1
sg32
I0
sg34
I0
sg35
g36
(g37
g38
Ntp4333
Rp4334
(dp4335
g42
I2
sg43
S'<<'
p4336
sg45
S'special'
p4337
sbsg47
(dp4338
S'SR'
p4339
I0
sS'CT'
p4340
I0
sS'CR'
p4341
I0
sS'ST'
p4342
I0
ssg53
(dp4343
g4339
I0
sg4340
I0
sg4341
I0
sg4342
I0
ssg56
I0
sg58
I0
sg80
I01
sg60
I3
sg61
I0
sg62
I0
sg63
(S'dummy'
p4344
S'N8'
p4345
S'DL'
p4346
g31
tp4347
sg67
I01
sg68
g36
(g37
g38
Ntp4348
Rp4349
(dp4350
g42
I2
sg43
S'<<'
p4351
sg45
g4337
sbsg74
(dp4352
g4339
I0
sg4340
I11
sg4341
I1
sg4342
I0
ssg141
(dp4353
g4339
I0
sg4340
I0
sg4341
I0
sg4342
I0
ssg81
(dp4354
g4339
I0
sg4340
I0
sg4341
I0
sg4342
I0
ssg83
(dp4355
g4339
I0
sg4340
I11
sg4341
I1
sg4342
I0
ssg85
I0
sg86
I0
sg87
S'Famyed'
p4356
sg89
I6
sg90
I0
sg91
I13
sg92
I11
sg93
S'CAT'
p4357
sg95
(dp4358
S'A'
p4359
I11
sS'ME'
p4360
I8
sS'RP2'
p4361
I6
sS'E'
p4362
I11
sS'P'
p4363
I4
sS'RP1'
p4364
I9
sS'JP'
p4365
I4
sS'RP_tot'
p4366
I9
sS'TO'
p4367
I11
sS'PA'
p4368
I9
sS'M'
p4369
I8
sS'R'
p4370
I8
sS'TB'
p4371
I5
sS'PL'
p4372
I9
sS'TA'
p4373
I4
ssg208
I0
sg209
I0
sg210
I0
sg211
I0
sg57
F9.472222222222221
sg212
I0
sg213
I0
sg214
I1
sg215
(dp4374
S'A'
p4375
I11
sS'ME'
p4376
I8
sS'RP2'
p4377
I6
sS'E'
p4378
I11
sS'P'
p4379
I4
sS'RP1'
p4380
I9
sS'JP'
p4381
I4
sS'RP_tot'
p4382
I9
sS'TO'
p4383
I11
sS'PA'
p4384
I9
sS'M'
p4385
I8
sS'R'
p4386
I8
sS'TB'
p4387
I5
sS'PL'
p4388
I9
sS'TA'
p4389
I4
ssg232
g4358
sg233
I1
sg234
g31
sg235
I0
sg236
I0
sg237
I0
sg238
I1
sg239
I3
sg240
I1
sg241
S'EN'
p4390
sbssg208
I4
sg209
I0
sg210
I0
sg211
I0
sg57
F9.444444444444445
sg212
I0
sg213
I0
sg214
I2
sg215
(dp4391
S'A'
p4392
I11
sS'ME'
p4393
I8
sS'RP2'
p4394
I6
sS'E'
p4395
I11
sS'P'
p4396
I4
sS'RP1'
p4397
I9
sS'JP'
p4398
I4
sS'RP_tot'
p4399
I9
sS'TO'
p4400
I11
sS'PA'
p4401
I9
sS'M'
p4402
I8
sS'R'
p4403
I8
sS'TB'
p4404
I5
sS'PL'
p4405
I9
sS'TA'
p4406
I4
ssg232
(dp4407
g4194
I11
sg4195
I9
sg4196
I6
sg4197
I12
sg4202
I4
sg4199
I9
sg4200
I4
sg4201
I9
sg4198
I10
sg4203
I9
sg4204
I7
sg4205
I8
sg4206
I5
sg4207
I9
sg4208
I4
ssg233
I0
sg340
(dp4408
sg235
I0
sg234
S'CAT 12'
p4409
sg236
I0
sg237
I0
sg238
I5
sg239
I3
sg240
I0
sg241
S'EN'
p4410
sbsS'n9'
p4411
(ijoueur
joueur
p4412
(dp4413
g27
F9.655172413793103
sg28
I2
sg29
F10.172413793103448
sg30
g31
sg32
I0
sg33
F63.66143871754078
sg34
I0
sg35
g36
(g37
g38
Ntp4414
Rp4415
(dp4416
g42
I5
sg43
S'**'
p4417
sg45
g607
sbsg47
(dp4418
g353
I0
sg354
I0
sg355
I0
sg356
I0
ssg53
(dp4419
g353
I0
sg354
I0
sg355
I0
sg356
I0
ssg55
I0
sg56
I0
sg57
F10.482758620689655
sg58
I0
sg358
I0
sg359
I0
sg60
I2
sg61
I0
sg62
I0
sg63
(g360
S'DM'
p4420
g31
g31
tp4421
sg67
I00
sg68
g36
(g37
g38
Ntp4422
Rp4423
(dp4424
g42
I5
sg43
S'**'
p4425
sg45
g607
sbsg74
(dp4426
g76
I0
sg77
I6
sg78
I0
sg79
I0
ssg80
I00
sg81
(dp4427
g76
I0
sg77
I0
sg78
I0
sg79
I0
ssg83
(dp4428
g353
I0
sg354
I32
sg355
I0
sg356
I0
ssg85
I4
sg86
I0
sg87
S'Lardhal'
p4429
sg89
I6
sg90
I0
sg91
I20
sg92
I180
sg93
g94
sg95
(dp4430
g373
I12
sg374
I4
sg375
I8
sg376
I11
sg377
I9
sg378
I6
sg379
I9
sg380
I8
sg381
I11
sg382
I12
sg383
I8
sg384
I7
sg385
I6
sg386
I10
sg387
I6
ssg112
(dp4431
g114
(ijoueur
joueur
p4432
(dp4433
g27
F9.655172413793103
sg28
I2
sg30
g31
sg32
I0
sg34
I0
sg35
g36
(g37
g38
Ntp4434
Rp4435
(dp4436
g42
I5
sg43
S'**'
p4437
sg45
g626
sbsg47
(dp4438
g397
I0
sg398
I0
sg399
I0
sg400
I0
ssg53
(dp4439
g397
I0
sg398
I0
sg399
I0
sg400
I0
ssg56
I0
sg58
I0
sg358
I0
sg359
I0
sg80
I00
sg60
I0
sg61
I0
sg62
I0
sg63
(g402
S'DM'
p4440
g31
g31
tp4441
sg67
I00
sg68
g36
(g37
g38
Ntp4442
Rp4443
(dp4444
g42
I5
sg43
S'**'
p4445
sg45
g626
sbsg74
(dp4446
g411
I0
sg412
I13
sg413
I0
sg414
I0
ssg141
(dp4447
g411
I0
sg412
I0
sg413
I0
sg414
I0
ssg81
(dp4448
g411
I0
sg412
I0
sg413
I0
sg414
I0
ssg83
(dp4449
g397
I0
sg398
I26
sg399
I0
sg400
I0
ssg85
I4
sg86
I0
sg87
S'Lardhal'
p4450
sg89
I6
sg90
I0
sg91
I20
sg92
I180
sg93
g146
sg95
(dp4451
g420
I13
sg421
I4
sg422
I8
sg423
I11
sg424
I10
sg425
I6
sg426
I7
sg427
I8
sg428
I9
sg429
I12
sg430
I8
sg431
I8
sg432
I6
sg433
I11
sg434
I6
ssg112
(dp4452
g164
(ijoueur
joueur
p4453
(dp4454
g28
I2
sg32
I0
sg34
I0
sg35
g36
(g37
g38
Ntp4455
Rp4456
(dp4457
g42
I5
sg43
S'**'
p4458
sg45
S'seigneur'
p4459
sbsg47
(dp4460
S'SR'
p4461
I0
sS'CT'
p4462
I0
sS'CR'
p4463
I0
sS'ST'
p4464
I0
ssg53
(dp4465
g4461
I0
sg4462
I0
sg4463
I0
sg4464
I0
ssg56
I0
sg57
F9.655172413793103
sg58
I0
sg358
I0
sg359
I0
sg60
I0
sg61
I0
sg62
I0
sg63
(S'dummy'
p4466
S'DM'
p4467
g31
g31
tp4468
sg67
I00
sg68
g36
(g37
g38
Ntp4469
Rp4470
(dp4471
g42
I5
sg43
S'**'
p4472
sg45
g4459
sbsg74
(dp4473
g4461
I0
sg4462
I13
sg4463
I0
sg4464
I0
ssg80
I00
sg81
(dp4474
g4461
I0
sg4462
I0
sg4463
I0
sg4464
I0
ssg83
(dp4475
g4461
I0
sg4462
I13
sg4463
I0
sg4464
I0
ssg85
I4
sg86
I0
sg87
S'Lardhal'
p4476
sg89
I6
sg90
I0
sg91
I20
sg92
I180
sg93
S'DKF'
p4477
sg95
(dp4478
S'A'
p4479
I12
sS'ME'
p4480
I4
sS'RP2'
p4481
I8
sS'E'
p4482
I11
sS'P'
p4483
I10
sS'RP1'
p4484
I6
sS'JP'
p4485
I7
sS'RP_tot'
p4486
I8
sS'TO'
p4487
I9
sS'PA'
p4488
I10
sS'M'
p4489
I8
sS'R'
p4490
I8
sS'TB'
p4491
I6
sS'PL'
p4492
I11
sS'TA'
p4493
I6
ssg208
I0
sg209
I0
sg210
I0
sg211
I0
sg141
(dp4494
g4461
I0
sg4462
I0
sg4463
I0
sg4464
I0
ssg212
I0
sg477
I0
sg213
I0
sg214
I0
sg215
(dp4495
S'A'
p4496
I12
sS'ME'
p4497
I4
sS'RP2'
p4498
I8
sS'E'
p4499
I11
sS'P'
p4500
I10
sS'RP1'
p4501
I6
sS'JP'
p4502
I7
sS'RP_tot'
p4503
I8
sS'TO'
p4504
I9
sS'PA'
p4505
I10
sS'M'
p4506
I8
sS'R'
p4507
I8
sS'TB'
p4508
I6
sS'PL'
p4509
I11
sS'TA'
p4510
I6
ssg232
g4478
sg233
I2
sg234
g31
sg235
I0
sg236
I0
sg237
I0
sg238
I18
sg239
I0
sg240
I0
sg241
S'CV'
p4511
sbssg208
I0
sg209
I0
sg210
I0
sg211
I0
sg57
F10.172413793103448
sg212
I0
sg477
I0
sg213
I0
sg214
I0
sg215
(dp4512
g497
I12
sg498
I4
sg499
I8
sg500
I11
sg501
I10
sg502
I6
sg503
I7
sg504
I8
sg505
I9
sg506
I10
sg507
I8
sg508
I8
sg509
I6
sg510
I11
sg511
I6
ssg232
g4451
sg233
I0
sg234
g31
sg235
I0
sg236
I0
sg237
I0
sg238
I18
sg239
I0
sg240
I0
sg241
S'CV'
p4513
sbsg261
(ijoueur
joueur
p4514
(dp4515
g28
I2
sg32
I0
sg34
I0
sg35
g36
(g37
g38
Ntp4516
Rp4517
(dp4518
g42
I5
sg43
S'**'
p4519
sg45
S'seigneur'
p4520
sbsg47
(dp4521
S'SR'
p4522
I0
sS'CT'
p4523
I0
sS'CR'
p4524
I0
sS'ST'
p4525
I0
ssg53
(dp4526
g4522
I0
sg4523
I0
sg4524
I0
sg4525
I0
ssg56
I0
sg57
F9.655172413793103
sg58
I0
sg358
I0
sg359
I0
sg60
I0
sg61
I0
sg62
I0
sg63
(S'dummy'
p4527
S'DM'
p4528
g31
g31
tp4529
sg67
I00
sg68
g36
(g37
g38
Ntp4530
Rp4531
(dp4532
g42
I5
sg43
S'**'
p4533
sg45
g4520
sbsg74
(dp4534
g4522
I0
sg4523
I13
sg4524
I0
sg4525
I0
ssg80
I00
sg81
(dp4535
g4522
I0
sg4523
I0
sg4524
I0
sg4525
I0
ssg83
(dp4536
g4522
I0
sg4523
I13
sg4524
I0
sg4525
I0
ssg85
I4
sg86
I0
sg87
S'Lardhal'
p4537
sg89
I6
sg90
I0
sg91
I20
sg92
I180
sg93
S'DKF'
p4538
sg95
(dp4539
S'A'
p4540
I12
sS'ME'
p4541
I4
sS'RP2'
p4542
I8
sS'E'
p4543
I11
sS'P'
p4544
I10
sS'RP1'
p4545
I6
sS'JP'
p4546
I7
sS'RP_tot'
p4547
I8
sS'TO'
p4548
I9
sS'PA'
p4549
I10
sS'M'
p4550
I8
sS'R'
p4551
I8
sS'TB'
p4552
I6
sS'PL'
p4553
I11
sS'TA'
p4554
I6
ssg208
I0
sg209
I0
sg210
I0
sg211
I0
sg141
(dp4555
g4522
I0
sg4523
I0
sg4524
I0
sg4525
I0
ssg212
I0
sg477
I0
sg213
I0
sg214
I0
sg215
(dp4556
S'A'
p4557
I12
sS'ME'
p4558
I4
sS'RP2'
p4559
I8
sS'E'
p4560
I11
sS'P'
p4561
I10
sS'RP1'
p4562
I6
sS'JP'
p4563
I7
sS'RP_tot'
p4564
I8
sS'TO'
p4565
I9
sS'PA'
p4566
I10
sS'M'
p4567
I8
sS'R'
p4568
I8
sS'TB'
p4569
I6
sS'PL'
p4570
I11
sS'TA'
p4571
I6
ssg232
g4539
sg233
I2
sg234
g31
sg235
I0
sg236
I0
sg237
I0
sg238
I18
sg239
I0
sg240
I0
sg241
S'CV'
p4572
sbssg208
I10
sg209
I0
sg210
I0
sg211
I0
sg141
(dp4573
g76
I0
sg77
I0
sg78
I0
sg79
I0
ssg212
I0
sg59
F63.66143871754078
sg477
I0
sg213
I0
sg214
I0
sg215
(dp4574
g575
I12
sg576
I4
sg577
I8
sg578
I11
sg579
I10
sg580
I6
sg581
I7
sg582
I8
sg583
I9
sg584
I10
sg585
I8
sg586
I8
sg587
I6
sg588
I11
sg589
I6
ssg232
(dp4575
g373
I13
sg374
I4
sg375
I8
sg376
I11
sg381
I11
sg378
I6
sg379
I9
sg380
I8
sg377
I9
sg382
I12
sg383
I8
sg384
I8
sg385
I6
sg386
I11
sg387
I6
ssg233
I0
sg340
(dp4576
sg235
I0
sg234
g31
sg236
I0
sg237
I0
sg238
I18
sg239
I2
sg240
I0
sg241
S'CV'
p4577
sbsS'n1'
p4578
g601
sS'n2'
p4579
(ijoueur
joueur
p4580
(dp4581
g27
F10.62962962962963
sg28
I0
sg29
F10.185185185185185
sg30
g31
sg32
I0
sg33
F63.03058922098782
sg34
I0
sg35
g36
(g37
g38
Ntp4582
Rp4583
(dp4584
g42
I5
sg43
S'**'
p4585
sg45
S'seigneur'
p4586
sbsg47
(dp4587
S'SR'
p4588
I0
sS'CT'
p4589
I5
sS'CR'
p4590
I0
sS'ST'
p4591
I0
ssg53
(dp4592
g4588
I0
sg4589
I0
sg4590
I0
sg4591
I0
ssg55
I0
sg56
I0
sg57
F9.970588235294118
sg58
I0
sg358
I0
sg359
I0
sg60
I1
sg61
I0
sg62
I0
sg63
(S'dummy'
p4593
S'PI'
p4594
S'N8'
p4595
S'TA'
p4596
tp4597
sg67
I00
sg68
g36
(g37
g38
Ntp4598
Rp4599
(dp4600
g42
I5
sg43
S'**'
p4601
sg45
g4586
sbsg74
(dp4602
g2464
I0
sg2465
I0
sg2466
I0
sg2467
I1
ssg80
I00
sg81
(dp4603
g2464
I0
sg2465
I0
sg2466
I0
sg2467
I0
ssg83
(dp4604
g4588
I3
sg4589
I26
sg4590
I2
sg4591
I2
ssg85
I0
sg86
I0
sg87
S'Stavehyr'
p4605
sg89
I4
sg90
I0
sg91
I11
sg92
I216
sg93
g2472
sg95
(dp4606
S'A'
p4607
I10
sS'ME'
p4608
I9
sS'RP2'
p4609
I6
sS'E'
p4610
I9
sS'TO'
p4611
I10
sS'RP1'
p4612
I11
sS'JP'
p4613
I2
sS'RP_tot'
p4614
I11
sS'P'
p4615
I5
sS'PA'
p4616
I13
sS'M'
p4617
I3
sS'R'
p4618
I8
sS'TB'
p4619
I3
sS'PL'
p4620
I12
sS'TA'
p4621
I7
ssg112
(dp4622
S's12'
p4623
(ijoueur
joueur
p4624
(dp4625
g27
F10.62962962962963
sg28
I0
sg30
g31
sg32
I0
sg34
I0
sg35
g36
(g37
g38
Ntp4626
Rp4627
(dp4628
g42
I5
sg43
S'**'
p4629
sg45
S'seigneur'
p4630
sbsg47
(dp4631
S'SR'
p4632
I0
sS'CT'
p4633
I0
sS'CR'
p4634
I0
sS'ST'
p4635
I0
ssg53
(dp4636
g4632
I0
sg4633
I0
sg4634
I0
sg4635
I0
ssg56
I0
sg58
I0
sg358
I0
sg359
I0
sg80
I00
sg60
I0
sg61
I0
sg62
I0
sg63
(S'dummy'
p4637
S'PI'
p4638
S'N8'
p4639
S'TA'
p4640
tp4641
sg67
I01
sg68
g36
(g37
g38
Ntp4642
Rp4643
(dp4644
g42
I5
sg43
S'**'
p4645
sg45
g4630
sbsg74
(dp4646
S'SR'
p4647
I0
sS'ST'
p4648
I0
sS'CR'
p4649
I1
sS'CT'
p4650
I12
ssg141
(dp4651
g4647
I0
sg4648
I0
sg4649
I0
sg4650
I0
ssg81
(dp4652
g4647
I0
sg4648
I0
sg4649
I0
sg4650
I0
ssg83
(dp4653
g4632
I3
sg4633
I25
sg4634
I2
sg4635
I2
ssg85
I0
sg86
I0
sg87
S'Stavehyr'
p4654
sg89
I4
sg90
I0
sg91
I11
sg92
I210
sg93
S'PRG'
p4655
sg95
(dp4656
S'A'
p4657
I11
sS'ME'
p4658
I9
sS'RP2'
p4659
I6
sS'E'
p4660
I9
sS'P'
p4661
I5
sS'RP1'
p4662
I11
sS'JP'
p4663
I2
sS'RP_tot'
p4664
I11
sS'TO'
p4665
I10
sS'PA'
p4666
I13
sS'M'
p4667
I3
sS'R'
p4668
I10
sS'TB'
p4669
I3
sS'PL'
p4670
I13
sS'TA'
p4671
I7
ssg112
(dp4672
S's11'
p4673
(ijoueur
joueur
p4674
(dp4675
g28
I0
sg32
I0
sg34
I0
sg35
g36
(g37
g38
Ntp4676
Rp4677
(dp4678
g42
I5
sg43
S'**'
p4679
sg45
S'seigneur'
p4680
sbsg47
(dp4681
S'SR'
p4682
I0
sS'CT'
p4683
I0
sS'CR'
p4684
I0
sS'ST'
p4685
I0
ssg53
(dp4686
g4682
I0
sg4683
I0
sg4684
I0
sg4685
I0
ssg141
(dp4687
g4682
I0
sg4683
I0
sg4684
I0
sg4685
I0
ssg56
I0
sg58
I0
sg358
I0
sg359
I0
sg60
I0
sg61
I0
sg62
I0
sg63
(S'dummy'
p4688
S'PI'
p4689
S'N8'
p4690
S'TA'
p4691
tp4692
sg67
I00
sg68
g36
(g37
g38
Ntp4693
Rp4694
(dp4695
g42
I5
sg43
S'**'
p4696
sg45
g4680
sbsg74
(dp4697
g4682
I3
sg4683
I13
sg4684
I1
sg4685
I2
ssg80
I00
sg81
(dp4698
g4682
I0
sg4683
I0
sg4684
I0
sg4685
I0
ssg83
(dp4699
g4682
I3
sg4683
I13
sg4684
I1
sg4685
I2
ssg85
I0
sg86
I0
sg87
S'Stavehyr'
p4700
sg89
I4
sg90
I0
sg91
I11
sg92
I210
sg93
S'PRG'
p4701
sg95
(dp4702
S'A'
p4703
I11
sS'ME'
p4704
I10
sS'RP2'
p4705
I7
sS'E'
p4706
I9
sS'P'
p4707
I5
sS'RP1'
p4708
I11
sS'JP'
p4709
I2
sS'RP_tot'
p4710
I11
sS'TO'
p4711
I10
sS'PA'
p4712
I13
sS'M'
p4713
I6
sS'R'
p4714
I10
sS'TB'
p4715
I3
sS'PL'
p4716
I14
sS'TA'
p4717
I8
ssg208
I0
sg209
I0
sg210
I0
sg211
I0
sg57
F10.62962962962963
sg212
I0
sg477
I0
sg213
I0
sg214
I0
sg215
(dp4718
S'A'
p4719
I11
sS'ME'
p4720
I10
sS'RP2'
p4721
I7
sS'E'
p4722
I9
sS'P'
p4723
I5
sS'RP1'
p4724
I11
sS'JP'
p4725
I2
sS'RP_tot'
p4726
I11
sS'TO'
p4727
I10
sS'PA'
p4728
I13
sS'M'
p4729
I6
sS'R'
p4730
I10
sS'TB'
p4731
I3
sS'PL'
p4732
I14
sS'TA'
p4733
I8
ssg232
g4702
sg233
I0
sg234
g31
sg235
I0
sg236
I0
sg237
I0
sg238
I21
sg239
I7
sg240
I0
sg241
S'CHS'
p4734
sbssg208
I0
sg209
I0
sg210
I0
sg211
I0
sg57
F10.185185185185185
sg212
I0
sg477
I0
sg213
I0
sg214
I0
sg215
(dp4735
S'A'
p4736
I11
sS'ME'
p4737
I10
sS'RP2'
p4738
I7
sS'E'
p4739
I9
sS'TO'
p4740
I10
sS'RP1'
p4741
I11
sS'JP'
p4742
I2
sS'RP_tot'
p4743
I11
sS'P'
p4744
I5
sS'PA'
p4745
I13
sS'M'
p4746
I6
sS'R'
p4747
I10
sS'TB'
p4748
I3
sS'PL'
p4749
I14
sS'TA'
p4750
I8
ssg232
g4656
sg233
I0
sg234
g31
sg235
I0
sg236
I0
sg237
I0
sg238
I21
sg239
I7
sg240
I0
sg241
S'CHS'
p4751
sbsS's11'
p4752
(ijoueur
joueur
p4753
(dp4754
g28
I0
sg32
I0
sg34
I0
sg35
g36
(g37
g38
Ntp4755
Rp4756
(dp4757
g42
I5
sg43
S'**'
p4758
sg45
S'seigneur'
p4759
sbsg47
(dp4760
S'SR'
p4761
I0
sS'CT'
p4762
I0
sS'CR'
p4763
I0
sS'ST'
p4764
I0
ssg53
(dp4765
g4761
I0
sg4762
I0
sg4763
I0
sg4764
I0
ssg141
(dp4766
g4761
I0
sg4762
I0
sg4763
I0
sg4764
I0
ssg56
I0
sg58
I0
sg358
I0
sg359
I0
sg60
I0
sg61
I0
sg62
I0
sg63
(S'dummy'
p4767
S'PI'
p4768
S'N8'
p4769
S'TA'
p4770
tp4771
sg67
I00
sg68
g36
(g37
g38
Ntp4772
Rp4773
(dp4774
g42
I5
sg43
S'**'
p4775
sg45
g4759
sbsg74
(dp4776
g4761
I3
sg4762
I13
sg4763
I1
sg4764
I2
ssg80
I00
sg81
(dp4777
g4761
I0
sg4762
I0
sg4763
I0
sg4764
I0
ssg83
(dp4778
g4761
I3
sg4762
I13
sg4763
I1
sg4764
I2
ssg85
I0
sg86
I0
sg87
S'Stavehyr'
p4779
sg89
I4
sg90
I0
sg91
I11
sg92
I210
sg93
S'PRG'
p4780
sg95
(dp4781
S'A'
p4782
I11
sS'ME'
p4783
I10
sS'RP2'
p4784
I7
sS'E'
p4785
I9
sS'P'
p4786
I5
sS'RP1'
p4787
I11
sS'JP'
p4788
I2
sS'RP_tot'
p4789
I11
sS'TO'
p4790
I10
sS'PA'
p4791
I13
sS'M'
p4792
I6
sS'R'
p4793
I10
sS'TB'
p4794
I3
sS'PL'
p4795
I14
sS'TA'
p4796
I8
ssg208
I0
sg209
I0
sg210
I0
sg211
I0
sg57
F10.62962962962963
sg212
I0
sg477
I0
sg213
I0
sg214
I0
sg215
(dp4797
S'A'
p4798
I11
sS'ME'
p4799
I10
sS'RP2'
p4800
I7
sS'E'
p4801
I9
sS'P'
p4802
I5
sS'RP1'
p4803
I11
sS'JP'
p4804
I2
sS'RP_tot'
p4805
I11
sS'TO'
p4806
I10
sS'PA'
p4807
I13
sS'M'
p4808
I6
sS'R'
p4809
I10
sS'TB'
p4810
I3
sS'PL'
p4811
I14
sS'TA'
p4812
I8
ssg232
g4781
sg233
I0
sg234
g31
sg235
I0
sg236
I0
sg237
I0
sg238
I21
sg239
I7
sg240
I0
sg241
S'CHS'
p4813
sbssg208
I10
sg209
I0
sg210
I0
sg211
I0
sg141
(dp4814
g2464
I0
sg2465
I0
sg2466
I0
sg2467
I5
ssg212
I0
sg59
F63.03058922098782
sg477
I0
sg213
I0
sg214
I1
sg215
(dp4815
S'A'
p4816
I11
sS'ME'
p4817
I10
sS'RP2'
p4818
I7
sS'E'
p4819
I9
sS'TO'
p4820
I10
sS'RP1'
p4821
I11
sS'JP'
p4822
I2
sS'RP_tot'
p4823
I11
sS'P'
p4824
I5
sS'PA'
p4825
I13
sS'M'
p4826
I6
sS'R'
p4827
I10
sS'TB'
p4828
I3
sS'PL'
p4829
I14
sS'TA'
p4830
I8
ssg232
(dp4831
g4607
I11
sg4608
I9
sg4609
I6
sg4610
I9
sg4615
I5
sg4612
I11
sg4613
I2
sg4614
I11
sg4611
I10
sg4616
I13
sg4617
I3
sg4618
I9
sg4619
I3
sg4620
I13
sg4621
I7
ssg233
I0
sg340
(dp4832
sg235
I0
sg234
S'PRG 13'
p4833
sg236
I0
sg237
I0
sg238
I20
sg239
I8
sg240
I1
sg241
S'CHS'
p4834
sbsS'n3'
p4835
(ijoueur
joueur
p4836
(dp4837
g27
F10.451612903225806
sg28
I1
sg29
F9.763157894736842
sg30
g31
sg32
I0
sg33
F63.87696174186581
sg34
I0
sg35
g36
(g37
g38
Ntp4838
Rp4839
(dp4840
g42
I3
sg43
S'^^^'
p4841
sg45
S'rare'
p4842
sbsg47
(dp4843
S'SR'
p4844
I0
sS'ST'
p4845
I0
sS'CR'
p4846
I0
sS'CT'
p4847
I0
ssg53
(dp4848
g4844
I0
sg4845
I12
sg4846
I0
sg4847
I15
ssg55
I0
sg56
I0
sg58
I0
sg358
I0
sg359
I0
sg80
I00
sg60
I0
sg61
I0
sg62
I0
sg63
(S'dummy'
p4849
S'TL'
p4850
S'DL'
p4851
S'PI'
p4852
tp4853
sg67
I00
sg68
g36
(g37
g38
Ntp4854
Rp4855
(dp4856
g42
I3
sg43
S'^^^'
p4857
sg45
g4842
sbsg74
(dp4858
g1963
I0
sg1964
I3
sg1965
I3
sg1966
I0
ssg141
(dp4859
g1963
I0
sg1964
I0
sg1965
I0
sg1966
I0
ssg81
(dp4860
g1963
I0
sg1964
I0
sg1965
I0
sg1966
I0
ssg83
(dp4861
g4844
I0
sg4845
I0
sg4846
I6
sg4847
I14
ssg85
I0
sg86
I0
sg87
S'Beragueux'
p4862
sg89
I4
sg90
I0
sg91
I12
sg92
I100
sg93
g1978
sg95
(dp4863
S'A'
p4864
I11
sS'ME'
p4865
I8
sS'RP2'
p4866
I9
sS'E'
p4867
I10
sS'P'
p4868
I5
sS'RP1'
p4869
I5
sS'JP'
p4870
I4
sS'RP_tot'
p4871
I9
sS'TO'
p4872
I10
sS'PA'
p4873
I10
sS'M'
p4874
I6
sS'R'
p4875
I10
sS'TB'
p4876
I5
sS'PL'
p4877
I10
sS'TA'
p4878
I3
ssg112
(dp4879
g1996
(ijoueur
joueur
p4880
(dp4881
g27
F10.451612903225806
sg28
I1
sg30
g31
sg32
I0
sg34
I0
sg35
g36
(g37
g38
Ntp4882
Rp4883
(dp4884
g42
I3
sg43
S'^^^'
p4885
sg45
S'rare'
p4886
sbsg47
(dp4887
S'SR'
p4888
I0
sS'ST'
p4889
I0
sS'CR'
p4890
I0
sS'CT'
p4891
I0
ssg53
(dp4892
g4888
I0
sg4889
I12
sg4890
I0
sg4891
I15
ssg141
(dp4893
g2018
I0
sg2019
I0
sg2020
I0
sg2021
I0
ssg56
I0
sg58
I0
sg358
I0
sg359
I0
sg60
I2
sg61
I0
sg62
I0
sg63
(S'dummy'
p4894
S'TL'
p4895
S'DL'
p4896
S'PI'
p4897
tp4898
sg67
I00
sg68
g36
(g37
g38
Ntp4899
Rp4900
(dp4901
g42
I3
sg43
S'^^^'
p4902
sg45
g4886
sbsg74
(dp4903
g2018
I0
sg2019
I9
sg2020
I2
sg2021
I0
ssg80
I00
sg81
(dp4904
g2018
I0
sg2019
I2
sg2020
I0
sg2021
I7
ssg83
(dp4905
g4888
I0
sg4889
I0
sg4890
I3
sg4891
I11
ssg85
I0
sg86
I0
sg87
S'Beragueux'
p4906
sg89
I4
sg90
I0
sg91
I12
sg92
I100
sg93
g2025
sg95
(dp4907
S'A'
p4908
I11
sS'ME'
p4909
I9
sS'RP2'
p4910
I9
sS'E'
p4911
I10
sS'TO'
p4912
I10
sS'RP1'
p4913
I5
sS'JP'
p4914
I4
sS'RP_tot'
p4915
I9
sS'P'
p4916
I5
sS'PA'
p4917
I10
sS'M'
p4918
I7
sS'R'
p4919
I10
sS'TB'
p4920
I5
sS'PL'
p4921
I10
sS'TA'
p4922
I3
ssg112
(dp4923
g2043
(ijoueur
joueur
p4924
(dp4925
g28
I1
sg32
I0
sg34
I0
sg35
g36
(g37
g38
Ntp4926
Rp4927
(dp4928
g42
I3
sg43
S'^^^'
p4929
sg45
S'rare'
p4930
sbsg47
(dp4931
S'SR'
p4932
I0
sS'ST'
p4933
I0
sS'CR'
p4934
I0
sS'CT'
p4935
I0
ssg53
(dp4936
g4932
I0
sg4933
I5
sg4934
I0
sg4935
I13
ssg141
(dp4937
g4932
I0
sg4933
I0
sg4934
I0
sg4935
I0
ssg56
I0
sg58
I0
sg358
I0
sg359
I0
sg60
I0
sg61
I0
sg62
I0
sg63
(S'dummy'
p4938
S'TL'
p4939
S'DL'
p4940
S'PI'
p4941
tp4942
sg67
I01
sg68
g36
(g37
g38
Ntp4943
Rp4944
(dp4945
g42
I3
sg43
S'^^^'
p4946
sg45
g4930
sbsg74
(dp4947
g4932
I0
sg4933
I0
sg4934
I1
sg4935
I2
ssg80
I01
sg81
(dp4948
g4932
I0
sg4933
I5
sg4934
I0
sg4935
I13
ssg83
(dp4949
g4932
I0
sg4933
I0
sg4934
I1
sg4935
I2
ssg85
I0
sg86
I0
sg87
S'Beragueux'
p4950
sg89
I4
sg90
I0
sg91
I12
sg92
I38
sg93
S'TA'
p4951
sg95
(dp4952
S'A'
p4953
I11
sS'ME'
p4954
I9
sS'RP2'
p4955
I9
sS'E'
p4956
I10
sS'TO'
p4957
I10
sS'RP1'
p4958
I6
sS'JP'
p4959
I4
sS'RP_tot'
p4960
I9
sS'P'
p4961
I5
sS'PA'
p4962
I10
sS'M'
p4963
I8
sS'R'
p4964
I11
sS'TB'
p4965
I5
sS'PL'
p4966
I12
sS'TA'
p4967
I4
ssg208
I0
sg209
I0
sg210
I0
sg211
I0
sg57
F10.451612903225806
sg212
I0
sg477
I0
sg213
I0
sg214
I0
sg215
(dp4968
S'A'
p4969
I11
sS'ME'
p4970
I9
sS'RP2'
p4971
I9
sS'E'
p4972
I10
sS'TO'
p4973
I10
sS'RP1'
p4974
I6
sS'JP'
p4975
I4
sS'RP_tot'
p4976
I9
sS'P'
p4977
I5
sS'PA'
p4978
I10
sS'M'
p4979
I8
sS'R'
p4980
I11
sS'TB'
p4981
I5
sS'PL'
p4982
I12
sS'TA'
p4983
I4
ssg232
g4952
sg233
I1
sg234
g31
sg235
I0
sg236
I0
sg237
I0
sg238
I4
sg239
I1
sg240
I0
sg241
S'B'
p4984
sbssg208
I7
sg209
I0
sg210
I0
sg211
I0
sg57
F9.763157894736842
sg212
I0
sg477
I0
sg213
I0
sg214
I0
sg215
(dp4985
S'A'
p4986
I11
sS'ME'
p4987
I9
sS'RP2'
p4988
I9
sS'E'
p4989
I10
sS'TO'
p4990
I10
sS'RP1'
p4991
I6
sS'JP'
p4992
I4
sS'RP_tot'
p4993
I9
sS'P'
p4994
I5
sS'PA'
p4995
I10
sS'M'
p4996
I8
sS'R'
p4997
I11
sS'TB'
p4998
I5
sS'PL'
p4999
I12
sS'TA'
p5000
I4
ssg232
g4907
sg233
I0
sg234
S'TA 12'
p5001
sg235
I0
sg236
I0
sg237
I0
sg238
I15
sg239
I3
sg240
I0
sg241
S'B'
p5002
sbsg2121
(ijoueur
joueur
p5003
(dp5004
g28
I1
sg32
I0
sg34
I0
sg35
g36
(g37
g38
Ntp5005
Rp5006
(dp5007
g42
I3
sg43
S'^^^'
p5008
sg45
S'rare'
p5009
sbsg47
(dp5010
S'SR'
p5011
I0
sS'ST'
p5012
I0
sS'CR'
p5013
I0
sS'CT'
p5014
I0
ssg53
(dp5015
g5011
I0
sg5012
I5
sg5013
I0
sg5014
I13
ssg141
(dp5016
g5011
I0
sg5012
I0
sg5013
I0
sg5014
I0
ssg56
I0
sg58
I0
sg358
I0
sg359
I0
sg60
I0
sg61
I0
sg62
I0
sg63
(S'dummy'
p5017
S'TL'
p5018
S'DL'
p5019
S'PI'
p5020
tp5021
sg67
I01
sg68
g36
(g37
g38
Ntp5022
Rp5023
(dp5024
g42
I3
sg43
S'^^^'
p5025
sg45
g5009
sbsg74
(dp5026
g5011
I0
sg5012
I0
sg5013
I1
sg5014
I2
ssg80
I01
sg81
(dp5027
g5011
I0
sg5012
I5
sg5013
I0
sg5014
I13
ssg83
(dp5028
g5011
I0
sg5012
I0
sg5013
I1
sg5014
I2
ssg85
I0
sg86
I0
sg87
S'Beragueux'
p5029
sg89
I4
sg90
I0
sg91
I12
sg92
I38
sg93
S'TA'
p5030
sg95
(dp5031
S'A'
p5032
I11
sS'ME'
p5033
I9
sS'RP2'
p5034
I9
sS'E'
p5035
I10
sS'TO'
p5036
I10
sS'RP1'
p5037
I6
sS'JP'
p5038
I4
sS'RP_tot'
p5039
I9
sS'P'
p5040
I5
sS'PA'
p5041
I10
sS'M'
p5042
I8
sS'R'
p5043
I11
sS'TB'
p5044
I5
sS'PL'
p5045
I12
sS'TA'
p5046
I4
ssg208
I0
sg209
I0
sg210
I0
sg211
I0
sg57
F10.451612903225806
sg212
I0
sg477
I0
sg213
I0
sg214
I0
sg215
(dp5047
S'A'
p5048
I11
sS'ME'
p5049
I9
sS'RP2'
p5050
I9
sS'E'
p5051
I10
sS'TO'
p5052
I10
sS'RP1'
p5053
I6
sS'JP'
p5054
I4
sS'RP_tot'
p5055
I9
sS'P'
p5056
I5
sS'PA'
p5057
I10
sS'M'
p5058
I8
sS'R'
p5059
I11
sS'TB'
p5060
I5
sS'PL'
p5061
I12
sS'TA'
p5062
I4
ssg232
g5031
sg233
I1
sg234
g31
sg235
I0
sg236
I0
sg237
I0
sg238
I4
sg239
I1
sg240
I0
sg241
S'B'
p5063
sbssg208
I5
sg209
I0
sg210
I0
sg211
I0
sg57
F9.657894736842104
sg212
I0
sg59
F63.87696174186581
sg477
I0
sg213
I0
sg214
I0
sg215
(dp5064
S'A'
p5065
I11
sS'ME'
p5066
I9
sS'RP2'
p5067
I9
sS'E'
p5068
I10
sS'TO'
p5069
I10
sS'RP1'
p5070
I6
sS'JP'
p5071
I4
sS'RP_tot'
p5072
I9
sS'P'
p5073
I5
sS'PA'
p5074
I10
sS'M'
p5075
I8
sS'R'
p5076
I11
sS'TB'
p5077
I5
sS'PL'
p5078
I12
sS'TA'
p5079
I4
ssg232
(dp5080
g4864
I11
sg4865
I8
sg4866
I9
sg4867
I10
sg4872
I10
sg4869
I5
sg4870
I4
sg4871
I9
sg4868
I5
sg4873
I10
sg4874
I6
sg4875
I10
sg4876
I5
sg4877
I10
sg4878
I3
ssg233
I0
sg340
(dp5081
sg235
I0
sg234
S'TA 12'
p5082
sg236
I0
sg237
I0
sg238
I15
sg239
I3
sg240
I0
sg241
S'B'
p5083
sbsS'n4'
p5084
g777
sS'n5'
p5085
g25
sS'n6'
p5086
g1259
sS'n7'
p5087
(ijoueur
joueur
p5088
(dp5089
g27
F10.35483870967742
sg28
I1
sg29
F10.741935483870968
sg30
g31
sg32
I0
sg33
F63.515536666714446
sg34
I0
sg35
g36
(g37
g38
Ntp5090
Rp5091
(dp5092
g42
I1
sg43
S'^'
p5093
sg45
S'base'
p5094
sbsg47
(dp5095
S'SR'
p5096
I0
sS'ST'
p5097
I0
sS'CR'
p5098
I0
sS'CT'
p5099
I0
ssg53
(dp5100
g5096
I0
sg5097
I0
sg5098
I0
sg5099
I0
ssg55
I0
sg56
I0
sg57
F10.387096774193548
sg58
I0
sg59
F63.515536666714446
sg60
I0
sg61
I0
sg62
I0
sg63
(S'dummy'
p5101
S'TL'
p5102
g31
g31
tp5103
sg67
I00
sg68
g36
(g37
g38
Ntp5104
Rp5105
(dp5106
g42
I1
sg43
S'>'
p5107
sg45
g5094
sbsg74
(dp5108
g76
I0
sg77
I6
sg78
I0
sg79
I0
ssg80
I00
sg81
(dp5109
g76
I0
sg77
I0
sg78
I0
sg79
I0
ssg83
(dp5110
g5096
I0
sg5097
I14
sg5098
I7
sg5099
I20
ssg85
I0
sg86
I0
sg87
S'Lafael'
p5111
sg89
I1
sg90
I0
sg91
I13
sg92
I100
sg93
g94
sg95
(dp5112
S'A'
p5113
I6
sS'ME'
p5114
I12
sS'RP2'
p5115
I5
sS'E'
p5116
I8
sS'P'
p5117
I10
sS'RP1'
p5118
I9
sS'JP'
p5119
I4
sS'RP_tot'
p5120
I9
sS'TO'
p5121
I9
sS'PA'
p5122
I8
sS'M'
p5123
I9
sS'R'
p5124
I12
sS'TB'
p5125
I5
sS'PL'
p5126
I10
sS'TA'
p5127
I8
ssg112
(dp5128
g114
(ijoueur
joueur
p5129
(dp5130
g27
F10.35483870967742
sg28
I1
sg30
g31
sg32
I0
sg34
I0
sg35
g36
(g37
g38
Ntp5131
Rp5132
(dp5133
g42
I1
sg43
S'^'
p5134
sg45
S'base'
p5135
sbsg47
(dp5136
S'SR'
p5137
I0
sS'ST'
p5138
I0
sS'CR'
p5139
I0
sS'CT'
p5140
I0
ssg53
(dp5141
g5137
I0
sg5138
I0
sg5139
I0
sg5140
I0
ssg56
I0
sg58
I0
sg80
I00
sg60
I0
sg61
I0
sg62
I0
sg63
(S'dummy'
p5142
S'TL'
p5143
g31
g31
tp5144
sg67
I00
sg68
g36
(g37
g38
Ntp5145
Rp5146
(dp5147
g42
I1
sg43
S'>'
p5148
sg45
g5135
sbsg74
(dp5149
g411
I0
sg412
I13
sg413
I0
sg414
I7
ssg141
(dp5150
g411
I0
sg412
I0
sg413
I0
sg414
I0
ssg81
(dp5151
g411
I0
sg412
I0
sg413
I0
sg414
I0
ssg83
(dp5152
g5137
I0
sg5138
I14
sg5139
I7
sg5140
I14
ssg85
I0
sg86
I0
sg87
S'Lafael'
p5153
sg89
I1
sg90
I0
sg91
I13
sg92
I100
sg93
g146
sg95
(dp5154
S'A'
p5155
I8
sS'ME'
p5156
I13
sS'RP2'
p5157
I6
sS'E'
p5158
I8
sS'TO'
p5159
I9
sS'RP1'
p5160
I9
sS'JP'
p5161
I4
sS'RP_tot'
p5162
I9
sS'P'
p5163
I10
sS'PA'
p5164
I8
sS'M'
p5165
I9
sS'R'
p5166
I13
sS'TB'
p5167
I5
sS'PL'
p5168
I12
sS'TA'
p5169
I8
ssg112
(dp5170
g164
(ijoueur
joueur
p5171
(dp5172
g28
I0
sg32
I0
sg34
I0
sg35
g36
(g37
g38
Ntp5173
Rp5174
(dp5175
g42
I1
sg43
S'^'
p5176
sg45
S'base'
p5177
sbsg47
(dp5178
S'SR'
p5179
I0
sS'ST'
p5180
I0
sS'CR'
p5181
I0
sS'CT'
p5182
I0
ssg53
(dp5183
g5179
I0
sg5180
I0
sg5181
I0
sg5182
I0
ssg56
I0
sg58
I0
sg80
I01
sg60
I0
sg61
I0
sg62
I0
sg63
(S'dummy'
p5184
S'TL'
p5185
g31
g31
tp5186
sg67
I01
sg68
g36
(g37
g38
Ntp5187
Rp5188
(dp5189
g42
I1
sg43
S'>'
p5190
sg45
g5177
sbsg74
(dp5191
g5179
I0
sg5180
I7
sg5181
I7
sg5182
I1
ssg141
(dp5192
g5179
I0
sg5180
I0
sg5181
I0
sg5182
I0
ssg81
(dp5193
g5179
I0
sg5180
I0
sg5181
I0
sg5182
I0
ssg83
(dp5194
g5179
I0
sg5180
I7
sg5181
I7
sg5182
I1
ssg85
I0
sg86
I0
sg87
S'Lafael'
p5195
sg89
I1
sg90
I0
sg91
I13
sg92
I50
sg93
S'TO'
p5196
sg95
(dp5197
S'A'
p5198
I8
sS'ME'
p5199
I12
sS'RP2'
p5200
I6
sS'E'
p5201
I9
sS'TO'
p5202
I9
sS'RP1'
p5203
I9
sS'JP'
p5204
I4
sS'RP_tot'
p5205
I9
sS'P'
p5206
I9
sS'PA'
p5207
I8
sS'M'
p5208
I11
sS'R'
p5209
I11
sS'TB'
p5210
I5
sS'PL'
p5211
I12
sS'TA'
p5212
I8
ssg208
I0
sg209
I0
sg210
I0
sg211
I0
sg57
F10.35483870967742
sg212
I0
sg213
I0
sg214
I0
sg215
(dp5213
S'A'
p5214
I8
sS'ME'
p5215
I12
sS'RP2'
p5216
I6
sS'E'
p5217
I9
sS'TO'
p5218
I9
sS'RP1'
p5219
I9
sS'JP'
p5220
I4
sS'RP_tot'
p5221
I9
sS'P'
p5222
I9
sS'PA'
p5223
I8
sS'M'
p5224
I11
sS'R'
p5225
I11
sS'TB'
p5226
I5
sS'PL'
p5227
I12
sS'TA'
p5228
I8
ssg232
g5197
sg233
I0
sg234
S'HTH 8'
p5229
sg235
I0
sg236
I0
sg237
I0
sg238
I5
sg239
I6
sg240
I0
sg241
S'HE'
p5230
sbssg208
I10
sg209
I0
sg210
I0
sg211
I0
sg57
F10.741935483870968
sg212
I0
sg213
I0
sg214
I0
sg215
(dp5231
S'A'
p5232
I8
sS'ME'
p5233
I12
sS'RP2'
p5234
I6
sS'E'
p5235
I9
sS'TO'
p5236
I9
sS'RP1'
p5237
I9
sS'JP'
p5238
I4
sS'RP_tot'
p5239
I9
sS'P'
p5240
I9
sS'PA'
p5241
I8
sS'M'
p5242
I11
sS'R'
p5243
I11
sS'TB'
p5244
I5
sS'PL'
p5245
I12
sS'TA'
p5246
I8
ssg232
g5154
sg233
I1
sg234
S'HTH 8;TO 12'
p5247
sg235
I0
sg236
I0
sg237
I0
sg238
I16
sg239
I6
sg240
I0
sg241
S'HE'
p5248
sbsg261
(ijoueur
joueur
p5249
(dp5250
g28
I0
sg32
I0
sg34
I0
sg35
g36
(g37
g38
Ntp5251
Rp5252
(dp5253
g42
I1
sg43
S'^'
p5254
sg45
S'base'
p5255
sbsg47
(dp5256
S'SR'
p5257
I0
sS'ST'
p5258
I0
sS'CR'
p5259
I0
sS'CT'
p5260
I0
ssg53
(dp5261
g5257
I0
sg5258
I0
sg5259
I0
sg5260
I0
ssg56
I0
sg58
I0
sg80
I01
sg60
I0
sg61
I0
sg62
I0
sg63
(S'dummy'
p5262
S'TL'
p5263
g31
g31
tp5264
sg67
I01
sg68
g36
(g37
g38
Ntp5265
Rp5266
(dp5267
g42
I1
sg43
S'>'
p5268
sg45
g5255
sbsg74
(dp5269
g5257
I0
sg5258
I7
sg5259
I7
sg5260
I1
ssg141
(dp5270
g5257
I0
sg5258
I0
sg5259
I0
sg5260
I0
ssg81
(dp5271
g5257
I0
sg5258
I0
sg5259
I0
sg5260
I0
ssg83
(dp5272
g5257
I0
sg5258
I7
sg5259
I7
sg5260
I1
ssg85
I0
sg86
I0
sg87
S'Lafael'
p5273
sg89
I1
sg90
I0
sg91
I13
sg92
I50
sg93
S'TO'
p5274
sg95
(dp5275
S'A'
p5276
I8
sS'ME'
p5277
I12
sS'RP2'
p5278
I6
sS'E'
p5279
I9
sS'TO'
p5280
I9
sS'RP1'
p5281
I9
sS'JP'
p5282
I4
sS'RP_tot'
p5283
I9
sS'P'
p5284
I9
sS'PA'
p5285
I8
sS'M'
p5286
I11
sS'R'
p5287
I11
sS'TB'
p5288
I5
sS'PL'
p5289
I12
sS'TA'
p5290
I8
ssg208
I0
sg209
I0
sg210
I0
sg211
I0
sg57
F10.35483870967742
sg212
I0
sg213
I0
sg214
I0
sg215
(dp5291
S'A'
p5292
I8
sS'ME'
p5293
I12
sS'RP2'
p5294
I6
sS'E'
p5295
I9
sS'TO'
p5296
I9
sS'RP1'
p5297
I9
sS'JP'
p5298
I4
sS'RP_tot'
p5299
I9
sS'P'
p5300
I9
sS'PA'
p5301
I8
sS'M'
p5302
I11
sS'R'
p5303
I11
sS'TB'
p5304
I5
sS'PL'
p5305
I12
sS'TA'
p5306
I8
ssg232
g5275
sg233
I0
sg234
S'HTH 8'
p5307
sg235
I0
sg236
I0
sg237
I0
sg238
I5
sg239
I6
sg240
I0
sg241
S'HE'
p5308
sbssg208
I11
sg209
I0
sg210
I0
sg211
I0
sg141
(dp5309
g76
I0
sg77
I0
sg78
I0
sg79
I0
ssg212
I0
sg213
I0
sg214
I0
sg215
(dp5310
S'A'
p5311
I8
sS'ME'
p5312
I12
sS'RP2'
p5313
I6
sS'E'
p5314
I9
sS'TO'
p5315
I9
sS'RP1'
p5316
I9
sS'JP'
p5317
I4
sS'RP_tot'
p5318
I9
sS'P'
p5319
I9
sS'PA'
p5320
I8
sS'M'
p5321
I11
sS'R'
p5322
I11
sS'TB'
p5323
I5
sS'PL'
p5324
I12
sS'TA'
p5325
I8
ssg232
(dp5326
g5113
I7
sg5114
I12
sg5115
I5
sg5116
I8
sg5121
I9
sg5118
I9
sg5119
I4
sg5120
I9
sg5117
I10
sg5122
I8
sg5123
I9
sg5124
I13
sg5125
I5
sg5126
I11
sg5127
I8
ssg233
I0
sg340
(dp5327
sg235
I0
sg234
S'HTH 8;TO 12'
p5328
sg236
I0
sg237
I0
sg238
I16
sg239
I6
sg240
I0
sg241
S'HE'
p5329
sbssS'remplacements'
p5330
(dp5331
g2443
S'n0'
p5332
sg2691
g5332
sg3184
g5332
sg3419
g5332
sg3660
g5332
sg3756
g5332
sg3925
g5332
ssb.