(iclub
compo
p0
(dp1
S'caracs_old'
p2
(dp3
S'A'
p4
F153.0
sS'ME'
p5
F96.0
sS'E'
p6
F190.5
sS'OplusAV'
p7
F100.5
sS'OplusAR'
p8
F103.5
sS'JP'
p9
F107.25
sS'PA'
p10
F110.0
sS'M'
p11
F90.75
sS'OmoinsAR'
p12
F92.25
sS'TO_off'
p13
F111.0
sS'TO_def'
p14
F105.0
sS'OmoinsAV'
p15
F103.25
sS'R'
p16
F176.75
ssS'totaux_old'
p17
(dp18
S'T2'
p19
F185.25
sS'T3'
p20
F95.25
sS'T1'
p21
F190.5
ssS'roles'
p22
(dp23
S'SA_scd'
p24
(ijoueur
joueur
p25
(dp26
S'EV_saison_11'
p27
F9.735294117647058
sS'rouges_total'
p28
I1
sS'EV_saison_12'
p29
F9.617647058823529
sS'changements_postes'
p30
S''
p31
sS'drops_total'
p32
I0
sS'xp_total'
p33
F63.03058922098782
sS'blessure'
p34
I0
sS'RG_max'
p35
ccopy_reg
_reconstructor
p36
(cjoueur
rang_new
p37
c__builtin__
object
p38
Ntp39
Rp40
(dp41
S'type_nb'
p42
I1
sS'rang'
p43
S'^'
p44
sS'type'
p45
S'base'
p46
sbsS'MJ2_total'
p47
(dp48
S'SR'
p49
I0
sS'CT'
p50
I0
sS'CR'
p51
I0
sS'ST'
p52
I0
ssS'MJ3_total'
p53
(dp54
g49
I0
sg50
I0
sg51
I0
sg52
I0
ssS'xp'
p55
I0
sS'MJ2'
p56
(dp57
S'SR'
p58
I0
sS'ST'
p59
I0
sS'CR'
p60
I0
sS'CT'
p61
I0
ssS'drop_rates_total'
p62
I0
sS'drop_rates_saison'
p63
I0
sS'xp_saison'
p64
F63.03058922098782
sS'essais_saison'
p65
I0
sS'penalite_ratees_saison'
p66
I0
sS'transformations_saison'
p67
I0
sS'postes'
p68
(S'dummy'
p69
S'DL'
p70
g31
g31
tp71
sS'veut_partir'
p72
I00
sS'RG'
p73
g36
(g37
g38
Ntp74
Rp75
(dp76
g42
I2
sg43
S'^^'
p77
sg45
S'special'
p78
sbsS'MJ1'
p79
(dp80
g58
I0
sg59
I0
sg60
I0
sg61
I6
ssS'MS_probleme'
p81
I00
sS'MJ3'
p82
(dp83
g58
I0
sg59
I0
sg60
I0
sg61
I0
ssS'MJ1_total'
p84
(dp85
g49
I7
sg50
I20
sg51
I7
sg52
I1
ssS'penalites_total'
p86
I0
sS'penalites_saison'
p87
I0
sS'nom'
p88
S'Lyath'
p89
sS'C'
p90
I1
sS'transformations_total'
p91
I0
sS'D'
p92
I14
sS'VAL'
p93
I50
sS'club'
p94
S'DKF'
p95
sS'caracs'
p96
(dp97
S'A'
p98
I11
sS'ME'
p99
I9
sS'RP2'
p100
I5
sS'E'
p101
I9
sS'TO'
p102
I11
sS'RP1'
p103
I11
sS'JP'
p104
I4
sS'RP_tot'
p105
I11
sS'P'
p106
I7
sS'PA'
p107
I10
sS'M'
p108
I8
sS'R'
p109
I7
sS'TB'
p110
I4
sS'PL'
p111
I8
sS'TA'
p112
I5
ssS'jj_passe'
p113
(dp114
S's12'
p115
(ijoueur
joueur
p116
(dp117
g27
F9.735294117647058
sg28
I1
sg30
g31
sg32
I0
sg34
I0
sg35
g36
(g37
g38
Ntp118
Rp119
(dp120
g42
I1
sg43
S'^'
p121
sg45
S'base'
p122
sbsg47
(dp123
S'SR'
p124
I0
sS'CT'
p125
I0
sS'CR'
p126
I0
sS'ST'
p127
I0
ssg53
(dp128
g124
I0
sg125
I0
sg126
I0
sg127
I0
ssg62
I0
sS'EV'
p129
F9.617647058823529
sg63
I0
sg65
I1
sg66
I0
sg67
I0
sg68
(S'dummy'
p130
S'DL'
p131
g31
g31
tp132
sg72
I00
sg73
g36
(g37
g38
Ntp133
Rp134
(dp135
g42
I2
sg43
S'^^'
p136
sg45
S'special'
p137
sbsg79
(dp138
S'SR'
p139
I0
sS'ST'
p140
I0
sS'CR'
p141
I0
sS'CT'
p142
I12
ssg81
I00
sg82
(dp143
g139
I0
sg140
I0
sg141
I0
sg142
I0
ssg84
(dp144
g124
I7
sg125
I14
sg126
I7
sg127
I1
ssg86
I0
sg87
I0
sg88
S'Lyath'
p145
sg90
I1
sg91
I0
sg92
I14
sg93
I50
sg94
S'DKF'
p146
sg96
(dp147
S'A'
p148
I12
sS'ME'
p149
I9
sS'RP2'
p150
I5
sS'E'
p151
I9
sS'P'
p152
I7
sS'RP1'
p153
I11
sS'JP'
p154
I4
sS'RP_tot'
p155
I11
sS'TO'
p156
I11
sS'PA'
p157
I10
sS'M'
p158
I8
sS'R'
p159
I8
sS'TB'
p160
I4
sS'PL'
p161
I9
sS'TA'
p162
I5
ssg113
(dp163
S's11'
p164
(ijoueur
joueur
p165
(dp166
g28
I0
sg32
I0
sg34
I0
sg35
g36
(g37
g38
Ntp167
Rp168
(dp169
g42
I1
sg43
S'^'
p170
sg45
S'base'
p171
sbsg47
(dp172
S'SR'
p173
I0
sS'ST'
p174
I0
sS'CR'
p175
I0
sS'CT'
p176
I0
ssg53
(dp177
g173
I0
sg174
I0
sg175
I0
sg176
I0
ssg62
I0
sg63
I0
sg81
I01
sg65
I1
sg66
I0
sg67
I0
sg68
(S'dummy'
p178
S'DL'
p179
g31
g31
tp180
sg72
I01
sg73
g36
(g37
g38
Ntp181
Rp182
(dp183
g42
I2
sg43
S'^^'
p184
sg45
S'special'
p185
sbsg79
(dp186
g173
I7
sg174
I1
sg175
I7
sg176
I2
ssg56
(dp187
g173
I0
sg174
I0
sg175
I0
sg176
I0
ssg82
(dp188
g173
I0
sg174
I0
sg175
I0
sg176
I0
ssg84
(dp189
g173
I7
sg174
I1
sg175
I7
sg176
I2
ssg86
I0
sg87
I0
sg88
S'Lyath'
p190
sg90
I1
sg91
I0
sg92
I14
sg93
I11
sg94
S'SN'
p191
sg96
(dp192
S'A'
p193
I12
sS'ME'
p194
I9
sS'RP2'
p195
I5
sS'E'
p196
I9
sS'TO'
p197
I11
sS'RP1'
p198
I11
sS'JP'
p199
I4
sS'RP_tot'
p200
I11
sS'P'
p201
I7
sS'PA'
p202
I10
sS'M'
p203
I8
sS'R'
p204
I8
sS'TB'
p205
I4
sS'PL'
p206
I10
sS'TA'
p207
I5
ssS'fatigue'
p208
I0
sS'drop_ratees_total'
p209
I0
sS'blessures_total'
p210
I0
sS'XP'
p211
I0
sg129
F9.735294117647058
sS'penalite_ratees_total'
p212
I0
sS'blessures_saison'
p213
I0
sS'jaunes_total'
p214
I0
sS'caracs_saison_11'
p215
(dp216
S'A'
p217
I12
sS'ME'
p218
I9
sS'RP2'
p219
I5
sS'E'
p220
I9
sS'TO'
p221
I11
sS'RP1'
p222
I11
sS'JP'
p223
I4
sS'RP_tot'
p224
I11
sS'P'
p225
I7
sS'PA'
p226
I10
sS'M'
p227
I8
sS'R'
p228
I8
sS'TB'
p229
I4
sS'PL'
p230
I10
sS'TA'
p231
I5
ssS'caracs_sans_fatigue'
p232
g192
sS'rouges_saison'
p233
I0
sS'anciens_clubs'
p234
g31
sS'transformation_ratees_total'
p235
I0
sS'drops_saison'
p236
I0
sS'transformation_ratees_saison'
p237
I0
sS'MS'
p238
I1
sS'essais_total'
p239
I5
sS'jaunes_saison'
p240
I0
sS'ARM'
p241
S'HE'
p242
sbssg208
I0
sg209
I0
sg210
I1
sg211
I0
sg56
(dp243
g139
I0
sg140
I0
sg141
I0
sg142
I0
ssg212
I0
sg213
I1
sg214
I0
sg215
(dp244
S'A'
p245
I12
sS'ME'
p246
I9
sS'RP2'
p247
I5
sS'E'
p248
I9
sS'TO'
p249
I11
sS'RP1'
p250
I11
sS'JP'
p251
I4
sS'RP_tot'
p252
I11
sS'P'
p253
I7
sS'PA'
p254
I10
sS'M'
p255
I8
sS'R'
p256
I8
sS'TB'
p257
I4
sS'PL'
p258
I10
sS'TA'
p259
I5
ssg232
g147
sg233
I1
sg234
S'SN 12'
p260
sg235
I0
sg236
I0
sg237
I0
sg238
I6
sg239
I6
sg240
I0
sg241
S'HE'
p261
sbsS's11'
p262
(ijoueur
joueur
p263
(dp264
g28
I0
sg32
I0
sg34
I0
sg35
g36
(g37
g38
Ntp265
Rp266
(dp267
g42
I1
sg43
S'^'
p268
sg45
S'base'
p269
sbsg47
(dp270
S'SR'
p271
I0
sS'ST'
p272
I0
sS'CR'
p273
I0
sS'CT'
p274
I0
ssg53
(dp275
g271
I0
sg272
I0
sg273
I0
sg274
I0
ssg62
I0
sg63
I0
sg81
I01
sg65
I1
sg66
I0
sg67
I0
sg68
(S'dummy'
p276
S'DL'
p277
g31
g31
tp278
sg72
I01
sg73
g36
(g37
g38
Ntp279
Rp280
(dp281
g42
I2
sg43
S'^^'
p282
sg45
S'special'
p283
sbsg79
(dp284
g271
I7
sg272
I1
sg273
I7
sg274
I2
ssg56
(dp285
g271
I0
sg272
I0
sg273
I0
sg274
I0
ssg82
(dp286
g271
I0
sg272
I0
sg273
I0
sg274
I0
ssg84
(dp287
g271
I7
sg272
I1
sg273
I7
sg274
I2
ssg86
I0
sg87
I0
sg88
S'Lyath'
p288
sg90
I1
sg91
I0
sg92
I14
sg93
I11
sg94
S'SN'
p289
sg96
(dp290
S'A'
p291
I12
sS'ME'
p292
I9
sS'RP2'
p293
I5
sS'E'
p294
I9
sS'TO'
p295
I11
sS'RP1'
p296
I11
sS'JP'
p297
I4
sS'RP_tot'
p298
I11
sS'P'
p299
I7
sS'PA'
p300
I10
sS'M'
p301
I8
sS'R'
p302
I8
sS'TB'
p303
I4
sS'PL'
p304
I10
sS'TA'
p305
I5
ssg208
I0
sg209
I0
sg210
I0
sg211
I0
sg129
F9.735294117647058
sg212
I0
sg213
I0
sg214
I0
sg215
(dp306
S'A'
p307
I12
sS'ME'
p308
I9
sS'RP2'
p309
I5
sS'E'
p310
I9
sS'TO'
p311
I11
sS'RP1'
p312
I11
sS'JP'
p313
I4
sS'RP_tot'
p314
I11
sS'P'
p315
I7
sS'PA'
p316
I10
sS'M'
p317
I8
sS'R'
p318
I8
sS'TB'
p319
I4
sS'PL'
p320
I10
sS'TA'
p321
I5
ssg232
g290
sg233
I0
sg234
g31
sg235
I0
sg236
I0
sg237
I0
sg238
I1
sg239
I5
sg240
I0
sg241
S'HE'
p322
sbssg208
I8
sg209
I0
sg210
I1
sg211
I0
sg129
F9.617647058823529
sg212
I0
sg213
I0
sg214
I0
sg215
(dp323
S'A'
p324
I12
sS'ME'
p325
I9
sS'RP2'
p326
I5
sS'E'
p327
I9
sS'TO'
p328
I11
sS'RP1'
p329
I11
sS'JP'
p330
I4
sS'RP_tot'
p331
I11
sS'P'
p332
I7
sS'PA'
p333
I10
sS'M'
p334
I8
sS'R'
p335
I8
sS'TB'
p336
I4
sS'PL'
p337
I10
sS'TA'
p338
I5
ssg232
(dp339
g98
I12
sg99
I9
sg100
I5
sg101
I9
sg106
I7
sg103
I11
sg104
I4
sg105
I11
sg102
I11
sg107
I10
sg108
I8
sg109
I8
sg110
I4
sg111
I9
sg112
I5
ssg233
I0
sS'caracs_saison_12'
p340
(dp341
sg235
I0
sg234
S'SN 12'
p342
sg236
I0
sg237
I0
sg238
I6
sg239
I6
sg240
I0
sg241
S'HE'
p343
sbsS'drop3'
p344
(ijoueur
joueur
p345
(dp346
g27
F10.46875
sg28
I1
sg29
F10.4375
sg30
g31
sg32
I12
sg33
F63.03058922098782
sg34
I0
sg35
g36
(g37
g38
Ntp347
Rp348
(dp349
g42
I4
sg43
S'*'
p350
sg45
S'heros'
p351
sbsg47
(dp352
S'SR'
p353
I0
sS'CT'
p354
I1
sS'CR'
p355
I0
sS'ST'
p356
I0
ssg53
(dp357
g353
I0
sg354
I0
sg355
I0
sg356
I0
ssg55
I0
sg56
(dp358
g58
I0
sg59
I0
sg60
I0
sg61
I1
ssg62
I0
sg63
I0
sS'transformations'
p359
I7
sS'penalites'
p360
I10
sg65
I0
sg66
I0
sg67
I0
sg68
(S'dummy'
p361
S'C1'
p362
S'DO'
p363
S'AR'
p364
tp365
sg72
I00
sg73
g36
(g37
g38
Ntp366
Rp367
(dp368
g42
I5
sg43
S'**'
p369
sg45
S'seigneur'
p370
sbsg79
(dp371
g58
I0
sg59
I0
sg60
I0
sg61
I5
ssg81
I00
sg82
(dp372
g58
I0
sg59
I0
sg60
I0
sg61
I0
ssg84
(dp373
g353
I0
sg354
I31
sg355
I0
sg356
I11
ssg86
I51
sg87
I0
sg88
S'Drumakar'
p374
sg90
I4
sg91
I28
sg92
I15
sg93
I208
sg94
g95
sg96
(dp375
S'A'
p376
I7
sS'ME'
p377
I7
sS'RP2'
p378
I7
sS'E'
p379
I11
sS'TO'
p380
I4
sS'RP1'
p381
I9
sS'JP'
p382
I10
sS'RP_tot'
p383
I9
sS'P'
p384
I11
sS'PA'
p385
I11
sS'M'
p386
I9
sS'R'
p387
I7
sS'TB'
p388
I11
sS'PL'
p389
I9
sS'TA'
p390
I4
ssg113
(dp391
g115
(ijoueur
joueur
p392
(dp393
g27
F10.46875
sg28
I1
sg30
g31
sg32
I10
sg34
I0
sg35
g36
(g37
g38
Ntp394
Rp395
(dp396
g42
I4
sg43
S'*'
p397
sg45
S'heros'
p398
sbsg47
(dp399
S'SR'
p400
I0
sS'CT'
p401
I0
sS'CR'
p402
I0
sS'ST'
p403
I0
ssg53
(dp404
g400
I0
sg401
I0
sg402
I0
sg403
I0
ssg62
I0
sg129
F10.4375
sg63
I1
sg359
I7
sg360
I10
sg65
I1
sg66
I0
sg67
I18
sg68
(S'dummy'
p405
S'C1'
p406
S'DO'
p407
S'AR'
p408
tp409
sg72
I00
sg73
g36
(g37
g38
Ntp410
Rp411
(dp412
g42
I5
sg43
S'**'
p413
sg45
S'seigneur'
p414
sbsg79
(dp415
S'SR'
p416
I0
sS'ST'
p417
I6
sS'CR'
p418
I0
sS'CT'
p419
I13
ssg81
I00
sg82
(dp420
g416
I0
sg417
I0
sg418
I0
sg419
I0
ssg84
(dp421
g400
I0
sg401
I26
sg402
I0
sg403
I11
ssg86
I51
sg87
I24
sg88
S'Drumakar'
p422
sg90
I4
sg91
I28
sg92
I15
sg93
I208
sg94
g146
sg96
(dp423
S'A'
p424
I8
sS'ME'
p425
I7
sS'RP2'
p426
I9
sS'E'
p427
I12
sS'P'
p428
I11
sS'RP1'
p429
I10
sS'JP'
p430
I10
sS'RP_tot'
p431
I12
sS'TO'
p432
I4
sS'PA'
p433
I11
sS'M'
p434
I10
sS'R'
p435
I8
sS'TB'
p436
I12
sS'PL'
p437
I10
sS'TA'
p438
I4
ssg113
(dp439
g164
(ijoueur
joueur
p440
(dp441
g28
I0
sg32
I8
sg34
I0
sg35
g36
(g37
g38
Ntp442
Rp443
(dp444
g42
I4
sg43
S'*'
p445
sg45
S'heros'
p446
sbsg47
(dp447
S'SR'
p448
I0
sS'CT'
p449
I0
sS'CR'
p450
I0
sS'ST'
p451
I0
ssg53
(dp452
g448
I0
sg449
I0
sg450
I0
sg451
I0
ssg56
(dp453
g448
I0
sg449
I0
sg450
I0
sg451
I0
ssg62
I0
sg63
I0
sg359
I7
sg360
I10
sg65
I0
sg66
I0
sg67
I7
sg68
(S'dummy'
p454
S'C1'
p455
S'DO'
p456
S'AR'
p457
tp458
sg72
I00
sg73
g36
(g37
g38
Ntp459
Rp460
(dp461
g42
I5
sg43
S'**'
p462
sg45
S'seigneur'
p463
sbsg79
(dp464
g448
I0
sg449
I13
sg450
I0
sg451
I5
ssg81
I00
sg82
(dp465
g448
I0
sg449
I0
sg450
I0
sg451
I0
ssg84
(dp466
g448
I0
sg449
I13
sg450
I0
sg451
I5
ssg86
I27
sg87
I17
sg88
S'Drumakar'
p467
sg90
I4
sg91
I10
sg92
I15
sg93
I208
sg94
S'DKF'
p468
sg96
(dp469
S'A'
p470
I8
sS'ME'
p471
I7
sS'RP2'
p472
I9
sS'E'
p473
I12
sS'P'
p474
I11
sS'RP1'
p475
I10
sS'JP'
p476
I10
sS'RP_tot'
p477
I12
sS'TO'
p478
I4
sS'PA'
p479
I10
sS'M'
p480
I10
sS'R'
p481
I8
sS'TB'
p482
I12
sS'PL'
p483
I11
sS'TA'
p484
I4
ssg208
I0
sg209
I0
sg210
I1
sg211
I0
sg129
F10.46875
sg212
I0
sS'drops'
p485
I6
sg213
I1
sg214
I1
sg215
(dp486
S'A'
p487
I8
sS'ME'
p488
I7
sS'RP2'
p489
I9
sS'E'
p490
I12
sS'P'
p491
I11
sS'RP1'
p492
I10
sS'JP'
p493
I10
sS'RP_tot'
p494
I12
sS'TO'
p495
I4
sS'PA'
p496
I10
sS'M'
p497
I10
sS'R'
p498
I8
sS'TB'
p499
I12
sS'PL'
p500
I11
sS'TA'
p501
I4
ssg232
g469
sg233
I0
sg234
S'KAK 10'
p502
sg235
I2
sg236
I2
sg237
I1
sg238
I19
sg239
I9
sg240
I1
sg241
S'N'
p503
sbssg208
I8
sg209
I1
sg210
I1
sg211
I0
sg56
(dp504
g416
I0
sg417
I0
sg418
I0
sg419
I0
ssg212
I0
sg485
I6
sg213
I0
sg214
I1
sg215
(dp505
S'A'
p506
I8
sS'ME'
p507
I7
sS'RP2'
p508
I9
sS'E'
p509
I12
sS'P'
p510
I11
sS'RP1'
p511
I10
sS'JP'
p512
I10
sS'RP_tot'
p513
I12
sS'TO'
p514
I4
sS'PA'
p515
I10
sS'M'
p516
I10
sS'R'
p517
I8
sS'TB'
p518
I12
sS'PL'
p519
I11
sS'TA'
p520
I4
ssg232
g423
sg233
I1
sg234
S'KAK 10'
p521
sg235
I2
sg236
I2
sg237
I0
sg238
I19
sg239
I10
sg240
I0
sg241
S'N'
p522
sbsg262
(ijoueur
joueur
p523
(dp524
g28
I0
sg32
I8
sg34
I0
sg35
g36
(g37
g38
Ntp525
Rp526
(dp527
g42
I4
sg43
S'*'
p528
sg45
S'heros'
p529
sbsg47
(dp530
S'SR'
p531
I0
sS'CT'
p532
I0
sS'CR'
p533
I0
sS'ST'
p534
I0
ssg53
(dp535
g531
I0
sg532
I0
sg533
I0
sg534
I0
ssg56
(dp536
g531
I0
sg532
I0
sg533
I0
sg534
I0
ssg62
I0
sg63
I0
sg359
I7
sg360
I10
sg65
I0
sg66
I0
sg67
I7
sg68
(S'dummy'
p537
S'C1'
p538
S'DO'
p539
S'AR'
p540
tp541
sg72
I00
sg73
g36
(g37
g38
Ntp542
Rp543
(dp544
g42
I5
sg43
S'**'
p545
sg45
S'seigneur'
p546
sbsg79
(dp547
g531
I0
sg532
I13
sg533
I0
sg534
I5
ssg81
I00
sg82
(dp548
g531
I0
sg532
I0
sg533
I0
sg534
I0
ssg84
(dp549
g531
I0
sg532
I13
sg533
I0
sg534
I5
ssg86
I27
sg87
I17
sg88
S'Drumakar'
p550
sg90
I4
sg91
I10
sg92
I15
sg93
I208
sg94
S'DKF'
p551
sg96
(dp552
S'A'
p553
I8
sS'ME'
p554
I7
sS'RP2'
p555
I9
sS'E'
p556
I12
sS'P'
p557
I11
sS'RP1'
p558
I10
sS'JP'
p559
I10
sS'RP_tot'
p560
I12
sS'TO'
p561
I4
sS'PA'
p562
I10
sS'M'
p563
I10
sS'R'
p564
I8
sS'TB'
p565
I12
sS'PL'
p566
I11
sS'TA'
p567
I4
ssg208
I0
sg209
I0
sg210
I1
sg211
I0
sg129
F10.46875
sg212
I0
sg485
I6
sg213
I1
sg214
I1
sg215
(dp568
S'A'
p569
I8
sS'ME'
p570
I7
sS'RP2'
p571
I9
sS'E'
p572
I12
sS'P'
p573
I11
sS'RP1'
p574
I10
sS'JP'
p575
I10
sS'RP_tot'
p576
I12
sS'TO'
p577
I4
sS'PA'
p578
I10
sS'M'
p579
I10
sS'R'
p580
I8
sS'TB'
p581
I12
sS'PL'
p582
I11
sS'TA'
p583
I4
ssg232
g552
sg233
I0
sg234
S'KAK 10'
p584
sg235
I2
sg236
I2
sg237
I1
sg238
I19
sg239
I9
sg240
I1
sg241
S'N'
p585
sbssg208
I8
sg209
I1
sg210
I1
sg211
I0
sg129
F9.78125
sg212
I0
sg64
F63.03058922098782
sg485
I6
sg213
I0
sg214
I2
sg215
(dp586
S'A'
p587
I8
sS'ME'
p588
I7
sS'RP2'
p589
I9
sS'E'
p590
I12
sS'P'
p591
I11
sS'RP1'
p592
I10
sS'JP'
p593
I10
sS'RP_tot'
p594
I12
sS'TO'
p595
I4
sS'PA'
p596
I10
sS'M'
p597
I10
sS'R'
p598
I8
sS'TB'
p599
I12
sS'PL'
p600
I11
sS'TA'
p601
I4
ssg232
(dp602
g376
I8
sg377
I7
sg378
I7
sg379
I11
sg384
I11
sg381
I9
sg382
I10
sg383
I9
sg380
I4
sg385
I11
sg386
I9
sg387
I8
sg388
I11
sg389
I10
sg390
I4
ssg233
I0
sg340
(dp603
sg235
I2
sg234
S'KAK 10'
p604
sg236
I2
sg237
I0
sg238
I19
sg239
I10
sg240
I1
sg241
S'N'
p605
sbsS'cap'
p606
(ijoueur
joueur
p607
(dp608
g27
F10.606060606060606
sg28
I1
sg29
F11.82857142857143
sg30
g31
sg32
I7
sg33
F63.66143871754078
sg34
I0
sg35
g36
(g37
g38
Ntp609
Rp610
(dp611
g42
I4
sg43
S'*'
p612
sg45
g351
sbsg47
(dp613
S'SR'
p614
I0
sS'ST'
p615
I0
sS'CR'
p616
I0
sS'CT'
p617
I0
ssg53
(dp618
g614
I0
sg615
I0
sg616
I0
sg617
I0
ssg55
I0
sg56
(dp619
g58
I0
sg59
I0
sg60
I0
sg61
I0
ssg62
I2
sg63
I0
sg359
I1
sg360
I3
sg65
I0
sg66
I1
sg67
I5
sg68
(g361
S'DO'
p620
g31
g31
tp621
sg72
I00
sg73
g36
(g37
g38
Ntp622
Rp623
(dp624
g42
I5
sg43
S'**'
p625
sg45
S'seigneur'
p626
sbsg79
(dp627
g58
I0
sg59
I0
sg60
I0
sg61
I6
ssg81
I00
sg82
(dp628
g58
I0
sg59
I0
sg60
I0
sg61
I0
ssg84
(dp629
g614
I0
sg615
I0
sg616
I0
sg617
I32
ssg86
I32
sg87
I17
sg88
S'Flolar'
p630
sg90
I7
sg91
I5
sg92
I15
sg93
I215
sg94
g95
sg96
(dp631
S'A'
p632
I13
sS'ME'
p633
I5
sS'RP2'
p634
I9
sS'E'
p635
I13
sS'P'
p636
I14
sS'RP1'
p637
I7
sS'JP'
p638
I14
sS'RP_tot'
p639
I9
sS'TO'
p640
I8
sS'PA'
p641
I12
sS'M'
p642
I9
sS'R'
p643
I9
sS'TB'
p644
I11
sS'PL'
p645
I11
sS'TA'
p646
I5
ssg113
(dp647
g115
(ijoueur
joueur
p648
(dp649
g27
F10.606060606060606
sg28
I1
sg30
g31
sg32
I5
sg34
I0
sg35
g36
(g37
g38
Ntp650
Rp651
(dp652
g42
I4
sg43
S'*'
p653
sg45
g398
sbsg47
(dp654
S'SR'
p655
I0
sS'ST'
p656
I0
sS'CR'
p657
I0
sS'CT'
p658
I0
ssg53
(dp659
g655
I0
sg656
I0
sg657
I0
sg658
I0
ssg62
I2
sg129
F11.82857142857143
sg63
I0
sg359
I1
sg360
I3
sg65
I0
sg66
I0
sg67
I0
sg68
(g405
S'DO'
p660
g31
g31
tp661
sg72
I00
sg73
g36
(g37
g38
Ntp662
Rp663
(dp664
g42
I5
sg43
S'**'
p665
sg45
S'seigneur'
p666
sbsg79
(dp667
g416
I0
sg417
I0
sg418
I0
sg419
I12
ssg81
I00
sg82
(dp668
g416
I0
sg417
I0
sg418
I0
sg419
I0
ssg84
(dp669
g655
I0
sg656
I0
sg657
I0
sg658
I26
ssg86
I15
sg87
I7
sg88
S'Flolar'
p670
sg90
I7
sg91
I0
sg92
I15
sg93
I215
sg94
g146
sg96
(dp671
S'A'
p672
I12
sS'ME'
p673
I5
sS'RP2'
p674
I9
sS'E'
p675
I13
sS'TO'
p676
I8
sS'RP1'
p677
I7
sS'JP'
p678
I13
sS'RP_tot'
p679
I9
sS'P'
p680
I14
sS'PA'
p681
I12
sS'M'
p682
I9
sS'R'
p683
I9
sS'TB'
p684
I12
sS'PL'
p685
I11
sS'TA'
p686
I5
ssg113
(dp687
g164
(ijoueur
joueur
p688
(dp689
g28
I0
sg32
I3
sg34
I0
sg35
g36
(g37
g38
Ntp690
Rp691
(dp692
g42
I4
sg43
S'*'
p693
sg45
S'heros'
p694
sbsg47
(dp695
S'SR'
p696
I0
sS'ST'
p697
I0
sS'CR'
p698
I0
sS'CT'
p699
I0
ssg53
(dp700
g696
I0
sg697
I0
sg698
I0
sg699
I0
ssg56
(dp701
g696
I0
sg697
I0
sg698
I0
sg699
I0
ssg62
I2
sg63
I2
sg359
I1
sg360
I3
sg65
I0
sg66
I3
sg67
I0
sg68
(S'dummy'
p702
S'DO'
p703
g31
g31
tp704
sg72
I00
sg73
g36
(g37
g38
Ntp705
Rp706
(dp707
g42
I4
sg43
g693
sg45
g694
sbsg79
(dp708
g696
I0
sg697
I0
sg698
I0
sg699
I14
ssg81
I00
sg82
(dp709
g696
I0
sg697
I0
sg698
I0
sg699
I0
ssg84
(dp710
g696
I0
sg697
I0
sg698
I0
sg699
I14
ssg86
I8
sg87
I6
sg88
S'Flolar'
p711
sg90
I7
sg91
I0
sg92
I15
sg93
I150
sg94
S'DKF'
p712
sg96
(dp713
S'A'
p714
I11
sS'ME'
p715
I5
sS'RP2'
p716
I8
sS'E'
p717
I12
sS'TO'
p718
I7
sS'RP1'
p719
I7
sS'JP'
p720
I10
sS'RP_tot'
p721
I8
sS'P'
p722
I13
sS'PA'
p723
I11
sS'M'
p724
I9
sS'R'
p725
I8
sS'TB'
p726
I10
sS'PL'
p727
I10
sS'TA'
p728
I5
ssg208
I0
sg209
I0
sg210
I0
sg211
I0
sg129
F10.606060606060606
sg212
I3
sg485
I1
sg213
I0
sg214
I3
sg215
(dp729
S'A'
p730
I11
sS'ME'
p731
I5
sS'RP2'
p732
I8
sS'E'
p733
I12
sS'TO'
p734
I7
sS'RP1'
p735
I7
sS'JP'
p736
I10
sS'RP_tot'
p737
I8
sS'P'
p738
I13
sS'PA'
p739
I11
sS'M'
p740
I9
sS'R'
p741
I8
sS'TB'
p742
I10
sS'PL'
p743
I10
sS'TA'
p744
I5
ssg232
g713
sg233
I0
sg234
S'KAK 11'
p745
sg235
I0
sg236
I2
sg237
I0
sg238
I30
sg239
I6
sg240
I3
sg241
S'ES'
p746
sbssg208
I0
sg209
I0
sg210
I0
sg211
I0
sg56
(dp747
g416
I0
sg417
I0
sg418
I0
sg419
I0
ssg212
I3
sg485
I1
sg213
I0
sg214
I3
sg215
(dp748
S'A'
p749
I11
sS'ME'
p750
I5
sS'RP2'
p751
I8
sS'E'
p752
I12
sS'TO'
p753
I7
sS'RP1'
p754
I7
sS'JP'
p755
I10
sS'RP_tot'
p756
I8
sS'P'
p757
I13
sS'PA'
p758
I11
sS'M'
p759
I9
sS'R'
p760
I8
sS'TB'
p761
I10
sS'PL'
p762
I10
sS'TA'
p763
I5
ssg232
g671
sg233
I1
sg234
S'KAK 11'
p764
sg235
I0
sg236
I2
sg237
I0
sg238
I36
sg239
I6
sg240
I0
sg241
S'ES'
p765
sbsg262
(ijoueur
joueur
p766
(dp767
g28
I0
sg32
I3
sg34
I0
sg35
g36
(g37
g38
Ntp768
Rp769
(dp770
g42
I4
sg43
S'*'
p771
sg45
S'heros'
p772
sbsg47
(dp773
S'SR'
p774
I0
sS'ST'
p775
I0
sS'CR'
p776
I0
sS'CT'
p777
I0
ssg53
(dp778
g774
I0
sg775
I0
sg776
I0
sg777
I0
ssg56
(dp779
g774
I0
sg775
I0
sg776
I0
sg777
I0
ssg62
I2
sg63
I2
sg359
I1
sg360
I3
sg65
I0
sg66
I3
sg67
I0
sg68
(S'dummy'
p780
S'DO'
p781
g31
g31
tp782
sg72
I00
sg73
g36
(g37
g38
Ntp783
Rp784
(dp785
g42
I4
sg43
g771
sg45
g772
sbsg79
(dp786
g774
I0
sg775
I0
sg776
I0
sg777
I14
ssg81
I00
sg82
(dp787
g774
I0
sg775
I0
sg776
I0
sg777
I0
ssg84
(dp788
g774
I0
sg775
I0
sg776
I0
sg777
I14
ssg86
I8
sg87
I6
sg88
S'Flolar'
p789
sg90
I7
sg91
I0
sg92
I15
sg93
I150
sg94
S'DKF'
p790
sg96
(dp791
S'A'
p792
I11
sS'ME'
p793
I5
sS'RP2'
p794
I8
sS'E'
p795
I12
sS'TO'
p796
I7
sS'RP1'
p797
I7
sS'JP'
p798
I10
sS'RP_tot'
p799
I8
sS'P'
p800
I13
sS'PA'
p801
I11
sS'M'
p802
I9
sS'R'
p803
I8
sS'TB'
p804
I10
sS'PL'
p805
I10
sS'TA'
p806
I5
ssg208
I0
sg209
I0
sg210
I0
sg211
I0
sg129
F10.606060606060606
sg212
I3
sg485
I1
sg213
I0
sg214
I3
sg215
(dp807
S'A'
p808
I11
sS'ME'
p809
I5
sS'RP2'
p810
I8
sS'E'
p811
I12
sS'TO'
p812
I7
sS'RP1'
p813
I7
sS'JP'
p814
I10
sS'RP_tot'
p815
I8
sS'P'
p816
I13
sS'PA'
p817
I11
sS'M'
p818
I9
sS'R'
p819
I8
sS'TB'
p820
I10
sS'PL'
p821
I10
sS'TA'
p822
I5
ssg232
g791
sg233
I0
sg234
S'KAK 11'
p823
sg235
I0
sg236
I2
sg237
I0
sg238
I30
sg239
I6
sg240
I3
sg241
S'ES'
p824
sbssg208
I5
sg209
I0
sg210
I0
sg211
I0
sg129
F12.06060606060606
sg212
I4
sg64
F63.66143871754078
sg485
I1
sg213
I0
sg214
I3
sg215
(dp825
S'A'
p826
I11
sS'ME'
p827
I5
sS'RP2'
p828
I8
sS'E'
p829
I12
sS'TO'
p830
I7
sS'RP1'
p831
I7
sS'JP'
p832
I10
sS'RP_tot'
p833
I8
sS'P'
p834
I13
sS'PA'
p835
I11
sS'M'
p836
I9
sS'R'
p837
I8
sS'TB'
p838
I10
sS'PL'
p839
I10
sS'TA'
p840
I5
ssg232
(dp841
g632
I13
sg633
I5
sg634
I9
sg635
I13
sg640
I8
sg637
I7
sg638
I14
sg639
I9
sg636
I14
sg641
I12
sg642
I9
sg643
I9
sg644
I11
sg645
I11
sg646
I5
ssg233
I0
sg340
(dp842
sg235
I1
sg234
S'KAK 11'
p843
sg236
I2
sg237
I1
sg238
I36
sg239
I6
sg240
I0
sg241
S'ES'
p844
sbsS'B4'
p845
g607
sS'RJC'
p846
g607
sS'B1'
p847
g607
sS'B2'
p848
g607
sS'B3'
p849
g607
sS'SA_pcp2'
p850
(ijoueur
joueur
p851
(dp852
g27
F8.275862068965518
sg28
I1
sg29
F9.551724137931034
sg30
g31
sg32
I0
sg33
F63.03058922098782
sg34
I0
sg35
g36
(g37
g38
Ntp853
Rp854
(dp855
g42
I5
sg43
S'xx'
p856
sg45
g370
sbsg47
(dp857
g614
I0
sg615
I0
sg616
I1
sg617
I11
ssg53
(dp858
g614
I8
sg615
I0
sg616
I0
sg617
I17
ssg55
I0
sg56
(dp859
g58
I0
sg59
I0
sg60
I0
sg61
I0
ssg62
I0
sg63
I0
sg359
I0
sg360
I0
sg65
I1
sg66
I0
sg67
I0
sg68
(g361
S'N8'
p860
S'DL'
p861
S'PI'
p862
tp863
sg72
I00
sg73
g854
sg79
(dp864
g58
I0
sg59
I0
sg60
I0
sg61
I0
ssg81
I00
sg82
(dp865
g58
I0
sg59
I0
sg60
I0
sg61
I6
ssg84
(dp866
g614
I0
sg615
I0
sg616
I1
sg617
I2
ssg86
I0
sg87
I0
sg88
S'Lyogar'
p867
sg90
I11
sg91
I0
sg92
I26
sg93
I290
sg94
g95
sg96
(dp868
g632
I9
sg633
I13
sg634
I11
sg635
I11
sg636
I7
sg637
I7
sg638
I6
sg639
I11
sg640
I12
sg641
I10
sg642
I11
sg643
I9
sg644
I8
sg645
I12
sg646
I5
ssg113
(dp869
g115
(ijoueur
joueur
p870
(dp871
g27
F8.275862068965518
sg28
I1
sg30
g31
sg32
I0
sg34
I0
sg35
g36
(g37
g38
Ntp872
Rp873
(dp874
g42
I5
sg43
S'xx'
p875
sg45
g414
sbsg47
(dp876
g655
I0
sg656
I0
sg657
I1
sg658
I11
ssg53
(dp877
g655
I8
sg656
I0
sg657
I0
sg658
I11
ssg62
I0
sg129
F9.551724137931034
sg63
I0
sg359
I0
sg360
I0
sg65
I0
sg66
I0
sg67
I0
sg68
(g405
S'N8'
p878
S'DL'
p879
S'PI'
p880
tp881
sg72
I00
sg73
g36
(g37
g38
Ntp882
Rp883
(dp884
g42
I4
sg43
S'*'
p885
sg45
S'heros'
p886
sbsg79
(dp887
g416
I0
sg417
I0
sg418
I0
sg419
I1
ssg81
I00
sg82
(dp888
g416
I6
sg417
I0
sg418
I0
sg419
I11
ssg84
(dp889
g655
I0
sg656
I0
sg657
I1
sg658
I2
ssg86
I0
sg87
I0
sg88
S'Lyogar'
p890
sg90
I11
sg91
I0
sg92
I26
sg93
I100
sg94
g146
sg96
(dp891
g672
I6
sg673
I12
sg674
I10
sg675
I10
sg676
I8
sg677
I7
sg678
I5
sg679
I10
sg680
I7
sg681
I6
sg682
I9
sg683
I9
sg684
I6
sg685
I11
sg686
I4
ssg113
(dp892
g164
(ijoueur
joueur
p893
(dp894
g28
I0
sg32
I0
sg34
I0
sg35
g36
(g37
g38
Ntp895
Rp896
(dp897
g42
I5
sg43
S'xx'
p898
sg45
S'seigneur'
p899
sbsg47
(dp900
S'SR'
p901
I0
sS'ST'
p902
I0
sS'CR'
p903
I1
sS'CT'
p904
I11
ssg53
(dp905
g901
I1
sg902
I0
sg903
I0
sg904
I0
ssg56
(dp906
g901
I0
sg902
I0
sg903
I1
sg904
I11
ssg62
I0
sg63
I0
sg359
I0
sg360
I0
sg65
I0
sg66
I0
sg67
I0
sg68
(S'dummy'
p907
S'N8'
p908
S'DL'
p909
S'PI'
p910
tp911
sg72
I00
sg73
g36
(g37
g38
Ntp912
Rp913
(dp914
g42
I1
sg43
S'^'
p915
sg45
S'base'
p916
sbsg79
(dp917
g901
I0
sg902
I0
sg903
I1
sg904
I1
ssg81
I00
sg82
(dp918
g901
I1
sg902
I0
sg903
I0
sg904
I0
ssg84
(dp919
g901
I0
sg902
I0
sg903
I1
sg904
I1
ssg86
I0
sg87
I0
sg88
S'Lyogar'
p920
sg90
I11
sg91
I0
sg92
I26
sg93
I50
sg94
S'DKF'
p921
sg96
(dp922
S'A'
p923
I6
sS'ME'
p924
I10
sS'RP2'
p925
I6
sS'E'
p926
I10
sS'TO'
p927
I8
sS'RP1'
p928
I6
sS'JP'
p929
I3
sS'RP_tot'
p930
I6
sS'P'
p931
I5
sS'PA'
p932
I6
sS'M'
p933
I8
sS'R'
p934
I9
sS'TB'
p935
I4
sS'PL'
p936
I9
sS'TA'
p937
I3
ssg208
I0
sg209
I0
sg210
I0
sg211
I0
sg129
F8.275862068965518
sg212
I0
sg485
I0
sg213
I0
sg214
I0
sg215
(dp938
S'A'
p939
I6
sS'ME'
p940
I10
sS'RP2'
p941
I6
sS'E'
p942
I10
sS'TO'
p943
I8
sS'RP1'
p944
I6
sS'JP'
p945
I3
sS'RP_tot'
p946
I6
sS'P'
p947
I5
sS'PA'
p948
I6
sS'M'
p949
I8
sS'R'
p950
I9
sS'TB'
p951
I4
sS'PL'
p952
I9
sS'TA'
p953
I3
ssg232
g922
sg233
I0
sg234
g31
sg235
I0
sg236
I0
sg237
I0
sg238
I4
sg239
I0
sg240
I0
sg241
S'CV'
p954
sbssg208
I0
sg209
I0
sg210
I0
sg211
I0
sg56
(dp955
g416
I0
sg417
I0
sg418
I0
sg419
I0
ssg212
I0
sg485
I0
sg213
I0
sg214
I0
sg215
(dp956
g749
I6
sg750
I10
sg751
I6
sg752
I10
sg753
I8
sg754
I6
sg755
I3
sg756
I6
sg757
I5
sg758
I6
sg759
I8
sg760
I9
sg761
I4
sg762
I9
sg763
I3
ssg232
g891
sg233
I1
sg234
g31
sg235
I0
sg236
I0
sg237
I0
sg238
I9
sg239
I0
sg240
I0
sg241
S'CV'
p957
sbsg262
(ijoueur
joueur
p958
(dp959
g28
I0
sg32
I0
sg34
I0
sg35
g36
(g37
g38
Ntp960
Rp961
(dp962
g42
I5
sg43
S'xx'
p963
sg45
S'seigneur'
p964
sbsg47
(dp965
S'SR'
p966
I0
sS'ST'
p967
I0
sS'CR'
p968
I1
sS'CT'
p969
I11
ssg53
(dp970
g966
I1
sg967
I0
sg968
I0
sg969
I0
ssg56
(dp971
g966
I0
sg967
I0
sg968
I1
sg969
I11
ssg62
I0
sg63
I0
sg359
I0
sg360
I0
sg65
I0
sg66
I0
sg67
I0
sg68
(S'dummy'
p972
S'N8'
p973
S'DL'
p974
S'PI'
p975
tp976
sg72
I00
sg73
g36
(g37
g38
Ntp977
Rp978
(dp979
g42
I1
sg43
S'^'
p980
sg45
S'base'
p981
sbsg79
(dp982
g966
I0
sg967
I0
sg968
I1
sg969
I1
ssg81
I00
sg82
(dp983
g966
I1
sg967
I0
sg968
I0
sg969
I0
ssg84
(dp984
g966
I0
sg967
I0
sg968
I1
sg969
I1
ssg86
I0
sg87
I0
sg88
S'Lyogar'
p985
sg90
I11
sg91
I0
sg92
I26
sg93
I50
sg94
S'DKF'
p986
sg96
(dp987
S'A'
p988
I6
sS'ME'
p989
I10
sS'RP2'
p990
I6
sS'E'
p991
I10
sS'TO'
p992
I8
sS'RP1'
p993
I6
sS'JP'
p994
I3
sS'RP_tot'
p995
I6
sS'P'
p996
I5
sS'PA'
p997
I6
sS'M'
p998
I8
sS'R'
p999
I9
sS'TB'
p1000
I4
sS'PL'
p1001
I9
sS'TA'
p1002
I3
ssg208
I0
sg209
I0
sg210
I0
sg211
I0
sg129
F8.275862068965518
sg212
I0
sg485
I0
sg213
I0
sg214
I0
sg215
(dp1003
S'A'
p1004
I6
sS'ME'
p1005
I10
sS'RP2'
p1006
I6
sS'E'
p1007
I10
sS'TO'
p1008
I8
sS'RP1'
p1009
I6
sS'JP'
p1010
I3
sS'RP_tot'
p1011
I6
sS'P'
p1012
I5
sS'PA'
p1013
I6
sS'M'
p1014
I8
sS'R'
p1015
I9
sS'TB'
p1016
I4
sS'PL'
p1017
I9
sS'TA'
p1018
I3
ssg232
g987
sg233
I0
sg234
g31
sg235
I0
sg236
I0
sg237
I0
sg238
I4
sg239
I0
sg240
I0
sg241
S'CV'
p1019
sbssg208
I10
sg209
I0
sg210
I0
sg211
I0
sg129
F11.333333333333334
sg212
I0
sg64
F63.03058922098782
sg485
I0
sg213
I0
sg214
I0
sg215
(dp1020
g826
I6
sg827
I10
sg828
I6
sg829
I10
sg830
I8
sg831
I6
sg832
I3
sg833
I6
sg834
I5
sg835
I6
sg836
I8
sg837
I9
sg838
I4
sg839
I9
sg840
I3
ssg232
(dp1021
g632
I10
sg633
I13
sg634
I11
sg635
I11
sg640
I12
sg637
I7
sg638
I6
sg639
I11
sg636
I7
sg641
I10
sg642
I11
sg643
I10
sg644
I8
sg645
I13
sg646
I5
ssg233
I0
sg340
(dp1022
sg235
I0
sg234
g31
sg236
I0
sg237
I0
sg238
I28
sg239
I1
sg240
I0
sg241
S'CV'
p1023
sbsS'SA_pcp1'
p1024
(ijoueur
joueur
p1025
(dp1026
g27
F8.323529411764707
sg28
I1
sg29
F10.735294117647058
sg30
g31
sg32
I0
sg33
F63.66143871754078
sg34
I0
sg35
g36
(g37
g38
Ntp1027
Rp1028
(dp1029
g42
I4
sg43
S'x'
p1030
sg45
g351
sbsg47
(dp1031
S'SR'
p1032
I0
sS'CT'
p1033
I5
sS'CR'
p1034
I7
sS'ST'
p1035
I0
ssg53
(dp1036
g1032
I0
sg1033
I0
sg1034
I0
sg1035
I0
ssg55
I0
sg56
(dp1037
g58
I0
sg59
I0
sg60
I0
sg61
I0
ssg62
I0
sg63
I0
sg359
I0
sg360
I0
sg65
I0
sg66
I0
sg67
I0
sg68
(g361
S'DL'
p1038
S'TL'
p1039
g31
tp1040
sg72
I00
sg73
g1028
sg79
(dp1041
g58
I0
sg59
I0
sg60
I0
sg61
I6
ssg81
I00
sg82
(dp1042
g58
I0
sg59
I0
sg60
I0
sg61
I0
ssg84
(dp1043
g1032
I0
sg1033
I18
sg1034
I2
sg1035
I7
ssg86
I0
sg87
I0
sg88
S'Cartayd'
p1044
sg90
I11
sg91
I0
sg92
I21
sg93
I101
sg94
g95
sg96
(dp1045
S'A'
p1046
I10
sS'ME'
p1047
I13
sS'RP2'
p1048
I8
sS'E'
p1049
I9
sS'TO'
p1050
I14
sS'RP1'
p1051
I12
sS'JP'
p1052
I6
sS'RP_tot'
p1053
I13
sS'P'
p1054
I6
sS'PA'
p1055
I11
sS'M'
p1056
I12
sS'R'
p1057
I9
sS'TB'
p1058
I3
sS'PL'
p1059
I10
sS'TA'
p1060
I4
ssg113
(dp1061
g115
(ijoueur
joueur
p1062
(dp1063
g27
F8.323529411764707
sg28
I1
sg30
g31
sg32
I0
sg34
I0
sg35
g36
(g37
g38
Ntp1064
Rp1065
(dp1066
g42
I4
sg43
S'x'
p1067
sg45
g398
sbsg47
(dp1068
S'SR'
p1069
I0
sS'CT'
p1070
I5
sS'CR'
p1071
I7
sS'ST'
p1072
I0
ssg53
(dp1073
g1069
I0
sg1070
I0
sg1071
I0
sg1072
I0
ssg62
I0
sg129
F10.735294117647058
sg63
I0
sg359
I0
sg360
I0
sg65
I0
sg66
I0
sg67
I0
sg68
(g405
S'DL'
p1074
S'TL'
p1075
g31
tp1076
sg72
I00
sg73
g1065
sg79
(dp1077
g416
I0
sg417
I6
sg418
I0
sg419
I12
ssg81
I01
sg82
(dp1078
g416
I0
sg417
I0
sg418
I0
sg419
I0
ssg84
(dp1079
g1069
I0
sg1070
I12
sg1071
I2
sg1072
I7
ssg86
I0
sg87
I0
sg88
S'Cartayd'
p1080
sg90
I11
sg91
I0
sg92
I21
sg93
I101
sg94
g146
sg96
(dp1081
S'A'
p1082
I10
sS'ME'
p1083
I12
sS'RP2'
p1084
I8
sS'E'
p1085
I9
sS'P'
p1086
I6
sS'RP1'
p1087
I10
sS'JP'
p1088
I6
sS'RP_tot'
p1089
I11
sS'TO'
p1090
I13
sS'PA'
p1091
I11
sS'M'
p1092
I12
sS'R'
p1093
I9
sS'TB'
p1094
I3
sS'PL'
p1095
I10
sS'TA'
p1096
I4
ssg113
(dp1097
g164
(ijoueur
joueur
p1098
(dp1099
g28
I0
sg32
I0
sg34
I0
sg35
g36
(g37
g38
Ntp1100
Rp1101
(dp1102
g42
I4
sg43
S'x'
p1103
sg45
S'heros'
p1104
sbsg47
(dp1105
S'SR'
p1106
I0
sS'CT'
p1107
I4
sS'CR'
p1108
I7
sS'ST'
p1109
I0
ssg53
(dp1110
g1106
I0
sg1107
I0
sg1108
I0
sg1109
I0
ssg56
(dp1111
g1106
I0
sg1107
I4
sg1108
I7
sg1109
I0
ssg62
I0
sg63
I0
sg359
I0
sg360
I0
sg65
I0
sg66
I0
sg67
I0
sg68
(S'dummy'
p1112
S'DL'
p1113
S'TL'
p1114
g31
tp1115
sg72
I00
sg73
g36
(g37
g38
Ntp1116
Rp1117
(dp1118
g42
I1
sg43
S'^'
p1119
sg45
S'base'
p1120
sbsg79
(dp1121
g1106
I0
sg1107
I0
sg1108
I2
sg1109
I0
ssg81
I00
sg82
(dp1122
g1106
I0
sg1107
I0
sg1108
I0
sg1109
I0
ssg84
(dp1123
g1106
I0
sg1107
I0
sg1108
I2
sg1109
I0
ssg86
I0
sg87
I0
sg88
S'Cartayd'
p1124
sg90
I11
sg91
I0
sg92
I21
sg93
I36
sg94
S'DKF'
p1125
sg96
(dp1126
S'A'
p1127
I8
sS'ME'
p1128
I8
sS'RP2'
p1129
I6
sS'E'
p1130
I9
sS'P'
p1131
I4
sS'RP1'
p1132
I8
sS'JP'
p1133
I4
sS'RP_tot'
p1134
I8
sS'TO'
p1135
I9
sS'PA'
p1136
I8
sS'M'
p1137
I8
sS'R'
p1138
I8
sS'TB'
p1139
I1
sS'PL'
p1140
I8
sS'TA'
p1141
I3
ssg208
I0
sg209
I0
sg210
I0
sg211
I0
sg129
F8.323529411764707
sg212
I0
sg485
I0
sg213
I0
sg214
I0
sg215
(dp1142
S'A'
p1143
I8
sS'ME'
p1144
I8
sS'RP2'
p1145
I6
sS'E'
p1146
I9
sS'P'
p1147
I4
sS'RP1'
p1148
I8
sS'JP'
p1149
I4
sS'RP_tot'
p1150
I8
sS'TO'
p1151
I9
sS'PA'
p1152
I8
sS'M'
p1153
I8
sS'R'
p1154
I8
sS'TB'
p1155
I1
sS'PL'
p1156
I8
sS'TA'
p1157
I3
ssg232
g1126
sg233
I0
sg234
g31
sg235
I0
sg236
I0
sg237
I0
sg238
I3
sg239
I0
sg240
I0
sg241
S'CV'
p1158
sbssg208
I14
sg209
I0
sg210
I0
sg211
I0
sg56
(dp1159
g416
I0
sg417
I0
sg418
I0
sg419
I1
ssg212
I0
sg485
I0
sg213
I0
sg214
I1
sg215
(dp1160
S'A'
p1161
I8
sS'ME'
p1162
I8
sS'RP2'
p1163
I6
sS'E'
p1164
I9
sS'P'
p1165
I4
sS'RP1'
p1166
I8
sS'JP'
p1167
I4
sS'RP_tot'
p1168
I8
sS'TO'
p1169
I9
sS'PA'
p1170
I8
sS'M'
p1171
I8
sS'R'
p1172
I8
sS'TB'
p1173
I1
sS'PL'
p1174
I8
sS'TA'
p1175
I3
ssg232
g1081
sg233
I1
sg234
g31
sg235
I0
sg236
I0
sg237
I0
sg238
I9
sg239
I0
sg240
I1
sg241
S'CV'
p1176
sbsg262
(ijoueur
joueur
p1177
(dp1178
g28
I0
sg32
I0
sg34
I0
sg35
g36
(g37
g38
Ntp1179
Rp1180
(dp1181
g42
I4
sg43
S'x'
p1182
sg45
S'heros'
p1183
sbsg47
(dp1184
S'SR'
p1185
I0
sS'CT'
p1186
I4
sS'CR'
p1187
I7
sS'ST'
p1188
I0
ssg53
(dp1189
g1185
I0
sg1186
I0
sg1187
I0
sg1188
I0
ssg56
(dp1190
g1185
I0
sg1186
I4
sg1187
I7
sg1188
I0
ssg62
I0
sg63
I0
sg359
I0
sg360
I0
sg65
I0
sg66
I0
sg67
I0
sg68
(S'dummy'
p1191
S'DL'
p1192
S'TL'
p1193
g31
tp1194
sg72
I00
sg73
g36
(g37
g38
Ntp1195
Rp1196
(dp1197
g42
I1
sg43
S'^'
p1198
sg45
S'base'
p1199
sbsg79
(dp1200
g1185
I0
sg1186
I0
sg1187
I2
sg1188
I0
ssg81
I00
sg82
(dp1201
g1185
I0
sg1186
I0
sg1187
I0
sg1188
I0
ssg84
(dp1202
g1185
I0
sg1186
I0
sg1187
I2
sg1188
I0
ssg86
I0
sg87
I0
sg88
S'Cartayd'
p1203
sg90
I11
sg91
I0
sg92
I21
sg93
I36
sg94
S'DKF'
p1204
sg96
(dp1205
S'A'
p1206
I8
sS'ME'
p1207
I8
sS'RP2'
p1208
I6
sS'E'
p1209
I9
sS'P'
p1210
I4
sS'RP1'
p1211
I8
sS'JP'
p1212
I4
sS'RP_tot'
p1213
I8
sS'TO'
p1214
I9
sS'PA'
p1215
I8
sS'M'
p1216
I8
sS'R'
p1217
I8
sS'TB'
p1218
I1
sS'PL'
p1219
I8
sS'TA'
p1220
I3
ssg208
I0
sg209
I0
sg210
I0
sg211
I0
sg129
F8.323529411764707
sg212
I0
sg485
I0
sg213
I0
sg214
I0
sg215
(dp1221
S'A'
p1222
I8
sS'ME'
p1223
I8
sS'RP2'
p1224
I6
sS'E'
p1225
I9
sS'P'
p1226
I4
sS'RP1'
p1227
I8
sS'JP'
p1228
I4
sS'RP_tot'
p1229
I8
sS'TO'
p1230
I9
sS'PA'
p1231
I8
sS'M'
p1232
I8
sS'R'
p1233
I8
sS'TB'
p1234
I1
sS'PL'
p1235
I8
sS'TA'
p1236
I3
ssg232
g1205
sg233
I0
sg234
g31
sg235
I0
sg236
I0
sg237
I0
sg238
I3
sg239
I0
sg240
I0
sg241
S'CV'
p1237
sbssg208
I6
sg209
I0
sg210
I0
sg211
I0
sg129
F11.294117647058824
sg212
I0
sg64
F63.66143871754078
sg485
I0
sg213
I0
sg214
I1
sg215
(dp1238
S'A'
p1239
I8
sS'ME'
p1240
I8
sS'RP2'
p1241
I6
sS'E'
p1242
I9
sS'P'
p1243
I4
sS'RP1'
p1244
I8
sS'JP'
p1245
I4
sS'RP_tot'
p1246
I8
sS'TO'
p1247
I9
sS'PA'
p1248
I8
sS'M'
p1249
I8
sS'R'
p1250
I8
sS'TB'
p1251
I1
sS'PL'
p1252
I8
sS'TA'
p1253
I3
ssg232
(dp1254
g1046
I10
sg1047
I13
sg1048
I8
sg1049
I9
sg1054
I6
sg1051
I12
sg1052
I6
sg1053
I13
sg1050
I14
sg1055
I11
sg1056
I12
sg1057
I9
sg1058
I3
sg1059
I10
sg1060
I4
ssg233
I0
sg340
(dp1255
sg235
I0
sg234
g31
sg236
I0
sg237
I0
sg238
I9
sg239
I0
sg240
I0
sg241
S'CV'
p1256
sbsS'RJL'
p1257
g607
sS'SA_remp1'
p1258
(ijoueur
joueur
p1259
(dp1260
g27
F12.03448275862069
sg28
I0
sg29
F11.931034482758621
sg30
g31
sg32
I0
sg33
F63.66143871754078
sg34
I0
sg35
g36
(g37
g38
Ntp1261
Rp1262
(dp1263
g42
I6
sg43
S'***'
p1264
sg45
S'personnage'
p1265
sbsg47
(dp1266
g614
I0
sg615
I0
sg616
I0
sg617
I9
ssg53
(dp1267
g614
I0
sg615
I0
sg616
I0
sg617
I0
ssg55
I0
sg56
(dp1268
g58
I0
sg59
I0
sg60
I0
sg61
I5
ssg62
I0
sg63
I0
sg359
I0
sg360
I0
sg65
I1
sg66
I0
sg67
I0
sg68
(g361
S'N8'
p1269
S'TL'
p1270
g31
tp1271
sg72
I00
sg73
g36
(g37
g38
Ntp1272
Rp1273
(dp1274
g42
I6
sg43
S'***'
p1275
sg45
g1265
sbsg79
(dp1276
g58
I0
sg59
I0
sg60
I0
sg61
I1
ssg81
I00
sg82
(dp1277
g58
I0
sg59
I0
sg60
I0
sg61
I0
ssg84
(dp1278
g614
I0
sg615
I3
sg616
I0
sg617
I24
ssg86
I0
sg87
I0
sg88
S'Crom'
p1279
sg90
I1
sg91
I0
sg92
I9
sg93
I320
sg94
g95
sg96
(dp1280
g632
I13
sg633
I10
sg634
I8
sg635
I11
sg636
I9
sg637
I14
sg638
I3
sg639
I15
sg640
I10
sg641
I10
sg642
I5
sg643
I11
sg644
I4
sg645
I13
sg646
I7
ssg113
(dp1281
g115
(ijoueur
joueur
p1282
(dp1283
g27
F12.03448275862069
sg28
I0
sg30
g31
sg32
I0
sg34
I0
sg35
g36
(g37
g38
Ntp1284
Rp1285
(dp1286
g42
I6
sg43
S'***'
p1287
sg45
S'personnage'
p1288
sbsg47
(dp1289
g655
I0
sg656
I0
sg657
I0
sg658
I4
ssg53
(dp1290
g655
I0
sg656
I0
sg657
I0
sg658
I0
ssg62
I0
sg129
F11.931034482758621
sg63
I0
sg359
I0
sg360
I0
sg65
I1
sg66
I0
sg67
I0
sg68
(g405
S'N8'
p1291
S'TL'
p1292
g31
tp1293
sg72
I00
sg73
g36
(g37
g38
Ntp1294
Rp1295
(dp1296
g42
I6
sg43
S'***'
p1297
sg45
g1288
sbsg79
(dp1298
g416
I0
sg417
I0
sg418
I0
sg419
I9
ssg81
I00
sg82
(dp1299
g416
I0
sg417
I0
sg418
I0
sg419
I0
ssg84
(dp1300
g655
I0
sg656
I3
sg657
I0
sg658
I23
ssg86
I0
sg87
I0
sg88
S'Crom'
p1301
sg90
I1
sg91
I0
sg92
I9
sg93
I320
sg94
g146
sg96
(dp1302
g672
I13
sg673
I10
sg674
I8
sg675
I11
sg676
I10
sg677
I14
sg678
I3
sg679
I15
sg680
I8
sg681
I10
sg682
I6
sg683
I11
sg684
I4
sg685
I13
sg686
I7
ssg113
(dp1303
g164
(ijoueur
joueur
p1304
(dp1305
g28
I0
sg32
I0
sg34
I0
sg35
g36
(g37
g38
Ntp1306
Rp1307
(dp1308
g42
I6
sg43
S'***'
p1309
sg45
S'personnage'
p1310
sbsg47
(dp1311
S'SR'
p1312
I0
sS'ST'
p1313
I0
sS'CR'
p1314
I0
sS'CT'
p1315
I0
ssg53
(dp1316
g1312
I0
sg1313
I0
sg1314
I0
sg1315
I0
ssg56
(dp1317
g1312
I0
sg1313
I0
sg1314
I0
sg1315
I0
ssg62
I0
sg63
I0
sg359
I0
sg360
I0
sg65
I1
sg66
I0
sg67
I0
sg68
(S'dummy'
p1318
S'N8'
p1319
S'TL'
p1320
g31
tp1321
sg72
I00
sg73
g36
(g37
g38
Ntp1322
Rp1323
(dp1324
g42
I6
sg43
S'***'
p1325
sg45
g1310
sbsg79
(dp1326
g1312
I0
sg1313
I3
sg1314
I0
sg1315
I14
ssg81
I01
sg82
(dp1327
g1312
I0
sg1313
I0
sg1314
I0
sg1315
I0
ssg84
(dp1328
g1312
I0
sg1313
I3
sg1314
I0
sg1315
I14
ssg86
I0
sg87
I0
sg88
S'Crom'
p1329
sg90
I1
sg91
I0
sg92
I9
sg93
I320
sg94
S'DKF'
p1330
sg96
(dp1331
S'A'
p1332
I13
sS'ME'
p1333
I11
sS'RP2'
p1334
I8
sS'E'
p1335
I11
sS'TO'
p1336
I11
sS'RP1'
p1337
I14
sS'JP'
p1338
I3
sS'RP_tot'
p1339
I15
sS'P'
p1340
I7
sS'PA'
p1341
I10
sS'M'
p1342
I6
sS'R'
p1343
I11
sS'TB'
p1344
I4
sS'PL'
p1345
I13
sS'TA'
p1346
I7
ssg208
I0
sg209
I0
sg210
I0
sg211
I0
sg129
F12.03448275862069
sg212
I0
sg485
I0
sg213
I0
sg214
I0
sg215
(dp1347
S'A'
p1348
I13
sS'ME'
p1349
I11
sS'RP2'
p1350
I8
sS'E'
p1351
I11
sS'TO'
p1352
I11
sS'RP1'
p1353
I14
sS'JP'
p1354
I3
sS'RP_tot'
p1355
I15
sS'P'
p1356
I7
sS'PA'
p1357
I10
sS'M'
p1358
I6
sS'R'
p1359
I11
sS'TB'
p1360
I4
sS'PL'
p1361
I13
sS'TA'
p1362
I7
ssg232
g1331
sg233
I0
sg234
S'KHR 9'
p1363
sg235
I0
sg236
I0
sg237
I0
sg238
I40
sg239
I21
sg240
I0
sg241
S'CHS'
p1364
sbssg208
I0
sg209
I0
sg210
I0
sg211
I0
sg56
(dp1365
g416
I0
sg417
I0
sg418
I0
sg419
I4
ssg212
I0
sg485
I0
sg213
I0
sg214
I0
sg215
(dp1366
g749
I13
sg750
I11
sg751
I8
sg752
I11
sg753
I11
sg754
I14
sg755
I3
sg756
I15
sg757
I7
sg758
I10
sg759
I6
sg760
I11
sg761
I4
sg762
I13
sg763
I7
ssg232
g1302
sg233
I0
sg234
S'KHR 9'
p1367
sg235
I0
sg236
I0
sg237
I0
sg238
I40
sg239
I22
sg240
I0
sg241
S'CHS'
p1368
sbsg262
(ijoueur
joueur
p1369
(dp1370
g28
I0
sg32
I0
sg34
I0
sg35
g36
(g37
g38
Ntp1371
Rp1372
(dp1373
g42
I6
sg43
S'***'
p1374
sg45
S'personnage'
p1375
sbsg47
(dp1376
S'SR'
p1377
I0
sS'ST'
p1378
I0
sS'CR'
p1379
I0
sS'CT'
p1380
I0
ssg53
(dp1381
g1377
I0
sg1378
I0
sg1379
I0
sg1380
I0
ssg56
(dp1382
g1377
I0
sg1378
I0
sg1379
I0
sg1380
I0
ssg62
I0
sg63
I0
sg359
I0
sg360
I0
sg65
I1
sg66
I0
sg67
I0
sg68
(S'dummy'
p1383
S'N8'
p1384
S'TL'
p1385
g31
tp1386
sg72
I00
sg73
g36
(g37
g38
Ntp1387
Rp1388
(dp1389
g42
I6
sg43
S'***'
p1390
sg45
g1375
sbsg79
(dp1391
g1377
I0
sg1378
I3
sg1379
I0
sg1380
I14
ssg81
I01
sg82
(dp1392
g1377
I0
sg1378
I0
sg1379
I0
sg1380
I0
ssg84
(dp1393
g1377
I0
sg1378
I3
sg1379
I0
sg1380
I14
ssg86
I0
sg87
I0
sg88
S'Crom'
p1394
sg90
I1
sg91
I0
sg92
I9
sg93
I320
sg94
S'DKF'
p1395
sg96
(dp1396
S'A'
p1397
I13
sS'ME'
p1398
I11
sS'RP2'
p1399
I8
sS'E'
p1400
I11
sS'TO'
p1401
I11
sS'RP1'
p1402
I14
sS'JP'
p1403
I3
sS'RP_tot'
p1404
I15
sS'P'
p1405
I7
sS'PA'
p1406
I10
sS'M'
p1407
I6
sS'R'
p1408
I11
sS'TB'
p1409
I4
sS'PL'
p1410
I13
sS'TA'
p1411
I7
ssg208
I0
sg209
I0
sg210
I0
sg211
I0
sg129
F12.03448275862069
sg212
I0
sg485
I0
sg213
I0
sg214
I0
sg215
(dp1412
S'A'
p1413
I13
sS'ME'
p1414
I11
sS'RP2'
p1415
I8
sS'E'
p1416
I11
sS'TO'
p1417
I11
sS'RP1'
p1418
I14
sS'JP'
p1419
I3
sS'RP_tot'
p1420
I15
sS'P'
p1421
I7
sS'PA'
p1422
I10
sS'M'
p1423
I6
sS'R'
p1424
I11
sS'TB'
p1425
I4
sS'PL'
p1426
I13
sS'TA'
p1427
I7
ssg232
g1396
sg233
I0
sg234
S'KHR 9'
p1428
sg235
I0
sg236
I0
sg237
I0
sg238
I40
sg239
I21
sg240
I0
sg241
S'CHS'
p1429
sbssg208
I7
sg209
I0
sg210
I0
sg211
I0
sg129
F11.89655172413793
sg212
I0
sg64
F63.66143871754078
sg485
I0
sg213
I0
sg214
I0
sg215
(dp1430
g826
I13
sg827
I11
sg828
I8
sg829
I11
sg830
I11
sg831
I14
sg832
I3
sg833
I15
sg834
I7
sg835
I10
sg836
I6
sg837
I11
sg838
I4
sg839
I13
sg840
I7
ssg232
(dp1431
g632
I13
sg633
I10
sg634
I8
sg635
I11
sg640
I10
sg637
I14
sg638
I3
sg639
I15
sg636
I9
sg641
I10
sg642
I5
sg643
I11
sg644
I4
sg645
I13
sg646
I7
ssg233
I0
sg340
(dp1432
sg235
I0
sg234
S'KHR 9'
p1433
sg236
I0
sg237
I0
sg238
I40
sg239
I23
sg240
I0
sg241
S'CHS'
p1434
sbsS'drop1'
p1435
g345
sS'drop2'
p1436
(ijoueur
joueur
p1437
(dp1438
g27
F11.233333333333333
sg28
I0
sg29
F11.566666666666666
sg30
g31
sg32
I1
sg33
F63.66143871754078
sg34
I0
sg35
g36
(g37
g38
Ntp1439
Rp1440
(dp1441
g42
I4
sg43
S'*'
p1442
sg45
S'heros'
p1443
sbsg47
(dp1444
S'SR'
p1445
I0
sS'ST'
p1446
I0
sS'CR'
p1447
I0
sS'CT'
p1448
I0
ssg53
(dp1449
g1445
I0
sg1446
I14
sg1447
I0
sg1448
I33
ssg55
I0
sg56
(dp1450
g58
I0
sg59
I0
sg60
I0
sg61
I0
ssg62
I0
sg63
I0
sg359
I0
sg360
I0
sg65
I0
sg66
I0
sg67
I0
sg68
(S'dummy'
p1451
S'C1'
p1452
S'AI'
p1453
S'AR'
p1454
tp1455
sg72
I00
sg73
g36
(g37
g38
Ntp1456
Rp1457
(dp1458
g42
I4
sg43
S'*'
p1459
sg45
g1443
sbsg79
(dp1460
g58
I0
sg59
I0
sg60
I0
sg61
I0
ssg81
I00
sg82
(dp1461
g58
I0
sg59
I0
sg60
I0
sg61
I6
ssg84
(dp1462
g1445
I0
sg1446
I0
sg1447
I0
sg1448
I2
ssg86
I0
sg87
I0
sg88
S'Sdaehir'
p1463
sg90
I7
sg91
I0
sg92
I23
sg93
I200
sg94
g95
sg96
(dp1464
S'A'
p1465
I14
sS'ME'
p1466
I5
sS'RP2'
p1467
I11
sS'E'
p1468
I9
sS'P'
p1469
I12
sS'RP1'
p1470
I9
sS'JP'
p1471
I10
sS'RP_tot'
p1472
I12
sS'TO'
p1473
I8
sS'PA'
p1474
I12
sS'M'
p1475
I10
sS'R'
p1476
I5
sS'TB'
p1477
I9
sS'PL'
p1478
I13
sS'TA'
p1479
I4
ssg113
(dp1480
S's12'
p1481
(ijoueur
joueur
p1482
(dp1483
g27
F11.233333333333333
sg28
I0
sg30
g31
sg32
I0
sg34
I0
sg35
g36
(g37
g38
Ntp1484
Rp1485
(dp1486
g42
I4
sg43
S'*'
p1487
sg45
S'heros'
p1488
sbsg47
(dp1489
S'SR'
p1490
I0
sS'ST'
p1491
I0
sS'CR'
p1492
I0
sS'CT'
p1493
I0
ssg53
(dp1494
g1490
I0
sg1491
I14
sg1492
I0
sg1493
I27
ssg62
I0
sg129
F11.566666666666666
sg63
I0
sg359
I0
sg360
I0
sg65
I4
sg66
I0
sg67
I0
sg68
(S'dummy'
p1495
S'C1'
p1496
S'AI'
p1497
S'AR'
p1498
tp1499
sg72
I01
sg73
g36
(g37
g38
Ntp1500
Rp1501
(dp1502
g42
I4
sg43
S'*'
p1503
sg45
g1488
sbsg79
(dp1504
S'SR'
p1505
I0
sS'CT'
p1506
I2
sS'CR'
p1507
I0
sS'ST'
p1508
I0
ssg81
I01
sg82
(dp1509
g1505
I0
sg1506
I12
sg1507
I0
sg1508
I7
ssg84
(dp1510
g1490
I0
sg1491
I0
sg1492
I0
sg1493
I2
ssg86
I0
sg87
I0
sg88
S'Sdaehir'
p1511
sg90
I7
sg91
I0
sg92
I23
sg93
I64
sg94
S'ALT'
p1512
sg96
(dp1513
S'A'
p1514
I15
sS'ME'
p1515
I5
sS'RP2'
p1516
I11
sS'E'
p1517
I9
sS'TO'
p1518
I8
sS'RP1'
p1519
I9
sS'JP'
p1520
I10
sS'RP_tot'
p1521
I13
sS'P'
p1522
I12
sS'PA'
p1523
I12
sS'M'
p1524
I10
sS'R'
p1525
I6
sS'TB'
p1526
I10
sS'PL'
p1527
I13
sS'TA'
p1528
I4
ssg113
(dp1529
S's11'
p1530
(ijoueur
joueur
p1531
(dp1532
g28
I0
sg32
I0
sg34
I0
sg35
g36
(g37
g38
Ntp1533
Rp1534
(dp1535
g42
I4
sg43
S'*'
p1536
sg45
S'heros'
p1537
sbsg47
(dp1538
S'SR'
p1539
I0
sS'ST'
p1540
I0
sS'CR'
p1541
I0
sS'CT'
p1542
I0
ssg53
(dp1543
g1539
I0
sg1540
I7
sg1541
I0
sg1542
I15
ssg56
(dp1544
g1539
I0
sg1540
I0
sg1541
I0
sg1542
I0
ssg62
I0
sg63
I0
sg359
I0
sg360
I0
sg65
I3
sg66
I0
sg67
I0
sg68
(S'dummy'
p1545
S'C1'
p1546
S'AI'
p1547
S'AR'
p1548
tp1549
sg72
I00
sg73
g36
(g37
g38
Ntp1550
Rp1551
(dp1552
g42
I4
sg43
S'*'
p1553
sg45
g1537
sbsg79
(dp1554
g1539
I0
sg1540
I0
sg1541
I0
sg1542
I0
ssg81
I01
sg82
(dp1555
g1539
I0
sg1540
I7
sg1541
I0
sg1542
I15
ssg84
(dp1556
g1539
I0
sg1540
I0
sg1541
I0
sg1542
I0
ssg86
I0
sg87
I0
sg88
S'Sdaehir'
p1557
sg90
I7
sg91
I0
sg92
I23
sg93
I64
sg94
S'ALT'
p1558
sg96
(dp1559
S'A'
p1560
I13
sS'ME'
p1561
I5
sS'RP2'
p1562
I11
sS'E'
p1563
I9
sS'TO'
p1564
I8
sS'RP1'
p1565
I9
sS'JP'
p1566
I10
sS'RP_tot'
p1567
I13
sS'P'
p1568
I12
sS'PA'
p1569
I12
sS'M'
p1570
I10
sS'R'
p1571
I5
sS'TB'
p1572
I9
sS'PL'
p1573
I13
sS'TA'
p1574
I4
ssg208
I0
sg209
I0
sg210
I0
sg211
I0
sg129
F11.233333333333333
sg212
I0
sg485
I0
sg213
I0
sg214
I0
sg215
(dp1575
S'A'
p1576
I13
sS'ME'
p1577
I5
sS'RP2'
p1578
I11
sS'E'
p1579
I9
sS'TO'
p1580
I8
sS'RP1'
p1581
I9
sS'JP'
p1582
I10
sS'RP_tot'
p1583
I13
sS'P'
p1584
I12
sS'PA'
p1585
I12
sS'M'
p1586
I10
sS'R'
p1587
I5
sS'TB'
p1588
I9
sS'PL'
p1589
I13
sS'TA'
p1590
I4
ssg232
g1559
sg233
I0
sg234
g31
sg235
I0
sg236
I0
sg237
I0
sg238
I6
sg239
I4
sg240
I0
sg241
S'ES'
p1591
sbssg208
I8
sg209
I0
sg210
I0
sg211
I0
sg56
(dp1592
g1505
I0
sg1506
I0
sg1507
I0
sg1508
I0
ssg212
I0
sg485
I0
sg213
I0
sg214
I0
sg215
(dp1593
S'A'
p1594
I13
sS'ME'
p1595
I5
sS'RP2'
p1596
I11
sS'E'
p1597
I9
sS'P'
p1598
I12
sS'RP1'
p1599
I9
sS'JP'
p1600
I10
sS'RP_tot'
p1601
I13
sS'TO'
p1602
I8
sS'PA'
p1603
I12
sS'M'
p1604
I10
sS'R'
p1605
I5
sS'TB'
p1606
I9
sS'PL'
p1607
I13
sS'TA'
p1608
I4
ssg232
g1513
sg233
I0
sg234
g31
sg235
I0
sg236
I0
sg237
I0
sg238
I6
sg239
I8
sg240
I0
sg241
S'ES'
p1609
sbsS's11'
p1610
(ijoueur
joueur
p1611
(dp1612
g28
I0
sg32
I0
sg34
I0
sg35
g36
(g37
g38
Ntp1613
Rp1614
(dp1615
g42
I4
sg43
S'*'
p1616
sg45
S'heros'
p1617
sbsg47
(dp1618
S'SR'
p1619
I0
sS'ST'
p1620
I0
sS'CR'
p1621
I0
sS'CT'
p1622
I0
ssg53
(dp1623
g1619
I0
sg1620
I7
sg1621
I0
sg1622
I15
ssg56
(dp1624
g1619
I0
sg1620
I0
sg1621
I0
sg1622
I0
ssg62
I0
sg63
I0
sg359
I0
sg360
I0
sg65
I3
sg66
I0
sg67
I0
sg68
(S'dummy'
p1625
S'C1'
p1626
S'AI'
p1627
S'AR'
p1628
tp1629
sg72
I00
sg73
g36
(g37
g38
Ntp1630
Rp1631
(dp1632
g42
I4
sg43
S'*'
p1633
sg45
g1617
sbsg79
(dp1634
g1619
I0
sg1620
I0
sg1621
I0
sg1622
I0
ssg81
I01
sg82
(dp1635
g1619
I0
sg1620
I7
sg1621
I0
sg1622
I15
ssg84
(dp1636
g1619
I0
sg1620
I0
sg1621
I0
sg1622
I0
ssg86
I0
sg87
I0
sg88
S'Sdaehir'
p1637
sg90
I7
sg91
I0
sg92
I23
sg93
I64
sg94
S'ALT'
p1638
sg96
(dp1639
S'A'
p1640
I13
sS'ME'
p1641
I5
sS'RP2'
p1642
I11
sS'E'
p1643
I9
sS'TO'
p1644
I8
sS'RP1'
p1645
I9
sS'JP'
p1646
I10
sS'RP_tot'
p1647
I13
sS'P'
p1648
I12
sS'PA'
p1649
I12
sS'M'
p1650
I10
sS'R'
p1651
I5
sS'TB'
p1652
I9
sS'PL'
p1653
I13
sS'TA'
p1654
I4
ssg208
I0
sg209
I0
sg210
I0
sg211
I0
sg129
F11.233333333333333
sg212
I0
sg485
I0
sg213
I0
sg214
I0
sg215
(dp1655
S'A'
p1656
I13
sS'ME'
p1657
I5
sS'RP2'
p1658
I11
sS'E'
p1659
I9
sS'TO'
p1660
I8
sS'RP1'
p1661
I9
sS'JP'
p1662
I10
sS'RP_tot'
p1663
I13
sS'P'
p1664
I12
sS'PA'
p1665
I12
sS'M'
p1666
I10
sS'R'
p1667
I5
sS'TB'
p1668
I9
sS'PL'
p1669
I13
sS'TA'
p1670
I4
ssg232
g1639
sg233
I0
sg234
g31
sg235
I0
sg236
I0
sg237
I0
sg238
I6
sg239
I4
sg240
I0
sg241
S'ES'
p1671
sbssg208
I11
sg209
I0
sg210
I0
sg211
I0
sg129
F11.6
sg212
I0
sg64
F63.66143871754078
sg485
I0
sg213
I0
sg214
I0
sg215
(dp1672
S'A'
p1673
I13
sS'ME'
p1674
I5
sS'RP2'
p1675
I11
sS'E'
p1676
I9
sS'P'
p1677
I12
sS'RP1'
p1678
I9
sS'JP'
p1679
I10
sS'RP_tot'
p1680
I13
sS'TO'
p1681
I8
sS'PA'
p1682
I12
sS'M'
p1683
I10
sS'R'
p1684
I5
sS'TB'
p1685
I9
sS'PL'
p1686
I13
sS'TA'
p1687
I4
ssg232
(dp1688
g1465
I15
sg1466
I5
sg1467
I11
sg1468
I9
sg1473
I8
sg1470
I9
sg1471
I10
sg1472
I12
sg1469
I12
sg1474
I12
sg1475
I10
sg1476
I6
sg1477
I9
sg1478
I14
sg1479
I4
ssg233
I0
sg340
(dp1689
sg235
I0
sg234
S'ALT 13'
p1690
sg236
I1
sg237
I0
sg238
I20
sg239
I8
sg240
I0
sg241
S'ES'
p1691
sbsS'SA_remp2'
p1692
(ijoueur
joueur
p1693
(dp1694
g27
F10.451612903225806
sg28
I1
sg29
F9.763157894736842
sg30
g31
sg32
I0
sg33
F63.87696174186581
sg34
I0
sg35
g36
(g37
g38
Ntp1695
Rp1696
(dp1697
g42
I3
sg43
S'^^^'
p1698
sg45
S'rare'
p1699
sbsg47
(dp1700
S'SR'
p1701
I0
sS'CT'
p1702
I0
sS'CR'
p1703
I0
sS'ST'
p1704
I0
ssg53
(dp1705
g1701
I0
sg1702
I15
sg1703
I0
sg1704
I12
ssg55
I0
sg62
I0
sg63
I0
sg359
I0
sg360
I0
sg81
I00
sg65
I0
sg66
I0
sg67
I0
sg68
(S'dummy'
p1706
S'TL'
p1707
S'DL'
p1708
S'PI'
p1709
tp1710
sg72
I00
sg73
g36
(g37
g38
Ntp1711
Rp1712
(dp1713
g42
I3
sg43
S'^^^'
p1714
sg45
g1699
sbsg79
(dp1715
g58
I0
sg59
I0
sg60
I3
sg61
I3
ssg56
(dp1716
g58
I0
sg59
I0
sg60
I0
sg61
I0
ssg82
(dp1717
g58
I0
sg59
I0
sg60
I0
sg61
I0
ssg84
(dp1718
g1701
I0
sg1702
I14
sg1703
I6
sg1704
I0
ssg86
I0
sg87
I0
sg88
S'Beragueux'
p1719
sg90
I4
sg91
I0
sg92
I12
sg93
I100
sg94
g95
sg96
(dp1720
S'A'
p1721
I11
sS'ME'
p1722
I8
sS'RP2'
p1723
I9
sS'E'
p1724
I10
sS'TO'
p1725
I10
sS'RP1'
p1726
I5
sS'JP'
p1727
I4
sS'RP_tot'
p1728
I9
sS'P'
p1729
I5
sS'PA'
p1730
I10
sS'M'
p1731
I6
sS'R'
p1732
I10
sS'TB'
p1733
I5
sS'PL'
p1734
I10
sS'TA'
p1735
I3
ssg113
(dp1736
g115
(ijoueur
joueur
p1737
(dp1738
g27
F10.451612903225806
sg28
I1
sg30
g31
sg32
I0
sg34
I0
sg35
g36
(g37
g38
Ntp1739
Rp1740
(dp1741
g42
I3
sg43
S'^^^'
p1742
sg45
S'rare'
p1743
sbsg47
(dp1744
S'SR'
p1745
I0
sS'CT'
p1746
I0
sS'CR'
p1747
I0
sS'ST'
p1748
I0
ssg53
(dp1749
g1745
I0
sg1746
I15
sg1747
I0
sg1748
I12
ssg56
(dp1750
g416
I0
sg417
I0
sg418
I0
sg419
I0
ssg62
I0
sg63
I0
sg359
I0
sg360
I0
sg65
I2
sg66
I0
sg67
I0
sg68
(S'dummy'
p1751
S'TL'
p1752
S'DL'
p1753
S'PI'
p1754
tp1755
sg72
I00
sg73
g36
(g37
g38
Ntp1756
Rp1757
(dp1758
g42
I3
sg43
S'^^^'
p1759
sg45
g1743
sbsg79
(dp1760
g416
I0
sg417
I0
sg418
I2
sg419
I9
ssg81
I00
sg82
(dp1761
g416
I0
sg417
I7
sg418
I0
sg419
I2
ssg84
(dp1762
g1745
I0
sg1746
I11
sg1747
I3
sg1748
I0
ssg86
I0
sg87
I0
sg88
S'Beragueux'
p1763
sg90
I4
sg91
I0
sg92
I12
sg93
I100
sg94
g146
sg96
(dp1764
S'A'
p1765
I11
sS'ME'
p1766
I9
sS'RP2'
p1767
I9
sS'E'
p1768
I10
sS'P'
p1769
I5
sS'RP1'
p1770
I5
sS'JP'
p1771
I4
sS'RP_tot'
p1772
I9
sS'TO'
p1773
I10
sS'PA'
p1774
I10
sS'M'
p1775
I7
sS'R'
p1776
I10
sS'TB'
p1777
I5
sS'PL'
p1778
I10
sS'TA'
p1779
I3
ssg113
(dp1780
g164
(ijoueur
joueur
p1781
(dp1782
g28
I1
sg32
I0
sg34
I0
sg35
g36
(g37
g38
Ntp1783
Rp1784
(dp1785
g42
I3
sg43
S'^^^'
p1786
sg45
S'rare'
p1787
sbsg47
(dp1788
S'SR'
p1789
I0
sS'CT'
p1790
I0
sS'CR'
p1791
I0
sS'ST'
p1792
I0
ssg53
(dp1793
g1789
I0
sg1790
I13
sg1791
I0
sg1792
I5
ssg62
I0
sg129
F10.451612903225806
sg63
I0
sg359
I0
sg360
I0
sg65
I0
sg66
I0
sg67
I0
sg68
(S'dummy'
p1794
S'TL'
p1795
S'DL'
p1796
S'PI'
p1797
tp1798
sg72
I01
sg73
g36
(g37
g38
Ntp1799
Rp1800
(dp1801
g42
I3
sg43
S'^^^'
p1802
sg45
g1787
sbsg79
(dp1803
g1789
I0
sg1790
I2
sg1791
I1
sg1792
I0
ssg81
I01
sg82
(dp1804
g1789
I0
sg1790
I13
sg1791
I0
sg1792
I5
ssg84
(dp1805
g1789
I0
sg1790
I2
sg1791
I1
sg1792
I0
ssg86
I0
sg87
I0
sg88
S'Beragueux'
p1806
sg90
I4
sg91
I0
sg92
I12
sg93
I38
sg94
S'TA'
p1807
sg96
(dp1808
S'A'
p1809
I11
sS'ME'
p1810
I9
sS'RP2'
p1811
I9
sS'E'
p1812
I10
sS'P'
p1813
I5
sS'RP1'
p1814
I6
sS'JP'
p1815
I4
sS'RP_tot'
p1816
I9
sS'TO'
p1817
I10
sS'PA'
p1818
I10
sS'M'
p1819
I8
sS'R'
p1820
I11
sS'TB'
p1821
I5
sS'PL'
p1822
I12
sS'TA'
p1823
I4
ssg208
I0
sg209
I0
sg210
I0
sg211
I0
sg56
(dp1824
g1789
I0
sg1790
I0
sg1791
I0
sg1792
I0
ssg212
I0
sg485
I0
sg213
I0
sg214
I0
sg215
(dp1825
S'A'
p1826
I11
sS'ME'
p1827
I9
sS'RP2'
p1828
I9
sS'E'
p1829
I10
sS'P'
p1830
I5
sS'RP1'
p1831
I6
sS'JP'
p1832
I4
sS'RP_tot'
p1833
I9
sS'TO'
p1834
I10
sS'PA'
p1835
I10
sS'M'
p1836
I8
sS'R'
p1837
I11
sS'TB'
p1838
I5
sS'PL'
p1839
I12
sS'TA'
p1840
I4
ssg232
g1808
sg233
I1
sg234
g31
sg235
I0
sg236
I0
sg237
I0
sg238
I4
sg239
I1
sg240
I0
sg241
S'B'
p1841
sbssg208
I7
sg209
I0
sg210
I0
sg211
I0
sg129
F9.763157894736842
sg212
I0
sg485
I0
sg213
I0
sg214
I0
sg215
(dp1842
S'A'
p1843
I11
sS'ME'
p1844
I9
sS'RP2'
p1845
I9
sS'E'
p1846
I10
sS'P'
p1847
I5
sS'RP1'
p1848
I6
sS'JP'
p1849
I4
sS'RP_tot'
p1850
I9
sS'TO'
p1851
I10
sS'PA'
p1852
I10
sS'M'
p1853
I8
sS'R'
p1854
I11
sS'TB'
p1855
I5
sS'PL'
p1856
I12
sS'TA'
p1857
I4
ssg232
g1764
sg233
I0
sg234
S'TA 12'
p1858
sg235
I0
sg236
I0
sg237
I0
sg238
I15
sg239
I3
sg240
I0
sg241
S'B'
p1859
sbsg262
(ijoueur
joueur
p1860
(dp1861
g28
I1
sg32
I0
sg34
I0
sg35
g36
(g37
g38
Ntp1862
Rp1863
(dp1864
g42
I3
sg43
S'^^^'
p1865
sg45
S'rare'
p1866
sbsg47
(dp1867
S'SR'
p1868
I0
sS'CT'
p1869
I0
sS'CR'
p1870
I0
sS'ST'
p1871
I0
ssg53
(dp1872
g1868
I0
sg1869
I13
sg1870
I0
sg1871
I5
ssg62
I0
sg129
F10.451612903225806
sg63
I0
sg359
I0
sg360
I0
sg65
I0
sg66
I0
sg67
I0
sg68
(S'dummy'
p1873
S'TL'
p1874
S'DL'
p1875
S'PI'
p1876
tp1877
sg72
I01
sg73
g36
(g37
g38
Ntp1878
Rp1879
(dp1880
g42
I3
sg43
S'^^^'
p1881
sg45
g1866
sbsg79
(dp1882
g1868
I0
sg1869
I2
sg1870
I1
sg1871
I0
ssg81
I01
sg82
(dp1883
g1868
I0
sg1869
I13
sg1870
I0
sg1871
I5
ssg84
(dp1884
g1868
I0
sg1869
I2
sg1870
I1
sg1871
I0
ssg86
I0
sg87
I0
sg88
S'Beragueux'
p1885
sg90
I4
sg91
I0
sg92
I12
sg93
I38
sg94
S'TA'
p1886
sg96
(dp1887
S'A'
p1888
I11
sS'ME'
p1889
I9
sS'RP2'
p1890
I9
sS'E'
p1891
I10
sS'P'
p1892
I5
sS'RP1'
p1893
I6
sS'JP'
p1894
I4
sS'RP_tot'
p1895
I9
sS'TO'
p1896
I10
sS'PA'
p1897
I10
sS'M'
p1898
I8
sS'R'
p1899
I11
sS'TB'
p1900
I5
sS'PL'
p1901
I12
sS'TA'
p1902
I4
ssg208
I0
sg209
I0
sg210
I0
sg211
I0
sg56
(dp1903
g1868
I0
sg1869
I0
sg1870
I0
sg1871
I0
ssg212
I0
sg485
I0
sg213
I0
sg214
I0
sg215
(dp1904
S'A'
p1905
I11
sS'ME'
p1906
I9
sS'RP2'
p1907
I9
sS'E'
p1908
I10
sS'P'
p1909
I5
sS'RP1'
p1910
I6
sS'JP'
p1911
I4
sS'RP_tot'
p1912
I9
sS'TO'
p1913
I10
sS'PA'
p1914
I10
sS'M'
p1915
I8
sS'R'
p1916
I11
sS'TB'
p1917
I5
sS'PL'
p1918
I12
sS'TA'
p1919
I4
ssg232
g1887
sg233
I1
sg234
g31
sg235
I0
sg236
I0
sg237
I0
sg238
I4
sg239
I1
sg240
I0
sg241
S'B'
p1920
sbssg208
I5
sg209
I0
sg210
I0
sg211
I0
sg129
F9.657894736842104
sg212
I0
sg64
F63.87696174186581
sg485
I0
sg213
I0
sg214
I0
sg215
(dp1921
S'A'
p1922
I11
sS'ME'
p1923
I9
sS'RP2'
p1924
I9
sS'E'
p1925
I10
sS'P'
p1926
I5
sS'RP1'
p1927
I6
sS'JP'
p1928
I4
sS'RP_tot'
p1929
I9
sS'TO'
p1930
I10
sS'PA'
p1931
I10
sS'M'
p1932
I8
sS'R'
p1933
I11
sS'TB'
p1934
I5
sS'PL'
p1935
I12
sS'TA'
p1936
I4
ssg232
(dp1937
g1721
I11
sg1722
I8
sg1723
I9
sg1724
I10
sg1729
I5
sg1726
I5
sg1727
I4
sg1728
I9
sg1725
I10
sg1730
I10
sg1731
I6
sg1732
I10
sg1733
I5
sg1734
I10
sg1735
I3
ssg233
I0
sg340
(dp1938
sg235
I0
sg234
S'TA 12'
p1939
sg236
I0
sg237
I0
sg238
I15
sg239
I3
sg240
I0
sg241
S'B'
p1940
sbssg88
S'BSK_DKF'
p1941
sS'totaux'
p1942
(dp1943
g19
I0
sg20
I0
sg21
I0
ssS'_compo_defaut_fatigue'
p1944
Nsg96
(dp1945
g4
I0
sg5
I0
sg6
I0
sg7
I0
sg8
I0
sg9
I0
sg10
I0
sg11
I0
sg12
I0
sg13
I0
sg14
I0
sg15
I0
sg16
I0
ssS'joueurs'
p1946
(dp1947
S'n12'
p1948
g345
sS'n13'
p1949
(ijoueur
joueur
p1950
(dp1951
g27
F9.696969696969697
sg28
I0
sg29
F8.878787878787879
sg30
g31
sg32
I0
sg33
F32.14881106355112
sg34
I0
sg35
g36
(g37
g38
Ntp1952
Rp1953
(dp1954
g42
I4
sg43
S'x'
p1955
sg45
S'heros'
p1956
sbsg47
(dp1957
S'SR'
p1958
I0
sS'ST'
p1959
I0
sS'CR'
p1960
I7
sS'CT'
p1961
I15
ssg53
(dp1962
g1958
I0
sg1959
I0
sg1960
I0
sg1961
I0
ssg55
I0
sg62
I0
sg63
I0
sg359
I0
sg360
I1
sg81
I00
sg65
I0
sg66
I0
sg67
I0
sg68
(S'dummy'
p1963
S'DO'
p1964
S'CE'
p1965
g31
tp1966
sg72
I00
sg73
g36
(g37
g38
Ntp1967
Rp1968
(dp1969
g42
I4
sg43
g1955
sg45
g1956
sbsg79
(dp1970
S'SR'
p1971
I0
sS'ST'
p1972
I0
sS'CR'
p1973
I2
sS'CT'
p1974
I0
ssg56
(dp1975
g1971
I0
sg1972
I0
sg1973
I0
sg1974
I1
ssg82
(dp1976
g1971
I0
sg1972
I0
sg1973
I0
sg1974
I0
ssg84
(dp1977
g1958
I0
sg1959
I0
sg1960
I8
sg1961
I1
ssg86
I1
sg87
I0
sg88
S'Jevoff'
p1978
sg90
I8
sg91
I0
sg92
I22
sg93
I82
sg94
S'DKF'
p1979
sg96
(dp1980
S'A'
p1981
I9
sS'ME'
p1982
I5
sS'RP2'
p1983
I10
sS'E'
p1984
I9
sS'P'
p1985
I9
sS'RP1'
p1986
I10
sS'JP'
p1987
I8
sS'RP_tot'
p1988
I12
sS'TO'
p1989
I8
sS'PA'
p1990
I11
sS'M'
p1991
I10
sS'R'
p1992
I8
sS'TB'
p1993
I9
sS'PL'
p1994
I6
sS'TA'
p1995
I6
ssg113
(dp1996
S's12'
p1997
(ijoueur
joueur
p1998
(dp1999
g27
F9.696969696969697
sg28
I0
sg30
g31
sg32
I0
sg34
I0
sg35
g36
(g37
g38
Ntp2000
Rp2001
(dp2002
g42
I4
sg43
S'x'
p2003
sg45
S'heros'
p2004
sbsg47
(dp2005
S'SR'
p2006
I0
sS'ST'
p2007
I0
sS'CR'
p2008
I7
sS'CT'
p2009
I14
ssg53
(dp2010
g2006
I0
sg2007
I0
sg2008
I0
sg2009
I0
ssg56
(dp2011
S'SR'
p2012
I0
sS'ST'
p2013
I0
sS'CR'
p2014
I6
sS'CT'
p2015
I3
ssg62
I0
sg63
I0
sg359
I0
sg360
I1
sg65
I1
sg66
I0
sg67
I0
sg68
(S'dummy'
p2016
S'DO'
p2017
S'CE'
p2018
g31
tp2019
sg72
I00
sg73
g36
(g37
g38
Ntp2020
Rp2021
(dp2022
g42
I4
sg43
g2003
sg45
g2004
sbsg79
(dp2023
g2012
I0
sg2013
I0
sg2014
I5
sg2015
I0
ssg81
I00
sg82
(dp2024
g2012
I0
sg2013
I0
sg2014
I0
sg2015
I0
ssg84
(dp2025
g2006
I0
sg2007
I0
sg2008
I6
sg2009
I1
ssg86
I1
sg87
I0
sg88
S'Jevoff (12)'
p2026
sg90
I8
sg91
I0
sg92
I22
sg93
I82
sg94
S'DKF'
p2027
sg96
(dp2028
S'A'
p2029
I9
sS'ME'
p2030
I5
sS'RP2'
p2031
I9
sS'E'
p2032
I9
sS'TO'
p2033
I8
sS'RP1'
p2034
I9
sS'JP'
p2035
I7
sS'RP_tot'
p2036
I11
sS'P'
p2037
I9
sS'PA'
p2038
I11
sS'M'
p2039
I10
sS'R'
p2040
I8
sS'TB'
p2041
I8
sS'PL'
p2042
I6
sS'TA'
p2043
I6
ssg113
(dp2044
S's11'
p2045
(ijoueur
joueur
p2046
(dp2047
g28
I0
sg32
I0
sg34
I0
sg35
g36
(g37
g38
Ntp2048
Rp2049
(dp2050
g42
I4
sg43
S'x'
p2051
sg45
S'heros'
p2052
sbsg47
(dp2053
S'SR'
p2054
I0
sS'ST'
p2055
I0
sS'CR'
p2056
I1
sS'CT'
p2057
I11
ssg53
(dp2058
g2054
I0
sg2055
I0
sg2056
I0
sg2057
I0
ssg56
(dp2059
g2054
I0
sg2055
I0
sg2056
I1
sg2057
I11
ssg62
I0
sg63
I0
sg359
I0
sg360
I1
sg65
I2
sg66
I0
sg67
I0
sg68
(S'dummy'
p2060
S'DO'
p2061
S'CE'
p2062
g31
tp2063
sg72
I00
sg73
g36
(g37
g38
Ntp2064
Rp2065
(dp2066
g42
I4
sg43
g2051
sg45
g2052
sbsg79
(dp2067
g2054
I0
sg2055
I0
sg2056
I1
sg2057
I1
ssg81
I00
sg82
(dp2068
g2054
I0
sg2055
I0
sg2056
I0
sg2057
I0
ssg84
(dp2069
g2054
I0
sg2055
I0
sg2056
I1
sg2057
I1
ssg86
I1
sg87
I0
sg88
S'Jevoff'
p2070
sg90
I8
sg91
I0
sg92
I22
sg93
I82
sg94
S'DKF'
p2071
sg96
(dp2072
S'A'
p2073
I9
sS'ME'
p2074
I5
sS'RP2'
p2075
I9
sS'E'
p2076
I9
sS'TO'
p2077
I8
sS'RP1'
p2078
I9
sS'JP'
p2079
I10
sS'RP_tot'
p2080
I11
sS'P'
p2081
I9
sS'PA'
p2082
I11
sS'M'
p2083
I10
sS'R'
p2084
I8
sS'TB'
p2085
I8
sS'PL'
p2086
I9
sS'TA'
p2087
I6
ssg208
I0
sg209
I0
sg210
I0
sg211
I0
sg129
F9.696969696969697
sg212
I0
sg485
I0
sg213
I0
sg214
I2
sg215
(dp2088
S'A'
p2089
I9
sS'ME'
p2090
I5
sS'RP2'
p2091
I9
sS'E'
p2092
I9
sS'TO'
p2093
I8
sS'RP1'
p2094
I9
sS'JP'
p2095
I10
sS'RP_tot'
p2096
I11
sS'P'
p2097
I9
sS'PA'
p2098
I11
sS'M'
p2099
I10
sS'R'
p2100
I8
sS'TB'
p2101
I8
sS'PL'
p2102
I9
sS'TA'
p2103
I6
ssg232
g2072
sg233
I0
sg234
g31
sg235
I0
sg236
I0
sg237
I0
sg238
I9
sg239
I2
sg240
I2
sg241
S'CV'
p2104
sbssg208
I0
sg209
I0
sg210
I0
sg211
I0
sg129
F8.878787878787879
sg212
I0
sg485
I0
sg213
I0
sg214
I3
sg215
(dp2105
S'A'
p2106
I9
sS'ME'
p2107
I5
sS'RP2'
p2108
I9
sS'E'
p2109
I9
sS'TO'
p2110
I8
sS'RP1'
p2111
I9
sS'JP'
p2112
I10
sS'RP_tot'
p2113
I11
sS'P'
p2114
I9
sS'PA'
p2115
I11
sS'M'
p2116
I10
sS'R'
p2117
I8
sS'TB'
p2118
I8
sS'PL'
p2119
I9
sS'TA'
p2120
I6
ssg232
g2028
sg233
I0
sg234
g31
sg235
I0
sg236
I0
sg237
I0
sg238
I9
sg239
I3
sg240
I1
sg241
S'CV'
p2121
sbsS's11'
p2122
(ijoueur
joueur
p2123
(dp2124
g28
I0
sg32
I0
sg34
I0
sg35
g36
(g37
g38
Ntp2125
Rp2126
(dp2127
g42
I4
sg43
S'x'
p2128
sg45
S'heros'
p2129
sbsg47
(dp2130
S'SR'
p2131
I0
sS'ST'
p2132
I0
sS'CR'
p2133
I1
sS'CT'
p2134
I11
ssg53
(dp2135
g2131
I0
sg2132
I0
sg2133
I0
sg2134
I0
ssg56
(dp2136
g2131
I0
sg2132
I0
sg2133
I1
sg2134
I11
ssg62
I0
sg63
I0
sg359
I0
sg360
I1
sg65
I2
sg66
I0
sg67
I0
sg68
(S'dummy'
p2137
S'DO'
p2138
S'CE'
p2139
g31
tp2140
sg72
I00
sg73
g36
(g37
g38
Ntp2141
Rp2142
(dp2143
g42
I4
sg43
g2128
sg45
g2129
sbsg79
(dp2144
g2131
I0
sg2132
I0
sg2133
I1
sg2134
I1
ssg81
I00
sg82
(dp2145
g2131
I0
sg2132
I0
sg2133
I0
sg2134
I0
ssg84
(dp2146
g2131
I0
sg2132
I0
sg2133
I1
sg2134
I1
ssg86
I1
sg87
I0
sg88
S'Jevoff (11)'
p2147
sg90
I8
sg91
I0
sg92
I22
sg93
I82
sg94
S'DKF'
p2148
sg96
(dp2149
S'A'
p2150
I9
sS'ME'
p2151
I5
sS'RP2'
p2152
I9
sS'E'
p2153
I9
sS'TO'
p2154
I8
sS'RP1'
p2155
I9
sS'JP'
p2156
I10
sS'RP_tot'
p2157
I11
sS'P'
p2158
I9
sS'PA'
p2159
I11
sS'M'
p2160
I10
sS'R'
p2161
I8
sS'TB'
p2162
I8
sS'PL'
p2163
I9
sS'TA'
p2164
I6
ssg208
I0
sg209
I0
sg210
I0
sg211
I0
sg129
F9.696969696969697
sg212
I0
sg485
I0
sg213
I0
sg214
I2
sg215
(dp2165
S'A'
p2166
I9
sS'ME'
p2167
I5
sS'RP2'
p2168
I9
sS'E'
p2169
I9
sS'TO'
p2170
I8
sS'RP1'
p2171
I9
sS'JP'
p2172
I10
sS'RP_tot'
p2173
I11
sS'P'
p2174
I9
sS'PA'
p2175
I11
sS'M'
p2176
I10
sS'R'
p2177
I8
sS'TB'
p2178
I8
sS'PL'
p2179
I9
sS'TA'
p2180
I6
ssg232
g2149
sg233
I0
sg234
g31
sg235
I0
sg236
I0
sg237
I0
sg238
I9
sg239
I2
sg240
I2
sg241
S'CV'
p2181
sbssg208
I0
sg209
I0
sg210
I1
sg211
I0
sg129
F9.121212121212121
sg212
I0
sg64
F32.14881106355112
sg485
I0
sg213
I1
sg214
I3
sg215
(dp2182
S'A'
p2183
I9
sS'ME'
p2184
I5
sS'RP2'
p2185
I9
sS'E'
p2186
I9
sS'TO'
p2187
I8
sS'RP1'
p2188
I9
sS'JP'
p2189
I10
sS'RP_tot'
p2190
I11
sS'P'
p2191
I9
sS'PA'
p2192
I11
sS'M'
p2193
I10
sS'R'
p2194
I8
sS'TB'
p2195
I8
sS'PL'
p2196
I9
sS'TA'
p2197
I6
ssg232
(dp2198
g1981
I9
sg1982
I5
sg1983
I10
sg1984
I9
sg1989
I8
sg1986
I10
sg1987
I8
sg1988
I12
sg1985
I9
sg1990
I11
sg1991
I10
sg1992
I8
sg1993
I9
sg1994
I6
sg1995
I6
ssg233
I0
sg340
(dp2199
sg235
I0
sg234
g31
sg236
I0
sg237
I0
sg238
I9
sg239
I3
sg240
I0
sg241
S'CV'
p2200
sbsS'n10'
p2201
g607
sS'n11'
p2202
(ijoueur
joueur
p2203
(dp2204
g27
F8.903225806451612
sg28
I0
sg29
F10.575757575757576
sg30
g31
sg32
I0
sg33
F63.66143871754078
sg34
I0
sg35
g36
(g37
g38
Ntp2205
Rp2206
(dp2207
g42
I4
sg43
S'*'
p2208
sg45
S'heros'
p2209
sbsg47
(dp2210
S'SR'
p2211
I0
sS'ST'
p2212
I0
sS'CR'
p2213
I0
sS'CT'
p2214
I0
ssg53
(dp2215
g2211
I0
sg2212
I0
sg2213
I0
sg2214
I0
ssg55
I0
sg62
I0
sg129
F10.030303030303031
sg63
I0
sg64
F63.66143871754078
sg65
I1
sg66
I0
sg67
I0
sg68
(S'dummy'
p2216
S'AI'
p2217
g31
g31
tp2218
sg72
I00
sg73
g2206
sg79
(dp2219
g58
I0
sg59
I0
sg60
I0
sg61
I6
ssg81
I00
sg82
(dp2220
g58
I0
sg59
I0
sg60
I0
sg61
I0
ssg84
(dp2221
g2211
I5
sg2212
I1
sg2213
I10
sg2214
I10
ssg86
I9
sg87
I0
sg88
S'Kyeem'
p2222
sg90
I10
sg91
I14
sg92
I24
sg93
I100
sg94
g95
sg96
(dp2223
S'A'
p2224
I9
sS'ME'
p2225
I6
sS'RP2'
p2226
I9
sS'E'
p2227
I10
sS'P'
p2228
I9
sS'RP1'
p2229
I11
sS'JP'
p2230
I6
sS'RP_tot'
p2231
I12
sS'TO'
p2232
I4
sS'PA'
p2233
I8
sS'M'
p2234
I11
sS'R'
p2235
I2
sS'TB'
p2236
I11
sS'PL'
p2237
I9
sS'TA'
p2238
I6
ssg113
(dp2239
S's12'
p2240
(ijoueur
joueur
p2241
(dp2242
g27
F8.903225806451612
sg28
I0
sg30
g31
sg32
I0
sg34
I0
sg35
g36
(g37
g38
Ntp2243
Rp2244
(dp2245
g42
I4
sg43
S'*'
p2246
sg45
S'heros'
p2247
sbsg47
(dp2248
S'SR'
p2249
I0
sS'ST'
p2250
I0
sS'CR'
p2251
I0
sS'CT'
p2252
I0
ssg53
(dp2253
g2249
I0
sg2250
I0
sg2251
I0
sg2252
I0
ssg62
I0
sg63
I0
sg81
I01
sg65
I2
sg66
I0
sg67
I14
sg68
(S'dummy'
p2254
S'AI'
p2255
g31
g31
tp2256
sg72
I01
sg73
g2244
sg79
(dp2257
S'SR'
p2258
I5
sS'ST'
p2259
I1
sS'CR'
p2260
I10
sS'CT'
p2261
I4
ssg56
(dp2262
g2258
I0
sg2259
I0
sg2260
I0
sg2261
I0
ssg82
(dp2263
g2258
I0
sg2259
I0
sg2260
I0
sg2261
I0
ssg84
(dp2264
g2249
I5
sg2250
I1
sg2251
I10
sg2252
I4
ssg86
I9
sg87
I9
sg88
S'Kyeem'
p2265
sg90
I10
sg91
I14
sg92
I24
sg93
I27
sg94
S'TO'
p2266
sg96
(dp2267
S'A'
p2268
I11
sS'ME'
p2269
I6
sS'RP2'
p2270
I9
sS'E'
p2271
I10
sS'TO'
p2272
I4
sS'RP1'
p2273
I11
sS'JP'
p2274
I6
sS'RP_tot'
p2275
I13
sS'P'
p2276
I9
sS'PA'
p2277
I8
sS'M'
p2278
I11
sS'R'
p2279
I5
sS'TB'
p2280
I11
sS'PL'
p2281
I11
sS'TA'
p2282
I6
ssg113
(dp2283
S's11'
p2284
(ijoueur
joueur
p2285
(dp2286
g28
I0
sg32
I0
sg34
I0
sg35
g36
(g37
g38
Ntp2287
Rp2288
(dp2289
g42
I4
sg43
S'*'
p2290
sg45
S'heros'
p2291
sbsg47
(dp2292
S'SR'
p2293
I0
sS'ST'
p2294
I0
sS'CR'
p2295
I0
sS'CT'
p2296
I0
ssg53
(dp2297
g2293
I0
sg2294
I0
sg2295
I0
sg2296
I0
ssg62
I0
sg63
I0
sg81
I00
sg65
I0
sg66
I0
sg67
I0
sg68
(S'dummy'
p2298
S'AI'
p2299
g31
g31
tp2300
sg72
I00
sg73
g36
(g37
g38
Ntp2301
Rp2302
(dp2303
g42
I3
sg43
S'^^^'
p2304
sg45
S'rare'
p2305
sbsg79
(dp2306
g2293
I0
sg2294
I0
sg2295
I0
sg2296
I0
ssg56
(dp2307
g2293
I0
sg2294
I0
sg2295
I0
sg2296
I0
ssg82
(dp2308
g2293
I0
sg2294
I0
sg2295
I0
sg2296
I0
ssg84
(dp2309
g2293
I0
sg2294
I0
sg2295
I0
sg2296
I0
ssg86
I0
sg87
I0
sg88
S'Kyeem'
p2310
sg90
I10
sg91
I0
sg92
I24
sg93
I27
sg94
S'TO'
p2311
sg96
(dp2312
S'A'
p2313
I8
sS'ME'
p2314
I6
sS'RP2'
p2315
I8
sS'E'
p2316
I10
sS'TO'
p2317
I2
sS'RP1'
p2318
I11
sS'JP'
p2319
I1
sS'RP_tot'
p2320
I12
sS'P'
p2321
I4
sS'PA'
p2322
I5
sS'M'
p2323
I11
sS'R'
p2324
I5
sS'TB'
p2325
I5
sS'PL'
p2326
I9
sS'TA'
p2327
I6
ssg208
I0
sg209
I0
sg210
I0
sg211
I0
sg129
F8.903225806451612
sg212
I0
sg213
I0
sg214
I0
sg215
(dp2328
S'A'
p2329
I8
sS'ME'
p2330
I6
sS'RP2'
p2331
I8
sS'E'
p2332
I10
sS'TO'
p2333
I2
sS'RP1'
p2334
I11
sS'JP'
p2335
I1
sS'RP_tot'
p2336
I12
sS'P'
p2337
I4
sS'PA'
p2338
I5
sS'M'
p2339
I11
sS'R'
p2340
I5
sS'TB'
p2341
I5
sS'PL'
p2342
I9
sS'TA'
p2343
I6
ssg232
g2312
sg233
I0
sg234
g31
sg235
I0
sg236
I0
sg237
I0
sg238
I4
sg239
I0
sg240
I0
sg241
S'HL'
p2344
sbssg208
I2
sg209
I0
sg210
I1
sg211
I0
sg129
F10.575757575757576
sg212
I0
sg213
I1
sg214
I0
sg215
(dp2345
S'A'
p2346
I8
sS'ME'
p2347
I6
sS'RP2'
p2348
I8
sS'E'
p2349
I10
sS'P'
p2350
I4
sS'RP1'
p2351
I11
sS'JP'
p2352
I1
sS'RP_tot'
p2353
I12
sS'TO'
p2354
I2
sS'PA'
p2355
I5
sS'M'
p2356
I11
sS'R'
p2357
I5
sS'TB'
p2358
I5
sS'PL'
p2359
I9
sS'TA'
p2360
I6
ssg232
g2267
sg233
I0
sg234
g31
sg235
I0
sg236
I0
sg237
I0
sg238
I4
sg239
I2
sg240
I0
sg241
S'HL'
p2361
sbsS's11'
p2362
(ijoueur
joueur
p2363
(dp2364
g28
I0
sg32
I0
sg34
I0
sg35
g36
(g37
g38
Ntp2365
Rp2366
(dp2367
g42
I4
sg43
S'*'
p2368
sg45
S'heros'
p2369
sbsg47
(dp2370
S'SR'
p2371
I0
sS'ST'
p2372
I0
sS'CR'
p2373
I0
sS'CT'
p2374
I0
ssg53
(dp2375
g2371
I0
sg2372
I0
sg2373
I0
sg2374
I0
ssg62
I0
sg63
I0
sg81
I00
sg65
I0
sg66
I0
sg67
I0
sg68
(S'dummy'
p2376
S'AI'
p2377
g31
g31
tp2378
sg72
I00
sg73
g36
(g37
g38
Ntp2379
Rp2380
(dp2381
g42
I3
sg43
S'^^^'
p2382
sg45
S'rare'
p2383
sbsg79
(dp2384
g2371
I0
sg2372
I0
sg2373
I0
sg2374
I0
ssg56
(dp2385
g2371
I0
sg2372
I0
sg2373
I0
sg2374
I0
ssg82
(dp2386
g2371
I0
sg2372
I0
sg2373
I0
sg2374
I0
ssg84
(dp2387
g2371
I0
sg2372
I0
sg2373
I0
sg2374
I0
ssg86
I0
sg87
I0
sg88
S'Kyeem'
p2388
sg90
I10
sg91
I0
sg92
I24
sg93
I27
sg94
S'TO'
p2389
sg96
(dp2390
S'A'
p2391
I8
sS'ME'
p2392
I6
sS'RP2'
p2393
I8
sS'E'
p2394
I10
sS'TO'
p2395
I2
sS'RP1'
p2396
I11
sS'JP'
p2397
I1
sS'RP_tot'
p2398
I12
sS'P'
p2399
I4
sS'PA'
p2400
I5
sS'M'
p2401
I11
sS'R'
p2402
I5
sS'TB'
p2403
I5
sS'PL'
p2404
I9
sS'TA'
p2405
I6
ssg208
I0
sg209
I0
sg210
I0
sg211
I0
sg129
F8.903225806451612
sg212
I0
sg213
I0
sg214
I0
sg215
(dp2406
S'A'
p2407
I8
sS'ME'
p2408
I6
sS'RP2'
p2409
I8
sS'E'
p2410
I10
sS'TO'
p2411
I2
sS'RP1'
p2412
I11
sS'JP'
p2413
I1
sS'RP_tot'
p2414
I12
sS'P'
p2415
I4
sS'PA'
p2416
I5
sS'M'
p2417
I11
sS'R'
p2418
I5
sS'TB'
p2419
I5
sS'PL'
p2420
I9
sS'TA'
p2421
I6
ssg232
g2390
sg233
I0
sg234
g31
sg235
I0
sg236
I0
sg237
I0
sg238
I4
sg239
I0
sg240
I0
sg241
S'HL'
p2422
sbssg208
I9
sg209
I0
sg210
I1
sg211
I0
sg56
(dp2423
g58
I0
sg59
I0
sg60
I0
sg61
I0
ssg212
I0
sg213
I0
sg214
I0
sg215
(dp2424
S'A'
p2425
I8
sS'ME'
p2426
I6
sS'RP2'
p2427
I8
sS'E'
p2428
I10
sS'P'
p2429
I4
sS'RP1'
p2430
I11
sS'JP'
p2431
I1
sS'RP_tot'
p2432
I12
sS'TO'
p2433
I2
sS'PA'
p2434
I5
sS'M'
p2435
I11
sS'R'
p2436
I5
sS'TB'
p2437
I5
sS'PL'
p2438
I9
sS'TA'
p2439
I6
ssg232
(dp2440
g2224
I10
sg2225
I6
sg2226
I9
sg2227
I10
sg2232
I4
sg2229
I11
sg2230
I6
sg2231
I12
sg2228
I9
sg2233
I8
sg2234
I11
sg2235
I3
sg2236
I11
sg2237
I10
sg2238
I6
ssg233
I0
sg340
(dp2441
sg235
I0
sg234
S'TO 13'
p2442
sg236
I0
sg237
I0
sg238
I11
sg239
I3
sg240
I0
sg241
S'HL'
p2443
sbsS'n16'
p2444
(ijoueur
joueur
p2445
(dp2446
g27
F8.275862068965518
sg28
I1
sg29
F7.931034482758621
sg30
g31
sg32
I0
sg33
F20.920829379536166
sg34
I0
sg35
g36
(g37
g38
Ntp2447
Rp2448
(dp2449
g42
I1
sg43
S'^'
p2450
sg45
S'base'
p2451
sbsg47
(dp2452
S'SR'
p2453
I0
sS'ST'
p2454
I0
sS'CR'
p2455
I0
sS'CT'
p2456
I0
ssg53
(dp2457
g2453
I0
sg2454
I0
sg2455
I0
sg2456
I0
ssg55
I0
sg62
I0
sg129
F8.275862068965518
sg63
I0
sg359
I0
sg360
I0
sg65
I0
sg66
I0
sg67
I0
sg68
(S'dummy'
p2458
S'TA'
p2459
g31
g31
tp2460
sg72
I00
sg73
g36
(g37
g38
Ntp2461
Rp2462
(dp2463
g42
I1
sg43
g2450
sg45
g2451
sbsg79
(dp2464
S'SR'
p2465
I0
sS'CT'
p2466
I0
sS'CR'
p2467
I2
sS'ST'
p2468
I0
ssg81
I00
sg82
(dp2469
g2465
I0
sg2466
I0
sg2467
I0
sg2468
I0
ssg84
(dp2470
g2453
I0
sg2454
I0
sg2455
I12
sg2456
I15
ssg86
I0
sg87
I0
sg88
S'Antbyop'
p2471
sg90
I11
sg91
I0
sg92
I21
sg93
I29
sg94
S'DKF'
p2472
sg96
(dp2473
S'A'
p2474
I8
sS'ME'
p2475
I8
sS'RP2'
p2476
I7
sS'E'
p2477
I9
sS'P'
p2478
I5
sS'RP1'
p2479
I9
sS'JP'
p2480
I3
sS'RP_tot'
p2481
I9
sS'TO'
p2482
I5
sS'PA'
p2483
I6
sS'M'
p2484
I8
sS'R'
p2485
I9
sS'TB'
p2486
I2
sS'PL'
p2487
I5
sS'TA'
p2488
I10
ssg113
(dp2489
S's12'
p2490
(ijoueur
joueur
p2491
(dp2492
g27
F8.275862068965518
sg28
I1
sg30
g31
sg32
I0
sg34
I0
sg35
g36
(g37
g38
Ntp2493
Rp2494
(dp2495
g42
I1
sg43
S'^'
p2496
sg45
S'base'
p2497
sbsg47
(dp2498
S'SR'
p2499
I0
sS'ST'
p2500
I0
sS'CR'
p2501
I0
sS'CT'
p2502
I0
ssg53
(dp2503
g2499
I0
sg2500
I0
sg2501
I0
sg2502
I0
ssg62
I0
sg63
I0
sg359
I0
sg360
I0
sg81
I00
sg65
I0
sg66
I0
sg67
I0
sg68
(S'dummy'
p2504
S'TA'
p2505
g31
g31
tp2506
sg72
I00
sg73
g36
(g37
g38
Ntp2507
Rp2508
(dp2509
g42
I1
sg43
g2496
sg45
g2497
sbsg79
(dp2510
S'SR'
p2511
I0
sS'CT'
p2512
I3
sS'CR'
p2513
I10
sS'ST'
p2514
I0
ssg56
(dp2515
g2511
I0
sg2512
I0
sg2513
I0
sg2514
I0
ssg82
(dp2516
g2511
I0
sg2512
I0
sg2513
I0
sg2514
I0
ssg84
(dp2517
g2499
I0
sg2500
I0
sg2501
I10
sg2502
I15
ssg86
I0
sg87
I0
sg88
S'Antbyop'
p2518
sg90
I11
sg91
I0
sg92
I21
sg93
I29
sg94
S'DKF'
p2519
sg96
(dp2520
S'A'
p2521
I8
sS'ME'
p2522
I8
sS'RP2'
p2523
I6
sS'E'
p2524
I9
sS'TO'
p2525
I5
sS'RP1'
p2526
I9
sS'JP'
p2527
I3
sS'RP_tot'
p2528
I9
sS'P'
p2529
I5
sS'PA'
p2530
I6
sS'M'
p2531
I8
sS'R'
p2532
I8
sS'TB'
p2533
I2
sS'PL'
p2534
I5
sS'TA'
p2535
I9
ssg113
(dp2536
S's11'
p2537
(ijoueur
joueur
p2538
(dp2539
g28
I1
sg32
I0
sg34
I0
sg35
g36
(g37
g38
Ntp2540
Rp2541
(dp2542
g42
I1
sg43
S'^'
p2543
sg45
S'base'
p2544
sbsg47
(dp2545
S'SR'
p2546
I0
sS'ST'
p2547
I0
sS'CR'
p2548
I0
sS'CT'
p2549
I0
ssg53
(dp2550
g2546
I0
sg2547
I0
sg2548
I0
sg2549
I0
ssg62
I0
sg129
F8.275862068965518
sg63
I0
sg359
I0
sg360
I0
sg65
I0
sg66
I0
sg67
I0
sg68
(S'dummy'
p2551
S'TA'
p2552
g31
g31
tp2553
sg72
I00
sg73
g36
(g37
g38
Ntp2554
Rp2555
(dp2556
g42
I1
sg43
g2543
sg45
g2544
sbsg79
(dp2557
g2546
I0
sg2547
I0
sg2548
I0
sg2549
I12
ssg81
I00
sg82
(dp2558
g2546
I0
sg2547
I0
sg2548
I0
sg2549
I0
ssg84
(dp2559
g2546
I0
sg2547
I0
sg2548
I0
sg2549
I12
ssg86
I0
sg87
I0
sg88
S'Antbyop'
p2560
sg90
I11
sg91
I0
sg92
I21
sg93
I29
sg94
S'DKF'
p2561
sg96
(dp2562
S'A'
p2563
I8
sS'ME'
p2564
I8
sS'RP2'
p2565
I6
sS'E'
p2566
I9
sS'TO'
p2567
I5
sS'RP1'
p2568
I9
sS'JP'
p2569
I3
sS'RP_tot'
p2570
I9
sS'P'
p2571
I5
sS'PA'
p2572
I6
sS'M'
p2573
I8
sS'R'
p2574
I9
sS'TB'
p2575
I2
sS'PL'
p2576
I6
sS'TA'
p2577
I9
ssg208
I0
sg209
I0
sg210
I0
sg211
I0
sg56
(dp2578
g2546
I0
sg2547
I0
sg2548
I0
sg2549
I0
ssg212
I0
sg485
I0
sg213
I0
sg214
I0
sg215
(dp2579
S'A'
p2580
I8
sS'ME'
p2581
I8
sS'RP2'
p2582
I6
sS'E'
p2583
I9
sS'TO'
p2584
I5
sS'RP1'
p2585
I9
sS'JP'
p2586
I3
sS'RP_tot'
p2587
I9
sS'P'
p2588
I5
sS'PA'
p2589
I6
sS'M'
p2590
I8
sS'R'
p2591
I9
sS'TB'
p2592
I2
sS'PL'
p2593
I6
sS'TA'
p2594
I9
ssg232
g2562
sg233
I1
sg234
g31
sg235
I0
sg236
I0
sg237
I0
sg238
I6
sg239
I0
sg240
I0
sg241
S'CV'
p2595
sbssg208
I0
sg209
I0
sg210
I0
sg211
I0
sg129
F7.931034482758621
sg212
I0
sg485
I0
sg213
I0
sg214
I0
sg215
(dp2596
S'A'
p2597
I8
sS'ME'
p2598
I8
sS'RP2'
p2599
I6
sS'E'
p2600
I9
sS'TO'
p2601
I5
sS'RP1'
p2602
I9
sS'JP'
p2603
I3
sS'RP_tot'
p2604
I9
sS'P'
p2605
I5
sS'PA'
p2606
I6
sS'M'
p2607
I8
sS'R'
p2608
I9
sS'TB'
p2609
I2
sS'PL'
p2610
I6
sS'TA'
p2611
I9
ssg232
g2520
sg233
I0
sg234
g31
sg235
I0
sg236
I0
sg237
I0
sg238
I6
sg239
I0
sg240
I0
sg241
S'CV'
p2612
sbsS's11'
p2613
(ijoueur
joueur
p2614
(dp2615
g28
I1
sg32
I0
sg34
I0
sg35
g36
(g37
g38
Ntp2616
Rp2617
(dp2618
g42
I1
sg43
S'^'
p2619
sg45
S'base'
p2620
sbsg47
(dp2621
S'SR'
p2622
I0
sS'ST'
p2623
I0
sS'CR'
p2624
I0
sS'CT'
p2625
I0
ssg53
(dp2626
g2622
I0
sg2623
I0
sg2624
I0
sg2625
I0
ssg62
I0
sg129
F8.275862068965518
sg63
I0
sg359
I0
sg360
I0
sg65
I0
sg66
I0
sg67
I0
sg68
(S'dummy'
p2627
S'TA'
p2628
g31
g31
tp2629
sg72
I00
sg73
g36
(g37
g38
Ntp2630
Rp2631
(dp2632
g42
I1
sg43
g2619
sg45
g2620
sbsg79
(dp2633
g2622
I0
sg2623
I0
sg2624
I0
sg2625
I12
ssg81
I00
sg82
(dp2634
g2622
I0
sg2623
I0
sg2624
I0
sg2625
I0
ssg84
(dp2635
g2622
I0
sg2623
I0
sg2624
I0
sg2625
I12
ssg86
I0
sg87
I0
sg88
S'Antbyop'
p2636
sg90
I11
sg91
I0
sg92
I21
sg93
I29
sg94
S'DKF'
p2637
sg96
(dp2638
S'A'
p2639
I8
sS'ME'
p2640
I8
sS'RP2'
p2641
I6
sS'E'
p2642
I9
sS'TO'
p2643
I5
sS'RP1'
p2644
I9
sS'JP'
p2645
I3
sS'RP_tot'
p2646
I9
sS'P'
p2647
I5
sS'PA'
p2648
I6
sS'M'
p2649
I8
sS'R'
p2650
I9
sS'TB'
p2651
I2
sS'PL'
p2652
I6
sS'TA'
p2653
I9
ssg208
I0
sg209
I0
sg210
I0
sg211
I0
sg56
(dp2654
g2622
I0
sg2623
I0
sg2624
I0
sg2625
I0
ssg212
I0
sg485
I0
sg213
I0
sg214
I0
sg215
(dp2655
S'A'
p2656
I8
sS'ME'
p2657
I8
sS'RP2'
p2658
I6
sS'E'
p2659
I9
sS'TO'
p2660
I5
sS'RP1'
p2661
I9
sS'JP'
p2662
I3
sS'RP_tot'
p2663
I9
sS'P'
p2664
I5
sS'PA'
p2665
I6
sS'M'
p2666
I8
sS'R'
p2667
I9
sS'TB'
p2668
I2
sS'PL'
p2669
I6
sS'TA'
p2670
I9
ssg232
g2638
sg233
I1
sg234
g31
sg235
I0
sg236
I0
sg237
I0
sg238
I6
sg239
I0
sg240
I0
sg241
S'CV'
p2671
sbssg208
I7
sg209
I0
sg210
I0
sg211
I0
sg56
(dp2672
g2465
I0
sg2466
I0
sg2467
I0
sg2468
I0
ssg212
I0
sg64
F20.920829379536166
sg485
I0
sg213
I0
sg214
I0
sg215
(dp2673
S'A'
p2674
I8
sS'ME'
p2675
I8
sS'RP2'
p2676
I6
sS'E'
p2677
I9
sS'TO'
p2678
I5
sS'RP1'
p2679
I9
sS'JP'
p2680
I3
sS'RP_tot'
p2681
I9
sS'P'
p2682
I5
sS'PA'
p2683
I6
sS'M'
p2684
I8
sS'R'
p2685
I9
sS'TB'
p2686
I2
sS'PL'
p2687
I6
sS'TA'
p2688
I9
ssg232
(dp2689
g2474
I8
sg2475
I8
sg2476
I7
sg2477
I9
sg2482
I5
sg2479
I9
sg2480
I3
sg2481
I9
sg2478
I5
sg2483
I6
sg2484
I8
sg2485
I9
sg2486
I2
sg2487
I5
sg2488
I10
ssg233
I0
sg340
(dp2690
sg235
I0
sg234
g31
sg236
I0
sg237
I0
sg238
I6
sg239
I0
sg240
I0
sg241
S'CV'
p2691
sbsS'n17'
p2692
(ijoueur
joueur
p2693
(dp2694
g27
F7.111111111111111
sg28
I1
sg29
F8.705882352941176
sg30
g31
sg32
I0
sg33
F63.515536666714446
sg34
I0
sg35
g36
(g37
g38
Ntp2695
Rp2696
(dp2697
g42
I5
sg43
S'xx'
p2698
sg45
S'seigneur'
p2699
sbsg47
(dp2700
S'SR'
p2701
I0
sS'ST'
p2702
I0
sS'CR'
p2703
I0
sS'CT'
p2704
I0
ssg53
(dp2705
g2701
I0
sg2702
I0
sg2703
I0
sg2704
I0
ssg55
I0
sg62
I0
sg63
I0
sg359
I0
sg360
I0
sg81
I00
sg65
I0
sg66
I0
sg67
I0
sg68
(g1963
S'PI'
p2706
g31
g31
tp2707
sg72
I00
sg73
g2696
sg79
(dp2708
g1971
I0
sg1972
I0
sg1973
I0
sg1974
I6
ssg56
(dp2709
g1971
I0
sg1972
I0
sg1973
I0
sg1974
I0
ssg82
(dp2710
g1971
I0
sg1972
I0
sg1973
I0
sg1974
I0
ssg84
(dp2711
g2701
I0
sg2702
I0
sg2703
I9
sg2704
I14
ssg86
I0
sg87
I0
sg88
S'Artmeyer'
p2712
sg90
I11
sg91
I0
sg92
I27
sg93
I251
sg94
g1979
sg96
(dp2713
S'A'
p2714
I7
sS'ME'
p2715
I9
sS'RP2'
p2716
I9
sS'E'
p2717
I11
sS'P'
p2718
I8
sS'RP1'
p2719
I8
sS'JP'
p2720
I6
sS'RP_tot'
p2721
I10
sS'TO'
p2722
I10
sS'PA'
p2723
I10
sS'M'
p2724
I7
sS'R'
p2725
I8
sS'TB'
p2726
I3
sS'PL'
p2727
I9
sS'TA'
p2728
I8
ssg113
(dp2729
g1997
(ijoueur
joueur
p2730
(dp2731
g27
F7.111111111111111
sg28
I1
sg30
g31
sg32
I0
sg34
I0
sg35
g36
(g37
g38
Ntp2732
Rp2733
(dp2734
g42
I5
sg43
S'xx'
p2735
sg45
S'seigneur'
p2736
sbsg47
(dp2737
S'SR'
p2738
I0
sS'ST'
p2739
I0
sS'CR'
p2740
I0
sS'CT'
p2741
I0
ssg53
(dp2742
g2738
I0
sg2739
I0
sg2740
I0
sg2741
I0
ssg56
(dp2743
g2012
I0
sg2013
I0
sg2014
I0
sg2015
I0
ssg62
I0
sg63
I0
sg359
I0
sg360
I0
sg65
I0
sg66
I0
sg67
I0
sg68
(g2016
S'PI'
p2744
g31
g31
tp2745
sg72
I00
sg73
g36
(g37
g38
Ntp2746
Rp2747
(dp2748
g42
I4
sg43
S'x'
p2749
sg45
S'heros'
p2750
sbsg79
(dp2751
g2012
I0
sg2013
I0
sg2014
I7
sg2015
I5
ssg81
I00
sg82
(dp2752
g2012
I0
sg2013
I0
sg2014
I0
sg2015
I0
ssg84
(dp2753
g2738
I0
sg2739
I0
sg2740
I9
sg2741
I8
ssg86
I0
sg87
I0
sg88
S'Artmeyer'
p2754
sg90
I11
sg91
I0
sg92
I27
sg93
I76
sg94
g2027
sg96
(dp2755
S'A'
p2756
I8
sS'ME'
p2757
I8
sS'RP2'
p2758
I8
sS'E'
p2759
I10
sS'TO'
p2760
I9
sS'RP1'
p2761
I8
sS'JP'
p2762
I5
sS'RP_tot'
p2763
I9
sS'P'
p2764
I6
sS'PA'
p2765
I9
sS'M'
p2766
I8
sS'R'
p2767
I8
sS'TB'
p2768
I2
sS'PL'
p2769
I9
sS'TA'
p2770
I7
ssg113
(dp2771
g2045
(ijoueur
joueur
p2772
(dp2773
g28
I0
sg32
I0
sg34
I0
sg35
g36
(g37
g38
Ntp2774
Rp2775
(dp2776
g42
I5
sg43
S'xx'
p2777
sg45
S'seigneur'
p2778
sbsg47
(dp2779
S'SR'
p2780
I0
sS'ST'
p2781
I0
sS'CR'
p2782
I0
sS'CT'
p2783
I0
ssg53
(dp2784
g2780
I0
sg2781
I0
sg2782
I0
sg2783
I0
ssg56
(dp2785
g2780
I0
sg2781
I0
sg2782
I0
sg2783
I0
ssg62
I0
sg63
I0
sg359
I0
sg360
I0
sg65
I0
sg66
I0
sg67
I0
sg68
(S'dummy'
p2786
S'PI'
p2787
g31
g31
tp2788
sg72
I00
sg73
g36
(g37
g38
Ntp2789
Rp2790
(dp2791
g42
I1
sg43
S'>'
p2792
sg45
S'base'
p2793
sbsg79
(dp2794
g2780
I0
sg2781
I0
sg2782
I2
sg2783
I3
ssg81
I00
sg82
(dp2795
g2780
I0
sg2781
I0
sg2782
I0
sg2783
I0
ssg84
(dp2796
g2780
I0
sg2781
I0
sg2782
I2
sg2783
I3
ssg86
I0
sg87
I0
sg88
S'Artmeyer'
p2797
sg90
I11
sg91
I0
sg92
I27
sg93
I8
sg94
S'DKF'
p2798
sg96
(dp2799
S'A'
p2800
I5
sS'ME'
p2801
I8
sS'RP2'
p2802
I6
sS'E'
p2803
I9
sS'TO'
p2804
I5
sS'RP1'
p2805
I7
sS'JP'
p2806
I3
sS'RP_tot'
p2807
I7
sS'P'
p2808
I4
sS'PA'
p2809
I5
sS'M'
p2810
I7
sS'R'
p2811
I7
sS'TB'
p2812
I0
sS'PL'
p2813
I6
sS'TA'
p2814
I6
ssg208
I0
sg209
I0
sg210
I0
sg211
I0
sg129
F7.111111111111111
sg212
I0
sg485
I0
sg213
I0
sg214
I0
sg215
(dp2815
S'A'
p2816
I5
sS'ME'
p2817
I8
sS'RP2'
p2818
I6
sS'E'
p2819
I9
sS'TO'
p2820
I5
sS'RP1'
p2821
I7
sS'JP'
p2822
I3
sS'RP_tot'
p2823
I7
sS'P'
p2824
I4
sS'PA'
p2825
I5
sS'M'
p2826
I7
sS'R'
p2827
I7
sS'TB'
p2828
I0
sS'PL'
p2829
I6
sS'TA'
p2830
I6
ssg232
g2799
sg233
I0
sg234
g31
sg235
I0
sg236
I0
sg237
I0
sg238
I1
sg239
I0
sg240
I0
sg241
S'CV'
p2831
sbssg208
I0
sg209
I0
sg210
I0
sg211
I0
sg129
F8.705882352941176
sg212
I0
sg485
I0
sg213
I0
sg214
I0
sg215
(dp2832
S'A'
p2833
I5
sS'ME'
p2834
I8
sS'RP2'
p2835
I6
sS'E'
p2836
I9
sS'TO'
p2837
I5
sS'RP1'
p2838
I7
sS'JP'
p2839
I3
sS'RP_tot'
p2840
I7
sS'P'
p2841
I4
sS'PA'
p2842
I5
sS'M'
p2843
I7
sS'R'
p2844
I7
sS'TB'
p2845
I0
sS'PL'
p2846
I6
sS'TA'
p2847
I6
ssg232
g2755
sg233
I1
sg234
g31
sg235
I0
sg236
I0
sg237
I0
sg238
I7
sg239
I0
sg240
I0
sg241
S'CV'
p2848
sbsg2122
(ijoueur
joueur
p2849
(dp2850
g28
I0
sg32
I0
sg34
I0
sg35
g36
(g37
g38
Ntp2851
Rp2852
(dp2853
g42
I5
sg43
S'xx'
p2854
sg45
S'seigneur'
p2855
sbsg47
(dp2856
S'SR'
p2857
I0
sS'ST'
p2858
I0
sS'CR'
p2859
I0
sS'CT'
p2860
I0
ssg53
(dp2861
g2857
I0
sg2858
I0
sg2859
I0
sg2860
I0
ssg56
(dp2862
g2857
I0
sg2858
I0
sg2859
I0
sg2860
I0
ssg62
I0
sg63
I0
sg359
I0
sg360
I0
sg65
I0
sg66
I0
sg67
I0
sg68
(S'dummy'
p2863
S'PI'
p2864
g31
g31
tp2865
sg72
I00
sg73
g36
(g37
g38
Ntp2866
Rp2867
(dp2868
g42
I1
sg43
S'>'
p2869
sg45
S'base'
p2870
sbsg79
(dp2871
g2857
I0
sg2858
I0
sg2859
I2
sg2860
I3
ssg81
I00
sg82
(dp2872
g2857
I0
sg2858
I0
sg2859
I0
sg2860
I0
ssg84
(dp2873
g2857
I0
sg2858
I0
sg2859
I2
sg2860
I3
ssg86
I0
sg87
I0
sg88
S'Artmeyer'
p2874
sg90
I11
sg91
I0
sg92
I27
sg93
I8
sg94
S'DKF'
p2875
sg96
(dp2876
S'A'
p2877
I5
sS'ME'
p2878
I8
sS'RP2'
p2879
I6
sS'E'
p2880
I9
sS'TO'
p2881
I5
sS'RP1'
p2882
I7
sS'JP'
p2883
I3
sS'RP_tot'
p2884
I7
sS'P'
p2885
I4
sS'PA'
p2886
I5
sS'M'
p2887
I7
sS'R'
p2888
I7
sS'TB'
p2889
I0
sS'PL'
p2890
I6
sS'TA'
p2891
I6
ssg208
I0
sg209
I0
sg210
I0
sg211
I0
sg129
F7.111111111111111
sg212
I0
sg485
I0
sg213
I0
sg214
I0
sg215
(dp2892
S'A'
p2893
I5
sS'ME'
p2894
I8
sS'RP2'
p2895
I6
sS'E'
p2896
I9
sS'TO'
p2897
I5
sS'RP1'
p2898
I7
sS'JP'
p2899
I3
sS'RP_tot'
p2900
I7
sS'P'
p2901
I4
sS'PA'
p2902
I5
sS'M'
p2903
I7
sS'R'
p2904
I7
sS'TB'
p2905
I0
sS'PL'
p2906
I6
sS'TA'
p2907
I6
ssg232
g2876
sg233
I0
sg234
g31
sg235
I0
sg236
I0
sg237
I0
sg238
I1
sg239
I0
sg240
I0
sg241
S'CV'
p2908
sbssg208
I10
sg209
I0
sg210
I0
sg211
I0
sg129
F9.588235294117647
sg212
I0
sg64
F63.515536666714446
sg485
I0
sg213
I0
sg214
I0
sg215
(dp2909
S'A'
p2910
I5
sS'ME'
p2911
I8
sS'RP2'
p2912
I6
sS'E'
p2913
I9
sS'TO'
p2914
I5
sS'RP1'
p2915
I7
sS'JP'
p2916
I3
sS'RP_tot'
p2917
I7
sS'P'
p2918
I4
sS'PA'
p2919
I5
sS'M'
p2920
I7
sS'R'
p2921
I7
sS'TB'
p2922
I0
sS'PL'
p2923
I6
sS'TA'
p2924
I6
ssg232
(dp2925
g2714
I8
sg2715
I9
sg2716
I9
sg2717
I11
sg2722
I10
sg2719
I8
sg2720
I6
sg2721
I10
sg2718
I8
sg2723
I10
sg2724
I7
sg2725
I9
sg2726
I3
sg2727
I10
sg2728
I8
ssg233
I0
sg340
(dp2926
sg235
I0
sg234
g31
sg236
I0
sg237
I0
sg238
I24
sg239
I0
sg240
I0
sg241
S'CV'
p2927
sbsS'n14'
p2928
(ijoueur
joueur
p2929
(dp2930
g27
F10.193548387096774
sg28
I0
sg29
F9.806451612903226
sg30
g31
sg32
I0
sg33
F74.16952625532213
sg34
I0
sg35
g36
(g37
g38
Ntp2931
Rp2932
(dp2933
g42
I4
sg43
S'x'
p2934
sg45
S'heros'
p2935
sbsg47
(dp2936
S'SR'
p2937
I0
sS'ST'
p2938
I0
sS'CR'
p2939
I0
sS'CT'
p2940
I0
ssg53
(dp2941
g2937
I0
sg2938
I0
sg2939
I2
sg2940
I1
ssg55
I0
sg56
(dp2942
S'SR'
p2943
I0
sS'CT'
p2944
I0
sS'CR'
p2945
I0
sS'ST'
p2946
I0
ssg62
I0
sg63
I0
sg359
I0
sg360
I0
sg65
I0
sg66
I0
sg67
I0
sg68
(S'dummy'
p2947
S'AI'
p2948
S'CE'
p2949
S'AR'
p2950
tp2951
sg72
I00
sg73
g36
(g37
g38
Ntp2952
Rp2953
(dp2954
g42
I4
sg43
g2934
sg45
g2935
sbsg79
(dp2955
g2943
I0
sg2944
I2
sg2945
I4
sg2946
I0
ssg81
I00
sg82
(dp2956
g2943
I0
sg2944
I0
sg2945
I1
sg2946
I0
ssg84
(dp2957
g2937
I0
sg2938
I0
sg2939
I8
sg2940
I22
ssg86
I0
sg87
I0
sg88
S'Baefol'
p2958
sg90
I7
sg91
I0
sg92
I17
sg93
I184
sg94
S'DKF'
p2959
sg96
(dp2960
S'A'
p2961
I11
sS'ME'
p2962
I4
sS'RP2'
p2963
I9
sS'E'
p2964
I9
sS'P'
p2965
I6
sS'RP1'
p2966
I5
sS'JP'
p2967
I5
sS'RP_tot'
p2968
I9
sS'TO'
p2969
I11
sS'PA'
p2970
I11
sS'M'
p2971
I10
sS'R'
p2972
I2
sS'TB'
p2973
I6
sS'PL'
p2974
I9
sS'TA'
p2975
I4
ssg113
(dp2976
S's12'
p2977
(ijoueur
joueur
p2978
(dp2979
g27
F10.193548387096774
sg28
I0
sg30
g31
sg32
I0
sg34
I0
sg35
g36
(g37
g38
Ntp2980
Rp2981
(dp2982
g42
I4
sg43
S'x'
p2983
sg45
S'heros'
p2984
sbsg47
(dp2985
S'SR'
p2986
I0
sS'ST'
p2987
I0
sS'CR'
p2988
I0
sS'CT'
p2989
I0
ssg53
(dp2990
g2986
I0
sg2987
I0
sg2988
I1
sg2989
I1
ssg62
I0
sg129
F9.806451612903226
sg63
I0
sg359
I0
sg360
I0
sg65
I2
sg66
I0
sg67
I0
sg68
(S'dummy'
p2991
S'AI'
p2992
S'CE'
p2993
S'AR'
p2994
tp2995
sg72
I00
sg73
g36
(g37
g38
Ntp2996
Rp2997
(dp2998
g42
I4
sg43
g2983
sg45
g2984
sbsg79
(dp2999
S'SR'
p3000
I0
sS'CT'
p3001
I7
sS'CR'
p3002
I4
sS'ST'
p3003
I0
ssg81
I00
sg82
(dp3004
g3000
I0
sg3001
I1
sg3002
I1
sg3003
I0
ssg84
(dp3005
g2986
I0
sg2987
I0
sg2988
I4
sg2989
I20
ssg86
I0
sg87
I0
sg88
S'Baefol'
p3006
sg90
I7
sg91
I0
sg92
I17
sg93
I184
sg94
S'DKF'
p3007
sg96
(dp3008
S'A'
p3009
I12
sS'ME'
p3010
I4
sS'RP2'
p3011
I9
sS'E'
p3012
I9
sS'TO'
p3013
I11
sS'RP1'
p3014
I5
sS'JP'
p3015
I5
sS'RP_tot'
p3016
I9
sS'P'
p3017
I6
sS'PA'
p3018
I11
sS'M'
p3019
I11
sS'R'
p3020
I3
sS'TB'
p3021
I6
sS'PL'
p3022
I10
sS'TA'
p3023
I4
ssg113
(dp3024
S's11'
p3025
(ijoueur
joueur
p3026
(dp3027
g28
I0
sg32
I0
sg34
I0
sg35
g36
(g37
g38
Ntp3028
Rp3029
(dp3030
g42
I4
sg43
S'x'
p3031
sg45
S'heros'
p3032
sbsg47
(dp3033
S'SR'
p3034
I0
sS'ST'
p3035
I0
sS'CR'
p3036
I0
sS'CT'
p3037
I0
ssg53
(dp3038
g3034
I0
sg3035
I0
sg3036
I0
sg3037
I0
ssg62
I0
sg129
F10.193548387096774
sg63
I0
sg359
I0
sg360
I0
sg65
I1
sg66
I0
sg67
I0
sg68
(S'dummy'
p3039
S'AI'
p3040
S'CE'
p3041
S'AR'
p3042
tp3043
sg72
I00
sg73
g36
(g37
g38
Ntp3044
Rp3045
(dp3046
g42
I4
sg43
g3031
sg45
g3032
sbsg79
(dp3047
g3034
I0
sg3035
I0
sg3036
I0
sg3037
I13
ssg81
I00
sg82
(dp3048
g3034
I0
sg3035
I0
sg3036
I0
sg3037
I0
ssg84
(dp3049
g3034
I0
sg3035
I0
sg3036
I0
sg3037
I13
ssg86
I0
sg87
I0
sg88
S'Baefol'
p3050
sg90
I7
sg91
I0
sg92
I17
sg93
I184
sg94
S'DKF'
p3051
sg96
(dp3052
S'A'
p3053
I12
sS'ME'
p3054
I4
sS'RP2'
p3055
I9
sS'E'
p3056
I10
sS'TO'
p3057
I11
sS'RP1'
p3058
I7
sS'JP'
p3059
I6
sS'RP_tot'
p3060
I9
sS'P'
p3061
I6
sS'PA'
p3062
I12
sS'M'
p3063
I11
sS'R'
p3064
I3
sS'TB'
p3065
I6
sS'PL'
p3066
I11
sS'TA'
p3067
I4
ssg208
I0
sg209
I0
sg210
I0
sg211
I0
sg56
(dp3068
g3034
I0
sg3035
I0
sg3036
I0
sg3037
I0
ssg212
I0
sg485
I0
sg213
I0
sg214
I0
sg215
(dp3069
S'A'
p3070
I12
sS'ME'
p3071
I4
sS'RP2'
p3072
I9
sS'E'
p3073
I10
sS'TO'
p3074
I11
sS'RP1'
p3075
I7
sS'JP'
p3076
I6
sS'RP_tot'
p3077
I9
sS'P'
p3078
I6
sS'PA'
p3079
I12
sS'M'
p3080
I11
sS'R'
p3081
I3
sS'TB'
p3082
I6
sS'PL'
p3083
I11
sS'TA'
p3084
I4
ssg232
g3052
sg233
I0
sg234
g31
sg235
I0
sg236
I0
sg237
I0
sg238
I15
sg239
I4
sg240
I0
sg241
S'ES'
p3085
sbssg208
I0
sg209
I0
sg210
I0
sg211
I0
sg56
(dp3086
g3000
I0
sg3001
I0
sg3002
I0
sg3003
I0
ssg212
I0
sg485
I0
sg213
I0
sg214
I0
sg215
(dp3087
S'A'
p3088
I12
sS'ME'
p3089
I4
sS'RP2'
p3090
I9
sS'E'
p3091
I10
sS'TO'
p3092
I11
sS'RP1'
p3093
I7
sS'JP'
p3094
I6
sS'RP_tot'
p3095
I9
sS'P'
p3096
I6
sS'PA'
p3097
I12
sS'M'
p3098
I11
sS'R'
p3099
I3
sS'TB'
p3100
I6
sS'PL'
p3101
I11
sS'TA'
p3102
I4
ssg232
g3008
sg233
I0
sg234
g31
sg235
I0
sg236
I0
sg237
I0
sg238
I15
sg239
I6
sg240
I0
sg241
S'ES'
p3103
sbsS's11'
p3104
(ijoueur
joueur
p3105
(dp3106
g28
I0
sg32
I0
sg34
I0
sg35
g36
(g37
g38
Ntp3107
Rp3108
(dp3109
g42
I4
sg43
S'x'
p3110
sg45
S'heros'
p3111
sbsg47
(dp3112
S'SR'
p3113
I0
sS'ST'
p3114
I0
sS'CR'
p3115
I0
sS'CT'
p3116
I0
ssg53
(dp3117
g3113
I0
sg3114
I0
sg3115
I0
sg3116
I0
ssg62
I0
sg129
F10.193548387096774
sg63
I0
sg359
I0
sg360
I0
sg65
I1
sg66
I0
sg67
I0
sg68
(S'dummy'
p3118
S'AI'
p3119
S'CE'
p3120
S'AR'
p3121
tp3122
sg72
I00
sg73
g36
(g37
g38
Ntp3123
Rp3124
(dp3125
g42
I4
sg43
g3110
sg45
g3111
sbsg79
(dp3126
g3113
I0
sg3114
I0
sg3115
I0
sg3116
I13
ssg81
I00
sg82
(dp3127
g3113
I0
sg3114
I0
sg3115
I0
sg3116
I0
ssg84
(dp3128
g3113
I0
sg3114
I0
sg3115
I0
sg3116
I13
ssg86
I0
sg87
I0
sg88
S'Baefol'
p3129
sg90
I7
sg91
I0
sg92
I17
sg93
I184
sg94
S'DKF'
p3130
sg96
(dp3131
S'A'
p3132
I12
sS'ME'
p3133
I4
sS'RP2'
p3134
I9
sS'E'
p3135
I10
sS'TO'
p3136
I11
sS'RP1'
p3137
I7
sS'JP'
p3138
I6
sS'RP_tot'
p3139
I9
sS'P'
p3140
I6
sS'PA'
p3141
I12
sS'M'
p3142
I11
sS'R'
p3143
I3
sS'TB'
p3144
I6
sS'PL'
p3145
I11
sS'TA'
p3146
I4
ssg208
I0
sg209
I0
sg210
I0
sg211
I0
sg56
(dp3147
g3113
I0
sg3114
I0
sg3115
I0
sg3116
I0
ssg212
I0
sg485
I0
sg213
I0
sg214
I0
sg215
(dp3148
S'A'
p3149
I12
sS'ME'
p3150
I4
sS'RP2'
p3151
I9
sS'E'
p3152
I10
sS'TO'
p3153
I11
sS'RP1'
p3154
I7
sS'JP'
p3155
I6
sS'RP_tot'
p3156
I9
sS'P'
p3157
I6
sS'PA'
p3158
I12
sS'M'
p3159
I11
sS'R'
p3160
I3
sS'TB'
p3161
I6
sS'PL'
p3162
I11
sS'TA'
p3163
I4
ssg232
g3131
sg233
I0
sg234
g31
sg235
I0
sg236
I0
sg237
I0
sg238
I15
sg239
I4
sg240
I0
sg241
S'ES'
p3164
sbssg208
I10
sg209
I0
sg210
I0
sg211
I0
sg129
F9.64516129032258
sg212
I0
sg64
F74.16952625532213
sg485
I0
sg213
I0
sg214
I0
sg215
(dp3165
S'A'
p3166
I12
sS'ME'
p3167
I4
sS'RP2'
p3168
I9
sS'E'
p3169
I10
sS'TO'
p3170
I11
sS'RP1'
p3171
I7
sS'JP'
p3172
I6
sS'RP_tot'
p3173
I9
sS'P'
p3174
I6
sS'PA'
p3175
I12
sS'M'
p3176
I11
sS'R'
p3177
I3
sS'TB'
p3178
I6
sS'PL'
p3179
I11
sS'TA'
p3180
I4
ssg232
(dp3181
g2961
I12
sg2962
I4
sg2963
I9
sg2964
I9
sg2969
I11
sg2966
I5
sg2967
I5
sg2968
I9
sg2965
I6
sg2970
I11
sg2971
I10
sg2972
I3
sg2973
I6
sg2974
I10
sg2975
I4
ssg233
I0
sg340
(dp3182
sg235
I0
sg234
g31
sg236
I0
sg237
I0
sg238
I15
sg239
I6
sg240
I0
sg241
S'ES'
p3183
sbsS'n15'
p3184
g1437
sS'n18'
p3185
(ijoueur
joueur
p3186
(dp3187
g27
F8.35483870967742
sg28
I0
sg29
F8.921052631578947
sg30
g31
sg32
I0
sg33
I0
sg34
I0
sg35
g36
(g37
g38
Ntp3188
Rp3189
(dp3190
g42
I1
sg43
S'^'
p3191
sg45
g2451
sbsg47
(dp3192
S'SR'
p3193
I0
sS'CT'
p3194
I0
sS'CR'
p3195
I4
sS'ST'
p3196
I0
ssg53
(dp3197
g3193
I0
sg3194
I0
sg3195
I0
sg3196
I0
ssg55
I0
sg62
I0
sg129
F8.921052631578947
sg63
I0
sg359
I0
sg360
I0
sg65
I0
sg66
I0
sg67
I0
sg68
(g2458
S'TL'
p3198
S'DL'
p3199
g31
tp3200
sg72
I00
sg73
g36
(g37
g38
Ntp3201
Rp3202
(dp3203
g42
I1
sg43
g3191
sg45
g2451
sbsg79
(dp3204
g2465
I0
sg2466
I0
sg2467
I0
sg2468
I0
ssg81
I00
sg82
(dp3205
g2465
I0
sg2466
I0
sg2467
I0
sg2468
I0
ssg84
(dp3206
g3193
I0
sg3194
I4
sg3195
I5
sg3196
I0
ssg86
I0
sg87
I0
sg88
S'Iegamor'
p3207
sg90
I11
sg91
I0
sg92
I21
sg93
I41
sg94
g2472
sg96
(dp3208
S'A'
p3209
I8
sS'ME'
p3210
I9
sS'RP2'
p3211
I6
sS'E'
p3212
I11
sS'TO'
p3213
I9
sS'RP1'
p3214
I8
sS'JP'
p3215
I4
sS'RP_tot'
p3216
I8
sS'P'
p3217
I5
sS'PA'
p3218
I6
sS'M'
p3219
I10
sS'R'
p3220
I8
sS'TB'
p3221
I3
sS'PL'
p3222
I10
sS'TA'
p3223
I5
ssg113
(dp3224
g2490
(ijoueur
joueur
p3225
(dp3226
g27
F8.35483870967742
sg28
I0
sg30
g31
sg32
I0
sg34
I0
sg35
g36
(g37
g38
Ntp3227
Rp3228
(dp3229
g42
I1
sg43
S'^'
p3230
sg45
g2497
sbsg47
(dp3231
S'SR'
p3232
I0
sS'CT'
p3233
I0
sS'CR'
p3234
I4
sS'ST'
p3235
I0
ssg53
(dp3236
g3232
I0
sg3233
I0
sg3234
I0
sg3235
I0
ssg62
I0
sg63
I0
sg359
I0
sg360
I0
sg81
I00
sg65
I0
sg66
I0
sg67
I0
sg68
(g2504
S'TL'
p3237
S'DL'
p3238
g31
tp3239
sg72
I00
sg73
g36
(g37
g38
Ntp3240
Rp3241
(dp3242
g42
I1
sg43
g3230
sg45
g2497
sbsg79
(dp3243
g2511
I0
sg2512
I1
sg2513
I0
sg2514
I0
ssg56
(dp3244
g2511
I0
sg2512
I0
sg2513
I4
sg2514
I0
ssg82
(dp3245
g2511
I0
sg2512
I0
sg2513
I0
sg2514
I0
ssg84
(dp3246
g3232
I0
sg3233
I4
sg3234
I5
sg3235
I0
ssg86
I0
sg87
I0
sg88
S'Iegamor'
p3247
sg90
I11
sg91
I0
sg92
I21
sg93
I41
sg94
g2519
sg96
(dp3248
S'A'
p3249
I8
sS'ME'
p3250
I9
sS'RP2'
p3251
I6
sS'E'
p3252
I11
sS'P'
p3253
I5
sS'RP1'
p3254
I8
sS'JP'
p3255
I4
sS'RP_tot'
p3256
I8
sS'TO'
p3257
I9
sS'PA'
p3258
I6
sS'M'
p3259
I10
sS'R'
p3260
I8
sS'TB'
p3261
I3
sS'PL'
p3262
I10
sS'TA'
p3263
I5
ssg113
(dp3264
g2537
(ijoueur
joueur
p3265
(dp3266
g28
I0
sg32
I0
sg34
I1
sg35
g36
(g37
g38
Ntp3267
Rp3268
(dp3269
g42
I1
sg43
S'^'
p3270
sg45
S'base'
p3271
sbsg47
(dp3272
S'SR'
p3273
I0
sS'CT'
p3274
I0
sS'CR'
p3275
I0
sS'ST'
p3276
I0
ssg53
(dp3277
g3273
I0
sg3274
I0
sg3275
I0
sg3276
I0
ssg62
I0
sg129
F8.35483870967742
sg63
I0
sg359
I0
sg360
I0
sg65
I0
sg66
I0
sg67
I0
sg68
(S'dummy'
p3278
S'TL'
p3279
S'DL'
p3280
g31
tp3281
sg72
I00
sg73
g36
(g37
g38
Ntp3282
Rp3283
(dp3284
g42
I1
sg43
g3270
sg45
g3271
sbsg79
(dp3285
g3273
I0
sg3274
I3
sg3275
I5
sg3276
I0
ssg81
I00
sg82
(dp3286
g3273
I0
sg3274
I0
sg3275
I0
sg3276
I0
ssg84
(dp3287
g3273
I0
sg3274
I3
sg3275
I5
sg3276
I0
ssg86
I0
sg87
I0
sg88
S'Iegamor'
p3288
sg90
I11
sg91
I0
sg92
I21
sg93
I41
sg94
S'DKF'
p3289
sg96
(dp3290
S'A'
p3291
I8
sS'ME'
p3292
I8
sS'RP2'
p3293
I6
sS'E'
p3294
I11
sS'P'
p3295
I5
sS'RP1'
p3296
I8
sS'JP'
p3297
I4
sS'RP_tot'
p3298
I8
sS'TO'
p3299
I8
sS'PA'
p3300
I6
sS'M'
p3301
I10
sS'R'
p3302
I7
sS'TB'
p3303
I3
sS'PL'
p3304
I9
sS'TA'
p3305
I5
ssg208
I0
sg209
I0
sg210
I2
sg211
I0
sg56
(dp3306
g3273
I0
sg3274
I0
sg3275
I0
sg3276
I0
ssg212
I0
sg485
I0
sg213
I2
sg214
I0
sg215
(dp3307
S'A'
p3308
I8
sS'ME'
p3309
I8
sS'RP2'
p3310
I6
sS'E'
p3311
I11
sS'P'
p3312
I5
sS'RP1'
p3313
I8
sS'JP'
p3314
I4
sS'RP_tot'
p3315
I8
sS'TO'
p3316
I8
sS'PA'
p3317
I6
sS'M'
p3318
I10
sS'R'
p3319
I7
sS'TB'
p3320
I3
sS'PL'
p3321
I9
sS'TA'
p3322
I5
ssg232
g3290
sg233
I0
sg234
g31
sg235
I0
sg236
I0
sg237
I0
sg238
I6
sg239
I0
sg240
I0
sg241
S'CV'
p3323
sbssg208
I0
sg209
I0
sg210
I2
sg211
I0
sg129
F8.921052631578947
sg212
I0
sg485
I0
sg213
I0
sg214
I0
sg215
(dp3324
S'A'
p3325
I8
sS'ME'
p3326
I8
sS'RP2'
p3327
I6
sS'E'
p3328
I11
sS'P'
p3329
I5
sS'RP1'
p3330
I8
sS'JP'
p3331
I4
sS'RP_tot'
p3332
I8
sS'TO'
p3333
I8
sS'PA'
p3334
I6
sS'M'
p3335
I10
sS'R'
p3336
I7
sS'TB'
p3337
I3
sS'PL'
p3338
I9
sS'TA'
p3339
I5
ssg232
g3248
sg233
I0
sg234
g31
sg235
I0
sg236
I0
sg237
I0
sg238
I6
sg239
I0
sg240
I0
sg241
S'CV'
p3340
sbsg2613
(ijoueur
joueur
p3341
(dp3342
g28
I0
sg32
I0
sg34
I1
sg35
g36
(g37
g38
Ntp3343
Rp3344
(dp3345
g42
I1
sg43
S'^'
p3346
sg45
S'base'
p3347
sbsg47
(dp3348
S'SR'
p3349
I0
sS'CT'
p3350
I0
sS'CR'
p3351
I0
sS'ST'
p3352
I0
ssg53
(dp3353
g3349
I0
sg3350
I0
sg3351
I0
sg3352
I0
ssg62
I0
sg129
F8.35483870967742
sg63
I0
sg359
I0
sg360
I0
sg65
I0
sg66
I0
sg67
I0
sg68
(S'dummy'
p3354
S'TL'
p3355
S'DL'
p3356
g31
tp3357
sg72
I00
sg73
g36
(g37
g38
Ntp3358
Rp3359
(dp3360
g42
I1
sg43
g3346
sg45
g3347
sbsg79
(dp3361
g3349
I0
sg3350
I3
sg3351
I5
sg3352
I0
ssg81
I00
sg82
(dp3362
g3349
I0
sg3350
I0
sg3351
I0
sg3352
I0
ssg84
(dp3363
g3349
I0
sg3350
I3
sg3351
I5
sg3352
I0
ssg86
I0
sg87
I0
sg88
S'Iegamor'
p3364
sg90
I11
sg91
I0
sg92
I21
sg93
I41
sg94
S'DKF'
p3365
sg96
(dp3366
S'A'
p3367
I8
sS'ME'
p3368
I8
sS'RP2'
p3369
I6
sS'E'
p3370
I11
sS'P'
p3371
I5
sS'RP1'
p3372
I8
sS'JP'
p3373
I4
sS'RP_tot'
p3374
I8
sS'TO'
p3375
I8
sS'PA'
p3376
I6
sS'M'
p3377
I10
sS'R'
p3378
I7
sS'TB'
p3379
I3
sS'PL'
p3380
I9
sS'TA'
p3381
I5
ssg208
I0
sg209
I0
sg210
I2
sg211
I0
sg56
(dp3382
g3349
I0
sg3350
I0
sg3351
I0
sg3352
I0
ssg212
I0
sg485
I0
sg213
I2
sg214
I0
sg215
(dp3383
S'A'
p3384
I8
sS'ME'
p3385
I8
sS'RP2'
p3386
I6
sS'E'
p3387
I11
sS'P'
p3388
I5
sS'RP1'
p3389
I8
sS'JP'
p3390
I4
sS'RP_tot'
p3391
I8
sS'TO'
p3392
I8
sS'PA'
p3393
I6
sS'M'
p3394
I10
sS'R'
p3395
I7
sS'TB'
p3396
I3
sS'PL'
p3397
I9
sS'TA'
p3398
I5
ssg232
g3366
sg233
I0
sg234
g31
sg235
I0
sg236
I0
sg237
I0
sg238
I6
sg239
I0
sg240
I0
sg241
S'CV'
p3399
sbssg208
I0
sg209
I0
sg210
I2
sg211
I0
sg56
(dp3400
g2465
I0
sg2466
I0
sg2467
I0
sg2468
I0
ssg212
I0
sg64
I0
sg485
I0
sg213
I0
sg214
I0
sg215
(dp3401
S'A'
p3402
I8
sS'ME'
p3403
I8
sS'RP2'
p3404
I6
sS'E'
p3405
I11
sS'P'
p3406
I5
sS'RP1'
p3407
I8
sS'JP'
p3408
I4
sS'RP_tot'
p3409
I8
sS'TO'
p3410
I8
sS'PA'
p3411
I6
sS'M'
p3412
I10
sS'R'
p3413
I7
sS'TB'
p3414
I3
sS'PL'
p3415
I9
sS'TA'
p3416
I5
ssg232
(dp3417
g3209
I8
sg3210
I9
sg3211
I6
sg3212
I11
sg3217
I5
sg3214
I8
sg3215
I4
sg3216
I8
sg3213
I9
sg3218
I6
sg3219
I10
sg3220
I8
sg3221
I3
sg3222
I10
sg3223
I5
ssg233
I0
sg340
(dp3418
sg235
I0
sg234
g31
sg236
I0
sg237
I0
sg238
I6
sg239
I0
sg240
I0
sg241
S'CV'
p3419
sbsS'n19'
p3420
(ijoueur
joueur
p3421
(dp3422
g27
F9.342105263157896
sg28
I0
sg29
F9.026315789473685
sg30
g31
sg32
I0
sg33
F42.59357867417967
sg34
I0
sg35
g36
(g37
g38
Ntp3423
Rp3424
(dp3425
g42
I4
sg43
S'*'
p3426
sg45
S'heros'
p3427
sbsg47
(dp3428
S'SR'
p3429
I0
sS'CT'
p3430
I0
sS'CR'
p3431
I0
sS'ST'
p3432
I0
ssg53
(dp3433
g3429
I0
sg3430
I0
sg3431
I0
sg3432
I0
ssg55
I0
sg62
I0
sg129
F9.368421052631579
sg63
I0
sg359
I0
sg360
I0
sg65
I0
sg66
I0
sg67
I0
sg68
(S'dummy'
p3434
S'TL'
p3435
g31
g31
tp3436
sg72
I00
sg73
g36
(g37
g38
Ntp3437
Rp3438
(dp3439
g42
I4
sg43
S'*'
p3440
sg45
g3427
sbsg79
(dp3441
g1971
I0
sg1972
I0
sg1973
I4
sg1974
I0
ssg81
I00
sg82
(dp3442
g1971
I0
sg1972
I0
sg1973
I0
sg1974
I0
ssg84
(dp3443
g3429
I0
sg3430
I3
sg3431
I13
sg3432
I0
ssg86
I0
sg87
I0
sg88
S'Rohr'
p3444
sg90
I4
sg91
I0
sg92
I18
sg93
I142
sg94
g1979
sg96
(dp3445
S'A'
p3446
I8
sS'ME'
p3447
I8
sS'RP2'
p3448
I8
sS'E'
p3449
I8
sS'TO'
p3450
I11
sS'RP1'
p3451
I10
sS'JP'
p3452
I4
sS'RP_tot'
p3453
I11
sS'P'
p3454
I4
sS'PA'
p3455
I8
sS'M'
p3456
I7
sS'R'
p3457
I9
sS'TB'
p3458
I4
sS'PL'
p3459
I10
sS'TA'
p3460
I6
ssg113
(dp3461
g1997
(ijoueur
joueur
p3462
(dp3463
g27
F9.342105263157896
sg28
I0
sg30
g31
sg32
I0
sg34
I0
sg35
g36
(g37
g38
Ntp3464
Rp3465
(dp3466
g42
I4
sg43
S'*'
p3467
sg45
S'heros'
p3468
sbsg47
(dp3469
S'SR'
p3470
I0
sS'CT'
p3471
I0
sS'CR'
p3472
I0
sS'ST'
p3473
I0
ssg53
(dp3474
g3470
I0
sg3471
I0
sg3472
I0
sg3473
I0
ssg62
I0
sg63
I0
sg359
I0
sg360
I0
sg81
I00
sg65
I0
sg66
I0
sg67
I0
sg68
(S'dummy'
p3475
S'TL'
p3476
g31
g31
tp3477
sg72
I00
sg73
g36
(g37
g38
Ntp3478
Rp3479
(dp3480
g42
I4
sg43
S'*'
p3481
sg45
g3468
sbsg79
(dp3482
g2012
I0
sg2013
I0
sg2014
I4
sg2015
I2
ssg56
(dp3483
g2012
I0
sg2013
I0
sg2014
I0
sg2015
I0
ssg82
(dp3484
g2012
I0
sg2013
I0
sg2014
I0
sg2015
I0
ssg84
(dp3485
g3470
I0
sg3471
I3
sg3472
I9
sg3473
I0
ssg86
I0
sg87
I0
sg88
S'Rohr'
p3486
sg90
I4
sg91
I0
sg92
I18
sg93
I142
sg94
g2027
sg96
(dp3487
S'A'
p3488
I8
sS'ME'
p3489
I8
sS'RP2'
p3490
I7
sS'E'
p3491
I8
sS'P'
p3492
I4
sS'RP1'
p3493
I10
sS'JP'
p3494
I4
sS'RP_tot'
p3495
I10
sS'TO'
p3496
I11
sS'PA'
p3497
I8
sS'M'
p3498
I7
sS'R'
p3499
I8
sS'TB'
p3500
I4
sS'PL'
p3501
I10
sS'TA'
p3502
I6
ssg113
(dp3503
g2045
(ijoueur
joueur
p3504
(dp3505
g28
I0
sg32
I0
sg34
I0
sg35
g36
(g37
g38
Ntp3506
Rp3507
(dp3508
g42
I4
sg43
S'*'
p3509
sg45
S'heros'
p3510
sbsg47
(dp3511
S'SR'
p3512
I0
sS'CT'
p3513
I0
sS'CR'
p3514
I0
sS'ST'
p3515
I0
ssg53
(dp3516
g3512
I0
sg3513
I0
sg3514
I0
sg3515
I0
ssg62
I0
sg129
F9.342105263157896
sg63
I0
sg359
I0
sg360
I0
sg65
I0
sg66
I0
sg67
I0
sg68
(S'dummy'
p3517
S'TL'
p3518
g31
g31
tp3519
sg72
I01
sg73
g36
(g37
g38
Ntp3520
Rp3521
(dp3522
g42
I4
sg43
S'*'
p3523
sg45
g3510
sbsg79
(dp3524
g3512
I0
sg3513
I1
sg3514
I5
sg3515
I0
ssg81
I00
sg82
(dp3525
g3512
I0
sg3513
I0
sg3514
I0
sg3515
I0
ssg84
(dp3526
g3512
I0
sg3513
I1
sg3514
I5
sg3515
I0
ssg86
I0
sg87
I0
sg88
S'Rohr'
p3527
sg90
I4
sg91
I0
sg92
I18
sg93
I112
sg94
S'ALT'
p3528
sg96
(dp3529
S'A'
p3530
I8
sS'ME'
p3531
I8
sS'RP2'
p3532
I7
sS'E'
p3533
I9
sS'P'
p3534
I4
sS'RP1'
p3535
I10
sS'JP'
p3536
I4
sS'RP_tot'
p3537
I10
sS'TO'
p3538
I11
sS'PA'
p3539
I8
sS'M'
p3540
I8
sS'R'
p3541
I8
sS'TB'
p3542
I4
sS'PL'
p3543
I11
sS'TA'
p3544
I6
ssg208
I0
sg209
I0
sg210
I0
sg211
I0
sg56
(dp3545
g3512
I0
sg3513
I0
sg3514
I0
sg3515
I0
ssg212
I0
sg485
I0
sg213
I0
sg214
I0
sg215
(dp3546
S'A'
p3547
I8
sS'ME'
p3548
I8
sS'RP2'
p3549
I7
sS'E'
p3550
I9
sS'P'
p3551
I4
sS'RP1'
p3552
I10
sS'JP'
p3553
I4
sS'RP_tot'
p3554
I10
sS'TO'
p3555
I11
sS'PA'
p3556
I8
sS'M'
p3557
I8
sS'R'
p3558
I8
sS'TB'
p3559
I4
sS'PL'
p3560
I11
sS'TA'
p3561
I6
ssg232
g3529
sg233
I0
sg234
g31
sg235
I0
sg236
I0
sg237
I0
sg238
I14
sg239
I3
sg240
I0
sg241
S'HB'
p3562
sbssg208
I0
sg209
I0
sg210
I0
sg211
I0
sg129
F9.026315789473685
sg212
I0
sg485
I0
sg213
I0
sg214
I0
sg215
(dp3563
S'A'
p3564
I8
sS'ME'
p3565
I8
sS'RP2'
p3566
I7
sS'E'
p3567
I9
sS'P'
p3568
I4
sS'RP1'
p3569
I10
sS'JP'
p3570
I4
sS'RP_tot'
p3571
I10
sS'TO'
p3572
I11
sS'PA'
p3573
I8
sS'M'
p3574
I8
sS'R'
p3575
I8
sS'TB'
p3576
I4
sS'PL'
p3577
I11
sS'TA'
p3578
I6
ssg232
g3487
sg233
I0
sg234
S'ALT 12'
p3579
sg235
I0
sg236
I0
sg237
I0
sg238
I6
sg239
I3
sg240
I0
sg241
S'HB'
p3580
sbsg2122
(ijoueur
joueur
p3581
(dp3582
g28
I0
sg32
I0
sg34
I0
sg35
g36
(g37
g38
Ntp3583
Rp3584
(dp3585
g42
I4
sg43
S'*'
p3586
sg45
S'heros'
p3587
sbsg47
(dp3588
S'SR'
p3589
I0
sS'CT'
p3590
I0
sS'CR'
p3591
I0
sS'ST'
p3592
I0
ssg53
(dp3593
g3589
I0
sg3590
I0
sg3591
I0
sg3592
I0
ssg62
I0
sg129
F9.342105263157896
sg63
I0
sg359
I0
sg360
I0
sg65
I0
sg66
I0
sg67
I0
sg68
(S'dummy'
p3594
S'TL'
p3595
g31
g31
tp3596
sg72
I01
sg73
g36
(g37
g38
Ntp3597
Rp3598
(dp3599
g42
I4
sg43
S'*'
p3600
sg45
g3587
sbsg79
(dp3601
g3589
I0
sg3590
I1
sg3591
I5
sg3592
I0
ssg81
I00
sg82
(dp3602
g3589
I0
sg3590
I0
sg3591
I0
sg3592
I0
ssg84
(dp3603
g3589
I0
sg3590
I1
sg3591
I5
sg3592
I0
ssg86
I0
sg87
I0
sg88
S'Rohr'
p3604
sg90
I4
sg91
I0
sg92
I18
sg93
I112
sg94
S'ALT'
p3605
sg96
(dp3606
S'A'
p3607
I8
sS'ME'
p3608
I8
sS'RP2'
p3609
I7
sS'E'
p3610
I9
sS'P'
p3611
I4
sS'RP1'
p3612
I10
sS'JP'
p3613
I4
sS'RP_tot'
p3614
I10
sS'TO'
p3615
I11
sS'PA'
p3616
I8
sS'M'
p3617
I8
sS'R'
p3618
I8
sS'TB'
p3619
I4
sS'PL'
p3620
I11
sS'TA'
p3621
I6
ssg208
I0
sg209
I0
sg210
I0
sg211
I0
sg56
(dp3622
g3589
I0
sg3590
I0
sg3591
I0
sg3592
I0
ssg212
I0
sg485
I0
sg213
I0
sg214
I0
sg215
(dp3623
S'A'
p3624
I8
sS'ME'
p3625
I8
sS'RP2'
p3626
I7
sS'E'
p3627
I9
sS'P'
p3628
I4
sS'RP1'
p3629
I10
sS'JP'
p3630
I4
sS'RP_tot'
p3631
I10
sS'TO'
p3632
I11
sS'PA'
p3633
I8
sS'M'
p3634
I8
sS'R'
p3635
I8
sS'TB'
p3636
I4
sS'PL'
p3637
I11
sS'TA'
p3638
I6
ssg232
g3606
sg233
I0
sg234
g31
sg235
I0
sg236
I0
sg237
I0
sg238
I14
sg239
I3
sg240
I0
sg241
S'HB'
p3639
sbssg208
I1
sg209
I0
sg210
I0
sg211
I0
sg56
(dp3640
g1971
I0
sg1972
I0
sg1973
I0
sg1974
I0
ssg212
I0
sg64
F42.59357867417967
sg485
I0
sg213
I0
sg214
I0
sg215
(dp3641
S'A'
p3642
I8
sS'ME'
p3643
I8
sS'RP2'
p3644
I7
sS'E'
p3645
I9
sS'P'
p3646
I4
sS'RP1'
p3647
I10
sS'JP'
p3648
I4
sS'RP_tot'
p3649
I10
sS'TO'
p3650
I11
sS'PA'
p3651
I8
sS'M'
p3652
I8
sS'R'
p3653
I8
sS'TB'
p3654
I4
sS'PL'
p3655
I11
sS'TA'
p3656
I6
ssg232
(dp3657
g3446
I8
sg3447
I8
sg3448
I8
sg3449
I8
sg3454
I4
sg3451
I10
sg3452
I4
sg3453
I11
sg3450
I11
sg3455
I8
sg3456
I7
sg3457
I9
sg3458
I4
sg3459
I10
sg3460
I6
ssg233
I0
sg340
(dp3658
sg235
I0
sg234
S'ALT 12'
p3659
sg236
I0
sg237
I0
sg238
I6
sg239
I3
sg240
I0
sg241
S'HB'
p3660
sbsS'n22'
p3661
(ijoueur
joueur
p3662
(dp3663
g28
I0
sg29
F8.363636363636363
sg30
g31
sg32
I0
sg33
F21.64702457211566
sS'poste3'
p3664
g31
sg34
I0
sS'poste1'
p3665
g31
sg35
g36
(g37
g38
Ntp3666
Rp3667
(dp3668
g42
I4
sg43
S'x'
p3669
sg45
S'heros'
p3670
sbsg47
(dp3671
S'SR'
p3672
I0
sS'ST'
p3673
I0
sS'CR'
p3674
I3
sS'CT'
p3675
I0
ssg53
(dp3676
g3672
I0
sg3673
I0
sg3674
I0
sg3675
I0
ssg55
I0
sg234
g31
sg63
I0
sg64
F21.64702457211566
sg81
I00
sg65
I0
sg66
I0
sg67
I0
sg94
g1979
sg72
I00
sg73
g36
(g37
g38
Ntp3677
Rp3678
(dp3679
g42
I3
sg43
S'^^^'
p3680
sg45
S'rare'
p3681
sbsg79
(dp3682
g1971
I0
sg1972
I0
sg1973
I0
sg1974
I1
ssg56
(dp3683
g1971
I0
sg1972
I0
sg1973
I1
sg1974
I0
ssg82
(dp3684
g1971
I0
sg1972
I0
sg1973
I0
sg1974
I0
ssg84
(dp3685
g3672
I0
sg3673
I0
sg3674
I1
sg3675
I3
ssg86
I0
sg87
I0
sg88
S'Idic'
p3686
sg90
I12
sg91
I0
sg92
I24
sg93
I13
sg68
(S'dummy'
p3687
S'AR'
p3688
S'AI'
p3689
g31
tp3690
sS'poste2'
p3691
g31
sg96
(dp3692
S'RP1'
p3693
I7
sS'ME'
p3694
I4
sS'RP2'
p3695
I10
sS'E'
p3696
I10
sS'P'
p3697
I6
sS'JP'
p3698
I7
sS'M'
p3699
I9
sS'RP_tot'
p3700
I10
sS'TO'
p3701
I3
sS'PA'
p3702
I9
sS'A'
p3703
I10
sS'R'
p3704
I9
sS'TB'
p3705
I6
sS'PL'
p3706
I9
sS'TA'
p3707
I6
ssg113
(dp3708
g1997
(ijoueur
joueur
p3709
(dp3710
g28
I0
sg30
g31
sg32
I0
sg3664
g31
sg34
I0
sg3665
g31
sg35
g36
(g37
g38
Ntp3711
Rp3712
(dp3713
g42
I4
sg43
S'x'
p3714
sg45
S'heros'
p3715
sbsg47
(dp3716
S'SR'
p3717
I0
sS'ST'
p3718
I0
sS'CR'
p3719
I2
sS'CT'
p3720
I0
ssg53
(dp3721
g3717
I0
sg3718
I0
sg3719
I0
sg3720
I0
ssg56
(dp3722
g3717
I0
sg3718
I0
sg3719
I2
sg3720
I0
ssg234
g31
sg63
I0
sg65
I1
sg66
I0
sg67
I0
sg94
g2027
sg72
I00
sg73
g36
(g37
g38
Ntp3723
Rp3724
(dp3725
g42
I1
sg43
S'<'
p3726
sg45
S'base'
p3727
sbsg79
(dp3728
g3717
I0
sg3718
I0
sg3719
I1
sg3720
I2
ssg81
I01
sg82
(dp3729
g3717
I0
sg3718
I0
sg3719
I0
sg3720
I0
ssg84
(dp3730
g3717
I0
sg3718
I0
sg3719
I1
sg3720
I2
ssg86
I0
sg87
I0
sg88
S'Idic'
p3731
sg90
I12
sg91
I0
sg92
I24
sg93
I12
sg68
(S'dummy'
p3732
S'AR'
p3733
S'AI'
p3734
g31
tp3735
sg3691
g31
sg96
(dp3736
S'RP1'
p3737
I7
sS'ME'
p3738
I4
sS'RP2'
p3739
I10
sS'E'
p3740
I7
sS'TO'
p3741
I3
sS'M'
p3742
I9
sS'JP'
p3743
I5
sS'RP_tot'
p3744
I10
sS'P'
p3745
I6
sS'PA'
p3746
I8
sS'A'
p3747
I10
sS'R'
p3748
I8
sS'TB'
p3749
I6
sS'PL'
p3750
I8
sS'TA'
p3751
I6
ssg113
(dp3752
sg208
I0
sg209
I0
sg210
I0
sg211
I0
sg129
F8.363636363636363
sg212
I0
sg213
I0
sg214
I0
sg232
g3736
sg233
I0
sg235
I0
sg236
I0
sg237
I0
sg238
I1
sg239
I1
sg240
I0
sg241
S'CV'
p3753
sbssg208
I3
sg209
I0
sg210
I0
sg211
I0
sg129
F9.151515151515152
sg212
I0
sg213
I0
sg214
I0
sg232
(dp3754
g3693
I7
sg3694
I4
sg3695
I10
sg3696
I10
sg3701
I3
sg3699
I9
sg3698
I7
sg3700
I10
sg3697
I6
sg3702
I9
sg3703
I10
sg3704
I9
sg3705
I6
sg3706
I9
sg3707
I6
ssg233
I0
sg340
(dp3755
sg235
I0
sg236
I0
sg237
I0
sg238
I1
sg239
I1
sg240
I0
sg241
S'CV'
p3756
sbsS'n21'
p3757
(ijoueur
joueur
p3758
(dp3759
g27
F9.580645161290322
sg28
I0
sg29
F9.806451612903226
sg30
g31
sg32
I0
sg33
F74.16952625532213
sg34
I0
sg35
g36
(g37
g38
Ntp3760
Rp3761
(dp3762
g42
I1
sg43
S'^'
p3763
sg45
S'base'
p3764
sbsg47
(dp3765
g2937
I0
sg2938
I0
sg2939
I3
sg2940
I21
ssg53
(dp3766
g2937
I0
sg2938
I0
sg2939
I0
sg2940
I0
ssg55
I0
sg56
(dp3767
g2943
I0
sg2944
I0
sg2945
I0
sg2946
I0
ssg62
I0
sg63
I0
sg359
I0
sg360
I0
sg65
I0
sg66
I0
sg67
I0
sg68
(g2947
S'C2'
p3768
S'AI'
p3769
g31
tp3770
sg72
I00
sg73
g36
(g37
g38
Ntp3771
Rp3772
(dp3773
g42
I1
sg43
g3763
sg45
g3764
sbsg79
(dp3774
g2943
I0
sg2944
I2
sg2945
I5
sg2946
I0
ssg81
I00
sg82
(dp3775
g2943
I0
sg2944
I0
sg2945
I0
sg2946
I0
ssg84
(dp3776
g2937
I0
sg2938
I0
sg2939
I5
sg2940
I4
ssg86
I11
sg87
I0
sg88
S'Eathol'
p3777
sg90
I6
sg91
I1
sg92
I14
sg93
I36
sg94
g2959
sg96
(dp3778
g2961
I9
sg2962
I3
sg2963
I7
sg2964
I9
sg2965
I9
sg2966
I10
sg2967
I5
sg2968
I10
sg2969
I6
sg2970
I11
sg2971
I10
sg2972
I4
sg2973
I11
sg2974
I9
sg2975
I4
ssg113
(dp3779
g2977
(ijoueur
joueur
p3780
(dp3781
g27
F9.580645161290322
sg28
I0
sg30
g31
sg32
I0
sg34
I0
sg35
g36
(g37
g38
Ntp3782
Rp3783
(dp3784
g42
I1
sg43
S'^'
p3785
sg45
S'base'
p3786
sbsg47
(dp3787
g2986
I0
sg2987
I0
sg2988
I3
sg2989
I21
ssg53
(dp3788
g2986
I0
sg2987
I0
sg2988
I0
sg2989
I0
ssg62
I0
sg129
F9.806451612903226
sg63
I0
sg359
I0
sg360
I0
sg65
I1
sg66
I3
sg67
I0
sg68
(g2991
S'C2'
p3789
S'AI'
p3790
g31
tp3791
sg72
I00
sg73
g36
(g37
g38
Ntp3792
Rp3793
(dp3794
g42
I1
sg43
g3785
sg45
g3786
sbsg79
(dp3795
g3000
I0
sg3001
I0
sg3002
I0
sg3003
I0
ssg81
I01
sg82
(dp3796
g3000
I0
sg3001
I0
sg3002
I0
sg3003
I0
ssg84
(dp3797
g2986
I0
sg2987
I0
sg2988
I0
sg2989
I2
ssg86
I11
sg87
I5
sg88
S'Eathol'
p3798
sg90
I6
sg91
I1
sg92
I14
sg93
I36
sg94
g3007
sg96
(dp3799
g3009
I11
sg3010
I3
sg3011
I7
sg3012
I10
sg3013
I6
sg3014
I10
sg3015
I5
sg3016
I10
sg3017
I9
sg3018
I11
sg3019
I10
sg3020
I5
sg3021
I11
sg3022
I10
sg3023
I4
ssg113
(dp3800
g3025
(ijoueur
joueur
p3801
(dp3802
g28
I0
sg32
I0
sg34
I0
sg35
g36
(g37
g38
Ntp3803
Rp3804
(dp3805
g42
I1
sg43
S'^'
p3806
sg45
S'base'
p3807
sbsg47
(dp3808
S'SR'
p3809
I0
sS'ST'
p3810
I0
sS'CR'
p3811
I1
sS'CT'
p3812
I10
ssg53
(dp3813
g3809
I0
sg3810
I0
sg3811
I0
sg3812
I0
ssg62
I0
sg129
F9.580645161290322
sg63
I0
sg359
I0
sg360
I0
sg65
I0
sg66
I0
sg67
I1
sg68
(S'dummy'
p3814
S'C2'
p3815
S'AI'
p3816
g31
tp3817
sg72
I00
sg73
g36
(g37
g38
Ntp3818
Rp3819
(dp3820
g42
I1
sg43
g3806
sg45
g3807
sbsg79
(dp3821
g3809
I0
sg3810
I0
sg3811
I0
sg3812
I2
ssg81
I01
sg82
(dp3822
g3809
I0
sg3810
I0
sg3811
I0
sg3812
I0
ssg84
(dp3823
g3809
I0
sg3810
I0
sg3811
I0
sg3812
I2
ssg86
I6
sg87
I6
sg88
S'Eathol'
p3824
sg90
I6
sg91
I1
sg92
I14
sg93
I36
sg94
S'DKF'
p3825
sg96
(dp3826
S'A'
p3827
I11
sS'ME'
p3828
I3
sS'RP2'
p3829
I7
sS'E'
p3830
I10
sS'TO'
p3831
I6
sS'RP1'
p3832
I9
sS'JP'
p3833
I6
sS'RP_tot'
p3834
I9
sS'P'
p3835
I9
sS'PA'
p3836
I11
sS'M'
p3837
I9
sS'R'
p3838
I6
sS'TB'
p3839
I10
sS'PL'
p3840
I10
sS'TA'
p3841
I4
ssg208
I0
sg209
I0
sg210
I0
sg211
I0
sg56
(dp3842
g3809
I0
sg3810
I0
sg3811
I1
sg3812
I10
ssg212
I0
sg485
I0
sg213
I0
sg214
I0
sg215
(dp3843
S'A'
p3844
I11
sS'ME'
p3845
I3
sS'RP2'
p3846
I7
sS'E'
p3847
I10
sS'TO'
p3848
I6
sS'RP1'
p3849
I9
sS'JP'
p3850
I6
sS'RP_tot'
p3851
I9
sS'P'
p3852
I9
sS'PA'
p3853
I11
sS'M'
p3854
I9
sS'R'
p3855
I6
sS'TB'
p3856
I10
sS'PL'
p3857
I10
sS'TA'
p3858
I4
ssg232
g3826
sg233
I0
sg234
g31
sg235
I0
sg236
I0
sg237
I0
sg238
I2
sg239
I2
sg240
I0
sg241
S'HE'
p3859
sbssg208
I0
sg209
I0
sg210
I0
sg211
I0
sg56
(dp3860
g3000
I0
sg3001
I11
sg3002
I2
sg3003
I0
ssg212
I3
sg485
I0
sg213
I0
sg214
I0
sg215
(dp3861
g3088
I11
sg3089
I3
sg3090
I7
sg3091
I10
sg3092
I6
sg3093
I9
sg3094
I6
sg3095
I9
sg3096
I9
sg3097
I11
sg3098
I9
sg3099
I6
sg3100
I10
sg3101
I10
sg3102
I4
ssg232
g3799
sg233
I0
sg234
g31
sg235
I0
sg236
I0
sg237
I0
sg238
I2
sg239
I3
sg240
I0
sg241
S'HE'
p3862
sbsg3104
(ijoueur
joueur
p3863
(dp3864
g28
I0
sg32
I0
sg34
I0
sg35
g36
(g37
g38
Ntp3865
Rp3866
(dp3867
g42
I1
sg43
S'^'
p3868
sg45
S'base'
p3869
sbsg47
(dp3870
S'SR'
p3871
I0
sS'ST'
p3872
I0
sS'CR'
p3873
I1
sS'CT'
p3874
I10
ssg53
(dp3875
g3871
I0
sg3872
I0
sg3873
I0
sg3874
I0
ssg62
I0
sg129
F9.580645161290322
sg63
I0
sg359
I0
sg360
I0
sg65
I0
sg66
I0
sg67
I1
sg68
(S'dummy'
p3876
S'C2'
p3877
S'AI'
p3878
g31
tp3879
sg72
I00
sg73
g36
(g37
g38
Ntp3880
Rp3881
(dp3882
g42
I1
sg43
g3868
sg45
g3869
sbsg79
(dp3883
g3871
I0
sg3872
I0
sg3873
I0
sg3874
I2
ssg81
I01
sg82
(dp3884
g3871
I0
sg3872
I0
sg3873
I0
sg3874
I0
ssg84
(dp3885
g3871
I0
sg3872
I0
sg3873
I0
sg3874
I2
ssg86
I6
sg87
I6
sg88
S'Eathol'
p3886
sg90
I6
sg91
I1
sg92
I14
sg93
I36
sg94
S'DKF'
p3887
sg96
(dp3888
S'A'
p3889
I11
sS'ME'
p3890
I3
sS'RP2'
p3891
I7
sS'E'
p3892
I10
sS'TO'
p3893
I6
sS'RP1'
p3894
I9
sS'JP'
p3895
I6
sS'RP_tot'
p3896
I9
sS'P'
p3897
I9
sS'PA'
p3898
I11
sS'M'
p3899
I9
sS'R'
p3900
I6
sS'TB'
p3901
I10
sS'PL'
p3902
I10
sS'TA'
p3903
I4
ssg208
I0
sg209
I0
sg210
I0
sg211
I0
sg56
(dp3904
g3871
I0
sg3872
I0
sg3873
I1
sg3874
I10
ssg212
I0
sg485
I0
sg213
I0
sg214
I0
sg215
(dp3905
S'A'
p3906
I11
sS'ME'
p3907
I3
sS'RP2'
p3908
I7
sS'E'
p3909
I10
sS'TO'
p3910
I6
sS'RP1'
p3911
I9
sS'JP'
p3912
I6
sS'RP_tot'
p3913
I9
sS'P'
p3914
I9
sS'PA'
p3915
I11
sS'M'
p3916
I9
sS'R'
p3917
I6
sS'TB'
p3918
I10
sS'PL'
p3919
I10
sS'TA'
p3920
I4
ssg232
g3888
sg233
I0
sg234
g31
sg235
I0
sg236
I0
sg237
I0
sg238
I2
sg239
I2
sg240
I0
sg241
S'HE'
p3921
sbssg208
I11
sg209
I0
sg210
I0
sg211
I0
sg129
F9.548387096774194
sg212
I3
sg64
F74.16952625532213
sg485
I0
sg213
I0
sg214
I0
sg215
(dp3922
g3166
I11
sg3167
I3
sg3168
I7
sg3169
I10
sg3170
I6
sg3171
I9
sg3172
I6
sg3173
I9
sg3174
I9
sg3175
I11
sg3176
I9
sg3177
I6
sg3178
I10
sg3179
I10
sg3180
I4
ssg232
(dp3923
g2961
I10
sg2962
I3
sg2963
I7
sg2964
I9
sg2969
I6
sg2966
I10
sg2967
I5
sg2968
I10
sg2965
I9
sg2970
I11
sg2971
I10
sg2972
I5
sg2973
I11
sg2974
I10
sg2975
I4
ssg233
I0
sg340
(dp3924
sg235
I0
sg234
g31
sg236
I0
sg237
I0
sg238
I2
sg239
I3
sg240
I0
sg241
S'HE'
p3925
sbsS'n20'
p3926
(ijoueur
joueur
p3927
(dp3928
g27
F7.833333333333333
sg28
I0
sg29
F8.666666666666666
sg30
g31
sg32
I0
sg33
F53.15965222610532
sg34
I0
sg35
g36
(g37
g38
Ntp3929
Rp3930
(dp3931
g42
I1
sg43
S'<'
p3932
sg45
S'base'
p3933
sbsg47
(dp3934
S'SR'
p3935
I0
sS'CT'
p3936
I0
sS'CR'
p3937
I2
sS'ST'
p3938
I0
ssg53
(dp3939
g3935
I0
sg3936
I1
sg3937
I3
sg3938
I0
ssg55
I0
sg62
I0
sg63
I0
sg359
I0
sg360
I0
sg81
I00
sg65
I0
sg66
I0
sg67
I0
sg68
(g1963
S'C1'
p3940
S'DO'
p3941
S'DM'
p3942
tp3943
sg72
I00
sg73
g36
(g37
g38
Ntp3944
Rp3945
(dp3946
g42
I1
sg43
g3932
sg45
g3933
sbsg79
(dp3947
g1971
I0
sg1972
I0
sg1973
I1
sg1974
I0
ssg56
(dp3948
g1971
I0
sg1972
I0
sg1973
I1
sg1974
I0
ssg82
(dp3949
g1971
I0
sg1972
I0
sg1973
I2
sg1974
I1
ssg84
(dp3950
g3935
I0
sg3936
I1
sg3937
I2
sg3938
I0
ssg86
I0
sg87
I0
sg88
S'Xevarh'
p3951
sg90
I8
sg91
I0
sg92
I15
sg93
I14
sg94
g1979
sg96
(dp3952
S'A'
p3953
I8
sS'ME'
p3954
I4
sS'RP2'
p3955
I6
sS'E'
p3956
I8
sS'TO'
p3957
I2
sS'RP1'
p3958
I6
sS'JP'
p3959
I8
sS'RP_tot'
p3960
I7
sS'P'
p3961
I7
sS'PA'
p3962
I13
sS'M'
p3963
I7
sS'R'
p3964
I8
sS'TB'
p3965
I5
sS'PL'
p3966
I11
sS'TA'
p3967
I6
ssg113
(dp3968
g1997
(ijoueur
joueur
p3969
(dp3970
g27
F7.833333333333333
sg28
I0
sg30
g31
sg32
I0
sg34
I0
sg35
g36
(g37
g38
Ntp3971
Rp3972
(dp3973
g42
I1
sg43
S'<'
p3974
sg45
S'base'
p3975
sbsg47
(dp3976
S'SR'
p3977
I0
sS'CT'
p3978
I0
sS'CR'
p3979
I1
sS'ST'
p3980
I0
ssg53
(dp3981
g3977
I0
sg3978
I0
sg3979
I1
sg3980
I0
ssg56
(dp3982
g2012
I0
sg2013
I0
sg2014
I1
sg2015
I0
ssg62
I0
sg63
I0
sg359
I0
sg360
I0
sg65
I0
sg66
I0
sg67
I0
sg68
(g2016
S'C1'
p3983
S'DO'
p3984
S'DM'
p3985
tp3986
sg72
I00
sg73
g36
(g37
g38
Ntp3987
Rp3988
(dp3989
g42
I1
sg43
g3974
sg45
g3975
sbsg79
(dp3990
g2012
I0
sg2013
I0
sg2014
I1
sg2015
I1
ssg81
I00
sg82
(dp3991
g2012
I0
sg2013
I0
sg2014
I1
sg2015
I0
ssg84
(dp3992
g3977
I0
sg3978
I1
sg3979
I1
sg3980
I0
ssg86
I0
sg87
I0
sg88
S'Xevarh'
p3993
sg90
I8
sg91
I0
sg92
I15
sg93
I14
sg94
g2027
sg96
(dp3994
S'A'
p3995
I8
sS'ME'
p3996
I4
sS'RP2'
p3997
I6
sS'E'
p3998
I8
sS'P'
p3999
I7
sS'RP1'
p4000
I6
sS'JP'
p4001
I7
sS'RP_tot'
p4002
I6
sS'TO'
p4003
I2
sS'PA'
p4004
I13
sS'M'
p4005
I7
sS'R'
p4006
I8
sS'TB'
p4007
I5
sS'PL'
p4008
I11
sS'TA'
p4009
I6
ssg113
(dp4010
g2045
(ijoueur
joueur
p4011
(dp4012
g28
I0
sg32
I0
sg34
I0
sg35
g36
(g37
g38
Ntp4013
Rp4014
(dp4015
g42
I1
sg43
S'<'
p4016
sg45
S'base'
p4017
sbsg47
(dp4018
S'SR'
p4019
I0
sS'CT'
p4020
I0
sS'CR'
p4021
I0
sS'ST'
p4022
I0
ssg53
(dp4023
g4019
I0
sg4020
I0
sg4021
I0
sg4022
I0
ssg56
(dp4024
g4019
I0
sg4020
I0
sg4021
I0
sg4022
I0
ssg62
I0
sg63
I0
sg359
I0
sg360
I0
sg65
I0
sg66
I0
sg67
I0
sg68
(S'dummy'
p4025
S'C1'
p4026
S'DO'
p4027
S'DM'
p4028
tp4029
sg72
I00
sg73
g36
(g37
g38
Ntp4030
Rp4031
(dp4032
g42
I1
sg43
g4016
sg45
g4017
sbsg79
(dp4033
g4019
I0
sg4020
I0
sg4021
I0
sg4022
I0
ssg81
I00
sg82
(dp4034
g4019
I0
sg4020
I0
sg4021
I0
sg4022
I0
ssg84
(dp4035
g4019
I0
sg4020
I0
sg4021
I0
sg4022
I0
ssg86
I0
sg87
I0
sg88
S'Xevarh'
p4036
sg90
I8
sg91
I0
sg92
I15
sg93
I14
sg94
S'DKF'
p4037
sg96
(dp4038
S'A'
p4039
I7
sS'ME'
p4040
I4
sS'RP2'
p4041
I6
sS'E'
p4042
I8
sS'P'
p4043
I7
sS'RP1'
p4044
I6
sS'JP'
p4045
I7
sS'RP_tot'
p4046
I6
sS'TO'
p4047
I2
sS'PA'
p4048
I9
sS'M'
p4049
I7
sS'R'
p4050
I8
sS'TB'
p4051
I5
sS'PL'
p4052
I10
sS'TA'
p4053
I6
ssg208
I0
sg209
I0
sg210
I0
sg211
I0
sg129
F7.833333333333333
sg212
I0
sg485
I0
sg213
I0
sg214
I0
sg215
(dp4054
S'A'
p4055
I7
sS'ME'
p4056
I4
sS'RP2'
p4057
I6
sS'E'
p4058
I8
sS'P'
p4059
I7
sS'RP1'
p4060
I6
sS'JP'
p4061
I7
sS'RP_tot'
p4062
I6
sS'TO'
p4063
I2
sS'PA'
p4064
I9
sS'M'
p4065
I7
sS'R'
p4066
I8
sS'TB'
p4067
I5
sS'PL'
p4068
I10
sS'TA'
p4069
I6
ssg232
g4038
sg233
I0
sg234
g31
sg235
I0
sg236
I0
sg237
I0
sg238
I2
sg239
I0
sg240
I0
sg241
S'CV'
p4070
sbssg208
I0
sg209
I0
sg210
I0
sg211
I0
sg129
F8.666666666666666
sg212
I0
sg485
I0
sg213
I0
sg214
I0
sg215
(dp4071
S'A'
p4072
I7
sS'ME'
p4073
I4
sS'RP2'
p4074
I6
sS'E'
p4075
I8
sS'P'
p4076
I7
sS'RP1'
p4077
I6
sS'JP'
p4078
I7
sS'RP_tot'
p4079
I6
sS'TO'
p4080
I2
sS'PA'
p4081
I9
sS'M'
p4082
I7
sS'R'
p4083
I8
sS'TB'
p4084
I5
sS'PL'
p4085
I10
sS'TA'
p4086
I6
ssg232
g3994
sg233
I0
sg234
g31
sg235
I0
sg236
I0
sg237
I0
sg238
I2
sg239
I0
sg240
I0
sg241
S'CV'
p4087
sbsg2122
(ijoueur
joueur
p4088
(dp4089
g28
I0
sg32
I0
sg34
I0
sg35
g36
(g37
g38
Ntp4090
Rp4091
(dp4092
g42
I1
sg43
S'<'
p4093
sg45
S'base'
p4094
sbsg47
(dp4095
S'SR'
p4096
I0
sS'CT'
p4097
I0
sS'CR'
p4098
I0
sS'ST'
p4099
I0
ssg53
(dp4100
g4096
I0
sg4097
I0
sg4098
I0
sg4099
I0
ssg56
(dp4101
g4096
I0
sg4097
I0
sg4098
I0
sg4099
I0
ssg62
I0
sg63
I0
sg359
I0
sg360
I0
sg65
I0
sg66
I0
sg67
I0
sg68
(S'dummy'
p4102
S'C1'
p4103
S'DO'
p4104
S'DM'
p4105
tp4106
sg72
I00
sg73
g36
(g37
g38
Ntp4107
Rp4108
(dp4109
g42
I1
sg43
g4093
sg45
g4094
sbsg79
(dp4110
g4096
I0
sg4097
I0
sg4098
I0
sg4099
I0
ssg81
I00
sg82
(dp4111
g4096
I0
sg4097
I0
sg4098
I0
sg4099
I0
ssg84
(dp4112
g4096
I0
sg4097
I0
sg4098
I0
sg4099
I0
ssg86
I0
sg87
I0
sg88
S'Xevarh'
p4113
sg90
I8
sg91
I0
sg92
I15
sg93
I14
sg94
S'DKF'
p4114
sg96
(dp4115
S'A'
p4116
I7
sS'ME'
p4117
I4
sS'RP2'
p4118
I6
sS'E'
p4119
I8
sS'P'
p4120
I7
sS'RP1'
p4121
I6
sS'JP'
p4122
I7
sS'RP_tot'
p4123
I6
sS'TO'
p4124
I2
sS'PA'
p4125
I9
sS'M'
p4126
I7
sS'R'
p4127
I8
sS'TB'
p4128
I5
sS'PL'
p4129
I10
sS'TA'
p4130
I6
ssg208
I0
sg209
I0
sg210
I0
sg211
I0
sg129
F7.833333333333333
sg212
I0
sg485
I0
sg213
I0
sg214
I0
sg215
(dp4131
S'A'
p4132
I7
sS'ME'
p4133
I4
sS'RP2'
p4134
I6
sS'E'
p4135
I8
sS'P'
p4136
I7
sS'RP1'
p4137
I6
sS'JP'
p4138
I7
sS'RP_tot'
p4139
I6
sS'TO'
p4140
I2
sS'PA'
p4141
I9
sS'M'
p4142
I7
sS'R'
p4143
I8
sS'TB'
p4144
I5
sS'PL'
p4145
I10
sS'TA'
p4146
I6
ssg232
g4115
sg233
I0
sg234
g31
sg235
I0
sg236
I0
sg237
I0
sg238
I2
sg239
I0
sg240
I0
sg241
S'CV'
p4147
sbssg208
I5
sg209
I0
sg210
I0
sg211
I0
sg129
F8.866666666666667
sg212
I0
sg64
F53.15965222610532
sg485
I0
sg213
I0
sg214
I0
sg215
(dp4148
S'A'
p4149
I7
sS'ME'
p4150
I4
sS'RP2'
p4151
I6
sS'E'
p4152
I8
sS'P'
p4153
I7
sS'RP1'
p4154
I6
sS'JP'
p4155
I7
sS'RP_tot'
p4156
I6
sS'TO'
p4157
I2
sS'PA'
p4158
I9
sS'M'
p4159
I7
sS'R'
p4160
I8
sS'TB'
p4161
I5
sS'PL'
p4162
I10
sS'TA'
p4163
I6
ssg232
(dp4164
g3953
I8
sg3954
I4
sg3955
I6
sg3956
I8
sg3961
I7
sg3958
I6
sg3959
I8
sg3960
I7
sg3957
I2
sg3962
I13
sg3963
I7
sg3964
I8
sg3965
I5
sg3966
I11
sg3967
I6
ssg233
I0
sg340
(dp4165
sg235
I0
sg234
g31
sg236
I0
sg237
I0
sg238
I2
sg239
I0
sg240
I0
sg241
S'CV'
p4166
sbsS'n8'
p4167
(ijoueur
joueur
p4168
(dp4169
g27
F9.472222222222221
sg28
I1
sg29
F9.444444444444445
sg30
g31
sg32
I0
sg33
F32.30101416072335
sg34
I0
sg35
g36
(g37
g38
Ntp4170
Rp4171
(dp4172
g42
I2
sg43
S'<<'
p4173
sg45
S'special'
p4174
sbsg47
(dp4175
S'SR'
p4176
I0
sS'ST'
p4177
I0
sS'CR'
p4178
I2
sS'CT'
p4179
I2
ssg53
(dp4180
g4176
I0
sg4177
I0
sg4178
I0
sg4179
I0
ssg55
I0
sg62
I0
sg129
F9.444444444444445
sg63
I0
sg64
F32.30101416072335
sg65
I0
sg66
I0
sg67
I0
sg68
(S'dummy'
p4181
S'N8'
p4182
S'DL'
p4183
g31
tp4184
sg72
I00
sg73
g36
(g37
g38
Ntp4185
Rp4186
(dp4187
g42
I2
sg43
S'<<'
p4188
sg45
g4174
sbsg79
(dp4189
g2465
I0
sg2466
I1
sg2467
I0
sg2468
I0
ssg81
I00
sg82
(dp4190
g2465
I0
sg2466
I0
sg2467
I0
sg2468
I0
ssg84
(dp4191
g4176
I0
sg4177
I0
sg4178
I7
sg4179
I17
ssg86
I0
sg87
I0
sg88
S'Famyed'
p4192
sg90
I6
sg91
I0
sg92
I13
sg93
I50
sg94
g2472
sg96
(dp4193
S'A'
p4194
I11
sS'ME'
p4195
I9
sS'RP2'
p4196
I6
sS'E'
p4197
I12
sS'P'
p4198
I4
sS'RP1'
p4199
I9
sS'JP'
p4200
I4
sS'RP_tot'
p4201
I9
sS'TO'
p4202
I10
sS'PA'
p4203
I9
sS'M'
p4204
I7
sS'R'
p4205
I8
sS'TB'
p4206
I5
sS'PL'
p4207
I9
sS'TA'
p4208
I4
ssg113
(dp4209
g2490
(ijoueur
joueur
p4210
(dp4211
g27
F9.472222222222221
sg28
I1
sg30
g31
sg32
I0
sg34
I0
sg35
g36
(g37
g38
Ntp4212
Rp4213
(dp4214
g42
I2
sg43
S'<<'
p4215
sg45
S'special'
p4216
sbsg47
(dp4217
S'SR'
p4218
I0
sS'ST'
p4219
I0
sS'CR'
p4220
I2
sS'CT'
p4221
I0
ssg53
(dp4222
g4218
I0
sg4219
I0
sg4220
I0
sg4221
I0
ssg62
I0
sg63
I0
sg81
I00
sg65
I0
sg66
I0
sg67
I0
sg68
(S'dummy'
p4223
S'N8'
p4224
S'DL'
p4225
g31
tp4226
sg72
I00
sg73
g36
(g37
g38
Ntp4227
Rp4228
(dp4229
g42
I2
sg43
S'<<'
p4230
sg45
g4216
sbsg79
(dp4231
g2511
I0
sg2512
I5
sg2513
I6
sg2514
I0
ssg56
(dp4232
g2511
I0
sg2512
I0
sg2513
I2
sg2514
I0
ssg82
(dp4233
g2511
I0
sg2512
I0
sg2513
I0
sg2514
I0
ssg84
(dp4234
g4218
I0
sg4219
I0
sg4220
I7
sg4221
I16
ssg86
I0
sg87
I0
sg88
S'Famyed'
p4235
sg90
I6
sg91
I0
sg92
I13
sg93
I50
sg94
g2519
sg96
(dp4236
S'A'
p4237
I11
sS'ME'
p4238
I9
sS'RP2'
p4239
I6
sS'E'
p4240
I12
sS'TO'
p4241
I10
sS'RP1'
p4242
I9
sS'JP'
p4243
I4
sS'RP_tot'
p4244
I9
sS'P'
p4245
I4
sS'PA'
p4246
I9
sS'M'
p4247
I7
sS'R'
p4248
I8
sS'TB'
p4249
I5
sS'PL'
p4250
I9
sS'TA'
p4251
I4
ssg113
(dp4252
g2537
(ijoueur
joueur
p4253
(dp4254
g28
I1
sg32
I0
sg34
I0
sg35
g36
(g37
g38
Ntp4255
Rp4256
(dp4257
g42
I2
sg43
S'<<'
p4258
sg45
S'special'
p4259
sbsg47
(dp4260
S'SR'
p4261
I0
sS'ST'
p4262
I0
sS'CR'
p4263
I0
sS'CT'
p4264
I0
ssg53
(dp4265
g4261
I0
sg4262
I0
sg4263
I0
sg4264
I0
ssg62
I0
sg63
I0
sg81
I01
sg65
I3
sg66
I0
sg67
I0
sg68
(S'dummy'
p4266
S'N8'
p4267
S'DL'
p4268
g31
tp4269
sg72
I01
sg73
g36
(g37
g38
Ntp4270
Rp4271
(dp4272
g42
I2
sg43
S'<<'
p4273
sg45
g4259
sbsg79
(dp4274
g4261
I0
sg4262
I0
sg4263
I1
sg4264
I11
ssg56
(dp4275
g4261
I0
sg4262
I0
sg4263
I0
sg4264
I0
ssg82
(dp4276
g4261
I0
sg4262
I0
sg4263
I0
sg4264
I0
ssg84
(dp4277
g4261
I0
sg4262
I0
sg4263
I1
sg4264
I11
ssg86
I0
sg87
I0
sg88
S'Famyed'
p4278
sg90
I6
sg91
I0
sg92
I13
sg93
I11
sg94
S'CAT'
p4279
sg96
(dp4280
S'A'
p4281
I11
sS'ME'
p4282
I8
sS'RP2'
p4283
I6
sS'E'
p4284
I11
sS'TO'
p4285
I11
sS'RP1'
p4286
I9
sS'JP'
p4287
I4
sS'RP_tot'
p4288
I9
sS'P'
p4289
I4
sS'PA'
p4290
I9
sS'M'
p4291
I8
sS'R'
p4292
I8
sS'TB'
p4293
I5
sS'PL'
p4294
I9
sS'TA'
p4295
I4
ssg208
I0
sg209
I0
sg210
I0
sg211
I0
sg129
F9.472222222222221
sg212
I0
sg213
I0
sg214
I1
sg215
(dp4296
S'A'
p4297
I11
sS'ME'
p4298
I8
sS'RP2'
p4299
I6
sS'E'
p4300
I11
sS'TO'
p4301
I11
sS'RP1'
p4302
I9
sS'JP'
p4303
I4
sS'RP_tot'
p4304
I9
sS'P'
p4305
I4
sS'PA'
p4306
I9
sS'M'
p4307
I8
sS'R'
p4308
I8
sS'TB'
p4309
I5
sS'PL'
p4310
I9
sS'TA'
p4311
I4
ssg232
g4280
sg233
I1
sg234
g31
sg235
I0
sg236
I0
sg237
I0
sg238
I1
sg239
I3
sg240
I1
sg241
S'EN'
p4312
sbssg208
I0
sg209
I0
sg210
I0
sg211
I0
sg129
F9.444444444444445
sg212
I0
sg213
I0
sg214
I2
sg215
(dp4313
S'A'
p4314
I11
sS'ME'
p4315
I8
sS'RP2'
p4316
I6
sS'E'
p4317
I11
sS'TO'
p4318
I11
sS'RP1'
p4319
I9
sS'JP'
p4320
I4
sS'RP_tot'
p4321
I9
sS'P'
p4322
I4
sS'PA'
p4323
I9
sS'M'
p4324
I8
sS'R'
p4325
I8
sS'TB'
p4326
I5
sS'PL'
p4327
I9
sS'TA'
p4328
I4
ssg232
g4236
sg233
I0
sg234
S'CAT 12'
p4329
sg235
I0
sg236
I0
sg237
I0
sg238
I5
sg239
I3
sg240
I1
sg241
S'EN'
p4330
sbsg2613
(ijoueur
joueur
p4331
(dp4332
g28
I1
sg32
I0
sg34
I0
sg35
g36
(g37
g38
Ntp4333
Rp4334
(dp4335
g42
I2
sg43
S'<<'
p4336
sg45
S'special'
p4337
sbsg47
(dp4338
S'SR'
p4339
I0
sS'ST'
p4340
I0
sS'CR'
p4341
I0
sS'CT'
p4342
I0
ssg53
(dp4343
g4339
I0
sg4340
I0
sg4341
I0
sg4342
I0
ssg62
I0
sg63
I0
sg81
I01
sg65
I3
sg66
I0
sg67
I0
sg68
(S'dummy'
p4344
S'N8'
p4345
S'DL'
p4346
g31
tp4347
sg72
I01
sg73
g36
(g37
g38
Ntp4348
Rp4349
(dp4350
g42
I2
sg43
S'<<'
p4351
sg45
g4337
sbsg79
(dp4352
g4339
I0
sg4340
I0
sg4341
I1
sg4342
I11
ssg56
(dp4353
g4339
I0
sg4340
I0
sg4341
I0
sg4342
I0
ssg82
(dp4354
g4339
I0
sg4340
I0
sg4341
I0
sg4342
I0
ssg84
(dp4355
g4339
I0
sg4340
I0
sg4341
I1
sg4342
I11
ssg86
I0
sg87
I0
sg88
S'Famyed'
p4356
sg90
I6
sg91
I0
sg92
I13
sg93
I11
sg94
S'CAT'
p4357
sg96
(dp4358
S'A'
p4359
I11
sS'ME'
p4360
I8
sS'RP2'
p4361
I6
sS'E'
p4362
I11
sS'TO'
p4363
I11
sS'RP1'
p4364
I9
sS'JP'
p4365
I4
sS'RP_tot'
p4366
I9
sS'P'
p4367
I4
sS'PA'
p4368
I9
sS'M'
p4369
I8
sS'R'
p4370
I8
sS'TB'
p4371
I5
sS'PL'
p4372
I9
sS'TA'
p4373
I4
ssg208
I0
sg209
I0
sg210
I0
sg211
I0
sg129
F9.472222222222221
sg212
I0
sg213
I0
sg214
I1
sg215
(dp4374
S'A'
p4375
I11
sS'ME'
p4376
I8
sS'RP2'
p4377
I6
sS'E'
p4378
I11
sS'TO'
p4379
I11
sS'RP1'
p4380
I9
sS'JP'
p4381
I4
sS'RP_tot'
p4382
I9
sS'P'
p4383
I4
sS'PA'
p4384
I9
sS'M'
p4385
I8
sS'R'
p4386
I8
sS'TB'
p4387
I5
sS'PL'
p4388
I9
sS'TA'
p4389
I4
ssg232
g4358
sg233
I1
sg234
g31
sg235
I0
sg236
I0
sg237
I0
sg238
I1
sg239
I3
sg240
I1
sg241
S'EN'
p4390
sbssg208
I4
sg209
I0
sg210
I0
sg211
I0
sg56
(dp4391
g2465
I0
sg2466
I2
sg2467
I0
sg2468
I0
ssg212
I0
sg213
I0
sg214
I2
sg215
(dp4392
S'A'
p4393
I11
sS'ME'
p4394
I8
sS'RP2'
p4395
I6
sS'E'
p4396
I11
sS'TO'
p4397
I11
sS'RP1'
p4398
I9
sS'JP'
p4399
I4
sS'RP_tot'
p4400
I9
sS'P'
p4401
I4
sS'PA'
p4402
I9
sS'M'
p4403
I8
sS'R'
p4404
I8
sS'TB'
p4405
I5
sS'PL'
p4406
I9
sS'TA'
p4407
I4
ssg232
(dp4408
g4194
I11
sg4195
I9
sg4196
I6
sg4197
I12
sg4202
I10
sg4199
I9
sg4200
I4
sg4201
I9
sg4198
I4
sg4203
I9
sg4204
I7
sg4205
I8
sg4206
I5
sg4207
I9
sg4208
I4
ssg233
I0
sg340
(dp4409
sg235
I0
sg234
S'CAT 12'
p4410
sg236
I0
sg237
I0
sg238
I5
sg239
I3
sg240
I0
sg241
S'EN'
p4411
sbsS'n9'
p4412
(ijoueur
joueur
p4413
(dp4414
g27
F9.655172413793103
sg28
I2
sg29
F10.172413793103448
sg30
g31
sg32
I0
sg33
F63.66143871754078
sg34
I0
sg35
g36
(g37
g38
Ntp4415
Rp4416
(dp4417
g42
I5
sg43
S'**'
p4418
sg45
g370
sbsg47
(dp4419
g614
I0
sg615
I0
sg616
I0
sg617
I0
ssg53
(dp4420
g614
I0
sg615
I0
sg616
I0
sg617
I0
ssg55
I0
sg56
(dp4421
g58
I0
sg59
I0
sg60
I0
sg61
I0
ssg62
I0
sg63
I0
sg359
I0
sg360
I0
sg65
I2
sg66
I0
sg67
I0
sg68
(g361
S'DM'
p4422
g31
g31
tp4423
sg72
I00
sg73
g36
(g37
g38
Ntp4424
Rp4425
(dp4426
g42
I5
sg43
S'**'
p4427
sg45
g370
sbsg79
(dp4428
g58
I0
sg59
I0
sg60
I0
sg61
I6
ssg81
I00
sg82
(dp4429
g58
I0
sg59
I0
sg60
I0
sg61
I0
ssg84
(dp4430
g614
I0
sg615
I0
sg616
I0
sg617
I32
ssg86
I4
sg87
I0
sg88
S'Lardhal'
p4431
sg90
I6
sg91
I0
sg92
I20
sg93
I180
sg94
g95
sg96
(dp4432
g632
I12
sg633
I4
sg634
I8
sg635
I11
sg636
I11
sg637
I6
sg638
I9
sg639
I8
sg640
I9
sg641
I12
sg642
I8
sg643
I7
sg644
I6
sg645
I10
sg646
I6
ssg113
(dp4433
g115
(ijoueur
joueur
p4434
(dp4435
g27
F9.655172413793103
sg28
I2
sg30
g31
sg32
I0
sg34
I0
sg35
g36
(g37
g38
Ntp4436
Rp4437
(dp4438
g42
I5
sg43
S'**'
p4439
sg45
g414
sbsg47
(dp4440
g655
I0
sg656
I0
sg657
I0
sg658
I0
ssg53
(dp4441
g655
I0
sg656
I0
sg657
I0
sg658
I0
ssg62
I0
sg129
F10.172413793103448
sg63
I0
sg359
I0
sg360
I0
sg65
I0
sg66
I0
sg67
I0
sg68
(g405
S'DM'
p4442
g31
g31
tp4443
sg72
I00
sg73
g36
(g37
g38
Ntp4444
Rp4445
(dp4446
g42
I5
sg43
S'**'
p4447
sg45
g414
sbsg79
(dp4448
g416
I0
sg417
I0
sg418
I0
sg419
I13
ssg81
I00
sg82
(dp4449
g416
I0
sg417
I0
sg418
I0
sg419
I0
ssg84
(dp4450
g655
I0
sg656
I0
sg657
I0
sg658
I26
ssg86
I4
sg87
I0
sg88
S'Lardhal'
p4451
sg90
I6
sg91
I0
sg92
I20
sg93
I180
sg94
g146
sg96
(dp4452
g672
I13
sg673
I4
sg674
I8
sg675
I11
sg676
I9
sg677
I6
sg678
I7
sg679
I8
sg680
I10
sg681
I12
sg682
I8
sg683
I8
sg684
I6
sg685
I11
sg686
I6
ssg113
(dp4453
g164
(ijoueur
joueur
p4454
(dp4455
g28
I2
sg32
I0
sg34
I0
sg35
g36
(g37
g38
Ntp4456
Rp4457
(dp4458
g42
I5
sg43
S'**'
p4459
sg45
S'seigneur'
p4460
sbsg47
(dp4461
S'SR'
p4462
I0
sS'ST'
p4463
I0
sS'CR'
p4464
I0
sS'CT'
p4465
I0
ssg53
(dp4466
g4462
I0
sg4463
I0
sg4464
I0
sg4465
I0
ssg56
(dp4467
g4462
I0
sg4463
I0
sg4464
I0
sg4465
I0
ssg62
I0
sg63
I0
sg359
I0
sg360
I0
sg65
I0
sg66
I0
sg67
I0
sg68
(S'dummy'
p4468
S'DM'
p4469
g31
g31
tp4470
sg72
I00
sg73
g36
(g37
g38
Ntp4471
Rp4472
(dp4473
g42
I5
sg43
S'**'
p4474
sg45
g4460
sbsg79
(dp4475
g4462
I0
sg4463
I0
sg4464
I0
sg4465
I13
ssg81
I00
sg82
(dp4476
g4462
I0
sg4463
I0
sg4464
I0
sg4465
I0
ssg84
(dp4477
g4462
I0
sg4463
I0
sg4464
I0
sg4465
I13
ssg86
I4
sg87
I0
sg88
S'Lardhal'
p4478
sg90
I6
sg91
I0
sg92
I20
sg93
I180
sg94
S'DKF'
p4479
sg96
(dp4480
S'A'
p4481
I12
sS'ME'
p4482
I4
sS'RP2'
p4483
I8
sS'E'
p4484
I11
sS'TO'
p4485
I9
sS'RP1'
p4486
I6
sS'JP'
p4487
I7
sS'RP_tot'
p4488
I8
sS'P'
p4489
I10
sS'PA'
p4490
I10
sS'M'
p4491
I8
sS'R'
p4492
I8
sS'TB'
p4493
I6
sS'PL'
p4494
I11
sS'TA'
p4495
I6
ssg208
I0
sg209
I0
sg210
I0
sg211
I0
sg129
F9.655172413793103
sg212
I0
sg485
I0
sg213
I0
sg214
I0
sg215
(dp4496
S'A'
p4497
I12
sS'ME'
p4498
I4
sS'RP2'
p4499
I8
sS'E'
p4500
I11
sS'TO'
p4501
I9
sS'RP1'
p4502
I6
sS'JP'
p4503
I7
sS'RP_tot'
p4504
I8
sS'P'
p4505
I10
sS'PA'
p4506
I10
sS'M'
p4507
I8
sS'R'
p4508
I8
sS'TB'
p4509
I6
sS'PL'
p4510
I11
sS'TA'
p4511
I6
ssg232
g4480
sg233
I2
sg234
g31
sg235
I0
sg236
I0
sg237
I0
sg238
I18
sg239
I0
sg240
I0
sg241
S'CV'
p4512
sbssg208
I0
sg209
I0
sg210
I0
sg211
I0
sg56
(dp4513
g416
I0
sg417
I0
sg418
I0
sg419
I0
ssg212
I0
sg485
I0
sg213
I0
sg214
I0
sg215
(dp4514
g749
I12
sg750
I4
sg751
I8
sg752
I11
sg753
I9
sg754
I6
sg755
I7
sg756
I8
sg757
I10
sg758
I10
sg759
I8
sg760
I8
sg761
I6
sg762
I11
sg763
I6
ssg232
g4452
sg233
I0
sg234
g31
sg235
I0
sg236
I0
sg237
I0
sg238
I18
sg239
I0
sg240
I0
sg241
S'CV'
p4515
sbsg262
(ijoueur
joueur
p4516
(dp4517
g28
I2
sg32
I0
sg34
I0
sg35
g36
(g37
g38
Ntp4518
Rp4519
(dp4520
g42
I5
sg43
S'**'
p4521
sg45
S'seigneur'
p4522
sbsg47
(dp4523
S'SR'
p4524
I0
sS'ST'
p4525
I0
sS'CR'
p4526
I0
sS'CT'
p4527
I0
ssg53
(dp4528
g4524
I0
sg4525
I0
sg4526
I0
sg4527
I0
ssg56
(dp4529
g4524
I0
sg4525
I0
sg4526
I0
sg4527
I0
ssg62
I0
sg63
I0
sg359
I0
sg360
I0
sg65
I0
sg66
I0
sg67
I0
sg68
(S'dummy'
p4530
S'DM'
p4531
g31
g31
tp4532
sg72
I00
sg73
g36
(g37
g38
Ntp4533
Rp4534
(dp4535
g42
I5
sg43
S'**'
p4536
sg45
g4522
sbsg79
(dp4537
g4524
I0
sg4525
I0
sg4526
I0
sg4527
I13
ssg81
I00
sg82
(dp4538
g4524
I0
sg4525
I0
sg4526
I0
sg4527
I0
ssg84
(dp4539
g4524
I0
sg4525
I0
sg4526
I0
sg4527
I13
ssg86
I4
sg87
I0
sg88
S'Lardhal'
p4540
sg90
I6
sg91
I0
sg92
I20
sg93
I180
sg94
S'DKF'
p4541
sg96
(dp4542
S'A'
p4543
I12
sS'ME'
p4544
I4
sS'RP2'
p4545
I8
sS'E'
p4546
I11
sS'TO'
p4547
I9
sS'RP1'
p4548
I6
sS'JP'
p4549
I7
sS'RP_tot'
p4550
I8
sS'P'
p4551
I10
sS'PA'
p4552
I10
sS'M'
p4553
I8
sS'R'
p4554
I8
sS'TB'
p4555
I6
sS'PL'
p4556
I11
sS'TA'
p4557
I6
ssg208
I0
sg209
I0
sg210
I0
sg211
I0
sg129
F9.655172413793103
sg212
I0
sg485
I0
sg213
I0
sg214
I0
sg215
(dp4558
S'A'
p4559
I12
sS'ME'
p4560
I4
sS'RP2'
p4561
I8
sS'E'
p4562
I11
sS'TO'
p4563
I9
sS'RP1'
p4564
I6
sS'JP'
p4565
I7
sS'RP_tot'
p4566
I8
sS'P'
p4567
I10
sS'PA'
p4568
I10
sS'M'
p4569
I8
sS'R'
p4570
I8
sS'TB'
p4571
I6
sS'PL'
p4572
I11
sS'TA'
p4573
I6
ssg232
g4542
sg233
I2
sg234
g31
sg235
I0
sg236
I0
sg237
I0
sg238
I18
sg239
I0
sg240
I0
sg241
S'CV'
p4574
sbssg208
I10
sg209
I0
sg210
I0
sg211
I0
sg129
F10.482758620689655
sg212
I0
sg64
F63.66143871754078
sg485
I0
sg213
I0
sg214
I0
sg215
(dp4575
g826
I12
sg827
I4
sg828
I8
sg829
I11
sg830
I9
sg831
I6
sg832
I7
sg833
I8
sg834
I10
sg835
I10
sg836
I8
sg837
I8
sg838
I6
sg839
I11
sg840
I6
ssg232
(dp4576
g632
I13
sg633
I4
sg634
I8
sg635
I11
sg640
I9
sg637
I6
sg638
I9
sg639
I8
sg636
I11
sg641
I12
sg642
I8
sg643
I8
sg644
I6
sg645
I11
sg646
I6
ssg233
I0
sg340
(dp4577
sg235
I0
sg234
g31
sg236
I0
sg237
I0
sg238
I18
sg239
I2
sg240
I0
sg241
S'CV'
p4578
sbsS'n1'
p4579
g851
sS'n2'
p4580
(ijoueur
joueur
p4581
(dp4582
g27
F10.62962962962963
sg28
I0
sg29
F10.185185185185185
sg30
g31
sg32
I0
sg33
F63.03058922098782
sg34
I0
sg35
g36
(g37
g38
Ntp4583
Rp4584
(dp4585
g42
I5
sg43
S'**'
p4586
sg45
S'seigneur'
p4587
sbsg47
(dp4588
S'SR'
p4589
I0
sS'ST'
p4590
I0
sS'CR'
p4591
I0
sS'CT'
p4592
I5
ssg53
(dp4593
g4589
I0
sg4590
I0
sg4591
I0
sg4592
I0
ssg55
I0
sg56
(dp4594
g2465
I0
sg2466
I5
sg2467
I0
sg2468
I0
ssg62
I0
sg63
I0
sg359
I0
sg360
I0
sg65
I1
sg66
I0
sg67
I0
sg68
(S'dummy'
p4595
S'PI'
p4596
S'N8'
p4597
S'TA'
p4598
tp4599
sg72
I00
sg73
g36
(g37
g38
Ntp4600
Rp4601
(dp4602
g42
I5
sg43
S'**'
p4603
sg45
g4587
sbsg79
(dp4604
g2465
I0
sg2466
I1
sg2467
I0
sg2468
I0
ssg81
I00
sg82
(dp4605
g2465
I0
sg2466
I0
sg2467
I0
sg2468
I0
ssg84
(dp4606
g4589
I3
sg4590
I2
sg4591
I2
sg4592
I26
ssg86
I0
sg87
I0
sg88
S'Stavehyr'
p4607
sg90
I4
sg91
I0
sg92
I11
sg93
I216
sg94
g2472
sg96
(dp4608
S'A'
p4609
I10
sS'ME'
p4610
I9
sS'RP2'
p4611
I6
sS'E'
p4612
I9
sS'P'
p4613
I5
sS'RP1'
p4614
I11
sS'JP'
p4615
I2
sS'RP_tot'
p4616
I11
sS'TO'
p4617
I10
sS'PA'
p4618
I13
sS'M'
p4619
I3
sS'R'
p4620
I8
sS'TB'
p4621
I3
sS'PL'
p4622
I12
sS'TA'
p4623
I7
ssg113
(dp4624
S's12'
p4625
(ijoueur
joueur
p4626
(dp4627
g27
F10.62962962962963
sg28
I0
sg30
g31
sg32
I0
sg34
I0
sg35
g36
(g37
g38
Ntp4628
Rp4629
(dp4630
g42
I5
sg43
S'**'
p4631
sg45
S'seigneur'
p4632
sbsg47
(dp4633
S'SR'
p4634
I0
sS'ST'
p4635
I0
sS'CR'
p4636
I0
sS'CT'
p4637
I0
ssg53
(dp4638
g4634
I0
sg4635
I0
sg4636
I0
sg4637
I0
ssg62
I0
sg129
F10.185185185185185
sg63
I0
sg359
I0
sg360
I0
sg65
I0
sg66
I0
sg67
I0
sg68
(S'dummy'
p4639
S'PI'
p4640
S'N8'
p4641
S'TA'
p4642
tp4643
sg72
I01
sg73
g36
(g37
g38
Ntp4644
Rp4645
(dp4646
g42
I5
sg43
S'**'
p4647
sg45
g4632
sbsg79
(dp4648
S'SR'
p4649
I0
sS'CT'
p4650
I12
sS'CR'
p4651
I1
sS'ST'
p4652
I0
ssg81
I00
sg82
(dp4653
g4649
I0
sg4650
I0
sg4651
I0
sg4652
I0
ssg84
(dp4654
g4634
I3
sg4635
I2
sg4636
I2
sg4637
I25
ssg86
I0
sg87
I0
sg88
S'Stavehyr'
p4655
sg90
I4
sg91
I0
sg92
I11
sg93
I210
sg94
S'PRG'
p4656
sg96
(dp4657
S'A'
p4658
I11
sS'ME'
p4659
I9
sS'RP2'
p4660
I6
sS'E'
p4661
I9
sS'TO'
p4662
I10
sS'RP1'
p4663
I11
sS'JP'
p4664
I2
sS'RP_tot'
p4665
I11
sS'P'
p4666
I5
sS'PA'
p4667
I13
sS'M'
p4668
I3
sS'R'
p4669
I10
sS'TB'
p4670
I3
sS'PL'
p4671
I13
sS'TA'
p4672
I7
ssg113
(dp4673
S's11'
p4674
(ijoueur
joueur
p4675
(dp4676
g28
I0
sg32
I0
sg34
I0
sg35
g36
(g37
g38
Ntp4677
Rp4678
(dp4679
g42
I5
sg43
S'**'
p4680
sg45
S'seigneur'
p4681
sbsg47
(dp4682
S'SR'
p4683
I0
sS'ST'
p4684
I0
sS'CR'
p4685
I0
sS'CT'
p4686
I0
ssg53
(dp4687
g4683
I0
sg4684
I0
sg4685
I0
sg4686
I0
ssg62
I0
sg129
F10.62962962962963
sg63
I0
sg359
I0
sg360
I0
sg65
I0
sg66
I0
sg67
I0
sg68
(S'dummy'
p4688
S'PI'
p4689
S'N8'
p4690
S'TA'
p4691
tp4692
sg72
I00
sg73
g36
(g37
g38
Ntp4693
Rp4694
(dp4695
g42
I5
sg43
S'**'
p4696
sg45
g4681
sbsg79
(dp4697
g4683
I3
sg4684
I2
sg4685
I1
sg4686
I13
ssg81
I00
sg82
(dp4698
g4683
I0
sg4684
I0
sg4685
I0
sg4686
I0
ssg84
(dp4699
g4683
I3
sg4684
I2
sg4685
I1
sg4686
I13
ssg86
I0
sg87
I0
sg88
S'Stavehyr'
p4700
sg90
I4
sg91
I0
sg92
I11
sg93
I210
sg94
S'PRG'
p4701
sg96
(dp4702
S'A'
p4703
I11
sS'ME'
p4704
I10
sS'RP2'
p4705
I7
sS'E'
p4706
I9
sS'TO'
p4707
I10
sS'RP1'
p4708
I11
sS'JP'
p4709
I2
sS'RP_tot'
p4710
I11
sS'P'
p4711
I5
sS'PA'
p4712
I13
sS'M'
p4713
I6
sS'R'
p4714
I10
sS'TB'
p4715
I3
sS'PL'
p4716
I14
sS'TA'
p4717
I8
ssg208
I0
sg209
I0
sg210
I0
sg211
I0
sg56
(dp4718
g4683
I0
sg4684
I0
sg4685
I0
sg4686
I0
ssg212
I0
sg485
I0
sg213
I0
sg214
I0
sg215
(dp4719
S'A'
p4720
I11
sS'ME'
p4721
I10
sS'RP2'
p4722
I7
sS'E'
p4723
I9
sS'TO'
p4724
I10
sS'RP1'
p4725
I11
sS'JP'
p4726
I2
sS'RP_tot'
p4727
I11
sS'P'
p4728
I5
sS'PA'
p4729
I13
sS'M'
p4730
I6
sS'R'
p4731
I10
sS'TB'
p4732
I3
sS'PL'
p4733
I14
sS'TA'
p4734
I8
ssg232
g4702
sg233
I0
sg234
g31
sg235
I0
sg236
I0
sg237
I0
sg238
I21
sg239
I7
sg240
I0
sg241
S'CHS'
p4735
sbssg208
I0
sg209
I0
sg210
I0
sg211
I0
sg56
(dp4736
g4649
I0
sg4650
I0
sg4651
I0
sg4652
I0
ssg212
I0
sg485
I0
sg213
I0
sg214
I0
sg215
(dp4737
S'A'
p4738
I11
sS'ME'
p4739
I10
sS'RP2'
p4740
I7
sS'E'
p4741
I9
sS'P'
p4742
I5
sS'RP1'
p4743
I11
sS'JP'
p4744
I2
sS'RP_tot'
p4745
I11
sS'TO'
p4746
I10
sS'PA'
p4747
I13
sS'M'
p4748
I6
sS'R'
p4749
I10
sS'TB'
p4750
I3
sS'PL'
p4751
I14
sS'TA'
p4752
I8
ssg232
g4657
sg233
I0
sg234
g31
sg235
I0
sg236
I0
sg237
I0
sg238
I21
sg239
I7
sg240
I0
sg241
S'CHS'
p4753
sbsS's11'
p4754
(ijoueur
joueur
p4755
(dp4756
g28
I0
sg32
I0
sg34
I0
sg35
g36
(g37
g38
Ntp4757
Rp4758
(dp4759
g42
I5
sg43
S'**'
p4760
sg45
S'seigneur'
p4761
sbsg47
(dp4762
S'SR'
p4763
I0
sS'ST'
p4764
I0
sS'CR'
p4765
I0
sS'CT'
p4766
I0
ssg53
(dp4767
g4763
I0
sg4764
I0
sg4765
I0
sg4766
I0
ssg62
I0
sg129
F10.62962962962963
sg63
I0
sg359
I0
sg360
I0
sg65
I0
sg66
I0
sg67
I0
sg68
(S'dummy'
p4768
S'PI'
p4769
S'N8'
p4770
S'TA'
p4771
tp4772
sg72
I00
sg73
g36
(g37
g38
Ntp4773
Rp4774
(dp4775
g42
I5
sg43
S'**'
p4776
sg45
g4761
sbsg79
(dp4777
g4763
I3
sg4764
I2
sg4765
I1
sg4766
I13
ssg81
I00
sg82
(dp4778
g4763
I0
sg4764
I0
sg4765
I0
sg4766
I0
ssg84
(dp4779
g4763
I3
sg4764
I2
sg4765
I1
sg4766
I13
ssg86
I0
sg87
I0
sg88
S'Stavehyr'
p4780
sg90
I4
sg91
I0
sg92
I11
sg93
I210
sg94
S'PRG'
p4781
sg96
(dp4782
S'A'
p4783
I11
sS'ME'
p4784
I10
sS'RP2'
p4785
I7
sS'E'
p4786
I9
sS'TO'
p4787
I10
sS'RP1'
p4788
I11
sS'JP'
p4789
I2
sS'RP_tot'
p4790
I11
sS'P'
p4791
I5
sS'PA'
p4792
I13
sS'M'
p4793
I6
sS'R'
p4794
I10
sS'TB'
p4795
I3
sS'PL'
p4796
I14
sS'TA'
p4797
I8
ssg208
I0
sg209
I0
sg210
I0
sg211
I0
sg56
(dp4798
g4763
I0
sg4764
I0
sg4765
I0
sg4766
I0
ssg212
I0
sg485
I0
sg213
I0
sg214
I0
sg215
(dp4799
S'A'
p4800
I11
sS'ME'
p4801
I10
sS'RP2'
p4802
I7
sS'E'
p4803
I9
sS'TO'
p4804
I10
sS'RP1'
p4805
I11
sS'JP'
p4806
I2
sS'RP_tot'
p4807
I11
sS'P'
p4808
I5
sS'PA'
p4809
I13
sS'M'
p4810
I6
sS'R'
p4811
I10
sS'TB'
p4812
I3
sS'PL'
p4813
I14
sS'TA'
p4814
I8
ssg232
g4782
sg233
I0
sg234
g31
sg235
I0
sg236
I0
sg237
I0
sg238
I21
sg239
I7
sg240
I0
sg241
S'CHS'
p4815
sbssg208
I10
sg209
I0
sg210
I0
sg211
I0
sg129
F9.970588235294118
sg212
I0
sg64
F63.03058922098782
sg485
I0
sg213
I0
sg214
I1
sg215
(dp4816
S'A'
p4817
I11
sS'ME'
p4818
I10
sS'RP2'
p4819
I7
sS'E'
p4820
I9
sS'P'
p4821
I5
sS'RP1'
p4822
I11
sS'JP'
p4823
I2
sS'RP_tot'
p4824
I11
sS'TO'
p4825
I10
sS'PA'
p4826
I13
sS'M'
p4827
I6
sS'R'
p4828
I10
sS'TB'
p4829
I3
sS'PL'
p4830
I14
sS'TA'
p4831
I8
ssg232
(dp4832
g4609
I11
sg4610
I9
sg4611
I6
sg4612
I9
sg4617
I10
sg4614
I11
sg4615
I2
sg4616
I11
sg4613
I5
sg4618
I13
sg4619
I3
sg4620
I9
sg4621
I3
sg4622
I13
sg4623
I7
ssg233
I0
sg340
(dp4833
sg235
I0
sg234
S'PRG 13'
p4834
sg236
I0
sg237
I0
sg238
I20
sg239
I8
sg240
I1
sg241
S'CHS'
p4835
sbsS'n3'
p4836
(ijoueur
joueur
p4837
(dp4838
g27
F10.451612903225806
sg28
I1
sg29
F9.763157894736842
sg30
g31
sg32
I0
sg33
F63.87696174186581
sg34
I0
sg35
g36
(g37
g38
Ntp4839
Rp4840
(dp4841
g42
I3
sg43
S'^^^'
p4842
sg45
S'rare'
p4843
sbsg47
(dp4844
S'SR'
p4845
I0
sS'CT'
p4846
I0
sS'CR'
p4847
I0
sS'ST'
p4848
I0
ssg53
(dp4849
g4845
I0
sg4846
I15
sg4847
I0
sg4848
I12
ssg55
I0
sg62
I0
sg129
F9.657894736842104
sg63
I0
sg359
I0
sg360
I0
sg65
I0
sg66
I0
sg67
I0
sg68
(S'dummy'
p4850
S'TL'
p4851
S'DL'
p4852
S'PI'
p4853
tp4854
sg72
I00
sg73
g36
(g37
g38
Ntp4855
Rp4856
(dp4857
g42
I3
sg43
S'^^^'
p4858
sg45
g4843
sbsg79
(dp4859
g1971
I0
sg1972
I0
sg1973
I3
sg1974
I3
ssg81
I00
sg82
(dp4860
g1971
I0
sg1972
I0
sg1973
I0
sg1974
I0
ssg84
(dp4861
g4845
I0
sg4846
I14
sg4847
I6
sg4848
I0
ssg86
I0
sg87
I0
sg88
S'Beragueux'
p4862
sg90
I4
sg91
I0
sg92
I12
sg93
I100
sg94
g1979
sg96
(dp4863
S'A'
p4864
I11
sS'ME'
p4865
I8
sS'RP2'
p4866
I9
sS'E'
p4867
I10
sS'TO'
p4868
I10
sS'RP1'
p4869
I5
sS'JP'
p4870
I4
sS'RP_tot'
p4871
I9
sS'P'
p4872
I5
sS'PA'
p4873
I10
sS'M'
p4874
I6
sS'R'
p4875
I10
sS'TB'
p4876
I5
sS'PL'
p4877
I10
sS'TA'
p4878
I3
ssg113
(dp4879
g1997
(ijoueur
joueur
p4880
(dp4881
g27
F10.451612903225806
sg28
I1
sg30
g31
sg32
I0
sg34
I0
sg35
g36
(g37
g38
Ntp4882
Rp4883
(dp4884
g42
I3
sg43
S'^^^'
p4885
sg45
S'rare'
p4886
sbsg47
(dp4887
S'SR'
p4888
I0
sS'CT'
p4889
I0
sS'CR'
p4890
I0
sS'ST'
p4891
I0
ssg53
(dp4892
g4888
I0
sg4889
I15
sg4890
I0
sg4891
I12
ssg62
I0
sg63
I0
sg359
I0
sg360
I0
sg81
I00
sg65
I2
sg66
I0
sg67
I0
sg68
(S'dummy'
p4893
S'TL'
p4894
S'DL'
p4895
S'PI'
p4896
tp4897
sg72
I00
sg73
g36
(g37
g38
Ntp4898
Rp4899
(dp4900
g42
I3
sg43
S'^^^'
p4901
sg45
g4886
sbsg79
(dp4902
g2012
I0
sg2013
I0
sg2014
I2
sg2015
I9
ssg56
(dp4903
g2012
I0
sg2013
I0
sg2014
I0
sg2015
I0
ssg82
(dp4904
g2012
I0
sg2013
I7
sg2014
I0
sg2015
I2
ssg84
(dp4905
g4888
I0
sg4889
I11
sg4890
I3
sg4891
I0
ssg86
I0
sg87
I0
sg88
S'Beragueux'
p4906
sg90
I4
sg91
I0
sg92
I12
sg93
I100
sg94
g2027
sg96
(dp4907
S'A'
p4908
I11
sS'ME'
p4909
I9
sS'RP2'
p4910
I9
sS'E'
p4911
I10
sS'P'
p4912
I5
sS'RP1'
p4913
I5
sS'JP'
p4914
I4
sS'RP_tot'
p4915
I9
sS'TO'
p4916
I10
sS'PA'
p4917
I10
sS'M'
p4918
I7
sS'R'
p4919
I10
sS'TB'
p4920
I5
sS'PL'
p4921
I10
sS'TA'
p4922
I3
ssg113
(dp4923
g2045
(ijoueur
joueur
p4924
(dp4925
g28
I1
sg32
I0
sg34
I0
sg35
g36
(g37
g38
Ntp4926
Rp4927
(dp4928
g42
I3
sg43
S'^^^'
p4929
sg45
S'rare'
p4930
sbsg47
(dp4931
S'SR'
p4932
I0
sS'CT'
p4933
I0
sS'CR'
p4934
I0
sS'ST'
p4935
I0
ssg53
(dp4936
g4932
I0
sg4933
I13
sg4934
I0
sg4935
I5
ssg62
I0
sg129
F10.451612903225806
sg63
I0
sg359
I0
sg360
I0
sg65
I0
sg66
I0
sg67
I0
sg68
(S'dummy'
p4937
S'TL'
p4938
S'DL'
p4939
S'PI'
p4940
tp4941
sg72
I01
sg73
g36
(g37
g38
Ntp4942
Rp4943
(dp4944
g42
I3
sg43
S'^^^'
p4945
sg45
g4930
sbsg79
(dp4946
g4932
I0
sg4933
I2
sg4934
I1
sg4935
I0
ssg81
I01
sg82
(dp4947
g4932
I0
sg4933
I13
sg4934
I0
sg4935
I5
ssg84
(dp4948
g4932
I0
sg4933
I2
sg4934
I1
sg4935
I0
ssg86
I0
sg87
I0
sg88
S'Beragueux'
p4949
sg90
I4
sg91
I0
sg92
I12
sg93
I38
sg94
S'TA'
p4950
sg96
(dp4951
S'A'
p4952
I11
sS'ME'
p4953
I9
sS'RP2'
p4954
I9
sS'E'
p4955
I10
sS'P'
p4956
I5
sS'RP1'
p4957
I6
sS'JP'
p4958
I4
sS'RP_tot'
p4959
I9
sS'TO'
p4960
I10
sS'PA'
p4961
I10
sS'M'
p4962
I8
sS'R'
p4963
I11
sS'TB'
p4964
I5
sS'PL'
p4965
I12
sS'TA'
p4966
I4
ssg208
I0
sg209
I0
sg210
I0
sg211
I0
sg56
(dp4967
g4932
I0
sg4933
I0
sg4934
I0
sg4935
I0
ssg212
I0
sg485
I0
sg213
I0
sg214
I0
sg215
(dp4968
S'A'
p4969
I11
sS'ME'
p4970
I9
sS'RP2'
p4971
I9
sS'E'
p4972
I10
sS'P'
p4973
I5
sS'RP1'
p4974
I6
sS'JP'
p4975
I4
sS'RP_tot'
p4976
I9
sS'TO'
p4977
I10
sS'PA'
p4978
I10
sS'M'
p4979
I8
sS'R'
p4980
I11
sS'TB'
p4981
I5
sS'PL'
p4982
I12
sS'TA'
p4983
I4
ssg232
g4951
sg233
I1
sg234
g31
sg235
I0
sg236
I0
sg237
I0
sg238
I4
sg239
I1
sg240
I0
sg241
S'B'
p4984
sbssg208
I7
sg209
I0
sg210
I0
sg211
I0
sg129
F9.763157894736842
sg212
I0
sg485
I0
sg213
I0
sg214
I0
sg215
(dp4985
S'A'
p4986
I11
sS'ME'
p4987
I9
sS'RP2'
p4988
I9
sS'E'
p4989
I10
sS'P'
p4990
I5
sS'RP1'
p4991
I6
sS'JP'
p4992
I4
sS'RP_tot'
p4993
I9
sS'TO'
p4994
I10
sS'PA'
p4995
I10
sS'M'
p4996
I8
sS'R'
p4997
I11
sS'TB'
p4998
I5
sS'PL'
p4999
I12
sS'TA'
p5000
I4
ssg232
g4907
sg233
I0
sg234
S'TA 12'
p5001
sg235
I0
sg236
I0
sg237
I0
sg238
I15
sg239
I3
sg240
I0
sg241
S'B'
p5002
sbsg2122
(ijoueur
joueur
p5003
(dp5004
g28
I1
sg32
I0
sg34
I0
sg35
g36
(g37
g38
Ntp5005
Rp5006
(dp5007
g42
I3
sg43
S'^^^'
p5008
sg45
S'rare'
p5009
sbsg47
(dp5010
S'SR'
p5011
I0
sS'CT'
p5012
I0
sS'CR'
p5013
I0
sS'ST'
p5014
I0
ssg53
(dp5015
g5011
I0
sg5012
I13
sg5013
I0
sg5014
I5
ssg62
I0
sg129
F10.451612903225806
sg63
I0
sg359
I0
sg360
I0
sg65
I0
sg66
I0
sg67
I0
sg68
(S'dummy'
p5016
S'TL'
p5017
S'DL'
p5018
S'PI'
p5019
tp5020
sg72
I01
sg73
g36
(g37
g38
Ntp5021
Rp5022
(dp5023
g42
I3
sg43
S'^^^'
p5024
sg45
g5009
sbsg79
(dp5025
g5011
I0
sg5012
I2
sg5013
I1
sg5014
I0
ssg81
I01
sg82
(dp5026
g5011
I0
sg5012
I13
sg5013
I0
sg5014
I5
ssg84
(dp5027
g5011
I0
sg5012
I2
sg5013
I1
sg5014
I0
ssg86
I0
sg87
I0
sg88
S'Beragueux'
p5028
sg90
I4
sg91
I0
sg92
I12
sg93
I38
sg94
S'TA'
p5029
sg96
(dp5030
S'A'
p5031
I11
sS'ME'
p5032
I9
sS'RP2'
p5033
I9
sS'E'
p5034
I10
sS'P'
p5035
I5
sS'RP1'
p5036
I6
sS'JP'
p5037
I4
sS'RP_tot'
p5038
I9
sS'TO'
p5039
I10
sS'PA'
p5040
I10
sS'M'
p5041
I8
sS'R'
p5042
I11
sS'TB'
p5043
I5
sS'PL'
p5044
I12
sS'TA'
p5045
I4
ssg208
I0
sg209
I0
sg210
I0
sg211
I0
sg56
(dp5046
g5011
I0
sg5012
I0
sg5013
I0
sg5014
I0
ssg212
I0
sg485
I0
sg213
I0
sg214
I0
sg215
(dp5047
S'A'
p5048
I11
sS'ME'
p5049
I9
sS'RP2'
p5050
I9
sS'E'
p5051
I10
sS'P'
p5052
I5
sS'RP1'
p5053
I6
sS'JP'
p5054
I4
sS'RP_tot'
p5055
I9
sS'TO'
p5056
I10
sS'PA'
p5057
I10
sS'M'
p5058
I8
sS'R'
p5059
I11
sS'TB'
p5060
I5
sS'PL'
p5061
I12
sS'TA'
p5062
I4
ssg232
g5030
sg233
I1
sg234
g31
sg235
I0
sg236
I0
sg237
I0
sg238
I4
sg239
I1
sg240
I0
sg241
S'B'
p5063
sbssg208
I5
sg209
I0
sg210
I0
sg211
I0
sg56
(dp5064
g1971
I0
sg1972
I0
sg1973
I0
sg1974
I0
ssg212
I0
sg64
F63.87696174186581
sg485
I0
sg213
I0
sg214
I0
sg215
(dp5065
S'A'
p5066
I11
sS'ME'
p5067
I9
sS'RP2'
p5068
I9
sS'E'
p5069
I10
sS'P'
p5070
I5
sS'RP1'
p5071
I6
sS'JP'
p5072
I4
sS'RP_tot'
p5073
I9
sS'TO'
p5074
I10
sS'PA'
p5075
I10
sS'M'
p5076
I8
sS'R'
p5077
I11
sS'TB'
p5078
I5
sS'PL'
p5079
I12
sS'TA'
p5080
I4
ssg232
(dp5081
g4864
I11
sg4865
I8
sg4866
I9
sg4867
I10
sg4872
I5
sg4869
I5
sg4870
I4
sg4871
I9
sg4868
I10
sg4873
I10
sg4874
I6
sg4875
I10
sg4876
I5
sg4877
I10
sg4878
I3
ssg233
I0
sg340
(dp5082
sg235
I0
sg234
S'TA 12'
p5083
sg236
I0
sg237
I0
sg238
I15
sg239
I3
sg240
I0
sg241
S'B'
p5084
sbsS'n4'
p5085
g1025
sS'n5'
p5086
g25
sS'n6'
p5087
g1259
sS'n7'
p5088
(ijoueur
joueur
p5089
(dp5090
g27
F10.35483870967742
sg28
I1
sg29
F10.741935483870968
sg30
g31
sg32
I0
sg33
F63.515536666714446
sg34
I0
sg35
g36
(g37
g38
Ntp5091
Rp5092
(dp5093
g42
I1
sg43
S'^'
p5094
sg45
S'base'
p5095
sbsg47
(dp5096
S'SR'
p5097
I0
sS'CT'
p5098
I0
sS'CR'
p5099
I0
sS'ST'
p5100
I0
ssg53
(dp5101
g5097
I0
sg5098
I0
sg5099
I0
sg5100
I0
ssg55
I0
sg56
(dp5102
g58
I0
sg59
I0
sg60
I0
sg61
I0
ssg62
I0
sg63
I0
sg64
F63.515536666714446
sg65
I0
sg66
I0
sg67
I0
sg68
(S'dummy'
p5103
S'TL'
p5104
g31
g31
tp5105
sg72
I00
sg73
g36
(g37
g38
Ntp5106
Rp5107
(dp5108
g42
I1
sg43
S'>'
p5109
sg45
g5095
sbsg79
(dp5110
g58
I0
sg59
I0
sg60
I0
sg61
I6
ssg81
I00
sg82
(dp5111
g58
I0
sg59
I0
sg60
I0
sg61
I0
ssg84
(dp5112
g5097
I0
sg5098
I20
sg5099
I7
sg5100
I14
ssg86
I0
sg87
I0
sg88
S'Lafael'
p5113
sg90
I1
sg91
I0
sg92
I13
sg93
I100
sg94
g95
sg96
(dp5114
S'A'
p5115
I6
sS'ME'
p5116
I12
sS'RP2'
p5117
I5
sS'E'
p5118
I8
sS'TO'
p5119
I9
sS'RP1'
p5120
I9
sS'JP'
p5121
I4
sS'RP_tot'
p5122
I9
sS'P'
p5123
I10
sS'PA'
p5124
I8
sS'M'
p5125
I9
sS'R'
p5126
I12
sS'TB'
p5127
I5
sS'PL'
p5128
I10
sS'TA'
p5129
I8
ssg113
(dp5130
g115
(ijoueur
joueur
p5131
(dp5132
g27
F10.35483870967742
sg28
I1
sg30
g31
sg32
I0
sg34
I0
sg35
g36
(g37
g38
Ntp5133
Rp5134
(dp5135
g42
I1
sg43
S'^'
p5136
sg45
S'base'
p5137
sbsg47
(dp5138
S'SR'
p5139
I0
sS'CT'
p5140
I0
sS'CR'
p5141
I0
sS'ST'
p5142
I0
ssg53
(dp5143
g5139
I0
sg5140
I0
sg5141
I0
sg5142
I0
ssg62
I0
sg129
F10.741935483870968
sg63
I0
sg65
I0
sg66
I0
sg67
I0
sg68
(S'dummy'
p5144
S'TL'
p5145
g31
g31
tp5146
sg72
I00
sg73
g36
(g37
g38
Ntp5147
Rp5148
(dp5149
g42
I1
sg43
S'>'
p5150
sg45
g5137
sbsg79
(dp5151
g416
I0
sg417
I7
sg418
I0
sg419
I13
ssg81
I00
sg82
(dp5152
g416
I0
sg417
I0
sg418
I0
sg419
I0
ssg84
(dp5153
g5139
I0
sg5140
I14
sg5141
I7
sg5142
I14
ssg86
I0
sg87
I0
sg88
S'Lafael'
p5154
sg90
I1
sg91
I0
sg92
I13
sg93
I100
sg94
g146
sg96
(dp5155
S'A'
p5156
I8
sS'ME'
p5157
I13
sS'RP2'
p5158
I6
sS'E'
p5159
I8
sS'P'
p5160
I10
sS'RP1'
p5161
I9
sS'JP'
p5162
I4
sS'RP_tot'
p5163
I9
sS'TO'
p5164
I9
sS'PA'
p5165
I8
sS'M'
p5166
I9
sS'R'
p5167
I13
sS'TB'
p5168
I5
sS'PL'
p5169
I12
sS'TA'
p5170
I8
ssg113
(dp5171
g164
(ijoueur
joueur
p5172
(dp5173
g28
I0
sg32
I0
sg34
I0
sg35
g36
(g37
g38
Ntp5174
Rp5175
(dp5176
g42
I1
sg43
S'^'
p5177
sg45
S'base'
p5178
sbsg47
(dp5179
S'SR'
p5180
I0
sS'CT'
p5181
I0
sS'CR'
p5182
I0
sS'ST'
p5183
I0
ssg53
(dp5184
g5180
I0
sg5181
I0
sg5182
I0
sg5183
I0
ssg62
I0
sg63
I0
sg81
I01
sg65
I0
sg66
I0
sg67
I0
sg68
(S'dummy'
p5185
S'TL'
p5186
g31
g31
tp5187
sg72
I01
sg73
g36
(g37
g38
Ntp5188
Rp5189
(dp5190
g42
I1
sg43
S'>'
p5191
sg45
g5178
sbsg79
(dp5192
g5180
I0
sg5181
I1
sg5182
I7
sg5183
I7
ssg56
(dp5193
g5180
I0
sg5181
I0
sg5182
I0
sg5183
I0
ssg82
(dp5194
g5180
I0
sg5181
I0
sg5182
I0
sg5183
I0
ssg84
(dp5195
g5180
I0
sg5181
I1
sg5182
I7
sg5183
I7
ssg86
I0
sg87
I0
sg88
S'Lafael'
p5196
sg90
I1
sg91
I0
sg92
I13
sg93
I50
sg94
S'TO'
p5197
sg96
(dp5198
S'A'
p5199
I8
sS'ME'
p5200
I12
sS'RP2'
p5201
I6
sS'E'
p5202
I9
sS'P'
p5203
I9
sS'RP1'
p5204
I9
sS'JP'
p5205
I4
sS'RP_tot'
p5206
I9
sS'TO'
p5207
I9
sS'PA'
p5208
I8
sS'M'
p5209
I11
sS'R'
p5210
I11
sS'TB'
p5211
I5
sS'PL'
p5212
I12
sS'TA'
p5213
I8
ssg208
I0
sg209
I0
sg210
I0
sg211
I0
sg129
F10.35483870967742
sg212
I0
sg213
I0
sg214
I0
sg215
(dp5214
S'A'
p5215
I8
sS'ME'
p5216
I12
sS'RP2'
p5217
I6
sS'E'
p5218
I9
sS'P'
p5219
I9
sS'RP1'
p5220
I9
sS'JP'
p5221
I4
sS'RP_tot'
p5222
I9
sS'TO'
p5223
I9
sS'PA'
p5224
I8
sS'M'
p5225
I11
sS'R'
p5226
I11
sS'TB'
p5227
I5
sS'PL'
p5228
I12
sS'TA'
p5229
I8
ssg232
g5198
sg233
I0
sg234
S'HTH 8'
p5230
sg235
I0
sg236
I0
sg237
I0
sg238
I5
sg239
I6
sg240
I0
sg241
S'HE'
p5231
sbssg208
I10
sg209
I0
sg210
I0
sg211
I0
sg56
(dp5232
g416
I0
sg417
I0
sg418
I0
sg419
I0
ssg212
I0
sg213
I0
sg214
I0
sg215
(dp5233
S'A'
p5234
I8
sS'ME'
p5235
I12
sS'RP2'
p5236
I6
sS'E'
p5237
I9
sS'P'
p5238
I9
sS'RP1'
p5239
I9
sS'JP'
p5240
I4
sS'RP_tot'
p5241
I9
sS'TO'
p5242
I9
sS'PA'
p5243
I8
sS'M'
p5244
I11
sS'R'
p5245
I11
sS'TB'
p5246
I5
sS'PL'
p5247
I12
sS'TA'
p5248
I8
ssg232
g5155
sg233
I1
sg234
S'HTH 8;TO 12'
p5249
sg235
I0
sg236
I0
sg237
I0
sg238
I16
sg239
I6
sg240
I0
sg241
S'HE'
p5250
sbsg262
(ijoueur
joueur
p5251
(dp5252
g28
I0
sg32
I0
sg34
I0
sg35
g36
(g37
g38
Ntp5253
Rp5254
(dp5255
g42
I1
sg43
S'^'
p5256
sg45
S'base'
p5257
sbsg47
(dp5258
S'SR'
p5259
I0
sS'CT'
p5260
I0
sS'CR'
p5261
I0
sS'ST'
p5262
I0
ssg53
(dp5263
g5259
I0
sg5260
I0
sg5261
I0
sg5262
I0
ssg62
I0
sg63
I0
sg81
I01
sg65
I0
sg66
I0
sg67
I0
sg68
(S'dummy'
p5264
S'TL'
p5265
g31
g31
tp5266
sg72
I01
sg73
g36
(g37
g38
Ntp5267
Rp5268
(dp5269
g42
I1
sg43
S'>'
p5270
sg45
g5257
sbsg79
(dp5271
g5259
I0
sg5260
I1
sg5261
I7
sg5262
I7
ssg56
(dp5272
g5259
I0
sg5260
I0
sg5261
I0
sg5262
I0
ssg82
(dp5273
g5259
I0
sg5260
I0
sg5261
I0
sg5262
I0
ssg84
(dp5274
g5259
I0
sg5260
I1
sg5261
I7
sg5262
I7
ssg86
I0
sg87
I0
sg88
S'Lafael'
p5275
sg90
I1
sg91
I0
sg92
I13
sg93
I50
sg94
S'TO'
p5276
sg96
(dp5277
S'A'
p5278
I8
sS'ME'
p5279
I12
sS'RP2'
p5280
I6
sS'E'
p5281
I9
sS'P'
p5282
I9
sS'RP1'
p5283
I9
sS'JP'
p5284
I4
sS'RP_tot'
p5285
I9
sS'TO'
p5286
I9
sS'PA'
p5287
I8
sS'M'
p5288
I11
sS'R'
p5289
I11
sS'TB'
p5290
I5
sS'PL'
p5291
I12
sS'TA'
p5292
I8
ssg208
I0
sg209
I0
sg210
I0
sg211
I0
sg129
F10.35483870967742
sg212
I0
sg213
I0
sg214
I0
sg215
(dp5293
S'A'
p5294
I8
sS'ME'
p5295
I12
sS'RP2'
p5296
I6
sS'E'
p5297
I9
sS'P'
p5298
I9
sS'RP1'
p5299
I9
sS'JP'
p5300
I4
sS'RP_tot'
p5301
I9
sS'TO'
p5302
I9
sS'PA'
p5303
I8
sS'M'
p5304
I11
sS'R'
p5305
I11
sS'TB'
p5306
I5
sS'PL'
p5307
I12
sS'TA'
p5308
I8
ssg232
g5277
sg233
I0
sg234
S'HTH 8'
p5309
sg235
I0
sg236
I0
sg237
I0
sg238
I5
sg239
I6
sg240
I0
sg241
S'HE'
p5310
sbssg208
I11
sg209
I0
sg210
I0
sg211
I0
sg129
F10.387096774193548
sg212
I0
sg213
I0
sg214
I0
sg215
(dp5311
S'A'
p5312
I8
sS'ME'
p5313
I12
sS'RP2'
p5314
I6
sS'E'
p5315
I9
sS'P'
p5316
I9
sS'RP1'
p5317
I9
sS'JP'
p5318
I4
sS'RP_tot'
p5319
I9
sS'TO'
p5320
I9
sS'PA'
p5321
I8
sS'M'
p5322
I11
sS'R'
p5323
I11
sS'TB'
p5324
I5
sS'PL'
p5325
I12
sS'TA'
p5326
I8
ssg232
(dp5327
g5115
I7
sg5116
I12
sg5117
I5
sg5118
I8
sg5123
I10
sg5120
I9
sg5121
I4
sg5122
I9
sg5119
I9
sg5124
I8
sg5125
I9
sg5126
I13
sg5127
I5
sg5128
I11
sg5129
I8
ssg233
I0
sg340
(dp5328
sg235
I0
sg234
S'HTH 8;TO 12'
p5329
sg236
I0
sg237
I0
sg238
I16
sg239
I6
sg240
I0
sg241
S'HE'
p5330
sbssS'remplacements'
p5331
(dp5332
g2444
S'n0'
p5333
sg2692
g5333
sg3185
g5333
sg3420
g5333
sg3661
g5333
sg3757
g5333
sg3926
g5333
ssb.