(iclub
compo
p0
(dp1
S'caracs_old'
p2
(dp3
S'A'
p4
F159.5
sS'ME'
p5
F91.5
sS'E'
p6
I203
sS'OplusAV'
p7
F55.0
sS'TO_off'
p8
F94.5
sS'OplusAR'
p9
F80.5
sS'M'
p10
F49.0
sS'JP'
p11
F102.5
sS'OmoinsAR'
p12
F55.5
sS'PA'
p13
F117.5
sS'TO_def'
p14
F89.5
sS'OmoinsAV'
p15
F55.5
sS'R'
p16
F140.5
ssS'totaux_old'
p17
(dp18
S'T2'
p19
F189.75
sS'T3'
p20
F101.5
sS'T1'
p21
F162.0
ssS'roles'
p22
(dp23
S'drop1'
p24
(ijoueur
joueur
p25
(dp26
S'EV_saison_11'
p27
F10.71875
sS'rouges_total'
p28
I0
sS'drops_total'
p29
I10
sS'blessure'
p30
I0
sS'RG_max'
p31
ccopy_reg
_reconstructor
p32
(cjoueur
rang_new
p33
c__builtin__
object
p34
Ntp35
Rp36
(dp37
S'type_nb'
p38
I4
sS'rang'
p39
S'*'
p40
sS'type'
p41
S'heros'
p42
sbsS'MJ2_total'
p43
(dp44
S'SR'
p45
I0
sS'CT'
p46
I0
sS'CR'
p47
I0
sS'ST'
p48
I0
ssS'MJ3_total'
p49
(dp50
g45
I0
sg46
I0
sg47
I0
sg48
I0
ssS'drop_rates_total'
p51
I0
sS'drop_rates_saison'
p52
I1
sS'transformations'
p53
I7
sS'penalites'
p54
I10
sS'MS_probleme'
p55
I00
sS'essais_saison'
p56
I1
sS'penalite_ratees_saison'
p57
I0
sS'transformations_saison'
p58
I12
sS'postes'
p59
(S'dummy'
p60
S'C1'
p61
S'DO'
p62
S'AR'
p63
tp64
sS'veut_partir'
p65
I00
sS'RG'
p66
g32
(g33
g34
Ntp67
Rp68
(dp69
g38
I5
sg39
S'**'
p70
sg41
S'seigneur'
p71
sbsS'MJ1'
p72
(dp73
S'SR'
p74
I0
sS'ST'
p75
I0
sS'CR'
p76
I0
sS'CT'
p77
I9
ssS'MJ2'
p78
(dp79
g74
I0
sg75
I0
sg76
I0
sg77
I0
ssS'MJ3'
p80
(dp81
g74
I0
sg75
I0
sg76
I0
sg77
I0
ssS'MJ1_total'
p82
(dp83
g45
I0
sg46
I22
sg47
I0
sg48
I5
ssS'penalites_total'
p84
I42
sS'penalites_saison'
p85
I15
sS'nom'
p86
S'Drumakar'
p87
sS'C'
p88
I4
sS'transformations_total'
p89
I22
sS'D'
p90
I15
sS'VAL'
p91
I208
sS'club'
p92
S'DKF'
p93
sS'caracs'
p94
(dp95
S'A'
p96
I7
sS'ME'
p97
I7
sS'RP2'
p98
I9
sS'E'
p99
I12
sS'TO'
p100
I4
sS'RP1'
p101
I10
sS'JP'
p102
I10
sS'RP_tot'
p103
I12
sS'P'
p104
I11
sS'PA'
p105
I11
sS'M'
p106
I10
sS'R'
p107
I7
sS'TB'
p108
I12
sS'PL'
p109
I9
sS'TA'
p110
I4
ssS'fatigue'
p111
I10
sS'drop_ratees_total'
p112
I1
sS'blessures_total'
p113
I1
sS'XP'
p114
I0
sS'EV'
p115
F10.4375
sS'penalite_ratees_total'
p116
I0
sS'drops'
p117
I6
sS'blessures_saison'
p118
I0
sS'jaunes_total'
p119
I1
sS'caracs_saison_11'
p120
(dp121
S'A'
p122
I8
sS'ME'
p123
I7
sS'RP2'
p124
I9
sS'E'
p125
I12
sS'P'
p126
I11
sS'RP1'
p127
I10
sS'JP'
p128
I10
sS'RP_tot'
p129
I12
sS'TO'
p130
I4
sS'PA'
p131
I10
sS'M'
p132
I10
sS'R'
p133
I8
sS'TB'
p134
I12
sS'PL'
p135
I11
sS'TA'
p136
I4
ssS'caracs_sans_fatigue'
p137
(dp138
g96
I8
sg97
I7
sg98
I9
sg99
I12
sg104
I11
sg101
I10
sg102
I10
sg103
I12
sg100
I4
sg105
I11
sg106
I10
sg107
I8
sg108
I12
sg109
I10
sg110
I4
ssS'rouges_saison'
p139
I0
sS'anciens_clubs'
p140
S'KAK 10'
p141
sS'transformation_ratees_total'
p142
I2
sS'drops_saison'
p143
I2
sS'transformation_ratees_saison'
p144
I0
sS'MS'
p145
I19
sS'essais_total'
p146
I10
sS'jaunes_saison'
p147
I0
sS'ARM'
p148
S'N'
p149
sbsS'SA_scd'
p150
(ijoueur
joueur
p151
(dp152
g27
F11.931034482758621
sg28
I0
sg29
I0
sg30
I0
sg31
g32
(g33
g34
Ntp153
Rp154
(dp155
g38
I6
sg39
S'***'
p156
sg41
S'personnage'
p157
sbsg43
(dp158
S'SR'
p159
I0
sS'ST'
p160
I0
sS'CR'
p161
I0
sS'CT'
p162
I2
ssg49
(dp163
g159
I0
sg160
I0
sg161
I0
sg162
I0
ssg51
I0
sg52
I0
sg53
I0
sg54
I0
sg55
I01
sg56
I0
sg57
I0
sg58
I0
sg59
(g60
S'N8'
p164
S'TL'
p165
S''
p166
tp167
sg65
I00
sg66
g32
(g33
g34
Ntp168
Rp169
(dp170
g38
I6
sg39
S'***'
p171
sg41
g157
sbsg72
(dp172
g74
I0
sg75
I0
sg76
I0
sg77
I7
ssg78
(dp173
g74
I0
sg75
I0
sg76
I0
sg77
I2
ssg80
(dp174
g74
I0
sg75
I0
sg76
I0
sg77
I0
ssg82
(dp175
g159
I0
sg160
I3
sg161
I0
sg162
I21
ssg84
I0
sg85
I0
sg86
S'Crom'
p176
sg88
I1
sg89
I0
sg90
I9
sg91
I320
sg92
g93
sg94
(dp177
S'A'
p178
I13
sS'ME'
p179
I10
sS'RP2'
p180
I8
sS'E'
p181
I11
sS'P'
p182
I8
sS'RP1'
p183
I14
sS'JP'
p184
I3
sS'RP_tot'
p185
I15
sS'TO'
p186
I10
sS'PA'
p187
I10
sS'M'
p188
I6
sS'R'
p189
I11
sS'TB'
p190
I4
sS'PL'
p191
I13
sS'TA'
p192
I7
ssg111
I7
sg112
I0
sg113
I0
sg114
I0
sg115
F11.931034482758621
sg116
I0
sg117
I0
sg118
I0
sg119
I0
sg120
(dp193
S'A'
p194
I13
sS'ME'
p195
I11
sS'RP2'
p196
I8
sS'E'
p197
I11
sS'TO'
p198
I11
sS'RP1'
p199
I14
sS'JP'
p200
I3
sS'RP_tot'
p201
I15
sS'P'
p202
I7
sS'PA'
p203
I10
sS'M'
p204
I6
sS'R'
p205
I11
sS'TB'
p206
I4
sS'PL'
p207
I13
sS'TA'
p208
I7
ssg137
(dp209
g178
I13
sg179
I10
sg180
I8
sg181
I11
sg186
I10
sg183
I14
sg184
I3
sg185
I15
sg182
I8
sg187
I10
sg188
I6
sg189
I11
sg190
I4
sg191
I13
sg192
I7
ssg139
I0
sg140
S'KHR 9'
p210
sg142
I0
sg143
I0
sg144
I0
sg145
I40
sg146
I21
sg147
I0
sg148
S'CHS'
p211
sbsS'RJL'
p212
(ijoueur
joueur
p213
(dp214
g27
F10.93939393939394
sg28
I1
sg29
I5
sg30
I0
sg31
g32
(g33
g34
Ntp215
Rp216
(dp217
g38
I4
sg39
S'*'
p218
sg41
g42
sbsg43
(dp219
g159
I0
sg160
I0
sg161
I0
sg162
I0
ssg49
(dp220
g159
I0
sg160
I0
sg161
I0
sg162
I0
ssg51
I2
sg52
I0
sg53
I1
sg54
I3
sg55
I00
sg56
I0
sg57
I0
sg58
I0
sg59
(g60
S'DO'
p221
g166
g166
tp222
sg65
I00
sg66
g32
(g33
g34
Ntp223
Rp224
(dp225
g38
I5
sg39
S'**'
p226
sg41
S'seigneur'
p227
sbsg72
(dp228
g74
I0
sg75
I0
sg76
I0
sg77
I8
ssg78
(dp229
g74
I0
sg75
I0
sg76
I0
sg77
I0
ssg80
(dp230
g74
I0
sg75
I0
sg76
I0
sg77
I0
ssg82
(dp231
g159
I0
sg160
I0
sg161
I0
sg162
I22
ssg84
I14
sg85
I6
sg86
S'Flolar'
p232
sg88
I7
sg89
I0
sg90
I15
sg91
I215
sg92
g93
sg94
(dp233
g178
I12
sg179
I5
sg180
I9
sg181
I13
sg182
I14
sg183
I7
sg184
I13
sg185
I9
sg186
I8
sg187
I12
sg188
I9
sg189
I9
sg190
I12
sg191
I11
sg192
I5
ssg111
I3
sg112
I0
sg113
I0
sg114
I0
sg115
F11.82857142857143
sg116
I3
sg117
I1
sg118
I0
sg119
I3
sg120
(dp234
g194
I11
sg195
I5
sg196
I8
sg197
I12
sg198
I7
sg199
I7
sg200
I10
sg201
I8
sg202
I13
sg203
I11
sg204
I9
sg205
I8
sg206
I10
sg207
I10
sg208
I5
ssg137
(dp235
g178
I12
sg179
I5
sg180
I9
sg181
I13
sg186
I8
sg183
I7
sg184
I13
sg185
I9
sg182
I14
sg187
I12
sg188
I9
sg189
I9
sg190
I12
sg191
I11
sg192
I5
ssg139
I1
sg140
S'KAK 11'
p236
sg142
I0
sg143
I2
sg144
I0
sg145
I36
sg146
I6
sg147
I0
sg148
S'ES'
p237
sbsS'cap'
p238
g213
sS'B4'
p239
g213
sS'RJC'
p240
g213
sS'B1'
p241
g25
sS'B2'
p242
g25
sS'B3'
p243
g25
sS'SA_pcp2'
p244
(ijoueur
joueur
p245
(dp246
g27
F9.735294117647058
sg28
I1
sg29
I0
sg30
I0
sg31
g32
(g33
g34
Ntp247
Rp248
(dp249
g38
I1
sg39
S'^'
p250
sg41
S'base'
p251
sbsg43
(dp252
S'SR'
p253
I0
sS'CT'
p254
I0
sS'CR'
p255
I0
sS'ST'
p256
I0
ssg49
(dp257
g253
I0
sg254
I0
sg255
I0
sg256
I0
ssg51
I0
sg52
I0
sg55
I00
sg56
I1
sg57
I0
sg58
I0
sg59
(S'dummy'
p258
S'DL'
p259
g166
g166
tp260
sg65
I00
sg66
g32
(g33
g34
Ntp261
Rp262
(dp263
g38
I2
sg39
S'^^'
p264
sg41
S'special'
p265
sbsg72
(dp266
S'SR'
p267
I0
sS'ST'
p268
I0
sS'CR'
p269
I0
sS'CT'
p270
I9
ssg78
(dp271
g267
I0
sg268
I0
sg269
I0
sg270
I0
ssg80
(dp272
g267
I0
sg268
I0
sg269
I0
sg270
I0
ssg82
(dp273
g253
I7
sg254
I11
sg255
I7
sg256
I1
ssg84
I0
sg85
I0
sg86
S'Lyath'
p274
sg88
I1
sg89
I0
sg90
I14
sg91
I50
sg92
g93
sg94
(dp275
S'A'
p276
I11
sS'ME'
p277
I9
sS'RP2'
p278
I5
sS'E'
p279
I9
sS'TO'
p280
I11
sS'RP1'
p281
I11
sS'JP'
p282
I4
sS'RP_tot'
p283
I11
sS'P'
p284
I7
sS'PA'
p285
I10
sS'M'
p286
I8
sS'R'
p287
I7
sS'TB'
p288
I4
sS'PL'
p289
I8
sS'TA'
p290
I5
ssg111
I12
sg112
I0
sg113
I1
sg114
I0
sg115
F9.617647058823529
sg116
I0
sg118
I1
sg119
I0
sg120
(dp291
S'A'
p292
I12
sS'ME'
p293
I9
sS'RP2'
p294
I5
sS'E'
p295
I9
sS'TO'
p296
I11
sS'RP1'
p297
I11
sS'JP'
p298
I4
sS'RP_tot'
p299
I11
sS'P'
p300
I7
sS'PA'
p301
I10
sS'M'
p302
I8
sS'R'
p303
I8
sS'TB'
p304
I4
sS'PL'
p305
I10
sS'TA'
p306
I5
ssg137
(dp307
g276
I12
sg277
I9
sg278
I5
sg279
I9
sg284
I7
sg281
I11
sg282
I4
sg283
I11
sg280
I11
sg285
I10
sg286
I8
sg287
I8
sg288
I4
sg289
I9
sg290
I5
ssg139
I1
sg140
S'SN 12'
p308
sg142
I0
sg143
I0
sg144
I0
sg145
I6
sg146
I6
sg147
I0
sg148
S'HE'
p309
sbsS'SA_pcp1'
p310
(ijoueur
joueur
p311
(dp312
g27
F8.705882352941176
sg28
I0
sg29
I0
sg30
I0
sg31
g32
(g33
g34
Ntp313
Rp314
(dp315
g38
I4
sg39
S'x'
p316
sg41
g42
sbsg43
(dp317
S'SR'
p318
I0
sS'CT'
p319
I5
sS'CR'
p320
I7
sS'ST'
p321
I0
ssg49
(dp322
g318
I0
sg319
I0
sg320
I0
sg321
I0
ssg51
I0
sg52
I0
sg53
I0
sg54
I0
sg55
I00
sg56
I0
sg57
I0
sg58
I0
sg59
(g60
S'DL'
p323
S'TL'
p324
g166
tp325
sg65
I00
sg66
g314
sg72
(dp326
g74
I0
sg75
I0
sg76
I0
sg77
I8
ssg78
(dp327
g74
I0
sg75
I0
sg76
I0
sg77
I1
ssg80
(dp328
g74
I0
sg75
I0
sg76
I0
sg77
I0
ssg82
(dp329
g318
I0
sg319
I8
sg320
I2
sg321
I0
ssg84
I0
sg85
I0
sg86
S'Cartayd'
p330
sg88
I11
sg89
I0
sg90
I21
sg91
I101
sg92
g93
sg94
(dp331
S'A'
p332
I9
sS'ME'
p333
I11
sS'RP2'
p334
I7
sS'E'
p335
I8
sS'TO'
p336
I12
sS'RP1'
p337
I9
sS'JP'
p338
I5
sS'RP_tot'
p339
I10
sS'P'
p340
I5
sS'PA'
p341
I10
sS'M'
p342
I11
sS'R'
p343
I8
sS'TB'
p344
I2
sS'PL'
p345
I9
sS'TA'
p346
I3
ssg111
I15
sg112
I0
sg113
I0
sg114
I0
sg115
F10.735294117647058
sg116
I0
sg117
I0
sg118
I0
sg119
I1
sg120
(dp347
S'A'
p348
I8
sS'ME'
p349
I8
sS'RP2'
p350
I6
sS'E'
p351
I9
sS'P'
p352
I4
sS'RP1'
p353
I8
sS'JP'
p354
I4
sS'RP_tot'
p355
I8
sS'TO'
p356
I9
sS'PA'
p357
I8
sS'M'
p358
I8
sS'R'
p359
I8
sS'TB'
p360
I1
sS'PL'
p361
I8
sS'TA'
p362
I3
ssg137
(dp363
g332
I10
sg333
I12
sg334
I8
sg335
I9
sg340
I6
sg337
I10
sg338
I6
sg339
I11
sg336
I13
sg341
I11
sg342
I12
sg343
I9
sg344
I3
sg345
I10
sg346
I4
ssg139
I0
sg140
g166
sg142
I0
sg143
I0
sg144
I0
sg145
I9
sg146
I0
sg147
I1
sg148
S'CV'
p364
sbsS'drop3'
p365
g25
sS'SA_remp1'
p366
(ijoueur
joueur
p367
(dp368
g27
F10.064516129032258
sg28
I1
sg29
I0
sg30
I0
sg31
g32
(g33
g34
Ntp369
Rp370
(dp371
g38
I3
sg39
S'^^^'
p372
sg41
S'rare'
p373
sbsg43
(dp374
S'SR'
p375
I0
sS'CT'
p376
I0
sS'CR'
p377
I0
sS'ST'
p378
I0
ssg49
(dp379
g375
I0
sg376
I13
sg377
I0
sg378
I5
ssg51
I0
sg115
F9.763157894736842
sg52
I0
sg53
I0
sg54
I0
sg56
I1
sg57
I0
sg58
I0
sg59
(S'dummy'
p380
S'TL'
p381
S'DL'
p382
S'PI'
p383
tp384
sg65
I00
sg66
g32
(g33
g34
Ntp385
Rp386
(dp387
g38
I3
sg39
S'^^^'
p388
sg41
g373
sbsg72
(dp389
g74
I0
sg75
I0
sg76
I1
sg77
I8
ssg55
I00
sg80
(dp390
g74
I0
sg75
I0
sg76
I0
sg77
I0
ssg82
(dp391
g375
I0
sg376
I10
sg377
I2
sg378
I0
ssg84
I0
sg85
I0
sg86
S'Beragueux'
p392
sg88
I4
sg89
I0
sg90
I12
sg91
I100
sg92
g93
sg94
(dp393
S'A'
p394
I10
sS'ME'
p395
I9
sS'RP2'
p396
I9
sS'E'
p397
I10
sS'TO'
p398
I10
sS'RP1'
p399
I5
sS'JP'
p400
I4
sS'RP_tot'
p401
I9
sS'P'
p402
I5
sS'PA'
p403
I10
sS'M'
p404
I7
sS'R'
p405
I9
sS'TB'
p406
I5
sS'PL'
p407
I9
sS'TA'
p408
I3
ssg111
I8
sg112
I0
sg113
I0
sg114
I0
sg78
(dp409
g74
I0
sg75
I0
sg76
I0
sg77
I0
ssg116
I0
sg117
I0
sg118
I0
sg119
I0
sg120
(dp410
S'A'
p411
I11
sS'ME'
p412
I9
sS'RP2'
p413
I9
sS'E'
p414
I10
sS'P'
p415
I5
sS'RP1'
p416
I6
sS'JP'
p417
I4
sS'RP_tot'
p418
I9
sS'TO'
p419
I10
sS'PA'
p420
I10
sS'M'
p421
I8
sS'R'
p422
I11
sS'TB'
p423
I5
sS'PL'
p424
I12
sS'TA'
p425
I4
ssg137
(dp426
g394
I11
sg395
I9
sg396
I9
sg397
I10
sg402
I5
sg399
I5
sg400
I4
sg401
I9
sg398
I10
sg403
I10
sg404
I7
sg405
I10
sg406
I5
sg407
I10
sg408
I3
ssg139
I0
sg140
S'TA 12'
p427
sg142
I0
sg143
I0
sg144
I0
sg145
I15
sg146
I2
sg147
I0
sg148
S'B'
p428
sbsS'drop2'
p429
g213
sS'SA_remp2'
p430
(ijoueur
joueur
p431
(dp432
g27
F9.222222222222221
sg28
I1
sg29
I0
sg30
I0
sg31
g32
(g33
g34
Ntp433
Rp434
(dp435
g38
I2
sg39
S'<<'
p436
sg41
S'special'
p437
sbsg43
(dp438
S'SR'
p439
I0
sS'CT'
p440
I0
sS'CR'
p441
I2
sS'ST'
p442
I0
ssg49
(dp443
g439
I0
sg440
I0
sg441
I0
sg442
I0
ssg51
I0
sg52
I0
sg55
I00
sg56
I0
sg57
I0
sg58
I0
sg59
(S'dummy'
p444
S'N8'
p445
S'DL'
p446
g166
tp447
sg65
I00
sg66
g32
(g33
g34
Ntp448
Rp449
(dp450
g38
I2
sg39
S'<<'
p451
sg41
g437
sbsg72
(dp452
g74
I0
sg75
I0
sg76
I4
sg77
I3
ssg78
(dp453
g74
I0
sg75
I0
sg76
I2
sg77
I0
ssg80
(dp454
g74
I0
sg75
I0
sg76
I0
sg77
I0
ssg82
(dp455
g439
I0
sg440
I14
sg441
I5
sg442
I0
ssg84
I0
sg85
I0
sg86
S'Famyed'
p456
sg88
I6
sg89
I0
sg90
I13
sg91
I50
sg92
g93
sg94
(dp457
S'A'
p458
I11
sS'ME'
p459
I9
sS'RP2'
p460
I6
sS'E'
p461
I12
sS'TO'
p462
I10
sS'RP1'
p463
I9
sS'JP'
p464
I4
sS'RP_tot'
p465
I9
sS'P'
p466
I4
sS'PA'
p467
I9
sS'M'
p468
I7
sS'R'
p469
I8
sS'TB'
p470
I5
sS'PL'
p471
I9
sS'TA'
p472
I4
ssg111
I3
sg112
I0
sg113
I0
sg114
I0
sg115
F9.444444444444445
sg116
I0
sg118
I0
sg119
I2
sg120
(dp473
S'A'
p474
I11
sS'ME'
p475
I8
sS'RP2'
p476
I6
sS'E'
p477
I11
sS'P'
p478
I4
sS'RP1'
p479
I9
sS'JP'
p480
I4
sS'RP_tot'
p481
I9
sS'TO'
p482
I11
sS'PA'
p483
I9
sS'M'
p484
I8
sS'R'
p485
I8
sS'TB'
p486
I5
sS'PL'
p487
I9
sS'TA'
p488
I4
ssg137
(dp489
g458
I11
sg459
I9
sg460
I6
sg461
I12
sg466
I4
sg463
I9
sg464
I4
sg465
I9
sg462
I10
sg467
I9
sg468
I7
sg469
I8
sg470
I5
sg471
I9
sg472
I4
ssg139
I0
sg140
S'CAT 12'
p490
sg142
I0
sg143
I0
sg144
I0
sg145
I5
sg146
I3
sg147
I1
sg148
S'EN'
p491
sbssS'totaux'
p492
(dp493
g19
I0
sg20
I0
sg21
I0
ssS'_compo_defaut_fatigue'
p494
Nsg94
(dp495
g4
I0
sg5
I0
sg6
I0
sg7
I0
sg8
I0
sg9
I0
sg10
I0
sg11
I0
sg12
I0
sg13
I0
sg14
I0
sg15
I0
sg16
I0
ssS'joueurs'
p496
(dp497
S'n12'
p498
g25
sS'n13'
p499
(ijoueur
joueur
p500
(dp501
g27
F10.068965517241379
sg28
I0
sg29
I0
sg30
I0
sg31
g32
(g33
g34
Ntp502
Rp503
(dp504
g38
I5
sg39
S'**'
p505
sg41
S'seigneur'
p506
sbsg43
(dp507
S'SR'
p508
I0
sS'ST'
p509
I0
sS'CR'
p510
I8
sS'CT'
p511
I3
ssg49
(dp512
g508
I0
sg509
I0
sg510
I0
sg511
I0
ssg51
I0
sg52
I0
sg53
I0
sg54
I0
sg55
I00
sg56
I0
sg57
I0
sg58
I0
sg59
(S'dummy'
p513
S'C2'
p514
S'AI'
p515
g166
tp516
sg65
I00
sg66
g32
(g33
g34
Ntp517
Rp518
(dp519
g38
I5
sg39
S'**'
p520
sg41
g506
sbsg72
(dp521
g74
I0
sg75
I0
sg76
I0
sg77
I9
ssg78
(dp522
g74
I0
sg75
I0
sg76
I0
sg77
I0
ssg80
(dp523
g74
I0
sg75
I0
sg76
I0
sg77
I0
ssg82
(dp524
g508
I0
sg509
I0
sg510
I0
sg511
I13
ssg84
I0
sg85
I0
sg86
S'Fretard'
p525
sg88
I2
sg89
I0
sg90
I11
sg91
I275
sg92
g93
sg94
(dp526
S'A'
p527
I9
sS'ME'
p528
I5
sS'RP2'
p529
I10
sS'E'
p530
I11
sS'P'
p531
I6
sS'RP1'
p532
I11
sS'JP'
p533
I6
sS'RP_tot'
p534
I14
sS'TO'
p535
I8
sS'PA'
p536
I11
sS'M'
p537
I8
sS'R'
p538
I4
sS'TB'
p539
I6
sS'PL'
p540
I8
sS'TA'
p541
I5
ssg111
I10
sg112
I0
sg113
I1
sg114
I0
sg115
F9.96551724137931
sg116
I0
sg117
I0
sg118
I1
sg119
I0
sg120
(dp542
S'A'
p543
I10
sS'ME'
p544
I5
sS'RP2'
p545
I10
sS'E'
p546
I11
sS'TO'
p547
I8
sS'RP1'
p548
I11
sS'JP'
p549
I6
sS'RP_tot'
p550
I14
sS'P'
p551
I8
sS'PA'
p552
I11
sS'M'
p553
I10
sS'R'
p554
I6
sS'TB'
p555
I6
sS'PL'
p556
I9
sS'TA'
p557
I5
ssg137
(dp558
g527
I10
sg528
I5
sg529
I10
sg530
I11
sg535
I8
sg532
I11
sg533
I6
sg534
I14
sg531
I6
sg536
I11
sg537
I8
sg538
I5
sg539
I6
sg540
I9
sg541
I5
ssg139
I0
sg140
S'MSL 10;KAK 12'
p559
sg142
I0
sg143
I0
sg144
I0
sg145
I20
sg146
I10
sg147
I0
sg148
S'B'
p560
sbsS'n10'
p561
g213
sS'n11'
p562
(ijoueur
joueur
p563
(dp564
g27
F10.0
sg28
I0
sg29
I0
sg30
I0
sg31
g32
(g33
g34
Ntp565
Rp566
(dp567
g38
I1
sg39
S'^'
p568
sg41
S'base'
p569
sbsg43
(dp570
g45
I0
sg46
I18
sg47
I2
sg48
I0
ssg49
(dp571
g45
I0
sg46
I0
sg47
I0
sg48
I0
ssg51
I0
sg52
I0
sg53
I0
sg54
I0
sg55
I01
sg56
I1
sg57
I3
sg58
I0
sg59
(g60
S'C2'
p572
S'AI'
p573
g166
tp574
sg65
I00
sg66
g32
(g33
g34
Ntp575
Rp576
(dp577
g38
I1
sg39
g568
sg41
g569
sbsg72
(dp578
g74
I0
sg75
I0
sg76
I0
sg77
I0
ssg78
(dp579
g74
I0
sg75
I0
sg76
I1
sg77
I8
ssg80
(dp580
g74
I0
sg75
I0
sg76
I0
sg77
I0
ssg82
(dp581
g45
I0
sg46
I2
sg47
I0
sg48
I0
ssg84
I11
sg85
I5
sg86
S'Eathol'
p582
sg88
I6
sg89
I1
sg90
I14
sg91
I36
sg92
g93
sg94
(dp583
g96
I11
sg97
I3
sg98
I7
sg99
I10
sg100
I6
sg101
I10
sg102
I5
sg103
I10
sg104
I9
sg105
I11
sg106
I10
sg107
I5
sg108
I11
sg109
I10
sg110
I4
ssg111
I5
sg112
I0
sg113
I0
sg114
I0
sg115
F9.806451612903226
sg116
I3
sg117
I0
sg118
I0
sg119
I0
sg120
(dp584
g122
I11
sg123
I3
sg124
I7
sg125
I10
sg126
I9
sg127
I9
sg128
I6
sg129
I9
sg130
I6
sg131
I11
sg132
I9
sg133
I6
sg134
I10
sg135
I10
sg136
I4
ssg137
(dp585
g96
I11
sg97
I3
sg98
I7
sg99
I10
sg104
I9
sg101
I10
sg102
I5
sg103
I10
sg100
I6
sg105
I11
sg106
I10
sg107
I5
sg108
I11
sg109
I10
sg110
I4
ssg139
I0
sg140
g166
sg142
I0
sg143
I0
sg144
I0
sg145
I2
sg146
I3
sg147
I0
sg148
S'HE'
p586
sbsS'n16'
p587
(ijoueur
joueur
p588
(dp589
g27
F8.068965517241379
sg28
I1
sg29
I0
sg30
I0
sg31
g32
(g33
g34
Ntp590
Rp591
(dp592
g38
I1
sg39
S'^'
p593
sg41
g569
sbsg43
(dp594
g318
I0
sg319
I0
sg320
I0
sg321
I0
ssg49
(dp595
g318
I0
sg319
I0
sg320
I0
sg321
I0
ssg51
I0
sg52
I0
sg53
I0
sg54
I0
sg55
I00
sg56
I0
sg57
I0
sg58
I0
sg59
(g60
S'TA'
p596
g166
g166
tp597
sg65
I00
sg66
g32
(g33
g34
Ntp598
Rp599
(dp600
g38
I1
sg39
g593
sg41
g569
sbsg72
(dp601
g74
I0
sg75
I0
sg76
I7
sg77
I3
ssg78
(dp602
g74
I0
sg75
I0
sg76
I0
sg77
I0
ssg80
(dp603
g74
I0
sg75
I0
sg76
I0
sg77
I0
ssg82
(dp604
g318
I0
sg319
I15
sg320
I7
sg321
I0
ssg84
I0
sg85
I0
sg86
S'Antbyop'
p605
sg88
I11
sg89
I0
sg90
I21
sg91
I29
sg92
g93
sg94
(dp606
g332
I7
sg333
I8
sg334
I6
sg335
I9
sg336
I5
sg337
I9
sg338
I3
sg339
I9
sg340
I5
sg341
I6
sg342
I8
sg343
I7
sg344
I2
sg345
I4
sg346
I9
ssg111
I9
sg112
I0
sg113
I0
sg114
I0
sg115
F7.931034482758621
sg116
I0
sg117
I0
sg118
I0
sg119
I0
sg120
(dp607
g348
I8
sg349
I8
sg350
I6
sg351
I9
sg352
I5
sg353
I9
sg354
I3
sg355
I9
sg356
I5
sg357
I6
sg358
I8
sg359
I9
sg360
I2
sg361
I6
sg362
I9
ssg137
(dp608
g332
I8
sg333
I8
sg334
I6
sg335
I9
sg340
I5
sg337
I9
sg338
I3
sg339
I9
sg336
I5
sg341
I6
sg342
I8
sg343
I8
sg344
I2
sg345
I5
sg346
I9
ssg139
I0
sg140
g166
sg142
I0
sg143
I0
sg144
I0
sg145
I6
sg146
I0
sg147
I0
sg148
S'CV'
p609
sbsS'n17'
p610
(ijoueur
joueur
p611
(dp612
g27
F8.555555555555555
sg28
I0
sg29
I0
sg30
I0
sg31
g32
(g33
g34
Ntp613
Rp614
(dp615
g38
I4
sg39
S'*'
p616
sg41
g42
sbsg43
(dp617
S'SR'
p618
I0
sS'ST'
p619
I0
sS'CR'
p620
I0
sS'CT'
p621
I0
ssg49
(dp622
g618
I0
sg619
I0
sg620
I0
sg621
I0
ssg51
I0
sg52
I0
sg53
I0
sg54
I0
sg55
I00
sg56
I0
sg57
I0
sg58
I0
sg59
(g60
S'PI'
p623
S'DL'
p624
g166
tp625
sg65
I00
sg66
g614
sg72
(dp626
g74
I0
sg75
I0
sg76
I5
sg77
I1
ssg78
(dp627
g74
I0
sg75
I0
sg76
I0
sg77
I0
ssg80
(dp628
g74
I0
sg75
I0
sg76
I0
sg77
I0
ssg82
(dp629
g618
I0
sg619
I0
sg620
I15
sg621
I6
ssg84
I0
sg85
I0
sg86
S'Uvolher'
p630
sg88
I10
sg89
I0
sg90
I25
sg91
I65
sg92
g93
sg94
(dp631
S'A'
p632
I5
sS'ME'
p633
I10
sS'RP2'
p634
I9
sS'E'
p635
I10
sS'P'
p636
I4
sS'RP1'
p637
I10
sS'JP'
p638
I3
sS'RP_tot'
p639
I12
sS'TO'
p640
I5
sS'PA'
p641
I6
sS'M'
p642
I7
sS'R'
p643
I7
sS'TB'
p644
I4
sS'PL'
p645
I7
sS'TA'
p646
I7
ssg111
I1
sg112
I0
sg113
I0
sg114
I0
sg115
F8.555555555555555
sg116
I0
sg117
I0
sg118
I0
sg119
I1
sg120
(dp647
S'A'
p648
I5
sS'ME'
p649
I9
sS'RP2'
p650
I8
sS'E'
p651
I10
sS'TO'
p652
I5
sS'RP1'
p653
I9
sS'JP'
p654
I1
sS'RP_tot'
p655
I10
sS'P'
p656
I2
sS'PA'
p657
I6
sS'M'
p658
I7
sS'R'
p659
I8
sS'TB'
p660
I2
sS'PL'
p661
I7
sS'TA'
p662
I6
ssg137
(dp663
g632
I5
sg633
I10
sg634
I9
sg635
I10
sg640
I5
sg637
I10
sg638
I3
sg639
I12
sg636
I4
sg641
I6
sg642
I7
sg643
I7
sg644
I4
sg645
I7
sg646
I7
ssg139
I0
sg140
g166
sg142
I0
sg143
I0
sg144
I0
sg145
I7
sg146
I1
sg147
I0
sg148
S'CV'
p664
sbsS'n14'
p665
(ijoueur
joueur
p666
(dp667
g27
F10.774193548387096
sg28
I0
sg29
I0
sg30
I0
sg31
g32
(g33
g34
Ntp668
Rp669
(dp670
g38
I5
sg39
S'**'
p671
sg41
g71
sbsg43
(dp672
g45
I0
sg46
I0
sg47
I0
sg48
I0
ssg49
(dp673
g45
I0
sg46
I0
sg47
I0
sg48
I0
ssg51
I0
sg52
I0
sg53
I0
sg54
I0
sg55
I00
sg56
I0
sg57
I0
sg58
I0
sg59
(g60
S'AI'
p674
g166
g166
tp675
sg65
I00
sg66
g669
sg72
(dp676
g74
I0
sg75
I0
sg76
I0
sg77
I9
ssg78
(dp677
g74
I0
sg75
I0
sg76
I0
sg77
I0
ssg80
(dp678
g74
I0
sg75
I0
sg76
I0
sg77
I0
ssg82
(dp679
g45
I0
sg46
I13
sg47
I5
sg48
I0
ssg84
I0
sg85
I0
sg86
S'Qleyr'
p680
sg88
I9
sg89
I0
sg90
I23
sg91
I181
sg92
g93
sg94
(dp681
g96
I12
sg97
I5
sg98
I10
sg99
I11
sg100
I7
sg101
I9
sg102
I6
sg103
I12
sg104
I9
sg105
I12
sg106
I10
sg107
I6
sg108
I9
sg109
I8
sg110
I5
ssg111
I12
sg112
I0
sg113
I0
sg114
I0
sg115
F10.903225806451612
sg116
I0
sg117
I0
sg118
I0
sg119
I0
sg120
(dp682
g122
I10
sg123
I4
sg124
I8
sg125
I9
sg126
I7
sg127
I9
sg128
I5
sg129
I10
sg130
I5
sg131
I10
sg132
I10
sg133
I6
sg134
I7
sg135
I7
sg136
I4
ssg137
(dp683
g96
I13
sg97
I5
sg98
I10
sg99
I11
sg104
I9
sg101
I9
sg102
I6
sg103
I12
sg100
I7
sg105
I12
sg106
I10
sg107
I7
sg108
I9
sg109
I9
sg110
I5
ssg139
I0
sg140
g166
sg142
I0
sg143
I0
sg144
I0
sg145
I18
sg146
I0
sg147
I0
sg148
S'CV'
p684
sbsS'n15'
p685
(ijoueur
joueur
p686
(dp687
g27
F11.212121212121213
sg28
I0
sg29
I0
sg30
I0
sg31
g32
(g33
g34
Ntp688
Rp689
(dp690
g38
I4
sg39
S'x'
p691
sg41
g42
sbsg43
(dp692
g45
I0
sg46
I0
sg47
I0
sg48
I0
ssg49
(dp693
g45
I0
sg46
I0
sg47
I0
sg48
I0
ssg51
I0
sg52
I0
sg53
I0
sg54
I0
sg55
I01
sg56
I1
sg57
I0
sg58
I0
sg59
(g60
S'AR'
p694
S'AI'
p695
g166
tp696
sg65
I00
sg66
g32
(g33
g34
Ntp697
Rp698
(dp699
g38
I4
sg39
g691
sg41
g42
sbsg72
(dp700
g74
I0
sg75
I0
sg76
I0
sg77
I8
ssg78
(dp701
g74
I0
sg75
I0
sg76
I0
sg77
I0
ssg80
(dp702
g74
I0
sg75
I0
sg76
I0
sg77
I0
ssg82
(dp703
g45
I1
sg46
I22
sg47
I0
sg48
I0
ssg84
I0
sg85
I0
sg86
S'Khobo'
p704
sg88
I8
sg89
I0
sg90
I23
sg91
I78
sg92
g93
sg94
(dp705
g96
I13
sg97
I5
sg98
I12
sg99
I10
sg100
I6
sg101
I7
sg102
I8
sg103
I12
sg104
I9
sg105
I10
sg106
I12
sg107
I8
sg108
I6
sg109
I13
sg110
I2
ssg111
I7
sg112
I0
sg113
I0
sg114
I0
sg115
F11.393939393939394
sg116
I0
sg117
I0
sg118
I0
sg119
I0
sg120
(dp706
g122
I12
sg123
I5
sg124
I12
sg125
I9
sg126
I8
sg127
I7
sg128
I7
sg129
I12
sg130
I6
sg131
I9
sg132
I11
sg133
I8
sg134
I6
sg135
I12
sg136
I2
ssg137
(dp707
g96
I13
sg97
I5
sg98
I12
sg99
I10
sg104
I9
sg101
I7
sg102
I8
sg103
I12
sg100
I6
sg105
I10
sg106
I12
sg107
I8
sg108
I6
sg109
I13
sg110
I2
ssg139
I0
sg140
g166
sg142
I0
sg143
I0
sg144
I0
sg145
I9
sg146
I4
sg147
I0
sg148
S'CV'
p708
sbsS'n18'
p709
(ijoueur
joueur
p710
(dp711
g27
F9.323529411764707
sg28
I0
sg29
I0
sg30
I0
sg31
g32
(g33
g34
Ntp712
Rp713
(dp714
g38
I4
sg39
S'*'
p715
sg41
S'heros'
p716
sbsg43
(dp717
S'SR'
p718
I0
sS'ST'
p719
I0
sS'CR'
p720
I0
sS'CT'
p721
I0
ssg49
(dp722
g718
I0
sg719
I0
sg720
I0
sg721
I0
ssg51
I0
sg52
I0
sg55
I00
sg56
I1
sg57
I0
sg58
I0
sg59
(S'dummy'
p723
S'DL'
p724
g166
g166
tp725
sg65
I00
sg66
g32
(g33
g34
Ntp726
Rp727
(dp728
g38
I4
sg39
S'*'
p729
sg41
g716
sbsg72
(dp730
g267
I0
sg268
I0
sg269
I4
sg270
I5
ssg78
(dp731
g267
I0
sg268
I0
sg269
I0
sg270
I0
ssg80
(dp732
g267
I0
sg268
I0
sg269
I0
sg270
I0
ssg82
(dp733
g718
I0
sg719
I0
sg720
I11
sg721
I12
ssg84
I0
sg85
I0
sg86
S'Klendaeth'
p734
sg88
I8
sg89
I0
sg90
I19
sg91
I94
sg92
g93
sg94
(dp735
S'A'
p736
I11
sS'ME'
p737
I9
sS'RP2'
p738
I8
sS'E'
p739
I11
sS'P'
p740
I8
sS'RP1'
p741
I9
sS'JP'
p742
I4
sS'RP_tot'
p743
I10
sS'TO'
p744
I10
sS'PA'
p745
I10
sS'M'
p746
I8
sS'R'
p747
I6
sS'TB'
p748
I6
sS'PL'
p749
I9
sS'TA'
p750
I3
ssg111
I8
sg112
I0
sg113
I0
sg114
I0
sg115
F9.441176470588236
sg116
I0
sg118
I0
sg119
I0
sg120
(dp751
g474
I12
sg475
I9
sg476
I8
sg477
I11
sg478
I8
sg479
I8
sg480
I4
sg481
I9
sg482
I10
sg483
I10
sg484
I8
sg485
I7
sg486
I6
sg487
I10
sg488
I3
ssg137
(dp752
g736
I12
sg737
I9
sg738
I8
sg739
I11
sg744
I10
sg741
I9
sg742
I4
sg743
I10
sg740
I8
sg745
I10
sg746
I8
sg747
I7
sg748
I6
sg749
I10
sg750
I3
ssg139
I0
sg140
S'CAT 12'
p753
sg142
I0
sg143
I0
sg144
I0
sg145
I8
sg146
I1
sg147
I0
sg148
S'EN'
p754
sbsS'n19'
p755
(ijoueur
joueur
p756
(dp757
g27
F10.064516129032258
sg28
I1
sg29
I0
sg30
I0
sg31
g32
(g33
g34
Ntp758
Rp759
(dp760
g38
I3
sg39
S'^^^'
p761
sg41
S'rare'
p762
sbsg43
(dp763
S'SR'
p764
I0
sS'ST'
p765
I0
sS'CR'
p766
I0
sS'CT'
p767
I0
ssg49
(dp768
g764
I0
sg765
I5
sg766
I0
sg767
I13
ssg51
I0
sg52
I0
sg53
I0
sg54
I0
sg55
I00
sg56
I1
sg57
I0
sg58
I0
sg59
(S'dummy'
p769
S'TL'
p770
S'DL'
p771
S'PI'
p772
tp773
sg65
I00
sg66
g32
(g33
g34
Ntp774
Rp775
(dp776
g38
I3
sg39
S'^^^'
p777
sg41
g762
sbsg72
(dp778
S'SR'
p779
I0
sS'CT'
p780
I8
sS'CR'
p781
I1
sS'ST'
p782
I0
ssg78
(dp783
g779
I0
sg780
I0
sg781
I0
sg782
I0
ssg80
(dp784
g779
I0
sg780
I0
sg781
I0
sg782
I0
ssg82
(dp785
g764
I0
sg765
I0
sg766
I2
sg767
I10
ssg84
I0
sg85
I0
sg86
S'Beragueux'
p786
sg88
I4
sg89
I0
sg90
I12
sg91
I100
sg92
S'DKF'
p787
sg94
(dp788
S'A'
p789
I10
sS'ME'
p790
I9
sS'RP2'
p791
I9
sS'E'
p792
I10
sS'P'
p793
I5
sS'RP1'
p794
I5
sS'JP'
p795
I4
sS'RP_tot'
p796
I9
sS'TO'
p797
I10
sS'PA'
p798
I10
sS'M'
p799
I7
sS'R'
p800
I9
sS'TB'
p801
I5
sS'PL'
p802
I9
sS'TA'
p803
I3
ssg111
I8
sg112
I0
sg113
I0
sg114
I0
sg115
F9.763157894736842
sg116
I0
sg117
I0
sg118
I0
sg119
I0
sg120
(dp804
S'A'
p805
I11
sS'ME'
p806
I9
sS'RP2'
p807
I9
sS'E'
p808
I10
sS'TO'
p809
I10
sS'RP1'
p810
I6
sS'JP'
p811
I4
sS'RP_tot'
p812
I9
sS'P'
p813
I5
sS'PA'
p814
I10
sS'M'
p815
I8
sS'R'
p816
I11
sS'TB'
p817
I5
sS'PL'
p818
I12
sS'TA'
p819
I4
ssg137
(dp820
g789
I11
sg790
I9
sg791
I9
sg792
I10
sg797
I10
sg794
I5
sg795
I4
sg796
I9
sg793
I5
sg798
I10
sg799
I7
sg800
I10
sg801
I5
sg802
I10
sg803
I3
ssg139
I0
sg140
S'TA 12'
p821
sg142
I0
sg143
I0
sg144
I0
sg145
I15
sg146
I2
sg147
I0
sg148
S'B'
p822
sbsS'n22'
p823
(ijoueur
joueur
p824
(dp825
g27
F9.935483870967742
sg28
I0
sg29
I0
sg30
I0
sg31
g32
(g33
g34
Ntp826
Rp827
(dp828
g38
I4
sg39
g691
sg41
g42
sbsg43
(dp829
g45
I0
sg46
I0
sg47
I0
sg48
I0
ssg49
(dp830
g45
I0
sg46
I1
sg47
I0
sg48
I0
ssg51
I0
sg52
I0
sg53
I0
sg54
I0
sg55
I00
sg56
I2
sg57
I0
sg58
I0
sg59
(g60
S'AI'
p831
S'CE'
p832
S'AR'
p833
tp834
sg65
I00
sg66
g32
(g33
g34
Ntp835
Rp836
(dp837
g38
I4
sg39
g691
sg41
g42
sbsg72
(dp838
g74
I0
sg75
I0
sg76
I3
sg77
I5
ssg78
(dp839
g74
I0
sg75
I0
sg76
I0
sg77
I0
ssg80
(dp840
g74
I0
sg75
I0
sg76
I0
sg77
I1
ssg82
(dp841
g45
I0
sg46
I18
sg47
I3
sg48
I0
ssg84
I0
sg85
I0
sg86
S'Baefol'
p842
sg88
I7
sg89
I0
sg90
I17
sg91
I184
sg92
g93
sg94
(dp843
g96
I12
sg97
I4
sg98
I9
sg99
I9
sg100
I11
sg101
I5
sg102
I5
sg103
I9
sg104
I6
sg105
I11
sg106
I11
sg107
I3
sg108
I6
sg109
I10
sg110
I4
ssg111
I3
sg112
I0
sg113
I0
sg114
I0
sg115
F9.806451612903226
sg116
I0
sg117
I0
sg118
I0
sg119
I0
sg120
(dp844
g122
I12
sg123
I4
sg124
I9
sg125
I10
sg126
I6
sg127
I7
sg128
I6
sg129
I9
sg130
I11
sg131
I12
sg132
I11
sg133
I3
sg134
I6
sg135
I11
sg136
I4
ssg137
(dp845
g96
I12
sg97
I4
sg98
I9
sg99
I9
sg104
I6
sg101
I5
sg102
I5
sg103
I9
sg100
I11
sg105
I11
sg106
I11
sg107
I3
sg108
I6
sg109
I10
sg110
I4
ssg139
I0
sg140
g166
sg142
I0
sg143
I0
sg144
I0
sg145
I15
sg146
I6
sg147
I0
sg148
S'ES'
p846
sbsS'n21'
p847
(ijoueur
joueur
p848
(dp849
g27
F9.151515151515152
sg28
I0
sg29
I0
sg30
I0
sg31
g32
(g33
g34
Ntp850
Rp851
(dp852
g38
I4
sg39
S'x'
p853
sg41
g42
sbsg43
(dp854
g159
I0
sg160
I0
sg161
I5
sg162
I14
ssg49
(dp855
g159
I0
sg160
I0
sg161
I0
sg162
I0
ssg51
I0
sg52
I0
sg53
I0
sg54
I1
sg55
I00
sg56
I1
sg57
I0
sg58
I0
sg59
(g60
S'DO'
p856
S'CE'
p857
g166
tp858
sg65
I00
sg66
g32
(g33
g34
Ntp859
Rp860
(dp861
g38
I4
sg39
g853
sg41
g42
sbsg72
(dp862
g74
I0
sg75
I0
sg76
I3
sg77
I0
ssg78
(dp863
g74
I0
sg75
I0
sg76
I4
sg77
I3
ssg80
(dp864
g74
I0
sg75
I0
sg76
I0
sg77
I0
ssg82
(dp865
g159
I0
sg160
I0
sg161
I4
sg162
I1
ssg84
I1
sg85
I0
sg86
S'Jevoff'
p866
sg88
I8
sg89
I0
sg90
I22
sg91
I82
sg92
g93
sg94
(dp867
g178
I9
sg179
I5
sg180
I9
sg181
I9
sg182
I9
sg183
I9
sg184
I7
sg185
I11
sg186
I8
sg187
I11
sg188
I10
sg189
I8
sg190
I8
sg191
I6
sg192
I6
ssg111
I7
sg112
I0
sg113
I0
sg114
I0
sg115
F8.878787878787879
sg116
I0
sg117
I0
sg118
I0
sg119
I3
sg120
(dp868
g194
I9
sg195
I5
sg196
I9
sg197
I9
sg198
I8
sg199
I9
sg200
I10
sg201
I11
sg202
I9
sg203
I11
sg204
I10
sg205
I8
sg206
I8
sg207
I9
sg208
I6
ssg137
(dp869
g178
I9
sg179
I5
sg180
I9
sg181
I9
sg186
I8
sg183
I9
sg184
I7
sg185
I11
sg182
I9
sg187
I11
sg188
I10
sg189
I8
sg190
I8
sg191
I6
sg192
I6
ssg139
I0
sg140
g166
sg142
I0
sg143
I0
sg144
I0
sg145
I9
sg146
I3
sg147
I1
sg148
S'CV'
p870
sbsS'n20'
p871
(ijoueur
joueur
p872
(dp873
g27
F9.551724137931034
sg28
I0
sg29
I0
sg30
I0
sg31
g32
(g33
g34
Ntp874
Rp875
(dp876
g38
I2
sg39
S'^^'
p877
sg41
S'special'
p878
sbsg43
(dp879
g159
I3
sg160
I0
sg161
I10
sg162
I0
ssg49
(dp880
g159
I0
sg160
I0
sg161
I0
sg162
I0
ssg51
I0
sg52
I0
sg53
I0
sg54
I0
sg55
I00
sg56
I0
sg57
I0
sg58
I0
sg59
(g60
S'DM'
p881
S'DO'
p882
g166
tp883
sg65
I00
sg66
g32
(g33
g34
Ntp884
Rp885
(dp886
g38
I2
sg39
S'^^'
p887
sg41
g878
sbsg72
(dp888
g74
I0
sg75
I0
sg76
I3
sg77
I2
ssg78
(dp889
g74
I0
sg75
I0
sg76
I4
sg77
I0
ssg80
(dp890
g74
I0
sg75
I0
sg76
I0
sg77
I0
ssg82
(dp891
g159
I2
sg160
I0
sg161
I9
sg162
I5
ssg84
I0
sg85
I0
sg86
S'Ratelet'
p892
sg88
I8
sg89
I0
sg90
I19
sg91
I99
sg92
g93
sg94
(dp893
g178
I8
sg179
I5
sg180
I6
sg181
I10
sg182
I10
sg183
I5
sg184
I6
sg185
I6
sg186
I4
sg187
I12
sg188
I10
sg189
I6
sg190
I6
sg191
I9
sg192
I6
ssg111
I3
sg112
I0
sg113
I0
sg114
I0
sg115
F9.137931034482758
sg116
I0
sg117
I0
sg118
I0
sg119
I0
sg120
(dp894
g194
I9
sg195
I5
sg196
I6
sg197
I10
sg198
I4
sg199
I5
sg200
I8
sg201
I6
sg202
I10
sg203
I12
sg204
I10
sg205
I6
sg206
I6
sg207
I8
sg208
I6
ssg137
(dp895
g178
I8
sg179
I5
sg180
I6
sg181
I10
sg186
I4
sg183
I5
sg184
I6
sg185
I6
sg182
I10
sg187
I12
sg188
I10
sg189
I6
sg190
I6
sg191
I9
sg192
I6
ssg139
I0
sg140
S'MSL 11'
p896
sg142
I0
sg143
I0
sg144
I0
sg145
I12
sg146
I0
sg147
I0
sg148
S'B'
p897
sbsS'n8'
p898
(ijoueur
joueur
p899
(dp900
g27
F9.222222222222221
sg28
I1
sg29
I0
sg30
I0
sg31
g32
(g33
g34
Ntp901
Rp902
(dp903
g38
I2
sg39
S'<<'
p904
sg41
S'special'
p905
sbsg43
(dp906
S'SR'
p907
I0
sS'ST'
p908
I0
sS'CR'
p909
I2
sS'CT'
p910
I0
ssg49
(dp911
g907
I0
sg908
I0
sg909
I0
sg910
I0
ssg51
I0
sg52
I0
sg55
I00
sg56
I0
sg57
I0
sg58
I0
sg59
(S'dummy'
p912
S'N8'
p913
S'DL'
p914
g166
tp915
sg65
I00
sg66
g32
(g33
g34
Ntp916
Rp917
(dp918
g38
I2
sg39
S'<<'
p919
sg41
g905
sbsg72
(dp920
g779
I0
sg780
I3
sg781
I4
sg782
I0
ssg78
(dp921
g779
I0
sg780
I0
sg781
I2
sg782
I0
ssg80
(dp922
g779
I0
sg780
I0
sg781
I0
sg782
I0
ssg82
(dp923
g907
I0
sg908
I0
sg909
I5
sg910
I14
ssg84
I0
sg85
I0
sg86
S'Famyed'
p924
sg88
I6
sg89
I0
sg90
I13
sg91
I50
sg92
g787
sg94
(dp925
S'A'
p926
I11
sS'ME'
p927
I9
sS'RP2'
p928
I6
sS'E'
p929
I12
sS'P'
p930
I4
sS'RP1'
p931
I9
sS'JP'
p932
I4
sS'RP_tot'
p933
I9
sS'TO'
p934
I10
sS'PA'
p935
I9
sS'M'
p936
I7
sS'R'
p937
I8
sS'TB'
p938
I5
sS'PL'
p939
I9
sS'TA'
p940
I4
ssg111
I3
sg112
I0
sg113
I0
sg114
I0
sg115
F9.444444444444445
sg116
I0
sg118
I0
sg119
I2
sg120
(dp941
S'A'
p942
I11
sS'ME'
p943
I8
sS'RP2'
p944
I6
sS'E'
p945
I11
sS'TO'
p946
I11
sS'RP1'
p947
I9
sS'JP'
p948
I4
sS'RP_tot'
p949
I9
sS'P'
p950
I4
sS'PA'
p951
I9
sS'M'
p952
I8
sS'R'
p953
I8
sS'TB'
p954
I5
sS'PL'
p955
I9
sS'TA'
p956
I4
ssg137
(dp957
g926
I11
sg927
I9
sg928
I6
sg929
I12
sg934
I10
sg931
I9
sg932
I4
sg933
I9
sg930
I4
sg935
I9
sg936
I7
sg937
I8
sg938
I5
sg939
I9
sg940
I4
ssg139
I0
sg140
S'CAT 12'
p958
sg142
I0
sg143
I0
sg144
I0
sg145
I5
sg146
I3
sg147
I1
sg148
S'EN'
p959
sbsS'n9'
p960
(ijoueur
joueur
p961
(dp962
g27
F10.068965517241379
sg28
I2
sg29
I0
sg30
I0
sg31
g32
(g33
g34
Ntp963
Rp964
(dp965
g38
I5
sg39
S'**'
p966
sg41
g71
sbsg43
(dp967
g159
I0
sg160
I0
sg161
I0
sg162
I0
ssg49
(dp968
g159
I0
sg160
I0
sg161
I0
sg162
I0
ssg51
I0
sg52
I0
sg53
I0
sg54
I0
sg55
I00
sg56
I0
sg57
I0
sg58
I0
sg59
(g60
S'DM'
p969
g166
g166
tp970
sg65
I00
sg66
g32
(g33
g34
Ntp971
Rp972
(dp973
g38
I5
sg39
S'**'
p974
sg41
g71
sbsg72
(dp975
g74
I0
sg75
I0
sg76
I0
sg77
I9
ssg78
(dp976
g74
I0
sg75
I0
sg76
I0
sg77
I0
ssg80
(dp977
g74
I0
sg75
I0
sg76
I0
sg77
I0
ssg82
(dp978
g159
I0
sg160
I0
sg161
I0
sg162
I22
ssg84
I4
sg85
I0
sg86
S'Lardhal'
p979
sg88
I6
sg89
I0
sg90
I20
sg91
I180
sg92
g93
sg94
(dp980
g178
I12
sg179
I4
sg180
I8
sg181
I11
sg182
I10
sg183
I6
sg184
I7
sg185
I8
sg186
I9
sg187
I12
sg188
I8
sg189
I7
sg190
I6
sg191
I10
sg192
I6
ssg111
I8
sg112
I0
sg113
I0
sg114
I0
sg115
F10.172413793103448
sg116
I0
sg117
I0
sg118
I0
sg119
I0
sg120
(dp981
g194
I12
sg195
I4
sg196
I8
sg197
I11
sg198
I9
sg199
I6
sg200
I7
sg201
I8
sg202
I10
sg203
I10
sg204
I8
sg205
I8
sg206
I6
sg207
I11
sg208
I6
ssg137
(dp982
g178
I13
sg179
I4
sg180
I8
sg181
I11
sg186
I9
sg183
I6
sg184
I7
sg185
I8
sg182
I10
sg187
I12
sg188
I8
sg189
I8
sg190
I6
sg191
I11
sg192
I6
ssg139
I0
sg140
g166
sg142
I0
sg143
I0
sg144
I0
sg145
I18
sg146
I0
sg147
I0
sg148
S'CV'
p983
sbsS'n1'
p984
(ijoueur
joueur
p985
(dp986
g27
F7.703703703703703
sg28
I1
sg29
I0
sg30
I0
sg31
g32
(g33
g34
Ntp987
Rp988
(dp989
g38
I5
sg39
S'xx'
p990
sg41
g71
sbsg43
(dp991
g618
I0
sg619
I0
sg620
I0
sg621
I0
ssg49
(dp992
g618
I0
sg619
I0
sg620
I0
sg621
I0
ssg51
I0
sg52
I0
sg53
I0
sg54
I0
sg55
I00
sg56
I0
sg57
I0
sg58
I0
sg59
(g60
S'PI'
p993
g166
g166
tp994
sg65
I00
sg66
g32
(g33
g34
Ntp995
Rp996
(dp997
g38
I4
sg39
S'x'
p998
sg41
S'heros'
p999
sbsg72
(dp1000
g74
I0
sg75
I0
sg76
I5
sg77
I4
ssg78
(dp1001
g74
I0
sg75
I0
sg76
I0
sg77
I0
ssg80
(dp1002
g74
I0
sg75
I0
sg76
I0
sg77
I0
ssg82
(dp1003
g618
I0
sg619
I0
sg620
I7
sg621
I7
ssg84
I0
sg85
I0
sg86
S'Artmeyer'
p1004
sg88
I11
sg89
I0
sg90
I27
sg91
I76
sg92
g93
sg94
(dp1005
g632
I8
sg633
I8
sg634
I8
sg635
I10
sg636
I6
sg637
I8
sg638
I5
sg639
I9
sg640
I9
sg641
I9
sg642
I8
sg643
I8
sg644
I2
sg645
I9
sg646
I7
ssg111
I5
sg112
I0
sg113
I0
sg114
I0
sg115
F8.705882352941176
sg116
I0
sg117
I0
sg118
I0
sg119
I0
sg120
(dp1006
g648
I5
sg649
I8
sg650
I6
sg651
I9
sg652
I5
sg653
I7
sg654
I3
sg655
I7
sg656
I4
sg657
I5
sg658
I7
sg659
I7
sg660
I0
sg661
I6
sg662
I6
ssg137
(dp1007
g632
I8
sg633
I8
sg634
I8
sg635
I10
sg640
I9
sg637
I8
sg638
I5
sg639
I9
sg636
I6
sg641
I9
sg642
I8
sg643
I8
sg644
I2
sg645
I9
sg646
I7
ssg139
I1
sg140
g166
sg142
I0
sg143
I0
sg144
I0
sg145
I7
sg146
I0
sg147
I0
sg148
S'CV'
p1008
sbsS'n2'
p1009
(ijoueur
joueur
p1010
(dp1011
g27
F8.851851851851851
sg28
I0
sg29
I0
sg30
I0
sg31
g32
(g33
g34
Ntp1012
Rp1013
(dp1014
g38
I1
sg39
S'^'
p1015
sg41
g569
sbsg43
(dp1016
g618
I0
sg619
I0
sg620
I0
sg621
I8
ssg49
(dp1017
g618
I0
sg619
I0
sg620
I0
sg621
I0
ssg51
I0
sg52
I0
sg53
I0
sg54
I0
sg55
I00
sg56
I0
sg57
I0
sg58
I0
sg59
(g60
S'PI'
p1018
S'TA'
p1019
g166
tp1020
sg65
I00
sg66
g32
(g33
g34
Ntp1021
Rp1022
(dp1023
g38
I1
sg39
g1015
sg41
g569
sbsg72
(dp1024
g74
I0
sg75
I0
sg76
I0
sg77
I0
ssg78
(dp1025
g74
I0
sg75
I0
sg76
I0
sg77
I8
ssg80
(dp1026
g74
I0
sg75
I0
sg76
I0
sg77
I0
ssg82
(dp1027
g618
I0
sg619
I0
sg620
I1
sg621
I12
ssg84
I0
sg85
I0
sg86
S'Vroden'
p1028
sg88
I3
sg89
I0
sg90
I10
sg91
I45
sg92
g93
sg94
(dp1029
g632
I11
sg633
I9
sg634
I6
sg635
I10
sg636
I8
sg637
I7
sg638
I1
sg639
I7
sg640
I7
sg641
I8
sg642
I8
sg643
I8
sg644
I2
sg645
I9
sg646
I8
ssg111
I4
sg112
I0
sg113
I0
sg114
I0
sg115
F8.703703703703704
sg116
I0
sg117
I0
sg118
I0
sg119
I0
sg120
(dp1030
g648
I11
sg649
I9
sg650
I6
sg651
I11
sg652
I7
sg653
I9
sg654
I1
sg655
I9
sg656
I7
sg657
I8
sg658
I8
sg659
I9
sg660
I2
sg661
I9
sg662
I8
ssg137
(dp1031
g632
I11
sg633
I9
sg634
I6
sg635
I10
sg640
I7
sg637
I7
sg638
I1
sg639
I7
sg636
I8
sg641
I8
sg642
I8
sg643
I8
sg644
I2
sg645
I9
sg646
I8
ssg139
I0
sg140
S'SN 11'
p1032
sg142
I0
sg143
I0
sg144
I0
sg145
I5
sg146
I9
sg147
I0
sg148
S'EN'
p1033
sbsS'n3'
p1034
(ijoueur
joueur
p1035
(dp1036
g27
F8.931034482758621
sg28
I1
sg29
I0
sg30
I0
sg31
g32
(g33
g34
Ntp1037
Rp1038
(dp1039
g38
I5
sg39
S'xx'
p1040
sg41
g71
sbsg43
(dp1041
g159
I0
sg160
I0
sg161
I1
sg162
I11
ssg49
(dp1042
g159
I1
sg160
I0
sg161
I0
sg162
I8
ssg51
I0
sg52
I0
sg53
I0
sg54
I0
sg55
I00
sg56
I0
sg57
I0
sg58
I0
sg59
(g60
S'N8'
p1043
S'DL'
p1044
S'PI'
p1045
tp1046
sg65
I00
sg66
g32
(g33
g34
Ntp1047
Rp1048
(dp1049
g38
I4
sg39
S'*'
p1050
sg41
g999
sbsg72
(dp1051
g74
I0
sg75
I0
sg76
I0
sg77
I1
ssg78
(dp1052
g74
I0
sg75
I0
sg76
I0
sg77
I0
ssg80
(dp1053
g74
I0
sg75
I0
sg76
I0
sg77
I8
ssg82
(dp1054
g159
I0
sg160
I0
sg161
I1
sg162
I2
ssg84
I0
sg85
I0
sg86
S'Lyogar'
p1055
sg88
I11
sg89
I0
sg90
I26
sg91
I100
sg92
g93
sg94
(dp1056
g178
I5
sg179
I12
sg180
I10
sg181
I10
sg182
I7
sg183
I7
sg184
I5
sg185
I10
sg186
I8
sg187
I6
sg188
I9
sg189
I8
sg190
I6
sg191
I10
sg192
I4
ssg111
I9
sg112
I0
sg113
I0
sg114
I0
sg115
F9.551724137931034
sg116
I0
sg117
I0
sg118
I0
sg119
I0
sg120
(dp1057
g194
I6
sg195
I10
sg196
I6
sg197
I10
sg198
I8
sg199
I6
sg200
I3
sg201
I6
sg202
I5
sg203
I6
sg204
I8
sg205
I9
sg206
I4
sg207
I9
sg208
I3
ssg137
(dp1058
g178
I6
sg179
I12
sg180
I10
sg181
I10
sg186
I8
sg183
I7
sg184
I5
sg185
I10
sg182
I7
sg187
I6
sg188
I9
sg189
I9
sg190
I6
sg191
I11
sg192
I4
ssg139
I1
sg140
g166
sg142
I0
sg143
I0
sg144
I0
sg145
I9
sg146
I0
sg147
I0
sg148
S'CV'
p1059
sbsS'n4'
p1060
g311
sS'n5'
p1061
g245
sS'n6'
p1062
(ijoueur
joueur
p1063
(dp1064
g27
F11.931034482758621
sg28
I0
sg29
I0
sg30
I0
sg31
g32
(g33
g34
Ntp1065
Rp1066
(dp1067
g38
I6
sg39
S'***'
p1068
sg41
S'personnage'
p1069
sbsg43
(dp1070
S'SR'
p1071
I0
sS'CT'
p1072
I2
sS'CR'
p1073
I0
sS'ST'
p1074
I0
ssg49
(dp1075
g1071
I0
sg1072
I0
sg1073
I0
sg1074
I0
ssg78
(dp1076
g779
I0
sg780
I2
sg781
I0
sg782
I0
ssg51
I0
sg52
I0
sg53
I0
sg54
I0
sg56
I0
sg57
I0
sg58
I0
sg59
(S'dummy'
p1077
S'N8'
p1078
S'TL'
p1079
g166
tp1080
sg65
I00
sg66
g32
(g33
g34
Ntp1081
Rp1082
(dp1083
g38
I6
sg39
S'***'
p1084
sg41
g1069
sbsg72
(dp1085
g779
I0
sg780
I7
sg781
I0
sg782
I0
ssg55
I01
sg80
(dp1086
g779
I0
sg780
I0
sg781
I0
sg782
I0
ssg82
(dp1087
g1071
I0
sg1072
I21
sg1073
I0
sg1074
I3
ssg84
I0
sg85
I0
sg86
S'Crom'
p1088
sg88
I1
sg89
I0
sg90
I9
sg91
I320
sg92
g787
sg94
(dp1089
S'A'
p1090
I13
sS'ME'
p1091
I10
sS'RP2'
p1092
I8
sS'E'
p1093
I11
sS'TO'
p1094
I10
sS'RP1'
p1095
I14
sS'JP'
p1096
I3
sS'RP_tot'
p1097
I15
sS'P'
p1098
I8
sS'PA'
p1099
I10
sS'M'
p1100
I6
sS'R'
p1101
I11
sS'TB'
p1102
I4
sS'PL'
p1103
I13
sS'TA'
p1104
I7
ssg111
I7
sg112
I0
sg113
I0
sg114
I0
sg115
F11.931034482758621
sg116
I0
sg117
I0
sg118
I0
sg119
I0
sg120
(dp1105
S'A'
p1106
I13
sS'ME'
p1107
I11
sS'RP2'
p1108
I8
sS'E'
p1109
I11
sS'P'
p1110
I7
sS'RP1'
p1111
I14
sS'JP'
p1112
I3
sS'RP_tot'
p1113
I15
sS'TO'
p1114
I11
sS'PA'
p1115
I10
sS'M'
p1116
I6
sS'R'
p1117
I11
sS'TB'
p1118
I4
sS'PL'
p1119
I13
sS'TA'
p1120
I7
ssg137
(dp1121
g1090
I13
sg1091
I10
sg1092
I8
sg1093
I11
sg1098
I8
sg1095
I14
sg1096
I3
sg1097
I15
sg1094
I10
sg1099
I10
sg1100
I6
sg1101
I11
sg1102
I4
sg1103
I13
sg1104
I7
ssg139
I0
sg140
S'KHR 9'
p1122
sg142
I0
sg143
I0
sg144
I0
sg145
I40
sg146
I21
sg147
I0
sg148
S'CHS'
p1123
sbsS'n7'
p1124
(ijoueur
joueur
p1125
(dp1126
g27
F11.0
sg28
I0
sg29
I0
sg30
I0
sg31
g32
(g33
g34
Ntp1127
Rp1128
(dp1129
g38
I1
sg39
S'^'
p1130
sg41
S'base'
p1131
sbsg43
(dp1132
S'SR'
p1133
I0
sS'CT'
p1134
I0
sS'CR'
p1135
I0
sS'ST'
p1136
I0
ssg49
(dp1137
g1133
I0
sg1134
I0
sg1135
I0
sg1136
I0
ssg51
I0
sg52
I0
sg55
I00
sg56
I0
sg57
I0
sg58
I0
sg59
(S'dummy'
p1138
S'TL'
p1139
g166
g166
tp1140
sg65
I00
sg66
g32
(g33
g34
Ntp1141
Rp1142
(dp1143
g38
I1
sg39
S'>'
p1144
sg41
g1131
sbsg72
(dp1145
g74
I0
sg75
I0
sg76
I0
sg77
I9
ssg78
(dp1146
g74
I0
sg75
I0
sg76
I0
sg77
I0
ssg80
(dp1147
g74
I0
sg75
I0
sg76
I0
sg77
I0
ssg82
(dp1148
g1133
I0
sg1134
I10
sg1135
I7
sg1136
I7
ssg84
I0
sg85
I0
sg86
S'Lafael'
p1149
sg88
I1
sg89
I0
sg90
I13
sg91
I100
sg92
g93
sg94
(dp1150
S'A'
p1151
I8
sS'ME'
p1152
I13
sS'RP2'
p1153
I6
sS'E'
p1154
I8
sS'TO'
p1155
I9
sS'RP1'
p1156
I9
sS'JP'
p1157
I4
sS'RP_tot'
p1158
I9
sS'P'
p1159
I10
sS'PA'
p1160
I8
sS'M'
p1161
I9
sS'R'
p1162
I13
sS'TB'
p1163
I5
sS'PL'
p1164
I12
sS'TA'
p1165
I8
ssg111
I7
sg112
I0
sg113
I0
sg114
I0
sg115
F10.741935483870968
sg116
I0
sg118
I0
sg119
I0
sg120
(dp1166
S'A'
p1167
I8
sS'ME'
p1168
I12
sS'RP2'
p1169
I6
sS'E'
p1170
I9
sS'P'
p1171
I9
sS'RP1'
p1172
I9
sS'JP'
p1173
I4
sS'RP_tot'
p1174
I9
sS'TO'
p1175
I9
sS'PA'
p1176
I8
sS'M'
p1177
I11
sS'R'
p1178
I11
sS'TB'
p1179
I5
sS'PL'
p1180
I12
sS'TA'
p1181
I8
ssg137
(dp1182
g1151
I8
sg1152
I13
sg1153
I6
sg1154
I8
sg1159
I10
sg1156
I9
sg1157
I4
sg1158
I9
sg1155
I9
sg1160
I8
sg1161
I9
sg1162
I13
sg1163
I5
sg1164
I12
sg1165
I8
ssg139
I0
sg140
S'HTH 8;TO 12'
p1183
sg142
I0
sg143
I0
sg144
I0
sg145
I16
sg146
I6
sg147
I0
sg148
S'HE'
p1184
sbssS'remplacements'
p1185
(dp1186
g587
S'n0'
p1187
sg610
g1187
sg709
g1187
sg755
g1187
sg823
g1187
sg847
g1187
sg871
g1187
ssb.