(iclub
compo
p0
(dp1
S'caracs_old'
p2
(dp3
S'A'
p4
F149.5
sS'ME'
p5
F91.5
sS'E'
p6
F176.5
sS'OplusAV'
p7
F99.0
sS'TO_off'
p8
F99.75
sS'OplusAR'
p9
F110.75
sS'M'
p10
F99.25
sS'JP'
p11
F93.0
sS'OmoinsAR'
p12
F94.25
sS'PA'
p13
F101.25
sS'TO_def'
p14
F93.0
sS'OmoinsAV'
p15
F100.75
sS'R'
p16
F185.0
ssS'totaux_old'
p17
(dp18
S'T2'
p19
F172.0
sS'T3'
p20
F88.25
sS'T1'
p21
F186.5
ssS'roles'
p22
(dp23
S'drop1'
p24
(ijoueur
joueur
p25
(dp26
S'rouges_total'
p27
I0
sS'drop_ratees_total'
p28
I1
sS'drops_total'
p29
I4
sS'xp_total'
p30
F136.93509422916856
sS'poste3'
p31
S''
p32
sS'blessure'
p33
I0
sS'poste1'
p34
g32
sS'points_retraite'
p35
I0
sS'RG_max'
p36
ccopy_reg
_reconstructor
p37
(cjoueur
rang_new
p38
c__builtin__
object
p39
Ntp40
Rp41
(dp42
S'type_nb'
p43
I4
sS'rang'
p44
S'x'
p45
sS'type'
p46
S'heros'
p47
sbsS'MJ2_total'
p48
(dp49
S'SR'
p50
I0
sS'ST'
p51
I0
sS'CR'
p52
I0
sS'CT'
p53
I0
ssS'MJ3_total'
p54
(dp55
g50
I0
sg51
I0
sg52
I0
sg53
I0
ssS'rand_retraite'
p56
I10
sS'anciens_clubs'
p57
g32
sS'drop_rates_saison'
p58
I1
sS'xp_saison'
p59
F136.93509422916856
sS'essais_saison'
p60
I0
sS'penalite_ratees_saison'
p61
I1
sS'transformations_saison'
p62
I3
sS'club'
p63
S'AHK'
p64
sS'veut_partir'
p65
I00
sS'RG'
p66
g41
sS'MJ1'
p67
(dp68
g50
I0
sg51
I0
sg52
I0
sg53
I15
ssS'MS_probleme'
p69
I00
sS'MJ3'
p70
(dp71
g50
I0
sg51
I0
sg52
I0
sg53
I0
ssS'MJ1_total'
p72
(dp73
g50
I0
sg51
I0
sg52
I0
sg53
I15
ssS'penalites_total'
p74
I2
sS'penalites_saison'
p75
I2
sS'nom'
p76
S'Lendar'
p77
sS'C'
p78
I4
sS'transformations_total'
p79
I3
sS'MJ2'
p80
(dp81
g50
I0
sg51
I0
sg52
I0
sg53
I0
ssS'VAL'
p82
I209
sS'bonus'
p83
I2
sS'retraite'
p84
I00
sS'poste2'
p85
g32
sS'D'
p86
I17
sS'caracs'
p87
(dp88
S'RP1'
p89
I7
sS'ME'
p90
I2
sS'RP2'
p91
I11
sS'E'
p92
I9
sS'P'
p93
I10
sS'JP'
p94
I9
sS'M'
p95
I10
sS'RP_tot'
p96
I11
sS'TO'
p97
I6
sS'PA'
p98
I10
sS'A'
p99
I12
sS'R'
p100
I7
sS'TB'
p101
I8
sS'PL'
p102
I12
sS'TA'
p103
I4
ssS'jj_passe'
p104
(dp105
S's13'
p106
(ijoueur
joueur
p107
(dp108
g27
I0
sg28
I0
sg29
I0
sg33
I0
sg36
g37
(g38
g39
Ntp109
Rp110
(dp111
g44
g32
sbsg48
(dp112
S'SR'
p113
I0
sS'ST'
p114
I0
sS'CR'
p115
I0
sS'CT'
p116
I0
ssg54
g55
sg57
g32
sg58
I1
sg60
I0
sg61
I1
sg62
I3
sS'postes'
p117
(S'dummy'
p118
S'AR'
p119
S'DO'
p120
g32
tp121
sg65
I00
sg66
g37
(g38
g39
Ntp122
Rp123
(dp124
g44
g32
sbsg67
g68
sg69
I00
sg70
g71
sg72
g73
sg74
I0
sg75
I2
sg76
S'Lendar (13)'
p125
sg78
I0
sg79
I0
sg86
I0
sg82
I0
sg63
g64
sg87
(dp126
S'A'
p127
I0
sS'ME'
p128
I0
sS'RP2'
p129
I0
sS'E'
p130
I0
sS'TO'
p131
I0
sS'RP1'
p132
I0
sS'JP'
p133
I0
sS'RP_tot'
p134
I0
sS'P'
p135
I0
sS'PA'
p136
I0
sS'M'
p137
I0
sS'R'
p138
I0
sS'TB'
p139
I0
sS'PL'
p140
I0
sS'TA'
p141
I0
ssg104
(dp142
sS'fatigue'
p143
I0
sS'changements_postes'
p144
g32
sS'blessures_total'
p145
I0
sS'blessures_saison'
p146
I0
sS'XP'
p147
I0
sS'EV'
p148
F10.606060606060606
sS'penalite_ratees_total'
p149
I0
sg80
g81
sS'jaunes_total'
p150
I0
sS'caracs_sans_fatigue'
p151
(dp152
g89
I7
sg90
I2
sg91
I11
sg92
I9
sg97
I6
sg95
I10
sg94
I9
sg96
I11
sg93
I10
sg98
I10
sg99
I12
sg100
I7
sg101
I8
sg102
I12
sg103
I4
ssS'rouges_saison'
p153
I0
sS'transformation_ratees_total'
p154
I0
sS'drops_saison'
p155
I4
sS'transformation_ratees_saison'
p156
I0
sS'MS'
p157
I0
sS'essais_total'
p158
I0
sS'jaunes_saison'
p159
I0
sS'ARM'
p160
g32
sbsS's12'
p161
(ijoueur
joueur
p162
(dp163
g27
I0
sg28
I0
sg29
I0
sg33
I0
sg36
g37
(g38
g39
Ntp164
Rp165
(dp166
g44
g32
sbsg48
(dp167
g50
I0
sg51
I0
sg52
I0
sg53
I0
ssg54
(dp168
g50
I0
sg51
I0
sg52
I0
sg53
I0
ssg57
g32
sg58
I0
sg60
I0
sg61
I0
sg62
I0
sg117
(g118
g119
g32
g32
tp169
sg65
I00
sg66
g37
(g38
g39
Ntp170
Rp171
(dp172
g44
g32
sbsg67
(dp173
g50
I0
sg51
I0
sg52
I0
sg53
I0
ssg69
I00
sg70
(dp174
g50
I0
sg51
I0
sg52
I0
sg53
I0
ssg72
(dp175
g50
I0
sg51
I0
sg52
I0
sg53
I0
ssg74
I0
sg75
I0
sg76
S'Lendar (12)'
p176
sg78
I0
sg79
I0
sg86
I0
sg82
I0
sg63
g64
sg87
(dp177
g99
I0
sg90
I0
sg91
I0
sg92
I0
sg97
I0
sg89
I0
sg94
I0
sg96
I0
sg93
I0
sg98
I0
sg95
I0
sg100
I0
sg101
I0
sg102
I0
sg103
I0
ssg104
(dp178
sg143
I0
sg144
g32
sg145
I0
sg146
I0
sg147
I0
sg148
F0.0
sg149
I0
sg80
(dp179
g50
I0
sg51
I0
sg52
I0
sg53
I0
ssg150
I0
sg151
g152
sg153
I0
sg154
I0
sg155
I0
sg156
I0
sg157
I0
sg158
I0
sg159
I0
sg160
g32
sbsS's11'
p180
(ijoueur
joueur
p181
(dp182
g27
I0
sg28
I0
sg29
I0
sg33
I0
sg36
g37
(g38
g39
Ntp183
Rp184
(dp185
g44
g32
sbsg48
(dp186
g50
I0
sg51
I0
sg52
I0
sg53
I0
ssg54
(dp187
g50
I0
sg51
I0
sg52
I0
sg53
I0
ssg57
g32
sg58
I0
sg60
I0
sg61
I0
sg62
I0
sg117
g169
sg65
I00
sg66
g37
(g38
g39
Ntp188
Rp189
(dp190
g44
g32
sbsg67
(dp191
g50
I0
sg51
I0
sg52
I0
sg53
I0
ssg69
I00
sg70
(dp192
g50
I0
sg51
I0
sg52
I0
sg53
I0
ssg72
(dp193
g50
I0
sg51
I0
sg52
I0
sg53
I0
ssg74
I0
sg75
I0
sg76
S'Lendar (11)'
p194
sg78
I0
sg79
I0
sg86
I0
sg82
I0
sg63
g64
sg87
(dp195
g99
I0
sg90
I0
sg91
I0
sg92
I0
sg97
I0
sg89
I0
sg94
I0
sg96
I0
sg93
I0
sg98
I0
sg95
I0
sg100
I0
sg101
I0
sg102
I0
sg103
I0
ssg104
(dp196
sg143
I0
sg144
g32
sg145
I0
sg146
I0
sg147
I0
sg148
F0.0
sg149
I0
sg80
(dp197
g50
I0
sg51
I0
sg52
I0
sg53
I0
ssg150
I0
sg151
g152
sg153
I0
sg154
I0
sg155
I0
sg156
I0
sg157
I0
sg158
I0
sg159
I0
sg160
g32
sbssg143
I0
sg144
g32
sg145
I1
sg147
I0
sg148
F10.606060606060606
sg149
I1
sg117
g121
sg146
I1
sg150
I0
sg151
g152
sg153
I0
sg154
I0
sg155
I4
sg156
I0
sg157
I20
sg158
I0
sg159
I0
sg160
S'ARA'
p198
sbsS'SA_scd'
p199
(ijoueur
joueur
p200
(dp201
S'EV_saison_11'
p202
F8.842105263157896
sg27
I1
sS'EV_saison_12'
p203
F9.31578947368421
sg144
g32
sg29
I0
sg30
F147.63947714421877
sg33
I0
sg35
I0
sg36
g37
(g38
g39
Ntp204
Rp205
(dp206
g43
I5
sg44
S'xx'
p207
sg46
S'seigneur'
p208
sbsg48
(dp209
S'SR'
p210
I0
sS'CT'
p211
I0
sS'CR'
p212
I0
sS'ST'
p213
I0
ssg54
(dp214
g210
I0
sg211
I0
sg212
I0
sg213
I0
ssS'xp'
p215
I0
sg56
I10
sS'drop_rates_total'
p216
I0
sg58
I0
sg59
F147.63947714421877
sg60
I0
sg61
I0
sg62
I0
sg83
I1
sg65
I00
sg66
g205
sg67
(dp217
S'SR'
p218
I0
sS'CT'
p219
I4
sS'CR'
p220
I10
sS'ST'
p221
I0
ssg69
I00
sg70
(dp222
g218
I0
sg219
I0
sg220
I0
sg221
I0
ssg72
(dp223
g210
I7
sg211
I21
sg212
I19
sg213
I0
ssg74
I0
sg75
I0
sg76
S'Mediart'
p224
sg78
I9
sg79
I0
sg80
(dp225
g218
I0
sg219
I0
sg220
I0
sg221
I0
ssg82
I148
sg63
g64
sg84
I00
sg86
I23
sg87
(dp226
S'A'
p227
I9
sS'ME'
p228
I9
sS'RP2'
p229
I8
sS'E'
p230
I10
sS'TO'
p231
I11
sS'RP1'
p232
I9
sS'JP'
p233
I8
sS'RP_tot'
p234
I10
sS'P'
p235
I9
sS'PA'
p236
I8
sS'M'
p237
I8
sS'R'
p238
I9
sS'TB'
p239
I6
sS'PL'
p240
I9
sS'TA'
p241
I5
ssg104
(dp242
S's13'
p243
(ijoueur
joueur
p244
(dp245
g27
I0
sg28
I0
sg29
I0
sg33
I0
sg36
g37
(g38
g39
Ntp246
Rp247
(dp248
g44
g32
sbsg48
(dp249
S'SR'
p250
I0
sS'CT'
p251
I0
sS'CR'
p252
I0
sS'ST'
p253
I0
ssg54
g214
sg57
g32
sg58
I0
sg60
I0
sg61
I0
sg62
I0
sg117
(S'dummy'
p254
S'TL'
p255
g32
g32
tp256
sg65
I00
sg66
g37
(g38
g39
Ntp257
Rp258
(dp259
g44
g32
sbsg67
g217
sg69
I00
sg70
g222
sg72
g223
sg74
I0
sg75
I0
sg76
S'Mediart (13)'
p260
sg78
I0
sg79
I0
sg86
I0
sg82
I0
sg63
S'CAT'
p261
sg87
(dp262
S'A'
p263
I0
sS'ME'
p264
I0
sS'RP2'
p265
I0
sS'E'
p266
I0
sS'P'
p267
I0
sS'RP1'
p268
I0
sS'JP'
p269
I0
sS'RP_tot'
p270
I0
sS'TO'
p271
I0
sS'PA'
p272
I0
sS'M'
p273
I0
sS'R'
p274
I0
sS'TB'
p275
I0
sS'PL'
p276
I0
sS'TA'
p277
I0
ssg104
(dp278
sg143
I0
sg144
g32
sg145
I0
sg146
I0
sg147
I0
sg148
F9.5
sg149
I0
sg80
g225
sg150
I0
sg151
(dp279
g227
I9
sg228
I9
sg229
I8
sg230
I10
sg235
I9
sg232
I9
sg233
I8
sg234
I10
sg231
I11
sg236
I8
sg237
I8
sg238
I9
sg239
I6
sg240
I9
sg241
I5
ssg153
I0
sg154
I0
sg155
I0
sg156
I0
sg157
I0
sg158
I0
sg159
I0
sg160
g32
sbsS's12'
p280
(ijoueur
joueur
p281
(dp282
g202
F8.842105263157896
sg27
I1
sg144
g32
sg29
I0
sg33
I0
sg36
g37
(g38
g39
Ntp283
Rp284
(dp285
g43
I5
sg44
S'xx'
p286
sg46
S'seigneur'
p287
sbsg48
(dp288
S'SR'
p289
I0
sS'CT'
p290
I0
sS'CR'
p291
I0
sS'ST'
p292
I0
ssg54
(dp293
g289
I0
sg290
I0
sg291
I0
sg292
I0
ssg216
I0
sg148
F9.31578947368421
sg58
I0
sg60
I1
sg61
I0
sg62
I0
sg117
(S'dummy'
p294
S'TL'
p295
g32
g32
tp296
sg65
I00
sg66
g284
sg67
(dp297
S'SR'
p298
I7
sS'ST'
p299
I0
sS'CR'
p300
I2
sS'CT'
p301
I12
ssg69
I00
sg70
(dp302
g298
I0
sg299
I0
sg300
I0
sg301
I0
ssg72
(dp303
g289
I7
sg290
I17
sg291
I9
sg292
I0
ssg74
I0
sg75
I0
sg76
S'Mediart (12)'
p304
sg78
I9
sg79
I0
sg86
I23
sg82
I90
sg63
S'CAT'
p305
sg87
(dp306
S'A'
p307
I9
sS'ME'
p308
I9
sS'RP2'
p309
I8
sS'E'
p310
I10
sS'P'
p311
I9
sS'RP1'
p312
I9
sS'JP'
p313
I8
sS'RP_tot'
p314
I10
sS'TO'
p315
I10
sS'PA'
p316
I8
sS'M'
p317
I8
sS'R'
p318
I9
sS'TB'
p319
I6
sS'PL'
p320
I9
sS'TA'
p321
I5
ssg104
(dp322
S's11'
p323
(ijoueur
joueur
p324
(dp325
g27
I1
sg29
I0
sg33
I0
sg36
g37
(g38
g39
Ntp326
Rp327
(dp328
g43
I5
sg44
S'xx'
p329
sg46
S'seigneur'
p330
sbsg48
(dp331
S'SR'
p332
I0
sS'CT'
p333
I0
sS'CR'
p334
I0
sS'ST'
p335
I0
ssg54
(dp336
g332
I0
sg333
I0
sg334
I0
sg335
I0
ssg216
I0
sg58
I0
sg69
I00
sg60
I0
sg61
I0
sg62
I0
sg117
(S'dummy'
p337
S'TL'
p338
g32
g32
tp339
sg65
I00
sg66
g37
(g38
g39
Ntp340
Rp341
(dp342
g43
I4
sg44
S'x'
p343
sg46
S'heros'
p344
sbsg67
(dp345
g332
I0
sg333
I5
sg334
I7
sg335
I0
ssg80
(dp346
g332
I0
sg333
I0
sg334
I0
sg335
I0
ssg70
(dp347
g332
I0
sg333
I0
sg334
I0
sg335
I0
ssg72
(dp348
g332
I0
sg333
I5
sg334
I7
sg335
I0
ssg74
I0
sg75
I0
sg76
S'Mediart'
p349
sg78
I9
sg79
I0
sg86
I23
sg82
I90
sg63
S'CAT'
p350
sg87
(dp351
S'A'
p352
I9
sS'ME'
p353
I9
sS'RP2'
p354
I7
sS'E'
p355
I10
sS'P'
p356
I6
sS'RP1'
p357
I9
sS'JP'
p358
I5
sS'RP_tot'
p359
I9
sS'TO'
p360
I9
sS'PA'
p361
I7
sS'M'
p362
I8
sS'R'
p363
I9
sS'TB'
p364
I4
sS'PL'
p365
I8
sS'TA'
p366
I5
ssg143
I0
sg28
I0
sg145
I1
sg147
I0
sg148
F8.842105263157896
sg149
I0
sg146
I1
sg150
I0
sS'caracs_saison_11'
p367
(dp368
S'A'
p369
I9
sS'ME'
p370
I9
sS'RP2'
p371
I7
sS'E'
p372
I10
sS'P'
p373
I6
sS'RP1'
p374
I9
sS'JP'
p375
I5
sS'RP_tot'
p376
I9
sS'TO'
p377
I9
sS'PA'
p378
I7
sS'M'
p379
I8
sS'R'
p380
I9
sS'TB'
p381
I4
sS'PL'
p382
I8
sS'TA'
p383
I5
ssg151
g351
sg153
I1
sg57
g32
sg154
I0
sg155
I0
sg156
I0
sg157
I9
sg158
I0
sg159
I0
sg160
S'EMP'
p384
sbssg143
I4
sg28
I0
sg145
I1
sg147
I0
sg80
(dp385
g298
I0
sg299
I0
sg300
I0
sg301
I0
ssg149
I0
sg146
I0
sg150
I0
sg367
(dp386
S'A'
p387
I9
sS'ME'
p388
I9
sS'RP2'
p389
I7
sS'E'
p390
I10
sS'TO'
p391
I9
sS'RP1'
p392
I9
sS'JP'
p393
I5
sS'RP_tot'
p394
I9
sS'P'
p395
I6
sS'PA'
p396
I7
sS'M'
p397
I8
sS'R'
p398
I9
sS'TB'
p399
I4
sS'PL'
p400
I8
sS'TA'
p401
I5
ssg151
g306
sg153
I0
sg57
g32
sg154
I0
sg155
I0
sg156
I0
sg157
I9
sg158
I1
sg159
I0
sg160
S'EMP'
p402
sbsS's11'
p403
(ijoueur
joueur
p404
(dp405
g27
I1
sg29
I0
sg33
I0
sg36
g37
(g38
g39
Ntp406
Rp407
(dp408
g43
I5
sg44
S'xx'
p409
sg46
S'seigneur'
p410
sbsg48
(dp411
S'SR'
p412
I0
sS'CT'
p413
I0
sS'CR'
p414
I0
sS'ST'
p415
I0
ssg54
(dp416
g412
I0
sg413
I0
sg414
I0
sg415
I0
ssg216
I0
sg58
I0
sg69
I00
sg60
I0
sg61
I0
sg62
I0
sg117
(S'dummy'
p417
S'TL'
p418
g32
g32
tp419
sg65
I00
sg66
g37
(g38
g39
Ntp420
Rp421
(dp422
g43
I4
sg44
S'x'
p423
sg46
S'heros'
p424
sbsg67
(dp425
g412
I0
sg413
I5
sg414
I7
sg415
I0
ssg80
(dp426
g412
I0
sg413
I0
sg414
I0
sg415
I0
ssg70
(dp427
g412
I0
sg413
I0
sg414
I0
sg415
I0
ssg72
(dp428
g412
I0
sg413
I5
sg414
I7
sg415
I0
ssg74
I0
sg75
I0
sg76
S'Mediart (11)'
p429
sg78
I9
sg79
I0
sg86
I23
sg82
I90
sg63
S'CAT'
p430
sg87
(dp431
S'A'
p432
I9
sS'ME'
p433
I9
sS'RP2'
p434
I7
sS'E'
p435
I10
sS'P'
p436
I6
sS'RP1'
p437
I9
sS'JP'
p438
I5
sS'RP_tot'
p439
I9
sS'TO'
p440
I9
sS'PA'
p441
I7
sS'M'
p442
I8
sS'R'
p443
I9
sS'TB'
p444
I4
sS'PL'
p445
I8
sS'TA'
p446
I5
ssg143
I0
sg28
I0
sg145
I1
sg147
I0
sg148
F8.842105263157896
sg149
I0
sg146
I1
sg150
I0
sg367
(dp447
S'A'
p448
I9
sS'ME'
p449
I9
sS'RP2'
p450
I7
sS'E'
p451
I10
sS'P'
p452
I6
sS'RP1'
p453
I9
sS'JP'
p454
I5
sS'RP_tot'
p455
I9
sS'TO'
p456
I9
sS'PA'
p457
I7
sS'M'
p458
I8
sS'R'
p459
I9
sS'TB'
p460
I4
sS'PL'
p461
I8
sS'TA'
p462
I5
ssg151
g431
sg153
I1
sg57
g32
sg154
I0
sg155
I0
sg156
I0
sg157
I9
sg158
I0
sg159
I0
sg160
S'EMP'
p463
sbssg143
I0
sg28
I0
sg145
I1
sg147
I0
sg148
F9.5
sg149
I0
sg117
g256
sg146
I0
sg150
I0
sg367
(dp464
S'A'
p465
I9
sS'ME'
p466
I9
sS'RP2'
p467
I7
sS'E'
p468
I10
sS'TO'
p469
I9
sS'RP1'
p470
I9
sS'JP'
p471
I5
sS'RP_tot'
p472
I9
sS'P'
p473
I6
sS'PA'
p474
I7
sS'M'
p475
I8
sS'R'
p476
I9
sS'TB'
p477
I4
sS'PL'
p478
I8
sS'TA'
p479
I5
ssg151
g279
sg153
I0
sS'caracs_saison_12'
p480
(dp481
sg154
I0
sg57
S'CAT 14'
p482
sg155
I0
sg156
I0
sg157
I6
sg158
I1
sg159
I0
sg160
S'EMP'
p483
sbsS'RJL'
p484
(ijoueur
joueur
p485
(dp486
g27
I0
sg28
I1
sg29
I2
sg30
F136.2421223723745
sg31
g32
sg33
I0
sg34
g32
sg35
I0
sg36
g37
(g38
g39
Ntp487
Rp488
(dp489
g43
I3
sg44
S'^^^'
p490
sg46
S'rare'
p491
sbsg48
(dp492
g50
I0
sg51
I0
sg52
I0
sg53
I0
ssg54
(dp493
g50
I0
sg51
I0
sg52
I0
sg53
I0
ssg56
I10
sg57
g32
sg58
I1
sg59
F136.2421223723745
sg60
I0
sg61
I12
sg62
I7
sg63
g64
sg65
I00
sg66
g488
sg67
(dp494
g50
I0
sg51
I0
sg52
I1
sg53
I14
ssg69
I01
sg70
(dp495
g50
I0
sg51
I0
sg52
I0
sg53
I0
ssg72
(dp496
g50
I0
sg51
I0
sg52
I1
sg53
I14
ssg74
I26
sg75
I26
sg76
S'Dresh Pasaerh'
p497
sg78
I7
sg79
I7
sg80
(dp498
g50
I0
sg51
I0
sg52
I0
sg53
I0
ssg82
I49
sg83
I3
sg84
I00
sg85
g32
sg86
I18
sg87
(dp499
g89
I6
sg90
I2
sg91
I8
sg92
I9
sg93
I12
sg94
I10
sg95
I8
sg96
I8
sg97
I7
sg98
I9
sg99
I11
sg100
I7
sg101
I8
sg102
I10
sg103
I4
ssg104
(dp500
S's13'
p501
(ijoueur
joueur
p502
(dp503
g27
I0
sg28
I0
sg29
I0
sg33
I0
sg36
g37
(g38
g39
Ntp504
Rp505
(dp506
g44
g32
sbsg48
(dp507
g113
I0
sg114
I0
sg115
I0
sg116
I0
ssg54
g493
sg57
g32
sg58
I1
sg60
I0
sg61
I12
sg62
I7
sg117
(g118
S'DO'
p508
g32
g32
tp509
sg65
I00
sg66
g37
(g38
g39
Ntp510
Rp511
(dp512
g44
g32
sbsg67
g494
sg69
I00
sg70
g495
sg72
g496
sg74
I0
sg75
I26
sg76
S'Dresh Pasaerh (13)'
p513
sg78
I0
sg79
I0
sg86
I0
sg82
I0
sg63
g64
sg87
(dp514
g127
I0
sg128
I0
sg129
I0
sg130
I0
sg131
I0
sg132
I0
sg133
I0
sg134
I0
sg135
I0
sg136
I0
sg137
I0
sg138
I0
sg139
I0
sg140
I0
sg141
I0
ssg104
(dp515
sg143
I0
sg144
g32
sg145
I0
sg146
I0
sg147
I0
sg148
F9.666666666666666
sg149
I0
sg80
g498
sg150
I0
sg151
(dp516
g89
I6
sg90
I2
sg91
I8
sg92
I9
sg97
I7
sg95
I8
sg94
I10
sg96
I8
sg93
I12
sg98
I9
sg99
I11
sg100
I7
sg101
I8
sg102
I10
sg103
I4
ssg153
I0
sg154
I0
sg155
I2
sg156
I8
sg157
I0
sg158
I0
sg159
I0
sg160
g32
sbsS's12'
p517
(ijoueur
joueur
p518
(dp519
g27
I0
sg28
I0
sg29
I0
sg33
I0
sg36
g37
(g38
g39
Ntp520
Rp521
(dp522
g44
g32
sbsg48
(dp523
g50
I0
sg51
I0
sg52
I0
sg53
I0
ssg54
(dp524
g50
I0
sg51
I0
sg52
I0
sg53
I0
ssg57
g32
sg58
I0
sg60
I0
sg61
I0
sg62
I0
sg117
(g118
g508
g32
g32
tp525
sg65
I00
sg66
g37
(g38
g39
Ntp526
Rp527
(dp528
g44
g32
sbsg67
(dp529
g50
I0
sg51
I0
sg52
I0
sg53
I0
ssg69
I00
sg70
(dp530
g50
I0
sg51
I0
sg52
I0
sg53
I0
ssg72
(dp531
g50
I0
sg51
I0
sg52
I0
sg53
I0
ssg74
I0
sg75
I0
sg76
S'Dresh Pasaerh (12)'
p532
sg78
I0
sg79
I0
sg86
I0
sg82
I0
sg63
g64
sg87
(dp533
g99
I0
sg90
I0
sg91
I0
sg92
I0
sg97
I0
sg89
I0
sg94
I0
sg96
I0
sg93
I0
sg98
I0
sg95
I0
sg100
I0
sg101
I0
sg102
I0
sg103
I0
ssg104
(dp534
sg143
I0
sg144
g32
sg145
I0
sg146
I0
sg147
I0
sg148
F0.0
sg149
I0
sg80
(dp535
g50
I0
sg51
I0
sg52
I0
sg53
I0
ssg150
I0
sg151
g516
sg153
I0
sg154
I0
sg155
I0
sg156
I0
sg157
I0
sg158
I0
sg159
I0
sg160
g32
sbsS's11'
p536
(ijoueur
joueur
p537
(dp538
g27
I0
sg28
I0
sg29
I0
sg33
I0
sg36
g37
(g38
g39
Ntp539
Rp540
(dp541
g44
g32
sbsg48
(dp542
g50
I0
sg51
I0
sg52
I0
sg53
I0
ssg54
(dp543
g50
I0
sg51
I0
sg52
I0
sg53
I0
ssg57
g32
sg58
I0
sg60
I0
sg61
I0
sg62
I0
sg117
g525
sg65
I00
sg66
g37
(g38
g39
Ntp544
Rp545
(dp546
g44
g32
sbsg67
(dp547
g50
I0
sg51
I0
sg52
I0
sg53
I0
ssg69
I00
sg70
(dp548
g50
I0
sg51
I0
sg52
I0
sg53
I0
ssg72
(dp549
g50
I0
sg51
I0
sg52
I0
sg53
I0
ssg74
I0
sg75
I0
sg76
S'Dresh Pasaerh (11)'
p550
sg78
I0
sg79
I0
sg86
I0
sg82
I0
sg63
g64
sg87
(dp551
g99
I0
sg90
I0
sg91
I0
sg92
I0
sg97
I0
sg89
I0
sg94
I0
sg96
I0
sg93
I0
sg98
I0
sg95
I0
sg100
I0
sg101
I0
sg102
I0
sg103
I0
ssg104
(dp552
sg143
I0
sg144
g32
sg145
I0
sg146
I0
sg147
I0
sg148
F0.0
sg149
I0
sg80
(dp553
g50
I0
sg51
I0
sg52
I0
sg53
I0
ssg150
I0
sg151
g516
sg153
I0
sg154
I0
sg155
I0
sg156
I0
sg157
I0
sg158
I0
sg159
I0
sg160
g32
sbssg143
cnumpy.core.multiarray
scalar
p554
(cnumpy
dtype
p555
(S'i4'
p556
I0
I1
tp557
Rp558
(I3
S'<'
p559
NNNI-1
I-1
I0
tp560
bS'\x02\x00\x00\x00'
p561
tp562
Rp563
sg144
g32
sg145
I0
sg147
I0
sg148
F9.666666666666666
sg149
I12
sg117
g509
sg146
I0
sg150
I1
sg151
g516
sg153
I0
sg154
I8
sg155
I2
sg156
I8
sg157
I4
sg158
I0
sg159
I1
sg160
g198
sbsS'cap'
p564
(ijoueur
joueur
p565
(dp566
g202
F9.394736842105264
sg27
I0
sg203
F10.578947368421053
sg144
g32
sg29
I0
sg30
F179.25812614758425
sg31
g32
sg33
I0
sg34
g32
sg35
I0
sg36
g37
(g38
g39
Ntp567
Rp568
(dp569
g43
I4
sg44
S'x'
p570
sg46
S'heros'
p571
sbsg48
(dp572
S'SR'
p573
I0
sS'ST'
p574
I0
sS'CR'
p575
I0
sS'CT'
p576
I0
ssg54
(dp577
g573
I0
sg574
I0
sg575
I0
sg576
I0
ssg215
I0
sg56
I10
sg57
S'vide 13'
p578
sg58
I0
sg59
F179.25812614758425
sg60
I1
sg61
I0
sg62
I0
sg63
g64
sg65
I00
sg66
g568
sg67
(dp579
S'SR'
p580
I4
sS'ST'
p581
I2
sS'CR'
p582
I0
sS'CT'
p583
I13
ssg80
(dp584
g580
I0
sg581
I0
sg582
I0
sg583
I0
ssg70
(dp585
g580
I0
sg581
I0
sg582
I0
sg583
I0
ssg72
(dp586
g573
I4
sg574
I12
sg575
I0
sg576
I13
ssg74
I0
sg75
I0
sg76
S'Mtaresh'
p587
sg78
I11
sg79
I0
sg69
I00
sg82
I149
sg83
I3
sg84
I00
sg85
g32
sg86
I18
sg87
(dp588
S'RP1'
p589
I7
sS'ME'
p590
I8
sS'RP2'
p591
I9
sS'E'
p592
I12
sS'P'
p593
I7
sS'JP'
p594
I6
sS'M'
p595
I8
sS'RP_tot'
p596
I9
sS'TO'
p597
I11
sS'PA'
p598
I10
sS'A'
p599
I11
sS'R'
p600
I8
sS'TB'
p601
I8
sS'PL'
p602
I12
sS'TA'
p603
I7
ssg104
(dp604
S's13'
p605
(ijoueur
joueur
p606
(dp607
g27
I0
sg28
I0
sg29
I0
sg33
I0
sg36
g37
(g38
g39
Ntp608
Rp609
(dp610
g44
g32
sbsg48
(dp611
g113
I0
sg114
I0
sg115
I0
sg116
I0
ssg54
g577
sg57
g32
sg58
I0
sg60
I1
sg61
I0
sg62
I0
sg117
(S'dummy'
p612
S'TL'
p613
S'DL'
p614
g32
tp615
sg65
I00
sg66
g37
(g38
g39
Ntp616
Rp617
(dp618
g44
g32
sbsg67
g579
sg69
I00
sg70
g585
sg72
g586
sg74
I0
sg75
I0
sg76
S'Mtaresh (13)'
p619
sg78
I0
sg79
I0
sg86
I0
sg82
I0
sg63
g64
sg87
(dp620
g127
I0
sg128
I0
sg129
I0
sg130
I0
sg131
I0
sg132
I0
sg133
I0
sg134
I0
sg135
I0
sg136
I0
sg137
I0
sg138
I0
sg139
I0
sg140
I0
sg141
I0
ssg104
(dp621
sg143
I0
sg144
g32
sg145
I0
sg146
I0
sg147
I0
sg148
F10.0
sg149
I0
sg80
g584
sg150
I0
sg151
(dp622
g589
I7
sg590
I8
sg591
I9
sg592
I12
sg597
I11
sg595
I8
sg594
I6
sg596
I9
sg593
I7
sg598
I10
sg599
I11
sg600
I8
sg601
I8
sg602
I12
sg603
I7
ssg153
I0
sg154
I0
sg155
I0
sg156
I0
sg157
I0
sg158
I0
sg159
I0
sg160
g32
sbsS's12'
p623
(ijoueur
joueur
p624
(dp625
g202
F9.394736842105264
sg27
I0
sg144
g32
sg29
I0
sg31
g32
sg33
I0
sg34
g32
sg36
g37
(g38
g39
Ntp626
Rp627
(dp628
g43
I4
sg44
S'x'
p629
sg46
S'heros'
p630
sbsg48
(dp631
S'SR'
p632
I0
sS'ST'
p633
I0
sS'CR'
p634
I0
sS'CT'
p635
I0
ssg54
(dp636
g632
I0
sg633
I0
sg634
I0
sg635
I0
ssg57
g32
sg58
I0
sg69
I00
sg60
I0
sg61
I0
sg62
I0
sg63
S'vide'
p637
sg65
I00
sg66
g627
sg67
(dp638
S'SR'
p639
I0
sS'ST'
p640
I7
sS'CR'
p641
I0
sS'CT'
p642
I0
ssg80
(dp643
g639
I0
sg640
I0
sg641
I0
sg642
I0
ssg70
(dp644
g639
I0
sg640
I0
sg641
I0
sg642
I0
ssg72
(dp645
g632
I0
sg633
I10
sg634
I0
sg635
I0
ssg74
I0
sg75
I0
sg76
S'Mtaresh (12)'
p646
sg78
I11
sg79
I0
sg86
I18
sg82
I149
sg117
(S'dummy'
p647
S'TL'
p648
S'DL'
p649
g32
tp650
sg85
g32
sg87
(dp651
S'RP1'
p652
I7
sS'ME'
p653
I8
sS'RP2'
p654
I9
sS'E'
p655
I13
sS'TO'
p656
I12
sS'M'
p657
I9
sS'JP'
p658
I6
sS'RP_tot'
p659
I9
sS'P'
p660
I7
sS'PA'
p661
I10
sS'A'
p662
I11
sS'R'
p663
I9
sS'TB'
p664
I7
sS'PL'
p665
I12
sS'TA'
p666
I7
ssg104
(dp667
S's11'
p668
(ijoueur
joueur
p669
(dp670
g27
I0
sg29
I0
sg31
g32
sg33
I0
sg34
g32
sg36
g37
(g38
g39
Ntp671
Rp672
(dp673
g43
I4
sg44
S'x'
p674
sg46
S'heros'
p675
sbsg48
(dp676
S'SR'
p677
I0
sS'CT'
p678
I0
sS'CR'
p679
I0
sS'ST'
p680
I0
ssg54
(dp681
g677
I0
sg678
I0
sg679
I0
sg680
I0
ssg57
g32
sg58
I0
sg69
I00
sg60
I0
sg61
I0
sg62
I0
sg63
S'vide'
p682
sg65
I00
sg66
g37
(g38
g39
Ntp683
Rp684
(dp685
g43
I3
sg44
S'^^^'
p686
sg46
S'rare'
p687
sbsg67
(dp688
g677
I0
sg678
I0
sg679
I0
sg680
I3
ssg80
(dp689
g677
I0
sg678
I0
sg679
I0
sg680
I0
ssg70
(dp690
g677
I0
sg678
I0
sg679
I0
sg680
I0
ssg72
(dp691
g677
I0
sg678
I0
sg679
I0
sg680
I3
ssg74
I0
sg75
I0
sg76
S'Mtaresh'
p692
sg78
I11
sg79
I0
sg86
I18
sg82
I99
sg117
(S'dummy'
p693
S'TL'
p694
S'DL'
p695
g32
tp696
sg85
g32
sg87
(dp697
S'RP1'
p698
I7
sS'ME'
p699
I8
sS'RP2'
p700
I8
sS'E'
p701
I12
sS'P'
p702
I6
sS'JP'
p703
I5
sS'M'
p704
I9
sS'RP_tot'
p705
I8
sS'TO'
p706
I10
sS'PA'
p707
I8
sS'A'
p708
I9
sS'R'
p709
I8
sS'TB'
p710
I6
sS'PL'
p711
I11
sS'TA'
p712
I7
ssg143
I0
sg28
I0
sg145
I0
sg147
I0
sg148
F9.394736842105264
sg149
I0
sg146
I0
sg150
I0
sg367
(dp713
S'RP1'
p714
I7
sS'ME'
p715
I8
sS'RP2'
p716
I8
sS'E'
p717
I12
sS'P'
p718
I6
sS'JP'
p719
I5
sS'M'
p720
I9
sS'RP_tot'
p721
I8
sS'TO'
p722
I10
sS'PA'
p723
I8
sS'A'
p724
I9
sS'R'
p725
I8
sS'TB'
p726
I6
sS'PL'
p727
I11
sS'TA'
p728
I7
ssg151
g697
sg153
I0
sg154
I0
sg155
I0
sg156
I0
sg157
I9
sg158
I0
sg159
I0
sg160
S'ARA'
p729
sbssg143
I8
sg28
I0
sg145
I1
sg147
I0
sg148
F10.578947368421053
sg149
I0
sg146
I1
sg150
I0
sg367
(dp730
g652
I7
sg653
I8
sg654
I8
sg655
I12
sg660
I6
sg658
I5
sg657
I9
sg659
I8
sg656
I10
sg661
I8
sg662
I9
sg663
I8
sg664
I6
sg665
I11
sg666
I7
ssg151
g651
sg153
I0
sg154
I0
sg155
I0
sg156
I0
sg157
I14
sg158
I0
sg159
I0
sg160
S'ARA'
p731
sbsS's11'
p732
(ijoueur
joueur
p733
(dp734
g27
I0
sg29
I0
sg31
g32
sg33
I0
sg34
g32
sg36
g37
(g38
g39
Ntp735
Rp736
(dp737
g43
I4
sg44
S'x'
p738
sg46
S'heros'
p739
sbsg48
(dp740
S'SR'
p741
I0
sS'CT'
p742
I0
sS'CR'
p743
I0
sS'ST'
p744
I0
ssg54
(dp745
g741
I0
sg742
I0
sg743
I0
sg744
I0
ssg57
g32
sg58
I0
sg69
I00
sg60
I0
sg61
I0
sg62
I0
sg63
S'vide'
p746
sg65
I00
sg66
g37
(g38
g39
Ntp747
Rp748
(dp749
g43
I3
sg44
S'^^^'
p750
sg46
S'rare'
p751
sbsg67
(dp752
g741
I0
sg742
I0
sg743
I0
sg744
I3
ssg80
(dp753
g741
I0
sg742
I0
sg743
I0
sg744
I0
ssg70
(dp754
g741
I0
sg742
I0
sg743
I0
sg744
I0
ssg72
(dp755
g741
I0
sg742
I0
sg743
I0
sg744
I3
ssg74
I0
sg75
I0
sg76
S'Mtaresh (11)'
p756
sg78
I11
sg79
I0
sg86
I18
sg82
I99
sg117
(S'dummy'
p757
S'TL'
p758
S'DL'
p759
g32
tp760
sg85
g32
sg87
(dp761
S'RP1'
p762
I7
sS'ME'
p763
I8
sS'RP2'
p764
I8
sS'E'
p765
I12
sS'P'
p766
I6
sS'JP'
p767
I5
sS'M'
p768
I9
sS'RP_tot'
p769
I9
sS'TO'
p770
I10
sS'PA'
p771
I8
sS'A'
p772
I9
sS'R'
p773
I8
sS'TB'
p774
I6
sS'PL'
p775
I11
sS'TA'
p776
I7
ssg143
I0
sg28
I0
sg145
I0
sg147
I0
sg148
F9.394736842105264
sg149
I0
sg146
I0
sg150
I0
sg367
(dp777
S'RP1'
p778
I7
sS'ME'
p779
I8
sS'RP2'
p780
I8
sS'E'
p781
I12
sS'P'
p782
I6
sS'JP'
p783
I5
sS'M'
p784
I9
sS'RP_tot'
p785
I8
sS'TO'
p786
I10
sS'PA'
p787
I8
sS'A'
p788
I9
sS'R'
p789
I8
sS'TB'
p790
I6
sS'PL'
p791
I11
sS'TA'
p792
I7
ssg151
g761
sg153
I0
sg154
I0
sg155
I0
sg156
I0
sg157
I9
sg158
I0
sg159
I0
sg160
S'ARA'
p793
sbssg143
g554
(g558
S'\x02\x00\x00\x00'
p794
tp795
Rp796
sg28
I0
sg145
I2
sg147
I0
sg148
F10.0
sg149
I0
sg117
g615
sg146
I1
sg150
I1
sg367
(dp797
g589
I7
sg590
I8
sg591
I8
sg592
I12
sg593
I6
sg594
I5
sg595
I9
sg596
I8
sg597
I10
sg598
I8
sg599
I9
sg600
I8
sg601
I6
sg602
I11
sg603
I7
ssg151
g622
sg153
I0
sg480
(dp798
sg154
I0
sg155
I0
sg156
I0
sg157
I14
sg158
I1
sg159
I1
sg160
S'ARA'
p799
sbsS'B4'
p800
g485
sS'RJC'
p801
g485
sS'B1'
p802
g485
sS'B2'
p803
g485
sS'B3'
p804
g485
sS'SA_pcp2'
p805
g565
sS'SA_pcp1'
p806
(ijoueur
joueur
p807
(dp808
g27
I1
sg28
I0
sg29
I0
sg30
F136.93509422916856
sg31
g32
sg33
I0
sg34
g32
sg35
I0
sg36
g37
(g38
g39
Ntp809
Rp810
(dp811
g43
I4
sg44
S'*'
p812
sg46
g47
sbsg48
(dp813
g50
I0
sg51
I0
sg52
I0
sg53
I0
ssg54
(dp814
g50
I0
sg51
I0
sg52
I0
sg53
I0
ssg56
I10
sg57
g32
sg58
I0
sg59
F136.93509422916856
sg60
I1
sg61
I0
sg62
I0
sg63
g64
sg65
I00
sg66
g810
sg67
(dp815
g50
I0
sg51
I0
sg52
I0
sg53
I15
ssg69
I00
sg70
(dp816
g50
I0
sg51
I0
sg52
I0
sg53
I0
ssg72
(dp817
g50
I0
sg51
I0
sg52
I0
sg53
I15
ssg74
I0
sg75
I0
sg76
S'Guerfemn'
p818
sg78
I10
sg79
I0
sg80
(dp819
g50
I0
sg51
I0
sg52
I0
sg53
I0
ssg82
I241
sg83
I3
sg84
I00
sg85
g32
sg86
I18
sg87
(dp820
g89
I10
sg90
I9
sg91
I7
sg92
I9
sg93
I4
sg94
I3
sg95
I9
sg96
I10
sg97
I12
sg98
I8
sg99
I8
sg100
I9
sg101
I3
sg102
I10
sg103
I5
ssg104
(dp821
S's13'
p822
(ijoueur
joueur
p823
(dp824
g27
I0
sg28
I0
sg29
I0
sg33
I0
sg36
g37
(g38
g39
Ntp825
Rp826
(dp827
g44
g32
sbsg48
(dp828
g113
I0
sg114
I0
sg115
I0
sg116
I0
ssg54
g814
sg57
g32
sg58
I0
sg60
I1
sg61
I0
sg62
I0
sg117
(g118
S'DL'
p829
g32
g32
tp830
sg65
I00
sg66
g37
(g38
g39
Ntp831
Rp832
(dp833
g44
g32
sbsg67
g815
sg69
I00
sg70
g816
sg72
g817
sg74
I0
sg75
I0
sg76
S'Guerfemn (13)'
p834
sg78
I0
sg79
I0
sg86
I0
sg82
I0
sg63
g64
sg87
(dp835
g127
I0
sg128
I0
sg129
I0
sg130
I0
sg131
I0
sg132
I0
sg133
I0
sg134
I0
sg135
I0
sg136
I0
sg137
I0
sg138
I0
sg139
I0
sg140
I0
sg141
I0
ssg104
(dp836
sg143
I0
sg144
g32
sg145
I0
sg146
I0
sg147
I0
sg148
F9.764705882352942
sg149
I0
sg80
g819
sg150
I0
sg151
(dp837
g89
I10
sg90
I9
sg91
I7
sg92
I9
sg97
I12
sg95
I9
sg94
I3
sg96
I10
sg93
I4
sg98
I8
sg99
I8
sg100
I9
sg101
I3
sg102
I10
sg103
I5
ssg153
I0
sg154
I0
sg155
I0
sg156
I0
sg157
I0
sg158
I0
sg159
I0
sg160
g32
sbsS's12'
p838
(ijoueur
joueur
p839
(dp840
g27
I0
sg28
I0
sg29
I0
sg33
I0
sg36
g37
(g38
g39
Ntp841
Rp842
(dp843
g44
g32
sbsg48
(dp844
g50
I0
sg51
I0
sg52
I0
sg53
I0
ssg54
(dp845
g50
I0
sg51
I0
sg52
I0
sg53
I0
ssg57
g32
sg58
I0
sg60
I0
sg61
I0
sg62
I0
sg117
(g118
g829
g32
g32
tp846
sg65
I00
sg66
g37
(g38
g39
Ntp847
Rp848
(dp849
g44
g32
sbsg67
(dp850
g50
I0
sg51
I0
sg52
I0
sg53
I0
ssg69
I00
sg70
(dp851
g50
I0
sg51
I0
sg52
I0
sg53
I0
ssg72
(dp852
g50
I0
sg51
I0
sg52
I0
sg53
I0
ssg74
I0
sg75
I0
sg76
S'Guerfemn (12)'
p853
sg78
I0
sg79
I0
sg86
I0
sg82
I0
sg63
g64
sg87
(dp854
g99
I0
sg90
I0
sg91
I0
sg92
I0
sg97
I0
sg89
I0
sg94
I0
sg96
I0
sg93
I0
sg98
I0
sg95
I0
sg100
I0
sg101
I0
sg102
I0
sg103
I0
ssg104
(dp855
sg143
I0
sg144
g32
sg145
I0
sg146
I0
sg147
I0
sg148
F0.0
sg149
I0
sg80
(dp856
g50
I0
sg51
I0
sg52
I0
sg53
I0
ssg150
I0
sg151
g837
sg153
I0
sg154
I0
sg155
I0
sg156
I0
sg157
I0
sg158
I0
sg159
I0
sg160
g32
sbsS's11'
p857
(ijoueur
joueur
p858
(dp859
g27
I0
sg28
I0
sg29
I0
sg33
I0
sg36
g37
(g38
g39
Ntp860
Rp861
(dp862
g44
g32
sbsg48
(dp863
g50
I0
sg51
I0
sg52
I0
sg53
I0
ssg54
(dp864
g50
I0
sg51
I0
sg52
I0
sg53
I0
ssg57
g32
sg58
I0
sg60
I0
sg61
I0
sg62
I0
sg117
g846
sg65
I00
sg66
g37
(g38
g39
Ntp865
Rp866
(dp867
g44
g32
sbsg67
(dp868
g50
I0
sg51
I0
sg52
I0
sg53
I0
ssg69
I00
sg70
(dp869
g50
I0
sg51
I0
sg52
I0
sg53
I0
ssg72
(dp870
g50
I0
sg51
I0
sg52
I0
sg53
I0
ssg74
I0
sg75
I0
sg76
S'Guerfemn (11)'
p871
sg78
I0
sg79
I0
sg86
I0
sg82
I0
sg63
g64
sg87
(dp872
g99
I0
sg90
I0
sg91
I0
sg92
I0
sg97
I0
sg89
I0
sg94
I0
sg96
I0
sg93
I0
sg98
I0
sg95
I0
sg100
I0
sg101
I0
sg102
I0
sg103
I0
ssg104
(dp873
sg143
I0
sg144
g32
sg145
I0
sg146
I0
sg147
I0
sg148
F0.0
sg149
I0
sg80
(dp874
g50
I0
sg51
I0
sg52
I0
sg53
I0
ssg150
I0
sg151
g837
sg153
I0
sg154
I0
sg155
I0
sg156
I0
sg157
I0
sg158
I0
sg159
I0
sg160
g32
sbssg143
g554
(g558
S'\x05\x00\x00\x00'
p875
tp876
Rp877
sg144
g32
sg145
I0
sg147
I0
sg148
F9.764705882352942
sg149
I0
sg117
g830
sg146
I0
sg150
I0
sg151
g837
sg153
I1
sg154
I0
sg155
I0
sg156
I0
sg157
I24
sg158
I1
sg159
I0
sg160
g198
sbsS'drop3'
p878
(ijoueur
joueur
p879
(dp880
g202
F9.096774193548388
sg27
I0
sg203
F8.96774193548387
sg144
g32
sg29
I2
sg30
F119.02047532096633
sg31
g32
sg33
I0
sg34
g32
sg35
I0
sg36
g37
(g38
g39
Ntp881
Rp882
(dp883
g43
I1
sg44
S'<'
p884
sg46
S'base'
p885
sbsg48
(dp886
S'SR'
p887
I0
sS'CT'
p888
I0
sS'CR'
p889
I0
sS'ST'
p890
I0
ssg54
(dp891
g887
I0
sg888
I0
sg889
I0
sg890
I0
ssg215
I0
sg56
I10
sg57
S'vide 13;vide 13;vide 13'
p892
sg58
I0
sg59
F119.02047532096633
sg60
I0
sg61
I0
sg62
I0
sg63
g64
sg65
I00
sg66
g882
sg67
(dp893
g580
I0
sg581
I0
sg582
I2
sg583
I11
ssg80
(dp894
g580
I0
sg581
I0
sg582
I0
sg583
I0
ssg70
(dp895
g580
I0
sg581
I0
sg582
I0
sg583
I0
ssg72
(dp896
g887
I0
sg888
I11
sg889
I2
sg890
I0
ssg74
I0
sg75
I0
sg76
S'Chaba'
p897
sg78
I9
sg79
I0
sg69
I01
sg82
I9
sg83
I2
sg84
I00
sg85
g32
sg86
I19
sg87
(dp898
S'RP1'
p899
I8
sS'ME'
p900
I4
sS'RP2'
p901
I11
sS'E'
p902
I7
sS'TO'
p903
I3
sS'M'
p904
I12
sS'JP'
p905
I9
sS'RP_tot'
p906
I12
sS'P'
p907
I5
sS'PA'
p908
I9
sS'A'
p909
I9
sS'R'
p910
I8
sS'TB'
p911
I6
sS'PL'
p912
I8
sS'TA'
p913
I3
ssg104
(dp914
S's13'
p915
(ijoueur
joueur
p916
(dp917
g27
I0
sg28
I0
sg29
I0
sg33
I0
sg36
g37
(g38
g39
Ntp918
Rp919
(dp920
g44
g32
sbsg48
(dp921
g113
I0
sg114
I0
sg115
I0
sg116
I0
ssg54
g891
sg57
g32
sg58
I0
sg60
I0
sg61
I0
sg62
I0
sg117
(S'dummy'
p922
S'AI'
p923
g32
g32
tp924
sg65
I00
sg66
g37
(g38
g39
Ntp925
Rp926
(dp927
g44
g32
sbsg67
g893
sg69
I00
sg70
g895
sg72
g896
sg74
I0
sg75
I0
sg76
S'Chaba (13)'
p928
sg78
I0
sg79
I0
sg86
I0
sg82
I0
sg63
g64
sg87
(dp929
g127
I0
sg128
I0
sg129
I0
sg130
I0
sg131
I0
sg132
I0
sg133
I0
sg134
I0
sg135
I0
sg136
I0
sg137
I0
sg138
I0
sg139
I0
sg140
I0
sg141
I0
ssg104
(dp930
sg143
I0
sg144
g32
sg145
I0
sg146
I0
sg147
I0
sg148
F9.516129032258064
sg149
I0
sg80
g894
sg150
I0
sg151
(dp931
g899
I8
sg900
I4
sg901
I11
sg902
I7
sg907
I5
sg905
I9
sg904
I12
sg906
I12
sg903
I3
sg908
I9
sg909
I9
sg910
I8
sg911
I6
sg912
I8
sg913
I3
ssg153
I0
sg154
I0
sg155
I2
sg156
I0
sg157
I0
sg158
I0
sg159
I0
sg160
g32
sbsg623
(ijoueur
joueur
p932
(dp933
g202
F9.096774193548388
sg27
I0
sg144
g32
sg29
I0
sg31
g32
sg33
I0
sg34
g32
sg36
g37
(g38
g39
Ntp934
Rp935
(dp936
g43
I1
sg44
S'<'
p937
sg46
S'base'
p938
sbsg48
(dp939
S'SR'
p940
I0
sS'CT'
p941
I0
sS'CR'
p942
I0
sS'ST'
p943
I0
ssg54
(dp944
g940
I0
sg941
I0
sg942
I0
sg943
I0
ssg57
g32
sg58
I0
sg69
I01
sg60
I0
sg61
I0
sg62
I0
sg63
g637
sg65
I01
sg66
g935
sg67
(dp945
g639
I0
sg640
I0
sg641
I0
sg642
I0
ssg80
(dp946
g639
I0
sg640
I0
sg641
I0
sg642
I0
ssg70
(dp947
g639
I0
sg640
I0
sg641
I0
sg642
I0
ssg72
(dp948
g940
I0
sg941
I0
sg942
I0
sg943
I0
ssg74
I0
sg75
I0
sg76
S'Chaba (12)'
p949
sg78
I9
sg79
I0
sg86
I19
sg82
I9
sg117
(S'dummy'
p950
S'AI'
p951
g32
g32
tp952
sg85
g32
sg87
(dp953
S'RP1'
p954
I8
sS'ME'
p955
I4
sS'RP2'
p956
I10
sS'E'
p957
I7
sS'P'
p958
I5
sS'JP'
p959
I8
sS'M'
p960
I10
sS'RP_tot'
p961
I11
sS'TO'
p962
I3
sS'PA'
p963
I9
sS'A'
p964
I9
sS'R'
p965
I8
sS'TB'
p966
I6
sS'PL'
p967
I8
sS'TA'
p968
I3
ssg104
(dp969
g668
(ijoueur
joueur
p970
(dp971
g27
I0
sg29
I0
sg31
g32
sg33
I0
sg34
g32
sg36
g37
(g38
g39
Ntp972
Rp973
(dp974
g43
I1
sg44
S'<'
p975
sg46
S'base'
p976
sbsg48
(dp977
S'SR'
p978
I0
sS'ST'
p979
I0
sS'CR'
p980
I0
sS'CT'
p981
I0
ssg54
(dp982
g978
I0
sg979
I0
sg980
I0
sg981
I0
ssg57
g32
sg58
I0
sg69
I01
sg60
I0
sg61
I0
sg62
I0
sg63
S'vide'
p983
sg65
I01
sg66
g973
sg67
(dp984
g978
I0
sg979
I0
sg980
I0
sg981
I0
ssg80
(dp985
g978
I0
sg979
I0
sg980
I0
sg981
I0
ssg70
(dp986
g978
I0
sg979
I0
sg980
I0
sg981
I0
ssg72
(dp987
g978
I0
sg979
I0
sg980
I0
sg981
I0
ssg74
I0
sg75
I0
sg76
S'Chaba'
p988
sg78
I9
sg79
I0
sg86
I19
sg82
I9
sg117
(S'dummy'
p989
S'AI'
p990
g32
g32
tp991
sg85
g32
sg87
(dp992
S'RP1'
p993
I8
sS'ME'
p994
I4
sS'RP2'
p995
I10
sS'E'
p996
I7
sS'TO'
p997
I3
sS'M'
p998
I10
sS'JP'
p999
I8
sS'RP_tot'
p1000
I11
sS'P'
p1001
I6
sS'PA'
p1002
I10
sS'A'
p1003
I9
sS'R'
p1004
I8
sS'TB'
p1005
I6
sS'PL'
p1006
I8
sS'TA'
p1007
I3
ssg143
I0
sg28
I0
sg145
I0
sg147
I0
sg148
F9.096774193548388
sg149
I0
sg146
I0
sg150
I0
sg367
(dp1008
S'RP1'
p1009
I8
sS'ME'
p1010
I4
sS'RP2'
p1011
I10
sS'E'
p1012
I7
sS'TO'
p1013
I3
sS'M'
p1014
I10
sS'JP'
p1015
I8
sS'RP_tot'
p1016
I11
sS'P'
p1017
I6
sS'PA'
p1018
I10
sS'A'
p1019
I9
sS'R'
p1020
I8
sS'TB'
p1021
I6
sS'PL'
p1022
I8
sS'TA'
p1023
I3
ssg151
g992
sg153
I0
sg154
I0
sg155
I0
sg156
I0
sg157
I1
sg158
I0
sg159
I0
sg160
S'ARA'
p1024
sbssg143
I0
sg28
I0
sg145
I0
sg147
I0
sg148
F8.96774193548387
sg149
I0
sg146
I0
sg150
I0
sg367
(dp1025
g954
I8
sg955
I4
sg956
I10
sg957
I7
sg962
I3
sg960
I10
sg959
I8
sg961
I11
sg958
I6
sg963
I10
sg964
I9
sg965
I8
sg966
I6
sg967
I8
sg968
I3
ssg151
g953
sg153
I0
sg154
I0
sg155
I0
sg156
I0
sg157
I1
sg158
I0
sg159
I0
sg160
S'ARA'
p1026
sbsg732
(ijoueur
joueur
p1027
(dp1028
g27
I0
sg29
I0
sg31
g32
sg33
I0
sg34
g32
sg36
g37
(g38
g39
Ntp1029
Rp1030
(dp1031
g43
I1
sg44
S'<'
p1032
sg46
S'base'
p1033
sbsg48
(dp1034
S'SR'
p1035
I0
sS'ST'
p1036
I0
sS'CR'
p1037
I0
sS'CT'
p1038
I0
ssg54
(dp1039
g1035
I0
sg1036
I0
sg1037
I0
sg1038
I0
ssg57
g32
sg58
I0
sg69
I01
sg60
I0
sg61
I0
sg62
I0
sg63
S'vide'
p1040
sg65
I01
sg66
g1030
sg67
(dp1041
g1035
I0
sg1036
I0
sg1037
I0
sg1038
I0
ssg80
(dp1042
g1035
I0
sg1036
I0
sg1037
I0
sg1038
I0
ssg70
(dp1043
g1035
I0
sg1036
I0
sg1037
I0
sg1038
I0
ssg72
(dp1044
g1035
I0
sg1036
I0
sg1037
I0
sg1038
I0
ssg74
I0
sg75
I0
sg76
S'Chaba (11)'
p1045
sg78
I9
sg79
I0
sg86
I19
sg82
I9
sg117
(S'dummy'
p1046
S'AI'
p1047
g32
g32
tp1048
sg85
g32
sg87
(dp1049
S'RP1'
p1050
I8
sS'ME'
p1051
I4
sS'RP2'
p1052
I10
sS'E'
p1053
I7
sS'TO'
p1054
I3
sS'M'
p1055
I10
sS'JP'
p1056
I8
sS'RP_tot'
p1057
I11
sS'P'
p1058
I6
sS'PA'
p1059
I10
sS'A'
p1060
I9
sS'R'
p1061
I8
sS'TB'
p1062
I6
sS'PL'
p1063
I8
sS'TA'
p1064
I3
ssg143
I0
sg28
I0
sg145
I0
sg147
I0
sg148
F9.096774193548388
sg149
I0
sg146
I0
sg150
I0
sg367
(dp1065
S'RP1'
p1066
I8
sS'ME'
p1067
I4
sS'RP2'
p1068
I10
sS'E'
p1069
I7
sS'TO'
p1070
I3
sS'M'
p1071
I10
sS'JP'
p1072
I8
sS'RP_tot'
p1073
I11
sS'P'
p1074
I6
sS'PA'
p1075
I10
sS'A'
p1076
I9
sS'R'
p1077
I8
sS'TB'
p1078
I6
sS'PL'
p1079
I8
sS'TA'
p1080
I3
ssg151
g1049
sg153
I0
sg154
I0
sg155
I0
sg156
I0
sg157
I1
sg158
I0
sg159
I0
sg160
S'ARA'
p1081
sbssg143
I0
sg28
I0
sg145
I0
sg147
I0
sg148
F9.516129032258064
sg149
I0
sg117
g924
sg146
I0
sg150
I0
sg367
(dp1082
g899
I8
sg900
I4
sg901
I10
sg902
I7
sg903
I3
sg904
I10
sg905
I8
sg906
I11
sg907
I6
sg908
I10
sg909
I9
sg910
I8
sg911
I6
sg912
I8
sg913
I3
ssg151
g931
sg153
I0
sg480
(dp1083
sg154
I0
sg155
I2
sg156
I0
sg157
I1
sg158
I0
sg159
I0
sg160
S'ARA'
p1084
sbsS'SA_remp1'
p1085
(ijoueur
joueur
p1086
(dp1087
g27
I0
sg28
I0
sg29
I0
sg30
F127.60597685982113
sg31
g32
sg33
I0
sg34
g32
sg35
I0
sg36
g37
(g38
g39
Ntp1088
Rp1089
(dp1090
g43
I3
sg44
g490
sg46
g491
sbsg48
(dp1091
g50
I0
sg51
I0
sg52
I0
sg53
I0
ssg54
(dp1092
g50
I0
sg51
I0
sg52
I0
sg53
I0
ssg56
I10
sg57
g32
sg58
I0
sg59
F127.60597685982113
sg60
I0
sg61
I0
sg62
I0
sg63
g64
sg65
I00
sg66
g1089
sg67
(dp1093
g50
I0
sg51
I0
sg52
I3
sg53
I11
ssg69
I01
sg70
(dp1094
g50
I0
sg51
I0
sg52
I0
sg53
I0
ssg72
(dp1095
g50
I0
sg51
I0
sg52
I3
sg53
I11
ssg74
I0
sg75
I0
sg76
S'Rehss Vracsech'
p1096
sg78
I8
sg79
I0
sg80
(dp1097
g50
I0
sg51
I0
sg52
I0
sg53
I0
ssg82
I49
sg83
I2
sg84
I00
sg85
g32
sg86
I18
sg87
(dp1098
g89
I7
sg90
I8
sg91
I6
sg92
I9
sg93
I7
sg94
I6
sg95
I8
sg96
I7
sg97
I10
sg98
I10
sg99
I9
sg100
I9
sg101
I6
sg102
I11
sg103
I4
ssg104
(dp1099
S's13'
p1100
(ijoueur
joueur
p1101
(dp1102
g27
I0
sg28
I0
sg29
I0
sg33
I0
sg36
g37
(g38
g39
Ntp1103
Rp1104
(dp1105
g44
g32
sbsg48
(dp1106
g113
I0
sg114
I0
sg115
I0
sg116
I0
ssg54
g1092
sg57
g32
sg58
I0
sg60
I0
sg61
I0
sg62
I0
sg117
(g118
S'TL'
p1107
g32
g32
tp1108
sg65
I00
sg66
g37
(g38
g39
Ntp1109
Rp1110
(dp1111
g44
g32
sbsg67
g1093
sg69
I00
sg70
g1094
sg72
g1095
sg74
I0
sg75
I0
sg76
S'Rehss Vracsech (13)'
p1112
sg78
I0
sg79
I0
sg86
I0
sg82
I0
sg63
g64
sg87
(dp1113
g127
I0
sg128
I0
sg129
I0
sg130
I0
sg131
I0
sg132
I0
sg133
I0
sg134
I0
sg135
I0
sg136
I0
sg137
I0
sg138
I0
sg139
I0
sg140
I0
sg141
I0
ssg104
(dp1114
sg143
I0
sg144
g32
sg145
I0
sg146
I0
sg147
I0
sg148
F9.210526315789474
sg149
I0
sg80
g1097
sg150
I0
sg151
(dp1115
g89
I7
sg90
I8
sg91
I6
sg92
I9
sg97
I10
sg95
I8
sg94
I6
sg96
I7
sg93
I7
sg98
I10
sg99
I9
sg100
I9
sg101
I6
sg102
I11
sg103
I4
ssg153
I0
sg154
I0
sg155
I0
sg156
I0
sg157
I0
sg158
I0
sg159
I0
sg160
g32
sbsS's12'
p1116
(ijoueur
joueur
p1117
(dp1118
g27
I0
sg28
I0
sg29
I0
sg33
I0
sg36
g37
(g38
g39
Ntp1119
Rp1120
(dp1121
g44
g32
sbsg48
(dp1122
g50
I0
sg51
I0
sg52
I0
sg53
I0
ssg54
(dp1123
g50
I0
sg51
I0
sg52
I0
sg53
I0
ssg57
g32
sg58
I0
sg60
I0
sg61
I0
sg62
I0
sg117
(g118
g1107
g32
g32
tp1124
sg65
I00
sg66
g37
(g38
g39
Ntp1125
Rp1126
(dp1127
g44
g32
sbsg67
(dp1128
g50
I0
sg51
I0
sg52
I0
sg53
I0
ssg69
I00
sg70
(dp1129
g50
I0
sg51
I0
sg52
I0
sg53
I0
ssg72
(dp1130
g50
I0
sg51
I0
sg52
I0
sg53
I0
ssg74
I0
sg75
I0
sg76
S'Rehss Vracsech (12)'
p1131
sg78
I0
sg79
I0
sg86
I0
sg82
I0
sg63
g64
sg87
(dp1132
g99
I0
sg90
I0
sg91
I0
sg92
I0
sg97
I0
sg89
I0
sg94
I0
sg96
I0
sg93
I0
sg98
I0
sg95
I0
sg100
I0
sg101
I0
sg102
I0
sg103
I0
ssg104
(dp1133
sg143
I0
sg144
g32
sg145
I0
sg146
I0
sg147
I0
sg148
F0.0
sg149
I0
sg80
(dp1134
g50
I0
sg51
I0
sg52
I0
sg53
I0
ssg150
I0
sg151
g1115
sg153
I0
sg154
I0
sg155
I0
sg156
I0
sg157
I0
sg158
I0
sg159
I0
sg160
g32
sbsS's11'
p1135
(ijoueur
joueur
p1136
(dp1137
g27
I0
sg28
I0
sg29
I0
sg33
I0
sg36
g37
(g38
g39
Ntp1138
Rp1139
(dp1140
g44
g32
sbsg48
(dp1141
g50
I0
sg51
I0
sg52
I0
sg53
I0
ssg54
(dp1142
g50
I0
sg51
I0
sg52
I0
sg53
I0
ssg57
g32
sg58
I0
sg60
I0
sg61
I0
sg62
I0
sg117
g1124
sg65
I00
sg66
g37
(g38
g39
Ntp1143
Rp1144
(dp1145
g44
g32
sbsg67
(dp1146
g50
I0
sg51
I0
sg52
I0
sg53
I0
ssg69
I00
sg70
(dp1147
g50
I0
sg51
I0
sg52
I0
sg53
I0
ssg72
(dp1148
g50
I0
sg51
I0
sg52
I0
sg53
I0
ssg74
I0
sg75
I0
sg76
S'Rehss Vracsech (11)'
p1149
sg78
I0
sg79
I0
sg86
I0
sg82
I0
sg63
g64
sg87
(dp1150
g99
I0
sg90
I0
sg91
I0
sg92
I0
sg97
I0
sg89
I0
sg94
I0
sg96
I0
sg93
I0
sg98
I0
sg95
I0
sg100
I0
sg101
I0
sg102
I0
sg103
I0
ssg104
(dp1151
sg143
I0
sg144
g32
sg145
I0
sg146
I0
sg147
I0
sg148
F0.0
sg149
I0
sg80
(dp1152
g50
I0
sg51
I0
sg52
I0
sg53
I0
ssg150
I0
sg151
g1115
sg153
I0
sg154
I0
sg155
I0
sg156
I0
sg157
I0
sg158
I0
sg159
I0
sg160
g32
sbssg143
I0
sg144
g32
sg145
I0
sg147
I0
sg148
F9.210526315789474
sg149
I0
sg117
g1108
sg146
I0
sg150
I0
sg151
g1115
sg153
I0
sg154
I0
sg155
I0
sg156
I0
sg157
I4
sg158
I0
sg159
I0
sg160
g198
sbsS'drop2'
p1153
g25
sS'SA_remp2'
p1154
(ijoueur
joueur
p1155
(dp1156
g202
F9.88888888888889
sg27
I0
sg203
F9.63888888888889
sg144
g32
sg29
I0
sg30
F83.18125811931988
sg33
I0
sg35
I3
sg36
g37
(g38
g39
Ntp1157
Rp1158
(dp1159
g43
I4
sg44
S'*'
p1160
sg46
S'heros'
p1161
sbsg48
(dp1162
S'SR'
p1163
I2
sS'CT'
p1164
I7
sS'CR'
p1165
I11
sS'ST'
p1166
I1
ssg54
(dp1167
g1163
I0
sg1164
I0
sg1165
I0
sg1166
I0
ssg215
I0
sS'random_retraite'
p1168
I4
sg216
I0
sg148
F9.555555555555555
sg58
I0
sg59
F83.18125811931988
sg60
I0
sg61
I0
sg62
I0
sg83
I0
sg65
I00
sg66
g37
(g38
g39
Ntp1169
Rp1170
(dp1171
g43
I4
sg44
g1160
sg46
g1161
sbsg67
(dp1172
S'SR'
p1173
I0
sS'CT'
p1174
I2
sS'CR'
p1175
I1
sS'ST'
p1176
I0
ssg69
I00
sg70
(dp1177
g1173
I0
sg1174
I0
sg1175
I0
sg1176
I0
ssg72
(dp1178
g1163
I4
sg1164
I5
sg1165
I6
sg1166
I0
ssg74
I0
sg75
I0
sg76
S'Rothonhal'
p1179
sg78
I4
sg79
I0
sg86
I11
sg82
I90
sg63
g64
sg84
I00
sg87
(dp1180
S'A'
p1181
I8
sS'ME'
p1182
I7
sS'RP2'
p1183
I10
sS'E'
p1184
I10
sS'TO'
p1185
I10
sS'RP1'
p1186
I6
sS'JP'
p1187
I5
sS'RP_tot'
p1188
I10
sS'P'
p1189
I6
sS'PA'
p1190
I8
sS'M'
p1191
I6
sS'R'
p1192
I10
sS'TB'
p1193
I5
sS'PL'
p1194
I11
sS'TA'
p1195
I5
ssg104
(dp1196
S's13'
p1197
(ijoueur
joueur
p1198
(dp1199
g27
I0
sg28
I0
sg29
I0
sg33
I0
sg36
g37
(g38
g39
Ntp1200
Rp1201
(dp1202
g44
g32
sbsg48
(dp1203
S'SR'
p1204
I0
sS'CT'
p1205
I0
sS'CR'
p1206
I0
sS'ST'
p1207
I0
ssg54
g1167
sg57
g32
sg58
I0
sg60
I0
sg61
I0
sg62
I0
sg117
(S'dummy'
p1208
S'N8'
p1209
S'TL'
p1210
g32
tp1211
sg65
I00
sg66
g37
(g38
g39
Ntp1212
Rp1213
(dp1214
g44
g32
sbsg67
g1172
sg69
I00
sg70
g1177
sg72
g1178
sg74
I0
sg75
I0
sg76
S'Rothonhal (13)'
p1215
sg78
I0
sg79
I0
sg86
I0
sg82
I0
sg63
S'HTH'
p1216
sg87
(dp1217
S'A'
p1218
I0
sS'ME'
p1219
I0
sS'RP2'
p1220
I0
sS'E'
p1221
I0
sS'P'
p1222
I0
sS'RP1'
p1223
I0
sS'JP'
p1224
I0
sS'RP_tot'
p1225
I0
sS'TO'
p1226
I0
sS'PA'
p1227
I0
sS'M'
p1228
I0
sS'R'
p1229
I0
sS'TB'
p1230
I0
sS'PL'
p1231
I0
sS'TA'
p1232
I0
ssg104
(dp1233
sg143
I0
sg144
g32
sg145
I0
sg146
I0
sg147
I0
sg148
F9.555555555555555
sg149
I0
sg80
(dp1234
g1173
I0
sg1174
I1
sg1175
I4
sg1176
I0
ssg150
I0
sg151
(dp1235
g1181
I8
sg1182
I7
sg1183
I10
sg1184
I10
sg1189
I6
sg1186
I6
sg1187
I5
sg1188
I10
sg1185
I10
sg1190
I8
sg1191
I6
sg1192
I10
sg1193
I5
sg1194
I11
sg1195
I5
ssg153
I0
sg154
I0
sg155
I0
sg156
I0
sg157
I0
sg158
I0
sg159
I0
sg160
g32
sbsS's12'
p1236
(ijoueur
joueur
p1237
(dp1238
g202
F9.88888888888889
sg27
I0
sg144
g32
sg29
I0
sg33
I0
sg36
g37
(g38
g39
Ntp1239
Rp1240
(dp1241
g43
I4
sg44
S'*'
p1242
sg46
S'heros'
p1243
sbsg48
(dp1244
S'SR'
p1245
I2
sS'CT'
p1246
I6
sS'CR'
p1247
I7
sS'ST'
p1248
I1
ssg54
(dp1249
g1245
I0
sg1246
I0
sg1247
I0
sg1248
I0
ssg216
I0
sg148
F9.63888888888889
sg58
I0
sg60
I0
sg61
I0
sg62
I0
sg117
(S'dummy'
p1250
S'N8'
p1251
S'TL'
p1252
g32
tp1253
sg65
I00
sg66
g37
(g38
g39
Ntp1254
Rp1255
(dp1256
g43
I4
sg44
g1242
sg46
g1243
sbsg67
(dp1257
S'SR'
p1258
I0
sS'CT'
p1259
I0
sS'CR'
p1260
I2
sS'ST'
p1261
I0
ssg69
I00
sg70
(dp1262
g1258
I0
sg1259
I0
sg1260
I0
sg1261
I0
ssg72
(dp1263
g1245
I4
sg1246
I3
sg1247
I5
sg1248
I0
ssg74
I0
sg75
I0
sg76
S'Rothonhal (12)'
p1264
sg78
I4
sg79
I0
sg86
I11
sg82
I80
sg63
S'HTH'
p1265
sg87
(dp1266
S'A'
p1267
I9
sS'ME'
p1268
I7
sS'RP2'
p1269
I10
sS'E'
p1270
I10
sS'P'
p1271
I6
sS'RP1'
p1272
I6
sS'JP'
p1273
I5
sS'RP_tot'
p1274
I10
sS'TO'
p1275
I10
sS'PA'
p1276
I8
sS'M'
p1277
I6
sS'R'
p1278
I10
sS'TB'
p1279
I5
sS'PL'
p1280
I11
sS'TA'
p1281
I5
ssg104
(dp1282
S's11'
p1283
(ijoueur
joueur
p1284
(dp1285
g27
I0
sg29
I0
sg33
I0
sg36
g37
(g38
g39
Ntp1286
Rp1287
(dp1288
g43
I4
sg44
S'*'
p1289
sg46
S'heros'
p1290
sbsg48
(dp1291
S'SR'
p1292
I2
sS'CT'
p1293
I3
sS'CR'
p1294
I5
sS'ST'
p1295
I1
ssg54
(dp1296
g1292
I0
sg1293
I0
sg1294
I0
sg1295
I0
ssg216
I0
sg58
I0
sg69
I00
sg60
I1
sg61
I0
sg62
I0
sg117
(S'dummy'
p1297
S'N8'
p1298
S'TL'
p1299
g32
tp1300
sg65
I00
sg66
g37
(g38
g39
Ntp1301
Rp1302
(dp1303
g43
I4
sg44
g1289
sg46
g1290
sbsg67
(dp1304
g1292
I4
sg1293
I3
sg1294
I3
sg1295
I0
ssg80
(dp1305
g1292
I2
sg1293
I3
sg1294
I5
sg1295
I1
ssg70
(dp1306
g1292
I0
sg1293
I0
sg1294
I0
sg1295
I0
ssg72
(dp1307
g1292
I4
sg1293
I3
sg1294
I3
sg1295
I0
ssg74
I0
sg75
I0
sg76
S'Rothonhal'
p1308
sg78
I4
sg79
I0
sg86
I11
sg82
I80
sg63
S'HTH'
p1309
sg87
(dp1310
S'A'
p1311
I9
sS'ME'
p1312
I10
sS'RP2'
p1313
I10
sS'E'
p1314
I10
sS'P'
p1315
I6
sS'RP1'
p1316
I7
sS'JP'
p1317
I5
sS'RP_tot'
p1318
I10
sS'TO'
p1319
I10
sS'PA'
p1320
I8
sS'M'
p1321
I6
sS'R'
p1322
I10
sS'TB'
p1323
I5
sS'PL'
p1324
I11
sS'TA'
p1325
I5
ssg143
I0
sg28
I0
sg145
I0
sg147
I0
sg148
F9.88888888888889
sg149
I0
sg146
I0
sg150
I0
sg367
(dp1326
S'A'
p1327
I9
sS'ME'
p1328
I10
sS'RP2'
p1329
I10
sS'E'
p1330
I10
sS'P'
p1331
I6
sS'RP1'
p1332
I7
sS'JP'
p1333
I5
sS'RP_tot'
p1334
I10
sS'TO'
p1335
I10
sS'PA'
p1336
I8
sS'M'
p1337
I6
sS'R'
p1338
I10
sS'TB'
p1339
I5
sS'PL'
p1340
I11
sS'TA'
p1341
I5
ssg151
g1310
sg153
I0
sg57
S'TA 9'
p1342
sg154
I0
sg155
I0
sg156
I0
sg157
I11
sg158
I6
sg159
I0
sg160
S'S'
p1343
sbssg143
I0
sg28
I0
sg145
I1
sg147
I0
sg80
(dp1344
g1258
I0
sg1259
I3
sg1260
I2
sg1261
I0
ssg149
I0
sg146
I1
sg150
I0
sg367
(dp1345
S'A'
p1346
I9
sS'ME'
p1347
I10
sS'RP2'
p1348
I10
sS'E'
p1349
I10
sS'TO'
p1350
I10
sS'RP1'
p1351
I7
sS'JP'
p1352
I5
sS'RP_tot'
p1353
I10
sS'P'
p1354
I6
sS'PA'
p1355
I8
sS'M'
p1356
I6
sS'R'
p1357
I10
sS'TB'
p1358
I5
sS'PL'
p1359
I11
sS'TA'
p1360
I5
ssg151
g1266
sg153
I0
sg57
S'TA 9'
p1361
sg154
I0
sg155
I0
sg156
I0
sg157
I11
sg158
I6
sg159
I0
sg160
S'S'
p1362
sbsS's11'
p1363
(ijoueur
joueur
p1364
(dp1365
g27
I0
sg29
I0
sg33
I0
sg36
g37
(g38
g39
Ntp1366
Rp1367
(dp1368
g43
I4
sg44
S'*'
p1369
sg46
S'heros'
p1370
sbsg48
(dp1371
S'SR'
p1372
I2
sS'CT'
p1373
I3
sS'CR'
p1374
I5
sS'ST'
p1375
I1
ssg54
(dp1376
g1372
I0
sg1373
I0
sg1374
I0
sg1375
I0
ssg216
I0
sg58
I0
sg69
I00
sg60
I1
sg61
I0
sg62
I0
sg117
(S'dummy'
p1377
S'N8'
p1378
S'TL'
p1379
g32
tp1380
sg65
I00
sg66
g37
(g38
g39
Ntp1381
Rp1382
(dp1383
g43
I4
sg44
g1369
sg46
g1370
sbsg67
(dp1384
g1372
I4
sg1373
I3
sg1374
I3
sg1375
I0
ssg80
(dp1385
g1372
I2
sg1373
I3
sg1374
I5
sg1375
I1
ssg70
(dp1386
g1372
I0
sg1373
I0
sg1374
I0
sg1375
I0
ssg72
(dp1387
g1372
I4
sg1373
I3
sg1374
I3
sg1375
I0
ssg74
I0
sg75
I0
sg76
S'Rothonhal (11)'
p1388
sg78
I4
sg79
I0
sg86
I11
sg82
I80
sg63
S'HTH'
p1389
sg87
(dp1390
S'A'
p1391
I9
sS'ME'
p1392
I10
sS'RP2'
p1393
I10
sS'E'
p1394
I10
sS'P'
p1395
I6
sS'RP1'
p1396
I7
sS'JP'
p1397
I5
sS'RP_tot'
p1398
I10
sS'TO'
p1399
I10
sS'PA'
p1400
I8
sS'M'
p1401
I6
sS'R'
p1402
I10
sS'TB'
p1403
I5
sS'PL'
p1404
I11
sS'TA'
p1405
I5
ssg143
I0
sg28
I0
sg145
I0
sg147
I0
sg148
F9.88888888888889
sg149
I0
sg146
I0
sg150
I0
sg367
(dp1406
S'A'
p1407
I9
sS'ME'
p1408
I10
sS'RP2'
p1409
I10
sS'E'
p1410
I10
sS'P'
p1411
I6
sS'RP1'
p1412
I7
sS'JP'
p1413
I5
sS'RP_tot'
p1414
I10
sS'TO'
p1415
I10
sS'PA'
p1416
I8
sS'M'
p1417
I6
sS'R'
p1418
I10
sS'TB'
p1419
I5
sS'PL'
p1420
I11
sS'TA'
p1421
I5
ssg151
g1390
sg153
I0
sg57
S'TA 9'
p1422
sg154
I0
sg155
I0
sg156
I0
sg157
I11
sg158
I6
sg159
I0
sg160
S'S'
p1423
sbssg143
I0
sg28
I0
sg145
I1
sg147
I0
sg80
g1234
sg149
I0
sg117
g1211
sg146
I0
sg150
I0
sg367
(dp1424
S'A'
p1425
I9
sS'ME'
p1426
I10
sS'RP2'
p1427
I10
sS'E'
p1428
I10
sS'TO'
p1429
I10
sS'RP1'
p1430
I7
sS'JP'
p1431
I5
sS'RP_tot'
p1432
I10
sS'P'
p1433
I6
sS'PA'
p1434
I8
sS'M'
p1435
I6
sS'R'
p1436
I10
sS'TB'
p1437
I5
sS'PL'
p1438
I11
sS'TA'
p1439
I5
ssg151
g1235
sg153
I0
sg480
(dp1440
sg154
I0
sg57
S'TA 9;HTH 14'
p1441
sg155
I0
sg156
I0
sg157
I10
sg158
I6
sg159
I0
sg160
S'S'
p1442
sbssg76
csip
_unpickle_type
p1443
(S'PyQt4.QtCore'
p1444
S'QString'
p1445
(VAHK_defaut
p1446
tp1447
tp1448
Rp1449
sS'totaux'
p1450
(dp1451
g19
I0
sg20
I0
sg21
I0
ssS'_compo_defaut_fatigue'
p1452
Nsg87
(dp1453
g4
I0
sg5
I0
sg6
I0
sg7
I0
sg8
I0
sg9
I0
sg10
I0
sg11
I0
sg12
I0
sg13
I0
sg14
I0
sg15
I0
sg16
I0
ssS'joueurs'
p1454
(dp1455
S'n12'
p1456
(ijoueur
joueur
p1457
(dp1458
g27
I0
sg28
I0
sg29
I0
sg30
F199.14874182603936
sg31
g32
sg33
I0
sg34
g32
sg35
I0
sg36
g37
(g38
g39
Ntp1459
Rp1460
(dp1461
g43
I5
sg44
S'**'
p1462
sg46
S'seigneur'
p1463
sbsg48
(dp1464
g50
I0
sg51
I0
sg52
I0
sg53
I0
ssg54
(dp1465
g50
I0
sg51
I0
sg52
I0
sg53
I0
ssg56
I10
sg57
g32
sg58
I0
sg59
F199.14874182603936
sg60
I2
sg61
I1
sg62
I2
sg63
g64
sg65
I00
sg66
g1460
sg67
(dp1466
g50
I1
sg51
I5
sg52
I0
sg53
I15
ssg69
I00
sg70
(dp1467
g50
I0
sg51
I0
sg52
I0
sg53
I0
ssg72
(dp1468
g50
I1
sg51
I5
sg52
I0
sg53
I15
ssg74
I2
sg75
I2
sg76
S'Wershoer'
p1469
sg78
I9
sg79
I2
sg80
(dp1470
g50
I0
sg51
I0
sg52
I0
sg53
I0
ssg82
I199
sg83
I4
sg84
I00
sg85
g32
sg86
I19
sg87
(dp1471
g89
I10
sg90
I6
sg91
I11
sg92
I11
sg93
I10
sg94
I8
sg95
I10
sg96
I13
sg97
I8
sg98
I11
sg99
I11
sg100
I11
sg101
I8
sg102
I10
sg103
I6
ssg104
(dp1472
S's13'
p1473
(ijoueur
joueur
p1474
(dp1475
g27
I0
sg28
I0
sg29
I0
sg33
I0
sg36
g37
(g38
g39
Ntp1476
Rp1477
(dp1478
g44
g32
sbsg48
(dp1479
g113
I0
sg114
I0
sg115
I0
sg116
I0
ssg54
g1465
sg57
g32
sg58
I0
sg60
I2
sg61
I1
sg62
I2
sg117
(g118
S'C2'
p1480
S'AR'
p1481
g32
tp1482
sg65
I00
sg66
g37
(g38
g39
Ntp1483
Rp1484
(dp1485
g44
g32
sbsg67
g1466
sg69
I00
sg70
g1467
sg72
g1468
sg74
I0
sg75
I2
sg76
S'Wershoer (13)'
p1486
sg78
I0
sg79
I0
sg86
I0
sg82
I0
sg63
g64
sg87
(dp1487
g127
I0
sg128
I0
sg129
I0
sg130
I0
sg131
I0
sg132
I0
sg133
I0
sg134
I0
sg135
I0
sg136
I0
sg137
I0
sg138
I0
sg139
I0
sg140
I0
sg141
I0
ssg104
(dp1488
sg143
I0
sg144
g32
sg145
I0
sg146
I0
sg147
I0
sg148
F10.931034482758621
sg149
I0
sg80
g1470
sg150
I0
sg151
(dp1489
g89
I10
sg90
I6
sg91
I11
sg92
I11
sg97
I8
sg95
I10
sg94
I8
sg96
I13
sg93
I10
sg98
I11
sg99
I11
sg100
I11
sg101
I8
sg102
I10
sg103
I6
ssg153
I0
sg154
I0
sg155
I0
sg156
I0
sg157
I0
sg158
I0
sg159
I0
sg160
g32
sbsS's12'
p1490
(ijoueur
joueur
p1491
(dp1492
g27
I0
sg28
I0
sg29
I0
sg33
I0
sg36
g37
(g38
g39
Ntp1493
Rp1494
(dp1495
g44
g32
sbsg48
(dp1496
g50
I0
sg51
I0
sg52
I0
sg53
I0
ssg54
(dp1497
g50
I0
sg51
I0
sg52
I0
sg53
I0
ssg57
g32
sg58
I0
sg60
I0
sg61
I0
sg62
I0
sg117
(g118
S'CE'
p1498
g32
g32
tp1499
sg65
I00
sg66
g37
(g38
g39
Ntp1500
Rp1501
(dp1502
g44
g32
sbsg67
(dp1503
g50
I0
sg51
I0
sg52
I0
sg53
I0
ssg69
I00
sg70
(dp1504
g50
I0
sg51
I0
sg52
I0
sg53
I0
ssg72
(dp1505
g50
I0
sg51
I0
sg52
I0
sg53
I0
ssg74
I0
sg75
I0
sg76
S'Wershoer (12)'
p1506
sg78
I0
sg79
I0
sg86
I0
sg82
I0
sg63
g64
sg87
(dp1507
g99
I0
sg90
I0
sg91
I0
sg92
I0
sg97
I0
sg89
I0
sg94
I0
sg96
I0
sg93
I0
sg98
I0
sg95
I0
sg100
I0
sg101
I0
sg102
I0
sg103
I0
ssg104
(dp1508
sg143
I0
sg144
g32
sg145
I0
sg146
I0
sg147
I0
sg148
F0.0
sg149
I0
sg80
(dp1509
g50
I0
sg51
I0
sg52
I0
sg53
I0
ssg150
I0
sg151
g1489
sg153
I0
sg154
I0
sg155
I0
sg156
I0
sg157
I0
sg158
I0
sg159
I0
sg160
g32
sbsS's11'
p1510
(ijoueur
joueur
p1511
(dp1512
g27
I0
sg28
I0
sg29
I0
sg33
I0
sg36
g37
(g38
g39
Ntp1513
Rp1514
(dp1515
g44
g32
sbsg48
(dp1516
g50
I0
sg51
I0
sg52
I0
sg53
I0
ssg54
(dp1517
g50
I0
sg51
I0
sg52
I0
sg53
I0
ssg57
g32
sg58
I0
sg60
I0
sg61
I0
sg62
I0
sg117
g1499
sg65
I00
sg66
g37
(g38
g39
Ntp1518
Rp1519
(dp1520
g44
g32
sbsg67
(dp1521
g50
I0
sg51
I0
sg52
I0
sg53
I0
ssg69
I00
sg70
(dp1522
g50
I0
sg51
I0
sg52
I0
sg53
I0
ssg72
(dp1523
g50
I0
sg51
I0
sg52
I0
sg53
I0
ssg74
I0
sg75
I0
sg76
S'Wershoer (11)'
p1524
sg78
I0
sg79
I0
sg86
I0
sg82
I0
sg63
g64
sg87
(dp1525
g99
I0
sg90
I0
sg91
I0
sg92
I0
sg97
I0
sg89
I0
sg94
I0
sg96
I0
sg93
I0
sg98
I0
sg95
I0
sg100
I0
sg101
I0
sg102
I0
sg103
I0
ssg104
(dp1526
sg143
I0
sg144
g32
sg145
I0
sg146
I0
sg147
I0
sg148
F0.0
sg149
I0
sg80
(dp1527
g50
I0
sg51
I0
sg52
I0
sg53
I0
ssg150
I0
sg151
g1489
sg153
I0
sg154
I0
sg155
I0
sg156
I0
sg157
I0
sg158
I0
sg159
I0
sg160
g32
sbssg143
g554
(g558
S'\x03\x00\x00\x00'
p1528
tp1529
Rp1530
sg144
g32
sg145
I0
sg147
I0
sg148
F10.931034482758621
sg149
I1
sg117
g1482
sg146
I0
sg150
I1
sg151
g1489
sg153
I0
sg154
I0
sg155
I0
sg156
I0
sg157
I19
sg158
I2
sg159
I1
sg160
g198
sbsS'n13'
p1531
(ijoueur
joueur
p1532
(dp1533
g27
I0
sg28
I0
sg29
I0
sg30
F136.2421223723745
sg31
g32
sg33
I0
sg34
g32
sg35
I0
sg36
g37
(g38
g39
Ntp1534
Rp1535
(dp1536
g43
I4
sg44
g812
sg46
g47
sbsg48
(dp1537
g50
I0
sg51
I0
sg52
I0
sg53
I0
ssg54
(dp1538
g50
I0
sg51
I0
sg52
I0
sg53
I0
ssg56
I10
sg57
g32
sg58
I0
sg59
F136.2421223723745
sg60
I2
sg61
I0
sg62
I0
sg63
g64
sg65
I00
sg66
g1535
sg67
(dp1539
g50
I0
sg51
I0
sg52
I2
sg53
I13
ssg69
I00
sg70
(dp1540
g50
I0
sg51
I0
sg52
I0
sg53
I0
ssg72
(dp1541
g50
I0
sg51
I0
sg52
I2
sg53
I13
ssg74
I0
sg75
I0
sg76
S'Zlotshar'
p1542
sg78
I6
sg79
I0
sg80
(dp1543
g50
I0
sg51
I0
sg52
I0
sg53
I0
ssg82
I138
sg83
I2
sg84
I00
sg85
g32
sg86
I17
sg87
(dp1544
g89
I9
sg90
I6
sg91
I9
sg92
I9
sg93
I8
sg94
I7
sg95
I13
sg96
I11
sg97
I5
sg98
I9
sg99
I10
sg100
I9
sg101
I7
sg102
I11
sg103
I3
ssg104
(dp1545
S's13'
p1546
(ijoueur
joueur
p1547
(dp1548
g27
I0
sg28
I0
sg29
I0
sg33
I0
sg36
g37
(g38
g39
Ntp1549
Rp1550
(dp1551
g44
g32
sbsg48
(dp1552
g113
I0
sg114
I0
sg115
I0
sg116
I0
ssg54
g1538
sg57
g32
sg58
I0
sg60
I2
sg61
I0
sg62
I0
sg117
(g118
S'C2'
p1553
g32
g32
tp1554
sg65
I00
sg66
g37
(g38
g39
Ntp1555
Rp1556
(dp1557
g44
g32
sbsg67
g1539
sg69
I00
sg70
g1540
sg72
g1541
sg74
I0
sg75
I0
sg76
S'Zlotshar (13)'
p1558
sg78
I0
sg79
I0
sg86
I0
sg82
I0
sg63
g64
sg87
(dp1559
g127
I0
sg128
I0
sg129
I0
sg130
I0
sg131
I0
sg132
I0
sg133
I0
sg134
I0
sg135
I0
sg136
I0
sg137
I0
sg138
I0
sg139
I0
sg140
I0
sg141
I0
ssg104
(dp1560
sg143
I0
sg144
g32
sg145
I0
sg146
I0
sg147
I0
sg148
F10.137931034482758
sg149
I0
sg80
g1543
sg150
I0
sg151
(dp1561
g89
I9
sg90
I6
sg91
I9
sg92
I9
sg97
I5
sg95
I13
sg94
I7
sg96
I11
sg93
I8
sg98
I9
sg99
I10
sg100
I9
sg101
I7
sg102
I11
sg103
I3
ssg153
I0
sg154
I0
sg155
I0
sg156
I0
sg157
I0
sg158
I0
sg159
I0
sg160
g32
sbsS's12'
p1562
(ijoueur
joueur
p1563
(dp1564
g27
I0
sg28
I0
sg29
I0
sg33
I0
sg36
g37
(g38
g39
Ntp1565
Rp1566
(dp1567
g44
g32
sbsg48
(dp1568
g50
I0
sg51
I0
sg52
I0
sg53
I0
ssg54
(dp1569
g50
I0
sg51
I0
sg52
I0
sg53
I0
ssg57
g32
sg58
I0
sg60
I0
sg61
I0
sg62
I0
sg117
(g118
g1498
g32
g32
tp1570
sg65
I00
sg66
g37
(g38
g39
Ntp1571
Rp1572
(dp1573
g44
g32
sbsg67
(dp1574
g50
I0
sg51
I0
sg52
I0
sg53
I0
ssg69
I00
sg70
(dp1575
g50
I0
sg51
I0
sg52
I0
sg53
I0
ssg72
(dp1576
g50
I0
sg51
I0
sg52
I0
sg53
I0
ssg74
I0
sg75
I0
sg76
S'Zlotshar (12)'
p1577
sg78
I0
sg79
I0
sg86
I0
sg82
I0
sg63
g64
sg87
(dp1578
g99
I0
sg90
I0
sg91
I0
sg92
I0
sg97
I0
sg89
I0
sg94
I0
sg96
I0
sg93
I0
sg98
I0
sg95
I0
sg100
I0
sg101
I0
sg102
I0
sg103
I0
ssg104
(dp1579
sg143
I0
sg144
g32
sg145
I0
sg146
I0
sg147
I0
sg148
F0.0
sg149
I0
sg80
(dp1580
g50
I0
sg51
I0
sg52
I0
sg53
I0
ssg150
I0
sg151
g1561
sg153
I0
sg154
I0
sg155
I0
sg156
I0
sg157
I0
sg158
I0
sg159
I0
sg160
g32
sbsS's11'
p1581
(ijoueur
joueur
p1582
(dp1583
g27
I0
sg28
I0
sg29
I0
sg33
I0
sg36
g37
(g38
g39
Ntp1584
Rp1585
(dp1586
g44
g32
sbsg48
(dp1587
g50
I0
sg51
I0
sg52
I0
sg53
I0
ssg54
(dp1588
g50
I0
sg51
I0
sg52
I0
sg53
I0
ssg57
g32
sg58
I0
sg60
I0
sg61
I0
sg62
I0
sg117
g1570
sg65
I00
sg66
g37
(g38
g39
Ntp1589
Rp1590
(dp1591
g44
g32
sbsg67
(dp1592
g50
I0
sg51
I0
sg52
I0
sg53
I0
ssg69
I00
sg70
(dp1593
g50
I0
sg51
I0
sg52
I0
sg53
I0
ssg72
(dp1594
g50
I0
sg51
I0
sg52
I0
sg53
I0
ssg74
I0
sg75
I0
sg76
S'Zlotshar (11)'
p1595
sg78
I0
sg79
I0
sg86
I0
sg82
I0
sg63
g64
sg87
(dp1596
g99
I0
sg90
I0
sg91
I0
sg92
I0
sg97
I0
sg89
I0
sg94
I0
sg96
I0
sg93
I0
sg98
I0
sg95
I0
sg100
I0
sg101
I0
sg102
I0
sg103
I0
ssg104
(dp1597
sg143
I0
sg144
g32
sg145
I0
sg146
I0
sg147
I0
sg148
F0.0
sg149
I0
sg80
(dp1598
g50
I0
sg51
I0
sg52
I0
sg53
I0
ssg150
I0
sg151
g1561
sg153
I0
sg154
I0
sg155
I0
sg156
I0
sg157
I0
sg158
I0
sg159
I0
sg160
g32
sbssg143
I0
sg144
g32
sg145
I0
sg147
I0
sg148
F10.137931034482758
sg149
I0
sg117
g1554
sg146
I0
sg150
I1
sg151
g1561
sg153
I0
sg154
I0
sg155
I0
sg156
I0
sg157
I13
sg158
I2
sg159
I1
sg160
g198
sbsS'n10'
p1599
g485
sS'n11'
p1600
(ijoueur
joueur
p1601
(dp1602
g27
I0
sg28
I0
sg29
I0
sg30
F188.1855201392936
sg31
g32
sg33
I0
sg34
g32
sg35
I0
sg36
g37
(g38
g39
Ntp1603
Rp1604
(dp1605
g43
I4
sg44
g45
sg46
g47
sbsg48
(dp1606
g50
I0
sg51
I6
sg52
I0
sg53
I9
ssg54
(dp1607
g50
I0
sg51
I0
sg52
I0
sg53
I0
ssg56
I10
sg57
g32
sg58
I0
sg59
F188.1855201392936
sg60
I5
sg61
I1
sg62
I0
sg63
g64
sg65
I00
sg66
g1604
sg67
(dp1608
g50
I0
sg51
I0
sg52
I0
sg53
I5
ssg69
I00
sg70
(dp1609
g50
I0
sg51
I0
sg52
I0
sg53
I0
ssg72
(dp1610
g50
I0
sg51
I0
sg52
I0
sg53
I5
ssg74
I4
sg75
I4
sg76
S'Yhehil'
p1611
sg78
I7
sg79
I0
sg80
(dp1612
g50
I0
sg51
I6
sg52
I0
sg53
I9
ssg82
I114
sg83
I4
sg84
I00
sg85
g32
sg86
I16
sg87
(dp1613
g89
I10
sg90
I6
sg91
I9
sg92
I9
sg93
I10
sg94
I8
sg95
I11
sg96
I11
sg97
I7
sg98
I11
sg99
I11
sg100
I7
sg101
I8
sg102
I9
sg103
I6
ssg104
(dp1614
S's13'
p1615
(ijoueur
joueur
p1616
(dp1617
g27
I0
sg28
I0
sg29
I0
sg33
I0
sg36
g37
(g38
g39
Ntp1618
Rp1619
(dp1620
g44
g32
sbsg48
(dp1621
g113
I0
sg114
I0
sg115
I0
sg116
I0
ssg54
g1607
sg57
g32
sg58
I0
sg60
I5
sg61
I1
sg62
I0
sg117
(g118
S'AI'
p1622
S'DM'
p1623
g32
tp1624
sg65
I00
sg66
g37
(g38
g39
Ntp1625
Rp1626
(dp1627
g44
g32
sbsg67
g1608
sg69
I00
sg70
g1609
sg72
g1610
sg74
I0
sg75
I4
sg76
S'Yhehil (13)'
p1628
sg78
I0
sg79
I0
sg86
I0
sg82
I0
sg63
g64
sg87
(dp1629
g127
I0
sg128
I0
sg129
I0
sg130
I0
sg131
I0
sg132
I0
sg133
I0
sg134
I0
sg135
I0
sg136
I0
sg137
I0
sg138
I0
sg139
I0
sg140
I0
sg141
I0
ssg104
(dp1630
sg143
I0
sg144
g32
sg145
I0
sg146
I0
sg147
I0
sg148
F10.225806451612904
sg149
I0
sg80
g1612
sg150
I0
sg151
(dp1631
g89
I10
sg90
I6
sg91
I9
sg92
I9
sg97
I7
sg95
I11
sg94
I8
sg96
I11
sg93
I10
sg98
I11
sg99
I11
sg100
I7
sg101
I8
sg102
I9
sg103
I6
ssg153
I0
sg154
I0
sg155
I0
sg156
I1
sg157
I0
sg158
I0
sg159
I0
sg160
g32
sbsS's12'
p1632
(ijoueur
joueur
p1633
(dp1634
g27
I0
sg28
I0
sg29
I0
sg33
I0
sg36
g37
(g38
g39
Ntp1635
Rp1636
(dp1637
g44
g32
sbsg48
(dp1638
g50
I0
sg51
I0
sg52
I0
sg53
I0
ssg54
(dp1639
g50
I0
sg51
I0
sg52
I0
sg53
I0
ssg57
g32
sg58
I0
sg60
I0
sg61
I0
sg62
I0
sg117
(g118
g1622
g32
g32
tp1640
sg65
I00
sg66
g37
(g38
g39
Ntp1641
Rp1642
(dp1643
g44
g32
sbsg67
(dp1644
g50
I0
sg51
I0
sg52
I0
sg53
I0
ssg69
I00
sg70
(dp1645
g50
I0
sg51
I0
sg52
I0
sg53
I0
ssg72
(dp1646
g50
I0
sg51
I0
sg52
I0
sg53
I0
ssg74
I0
sg75
I0
sg76
S'Yhehil (12)'
p1647
sg78
I0
sg79
I0
sg86
I0
sg82
I0
sg63
g64
sg87
(dp1648
g99
I0
sg90
I0
sg91
I0
sg92
I0
sg97
I0
sg89
I0
sg94
I0
sg96
I0
sg93
I0
sg98
I0
sg95
I0
sg100
I0
sg101
I0
sg102
I0
sg103
I0
ssg104
(dp1649
sg143
I0
sg144
g32
sg145
I0
sg146
I0
sg147
I0
sg148
F0.0
sg149
I0
sg80
(dp1650
g50
I0
sg51
I0
sg52
I0
sg53
I0
ssg150
I0
sg151
g1631
sg153
I0
sg154
I0
sg155
I0
sg156
I0
sg157
I0
sg158
I0
sg159
I0
sg160
g32
sbsS's11'
p1651
(ijoueur
joueur
p1652
(dp1653
g27
I0
sg28
I0
sg29
I0
sg33
I0
sg36
g37
(g38
g39
Ntp1654
Rp1655
(dp1656
g44
g32
sbsg48
(dp1657
g50
I0
sg51
I0
sg52
I0
sg53
I0
ssg54
(dp1658
g50
I0
sg51
I0
sg52
I0
sg53
I0
ssg57
g32
sg58
I0
sg60
I0
sg61
I0
sg62
I0
sg117
g1640
sg65
I00
sg66
g37
(g38
g39
Ntp1659
Rp1660
(dp1661
g44
g32
sbsg67
(dp1662
g50
I0
sg51
I0
sg52
I0
sg53
I0
ssg69
I00
sg70
(dp1663
g50
I0
sg51
I0
sg52
I0
sg53
I0
ssg72
(dp1664
g50
I0
sg51
I0
sg52
I0
sg53
I0
ssg74
I0
sg75
I0
sg76
S'Yhehil (11)'
p1665
sg78
I0
sg79
I0
sg86
I0
sg82
I0
sg63
g64
sg87
(dp1666
g99
I0
sg90
I0
sg91
I0
sg92
I0
sg97
I0
sg89
I0
sg94
I0
sg96
I0
sg93
I0
sg98
I0
sg95
I0
sg100
I0
sg101
I0
sg102
I0
sg103
I0
ssg104
(dp1667
sg143
I0
sg144
g32
sg145
I0
sg146
I0
sg147
I0
sg148
F0.0
sg149
I0
sg80
(dp1668
g50
I0
sg51
I0
sg52
I0
sg53
I0
ssg150
I0
sg151
g1631
sg153
I0
sg154
I0
sg155
I0
sg156
I0
sg157
I0
sg158
I0
sg159
I0
sg160
g32
sbssg143
I0
sg144
g32
sg145
I0
sg147
I0
sg148
F10.225806451612904
sg149
I1
sg117
g1624
sg146
I0
sg150
I0
sg151
g1631
sg153
I0
sg154
I1
sg155
I0
sg156
I1
sg157
I11
sg158
I5
sg159
I0
sg160
g198
sbsS'n16'
p1669
(ijoueur
joueur
p1670
(dp1671
g202
F8.0
sg27
I0
sg203
F8.724137931034482
sg144
g32
sg29
I0
sg30
F52.04252235580297
sg33
I0
sg35
I0
sg36
g37
(g38
g39
Ntp1672
Rp1673
(dp1674
g43
I4
sg44
S'*'
p1675
sg46
S'heros'
p1676
sbsg48
(dp1677
S'SR'
p1678
I0
sS'ST'
p1679
I0
sS'CR'
p1680
I3
sS'CT'
p1681
I0
ssg54
(dp1682
g1678
I0
sg1679
I0
sg1680
I0
sg1681
I0
ssg215
I0
sg56
I10
sg216
I0
sg58
I0
sS'transformations'
p1683
I0
sS'penalites'
p1684
I0
sg60
I0
sg61
I0
sg62
I0
sg83
I0
sg65
I00
sg66
g1673
sg67
(dp1685
S'SR'
p1686
I0
sS'CT'
p1687
I1
sS'CR'
p1688
I2
sS'ST'
p1689
I0
ssg80
(dp1690
g1686
I0
sg1687
I0
sg1688
I2
sg1689
I0
ssg70
(dp1691
g1686
I0
sg1687
I0
sg1688
I0
sg1689
I0
ssg72
(dp1692
g1678
I0
sg1679
I0
sg1680
I5
sg1681
I3
ssg74
I0
sg75
I0
sg76
S'Umareux'
p1693
sg78
I11
sg79
I0
sg69
I00
sg82
I65
sg63
g64
sg84
I00
sg86
I23
sg87
(dp1694
S'A'
p1695
I10
sS'ME'
p1696
I9
sS'RP2'
p1697
I8
sS'E'
p1698
I11
sS'P'
p1699
I4
sS'RP1'
p1700
I9
sS'JP'
p1701
I4
sS'RP_tot'
p1702
I10
sS'TO'
p1703
I7
sS'PA'
p1704
I9
sS'M'
p1705
I9
sS'R'
p1706
I8
sS'TB'
p1707
I6
sS'PL'
p1708
I7
sS'TA'
p1709
I9
ssg104
(dp1710
S's13'
p1711
(ijoueur
joueur
p1712
(dp1713
g27
I0
sg28
I0
sg29
I0
sg33
I0
sg36
g37
(g38
g39
Ntp1714
Rp1715
(dp1716
g44
g32
sbsg48
(dp1717
S'SR'
p1718
I0
sS'ST'
p1719
I0
sS'CR'
p1720
I0
sS'CT'
p1721
I0
ssg54
g1682
sg86
I0
sg57
g32
sg58
I0
sg60
I0
sg61
I0
sg62
I0
sg117
(S'dummy'
p1722
S'PI'
p1723
S'TA'
p1724
g32
tp1725
sg65
I00
sg66
g37
(g38
g39
Ntp1726
Rp1727
(dp1728
g44
g32
sbsg67
g1685
sg80
g1690
sg70
g1691
sg72
g1692
sg74
I0
sg75
I0
sg76
S'Umareux (13)'
p1729
sg78
I0
sg79
I0
sg69
I00
sg82
I0
sg63
S'QNL'
p1730
sg87
(dp1731
S'A'
p1732
I0
sS'ME'
p1733
I0
sS'RP2'
p1734
I0
sS'E'
p1735
I0
sS'TO'
p1736
I0
sS'RP1'
p1737
I0
sS'JP'
p1738
I0
sS'RP_tot'
p1739
I0
sS'P'
p1740
I0
sS'PA'
p1741
I0
sS'M'
p1742
I0
sS'R'
p1743
I0
sS'TB'
p1744
I0
sS'PL'
p1745
I0
sS'TA'
p1746
I0
ssg104
(dp1747
sg143
I0
sg144
g32
sg145
I0
sg147
I0
sg148
F9.0
sg149
I0
sg146
I0
sg150
I0
sg151
(dp1748
g1695
I10
sg1696
I9
sg1697
I8
sg1698
I11
sg1703
I7
sg1700
I9
sg1701
I4
sg1702
I10
sg1699
I4
sg1704
I9
sg1705
I9
sg1706
I8
sg1707
I6
sg1708
I7
sg1709
I9
ssg153
I0
sg154
I0
sg155
I0
sg156
I0
sg157
I0
sg158
I0
sg159
I0
sg160
g32
sbsS's12'
p1749
(ijoueur
joueur
p1750
(dp1751
g202
F8.0
sg27
I0
sg144
g32
sg29
I0
sg33
I0
sg36
g37
(g38
g39
Ntp1752
Rp1753
(dp1754
g43
I4
sg44
S'*'
p1755
sg46
S'heros'
p1756
sbsg48
(dp1757
S'SR'
p1758
I0
sS'ST'
p1759
I0
sS'CR'
p1760
I1
sS'CT'
p1761
I0
ssg54
(dp1762
g1758
I0
sg1759
I0
sg1760
I0
sg1761
I0
ssg216
I0
sg148
F8.724137931034482
sg58
I0
sg1683
I0
sg1684
I0
sg60
I0
sg61
I0
sg62
I0
sg117
(S'dummy'
p1763
S'PI'
p1764
S'TA'
p1765
g32
tp1766
sg65
I00
sg66
g37
(g38
g39
Ntp1767
Rp1768
(dp1769
g43
I3
sg44
S'^^^'
p1770
sg46
S'rare'
p1771
sbsg67
(dp1772
S'SR'
p1773
I0
sS'CT'
p1774
I1
sS'CR'
p1775
I3
sS'ST'
p1776
I0
ssg69
I00
sg70
(dp1777
g1773
I0
sg1774
I0
sg1775
I0
sg1776
I0
ssg72
(dp1778
g1758
I0
sg1759
I0
sg1760
I3
sg1761
I2
ssg74
I0
sg75
I0
sg76
S'Umareux (12)'
p1779
sg78
I11
sg79
I0
sg86
I23
sg82
I57
sg63
S'QNL'
p1780
sg87
(dp1781
S'A'
p1782
I11
sS'ME'
p1783
I9
sS'RP2'
p1784
I7
sS'E'
p1785
I11
sS'TO'
p1786
I7
sS'RP1'
p1787
I8
sS'JP'
p1788
I3
sS'RP_tot'
p1789
I9
sS'P'
p1790
I3
sS'PA'
p1791
I9
sS'M'
p1792
I9
sS'R'
p1793
I7
sS'TB'
p1794
I5
sS'PL'
p1795
I8
sS'TA'
p1796
I9
ssg104
(dp1797
S's11'
p1798
(ijoueur
joueur
p1799
(dp1800
g27
I0
sg29
I0
sg33
I0
sg36
g37
(g38
g39
Ntp1801
Rp1802
(dp1803
g43
I4
sg44
S'*'
p1804
sg46
S'heros'
p1805
sbsg48
(dp1806
S'SR'
p1807
I0
sS'ST'
p1808
I0
sS'CR'
p1809
I1
sS'CT'
p1810
I0
ssg54
(dp1811
g1807
I0
sg1808
I0
sg1809
I0
sg1810
I0
ssg216
I0
sg148
F8.068965517241379
sg58
I0
sg1683
I0
sg1684
I0
sg60
I0
sg61
I0
sg62
I0
sg117
(S'dummy'
p1812
S'PI'
p1813
S'TA'
p1814
g32
tp1815
sg65
I00
sg66
g37
(g38
g39
Ntp1816
Rp1817
(dp1818
g43
I1
sg44
S'^'
p1819
sg46
S'base'
p1820
sbsg67
(dp1821
g1807
I0
sg1808
I0
sg1809
I0
sg1810
I1
ssg69
I00
sg70
(dp1822
g1807
I0
sg1808
I0
sg1809
I0
sg1810
I0
ssg72
(dp1823
g1807
I0
sg1808
I0
sg1809
I0
sg1810
I1
ssg74
I0
sg75
I0
sg76
S'Umareux'
p1824
sg78
I11
sg79
I0
sg86
I23
sg82
I26
sg63
S'QNL'
p1825
sg87
(dp1826
S'A'
p1827
I9
sS'ME'
p1828
I9
sS'RP2'
p1829
I6
sS'E'
p1830
I10
sS'TO'
p1831
I5
sS'RP1'
p1832
I7
sS'JP'
p1833
I3
sS'RP_tot'
p1834
I7
sS'P'
p1835
I3
sS'PA'
p1836
I7
sS'M'
p1837
I8
sS'R'
p1838
I7
sS'TB'
p1839
I5
sS'PL'
p1840
I7
sS'TA'
p1841
I9
ssg143
I0
sg28
I0
sg145
I0
sg147
I0
sg80
(dp1842
g1807
I0
sg1808
I0
sg1809
I1
sg1810
I0
ssg149
I0
sS'drops'
p1843
I0
sg146
I0
sg150
I0
sg367
(dp1844
S'A'
p1845
I9
sS'ME'
p1846
I9
sS'RP2'
p1847
I6
sS'E'
p1848
I10
sS'TO'
p1849
I5
sS'RP1'
p1850
I7
sS'JP'
p1851
I3
sS'RP_tot'
p1852
I7
sS'P'
p1853
I3
sS'PA'
p1854
I7
sS'M'
p1855
I8
sS'R'
p1856
I7
sS'TB'
p1857
I5
sS'PL'
p1858
I7
sS'TA'
p1859
I9
ssg151
g1826
sg153
I0
sg57
g32
sg154
I0
sg155
I0
sg156
I0
sg157
I5
sg158
I0
sg159
I0
sg160
S'B'
p1860
sbssg143
I0
sg28
I0
sg145
I0
sg147
I0
sg80
(dp1861
g1773
I0
sg1774
I0
sg1775
I0
sg1776
I0
ssg149
I0
sg1843
I0
sg146
I0
sg150
I0
sg367
(dp1862
S'A'
p1863
I9
sS'ME'
p1864
I9
sS'RP2'
p1865
I6
sS'E'
p1866
I10
sS'P'
p1867
I3
sS'RP1'
p1868
I7
sS'JP'
p1869
I3
sS'RP_tot'
p1870
I7
sS'TO'
p1871
I5
sS'PA'
p1872
I7
sS'M'
p1873
I8
sS'R'
p1874
I7
sS'TB'
p1875
I5
sS'PL'
p1876
I7
sS'TA'
p1877
I9
ssg151
g1781
sg153
I0
sg57
g32
sg154
I0
sg155
I0
sg156
I0
sg157
I8
sg158
I0
sg159
I0
sg160
S'B'
p1878
sbsS's11'
p1879
(ijoueur
joueur
p1880
(dp1881
g27
I0
sg29
I0
sg33
I0
sg36
g37
(g38
g39
Ntp1882
Rp1883
(dp1884
g43
I4
sg44
S'*'
p1885
sg46
S'heros'
p1886
sbsg48
(dp1887
S'SR'
p1888
I0
sS'ST'
p1889
I0
sS'CR'
p1890
I1
sS'CT'
p1891
I0
ssg54
(dp1892
g1888
I0
sg1889
I0
sg1890
I0
sg1891
I0
ssg216
I0
sg148
F8.068965517241379
sg58
I0
sg1683
I0
sg1684
I0
sg60
I0
sg61
I0
sg62
I0
sg117
(S'dummy'
p1893
S'PI'
p1894
S'TA'
p1895
g32
tp1896
sg65
I00
sg66
g37
(g38
g39
Ntp1897
Rp1898
(dp1899
g43
I1
sg44
S'^'
p1900
sg46
S'base'
p1901
sbsg67
(dp1902
g1888
I0
sg1889
I0
sg1890
I0
sg1891
I1
ssg69
I00
sg70
(dp1903
g1888
I0
sg1889
I0
sg1890
I0
sg1891
I0
ssg72
(dp1904
g1888
I0
sg1889
I0
sg1890
I0
sg1891
I1
ssg74
I0
sg75
I0
sg76
S'Umareux (11)'
p1905
sg78
I11
sg79
I0
sg86
I23
sg82
I26
sg63
S'QNL'
p1906
sg87
(dp1907
S'A'
p1908
I9
sS'ME'
p1909
I9
sS'RP2'
p1910
I6
sS'E'
p1911
I10
sS'TO'
p1912
I5
sS'RP1'
p1913
I7
sS'JP'
p1914
I3
sS'RP_tot'
p1915
I7
sS'P'
p1916
I3
sS'PA'
p1917
I7
sS'M'
p1918
I8
sS'R'
p1919
I7
sS'TB'
p1920
I5
sS'PL'
p1921
I7
sS'TA'
p1922
I9
ssg143
I0
sg28
I0
sg145
I0
sg147
I0
sg80
(dp1923
g1888
I0
sg1889
I0
sg1890
I1
sg1891
I0
ssg149
I0
sg1843
I0
sg146
I0
sg150
I0
sg367
(dp1924
S'A'
p1925
I9
sS'ME'
p1926
I9
sS'RP2'
p1927
I6
sS'E'
p1928
I10
sS'TO'
p1929
I5
sS'RP1'
p1930
I7
sS'JP'
p1931
I3
sS'RP_tot'
p1932
I7
sS'P'
p1933
I3
sS'PA'
p1934
I7
sS'M'
p1935
I8
sS'R'
p1936
I7
sS'TB'
p1937
I5
sS'PL'
p1938
I7
sS'TA'
p1939
I9
ssg151
g1907
sg153
I0
sg57
g32
sg154
I0
sg155
I0
sg156
I0
sg157
I5
sg158
I0
sg159
I0
sg160
S'B'
p1940
sbssg143
I0
sg28
I0
sg145
I0
sg147
I0
sg148
F9.0
sg149
I0
sg117
g1725
sg59
F52.04252235580297
sg1843
I0
sg146
I0
sg150
I0
sg367
(dp1941
S'A'
p1942
I9
sS'ME'
p1943
I9
sS'RP2'
p1944
I6
sS'E'
p1945
I10
sS'P'
p1946
I3
sS'RP1'
p1947
I7
sS'JP'
p1948
I3
sS'RP_tot'
p1949
I7
sS'TO'
p1950
I5
sS'PA'
p1951
I7
sS'M'
p1952
I8
sS'R'
p1953
I7
sS'TB'
p1954
I5
sS'PL'
p1955
I7
sS'TA'
p1956
I9
ssg151
g1748
sg153
I0
sg480
(dp1957
sg154
I0
sg57
S'QNL 14'
p1958
sg155
I0
sg156
I0
sg157
I8
sg158
I0
sg159
I0
sg160
S'B'
p1959
sbsS'n17'
p1960
(ijoueur
joueur
p1961
(dp1962
g27
I0
sg28
I0
sg29
I0
sg30
F118.49116282102341
sg31
g32
sg33
I0
sg34
g32
sg35
I0
sg36
g37
(g38
g39
Ntp1963
Rp1964
(dp1965
g43
I4
sg44
g812
sg46
g47
sbsg48
(dp1966
g50
I0
sg51
I0
sg52
I0
sg53
I13
ssg54
(dp1967
g50
I0
sg51
I0
sg52
I0
sg53
I0
ssg56
I10
sg57
g32
sg58
I0
sg59
F118.49116282102341
sg60
I0
sg61
I0
sg62
I0
sg63
g64
sg65
I00
sg66
g1964
sg67
(dp1968
g50
I0
sg51
I0
sg52
I0
sg53
I0
ssg69
I00
sg70
(dp1969
g50
I0
sg51
I0
sg52
I0
sg53
I0
ssg72
(dp1970
g50
I0
sg51
I0
sg52
I0
sg53
I0
ssg74
I0
sg75
I0
sg76
S'Woshterh'
p1971
sg78
I9
sg79
I0
sg80
(dp1972
g50
I0
sg51
I0
sg52
I0
sg53
I13
ssg82
I149
sg83
I2
sg84
I00
sg85
g32
sg86
I18
sg87
(dp1973
g89
I9
sg90
I11
sg91
I8
sg92
I8
sg93
I3
sg94
I2
sg95
I10
sg96
I10
sg97
I8
sg98
I9
sg99
I8
sg100
I8
sg101
I4
sg102
I11
sg103
I9
ssg104
(dp1974
S's13'
p1975
(ijoueur
joueur
p1976
(dp1977
g27
I0
sg28
I0
sg29
I0
sg33
I0
sg36
g37
(g38
g39
Ntp1978
Rp1979
(dp1980
g44
g32
sbsg48
(dp1981
g113
I0
sg114
I0
sg115
I0
sg116
I0
ssg54
g1967
sg57
g32
sg58
I0
sg60
I0
sg61
I0
sg62
I0
sg117
(g118
S'PI'
p1982
S'TA'
p1983
g32
tp1984
sg65
I00
sg66
g37
(g38
g39
Ntp1985
Rp1986
(dp1987
g44
g32
sbsg67
g1968
sg69
I00
sg70
g1969
sg72
g1970
sg74
I0
sg75
I0
sg76
S'Woshterh (13)'
p1988
sg78
I0
sg79
I0
sg86
I0
sg82
I0
sg63
g64
sg87
(dp1989
g127
I0
sg128
I0
sg129
I0
sg130
I0
sg131
I0
sg132
I0
sg133
I0
sg134
I0
sg135
I0
sg136
I0
sg137
I0
sg138
I0
sg139
I0
sg140
I0
sg141
I0
ssg104
(dp1990
sg143
I0
sg144
g32
sg145
I0
sg146
I0
sg147
I0
sg148
F9.407407407407407
sg149
I0
sg80
g1972
sg150
I0
sg151
(dp1991
g89
I9
sg90
I11
sg91
I8
sg92
I8
sg97
I8
sg95
I10
sg94
I2
sg96
I10
sg93
I3
sg98
I9
sg99
I8
sg100
I8
sg101
I4
sg102
I11
sg103
I9
ssg153
I0
sg154
I0
sg155
I0
sg156
I0
sg157
I0
sg158
I0
sg159
I0
sg160
g32
sbsS's12'
p1992
(ijoueur
joueur
p1993
(dp1994
g27
I0
sg28
I0
sg29
I0
sg33
I0
sg36
g37
(g38
g39
Ntp1995
Rp1996
(dp1997
g44
g32
sbsg48
(dp1998
g50
I0
sg51
I0
sg52
I0
sg53
I0
ssg54
(dp1999
g50
I0
sg51
I0
sg52
I0
sg53
I0
ssg57
g32
sg58
I0
sg60
I0
sg61
I0
sg62
I0
sg117
(g118
g1982
g32
g32
tp2000
sg65
I00
sg66
g37
(g38
g39
Ntp2001
Rp2002
(dp2003
g44
g32
sbsg67
(dp2004
g50
I0
sg51
I0
sg52
I0
sg53
I0
ssg69
I00
sg70
(dp2005
g50
I0
sg51
I0
sg52
I0
sg53
I0
ssg72
(dp2006
g50
I0
sg51
I0
sg52
I0
sg53
I0
ssg74
I0
sg75
I0
sg76
S'Woshterh (12)'
p2007
sg78
I0
sg79
I0
sg86
I0
sg82
I0
sg63
g64
sg87
(dp2008
g99
I0
sg90
I0
sg91
I0
sg92
I0
sg97
I0
sg89
I0
sg94
I0
sg96
I0
sg93
I0
sg98
I0
sg95
I0
sg100
I0
sg101
I0
sg102
I0
sg103
I0
ssg104
(dp2009
sg143
I0
sg144
g32
sg145
I0
sg146
I0
sg147
I0
sg148
F0.0
sg149
I0
sg80
(dp2010
g50
I0
sg51
I0
sg52
I0
sg53
I0
ssg150
I0
sg151
g1991
sg153
I0
sg154
I0
sg155
I0
sg156
I0
sg157
I0
sg158
I0
sg159
I0
sg160
g32
sbsS's11'
p2011
(ijoueur
joueur
p2012
(dp2013
g27
I0
sg28
I0
sg29
I0
sg33
I0
sg36
g37
(g38
g39
Ntp2014
Rp2015
(dp2016
g44
g32
sbsg48
(dp2017
g50
I0
sg51
I0
sg52
I0
sg53
I0
ssg54
(dp2018
g50
I0
sg51
I0
sg52
I0
sg53
I0
ssg57
g32
sg58
I0
sg60
I0
sg61
I0
sg62
I0
sg117
g2000
sg65
I00
sg66
g37
(g38
g39
Ntp2019
Rp2020
(dp2021
g44
g32
sbsg67
(dp2022
g50
I0
sg51
I0
sg52
I0
sg53
I0
ssg69
I00
sg70
(dp2023
g50
I0
sg51
I0
sg52
I0
sg53
I0
ssg72
(dp2024
g50
I0
sg51
I0
sg52
I0
sg53
I0
ssg74
I0
sg75
I0
sg76
S'Woshterh (11)'
p2025
sg78
I0
sg79
I0
sg86
I0
sg82
I0
sg63
g64
sg87
(dp2026
g99
I0
sg90
I0
sg91
I0
sg92
I0
sg97
I0
sg89
I0
sg94
I0
sg96
I0
sg93
I0
sg98
I0
sg95
I0
sg100
I0
sg101
I0
sg102
I0
sg103
I0
ssg104
(dp2027
sg143
I0
sg144
g32
sg145
I0
sg146
I0
sg147
I0
sg148
F0.0
sg149
I0
sg80
(dp2028
g50
I0
sg51
I0
sg52
I0
sg53
I0
ssg150
I0
sg151
g1991
sg153
I0
sg154
I0
sg155
I0
sg156
I0
sg157
I0
sg158
I0
sg159
I0
sg160
g32
sbssg143
I0
sg144
g32
sg145
I0
sg147
I0
sg148
F9.407407407407407
sg149
I0
sg117
g1984
sg146
I0
sg150
I1
sg151
g1991
sg153
I0
sg154
I0
sg155
I0
sg156
I0
sg157
I14
sg158
I0
sg159
I1
sg160
g198
sbsS'n14'
p2029
(ijoueur
joueur
p2030
(dp2031
g27
I0
sg28
I0
sg29
I0
sg30
F118.93420351381515
sg31
g32
sg33
I0
sg34
g32
sg35
I0
sg36
g37
(g38
g39
Ntp2032
Rp2033
(dp2034
g43
I3
sg44
g490
sg46
g491
sbsg48
(dp2035
g50
I0
sg51
I0
sg52
I1
sg53
I0
ssg54
(dp2036
g50
I0
sg51
I0
sg52
I0
sg53
I0
ssg56
I10
sg57
g32
sg58
I0
sg59
F118.93420351381515
sg60
I3
sg61
I0
sg62
I0
sg63
g64
sg65
I00
sg66
g2033
sg67
(dp2037
g50
I0
sg51
I0
sg52
I0
sg53
I12
ssg69
I01
sg70
(dp2038
g50
I0
sg51
I0
sg52
I0
sg53
I0
ssg72
(dp2039
g50
I0
sg51
I0
sg52
I0
sg53
I12
ssg74
I2
sg75
I2
sg76
S'Grend Shaler'
p2040
sg78
I11
sg79
I0
sg80
(dp2041
g50
I0
sg51
I0
sg52
I1
sg53
I0
ssg82
I85
sg83
I1
sg84
I00
sg85
g32
sg86
I21
sg87
(dp2042
g89
I10
sg90
I6
sg91
I11
sg92
I9
sg93
I9
sg94
I8
sg95
I11
sg96
I13
sg97
I7
sg98
I10
sg99
I12
sg100
I6
sg101
I7
sg102
I8
sg103
I2
ssg104
(dp2043
S's13'
p2044
(ijoueur
joueur
p2045
(dp2046
g27
I0
sg28
I0
sg29
I0
sg33
I0
sg36
g37
(g38
g39
Ntp2047
Rp2048
(dp2049
g44
g32
sbsg48
(dp2050
g113
I0
sg114
I0
sg115
I0
sg116
I0
ssg54
g2036
sg57
g32
sg58
I0
sg60
I3
sg61
I0
sg62
I0
sg117
(g118
g1622
S'CE'
p2051
g32
tp2052
sg65
I00
sg66
g37
(g38
g39
Ntp2053
Rp2054
(dp2055
g44
g32
sbsg67
g2037
sg69
I00
sg70
g2038
sg72
g2039
sg74
I0
sg75
I2
sg76
S'Grend Shaler (13)'
p2056
sg78
I0
sg79
I0
sg86
I0
sg82
I0
sg63
g64
sg87
(dp2057
g127
I0
sg128
I0
sg129
I0
sg130
I0
sg131
I0
sg132
I0
sg133
I0
sg134
I0
sg135
I0
sg136
I0
sg137
I0
sg138
I0
sg139
I0
sg140
I0
sg141
I0
ssg104
(dp2058
sg143
I0
sg144
g32
sg145
I0
sg146
I0
sg147
I0
sg148
F10.516129032258064
sg149
I0
sg80
g2041
sg150
I0
sg151
(dp2059
g89
I10
sg90
I6
sg91
I11
sg92
I9
sg97
I7
sg95
I11
sg94
I8
sg96
I13
sg93
I9
sg98
I10
sg99
I12
sg100
I6
sg101
I7
sg102
I8
sg103
I2
ssg153
I0
sg154
I0
sg155
I0
sg156
I0
sg157
I0
sg158
I0
sg159
I0
sg160
g32
sbsS's12'
p2060
(ijoueur
joueur
p2061
(dp2062
g27
I0
sg28
I0
sg29
I0
sg33
I0
sg36
g37
(g38
g39
Ntp2063
Rp2064
(dp2065
g44
g32
sbsg48
(dp2066
g50
I0
sg51
I0
sg52
I0
sg53
I0
ssg54
(dp2067
g50
I0
sg51
I0
sg52
I0
sg53
I0
ssg57
g32
sg58
I0
sg60
I0
sg61
I0
sg62
I0
sg117
(g118
g1622
g32
g32
tp2068
sg65
I00
sg66
g37
(g38
g39
Ntp2069
Rp2070
(dp2071
g44
g32
sbsg67
(dp2072
g50
I0
sg51
I0
sg52
I0
sg53
I0
ssg69
I00
sg70
(dp2073
g50
I0
sg51
I0
sg52
I0
sg53
I0
ssg72
(dp2074
g50
I0
sg51
I0
sg52
I0
sg53
I0
ssg74
I0
sg75
I0
sg76
S'Grend Shaler (12)'
p2075
sg78
I0
sg79
I0
sg86
I0
sg82
I0
sg63
g64
sg87
(dp2076
g99
I0
sg90
I0
sg91
I0
sg92
I0
sg97
I0
sg89
I0
sg94
I0
sg96
I0
sg93
I0
sg98
I0
sg95
I0
sg100
I0
sg101
I0
sg102
I0
sg103
I0
ssg104
(dp2077
sg143
I0
sg144
g32
sg145
I0
sg146
I0
sg147
I0
sg148
F0.0
sg149
I0
sg80
(dp2078
g50
I0
sg51
I0
sg52
I0
sg53
I0
ssg150
I0
sg151
g2059
sg153
I0
sg154
I0
sg155
I0
sg156
I0
sg157
I0
sg158
I0
sg159
I0
sg160
g32
sbsS's11'
p2079
(ijoueur
joueur
p2080
(dp2081
g27
I0
sg28
I0
sg29
I0
sg33
I0
sg36
g37
(g38
g39
Ntp2082
Rp2083
(dp2084
g44
g32
sbsg48
(dp2085
g50
I0
sg51
I0
sg52
I0
sg53
I0
ssg54
(dp2086
g50
I0
sg51
I0
sg52
I0
sg53
I0
ssg57
g32
sg58
I0
sg60
I0
sg61
I0
sg62
I0
sg117
g2068
sg65
I00
sg66
g37
(g38
g39
Ntp2087
Rp2088
(dp2089
g44
g32
sbsg67
(dp2090
g50
I0
sg51
I0
sg52
I0
sg53
I0
ssg69
I00
sg70
(dp2091
g50
I0
sg51
I0
sg52
I0
sg53
I0
ssg72
(dp2092
g50
I0
sg51
I0
sg52
I0
sg53
I0
ssg74
I0
sg75
I0
sg76
S'Grend Shaler (11)'
p2093
sg78
I0
sg79
I0
sg86
I0
sg82
I0
sg63
g64
sg87
(dp2094
g99
I0
sg90
I0
sg91
I0
sg92
I0
sg97
I0
sg89
I0
sg94
I0
sg96
I0
sg93
I0
sg98
I0
sg95
I0
sg100
I0
sg101
I0
sg102
I0
sg103
I0
ssg104
(dp2095
sg143
I0
sg144
g32
sg145
I0
sg146
I0
sg147
I0
sg148
F0.0
sg149
I0
sg80
(dp2096
g50
I0
sg51
I0
sg52
I0
sg53
I0
ssg150
I0
sg151
g2059
sg153
I0
sg154
I0
sg155
I0
sg156
I0
sg157
I0
sg158
I0
sg159
I0
sg160
g32
sbssg143
I0
sg144
g32
sg145
I1
sg147
I0
sg148
F10.516129032258064
sg149
I0
sg117
g2052
sg146
I1
sg150
I0
sg151
g2059
sg153
I0
sg154
I0
sg155
I0
sg156
I0
sg157
I8
sg158
I3
sg159
I0
sg160
g198
sbsS'n15'
p2097
g25
sS'n18'
p2098
(ijoueur
joueur
p2099
(dp2100
g27
I0
sg28
I0
sg29
I0
sg30
F127.56940076698261
sg31
g32
sg33
I0
sg34
g32
sg35
I0
sg36
g37
(g38
g39
Ntp2101
Rp2102
(dp2103
g43
I4
sg44
g812
sg46
g47
sbsg48
(dp2104
g50
I0
sg51
I0
sg52
I0
sg53
I0
ssg54
(dp2105
g50
I0
sg51
I0
sg52
I1
sg53
I10
ssg56
I10
sg57
g32
sg58
I0
sg59
F127.56940076698261
sg60
I1
sg61
I0
sg62
I0
sg63
g64
sg65
I00
sg66
g2102
sg67
(dp2106
g50
I0
sg51
I0
sg52
I0
sg53
I3
ssg69
I00
sg70
(dp2107
g50
I0
sg51
I0
sg52
I1
sg53
I10
ssg72
(dp2108
g50
I0
sg51
I0
sg52
I0
sg53
I3
ssg74
I0
sg75
I0
sg76
S'Piasstor'
p2109
sg78
I10
sg79
I0
sg80
(dp2110
g50
I0
sg51
I0
sg52
I0
sg53
I0
ssg82
I276
sg83
I2
sg84
I00
sg85
g32
sg86
I23
sg87
(dp2111
g89
I10
sg90
I9
sg91
I8
sg92
I9
sg93
I5
sg94
I0
sg95
I10
sg96
I11
sg97
I8
sg98
I8
sg99
I8
sg100
I8
sg101
I3
sg102
I11
sg103
I7
ssg104
(dp2112
S's13'
p2113
(ijoueur
joueur
p2114
(dp2115
g27
I0
sg28
I0
sg29
I0
sg33
I0
sg36
g37
(g38
g39
Ntp2116
Rp2117
(dp2118
g44
g32
sbsg48
(dp2119
g113
I0
sg114
I0
sg115
I0
sg116
I0
ssg54
g2105
sg57
g32
sg58
I0
sg60
I1
sg61
I0
sg62
I0
sg117
(g118
g829
S'PI'
p2120
S'N8'
p2121
tp2122
sg65
I00
sg66
g37
(g38
g39
Ntp2123
Rp2124
(dp2125
g44
g32
sbsg67
g2106
sg69
I00
sg70
g2107
sg72
g2108
sg74
I0
sg75
I0
sg76
S'Piasstor (13)'
p2126
sg78
I0
sg79
I0
sg86
I0
sg82
I0
sg63
g64
sg87
(dp2127
g127
I0
sg128
I0
sg129
I0
sg130
I0
sg131
I0
sg132
I0
sg133
I0
sg134
I0
sg135
I0
sg136
I0
sg137
I0
sg138
I0
sg139
I0
sg140
I0
sg141
I0
ssg104
(dp2128
sg143
I0
sg144
g32
sg145
I0
sg146
I0
sg147
I0
sg148
F9.25925925925926
sg149
I0
sg80
g2110
sg150
I0
sg151
(dp2129
g89
I10
sg90
I9
sg91
I8
sg92
I9
sg97
I8
sg95
I10
sg94
I0
sg96
I11
sg93
I5
sg98
I8
sg99
I8
sg100
I8
sg101
I3
sg102
I11
sg103
I7
ssg153
I0
sg154
I0
sg155
I0
sg156
I0
sg157
I0
sg158
I0
sg159
I0
sg160
g32
sbsS's12'
p2130
(ijoueur
joueur
p2131
(dp2132
g27
I0
sg28
I0
sg29
I0
sg33
I0
sg36
g37
(g38
g39
Ntp2133
Rp2134
(dp2135
g44
g32
sbsg48
(dp2136
g50
I0
sg51
I0
sg52
I0
sg53
I0
ssg54
(dp2137
g50
I0
sg51
I0
sg52
I0
sg53
I0
ssg57
g32
sg58
I0
sg60
I0
sg61
I0
sg62
I0
sg117
(g118
g829
g32
g32
tp2138
sg65
I00
sg66
g37
(g38
g39
Ntp2139
Rp2140
(dp2141
g44
g32
sbsg67
(dp2142
g50
I0
sg51
I0
sg52
I0
sg53
I0
ssg69
I00
sg70
(dp2143
g50
I0
sg51
I0
sg52
I0
sg53
I0
ssg72
(dp2144
g50
I0
sg51
I0
sg52
I0
sg53
I0
ssg74
I0
sg75
I0
sg76
S'Piasstor (12)'
p2145
sg78
I0
sg79
I0
sg86
I0
sg82
I0
sg63
g64
sg87
(dp2146
g99
I0
sg90
I0
sg91
I0
sg92
I0
sg97
I0
sg89
I0
sg94
I0
sg96
I0
sg93
I0
sg98
I0
sg95
I0
sg100
I0
sg101
I0
sg102
I0
sg103
I0
ssg104
(dp2147
sg143
I0
sg144
g32
sg145
I0
sg146
I0
sg147
I0
sg148
F0.0
sg149
I0
sg80
(dp2148
g50
I0
sg51
I0
sg52
I0
sg53
I0
ssg150
I0
sg151
g2129
sg153
I0
sg154
I0
sg155
I0
sg156
I0
sg157
I0
sg158
I0
sg159
I0
sg160
g32
sbsS's11'
p2149
(ijoueur
joueur
p2150
(dp2151
g27
I0
sg28
I0
sg29
I0
sg33
I0
sg36
g37
(g38
g39
Ntp2152
Rp2153
(dp2154
g44
g32
sbsg48
(dp2155
g50
I0
sg51
I0
sg52
I0
sg53
I0
ssg54
(dp2156
g50
I0
sg51
I0
sg52
I0
sg53
I0
ssg57
g32
sg58
I0
sg60
I0
sg61
I0
sg62
I0
sg117
g2138
sg65
I00
sg66
g37
(g38
g39
Ntp2157
Rp2158
(dp2159
g44
g32
sbsg67
(dp2160
g50
I0
sg51
I0
sg52
I0
sg53
I0
ssg69
I00
sg70
(dp2161
g50
I0
sg51
I0
sg52
I0
sg53
I0
ssg72
(dp2162
g50
I0
sg51
I0
sg52
I0
sg53
I0
ssg74
I0
sg75
I0
sg76
S'Piasstor (11)'
p2163
sg78
I0
sg79
I0
sg86
I0
sg82
I0
sg63
g64
sg87
(dp2164
g99
I0
sg90
I0
sg91
I0
sg92
I0
sg97
I0
sg89
I0
sg94
I0
sg96
I0
sg93
I0
sg98
I0
sg95
I0
sg100
I0
sg101
I0
sg102
I0
sg103
I0
ssg104
(dp2165
sg143
I0
sg144
g32
sg145
I0
sg146
I0
sg147
I0
sg148
F0.0
sg149
I0
sg80
(dp2166
g50
I0
sg51
I0
sg52
I0
sg53
I0
ssg150
I0
sg151
g2129
sg153
I0
sg154
I0
sg155
I0
sg156
I0
sg157
I0
sg158
I0
sg159
I0
sg160
g32
sbssg143
I0
sg144
g32
sg145
I0
sg147
I0
sg148
F9.25925925925926
sg149
I0
sg117
g2122
sg146
I0
sg150
I0
sg151
g2129
sg153
I0
sg154
I0
sg155
I0
sg156
I0
sg157
I27
sg158
I1
sg159
I0
sg160
g198
sbsS'n19'
p2167
g1086
sS'n22'
p2168
g879
sS'n21'
p2169
(ijoueur
joueur
p2170
(dp2171
g27
I0
sg28
I0
sg29
I0
sg30
F118.67868765919593
sg31
g32
sg33
I0
sg34
g32
sg35
I0
sg36
g37
(g38
g39
Ntp2172
Rp2173
(dp2174
g43
I4
sg44
S'*'
p2175
sg46
S'heros'
p2176
sbsg48
(dp2177
S'SR'
p2178
I0
sS'ST'
p2179
I0
sS'CR'
p2180
I0
sS'CT'
p2181
I0
ssg54
(dp2182
g2178
I0
sg2179
I0
sg2180
I0
sg2181
I0
ssg56
I10
sg57
S'MRT 14'
p2183
sg58
I0
sg59
F118.67868765919593
sg60
I1
sg61
I0
sg62
I0
sg63
g64
sg65
I00
sg66
g2173
sg67
(dp2184
g2178
I0
sg2179
I0
sg2180
I9
sg2181
I4
ssg69
I00
sg70
(dp2185
g2178
I0
sg2179
I0
sg2180
I0
sg2181
I0
ssg72
(dp2186
g2178
I0
sg2179
I0
sg2180
I9
sg2181
I4
ssg74
I0
sg75
I0
sg76
S'Varzz'
p2187
sg78
I10
sg79
I0
sg80
(dp2188
g2178
I0
sg2179
I0
sg2180
I0
sg2181
I0
ssg82
I303
sg83
I0
sg84
I00
sg85
g32
sg86
I19
sg87
(dp2189
S'RP1'
p2190
I8
sS'ME'
p2191
I6
sS'RP2'
p2192
I9
sS'E'
p2193
I9
sS'P'
p2194
I8
sS'JP'
p2195
I6
sS'M'
p2196
I11
sS'RP_tot'
p2197
I10
sS'TO'
p2198
I7
sS'PA'
p2199
I10
sS'A'
p2200
I10
sS'R'
p2201
I8
sS'TB'
p2202
I6
sS'PL'
p2203
I10
sS'TA'
p2204
I6
ssg104
(dp2205
S's13'
p2206
(ijoueur
joueur
p2207
(dp2208
g27
I0
sg28
I0
sg29
I0
sg33
I0
sg36
g37
(g38
g39
Ntp2209
Rp2210
(dp2211
g44
g32
sbsg48
(dp2212
S'SR'
p2213
I0
sS'ST'
p2214
I0
sS'CR'
p2215
I0
sS'CT'
p2216
I0
ssg54
g2182
sg57
g32
sg58
I0
sg60
I1
sg61
I0
sg62
I0
sg117
(S'dummy'
p2217
S'C1'
p2218
g32
g32
tp2219
sg65
I00
sg66
g37
(g38
g39
Ntp2220
Rp2221
(dp2222
g44
g32
sbsg67
g2184
sg69
I00
sg70
g2185
sg72
g2186
sg74
I0
sg75
I0
sg76
S'Varzz (13)'
p2223
sg78
I0
sg79
I0
sg86
I0
sg82
I0
sg63
S'MRT'
p2224
sg87
(dp2225
S'A'
p2226
I0
sS'ME'
p2227
I0
sS'RP2'
p2228
I0
sS'E'
p2229
I0
sS'TO'
p2230
I0
sS'RP1'
p2231
I0
sS'JP'
p2232
I0
sS'RP_tot'
p2233
I0
sS'P'
p2234
I0
sS'PA'
p2235
I0
sS'M'
p2236
I0
sS'R'
p2237
I0
sS'TB'
p2238
I0
sS'PL'
p2239
I0
sS'TA'
p2240
I0
ssg104
(dp2241
sg143
I0
sg144
g32
sg145
I0
sg146
I0
sg147
I0
sg148
F9.433333333333334
sg149
I0
sg80
g2188
sg150
I0
sg151
(dp2242
g2190
I8
sg2191
I6
sg2192
I9
sg2193
I9
sg2198
I7
sg2196
I11
sg2195
I6
sg2197
I10
sg2194
I8
sg2199
I10
sg2200
I10
sg2201
I8
sg2202
I6
sg2203
I10
sg2204
I6
ssg153
I0
sg154
I0
sg155
I0
sg156
I0
sg157
I0
sg158
I0
sg159
I0
sg160
g32
sbsS's12'
p2243
(ijoueur
joueur
p2244
(dp2245
g27
I0
sg28
I0
sg29
I0
sg33
I0
sg36
g37
(g38
g39
Ntp2246
Rp2247
(dp2248
g44
g32
sbsg48
(dp2249
g2178
I0
sg2179
I0
sg2180
I0
sg2181
I0
ssg54
(dp2250
g2178
I0
sg2179
I0
sg2180
I0
sg2181
I0
ssg57
g32
sg58
I0
sg60
I0
sg61
I0
sg62
I0
sg117
(g2217
S'CE'
p2251
g32
g32
tp2252
sg65
I00
sg66
g37
(g38
g39
Ntp2253
Rp2254
(dp2255
g44
g32
sbsg67
(dp2256
g2178
I0
sg2179
I0
sg2180
I0
sg2181
I0
ssg69
I00
sg70
(dp2257
g2178
I0
sg2179
I0
sg2180
I0
sg2181
I0
ssg72
(dp2258
g2178
I0
sg2179
I0
sg2180
I0
sg2181
I0
ssg74
I0
sg75
I0
sg76
S'Varzz (12)'
p2259
sg78
I0
sg79
I0
sg86
I0
sg82
I0
sg63
g2224
sg87
(dp2260
g2200
I0
sg2191
I0
sg2192
I0
sg2193
I0
sg2198
I0
sg2190
I0
sg2195
I0
sg2197
I0
sg2194
I0
sg2199
I0
sg2196
I0
sg2201
I0
sg2202
I0
sg2203
I0
sg2204
I0
ssg104
(dp2261
sg143
I0
sg144
g32
sg145
I0
sg146
I0
sg147
I0
sg148
F0.0
sg149
I0
sg80
(dp2262
g2178
I0
sg2179
I0
sg2180
I0
sg2181
I0
ssg150
I0
sg151
g2242
sg153
I0
sg154
I0
sg155
I0
sg156
I0
sg157
I0
sg158
I0
sg159
I0
sg160
g32
sbsS's11'
p2263
(ijoueur
joueur
p2264
(dp2265
g27
I0
sg28
I0
sg29
I0
sg33
I0
sg36
g37
(g38
g39
Ntp2266
Rp2267
(dp2268
g44
g32
sbsg48
(dp2269
g2178
I0
sg2179
I0
sg2180
I0
sg2181
I0
ssg54
(dp2270
g2178
I0
sg2179
I0
sg2180
I0
sg2181
I0
ssg57
g32
sg58
I0
sg60
I0
sg61
I0
sg62
I0
sg117
g2252
sg65
I00
sg66
g37
(g38
g39
Ntp2271
Rp2272
(dp2273
g44
g32
sbsg67
(dp2274
g2178
I0
sg2179
I0
sg2180
I0
sg2181
I0
ssg69
I00
sg70
(dp2275
g2178
I0
sg2179
I0
sg2180
I0
sg2181
I0
ssg72
(dp2276
g2178
I0
sg2179
I0
sg2180
I0
sg2181
I0
ssg74
I0
sg75
I0
sg76
S'Varzz (11)'
p2277
sg78
I0
sg79
I0
sg86
I0
sg82
I0
sg63
g2224
sg87
(dp2278
g2200
I0
sg2191
I0
sg2192
I0
sg2193
I0
sg2198
I0
sg2190
I0
sg2195
I0
sg2197
I0
sg2194
I0
sg2199
I0
sg2196
I0
sg2201
I0
sg2202
I0
sg2203
I0
sg2204
I0
ssg104
(dp2279
sg143
I0
sg144
g32
sg145
I0
sg146
I0
sg147
I0
sg148
F0.0
sg149
I0
sg80
(dp2280
g2178
I0
sg2179
I0
sg2180
I0
sg2181
I0
ssg150
I0
sg151
g2242
sg153
I0
sg154
I0
sg155
I0
sg156
I0
sg157
I0
sg158
I0
sg159
I0
sg160
g32
sbssg143
I0
sg144
g32
sg145
I0
sg147
I0
sg148
F9.433333333333334
sg149
I0
sg117
g2219
sg146
I0
sg150
I0
sg151
g2242
sg153
I0
sg154
I0
sg155
I0
sg156
I0
sg157
I6
sg158
I1
sg159
I0
sg160
S'ARA'
p2281
sbsS'n20'
p2282
(ijoueur
joueur
p2283
(dp2284
g202
F10.451612903225806
sg27
I0
sg203
F9.870967741935484
sg144
g32
sg29
I0
sg30
F38.56534098312248
sg33
I0
sg35
I2
sg36
g37
(g38
g39
Ntp2285
Rp2286
(dp2287
g43
I4
sg44
S'*'
p2288
sg46
S'heros'
p2289
sbsg48
(dp2290
S'SR'
p2291
I0
sS'ST'
p2292
I0
sS'CR'
p2293
I0
sS'CT'
p2294
I0
ssg54
(dp2295
g2291
I0
sg2292
I0
sg2293
I0
sg2294
I0
ssg215
I0
sg1168
I10
sg216
I0
sg58
I0
sg1683
I0
sg1684
I0
sg69
I00
sg60
I0
sg61
I0
sg62
I0
sg83
I0
sg65
I00
sg66
g37
(g38
g39
Ntp2296
Rp2297
(dp2298
g43
I4
sg44
g2288
sg46
g2289
sbsg67
(dp2299
S'SR'
p2300
I0
sS'CT'
p2301
I1
sS'CR'
p2302
I3
sS'ST'
p2303
I0
ssg80
(dp2304
g2300
I0
sg2301
I0
sg2302
I0
sg2303
I0
ssg70
(dp2305
g2300
I0
sg2301
I0
sg2302
I0
sg2303
I0
ssg72
(dp2306
g2291
I0
sg2292
I1
sg2293
I14
sg2294
I19
ssg74
I5
sg75
I1
sg76
S'Effleed'
p2307
sg78
I4
sg79
I0
sg86
I12
sg82
I157
sg63
g64
sg84
I00
sg87
(dp2308
S'A'
p2309
I10
sS'ME'
p2310
I5
sS'RP2'
p2311
I7
sS'E'
p2312
I10
sS'P'
p2313
I7
sS'RP1'
p2314
I7
sS'JP'
p2315
I9
sS'RP_tot'
p2316
I8
sS'TO'
p2317
I8
sS'PA'
p2318
I12
sS'M'
p2319
I11
sS'R'
p2320
I8
sS'TB'
p2321
I11
sS'PL'
p2322
I8
sS'TA'
p2323
I6
ssg104
(dp2324
S's13'
p2325
(ijoueur
joueur
p2326
(dp2327
g27
I0
sg28
I0
sg29
I0
sg33
I0
sg36
g37
(g38
g39
Ntp2328
Rp2329
(dp2330
g44
g32
sbsg48
(dp2331
S'SR'
p2332
I0
sS'CT'
p2333
I0
sS'CR'
p2334
I0
sS'ST'
p2335
I0
ssg54
g2295
sg57
g32
sg58
I0
sg60
I0
sg61
I0
sg62
I0
sg117
(S'dummy'
p2336
S'DM'
p2337
g32
g32
tp2338
sg65
I00
sg66
g37
(g38
g39
Ntp2339
Rp2340
(dp2341
g44
g32
sbsg67
g2299
sg69
I00
sg70
g2305
sg72
g2306
sg74
I0
sg75
I1
sg76
S'Effleed (13)'
p2342
sg78
I0
sg79
I0
sg86
I0
sg82
I0
sg63
S'KAK'
p2343
sg87
(dp2344
S'A'
p2345
I0
sS'ME'
p2346
I0
sS'RP2'
p2347
I0
sS'E'
p2348
I0
sS'P'
p2349
I0
sS'RP1'
p2350
I0
sS'JP'
p2351
I0
sS'RP_tot'
p2352
I0
sS'TO'
p2353
I0
sS'PA'
p2354
I0
sS'M'
p2355
I0
sS'R'
p2356
I0
sS'TB'
p2357
I0
sS'PL'
p2358
I0
sS'TA'
p2359
I0
ssg104
(dp2360
sg143
I0
sg144
g32
sg145
I0
sg146
I0
sg147
I0
sg148
F9.709677419354838
sg149
I0
sg80
g2304
sg150
I0
sg151
(dp2361
g2309
I10
sg2310
I5
sg2311
I7
sg2312
I10
sg2317
I8
sg2314
I7
sg2315
I9
sg2316
I8
sg2313
I7
sg2318
I12
sg2319
I11
sg2320
I8
sg2321
I11
sg2322
I8
sg2323
I6
ssg153
I0
sg154
I0
sg155
I0
sg156
I0
sg157
I0
sg158
I0
sg159
I0
sg160
g32
sbsS's12'
p2362
(ijoueur
joueur
p2363
(dp2364
g202
F10.451612903225806
sg27
I0
sg144
g32
sg29
I0
sg33
I0
sg36
g37
(g38
g39
Ntp2365
Rp2366
(dp2367
g43
I4
sg44
S'*'
p2368
sg46
S'heros'
p2369
sbsg48
(dp2370
S'SR'
p2371
I0
sS'ST'
p2372
I0
sS'CR'
p2373
I0
sS'CT'
p2374
I0
ssg54
(dp2375
g2371
I0
sg2372
I0
sg2373
I0
sg2374
I0
ssg216
I0
sg148
F9.870967741935484
sg58
I0
sg1683
I0
sg1684
I0
sg60
I0
sg61
I0
sg62
I0
sg117
(S'dummy'
p2376
S'DM'
p2377
g32
g32
tp2378
sg65
I00
sg66
g37
(g38
g39
Ntp2379
Rp2380
(dp2381
g43
I4
sg44
g2368
sg46
g2369
sbsg67
(dp2382
S'SR'
p2383
I0
sS'ST'
p2384
I0
sS'CR'
p2385
I11
sS'CT'
p2386
I3
ssg69
I00
sg70
(dp2387
g2383
I0
sg2384
I0
sg2385
I0
sg2386
I0
ssg72
(dp2388
g2371
I0
sg2372
I1
sg2373
I11
sg2374
I18
ssg74
I4
sg75
I4
sg76
S'Effleed (12)'
p2389
sg78
I4
sg79
I0
sg86
I12
sg82
I100
sg63
S'KAK'
p2390
sg87
(dp2391
S'A'
p2392
I10
sS'ME'
p2393
I5
sS'RP2'
p2394
I7
sS'E'
p2395
I10
sS'TO'
p2396
I8
sS'RP1'
p2397
I7
sS'JP'
p2398
I9
sS'RP_tot'
p2399
I8
sS'P'
p2400
I7
sS'PA'
p2401
I13
sS'M'
p2402
I11
sS'R'
p2403
I8
sS'TB'
p2404
I12
sS'PL'
p2405
I8
sS'TA'
p2406
I6
ssg104
(dp2407
S's11'
p2408
(ijoueur
joueur
p2409
(dp2410
g27
I0
sg29
I0
sg33
I0
sg36
g37
(g38
g39
Ntp2411
Rp2412
(dp2413
g43
I4
sg44
S'*'
p2414
sg46
S'heros'
p2415
sbsg48
(dp2416
S'SR'
p2417
I0
sS'ST'
p2418
I0
sS'CR'
p2419
I0
sS'CT'
p2420
I0
ssg54
(dp2421
g2417
I0
sg2418
I0
sg2419
I0
sg2420
I0
ssg80
(dp2422
g2417
I0
sg2418
I0
sg2419
I0
sg2420
I0
ssg216
I0
sg58
I0
sg1683
I0
sg1684
I0
sg60
I1
sg61
I0
sg62
I0
sg117
(S'dummy'
p2423
S'DM'
p2424
g32
g32
tp2425
sg65
I00
sg66
g37
(g38
g39
Ntp2426
Rp2427
(dp2428
g43
I4
sg44
g2414
sg46
g2415
sbsg67
(dp2429
g2417
I0
sg2418
I1
sg2419
I0
sg2420
I15
ssg69
I00
sg70
(dp2430
g2417
I0
sg2418
I0
sg2419
I0
sg2420
I0
ssg72
(dp2431
g2417
I0
sg2418
I1
sg2419
I0
sg2420
I15
ssg74
I0
sg75
I0
sg76
S'Effleed'
p2432
sg78
I4
sg79
I0
sg86
I12
sg82
I100
sg63
S'KAK'
p2433
sg87
(dp2434
S'A'
p2435
I11
sS'ME'
p2436
I5
sS'RP2'
p2437
I7
sS'E'
p2438
I12
sS'TO'
p2439
I8
sS'RP1'
p2440
I7
sS'JP'
p2441
I9
sS'RP_tot'
p2442
I7
sS'P'
p2443
I8
sS'PA'
p2444
I14
sS'M'
p2445
I11
sS'R'
p2446
I8
sS'TB'
p2447
I11
sS'PL'
p2448
I8
sS'TA'
p2449
I6
ssg143
I0
sg28
I0
sg145
I0
sg147
I0
sg148
F10.451612903225806
sg149
I0
sg1843
I0
sg146
I0
sg150
I1
sg367
(dp2450
S'A'
p2451
I11
sS'ME'
p2452
I5
sS'RP2'
p2453
I7
sS'E'
p2454
I12
sS'TO'
p2455
I8
sS'RP1'
p2456
I7
sS'JP'
p2457
I9
sS'RP_tot'
p2458
I7
sS'P'
p2459
I8
sS'PA'
p2460
I14
sS'M'
p2461
I11
sS'R'
p2462
I8
sS'TB'
p2463
I11
sS'PL'
p2464
I8
sS'TA'
p2465
I6
ssg151
g2434
sg153
I0
sg57
S'APA 10'
p2466
sg154
I0
sg155
I0
sg156
I0
sg157
I10
sg158
I2
sg159
I1
sg160
S'HE'
p2467
sbssg143
I0
sg28
I0
sg145
I0
sg147
I0
sg80
(dp2468
g2383
I0
sg2384
I0
sg2385
I0
sg2386
I0
ssg149
I0
sg1843
I0
sg146
I0
sg150
I1
sg367
(dp2469
S'A'
p2470
I11
sS'ME'
p2471
I5
sS'RP2'
p2472
I7
sS'E'
p2473
I12
sS'TO'
p2474
I8
sS'RP1'
p2475
I7
sS'JP'
p2476
I9
sS'RP_tot'
p2477
I7
sS'P'
p2478
I8
sS'PA'
p2479
I14
sS'M'
p2480
I11
sS'R'
p2481
I8
sS'TB'
p2482
I11
sS'PL'
p2483
I8
sS'TA'
p2484
I6
ssg151
g2391
sg153
I0
sg57
S'APA 10'
p2485
sg154
I0
sg155
I0
sg156
I0
sg157
I10
sg158
I2
sg159
I0
sg160
S'HE'
p2486
sbsS's11'
p2487
(ijoueur
joueur
p2488
(dp2489
g27
I0
sg29
I0
sg33
I0
sg36
g37
(g38
g39
Ntp2490
Rp2491
(dp2492
g43
I4
sg44
S'*'
p2493
sg46
S'heros'
p2494
sbsg48
(dp2495
S'SR'
p2496
I0
sS'ST'
p2497
I0
sS'CR'
p2498
I0
sS'CT'
p2499
I0
ssg54
(dp2500
g2496
I0
sg2497
I0
sg2498
I0
sg2499
I0
ssg80
(dp2501
g2496
I0
sg2497
I0
sg2498
I0
sg2499
I0
ssg216
I0
sg58
I0
sg1683
I0
sg1684
I0
sg60
I1
sg61
I0
sg62
I0
sg117
(S'dummy'
p2502
S'DM'
p2503
g32
g32
tp2504
sg65
I00
sg66
g37
(g38
g39
Ntp2505
Rp2506
(dp2507
g43
I4
sg44
g2493
sg46
g2494
sbsg67
(dp2508
g2496
I0
sg2497
I1
sg2498
I0
sg2499
I15
ssg69
I00
sg70
(dp2509
g2496
I0
sg2497
I0
sg2498
I0
sg2499
I0
ssg72
(dp2510
g2496
I0
sg2497
I1
sg2498
I0
sg2499
I15
ssg74
I0
sg75
I0
sg76
S'Effleed (11)'
p2511
sg78
I4
sg79
I0
sg86
I12
sg82
I100
sg63
S'KAK'
p2512
sg87
(dp2513
S'A'
p2514
I11
sS'ME'
p2515
I5
sS'RP2'
p2516
I7
sS'E'
p2517
I12
sS'TO'
p2518
I8
sS'RP1'
p2519
I7
sS'JP'
p2520
I9
sS'RP_tot'
p2521
I8
sS'P'
p2522
I8
sS'PA'
p2523
I14
sS'M'
p2524
I11
sS'R'
p2525
I8
sS'TB'
p2526
I11
sS'PL'
p2527
I8
sS'TA'
p2528
I6
ssg143
I0
sg28
I0
sg145
I0
sg147
I0
sg148
F10.451612903225806
sg149
I0
sg1843
I0
sg146
I0
sg150
I1
sg367
(dp2529
S'A'
p2530
I11
sS'ME'
p2531
I5
sS'RP2'
p2532
I7
sS'E'
p2533
I12
sS'TO'
p2534
I8
sS'RP1'
p2535
I7
sS'JP'
p2536
I9
sS'RP_tot'
p2537
I7
sS'P'
p2538
I8
sS'PA'
p2539
I14
sS'M'
p2540
I11
sS'R'
p2541
I8
sS'TB'
p2542
I11
sS'PL'
p2543
I8
sS'TA'
p2544
I6
ssg151
g2513
sg153
I0
sg57
S'APA 10'
p2545
sg154
I0
sg155
I0
sg156
I0
sg157
I10
sg158
I2
sg159
I1
sg160
S'HE'
p2546
sbssg143
I0
sg28
I0
sg145
I0
sg147
I0
sg148
F9.709677419354838
sg149
I0
sg117
g2338
sg59
F38.56534098312248
sg1843
I0
sg146
I0
sg150
I1
sg367
(dp2547
S'A'
p2548
I11
sS'ME'
p2549
I5
sS'RP2'
p2550
I7
sS'E'
p2551
I12
sS'TO'
p2552
I8
sS'RP1'
p2553
I7
sS'JP'
p2554
I9
sS'RP_tot'
p2555
I7
sS'P'
p2556
I8
sS'PA'
p2557
I14
sS'M'
p2558
I11
sS'R'
p2559
I8
sS'TB'
p2560
I11
sS'PL'
p2561
I8
sS'TA'
p2562
I6
ssg151
g2361
sg153
I0
sg480
(dp2563
sg154
I0
sg57
S'APA 10;KAK 14'
p2564
sg155
I0
sg156
I0
sg157
I8
sg158
I2
sg159
I0
sg160
S'HE'
p2565
sbsS'n8'
p2566
g1155
sS'n9'
p2567
(ijoueur
joueur
p2568
(dp2569
g27
I0
sg203
F9.517241379310345
sg144
g32
sg29
I0
sg30
F136.6518407313099
sg31
g32
sg33
I0
sg34
g32
sg35
I0
sg36
g37
(g38
g39
Ntp2570
Rp2571
(dp2572
g43
I4
sg44
S'*'
p2573
sg46
S'heros'
p2574
sbsg48
(dp2575
S'SR'
p2576
I0
sS'CT'
p2577
I1
sS'CR'
p2578
I2
sS'ST'
p2579
I0
ssg54
(dp2580
g2576
I0
sg2577
I0
sg2578
I0
sg2579
I0
ssg215
I0
sg56
I10
sg57
S'vide 13'
p2581
sg58
I0
sg59
F136.6518407313099
sg60
I1
sg61
I0
sg62
I0
sg63
g64
sg65
I00
sg66
g2571
sg67
(dp2582
g580
I0
sg581
I0
sg582
I4
sg583
I8
ssg80
(dp2583
g580
I0
sg581
I0
sg582
I2
sg583
I1
ssg70
(dp2584
g580
I0
sg581
I0
sg582
I0
sg583
I0
ssg72
(dp2585
g2576
I0
sg2577
I8
sg2578
I4
sg2579
I6
ssg74
I0
sg75
I0
sg76
S'Berh Lamir'
p2586
sg78
I12
sg79
I0
sg69
I00
sg82
I124
sg83
I2
sg84
I00
sg85
g32
sg86
I21
sg87
(dp2587
S'RP1'
p2588
I8
sS'ME'
p2589
I4
sS'RP2'
p2590
I9
sS'E'
p2591
I10
sS'TO'
p2592
I7
sS'M'
p2593
I9
sS'JP'
p2594
I7
sS'RP_tot'
p2595
I10
sS'P'
p2596
I9
sS'PA'
p2597
I13
sS'A'
p2598
I8
sS'R'
p2599
I9
sS'TB'
p2600
I7
sS'PL'
p2601
I9
sS'TA'
p2602
I6
ssg104
(dp2603
S's13'
p2604
(ijoueur
joueur
p2605
(dp2606
g27
I0
sg28
I0
sg29
I0
sg33
I0
sg36
g37
(g38
g39
Ntp2607
Rp2608
(dp2609
g44
g32
sbsg48
(dp2610
g113
I0
sg114
I0
sg115
I0
sg116
I0
ssg54
g2580
sg57
g32
sg58
I0
sg60
I1
sg61
I0
sg62
I0
sg117
(S'dummy'
p2611
S'DM'
p2612
S'DO'
p2613
S'CE'
p2614
tp2615
sg65
I00
sg66
g37
(g38
g39
Ntp2616
Rp2617
(dp2618
g44
g32
sbsg67
g2582
sg69
I00
sg70
g2584
sg72
g2585
sg74
I0
sg75
I0
sg76
S'Berh Lamir (13)'
p2619
sg78
I0
sg79
I0
sg86
I0
sg82
I0
sg63
g64
sg87
(dp2620
g127
I0
sg128
I0
sg129
I0
sg130
I0
sg131
I0
sg132
I0
sg133
I0
sg134
I0
sg135
I0
sg136
I0
sg137
I0
sg138
I0
sg139
I0
sg140
I0
sg141
I0
ssg104
(dp2621
sg143
I0
sg144
g32
sg145
I0
sg146
I0
sg147
I0
sg148
F9.758620689655173
sg149
I0
sg80
g2583
sg150
I0
sg151
(dp2622
g2588
I8
sg2589
I4
sg2590
I9
sg2591
I10
sg2596
I9
sg2594
I7
sg2593
I9
sg2595
I10
sg2592
I7
sg2597
I13
sg2598
I8
sg2599
I9
sg2600
I7
sg2601
I9
sg2602
I6
ssg153
I0
sg154
I0
sg155
I0
sg156
I0
sg157
I0
sg158
I0
sg159
I0
sg160
g32
sbsg623
(ijoueur
joueur
p2623
(dp2624
g27
I0
sg144
g32
sg29
I0
sg31
g32
sg33
I0
sg34
g32
sg36
g37
(g38
g39
Ntp2625
Rp2626
(dp2627
g43
I4
sg44
S'*'
p2628
sg46
S'heros'
p2629
sbsg48
(dp2630
S'SR'
p2631
I0
sS'CT'
p2632
I0
sS'CR'
p2633
I0
sS'ST'
p2634
I0
ssg54
(dp2635
g2631
I0
sg2632
I0
sg2633
I0
sg2634
I0
ssg57
g32
sg58
I0
sg69
I00
sg60
I0
sg61
I0
sg62
I0
sg63
g637
sg65
I00
sg66
g37
(g38
g39
Ntp2636
Rp2637
(dp2638
g43
I3
sg44
S'^^^'
p2639
sg46
S'rare'
p2640
sbsg67
(dp2641
g2631
I0
sg2632
I0
sg2633
I0
sg2634
I6
ssg80
(dp2642
g2631
I0
sg2632
I0
sg2633
I0
sg2634
I0
ssg70
(dp2643
g2631
I0
sg2632
I0
sg2633
I0
sg2634
I0
ssg72
(dp2644
g2631
I0
sg2632
I0
sg2633
I0
sg2634
I6
ssg74
I0
sg75
I0
sg76
S'Berh Lamir (12)'
p2645
sg78
I12
sg79
I0
sg86
I21
sg82
I54
sg117
(S'dummy'
p2646
S'DM'
p2647
S'DO'
p2648
S'CE'
p2649
tp2650
sg85
g32
sg87
(dp2651
S'RP1'
p2652
I7
sS'ME'
p2653
I3
sS'RP2'
p2654
I9
sS'E'
p2655
I10
sS'P'
p2656
I9
sS'JP'
p2657
I7
sS'M'
p2658
I8
sS'RP_tot'
p2659
I9
sS'TO'
p2660
I7
sS'PA'
p2661
I13
sS'A'
p2662
I9
sS'R'
p2663
I8
sS'TB'
p2664
I8
sS'PL'
p2665
I8
sS'TA'
p2666
I5
ssg104
(dp2667
sg143
I4
sg28
I0
sg145
I0
sg147
I0
sg148
F9.517241379310345
sg149
I0
sg146
I0
sg150
I0
sg151
g2651
sg153
I0
sg154
I0
sg155
I0
sg156
I0
sg157
I5
sg158
I0
sg159
I0
sg160
S'ARA'
p2668
sbssg143
I0
sg28
I0
sg145
I0
sg147
I0
sg148
F9.758620689655173
sg149
I0
sg117
g2615
sg146
I0
sg150
I0
sg151
g2622
sg153
I0
sg480
(dp2669
sg154
I0
sg155
I0
sg156
I0
sg157
I12
sg158
I1
sg159
I0
sg160
S'ARA'
p2670
sbsS'n1'
p2671
(ijoueur
joueur
p2672
(dp2673
g202
F10.333333333333334
sg27
I0
sg203
F10.296296296296296
sg144
g32
sg29
I0
sg30
F156.17049174460226
sg33
I0
sg35
I0
sg36
g37
(g38
g39
Ntp2674
Rp2675
(dp2676
g43
I5
sg44
S'**'
p2677
sg46
S'seigneur'
p2678
sbsg48
(dp2679
S'SR'
p2680
I0
sS'CT'
p2681
I0
sS'CR'
p2682
I0
sS'ST'
p2683
I0
ssg54
(dp2684
g2680
I0
sg2681
I0
sg2682
I0
sg2683
I0
ssg215
I0
sg56
I10
sg216
I0
sg58
I0
sg1683
I0
sg1684
I0
sg60
I0
sg61
I0
sg62
I0
sg83
I1
sg65
I00
sg66
g37
(g38
g39
Ntp2685
Rp2686
(dp2687
g43
I5
sg44
S'**'
p2688
sg46
g2678
sbsg67
(dp2689
S'SR'
p2690
I0
sS'ST'
p2691
I0
sS'CR'
p2692
I8
sS'CT'
p2693
I7
ssg80
(dp2694
g2690
I0
sg2691
I0
sg2692
I0
sg2693
I0
ssg70
(dp2695
g2690
I0
sg2691
I0
sg2692
I0
sg2693
I0
ssg72
(dp2696
g2680
I0
sg2681
I31
sg2682
I11
sg2683
I0
ssg74
I0
sg75
I0
sg76
S"Haald'Ap"
p2697
sg78
I8
sg79
I0
sg69
I00
sg82
I812
sg63
g64
sg84
I00
sg86
I20
sg87
(dp2698
S'A'
p2699
I6
sS'ME'
p2700
I10
sS'RP2'
p2701
I8
sS'E'
p2702
I8
sS'TO'
p2703
I5
sS'RP1'
p2704
I15
sS'JP'
p2705
I5
sS'RP_tot'
p2706
I16
sS'P'
p2707
I6
sS'PA'
p2708
I6
sS'M'
p2709
I6
sS'R'
p2710
I13
sS'TB'
p2711
I3
sS'PL'
p2712
I6
sS'TA'
p2713
I7
ssg104
(dp2714
S's13'
p2715
(ijoueur
joueur
p2716
(dp2717
g27
I0
sg28
I0
sg29
I0
sg33
I0
sg36
g37
(g38
g39
Ntp2718
Rp2719
(dp2720
g44
g32
sbsg48
(dp2721
S'SR'
p2722
I0
sS'ST'
p2723
I0
sS'CR'
p2724
I0
sS'CT'
p2725
I0
ssg54
g2684
sg86
I0
sg57
g32
sg58
I0
sg60
I0
sg61
I0
sg62
I0
sg117
(S'dummy'
p2726
S'PI'
p2727
g32
g32
tp2728
sg65
I00
sg66
g37
(g38
g39
Ntp2729
Rp2730
(dp2731
g44
g32
sbsg67
g2689
sg80
g2694
sg70
g2695
sg72
g2696
sg74
I0
sg75
I0
sg76
S"Haald'Ap (13)"
p2732
sg78
I0
sg79
I0
sg69
I00
sg82
I0
sg63
S'ALT'
p2733
sg87
(dp2734
S'A'
p2735
I0
sS'ME'
p2736
I0
sS'RP2'
p2737
I0
sS'E'
p2738
I0
sS'TO'
p2739
I0
sS'RP1'
p2740
I0
sS'JP'
p2741
I0
sS'RP_tot'
p2742
I0
sS'P'
p2743
I0
sS'PA'
p2744
I0
sS'M'
p2745
I0
sS'R'
p2746
I0
sS'TB'
p2747
I0
sS'PL'
p2748
I0
sS'TA'
p2749
I0
ssg104
(dp2750
sg143
I0
sg144
g32
sg145
I0
sg147
I0
sg148
F10.074074074074074
sg149
I0
sg146
I0
sg150
I0
sg151
(dp2751
g2699
I6
sg2700
I10
sg2701
I8
sg2702
I8
sg2707
I6
sg2704
I15
sg2705
I5
sg2706
I16
sg2703
I5
sg2708
I6
sg2709
I6
sg2710
I13
sg2711
I3
sg2712
I6
sg2713
I7
ssg153
I0
sg154
I0
sg155
I0
sg156
I0
sg157
I0
sg158
I0
sg159
I0
sg160
g32
sbsS's12'
p2752
(ijoueur
joueur
p2753
(dp2754
g202
F10.333333333333334
sg27
I0
sg144
g32
sg29
I0
sg33
I0
sg36
g37
(g38
g39
Ntp2755
Rp2756
(dp2757
g43
I5
sg44
S'**'
p2758
sg46
S'seigneur'
p2759
sbsg48
(dp2760
S'SR'
p2761
I0
sS'CT'
p2762
I0
sS'CR'
p2763
I0
sS'ST'
p2764
I0
ssg54
(dp2765
g2761
I0
sg2762
I0
sg2763
I0
sg2764
I0
ssg216
I0
sg58
I0
sg1683
I0
sg1684
I0
sg69
I00
sg60
I4
sg61
I0
sg62
I0
sg117
(S'dummy'
p2766
S'PI'
p2767
g32
g32
tp2768
sg65
I00
sg66
g37
(g38
g39
Ntp2769
Rp2770
(dp2771
g43
I5
sg44
S'**'
p2772
sg46
g2759
sbsg67
(dp2773
S'SR'
p2774
I0
sS'CT'
p2775
I11
sS'CR'
p2776
I2
sS'ST'
p2777
I0
ssg80
(dp2778
g2774
I0
sg2775
I0
sg2776
I0
sg2777
I0
ssg70
(dp2779
g2774
I0
sg2775
I0
sg2776
I0
sg2777
I0
ssg72
(dp2780
g2761
I0
sg2762
I24
sg2763
I3
sg2764
I0
ssg74
I0
sg75
I0
sg76
S"Haald'Ap (12)"
p2781
sg78
I8
sg79
I0
sg86
I20
sg82
I380
sg63
S'ALT'
p2782
sg87
(dp2783
S'A'
p2784
I7
sS'ME'
p2785
I10
sS'RP2'
p2786
I8
sS'E'
p2787
I8
sS'P'
p2788
I6
sS'RP1'
p2789
I15
sS'JP'
p2790
I5
sS'RP_tot'
p2791
I16
sS'TO'
p2792
I5
sS'PA'
p2793
I6
sS'M'
p2794
I6
sS'R'
p2795
I13
sS'TB'
p2796
I3
sS'PL'
p2797
I7
sS'TA'
p2798
I7
ssg104
(dp2799
S's11'
p2800
(ijoueur
joueur
p2801
(dp2802
g27
I0
sg29
I0
sg33
I0
sg36
g37
(g38
g39
Ntp2803
Rp2804
(dp2805
g43
I5
sg44
S'**'
p2806
sg46
S'seigneur'
p2807
sbsg48
(dp2808
S'SR'
p2809
I0
sS'CT'
p2810
I0
sS'CR'
p2811
I0
sS'ST'
p2812
I0
ssg54
(dp2813
g2809
I0
sg2810
I0
sg2811
I0
sg2812
I0
ssg80
(dp2814
g2809
I0
sg2810
I0
sg2811
I0
sg2812
I0
ssg216
I0
sg58
I0
sg1683
I0
sg1684
I0
sg60
I2
sg61
I0
sg62
I0
sg117
(S'dummy'
p2815
S'PI'
p2816
g32
g32
tp2817
sg65
I00
sg66
g37
(g38
g39
Ntp2818
Rp2819
(dp2820
g43
I5
sg44
S'**'
p2821
sg46
g2807
sbsg67
(dp2822
g2809
I0
sg2810
I13
sg2811
I1
sg2812
I0
ssg69
I00
sg70
(dp2823
g2809
I0
sg2810
I0
sg2811
I0
sg2812
I0
ssg72
(dp2824
g2809
I0
sg2810
I13
sg2811
I1
sg2812
I0
ssg74
I0
sg75
I0
sg76
S"Haald'Ap"
p2825
sg78
I8
sg79
I0
sg86
I20
sg82
I380
sg63
S'ALT'
p2826
sg87
(dp2827
S'A'
p2828
I8
sS'ME'
p2829
I9
sS'RP2'
p2830
I8
sS'E'
p2831
I8
sS'P'
p2832
I6
sS'RP1'
p2833
I15
sS'JP'
p2834
I5
sS'RP_tot'
p2835
I16
sS'TO'
p2836
I5
sS'PA'
p2837
I6
sS'M'
p2838
I6
sS'R'
p2839
I13
sS'TB'
p2840
I3
sS'PL'
p2841
I8
sS'TA'
p2842
I7
ssg143
I0
sg28
I0
sg145
I0
sg147
I0
sg148
F10.333333333333334
sg149
I0
sg1843
I0
sg146
I0
sg150
I0
sg367
(dp2843
S'A'
p2844
I8
sS'ME'
p2845
I9
sS'RP2'
p2846
I8
sS'E'
p2847
I8
sS'P'
p2848
I6
sS'RP1'
p2849
I15
sS'JP'
p2850
I5
sS'RP_tot'
p2851
I16
sS'TO'
p2852
I5
sS'PA'
p2853
I6
sS'M'
p2854
I6
sS'R'
p2855
I13
sS'TB'
p2856
I3
sS'PL'
p2857
I8
sS'TA'
p2858
I7
ssg151
g2827
sg153
I0
sg57
g32
sg154
I0
sg155
I0
sg156
I0
sg157
I36
sg158
I11
sg159
I0
sg160
S'HL'
p2859
sbssg143
I0
sg28
I0
sg145
I0
sg147
I0
sg148
F10.296296296296296
sg149
I0
sg1843
I0
sg146
I0
sg150
I0
sg367
(dp2860
S'A'
p2861
I8
sS'ME'
p2862
I9
sS'RP2'
p2863
I8
sS'E'
p2864
I8
sS'TO'
p2865
I5
sS'RP1'
p2866
I15
sS'JP'
p2867
I5
sS'RP_tot'
p2868
I16
sS'P'
p2869
I6
sS'PA'
p2870
I6
sS'M'
p2871
I6
sS'R'
p2872
I13
sS'TB'
p2873
I3
sS'PL'
p2874
I8
sS'TA'
p2875
I7
ssg151
g2783
sg153
I0
sg57
g32
sg154
I0
sg155
I0
sg156
I0
sg157
I36
sg158
I15
sg159
I0
sg160
S'HL'
p2876
sbsS's11'
p2877
(ijoueur
joueur
p2878
(dp2879
g27
I0
sg29
I0
sg33
I0
sg36
g37
(g38
g39
Ntp2880
Rp2881
(dp2882
g43
I5
sg44
S'**'
p2883
sg46
S'seigneur'
p2884
sbsg48
(dp2885
S'SR'
p2886
I0
sS'CT'
p2887
I0
sS'CR'
p2888
I0
sS'ST'
p2889
I0
ssg54
(dp2890
g2886
I0
sg2887
I0
sg2888
I0
sg2889
I0
ssg80
(dp2891
g2886
I0
sg2887
I0
sg2888
I0
sg2889
I0
ssg216
I0
sg58
I0
sg1683
I0
sg1684
I0
sg60
I2
sg61
I0
sg62
I0
sg117
(S'dummy'
p2892
S'PI'
p2893
g32
g32
tp2894
sg65
I00
sg66
g37
(g38
g39
Ntp2895
Rp2896
(dp2897
g43
I5
sg44
S'**'
p2898
sg46
g2884
sbsg67
(dp2899
g2886
I0
sg2887
I13
sg2888
I1
sg2889
I0
ssg69
I00
sg70
(dp2900
g2886
I0
sg2887
I0
sg2888
I0
sg2889
I0
ssg72
(dp2901
g2886
I0
sg2887
I13
sg2888
I1
sg2889
I0
ssg74
I0
sg75
I0
sg76
S"Haald'Ap (11)"
p2902
sg78
I8
sg79
I0
sg86
I20
sg82
I380
sg63
S'ALT'
p2903
sg87
(dp2904
S'A'
p2905
I8
sS'ME'
p2906
I9
sS'RP2'
p2907
I8
sS'E'
p2908
I8
sS'P'
p2909
I6
sS'RP1'
p2910
I15
sS'JP'
p2911
I5
sS'RP_tot'
p2912
I16
sS'TO'
p2913
I5
sS'PA'
p2914
I6
sS'M'
p2915
I6
sS'R'
p2916
I13
sS'TB'
p2917
I3
sS'PL'
p2918
I8
sS'TA'
p2919
I7
ssg143
I0
sg28
I0
sg145
I0
sg147
I0
sg148
F10.333333333333334
sg149
I0
sg1843
I0
sg146
I0
sg150
I0
sg367
(dp2920
S'A'
p2921
I8
sS'ME'
p2922
I9
sS'RP2'
p2923
I8
sS'E'
p2924
I8
sS'P'
p2925
I6
sS'RP1'
p2926
I15
sS'JP'
p2927
I5
sS'RP_tot'
p2928
I16
sS'TO'
p2929
I5
sS'PA'
p2930
I6
sS'M'
p2931
I6
sS'R'
p2932
I13
sS'TB'
p2933
I3
sS'PL'
p2934
I8
sS'TA'
p2935
I7
ssg151
g2904
sg153
I0
sg57
g32
sg154
I0
sg155
I0
sg156
I0
sg157
I36
sg158
I11
sg159
I0
sg160
S'HL'
p2936
sbssg143
I0
sg28
I0
sg145
I0
sg147
I0
sg148
F10.074074074074074
sg149
I0
sg117
g2728
sg59
F156.17049174460226
sg1843
I0
sg146
I0
sg150
I0
sg367
(dp2937
S'A'
p2938
I8
sS'ME'
p2939
I9
sS'RP2'
p2940
I8
sS'E'
p2941
I8
sS'TO'
p2942
I5
sS'RP1'
p2943
I15
sS'JP'
p2944
I5
sS'RP_tot'
p2945
I16
sS'P'
p2946
I6
sS'PA'
p2947
I6
sS'M'
p2948
I6
sS'R'
p2949
I13
sS'TB'
p2950
I3
sS'PL'
p2951
I8
sS'TA'
p2952
I7
ssg151
g2751
sg153
I0
sg480
(dp2953
sg154
I0
sg57
S'ALT 14'
p2954
sg155
I0
sg156
I0
sg157
I15
sg158
I15
sg159
I0
sg160
S'HL'
p2955
sbsS'n2'
p2956
(ijoueur
joueur
p2957
(dp2958
g27
I0
sg28
I0
sg29
I0
sg30
F124.8140418875047
sg31
g32
sg33
I0
sg34
g32
sg35
I0
sg36
g37
(g38
g39
Ntp2959
Rp2960
(dp2961
g43
I2
sg44
S'<<'
p2962
sg46
S'special'
p2963
sbsg48
(dp2964
S'SR'
p2965
I0
sS'ST'
p2966
I0
sS'CR'
p2967
I1
sS'CT'
p2968
I2
ssg54
(dp2969
g2965
I0
sg2966
I0
sg2967
I0
sg2968
I0
ssg56
I10
sg57
S'AES 14'
p2970
sg58
I0
sg59
F124.8140418875047
sg60
I1
sg61
I0
sg62
I0
sg63
g64
sg65
I00
sg66
g2960
sg67
(dp2971
g2965
I0
sg2966
I0
sg2967
I6
sg2968
I5
ssg69
I00
sg70
(dp2972
g2965
I0
sg2966
I0
sg2967
I0
sg2968
I0
ssg72
(dp2973
g2965
I0
sg2966
I0
sg2967
I6
sg2968
I5
ssg74
I0
sg75
I0
sg76
S'Vaceer'
p2974
sg78
I5
sg79
I0
sg80
(dp2975
g2965
I0
sg2966
I0
sg2967
I1
sg2968
I2
ssg82
I50
sg83
I1
sg84
I00
sg85
g32
sg86
I16
sg87
(dp2976
S'RP1'
p2977
I8
sS'ME'
p2978
I10
sS'RP2'
p2979
I6
sS'E'
p2980
I8
sS'P'
p2981
I4
sS'JP'
p2982
I3
sS'M'
p2983
I8
sS'RP_tot'
p2984
I8
sS'TO'
p2985
I8
sS'PA'
p2986
I8
sS'A'
p2987
I9
sS'R'
p2988
I10
sS'TB'
p2989
I4
sS'PL'
p2990
I11
sS'TA'
p2991
I9
ssg104
(dp2992
S's13'
p2993
(ijoueur
joueur
p2994
(dp2995
g27
I0
sg28
I0
sg29
I0
sg33
I0
sg36
g37
(g38
g39
Ntp2996
Rp2997
(dp2998
g44
g32
sbsg48
(dp2999
S'SR'
p3000
I0
sS'ST'
p3001
I0
sS'CR'
p3002
I0
sS'CT'
p3003
I0
ssg54
g2969
sg86
I0
sg57
g32
sg58
I0
sg60
I1
sg61
I0
sg62
I0
sg117
(S'dummy'
p3004
g2991
S'PI'
p3005
g32
tp3006
sg65
I00
sg66
g37
(g38
g39
Ntp3007
Rp3008
(dp3009
g44
g32
sbsg67
g2971
sg80
g2975
sg70
g2972
sg72
g2973
sg74
I0
sg75
I0
sg76
S'Vaceer (13)'
p3010
sg78
I0
sg79
I0
sg69
I00
sg82
I0
sg63
S'AES'
p3011
sg87
(dp3012
S'A'
p3013
I0
sS'ME'
p3014
I0
sS'RP2'
p3015
I0
sS'E'
p3016
I0
sS'TO'
p3017
I0
sS'RP1'
p3018
I0
sS'JP'
p3019
I0
sS'RP_tot'
p3020
I0
sS'P'
p3021
I0
sS'PA'
p3022
I0
sS'M'
p3023
I0
sS'R'
p3024
I0
sS'TB'
p3025
I0
sS'PL'
p3026
I0
sS'TA'
p3027
I0
ssg104
(dp3028
sg143
I0
sg144
g32
sg145
I0
sg147
I0
sg148
F9.241379310344827
sg149
I0
sg146
I0
sg150
I0
sg151
(dp3029
g2977
I8
sg2978
I10
sg2979
I6
sg2980
I8
sg2985
I8
sg2983
I8
sg2982
I3
sg2984
I8
sg2981
I4
sg2986
I8
sg2987
I9
sg2988
I10
sg2989
I4
sg2990
I11
sg2991
I9
ssg153
I0
sg154
I0
sg155
I0
sg156
I0
sg157
I0
sg158
I0
sg159
I0
sg160
g32
sbsS's12'
p3030
(ijoueur
joueur
p3031
(dp3032
g27
I0
sg28
I0
sg29
I0
sg33
I0
sg36
g37
(g38
g39
Ntp3033
Rp3034
(dp3035
g44
g32
sbsg48
(dp3036
g2965
I0
sg2966
I0
sg2967
I0
sg2968
I0
ssg54
(dp3037
g2965
I0
sg2966
I0
sg2967
I0
sg2968
I0
ssg86
I0
sg57
g32
sg58
I0
sg60
I0
sg61
I0
sg62
I0
sg117
(g3004
g2991
g32
g32
tp3038
sg65
I00
sg66
g37
(g38
g39
Ntp3039
Rp3040
(dp3041
g44
g32
sbsg67
(dp3042
g2965
I0
sg2966
I0
sg2967
I0
sg2968
I0
ssg69
I00
sg70
(dp3043
g2965
I0
sg2966
I0
sg2967
I0
sg2968
I0
ssg72
(dp3044
g2965
I0
sg2966
I0
sg2967
I0
sg2968
I0
ssg74
I0
sg75
I0
sg76
S'Vaceer (12)'
p3045
sg78
I0
sg79
I0
sg80
(dp3046
g2965
I0
sg2966
I0
sg2967
I0
sg2968
I0
ssg82
I0
sg63
g3011
sg87
(dp3047
g2987
I0
sg2978
I0
sg2979
I0
sg2980
I0
sg2985
I0
sg2977
I0
sg2982
I0
sg2984
I0
sg2981
I0
sg2986
I0
sg2983
I0
sg2988
I0
sg2989
I0
sg2990
I0
sg2991
I0
ssg104
(dp3048
sg143
I0
sg144
g32
sg145
I0
sg147
I0
sg148
F0.0
sg149
I0
sg146
I0
sg150
I0
sg151
g3029
sg153
I0
sg154
I0
sg155
I0
sg156
I0
sg157
I0
sg158
I0
sg159
I0
sg160
g32
sbsS's11'
p3049
(ijoueur
joueur
p3050
(dp3051
g27
I0
sg28
I0
sg29
I0
sg33
I0
sg36
g37
(g38
g39
Ntp3052
Rp3053
(dp3054
g44
g32
sbsg48
(dp3055
g2965
I0
sg2966
I0
sg2967
I0
sg2968
I0
ssg54
(dp3056
g2965
I0
sg2966
I0
sg2967
I0
sg2968
I0
ssg86
I0
sg57
g32
sg58
I0
sg60
I0
sg61
I0
sg62
I0
sg117
g3038
sg65
I00
sg66
g37
(g38
g39
Ntp3057
Rp3058
(dp3059
g44
g32
sbsg67
(dp3060
g2965
I0
sg2966
I0
sg2967
I0
sg2968
I0
ssg69
I00
sg70
(dp3061
g2965
I0
sg2966
I0
sg2967
I0
sg2968
I0
ssg72
(dp3062
g2965
I0
sg2966
I0
sg2967
I0
sg2968
I0
ssg74
I0
sg75
I0
sg76
S'Vaceer (11)'
p3063
sg78
I0
sg79
I0
sg80
(dp3064
g2965
I0
sg2966
I0
sg2967
I0
sg2968
I0
ssg82
I0
sg63
g3011
sg87
(dp3065
g2987
I0
sg2978
I0
sg2979
I0
sg2980
I0
sg2985
I0
sg2977
I0
sg2982
I0
sg2984
I0
sg2981
I0
sg2986
I0
sg2983
I0
sg2988
I0
sg2989
I0
sg2990
I0
sg2991
I0
ssg104
(dp3066
sg143
I0
sg144
g32
sg145
I0
sg147
I0
sg148
F0.0
sg149
I0
sg146
I0
sg150
I0
sg151
g3029
sg153
I0
sg154
I0
sg155
I0
sg156
I0
sg157
I0
sg158
I0
sg159
I0
sg160
g32
sbssg143
I0
sg144
g32
sg145
I0
sg147
I0
sg148
F9.241379310344827
sg149
I0
sg117
g3006
sg146
I0
sg150
I0
sg151
g3029
sg153
I0
sg154
I0
sg155
I0
sg156
I0
sg157
I6
sg158
I1
sg159
I0
sg160
S'CHS'
p3067
sbsS'n3'
p3068
(ijoueur
joueur
p3069
(dp3070
g27
I0
sg28
I0
sg29
I0
sg30
F198.74885624757928
sg31
g32
sg33
I0
sg34
g32
sg35
I0
sg36
g37
(g38
g39
Ntp3071
Rp3072
(dp3073
g43
I4
sg44
g812
sg46
g47
sbsg48
(dp3074
g50
I6
sg51
I0
sg52
I0
sg53
I2
ssg54
(dp3075
g50
I0
sg51
I0
sg52
I0
sg53
I0
ssg56
I10
sg57
g32
sg58
I0
sg59
F198.74885624757928
sg60
I1
sg61
I0
sg62
I0
sg63
g64
sg65
I00
sg66
g3072
sg67
(dp3076
g50
I0
sg51
I0
sg52
I0
sg53
I13
ssg69
I00
sg70
(dp3077
g50
I0
sg51
I0
sg52
I0
sg53
I0
ssg72
(dp3078
g50
I0
sg51
I0
sg52
I0
sg53
I13
ssg74
I0
sg75
I0
sg76
S'Mendish'
p3079
sg78
I7
sg79
I0
sg80
(dp3080
g50
I6
sg51
I0
sg52
I0
sg53
I2
ssg82
I149
sg83
I4
sg84
I00
sg85
g32
sg86
I16
sg87
(dp3081
g89
I11
sg90
I11
sg91
I7
sg92
I8
sg93
I4
sg94
I4
sg95
I9
sg96
I11
sg97
I8
sg98
I10
sg99
I9
sg100
I9
sg101
I2
sg102
I11
sg103
I8
ssg104
(dp3082
S's13'
p3083
(ijoueur
joueur
p3084
(dp3085
g27
I0
sg28
I0
sg29
I0
sg33
I0
sg36
g37
(g38
g39
Ntp3086
Rp3087
(dp3088
g44
g32
sbsg48
(dp3089
g113
I0
sg114
I0
sg115
I0
sg116
I0
ssg54
g3075
sg57
g32
sg58
I0
sg60
I1
sg61
I0
sg62
I0
sg117
(g118
g1982
S'TA'
p3090
g32
tp3091
sg65
I00
sg66
g37
(g38
g39
Ntp3092
Rp3093
(dp3094
g44
g32
sbsg67
g3076
sg69
I00
sg70
g3077
sg72
g3078
sg74
I0
sg75
I0
sg76
S'Mendish (13)'
p3095
sg78
I0
sg79
I0
sg86
I0
sg82
I0
sg63
g64
sg87
(dp3096
g127
I0
sg128
I0
sg129
I0
sg130
I0
sg131
I0
sg132
I0
sg133
I0
sg134
I0
sg135
I0
sg136
I0
sg137
I0
sg138
I0
sg139
I0
sg140
I0
sg141
I0
ssg104
(dp3097
sg143
I0
sg144
g32
sg145
I0
sg146
I0
sg147
I0
sg148
F9.851851851851851
sg149
I0
sg80
g3080
sg150
I0
sg151
(dp3098
g89
I11
sg90
I11
sg91
I7
sg92
I8
sg97
I8
sg95
I9
sg94
I4
sg96
I11
sg93
I4
sg98
I10
sg99
I9
sg100
I9
sg101
I2
sg102
I11
sg103
I8
ssg153
I0
sg154
I0
sg155
I0
sg156
I0
sg157
I0
sg158
I0
sg159
I0
sg160
g32
sbsS's12'
p3099
(ijoueur
joueur
p3100
(dp3101
g27
I0
sg28
I0
sg29
I0
sg33
I0
sg36
g37
(g38
g39
Ntp3102
Rp3103
(dp3104
g44
g32
sbsg48
(dp3105
g50
I0
sg51
I0
sg52
I0
sg53
I0
ssg54
(dp3106
g50
I0
sg51
I0
sg52
I0
sg53
I0
ssg57
g32
sg58
I0
sg60
I0
sg61
I0
sg62
I0
sg117
(g118
g1982
g32
g32
tp3107
sg65
I00
sg66
g37
(g38
g39
Ntp3108
Rp3109
(dp3110
g44
g32
sbsg67
(dp3111
g50
I0
sg51
I0
sg52
I0
sg53
I0
ssg69
I00
sg70
(dp3112
g50
I0
sg51
I0
sg52
I0
sg53
I0
ssg72
(dp3113
g50
I0
sg51
I0
sg52
I0
sg53
I0
ssg74
I0
sg75
I0
sg76
S'Mendish (12)'
p3114
sg78
I0
sg79
I0
sg86
I0
sg82
I0
sg63
g64
sg87
(dp3115
g99
I0
sg90
I0
sg91
I0
sg92
I0
sg97
I0
sg89
I0
sg94
I0
sg96
I0
sg93
I0
sg98
I0
sg95
I0
sg100
I0
sg101
I0
sg102
I0
sg103
I0
ssg104
(dp3116
sg143
I0
sg144
g32
sg145
I0
sg146
I0
sg147
I0
sg148
F0.0
sg149
I0
sg80
(dp3117
g50
I0
sg51
I0
sg52
I0
sg53
I0
ssg150
I0
sg151
g3098
sg153
I0
sg154
I0
sg155
I0
sg156
I0
sg157
I0
sg158
I0
sg159
I0
sg160
g32
sbsS's11'
p3118
(ijoueur
joueur
p3119
(dp3120
g27
I0
sg28
I0
sg29
I0
sg33
I0
sg36
g37
(g38
g39
Ntp3121
Rp3122
(dp3123
g44
g32
sbsg48
(dp3124
g50
I0
sg51
I0
sg52
I0
sg53
I0
ssg54
(dp3125
g50
I0
sg51
I0
sg52
I0
sg53
I0
ssg57
g32
sg58
I0
sg60
I0
sg61
I0
sg62
I0
sg117
g3107
sg65
I00
sg66
g37
(g38
g39
Ntp3126
Rp3127
(dp3128
g44
g32
sbsg67
(dp3129
g50
I0
sg51
I0
sg52
I0
sg53
I0
ssg69
I00
sg70
(dp3130
g50
I0
sg51
I0
sg52
I0
sg53
I0
ssg72
(dp3131
g50
I0
sg51
I0
sg52
I0
sg53
I0
ssg74
I0
sg75
I0
sg76
S'Mendish (11)'
p3132
sg78
I0
sg79
I0
sg86
I0
sg82
I0
sg63
g64
sg87
(dp3133
g99
I0
sg90
I0
sg91
I0
sg92
I0
sg97
I0
sg89
I0
sg94
I0
sg96
I0
sg93
I0
sg98
I0
sg95
I0
sg100
I0
sg101
I0
sg102
I0
sg103
I0
ssg104
(dp3134
sg143
I0
sg144
g32
sg145
I0
sg146
I0
sg147
I0
sg148
F0.0
sg149
I0
sg80
(dp3135
g50
I0
sg51
I0
sg52
I0
sg53
I0
ssg150
I0
sg151
g3098
sg153
I0
sg154
I0
sg155
I0
sg156
I0
sg157
I0
sg158
I0
sg159
I0
sg160
g32
sbssg143
I0
sg144
g32
sg145
I0
sg147
I0
sg148
F9.851851851851851
sg149
I0
sg117
g3091
sg146
I0
sg150
I1
sg151
g3098
sg153
I0
sg154
I0
sg155
I0
sg156
I0
sg157
I14
sg158
I1
sg159
I1
sg160
g198
sbsS'n4'
p3136
g807
sS'n5'
p3137
(ijoueur
joueur
p3138
(dp3139
g27
I0
sg28
I0
sg29
I0
sg30
F127.51426598990086
sg31
g32
sg33
I0
sg34
g32
sg35
I0
sg36
g37
(g38
g39
Ntp3140
Rp3141
(dp3142
g43
I4
sg44
g812
sg46
g47
sbsg48
(dp3143
g50
I0
sg51
I0
sg52
I0
sg53
I2
ssg54
(dp3144
g50
I0
sg51
I0
sg52
I0
sg53
I0
ssg56
I10
sg57
g32
sg58
I0
sg59
F127.51426598990086
sg60
I1
sg61
I0
sg62
I0
sg63
g64
sg65
I00
sg66
g3141
sg67
(dp3145
g50
I0
sg51
I0
sg52
I0
sg53
I12
ssg69
I00
sg70
(dp3146
g50
I0
sg51
I0
sg52
I0
sg53
I0
ssg72
(dp3147
g50
I0
sg51
I0
sg52
I0
sg53
I12
ssg74
I0
sg75
I0
sg76
S'Gauenash'
p3148
sg78
I10
sg79
I0
sg80
(dp3149
g50
I0
sg51
I0
sg52
I0
sg53
I2
ssg82
I230
sg83
I3
sg84
I00
sg85
g32
sg86
I21
sg87
(dp3150
g89
I10
sg90
I9
sg91
I7
sg92
I8
sg93
I5
sg94
I4
sg95
I11
sg96
I10
sg97
I9
sg98
I8
sg99
I8
sg100
I10
sg101
I0
sg102
I10
sg103
I5
ssg104
(dp3151
S's13'
p3152
(ijoueur
joueur
p3153
(dp3154
g27
I0
sg28
I0
sg29
I0
sg33
I0
sg36
g37
(g38
g39
Ntp3155
Rp3156
(dp3157
g44
g32
sbsg48
(dp3158
g113
I0
sg114
I0
sg115
I0
sg116
I0
ssg54
g3144
sg57
g32
sg58
I0
sg60
I1
sg61
I0
sg62
I0
sg117
(g118
g829
S'TL'
p3159
g32
tp3160
sg65
I00
sg66
g37
(g38
g39
Ntp3161
Rp3162
(dp3163
g44
g32
sbsg67
g3145
sg69
I00
sg70
g3146
sg72
g3147
sg74
I0
sg75
I0
sg76
S'Gauenash (13)'
p3164
sg78
I0
sg79
I0
sg86
I0
sg82
I0
sg63
g64
sg87
(dp3165
g127
I0
sg128
I0
sg129
I0
sg130
I0
sg131
I0
sg132
I0
sg133
I0
sg134
I0
sg135
I0
sg136
I0
sg137
I0
sg138
I0
sg139
I0
sg140
I0
sg141
I0
ssg104
(dp3166
sg143
I0
sg144
g32
sg145
I0
sg146
I0
sg147
I0
sg148
F9.37037037037037
sg149
I0
sg80
g3149
sg150
I0
sg151
(dp3167
g89
I10
sg90
I9
sg91
I7
sg92
I8
sg97
I9
sg95
I11
sg94
I4
sg96
I10
sg93
I5
sg98
I8
sg99
I8
sg100
I10
sg101
I0
sg102
I10
sg103
I5
ssg153
I0
sg154
I0
sg155
I0
sg156
I0
sg157
I0
sg158
I0
sg159
I0
sg160
g32
sbsS's12'
p3168
(ijoueur
joueur
p3169
(dp3170
g27
I0
sg28
I0
sg29
I0
sg33
I0
sg36
g37
(g38
g39
Ntp3171
Rp3172
(dp3173
g44
g32
sbsg48
(dp3174
g50
I0
sg51
I0
sg52
I0
sg53
I0
ssg54
(dp3175
g50
I0
sg51
I0
sg52
I0
sg53
I0
ssg57
g32
sg58
I0
sg60
I0
sg61
I0
sg62
I0
sg117
(g118
g829
g32
g32
tp3176
sg65
I00
sg66
g37
(g38
g39
Ntp3177
Rp3178
(dp3179
g44
g32
sbsg67
(dp3180
g50
I0
sg51
I0
sg52
I0
sg53
I0
ssg69
I00
sg70
(dp3181
g50
I0
sg51
I0
sg52
I0
sg53
I0
ssg72
(dp3182
g50
I0
sg51
I0
sg52
I0
sg53
I0
ssg74
I0
sg75
I0
sg76
S'Gauenash (12)'
p3183
sg78
I0
sg79
I0
sg86
I0
sg82
I0
sg63
g64
sg87
(dp3184
g99
I0
sg90
I0
sg91
I0
sg92
I0
sg97
I0
sg89
I0
sg94
I0
sg96
I0
sg93
I0
sg98
I0
sg95
I0
sg100
I0
sg101
I0
sg102
I0
sg103
I0
ssg104
(dp3185
sg143
I0
sg144
g32
sg145
I0
sg146
I0
sg147
I0
sg148
F0.0
sg149
I0
sg80
(dp3186
g50
I0
sg51
I0
sg52
I0
sg53
I0
ssg150
I0
sg151
g3167
sg153
I0
sg154
I0
sg155
I0
sg156
I0
sg157
I0
sg158
I0
sg159
I0
sg160
g32
sbsS's11'
p3187
(ijoueur
joueur
p3188
(dp3189
g27
I0
sg28
I0
sg29
I0
sg33
I0
sg36
g37
(g38
g39
Ntp3190
Rp3191
(dp3192
g44
g32
sbsg48
(dp3193
g50
I0
sg51
I0
sg52
I0
sg53
I0
ssg54
(dp3194
g50
I0
sg51
I0
sg52
I0
sg53
I0
ssg57
g32
sg58
I0
sg60
I0
sg61
I0
sg62
I0
sg117
g3176
sg65
I00
sg66
g37
(g38
g39
Ntp3195
Rp3196
(dp3197
g44
g32
sbsg67
(dp3198
g50
I0
sg51
I0
sg52
I0
sg53
I0
ssg69
I00
sg70
(dp3199
g50
I0
sg51
I0
sg52
I0
sg53
I0
ssg72
(dp3200
g50
I0
sg51
I0
sg52
I0
sg53
I0
ssg74
I0
sg75
I0
sg76
S'Gauenash (11)'
p3201
sg78
I0
sg79
I0
sg86
I0
sg82
I0
sg63
g64
sg87
(dp3202
g99
I0
sg90
I0
sg91
I0
sg92
I0
sg97
I0
sg89
I0
sg94
I0
sg96
I0
sg93
I0
sg98
I0
sg95
I0
sg100
I0
sg101
I0
sg102
I0
sg103
I0
ssg104
(dp3203
sg143
I0
sg144
g32
sg145
I0
sg146
I0
sg147
I0
sg148
F0.0
sg149
I0
sg80
(dp3204
g50
I0
sg51
I0
sg52
I0
sg53
I0
ssg150
I0
sg151
g3167
sg153
I0
sg154
I0
sg155
I0
sg156
I0
sg157
I0
sg158
I0
sg159
I0
sg160
g32
sbssg143
I0
sg144
g32
sg145
I0
sg147
I0
sg148
F9.37037037037037
sg149
I0
sg117
g3160
sg146
I0
sg150
I1
sg151
g3167
sg153
I0
sg154
I0
sg155
I0
sg156
I0
sg157
I23
sg158
I1
sg159
I1
sg160
g198
sbsS'n6'
p3205
g565
sS'n7'
p3206
g200
ssS'remplacements'
p3207
(dp3208
g1669
S'n0'
p3209
sg1960
g3209
sg2098
g3209
sg2167
g3209
sg2168
g3209
sg2169
g3209
sg2282
g3209
ssb.