(iclub
compo
p0
(dp1
S'caracs_old'
p2
(dp3
S'A'
p4
I0
sS'ME'
p5
I0
sS'E'
p6
I0
sS'OplusAV'
p7
I0
sS'OplusAR'
p8
I0
sS'JP'
p9
I0
sS'PA'
p10
I0
sS'M'
p11
I0
sS'OmoinsAR'
p12
I0
sS'TO_off'
p13
I0
sS'TO_def'
p14
I0
sS'OmoinsAV'
p15
I0
sS'R'
p16
I0
ssS'totaux_old'
p17
(dp18
S'T2'
p19
I0
sS'T3'
p20
I0
sS'T1'
p21
I0
ssS'roles'
p22
(dp23
S'SA_scd'
p24
(ijoueur
joueur
p25
(dp26
S'rouges_total'
p27
I0
sS'drop_ratees_total'
p28
I0
sS'drops_total'
p29
I0
sS'poste3'
p30
S''
p31
sS'blessure'
p32
I0
sS'poste1'
p33
g31
sS'RG_max'
p34
ccopy_reg
_reconstructor
p35
(cjoueur
rang_new
p36
c__builtin__
object
p37
Ntp38
Rp39
(dp40
S'rang'
p41
g31
sbsS'MJ2_total'
p42
(dp43
S'SR'
p44
I0
sS'ST'
p45
I0
sS'CR'
p46
I0
sS'CT'
p47
I0
ssS'MJ3_total'
p48
(dp49
g44
I0
sg45
I0
sg46
I0
sg47
I0
ssS'D'
p50
I0
sS'anciens_clubs'
p51
g31
sS'transformations_saison'
p52
I0
sS'drop_rates_saison'
p53
I0
sS'essais_saison'
p54
I0
sS'penalite_ratees_saison'
p55
I0
sS'postes'
p56
(S'dummy'
p57
g31
g31
g31
tp58
sS'club'
p59
g31
sS'veut_partir'
p60
I00
sS'RG'
p61
g35
(g36
g37
Ntp62
Rp63
(dp64
g41
g31
sbsS'MJ1'
p65
(dp66
g44
I0
sg45
I0
sg46
I0
sg47
I0
ssS'MJ2'
p67
(dp68
g44
I0
sg45
I0
sg46
I0
sg47
I0
ssS'MJ3'
p69
(dp70
g44
I0
sg45
I0
sg46
I0
sg47
I0
ssS'MJ1_total'
p71
(dp72
g44
I0
sg45
I0
sg46
I0
sg47
I0
ssS'penalites_total'
p73
I0
sS'penalites_saison'
p74
I0
sS'nom'
p75
g31
sS'C'
p76
I0
sS'transformations_total'
p77
I0
sS'MS_probleme'
p78
I00
sS'VAL'
p79
I0
sS'caracs_sans_fatigue'
p80
(dp81
g4
I0
sg5
I0
sS'RP2'
p82
I0
sg6
I0
sS'TO'
p83
I0
sS'RP1'
p84
I0
sg9
I0
sS'RP_tot'
p85
I0
sS'P'
p86
I0
sg10
I0
sg11
I0
sg16
I0
sS'TB'
p87
I0
sS'PL'
p88
I0
sS'TA'
p89
I0
ssS'poste2'
p90
g31
sS'caracs'
p91
g81
sS'jj_passe'
p92
(dp93
sS'fatigue'
p94
I0
sS'changements_postes'
p95
g31
sS'blessures_total'
p96
I0
sS'XP'
p97
I0
sS'EV'
p98
I0
sS'penalite_ratees_total'
p99
I0
sS'blessures_saison'
p100
I0
sS'jaunes_total'
p101
I0
sS'transformation_ratees_saison'
p102
I0
sS'rouges_saison'
p103
I0
sS'transformation_ratees_total'
p104
I0
sS'drops_saison'
p105
I0
sS'MS'
p106
I0
sS'essais_total'
p107
I0
sS'jaunes_saison'
p108
I0
sS'ARM'
p109
g31
sbsS'drop3'
p110
g25
sS'cap'
p111
g25
sS'SA_pcp1'
p112
g25
sS'B4'
p113
g25
sS'RJC'
p114
g25
sS'B1'
p115
g25
sS'B2'
p116
g25
sS'B3'
p117
g25
sS'SA_pcp2'
p118
g25
sS'drop2'
p119
g25
sS'RJL'
p120
g25
sS'SA_remp1'
p121
g25
sS'drop1'
p122
g25
sS'SA_remp2'
p123
g25
ssg75
S'BIL_defaut'
p124
sS'totaux'
p125
(dp126
g19
I0
sg20
I0
sg21
I0
ssS'_compo_defaut_fatigue'
p127
Nsg91
(dp128
g4
I0
sg5
I0
sg6
I0
sg7
I0
sg8
I0
sg9
I0
sg10
I0
sg11
I0
sg12
I0
sg13
I0
sg14
I0
sg15
I0
sg16
I0
ssS'joueurs'
p129
(dp130
S'n12'
p131
g25
sS'n13'
p132
g25
sS'n10'
p133
g25
sS'n11'
p134
g25
sS'n16'
p135
g25
sS'n17'
p136
g25
sS'n14'
p137
g25
sS'n15'
p138
g25
sS'n18'
p139
g25
sS'n19'
p140
g25
sS'n22'
p141
g25
sS'n21'
p142
g25
sS'n20'
p143
g25
sS'n8'
p144
g25
sS'n9'
p145
g25
sS'n1'
p146
g25
sS'n2'
p147
g25
sS'n3'
p148
g25
sS'n4'
p149
g25
sS'n5'
p150
g25
sS'n6'
p151
g25
sS'n7'
p152
g25
ssS'remplacements'
p153
(dp154
g143
S'n0'
p155
sg135
g155
sg136
g155
sg141
g155
sg139
g155
sg140
g155
sg142
g155
ssb.