(iclub
compo
p0
(dp1
S'caracs_old'
p2
(dp3
S'A'
p4
F136.5
sS'ME'
p5
F85.25
sS'E'
p6
F185.0
sS'OplusAV'
p7
F92.25
sS'TO_off'
p8
F110.75
sS'OplusAR'
p9
F96.0
sS'M'
p10
F83.75
sS'JP'
p11
F90.5
sS'OmoinsAR'
p12
F78.75
sS'PA'
p13
F99.75
sS'TO_def'
p14
F104.5
sS'OmoinsAV'
p15
F90.75
sS'R'
p16
F160.25
ssS'totaux_old'
p17
(dp18
S'T2'
p19
F163.5
sS'T3'
p20
F92.5
sS'T1'
p21
F176.5
ssS'roles'
p22
(dp23
S'drop1'
p24
(ijoueur
joueur
p25
(dp26
S'rouges_total'
p27
I0
sS'drop_ratees_total'
p28
I2
sS'drops_total'
p29
I4
sS'xp_total'
p30
F74.56184087793272
sS'poste3'
p31
S''
p32
sS'blessure'
p33
I0
sS'poste1'
p34
g32
sS'RG_max'
p35
ccopy_reg
_reconstructor
p36
(cjoueur
rang_new
p37
c__builtin__
object
p38
Ntp39
Rp40
(dp41
S'type_nb'
p42
I4
sS'rang'
p43
S'*'
p44
sS'type'
p45
S'heros'
p46
sbsS'MJ2_total'
p47
(dp48
S'SR'
p49
I0
sS'CT'
p50
I0
sS'CR'
p51
I0
sS'ST'
p52
I0
ssS'MJ3_total'
p53
(dp54
g49
I0
sg50
I0
sg51
I0
sg52
I0
ssS'D'
p55
I23
sS'anciens_clubs'
p56
g32
sS'drop_rates_saison'
p57
I2
sS'xp_saison'
p58
F74.56184087793272
sS'essais_saison'
p59
I0
sS'penalite_ratees_saison'
p60
I0
sS'transformations_saison'
p61
I0
sS'club'
p62
S'MAG'
p63
sS'veut_partir'
p64
I00
sS'RG'
p65
g36
(g37
g38
Ntp66
Rp67
(dp68
g42
I3
sg43
S'^^^'
p69
sg45
S'rare'
p70
sbsS'MJ1'
p71
(dp72
g49
I0
sg50
I8
sg51
I0
sg52
I0
ssS'MS_probleme'
p73
I00
sS'MJ3'
p74
(dp75
g49
I0
sg50
I0
sg51
I0
sg52
I0
ssS'MJ1_total'
p76
(dp77
g49
I0
sg50
I8
sg51
I0
sg52
I0
ssS'penalites_total'
p78
I0
sS'penalites_saison'
p79
I0
sS'nom'
p80
S'Nardel'
p81
sS'C'
p82
I12
sS'transformations_total'
p83
I0
sS'MJ2'
p84
(dp85
g49
I0
sg50
I0
sg51
I0
sg52
I0
ssS'VAL'
p86
I14
sS'postes'
p87
(S'dummy'
p88
S'AI'
p89
S'CE'
p90
g32
tp91
sS'poste2'
p92
g32
sS'caracs'
p93
(dp94
S'RP1'
p95
I8
sS'ME'
p96
I3
sS'RP2'
p97
I7
sS'E'
p98
I8
sS'TO'
p99
I3
sS'M'
p100
I9
sS'JP'
p101
I9
sS'RP_tot'
p102
I9
sS'P'
p103
I8
sS'PA'
p104
I8
sS'A'
p105
I10
sS'R'
p106
I7
sS'TB'
p107
I7
sS'PL'
p108
I8
sS'TA'
p109
I4
ssS'jj_passe'
p110
(dp111
S's12'
p112
(ijoueur
joueur
p113
(dp114
g27
I0
sg28
I0
sg29
I0
sg33
I0
sg35
g36
(g37
g38
Ntp115
Rp116
(dp117
g43
g32
sbsg47
(dp118
g49
I0
sg50
I0
sg51
I0
sg52
I0
ssg53
(dp119
g49
I0
sg50
I0
sg51
I0
sg52
I0
ssg55
I0
sg56
g32
sg57
I0
sg59
I0
sg60
I0
sg61
I0
sg87
(g88
g89
g32
g32
tp120
sg64
I00
sg65
g36
(g37
g38
Ntp121
Rp122
(dp123
g43
g32
sbsg71
(dp124
g49
I0
sg50
I0
sg51
I0
sg52
I0
ssg73
I00
sg74
(dp125
g49
I0
sg50
I0
sg51
I0
sg52
I0
ssg76
(dp126
g49
I0
sg50
I0
sg51
I0
sg52
I0
ssg78
I0
sg79
I0
sg80
g32
sg82
I0
sg83
I0
sg84
(dp127
g49
I0
sg50
I0
sg51
I0
sg52
I0
ssg86
I0
sg62
g63
sg93
(dp128
g105
I0
sg96
I0
sg97
I0
sg98
I0
sg103
I0
sg95
I0
sg101
I0
sg102
I0
sg99
I0
sg104
I0
sg100
I0
sg106
I0
sg107
I0
sg108
I0
sg109
I0
ssg110
(dp129
sS'fatigue'
p130
I0
sS'changements_postes'
p131
g32
sS'blessures_total'
p132
I0
sS'XP'
p133
I0
sS'EV'
p134
F0.0
sS'penalite_ratees_total'
p135
I0
sS'blessures_saison'
p136
I0
sS'jaunes_total'
p137
I0
sS'caracs_sans_fatigue'
p138
(dp139
g95
I8
sg96
I3
sg97
I7
sg98
I8
sg103
I8
sg101
I9
sg100
I9
sg102
I9
sg99
I3
sg104
I8
sg105
I10
sg106
I7
sg107
I7
sg108
I8
sg109
I4
ssS'rouges_saison'
p140
I0
sS'transformation_ratees_total'
p141
I0
sS'drops_saison'
p142
I0
sS'transformation_ratees_saison'
p143
I0
sS'MS'
p144
I0
sS'essais_total'
p145
I0
sS'jaunes_saison'
p146
I0
sS'ARM'
p147
g32
sbssg130
I4
sg131
g32
sg132
I0
sg133
I0
sg134
F8.741935483870968
sg135
I0
sg136
I0
sg137
I2
sg138
g139
sg140
I0
sg141
I0
sg142
I4
sg143
I0
sg144
I1
sg145
I0
sg146
I2
sg147
S'EST'
p148
sbsS'SA_scd'
p149
(ijoueur
joueur
p150
(dp151
S'EV_saison_11'
p152
F8.117647058823529
sg27
I0
sS'EV_saison_12'
p153
F8.970588235294118
sg131
g32
sg29
I0
sg30
F83.24631801741008
sg31
g32
sg33
I0
sg34
g32
sg35
g36
(g37
g38
Ntp154
Rp155
(dp156
g42
I4
sg43
S'x'
p157
sg45
S'heros'
p158
sbsg47
(dp159
S'SR'
p160
I0
sS'ST'
p161
I0
sS'CR'
p162
I0
sS'CT'
p163
I0
ssg53
(dp164
g160
I0
sg161
I0
sg162
I0
sg163
I0
ssS'xp'
p165
I0
sg56
S'vide 13'
p166
sg134
F9.529411764705882
sg57
I0
sg58
F83.24631801741008
sg59
I0
sg60
I0
sg61
I0
sg62
g63
sg64
I00
sg65
g155
sg71
(dp167
S'SR'
p168
I0
sS'CT'
p169
I7
sS'CR'
p170
I2
sS'ST'
p171
I0
ssg73
I00
sg74
(dp172
g168
I0
sg169
I0
sg170
I0
sg171
I0
ssg76
(dp173
g160
I1
sg161
I7
sg162
I2
sg163
I7
ssg78
I0
sg79
I0
sg80
S'Rodrigues'
p174
sg82
I11
sg83
I0
sg55
I24
sg86
I82
sg87
(S'dummy'
p175
S'DL'
p176
S'N8'
p177
g32
tp178
sg92
g32
sg93
(dp179
S'RP1'
p180
I7
sS'ME'
p181
I10
sS'RP2'
p182
I8
sS'E'
p183
I10
sS'P'
p184
I4
sS'JP'
p185
I4
sS'M'
p186
I8
sS'RP_tot'
p187
I9
sS'TO'
p188
I12
sS'PA'
p189
I9
sS'A'
p190
I10
sS'R'
p191
I6
sS'TB'
p192
I5
sS'PL'
p193
I8
sS'TA'
p194
I4
ssg110
(dp195
S's12'
p196
(ijoueur
joueur
p197
(dp198
g152
F8.117647058823529
sg27
I0
sg131
g32
sg29
I0
sg31
g32
sg33
I0
sg34
g32
sg35
g36
(g37
g38
Ntp199
Rp200
(dp201
g42
I4
sg43
S'x'
p202
sg45
S'heros'
p203
sbsg47
(dp204
S'SR'
p205
I0
sS'ST'
p206
I0
sS'CR'
p207
I0
sS'CT'
p208
I0
ssg53
(dp209
g205
I0
sg206
I0
sg207
I0
sg208
I0
ssg56
g32
sg57
I0
sg73
I00
sg59
I0
sg60
I0
sg61
I0
sg62
S'vide'
p210
sg64
I00
sg65
g200
sg71
(dp211
S'SR'
p212
I0
sS'CT'
p213
I0
sS'CR'
p214
I0
sS'ST'
p215
I7
ssg84
(dp216
g212
I0
sg213
I0
sg214
I0
sg215
I0
ssg74
(dp217
g212
I0
sg213
I0
sg214
I0
sg215
I0
ssg76
(dp218
g205
I1
sg206
I7
sg207
I0
sg208
I0
ssg78
I0
sg79
I0
sg80
S'Rodrigues'
p219
sg82
I11
sg83
I0
sg55
I24
sg86
I82
sg87
(S'dummy'
p220
S'DL'
p221
S'N8'
p222
g32
tp223
sg92
g32
sg93
(dp224
S'RP1'
p225
I7
sS'ME'
p226
I9
sS'RP2'
p227
I8
sS'E'
p228
I9
sS'TO'
p229
I11
sS'M'
p230
I8
sS'JP'
p231
I4
sS'RP_tot'
p232
I8
sS'P'
p233
I4
sS'PA'
p234
I9
sS'A'
p235
I11
sS'R'
p236
I7
sS'TB'
p237
I5
sS'PL'
p238
I9
sS'TA'
p239
I4
ssg110
(dp240
S's11'
p241
(ijoueur
joueur
p242
(dp243
g27
I0
sg29
I0
sg31
g32
sg33
I0
sg34
g32
sg35
g36
(g37
g38
Ntp244
Rp245
(dp246
g42
I4
sg43
S'x'
p247
sg45
S'heros'
p248
sbsg47
(dp249
S'SR'
p250
I0
sS'CT'
p251
I0
sS'CR'
p252
I0
sS'ST'
p253
I0
ssg53
(dp254
g250
I0
sg251
I0
sg252
I0
sg253
I0
ssg56
g32
sg57
I0
sg73
I01
sg59
I0
sg60
I0
sg61
I0
sg62
S'vide'
p255
sg64
I01
sg65
g36
(g37
g38
Ntp256
Rp257
(dp258
g42
I3
sg43
S'^^^'
p259
sg45
S'rare'
p260
sbsg71
(dp261
g250
I1
sg251
I0
sg252
I0
sg253
I0
ssg84
(dp262
g250
I0
sg251
I0
sg252
I0
sg253
I0
ssg74
(dp263
g250
I0
sg251
I0
sg252
I0
sg253
I0
ssg76
(dp264
g250
I1
sg251
I0
sg252
I0
sg253
I0
ssg78
I0
sg79
I0
sg80
S'Rodrigues'
p265
sg82
I11
sg83
I0
sg55
I24
sg86
I17
sg87
(S'dummy'
p266
S'DL'
p267
S'N8'
p268
g32
tp269
sg92
g32
sg93
(dp270
S'RP1'
p271
I6
sS'ME'
p272
I8
sS'RP2'
p273
I6
sS'E'
p274
I9
sS'P'
p275
I3
sS'JP'
p276
I3
sS'M'
p277
I8
sS'RP_tot'
p278
I6
sS'TO'
p279
I10
sS'PA'
p280
I7
sS'A'
p281
I9
sS'R'
p282
I7
sS'TB'
p283
I4
sS'PL'
p284
I8
sS'TA'
p285
I3
ssg130
I0
sg28
I0
sg132
I0
sg133
I0
sg134
F8.117647058823529
sg135
I0
sg136
I0
sg137
I0
sS'caracs_saison_11'
p286
(dp287
S'RP1'
p288
I6
sS'ME'
p289
I8
sS'RP2'
p290
I6
sS'E'
p291
I9
sS'P'
p292
I3
sS'JP'
p293
I3
sS'M'
p294
I8
sS'RP_tot'
p295
I6
sS'TO'
p296
I10
sS'PA'
p297
I7
sS'A'
p298
I9
sS'R'
p299
I7
sS'TB'
p300
I4
sS'PL'
p301
I8
sS'TA'
p302
I3
ssg138
g270
sg140
I0
sg141
I0
sg142
I0
sg143
I0
sg144
I1
sg145
I0
sg146
I0
sg147
S'EST'
p303
sbssg130
I3
sg28
I0
sg132
I0
sg133
I0
sg134
F8.970588235294118
sg135
I0
sg136
I0
sg137
I1
sg286
(dp304
g225
I6
sg226
I8
sg227
I6
sg228
I9
sg233
I3
sg231
I3
sg230
I8
sg232
I6
sg229
I10
sg234
I7
sg235
I9
sg236
I7
sg237
I4
sg238
I8
sg239
I3
ssg138
g224
sg140
I0
sg141
I0
sg142
I0
sg143
I0
sg144
I7
sg145
I0
sg146
I1
sg147
S'EST'
p305
sbsS's11'
p306
(ijoueur
joueur
p307
(dp308
g27
I0
sg29
I0
sg31
g32
sg33
I0
sg34
g32
sg35
g36
(g37
g38
Ntp309
Rp310
(dp311
g42
I4
sg43
S'x'
p312
sg45
S'heros'
p313
sbsg47
(dp314
S'SR'
p315
I0
sS'CT'
p316
I0
sS'CR'
p317
I0
sS'ST'
p318
I0
ssg53
(dp319
g315
I0
sg316
I0
sg317
I0
sg318
I0
ssg56
g32
sg57
I0
sg73
I01
sg59
I0
sg60
I0
sg61
I0
sg62
S'vide'
p320
sg64
I01
sg65
g36
(g37
g38
Ntp321
Rp322
(dp323
g42
I3
sg43
S'^^^'
p324
sg45
S'rare'
p325
sbsg71
(dp326
g315
I1
sg316
I0
sg317
I0
sg318
I0
ssg84
(dp327
g315
I0
sg316
I0
sg317
I0
sg318
I0
ssg74
(dp328
g315
I0
sg316
I0
sg317
I0
sg318
I0
ssg76
(dp329
g315
I1
sg316
I0
sg317
I0
sg318
I0
ssg78
I0
sg79
I0
sg80
S'Rodrigues'
p330
sg82
I11
sg83
I0
sg55
I24
sg86
I17
sg87
(S'dummy'
p331
S'DL'
p332
S'N8'
p333
g32
tp334
sg92
g32
sg93
(dp335
S'RP1'
p336
I6
sS'ME'
p337
I8
sS'RP2'
p338
I6
sS'E'
p339
I9
sS'P'
p340
I3
sS'JP'
p341
I3
sS'M'
p342
I8
sS'RP_tot'
p343
I6
sS'TO'
p344
I10
sS'PA'
p345
I7
sS'A'
p346
I9
sS'R'
p347
I7
sS'TB'
p348
I4
sS'PL'
p349
I8
sS'TA'
p350
I3
ssg130
I0
sg28
I0
sg132
I0
sg133
I0
sg134
F8.117647058823529
sg135
I0
sg136
I0
sg137
I0
sg286
(dp351
S'RP1'
p352
I6
sS'ME'
p353
I8
sS'RP2'
p354
I6
sS'E'
p355
I9
sS'P'
p356
I3
sS'JP'
p357
I3
sS'M'
p358
I8
sS'RP_tot'
p359
I6
sS'TO'
p360
I10
sS'PA'
p361
I7
sS'A'
p362
I9
sS'R'
p363
I7
sS'TB'
p364
I4
sS'PL'
p365
I8
sS'TA'
p366
I3
ssg138
g335
sg140
I0
sg141
I0
sg142
I0
sg143
I0
sg144
I1
sg145
I0
sg146
I0
sg147
S'EST'
p367
sbssg130
I10
sg28
I0
sg132
I0
sg133
I0
sg84
(dp368
g168
I0
sg169
I0
sg170
I0
sg171
I0
ssg135
I0
sg136
I0
sg137
I1
sg286
(dp369
g180
I6
sg181
I8
sg182
I6
sg183
I9
sg184
I3
sg185
I3
sg186
I8
sg187
I6
sg188
I10
sg189
I7
sg190
I9
sg191
I7
sg192
I4
sg193
I8
sg194
I3
ssg138
(dp370
g180
I7
sg181
I10
sg182
I8
sg183
I10
sg188
I12
sg186
I8
sg185
I4
sg187
I9
sg184
I4
sg189
I9
sg190
I11
sg191
I7
sg192
I5
sg193
I9
sg194
I4
ssg140
I0
sS'caracs_saison_12'
p371
(dp372
sg141
I0
sg142
I0
sg143
I0
sg144
I7
sg145
I0
sg146
I0
sg147
S'EST'
p373
sbsS'RJL'
p374
(ijoueur
joueur
p375
(dp376
g27
I0
sg28
I1
sg29
I0
sg30
F82.61283546362986
sg31
g32
sg33
I0
sg34
g32
sg35
g36
(g37
g38
Ntp377
Rp378
(dp379
g42
I4
sg43
S'*'
p380
sg45
S'heros'
p381
sbsg47
(dp382
S'SR'
p383
I0
sS'CT'
p384
I0
sS'CR'
p385
I0
sS'ST'
p386
I0
ssg53
(dp387
g383
I0
sg384
I0
sg385
I0
sg386
I0
ssg55
I19
sg56
g32
sg57
I1
sg58
F82.61283546362986
sg59
I1
sg60
I2
sg61
I0
sg62
S'MAG'
p388
sg64
I00
sg65
g378
sg71
(dp389
g383
I0
sg384
I4
sg385
I5
sg386
I0
ssg73
I00
sg74
(dp390
g383
I0
sg384
I0
sg385
I0
sg386
I0
ssg76
(dp391
g383
I0
sg384
I4
sg385
I5
sg386
I0
ssg78
I5
sg79
I5
sg80
S'Clodenio'
p392
sg82
I11
sg83
I0
sg84
(dp393
g383
I0
sg384
I0
sg385
I0
sg386
I0
ssg86
I95
sg87
(S'dummy'
p394
S'DO'
p395
g32
g32
tp396
sg92
g32
sg93
(dp397
S'RP1'
p398
I6
sS'ME'
p399
I6
sS'RP2'
p400
I8
sS'E'
p401
I10
sS'TO'
p402
I5
sS'M'
p403
I9
sS'JP'
p404
I9
sS'RP_tot'
p405
I8
sS'P'
p406
I12
sS'PA'
p407
I10
sS'A'
p408
I10
sS'R'
p409
I8
sS'TB'
p410
I8
sS'PL'
p411
I10
sS'TA'
p412
I6
ssg110
(dp413
S's12'
p414
(ijoueur
joueur
p415
(dp416
g27
I0
sg28
I0
sg29
I0
sg33
I0
sg35
g36
(g37
g38
Ntp417
Rp418
(dp419
g43
g32
sbsg47
(dp420
g383
I0
sg384
I0
sg385
I0
sg386
I0
ssg53
(dp421
g383
I0
sg384
I0
sg385
I0
sg386
I0
ssg55
I0
sg56
g32
sg57
I0
sg59
I0
sg60
I0
sg61
I0
sg87
(g394
g395
g32
g32
tp422
sg64
I00
sg65
g36
(g37
g38
Ntp423
Rp424
(dp425
g43
g32
sbsg71
(dp426
g383
I0
sg384
I0
sg385
I0
sg386
I0
ssg73
I00
sg74
(dp427
g383
I0
sg384
I0
sg385
I0
sg386
I0
ssg76
(dp428
g383
I0
sg384
I0
sg385
I0
sg386
I0
ssg78
I0
sg79
I0
sg80
S'Clodenio (12)'
p429
sg82
I0
sg83
I0
sg84
(dp430
g383
I0
sg384
I0
sg385
I0
sg386
I0
ssg86
I0
sg62
g388
sg93
(dp431
g408
I0
sg399
I0
sg400
I0
sg401
I0
sg406
I0
sg398
I0
sg404
I0
sg405
I0
sg402
I0
sg407
I0
sg403
I0
sg409
I0
sg410
I0
sg411
I0
sg412
I0
ssg110
(dp432
sg130
I0
sg131
g32
sg132
I0
sg133
I0
sg134
F0.0
sg135
I0
sg136
I0
sg137
I0
sg138
(dp433
g398
I6
sg399
I6
sg400
I8
sg401
I10
sg406
I12
sg404
I9
sg403
I9
sg405
I8
sg402
I5
sg407
I10
sg408
I10
sg409
I8
sg410
I8
sg411
I10
sg412
I6
ssg140
I0
sg141
I0
sg142
I0
sg143
I0
sg144
I0
sg145
I0
sg146
I0
sg147
g32
sbsS's11'
p434
(ijoueur
joueur
p435
(dp436
g27
I0
sg28
I0
sg29
I0
sg33
I0
sg35
g36
(g37
g38
Ntp437
Rp438
(dp439
g43
g32
sbsg47
(dp440
g383
I0
sg384
I0
sg385
I0
sg386
I0
ssg53
(dp441
g383
I0
sg384
I0
sg385
I0
sg386
I0
ssg55
I0
sg56
g32
sg57
I0
sg59
I0
sg60
I0
sg61
I0
sg87
g422
sg64
I00
sg65
g36
(g37
g38
Ntp442
Rp443
(dp444
g43
g32
sbsg71
(dp445
g383
I0
sg384
I0
sg385
I0
sg386
I0
ssg73
I00
sg74
(dp446
g383
I0
sg384
I0
sg385
I0
sg386
I0
ssg76
(dp447
g383
I0
sg384
I0
sg385
I0
sg386
I0
ssg78
I0
sg79
I0
sg80
S'Clodenio (11)'
p448
sg82
I0
sg83
I0
sg84
(dp449
g383
I0
sg384
I0
sg385
I0
sg386
I0
ssg86
I0
sg62
g388
sg93
(dp450
g408
I0
sg399
I0
sg400
I0
sg401
I0
sg406
I0
sg398
I0
sg404
I0
sg405
I0
sg402
I0
sg407
I0
sg403
I0
sg409
I0
sg410
I0
sg411
I0
sg412
I0
ssg110
(dp451
sg130
I0
sg131
g32
sg132
I0
sg133
I0
sg134
F0.0
sg135
I0
sg136
I0
sg137
I0
sg138
g433
sg140
I0
sg141
I0
sg142
I0
sg143
I0
sg144
I0
sg145
I0
sg146
I0
sg147
g32
sbssg130
I4
sg131
g32
sg132
I0
sg133
I0
sg134
F9.818181818181818
sg135
I2
sg136
I0
sg137
I0
sg138
g433
sg140
I0
sg141
I0
sg142
I0
sg143
I0
sg144
I9
sg145
I1
sg146
I0
sg147
S'EST'
p452
sbsS'cap'
p453
(ijoueur
joueur
p454
(dp455
g27
I0
sg28
I0
sg29
I0
sg30
F74.11671929571014
sg31
g32
sg33
I0
sg34
g32
sg35
g36
(g37
g38
Ntp456
Rp457
(dp458
g42
I5
sg43
S'**'
p459
sg45
S'seigneur'
p460
sbsg47
(dp461
g49
I0
sg50
I0
sg51
I0
sg52
I0
ssg53
(dp462
g49
I0
sg50
I0
sg51
I0
sg52
I0
ssg55
I22
sg56
g32
sg57
I0
sg58
F74.11671929571014
sg59
I0
sg60
I0
sg61
I0
sg62
g63
sg64
I00
sg65
g457
sg71
(dp463
g49
I0
sg50
I7
sg51
I1
sg52
I0
ssg73
I00
sg74
(dp464
g49
I0
sg50
I0
sg51
I0
sg52
I0
ssg76
(dp465
g49
I0
sg50
I7
sg51
I1
sg52
I0
ssg78
I0
sg79
I0
sg80
S'Fafonel'
p466
sg82
I10
sg83
I0
sg84
(dp467
g49
I0
sg50
I0
sg51
I0
sg52
I0
ssg86
I144
sg87
(g88
S'DL'
p468
S'TL'
p469
g32
tp470
sg92
g32
sg93
(dp471
g95
I10
sg96
I10
sg97
I8
sg98
I13
sg99
I12
sg100
I7
sg101
I4
sg102
I11
sg103
I3
sg104
I9
sg105
I10
sg106
I10
sg107
I5
sg108
I10
sg109
I6
ssg110
(dp472
S's12'
p473
(ijoueur
joueur
p474
(dp475
g27
I0
sg28
I0
sg29
I0
sg33
I0
sg35
g36
(g37
g38
Ntp476
Rp477
(dp478
g43
g32
sbsg47
(dp479
g49
I0
sg50
I0
sg51
I0
sg52
I0
ssg53
(dp480
g49
I0
sg50
I0
sg51
I0
sg52
I0
ssg55
I0
sg56
g32
sg57
I0
sg59
I0
sg60
I0
sg61
I0
sg87
(g88
g468
g32
g32
tp481
sg64
I00
sg65
g36
(g37
g38
Ntp482
Rp483
(dp484
g43
g32
sbsg71
(dp485
g49
I0
sg50
I0
sg51
I0
sg52
I0
ssg73
I00
sg74
(dp486
g49
I0
sg50
I0
sg51
I0
sg52
I0
ssg76
(dp487
g49
I0
sg50
I0
sg51
I0
sg52
I0
ssg78
I0
sg79
I0
sg80
g32
sg82
I0
sg83
I0
sg84
(dp488
g49
I0
sg50
I0
sg51
I0
sg52
I0
ssg86
I0
sg62
g63
sg93
(dp489
g105
I0
sg96
I0
sg97
I0
sg98
I0
sg103
I0
sg95
I0
sg101
I0
sg102
I0
sg99
I0
sg104
I0
sg100
I0
sg106
I0
sg107
I0
sg108
I0
sg109
I0
ssg110
(dp490
sg130
I0
sg131
g32
sg132
I0
sg133
I0
sg134
F0.0
sg135
I0
sg136
I0
sg137
I0
sg138
(dp491
g95
I10
sg96
I10
sg97
I8
sg98
I13
sg103
I3
sg101
I4
sg100
I7
sg102
I11
sg99
I12
sg104
I9
sg105
I10
sg106
I10
sg107
I5
sg108
I10
sg109
I6
ssg140
I0
sg141
I0
sg142
I0
sg143
I0
sg144
I0
sg145
I0
sg146
I0
sg147
g32
sbsS's11'
p492
(ijoueur
joueur
p493
(dp494
g27
I0
sg28
I0
sg29
I0
sg33
I0
sg35
g36
(g37
g38
Ntp495
Rp496
(dp497
g43
g32
sbsg47
(dp498
g49
I0
sg50
I0
sg51
I0
sg52
I0
ssg53
(dp499
g49
I0
sg50
I0
sg51
I0
sg52
I0
ssg55
I0
sg56
g32
sg57
I0
sg59
I0
sg60
I0
sg61
I0
sg87
g481
sg64
I00
sg65
g36
(g37
g38
Ntp500
Rp501
(dp502
g43
g32
sbsg71
(dp503
g49
I0
sg50
I0
sg51
I0
sg52
I0
ssg73
I00
sg74
(dp504
g49
I0
sg50
I0
sg51
I0
sg52
I0
ssg76
(dp505
g49
I0
sg50
I0
sg51
I0
sg52
I0
ssg78
I0
sg79
I0
sg80
g32
sg82
I0
sg83
I0
sg84
(dp506
g49
I0
sg50
I0
sg51
I0
sg52
I0
ssg86
I0
sg62
g63
sg93
(dp507
g105
I0
sg96
I0
sg97
I0
sg98
I0
sg103
I0
sg95
I0
sg101
I0
sg102
I0
sg99
I0
sg104
I0
sg100
I0
sg106
I0
sg107
I0
sg108
I0
sg109
I0
ssg110
(dp508
sg130
I0
sg131
g32
sg132
I0
sg133
I0
sg134
F0.0
sg135
I0
sg136
I0
sg137
I0
sg138
g491
sg140
I0
sg141
I0
sg142
I0
sg143
I0
sg144
I0
sg145
I0
sg146
I0
sg147
g32
sbssg130
cnumpy.core.multiarray
scalar
p509
(cnumpy
dtype
p510
(S'i4'
p511
I0
I1
tp512
Rp513
(I3
S'<'
p514
NNNI-1
I-1
I0
tp515
bS'\x06\x00\x00\x00'
p516
tp517
Rp518
sg131
g32
sg132
I1
sg133
I0
sg134
F10.764705882352942
sg135
I0
sg136
I1
sg137
I0
sg138
g491
sg140
I0
sg141
I0
sg142
I0
sg143
I0
sg144
I14
sg145
I0
sg146
I0
sg147
g148
sbsS'B4'
p519
g375
sS'RJC'
p520
g375
sS'B1'
p521
(ijoueur
joueur
p522
(dp523
g27
I0
sg28
I0
sg29
I0
sg30
F84.12757534984847
sg31
g32
sg33
I0
sg34
g32
sg35
g36
(g37
g38
Ntp524
Rp525
(dp526
g42
I4
sg43
S'*'
p527
sg45
S'heros'
p528
sbsg47
(dp529
S'SR'
p530
I0
sS'ST'
p531
I0
sS'CR'
p532
I0
sS'CT'
p533
I0
ssg53
(dp534
g530
I0
sg531
I0
sg532
I0
sg533
I0
ssg55
I18
sg56
g32
sg57
I0
sg58
F84.12757534984847
sg59
I0
sg60
I0
sg61
I0
sg62
g388
sg64
I00
sg65
g525
sg71
(dp535
g530
I0
sg531
I0
sg532
I0
sg533
I9
ssg84
(dp536
g530
I0
sg531
I0
sg532
I0
sg533
I0
ssg74
(dp537
g530
I0
sg531
I0
sg532
I0
sg533
I0
ssg76
(dp538
g530
I0
sg531
I0
sg532
I0
sg533
I9
ssg78
I0
sg79
I0
sg80
S'Valle'
p539
sg82
I11
sg83
I0
sg73
I00
sg86
I114
sg87
(S'dummy'
p540
S'C1'
p541
g32
g32
tp542
sg92
g32
sg93
(dp543
S'RP1'
p544
I8
sS'ME'
p545
I6
sS'RP2'
p546
I10
sS'E'
p547
I9
sS'P'
p548
I10
sS'JP'
p549
I8
sS'M'
p550
I8
sS'RP_tot'
p551
I11
sS'TO'
p552
I5
sS'PA'
p553
I10
sS'A'
p554
I8
sS'R'
p555
I7
sS'TB'
p556
I9
sS'PL'
p557
I8
sS'TA'
p558
I4
ssg110
(dp559
S's12'
p560
(ijoueur
joueur
p561
(dp562
g27
I0
sg28
I0
sg29
I0
sg33
I0
sg35
g36
(g37
g38
Ntp563
Rp564
(dp565
g43
g32
sbsg47
(dp566
g530
I0
sg531
I0
sg532
I0
sg533
I0
ssg53
(dp567
g530
I0
sg531
I0
sg532
I0
sg533
I0
ssg55
I0
sg56
g32
sg57
I0
sg59
I0
sg60
I0
sg61
I0
sg87
(g540
S'CE'
p568
g32
g32
tp569
sg64
I00
sg65
g36
(g37
g38
Ntp570
Rp571
(dp572
g43
g32
sbsg71
(dp573
g530
I0
sg531
I0
sg532
I0
sg533
I0
ssg84
(dp574
g530
I0
sg531
I0
sg532
I0
sg533
I0
ssg74
(dp575
g530
I0
sg531
I0
sg532
I0
sg533
I0
ssg76
(dp576
g530
I0
sg531
I0
sg532
I0
sg533
I0
ssg78
I0
sg79
I0
sg80
S'Valle (12)'
p577
sg82
I0
sg83
I0
sg73
I00
sg86
I0
sg62
g388
sg93
(dp578
g554
I0
sg545
I0
sg546
I0
sg547
I0
sg552
I0
sg544
I0
sg549
I0
sg551
I0
sg548
I0
sg553
I0
sg550
I0
sg555
I0
sg556
I0
sg557
I0
sg558
I0
ssg110
(dp579
sg130
I0
sg131
g32
sg132
I0
sg133
I0
sg134
F0.0
sg135
I0
sg136
I0
sg137
I0
sg138
(dp580
g544
I8
sg545
I6
sg546
I10
sg547
I9
sg552
I5
sg550
I8
sg549
I8
sg551
I11
sg548
I10
sg553
I10
sg554
I9
sg555
I8
sg556
I9
sg557
I9
sg558
I4
ssg140
I0
sg141
I0
sg142
I0
sg143
I0
sg144
I0
sg145
I0
sg146
I0
sg147
g32
sbsS's11'
p581
(ijoueur
joueur
p582
(dp583
g27
I0
sg28
I0
sg29
I0
sg33
I0
sg35
g36
(g37
g38
Ntp584
Rp585
(dp586
g43
g32
sbsg47
(dp587
g530
I0
sg531
I0
sg532
I0
sg533
I0
ssg53
(dp588
g530
I0
sg531
I0
sg532
I0
sg533
I0
ssg55
I0
sg56
g32
sg57
I0
sg59
I0
sg60
I0
sg61
I0
sg87
g569
sg64
I00
sg65
g36
(g37
g38
Ntp589
Rp590
(dp591
g43
g32
sbsg71
(dp592
g530
I0
sg531
I0
sg532
I0
sg533
I0
ssg84
(dp593
g530
I0
sg531
I0
sg532
I0
sg533
I0
ssg74
(dp594
g530
I0
sg531
I0
sg532
I0
sg533
I0
ssg76
(dp595
g530
I0
sg531
I0
sg532
I0
sg533
I0
ssg78
I0
sg79
I0
sg80
S'Valle (11)'
p596
sg82
I0
sg83
I0
sg73
I00
sg86
I0
sg62
g388
sg93
(dp597
g554
I0
sg545
I0
sg546
I0
sg547
I0
sg552
I0
sg544
I0
sg549
I0
sg551
I0
sg548
I0
sg553
I0
sg550
I0
sg555
I0
sg556
I0
sg557
I0
sg558
I0
ssg110
(dp598
sg130
I0
sg131
g32
sg132
I0
sg133
I0
sg134
F0.0
sg135
I0
sg136
I0
sg137
I0
sg138
g580
sg140
I0
sg141
I0
sg142
I0
sg143
I0
sg144
I0
sg145
I0
sg146
I0
sg147
g32
sbssg130
g509
(g513
S'\x0b\x00\x00\x00'
p599
tp600
Rp601
sg131
g32
sg132
I0
sg133
I0
sg134
F9.233333333333333
sg135
I0
sg136
I0
sg137
I0
sg138
g580
sg140
I0
sg141
I0
sg142
I0
sg143
I0
sg144
I11
sg145
I0
sg146
I0
sg147
S'EST'
p602
sbsS'B2'
p603
g522
sS'B3'
p604
g522
sS'SA_pcp2'
p605
(ijoueur
joueur
p606
(dp607
g27
I0
sg28
I0
sg29
I0
sg30
F84.12757534984847
sg31
g32
sg33
I0
sg34
g32
sg35
g36
(g37
g38
Ntp608
Rp609
(dp610
g42
I4
sg43
S'x'
p611
sg45
g46
sbsg47
(dp612
g49
I0
sg50
I7
sg51
I0
sg52
I0
ssg53
(dp613
g49
I0
sg50
I0
sg51
I0
sg52
I0
ssg55
I14
sg56
g32
sg57
I0
sg58
F84.12757534984847
sg59
I1
sg60
I0
sg61
I0
sg62
g63
sg64
I00
sg65
g609
sg71
(dp614
g49
I0
sg50
I2
sg51
I0
sg52
I0
ssg73
I00
sg74
(dp615
g49
I0
sg50
I0
sg51
I0
sg52
I0
ssg76
(dp616
g49
I0
sg50
I2
sg51
I0
sg52
I0
ssg78
I0
sg79
I0
sg80
S'Woelod'
p617
sg82
I6
sg83
I0
sg84
(dp618
g49
I0
sg50
I7
sg51
I0
sg52
I0
ssg86
I157
sg87
(g88
g468
S'TL'
p619
g32
tp620
sg92
g32
sg93
(dp621
g95
I8
sg96
I9
sg97
I8
sg98
I9
sg99
I12
sg100
I7
sg101
I5
sg102
I10
sg103
I5
sg104
I10
sg105
I8
sg106
I9
sg107
I5
sg108
I9
sg109
I4
ssg110
(dp622
S's12'
p623
(ijoueur
joueur
p624
(dp625
g27
I0
sg28
I0
sg29
I0
sg33
I0
sg35
g36
(g37
g38
Ntp626
Rp627
(dp628
g43
g32
sbsg47
(dp629
g49
I0
sg50
I0
sg51
I0
sg52
I0
ssg53
(dp630
g49
I0
sg50
I0
sg51
I0
sg52
I0
ssg55
I0
sg56
g32
sg57
I0
sg59
I0
sg60
I0
sg61
I0
sg87
(g88
g468
g32
g32
tp631
sg64
I00
sg65
g36
(g37
g38
Ntp632
Rp633
(dp634
g43
g32
sbsg71
(dp635
g49
I0
sg50
I0
sg51
I0
sg52
I0
ssg73
I00
sg74
(dp636
g49
I0
sg50
I0
sg51
I0
sg52
I0
ssg76
(dp637
g49
I0
sg50
I0
sg51
I0
sg52
I0
ssg78
I0
sg79
I0
sg80
g32
sg82
I0
sg83
I0
sg84
(dp638
g49
I0
sg50
I0
sg51
I0
sg52
I0
ssg86
I0
sg62
g63
sg93
(dp639
g105
I0
sg96
I0
sg97
I0
sg98
I0
sg103
I0
sg95
I0
sg101
I0
sg102
I0
sg99
I0
sg104
I0
sg100
I0
sg106
I0
sg107
I0
sg108
I0
sg109
I0
ssg110
(dp640
sg130
I0
sg131
g32
sg132
I0
sg133
I0
sg134
F0.0
sg135
I0
sg136
I0
sg137
I0
sg138
(dp641
g95
I8
sg96
I9
sg97
I8
sg98
I9
sg103
I5
sg101
I5
sg100
I7
sg102
I10
sg99
I12
sg104
I10
sg105
I9
sg106
I10
sg107
I5
sg108
I10
sg109
I4
ssg140
I0
sg141
I0
sg142
I0
sg143
I0
sg144
I0
sg145
I0
sg146
I0
sg147
g32
sbsS's11'
p642
(ijoueur
joueur
p643
(dp644
g27
I0
sg28
I0
sg29
I0
sg33
I0
sg35
g36
(g37
g38
Ntp645
Rp646
(dp647
g43
g32
sbsg47
(dp648
g49
I0
sg50
I0
sg51
I0
sg52
I0
ssg53
(dp649
g49
I0
sg50
I0
sg51
I0
sg52
I0
ssg55
I0
sg56
g32
sg57
I0
sg59
I0
sg60
I0
sg61
I0
sg87
g631
sg64
I00
sg65
g36
(g37
g38
Ntp650
Rp651
(dp652
g43
g32
sbsg71
(dp653
g49
I0
sg50
I0
sg51
I0
sg52
I0
ssg73
I00
sg74
(dp654
g49
I0
sg50
I0
sg51
I0
sg52
I0
ssg76
(dp655
g49
I0
sg50
I0
sg51
I0
sg52
I0
ssg78
I0
sg79
I0
sg80
g32
sg82
I0
sg83
I0
sg84
(dp656
g49
I0
sg50
I0
sg51
I0
sg52
I0
ssg86
I0
sg62
g63
sg93
(dp657
g105
I0
sg96
I0
sg97
I0
sg98
I0
sg103
I0
sg95
I0
sg101
I0
sg102
I0
sg99
I0
sg104
I0
sg100
I0
sg106
I0
sg107
I0
sg108
I0
sg109
I0
ssg110
(dp658
sg130
I0
sg131
g32
sg132
I0
sg133
I0
sg134
F0.0
sg135
I0
sg136
I0
sg137
I0
sg138
g641
sg140
I0
sg141
I0
sg142
I0
sg143
I0
sg144
I0
sg145
I0
sg146
I0
sg147
g32
sbssg130
g509
(g513
S'\x0b\x00\x00\x00'
p659
tp660
Rp661
sg131
g32
sg132
I0
sg133
I0
sg134
F10.029411764705882
sg135
I0
sg136
I0
sg137
I0
sg138
g641
sg140
I0
sg141
I0
sg142
I0
sg143
I0
sg144
I15
sg145
I1
sg146
I0
sg147
g148
sbsS'SA_pcp1'
p662
g454
sS'drop3'
p663
(ijoueur
joueur
p664
(dp665
g27
I0
sg28
I1
sg29
I0
sg30
F82.61283546362986
sg31
g32
sg33
I0
sg34
g32
sg35
g36
(g37
g38
Ntp666
Rp667
(dp668
g42
I4
sg43
S'*'
p669
sg45
S'heros'
p670
sbsg47
(dp671
S'SR'
p672
I0
sS'ST'
p673
I0
sS'CR'
p674
I0
sS'CT'
p675
I0
ssg53
(dp676
g672
I0
sg673
I0
sg674
I0
sg675
I0
ssg56
g32
sg57
I1
sg58
F82.61283546362986
sg59
I1
sg60
I2
sg61
I0
sg62
g63
sg64
I00
sg65
g667
sg71
(dp677
g672
I0
sg673
I0
sg674
I5
sg675
I4
ssg73
I00
sg74
(dp678
g672
I0
sg673
I0
sg674
I0
sg675
I0
ssg76
(dp679
g672
I0
sg673
I0
sg674
I5
sg675
I4
ssg78
I5
sg79
I5
sg80
S'Clodenio'
p680
sg82
I11
sg83
I0
sg55
I19
sg86
I95
sg87
(S'dummy'
p681
S'DO'
p682
g32
g32
tp683
sg92
g32
sg93
(dp684
S'RP1'
p685
I6
sS'ME'
p686
I6
sS'RP2'
p687
I8
sS'E'
p688
I10
sS'P'
p689
I12
sS'JP'
p690
I9
sS'M'
p691
I9
sS'RP_tot'
p692
I8
sS'TO'
p693
I5
sS'PA'
p694
I10
sS'A'
p695
I10
sS'R'
p696
I8
sS'TB'
p697
I8
sS'PL'
p698
I10
sS'TA'
p699
I6
ssg110
(dp700
S's12'
p701
(ijoueur
joueur
p702
(dp703
g27
I0
sg28
I0
sg29
I0
sg33
I0
sg35
g36
(g37
g38
Ntp704
Rp705
(dp706
g43
g32
sbsg47
(dp707
g672
I0
sg673
I0
sg674
I0
sg675
I0
ssg53
(dp708
g672
I0
sg673
I0
sg674
I0
sg675
I0
ssg56
g32
sg57
I0
sg59
I0
sg60
I0
sg61
I0
sg87
(g681
g682
g32
g32
tp709
sg64
I00
sg65
g36
(g37
g38
Ntp710
Rp711
(dp712
g43
g32
sbsg71
(dp713
g672
I0
sg673
I0
sg674
I0
sg675
I0
ssg73
I00
sg74
(dp714
g672
I0
sg673
I0
sg674
I0
sg675
I0
ssg76
(dp715
g672
I0
sg673
I0
sg674
I0
sg675
I0
ssg78
I0
sg79
I0
sg80
g32
sg82
I0
sg83
I0
sg55
I0
sg86
I0
sg62
g63
sg93
(dp716
g695
I0
sg686
I0
sg687
I0
sg688
I0
sg693
I0
sg685
I0
sg690
I0
sg692
I0
sg689
I0
sg694
I0
sg691
I0
sg696
I0
sg697
I0
sg698
I0
sg699
I0
ssg110
(dp717
sg130
I0
sg131
g32
sg132
I0
sg136
I0
sg133
I0
sg134
F0.0
sg135
I0
sg84
(dp718
g672
I0
sg673
I0
sg674
I0
sg675
I0
ssg137
I0
sg138
(dp719
g685
I6
sg686
I6
sg687
I8
sg688
I10
sg693
I5
sg691
I9
sg690
I9
sg692
I8
sg689
I12
sg694
I10
sg695
I10
sg696
I8
sg697
I8
sg698
I10
sg699
I6
ssg140
I0
sg141
I0
sg142
I0
sg143
I0
sg144
I0
sg145
I0
sg146
I0
sg147
g32
sbsS's11'
p720
(ijoueur
joueur
p721
(dp722
g27
I0
sg28
I0
sg29
I0
sg33
I0
sg35
g36
(g37
g38
Ntp723
Rp724
(dp725
g43
g32
sbsg47
(dp726
g672
I0
sg673
I0
sg674
I0
sg675
I0
ssg53
(dp727
g672
I0
sg673
I0
sg674
I0
sg675
I0
ssg56
g32
sg57
I0
sg59
I0
sg60
I0
sg61
I0
sg87
g709
sg64
I00
sg65
g36
(g37
g38
Ntp728
Rp729
(dp730
g43
g32
sbsg71
(dp731
g672
I0
sg673
I0
sg674
I0
sg675
I0
ssg73
I00
sg74
(dp732
g672
I0
sg673
I0
sg674
I0
sg675
I0
ssg76
(dp733
g672
I0
sg673
I0
sg674
I0
sg675
I0
ssg78
I0
sg79
I0
sg80
g32
sg82
I0
sg83
I0
sg55
I0
sg86
I0
sg62
g63
sg93
(dp734
g695
I0
sg686
I0
sg687
I0
sg688
I0
sg693
I0
sg685
I0
sg690
I0
sg692
I0
sg689
I0
sg694
I0
sg691
I0
sg696
I0
sg697
I0
sg698
I0
sg699
I0
ssg110
(dp735
sg130
I0
sg131
g32
sg132
I0
sg136
I0
sg133
I0
sg134
F0.0
sg135
I0
sg84
(dp736
g672
I0
sg673
I0
sg674
I0
sg675
I0
ssg137
I0
sg138
g719
sg140
I0
sg141
I0
sg142
I0
sg143
I0
sg144
I0
sg145
I0
sg146
I0
sg147
g32
sbssg130
I4
sg131
g32
sg132
I0
sg136
I0
sg133
I0
sg134
F9.818181818181818
sg135
I2
sg84
(dp737
g672
I0
sg673
I0
sg674
I0
sg675
I0
ssg137
I0
sg138
g719
sg140
I0
sg141
I0
sg142
I0
sg143
I0
sg144
I9
sg145
I1
sg146
I0
sg147
S'EST'
p738
sbsS'SA_remp1'
p739
(ijoueur
joueur
p740
(dp741
g27
I0
sg28
I0
sg29
I0
sg30
F92.17856993554561
sg31
g32
sg33
I0
sg34
g32
sg35
g36
(g37
g38
Ntp742
Rp743
(dp744
g42
I4
sg43
g44
sg45
g46
sbsg47
(dp745
g49
I0
sg50
I0
sg51
I0
sg52
I0
ssg53
(dp746
g49
I0
sg50
I0
sg51
I0
sg52
I0
ssg55
I12
sg56
g32
sg57
I0
sg58
F92.17856993554561
sg59
I0
sg60
I0
sg61
I0
sg62
g63
sg64
I00
sg65
g743
sg71
(dp747
g49
I0
sg50
I10
sg51
I0
sg52
I0
ssg73
I00
sg74
(dp748
g49
I0
sg50
I0
sg51
I0
sg52
I0
ssg76
(dp749
g49
I0
sg50
I10
sg51
I0
sg52
I0
ssg78
I0
sg79
I0
sg80
S'Sthiael'
p750
sg82
I3
sg83
I0
sg84
(dp751
g49
I0
sg50
I0
sg51
I0
sg52
I0
ssg86
I84
sg87
(g88
S'TL'
p752
g32
g32
tp753
sg92
g32
sg93
(dp754
g95
I7
sg96
I7
sg97
I8
sg98
I11
sg99
I11
sg100
I8
sg101
I7
sg102
I9
sg103
I8
sg104
I10
sg105
I12
sg106
I7
sg107
I6
sg108
I11
sg109
I4
ssg110
(dp755
S's12'
p756
(ijoueur
joueur
p757
(dp758
g27
I0
sg28
I0
sg29
I0
sg33
I0
sg35
g36
(g37
g38
Ntp759
Rp760
(dp761
g43
g32
sbsg47
(dp762
g49
I0
sg50
I0
sg51
I0
sg52
I0
ssg53
(dp763
g49
I0
sg50
I0
sg51
I0
sg52
I0
ssg55
I0
sg56
g32
sg57
I0
sg59
I0
sg60
I0
sg61
I0
sg87
(g88
g752
g32
g32
tp764
sg64
I00
sg65
g36
(g37
g38
Ntp765
Rp766
(dp767
g43
g32
sbsg71
(dp768
g49
I0
sg50
I0
sg51
I0
sg52
I0
ssg73
I00
sg74
(dp769
g49
I0
sg50
I0
sg51
I0
sg52
I0
ssg76
(dp770
g49
I0
sg50
I0
sg51
I0
sg52
I0
ssg78
I0
sg79
I0
sg80
g32
sg82
I0
sg83
I0
sg84
(dp771
g49
I0
sg50
I0
sg51
I0
sg52
I0
ssg86
I0
sg62
g63
sg93
(dp772
g105
I0
sg96
I0
sg97
I0
sg98
I0
sg103
I0
sg95
I0
sg101
I0
sg102
I0
sg99
I0
sg104
I0
sg100
I0
sg106
I0
sg107
I0
sg108
I0
sg109
I0
ssg110
(dp773
sg130
I0
sg131
g32
sg132
I0
sg133
I0
sg134
F0.0
sg135
I0
sg136
I0
sg137
I0
sg138
(dp774
g95
I7
sg96
I7
sg97
I8
sg98
I11
sg103
I8
sg101
I7
sg100
I8
sg102
I9
sg99
I11
sg104
I10
sg105
I13
sg106
I8
sg107
I6
sg108
I12
sg109
I4
ssg140
I0
sg141
I0
sg142
I0
sg143
I0
sg144
I0
sg145
I0
sg146
I0
sg147
g32
sbsS's11'
p775
(ijoueur
joueur
p776
(dp777
g27
I0
sg28
I0
sg29
I0
sg33
I0
sg35
g36
(g37
g38
Ntp778
Rp779
(dp780
g43
g32
sbsg47
(dp781
g49
I0
sg50
I0
sg51
I0
sg52
I0
ssg53
(dp782
g49
I0
sg50
I0
sg51
I0
sg52
I0
ssg55
I0
sg56
g32
sg57
I0
sg59
I0
sg60
I0
sg61
I0
sg87
g764
sg64
I00
sg65
g36
(g37
g38
Ntp783
Rp784
(dp785
g43
g32
sbsg71
(dp786
g49
I0
sg50
I0
sg51
I0
sg52
I0
ssg73
I00
sg74
(dp787
g49
I0
sg50
I0
sg51
I0
sg52
I0
ssg76
(dp788
g49
I0
sg50
I0
sg51
I0
sg52
I0
ssg78
I0
sg79
I0
sg80
g32
sg82
I0
sg83
I0
sg84
(dp789
g49
I0
sg50
I0
sg51
I0
sg52
I0
ssg86
I0
sg62
g63
sg93
(dp790
g105
I0
sg96
I0
sg97
I0
sg98
I0
sg103
I0
sg95
I0
sg101
I0
sg102
I0
sg99
I0
sg104
I0
sg100
I0
sg106
I0
sg107
I0
sg108
I0
sg109
I0
ssg110
(dp791
sg130
I0
sg131
g32
sg132
I0
sg133
I0
sg134
F0.0
sg135
I0
sg136
I0
sg137
I0
sg138
g774
sg140
I0
sg141
I0
sg142
I0
sg143
I0
sg144
I0
sg145
I0
sg146
I0
sg147
g32
sbssg130
g509
(g513
S'\t\x00\x00\x00'
p792
tp793
Rp794
sg131
g32
sg132
I0
sg133
I0
sg134
F10.0
sg135
I0
sg136
I0
sg137
I1
sg138
g774
sg140
I0
sg141
I0
sg142
I0
sg143
I0
sg144
I8
sg145
I0
sg146
I1
sg147
S'HE'
p795
sbsS'drop2'
p796
g25
sS'SA_remp2'
p797
(ijoueur
joueur
p798
(dp799
g27
I0
sg28
I0
sg29
I0
sg30
F84.12757534984847
sg31
g32
sg33
I0
sg34
g32
sg35
g36
(g37
g38
Ntp800
Rp801
(dp802
g42
I4
sg43
g44
sg45
g46
sbsg47
(dp803
g49
I0
sg50
I7
sg51
I0
sg52
I0
ssg53
(dp804
g49
I0
sg50
I0
sg51
I0
sg52
I0
ssg55
I22
sg56
g32
sg57
I0
sg58
F84.12757534984847
sg59
I0
sg60
I0
sg61
I0
sg62
g63
sg64
I00
sg65
g801
sg71
(dp805
g49
I0
sg50
I2
sg51
I0
sg52
I0
ssg73
I00
sg74
(dp806
g49
I0
sg50
I0
sg51
I0
sg52
I0
ssg76
(dp807
g49
I0
sg50
I2
sg51
I0
sg52
I0
ssg78
I0
sg79
I0
sg80
S'Jtanov'
p808
sg82
I10
sg83
I0
sg84
(dp809
g49
I0
sg50
I7
sg51
I0
sg52
I0
ssg86
I170
sg87
(g88
g468
S'N8'
p810
g32
tp811
sg92
g32
sg93
(dp812
g95
I12
sg96
I9
sg97
I7
sg98
I11
sg99
I11
sg100
I6
sg101
I7
sg102
I12
sg103
I5
sg104
I10
sg105
I9
sg106
I9
sg107
I4
sg108
I8
sg109
I4
ssg110
(dp813
S's12'
p814
(ijoueur
joueur
p815
(dp816
g27
I0
sg28
I0
sg29
I0
sg33
I0
sg35
g36
(g37
g38
Ntp817
Rp818
(dp819
g43
g32
sbsg47
(dp820
g49
I0
sg50
I0
sg51
I0
sg52
I0
ssg53
(dp821
g49
I0
sg50
I0
sg51
I0
sg52
I0
ssg55
I0
sg56
g32
sg57
I0
sg59
I0
sg60
I0
sg61
I0
sg87
(g88
g468
g32
g32
tp822
sg64
I00
sg65
g36
(g37
g38
Ntp823
Rp824
(dp825
g43
g32
sbsg71
(dp826
g49
I0
sg50
I0
sg51
I0
sg52
I0
ssg73
I00
sg74
(dp827
g49
I0
sg50
I0
sg51
I0
sg52
I0
ssg76
(dp828
g49
I0
sg50
I0
sg51
I0
sg52
I0
ssg78
I0
sg79
I0
sg80
g32
sg82
I0
sg83
I0
sg84
(dp829
g49
I0
sg50
I0
sg51
I0
sg52
I0
ssg86
I0
sg62
g63
sg93
(dp830
g105
I0
sg96
I0
sg97
I0
sg98
I0
sg103
I0
sg95
I0
sg101
I0
sg102
I0
sg99
I0
sg104
I0
sg100
I0
sg106
I0
sg107
I0
sg108
I0
sg109
I0
ssg110
(dp831
sg130
I0
sg131
g32
sg132
I0
sg133
I0
sg134
F0.0
sg135
I0
sg136
I0
sg137
I0
sg138
(dp832
g95
I12
sg96
I9
sg97
I7
sg98
I11
sg103
I5
sg101
I7
sg100
I6
sg102
I12
sg99
I11
sg104
I10
sg105
I10
sg106
I10
sg107
I4
sg108
I9
sg109
I4
ssg140
I0
sg141
I0
sg142
I0
sg143
I0
sg144
I0
sg145
I0
sg146
I0
sg147
g32
sbsS's11'
p833
(ijoueur
joueur
p834
(dp835
g27
I0
sg28
I0
sg29
I0
sg33
I0
sg35
g36
(g37
g38
Ntp836
Rp837
(dp838
g43
g32
sbsg47
(dp839
g49
I0
sg50
I0
sg51
I0
sg52
I0
ssg53
(dp840
g49
I0
sg50
I0
sg51
I0
sg52
I0
ssg55
I0
sg56
g32
sg57
I0
sg59
I0
sg60
I0
sg61
I0
sg87
g822
sg64
I00
sg65
g36
(g37
g38
Ntp841
Rp842
(dp843
g43
g32
sbsg71
(dp844
g49
I0
sg50
I0
sg51
I0
sg52
I0
ssg73
I00
sg74
(dp845
g49
I0
sg50
I0
sg51
I0
sg52
I0
ssg76
(dp846
g49
I0
sg50
I0
sg51
I0
sg52
I0
ssg78
I0
sg79
I0
sg80
g32
sg82
I0
sg83
I0
sg84
(dp847
g49
I0
sg50
I0
sg51
I0
sg52
I0
ssg86
I0
sg62
g63
sg93
(dp848
g105
I0
sg96
I0
sg97
I0
sg98
I0
sg103
I0
sg95
I0
sg101
I0
sg102
I0
sg99
I0
sg104
I0
sg100
I0
sg106
I0
sg107
I0
sg108
I0
sg109
I0
ssg110
(dp849
sg130
I0
sg131
g32
sg132
I0
sg133
I0
sg134
F0.0
sg135
I0
sg136
I0
sg137
I0
sg138
g832
sg140
I0
sg141
I0
sg142
I0
sg143
I0
sg144
I0
sg145
I0
sg146
I0
sg147
g32
sbssg130
g509
(g513
S'\n\x00\x00\x00'
p850
tp851
Rp852
sg131
g32
sg132
I0
sg133
I0
sg134
F10.205882352941176
sg135
I0
sg136
I0
sg137
I0
sg138
g832
sg140
I0
sg141
I0
sg142
I0
sg143
I0
sg144
I17
sg145
I0
sg146
I0
sg147
S'K'
p853
sbssg80
csip
_unpickle_type
p854
(S'PyQt4.QtCore'
p855
S'QString'
p856
(VBIL_MAG
p857
tp858
tp859
Rp860
sS'totaux'
p861
(dp862
g19
I0
sg20
I0
sg21
I0
ssS'_compo_defaut_fatigue'
p863
Nsg93
(dp864
g4
I0
sg5
I0
sg6
I0
sg7
I0
sg8
I0
sg9
I0
sg10
I0
sg11
I0
sg12
I0
sg13
I0
sg14
I0
sg15
I0
sg16
I0
ssS'joueurs'
p865
(dp866
S'n12'
p867
(ijoueur
joueur
p868
(dp869
g27
I0
sg28
I0
sg29
I0
sg30
F84.12757534984847
sg31
g32
sg33
I0
sg34
g32
sg35
g36
(g37
g38
Ntp870
Rp871
(dp872
g42
I4
sg43
g44
sg45
g46
sbsg47
(dp873
g49
I0
sg50
I0
sg51
I0
sg52
I0
ssg53
(dp874
g49
I0
sg50
I0
sg51
I0
sg52
I0
ssg55
I18
sg56
g32
sg57
I0
sg58
F84.12757534984847
sg59
I0
sg60
I0
sg61
I0
sg62
g63
sg64
I00
sg65
g871
sg71
(dp875
g49
I0
sg50
I9
sg51
I0
sg52
I0
ssg73
I00
sg74
(dp876
g49
I0
sg50
I0
sg51
I0
sg52
I0
ssg76
(dp877
g49
I0
sg50
I9
sg51
I0
sg52
I0
ssg78
I0
sg79
I0
sg80
S'Valle'
p878
sg82
I11
sg83
I0
sg84
(dp879
g49
I0
sg50
I0
sg51
I0
sg52
I0
ssg86
I114
sg87
(g88
S'C1'
p880
g32
g32
tp881
sg92
g32
sg93
(dp882
g95
I8
sg96
I6
sg97
I10
sg98
I9
sg99
I5
sg100
I8
sg101
I8
sg102
I11
sg103
I10
sg104
I10
sg105
I8
sg106
I7
sg107
I9
sg108
I8
sg109
I4
ssg110
(dp883
S's12'
p884
(ijoueur
joueur
p885
(dp886
g27
I0
sg28
I0
sg29
I0
sg33
I0
sg35
g36
(g37
g38
Ntp887
Rp888
(dp889
g43
g32
sbsg47
(dp890
g49
I0
sg50
I0
sg51
I0
sg52
I0
ssg53
(dp891
g49
I0
sg50
I0
sg51
I0
sg52
I0
ssg55
I0
sg56
g32
sg57
I0
sg59
I0
sg60
I0
sg61
I0
sg87
(g88
S'CE'
p892
g32
g32
tp893
sg64
I00
sg65
g36
(g37
g38
Ntp894
Rp895
(dp896
g43
g32
sbsg71
(dp897
g49
I0
sg50
I0
sg51
I0
sg52
I0
ssg73
I00
sg74
(dp898
g49
I0
sg50
I0
sg51
I0
sg52
I0
ssg76
(dp899
g49
I0
sg50
I0
sg51
I0
sg52
I0
ssg78
I0
sg79
I0
sg80
g32
sg82
I0
sg83
I0
sg84
(dp900
g49
I0
sg50
I0
sg51
I0
sg52
I0
ssg86
I0
sg62
g63
sg93
(dp901
g105
I0
sg96
I0
sg97
I0
sg98
I0
sg103
I0
sg95
I0
sg101
I0
sg102
I0
sg99
I0
sg104
I0
sg100
I0
sg106
I0
sg107
I0
sg108
I0
sg109
I0
ssg110
(dp902
sg130
I0
sg131
g32
sg132
I0
sg133
I0
sg134
F0.0
sg135
I0
sg136
I0
sg137
I0
sg138
(dp903
g95
I8
sg96
I6
sg97
I10
sg98
I9
sg103
I10
sg101
I8
sg100
I8
sg102
I11
sg99
I5
sg104
I10
sg105
I9
sg106
I8
sg107
I9
sg108
I9
sg109
I4
ssg140
I0
sg141
I0
sg142
I0
sg143
I0
sg144
I0
sg145
I0
sg146
I0
sg147
g32
sbsS's11'
p904
(ijoueur
joueur
p905
(dp906
g27
I0
sg28
I0
sg29
I0
sg33
I0
sg35
g36
(g37
g38
Ntp907
Rp908
(dp909
g43
g32
sbsg47
(dp910
g49
I0
sg50
I0
sg51
I0
sg52
I0
ssg53
(dp911
g49
I0
sg50
I0
sg51
I0
sg52
I0
ssg55
I0
sg56
g32
sg57
I0
sg59
I0
sg60
I0
sg61
I0
sg87
g893
sg64
I00
sg65
g36
(g37
g38
Ntp912
Rp913
(dp914
g43
g32
sbsg71
(dp915
g49
I0
sg50
I0
sg51
I0
sg52
I0
ssg73
I00
sg74
(dp916
g49
I0
sg50
I0
sg51
I0
sg52
I0
ssg76
(dp917
g49
I0
sg50
I0
sg51
I0
sg52
I0
ssg78
I0
sg79
I0
sg80
g32
sg82
I0
sg83
I0
sg84
(dp918
g49
I0
sg50
I0
sg51
I0
sg52
I0
ssg86
I0
sg62
g63
sg93
(dp919
g105
I0
sg96
I0
sg97
I0
sg98
I0
sg103
I0
sg95
I0
sg101
I0
sg102
I0
sg99
I0
sg104
I0
sg100
I0
sg106
I0
sg107
I0
sg108
I0
sg109
I0
ssg110
(dp920
sg130
I0
sg131
g32
sg132
I0
sg133
I0
sg134
F0.0
sg135
I0
sg136
I0
sg137
I0
sg138
g903
sg140
I0
sg141
I0
sg142
I0
sg143
I0
sg144
I0
sg145
I0
sg146
I0
sg147
g32
sbssg130
g509
(g513
S'\x0b\x00\x00\x00'
p921
tp922
Rp923
sg131
g32
sg132
I0
sg133
I0
sg134
F9.233333333333333
sg135
I0
sg136
I0
sg137
I0
sg138
g903
sg140
I0
sg141
I0
sg142
I0
sg143
I0
sg144
I11
sg145
I0
sg146
I0
sg147
g148
sbsS'n13'
p924
(ijoueur
joueur
p925
(dp926
g27
I1
sg28
I0
sg29
I0
sg30
F83.65610189766097
sg31
g32
sg33
I0
sg34
g32
sg35
g36
(g37
g38
Ntp927
Rp928
(dp929
g42
I5
sg43
g459
sg45
g460
sbsg47
(dp930
g49
I0
sg50
I0
sg51
I0
sg52
I0
ssg53
(dp931
g49
I0
sg50
I0
sg51
I0
sg52
I0
ssg55
I23
sg56
g32
sg57
I0
sg58
F83.65610189766097
sg59
I0
sg60
I0
sg61
I0
sg62
g63
sg64
I00
sg65
g928
sg71
(dp932
g49
I0
sg50
I9
sg51
I0
sg52
I0
ssg73
I00
sg74
(dp933
g49
I0
sg50
I0
sg51
I0
sg52
I0
ssg76
(dp934
g49
I0
sg50
I9
sg51
I0
sg52
I0
ssg78
I0
sg79
I0
sg80
S'De Zenfet'
p935
sg82
I10
sg83
I0
sg84
(dp936
g49
I0
sg50
I0
sg51
I0
sg52
I0
ssg86
I242
sg87
(g88
S'C2'
p937
S'AR'
p938
g32
tp939
sg92
g32
sg93
(dp940
g95
I10
sg96
I5
sg97
I10
sg98
I11
sg99
I8
sg100
I10
sg101
I8
sg102
I12
sg103
I9
sg104
I11
sg105
I10
sg106
I7
sg107
I8
sg108
I9
sg109
I4
ssg110
(dp941
S's12'
p942
(ijoueur
joueur
p943
(dp944
g27
I0
sg28
I0
sg29
I0
sg33
I0
sg35
g36
(g37
g38
Ntp945
Rp946
(dp947
g43
g32
sbsg47
(dp948
g49
I0
sg50
I0
sg51
I0
sg52
I0
ssg53
(dp949
g49
I0
sg50
I0
sg51
I0
sg52
I0
ssg55
I0
sg56
g32
sg57
I0
sg59
I0
sg60
I0
sg61
I0
sg87
(g88
g892
g32
g32
tp950
sg64
I00
sg65
g36
(g37
g38
Ntp951
Rp952
(dp953
g43
g32
sbsg71
(dp954
g49
I0
sg50
I0
sg51
I0
sg52
I0
ssg73
I00
sg74
(dp955
g49
I0
sg50
I0
sg51
I0
sg52
I0
ssg76
(dp956
g49
I0
sg50
I0
sg51
I0
sg52
I0
ssg78
I0
sg79
I0
sg80
g32
sg82
I0
sg83
I0
sg84
(dp957
g49
I0
sg50
I0
sg51
I0
sg52
I0
ssg86
I0
sg62
g63
sg93
(dp958
g105
I0
sg96
I0
sg97
I0
sg98
I0
sg103
I0
sg95
I0
sg101
I0
sg102
I0
sg99
I0
sg104
I0
sg100
I0
sg106
I0
sg107
I0
sg108
I0
sg109
I0
ssg110
(dp959
sg130
I0
sg131
g32
sg132
I0
sg133
I0
sg134
F0.0
sg135
I0
sg136
I0
sg137
I0
sg138
(dp960
g95
I10
sg96
I5
sg97
I10
sg98
I11
sg103
I9
sg101
I8
sg100
I10
sg102
I12
sg99
I8
sg104
I11
sg105
I11
sg106
I8
sg107
I8
sg108
I10
sg109
I4
ssg140
I0
sg141
I0
sg142
I0
sg143
I0
sg144
I0
sg145
I0
sg146
I0
sg147
g32
sbsS's11'
p961
(ijoueur
joueur
p962
(dp963
g27
I0
sg28
I0
sg29
I0
sg33
I0
sg35
g36
(g37
g38
Ntp964
Rp965
(dp966
g43
g32
sbsg47
(dp967
g49
I0
sg50
I0
sg51
I0
sg52
I0
ssg53
(dp968
g49
I0
sg50
I0
sg51
I0
sg52
I0
ssg55
I0
sg56
g32
sg57
I0
sg59
I0
sg60
I0
sg61
I0
sg87
g950
sg64
I00
sg65
g36
(g37
g38
Ntp969
Rp970
(dp971
g43
g32
sbsg71
(dp972
g49
I0
sg50
I0
sg51
I0
sg52
I0
ssg73
I00
sg74
(dp973
g49
I0
sg50
I0
sg51
I0
sg52
I0
ssg76
(dp974
g49
I0
sg50
I0
sg51
I0
sg52
I0
ssg78
I0
sg79
I0
sg80
g32
sg82
I0
sg83
I0
sg84
(dp975
g49
I0
sg50
I0
sg51
I0
sg52
I0
ssg86
I0
sg62
g63
sg93
(dp976
g105
I0
sg96
I0
sg97
I0
sg98
I0
sg103
I0
sg95
I0
sg101
I0
sg102
I0
sg99
I0
sg104
I0
sg100
I0
sg106
I0
sg107
I0
sg108
I0
sg109
I0
ssg110
(dp977
sg130
I0
sg131
g32
sg132
I0
sg133
I0
sg134
F0.0
sg135
I0
sg136
I0
sg137
I0
sg138
g960
sg140
I0
sg141
I0
sg142
I0
sg143
I0
sg144
I0
sg145
I0
sg146
I0
sg147
g32
sbssg130
g509
(g513
S'\r\x00\x00\x00'
p978
tp979
Rp980
sg131
g32
sg132
I0
sg133
I0
sg134
F10.517241379310345
sg135
I0
sg136
I0
sg137
I0
sg138
g960
sg140
I1
sg141
I0
sg142
I0
sg143
I0
sg144
I24
sg145
I0
sg146
I0
sg147
S'B'
p981
sbsS'n10'
p982
g375
sS'n11'
p983
(ijoueur
joueur
p984
(dp985
g27
I0
sg28
I0
sg29
I0
sg30
F92.03870667955195
sg31
g32
sg33
I0
sg34
g32
sg35
g36
(g37
g38
Ntp986
Rp987
(dp988
g42
I2
sg43
S'^^'
p989
sg45
S'special'
p990
sbsg47
(dp991
g530
I0
sg531
I0
sg532
I0
sg533
I0
ssg53
(dp992
g530
I0
sg531
I0
sg532
I0
sg533
I0
ssg55
I20
sg56
g32
sg57
I0
sg58
F92.03870667955195
sg59
I0
sg60
I0
sg61
I0
sg62
g388
sg64
I00
sg65
g36
(g37
g38
Ntp993
Rp994
(dp995
g42
I1
sg43
S'^'
p996
sg45
S'base'
p997
sbsg71
(dp998
g530
I0
sg531
I0
sg532
I6
sg533
I4
ssg84
(dp999
g530
I0
sg531
I0
sg532
I0
sg533
I0
ssg74
(dp1000
g530
I0
sg531
I0
sg532
I0
sg533
I0
ssg76
(dp1001
g530
I0
sg531
I0
sg532
I6
sg533
I4
ssg78
I0
sg79
I0
sg80
S'Qiamuel'
p1002
sg82
I13
sg83
I0
sg73
I00
sg86
I12
sg87
(g540
S'AI'
p1003
S'CE'
p1004
g32
tp1005
sg92
g32
sg93
(dp1006
g544
I9
sg545
I4
sg546
I9
sg547
I8
sg548
I8
sg549
I6
sg550
I10
sg551
I11
sg552
I6
sg553
I6
sg554
I9
sg555
I7
sg556
I7
sg557
I6
sg558
I6
ssg110
(dp1007
sg130
g509
(g513
S'\x05\x00\x00\x00'
p1008
tp1009
Rp1010
sg131
g32
sg132
I0
sg133
I0
sg134
F8.548387096774194
sg135
I0
sg136
I0
sg137
I0
sg138
(dp1011
g544
I9
sg545
I4
sg546
I9
sg547
I8
sg552
I6
sg550
I10
sg549
I6
sg551
I11
sg548
I8
sg553
I6
sg554
I9
sg555
I7
sg556
I7
sg557
I6
sg558
I6
ssg140
I0
sg141
I0
sg142
I0
sg143
I0
sg144
I1
sg145
I0
sg146
I0
sg147
g602
sbsS'n16'
p1012
(ijoueur
joueur
p1013
(dp1014
g27
I0
sg28
I0
sg29
I0
sg30
F45.30807887266362
sg31
g32
sg33
I0
sg34
g32
sg35
g36
(g37
g38
Ntp1015
Rp1016
(dp1017
g42
I1
sg43
S'>'
p1018
sg45
g997
sbsg47
(dp1019
g530
I0
sg531
I0
sg532
I1
sg533
I1
ssg53
(dp1020
g530
I0
sg531
I0
sg532
I0
sg533
I0
ssg55
I13
sg56
g32
sg57
I0
sg58
F45.30807887266362
sg59
I0
sg60
I0
sg61
I0
sg62
g388
sg64
I00
sg65
g1016
sg71
(dp1021
g530
I0
sg531
I0
sg532
I2
sg533
I1
ssg84
(dp1022
g530
I0
sg531
I0
sg532
I1
sg533
I1
ssg74
(dp1023
g530
I0
sg531
I0
sg532
I0
sg533
I0
ssg76
(dp1024
g530
I0
sg531
I0
sg532
I2
sg533
I1
ssg78
I0
sg79
I0
sg80
S'Therndt'
p1025
sg82
I4
sg83
I0
sg73
I00
sg86
I9
sg87
(g540
S'PI'
p1026
S'TA'
p1027
S'DL'
p1028
tp1029
sg92
g32
sg93
(dp1030
g544
I9
sg545
I9
sg546
I7
sg547
I10
sg548
I4
sg549
I5
sg550
I8
sg551
I9
sg552
I7
sg553
I6
sg554
I6
sg555
I7
sg556
I3
sg557
I8
sg558
I7
ssg110
(dp1031
S's12'
p1032
(ijoueur
joueur
p1033
(dp1034
g27
I0
sg28
I0
sg29
I0
sg33
I0
sg35
g36
(g37
g38
Ntp1035
Rp1036
(dp1037
g43
g32
sbsg47
(dp1038
g530
I0
sg531
I0
sg532
I0
sg533
I0
ssg53
(dp1039
g530
I0
sg531
I0
sg532
I0
sg533
I0
ssg55
I0
sg56
g32
sg57
I0
sg59
I0
sg60
I0
sg61
I0
sg87
(g540
g1026
g32
g32
tp1040
sg64
I00
sg65
g36
(g37
g38
Ntp1041
Rp1042
(dp1043
g43
g32
sbsg71
(dp1044
g530
I0
sg531
I0
sg532
I0
sg533
I0
ssg84
(dp1045
g530
I0
sg531
I0
sg532
I0
sg533
I0
ssg74
(dp1046
g530
I0
sg531
I0
sg532
I0
sg533
I0
ssg76
(dp1047
g530
I0
sg531
I0
sg532
I0
sg533
I0
ssg78
I0
sg79
I0
sg80
g32
sg82
I0
sg83
I0
sg73
I00
sg86
I0
sg62
g388
sg93
(dp1048
g554
I0
sg545
I0
sg546
I0
sg547
I0
sg552
I0
sg544
I0
sg549
I0
sg551
I0
sg548
I0
sg553
I0
sg550
I0
sg555
I0
sg556
I0
sg557
I0
sg558
I0
ssg110
(dp1049
sg130
I0
sg131
g32
sg132
I0
sg133
I0
sg134
F0.0
sg135
I0
sg136
I0
sg137
I0
sg138
(dp1050
g544
I9
sg545
I9
sg546
I7
sg547
I10
sg552
I7
sg550
I8
sg549
I5
sg551
I9
sg548
I4
sg553
I6
sg554
I6
sg555
I7
sg556
I3
sg557
I8
sg558
I7
ssg140
I0
sg141
I0
sg142
I0
sg143
I0
sg144
I0
sg145
I0
sg146
I0
sg147
g32
sbsS's11'
p1051
(ijoueur
joueur
p1052
(dp1053
g27
I0
sg28
I0
sg29
I0
sg33
I0
sg35
g36
(g37
g38
Ntp1054
Rp1055
(dp1056
g43
g32
sbsg47
(dp1057
g530
I0
sg531
I0
sg532
I0
sg533
I0
ssg53
(dp1058
g530
I0
sg531
I0
sg532
I0
sg533
I0
ssg55
I0
sg56
g32
sg57
I0
sg59
I0
sg60
I0
sg61
I0
sg87
g1040
sg64
I00
sg65
g36
(g37
g38
Ntp1059
Rp1060
(dp1061
g43
g32
sbsg71
(dp1062
g530
I0
sg531
I0
sg532
I0
sg533
I0
ssg84
(dp1063
g530
I0
sg531
I0
sg532
I0
sg533
I0
ssg74
(dp1064
g530
I0
sg531
I0
sg532
I0
sg533
I0
ssg76
(dp1065
g530
I0
sg531
I0
sg532
I0
sg533
I0
ssg78
I0
sg79
I0
sg80
g32
sg82
I0
sg83
I0
sg73
I00
sg86
I0
sg62
g388
sg93
(dp1066
g554
I0
sg545
I0
sg546
I0
sg547
I0
sg552
I0
sg544
I0
sg549
I0
sg551
I0
sg548
I0
sg553
I0
sg550
I0
sg555
I0
sg556
I0
sg557
I0
sg558
I0
ssg110
(dp1067
sg130
I0
sg131
g32
sg132
I0
sg133
I0
sg134
F0.0
sg135
I0
sg136
I0
sg137
I0
sg138
g1050
sg140
I0
sg141
I0
sg142
I0
sg143
I0
sg144
I0
sg145
I0
sg146
I0
sg147
g32
sbssg130
I2
sg131
g32
sg132
I0
sg133
I0
sg134
F8.185185185185185
sg135
I0
sg136
I0
sg137
I0
sg138
g1050
sg140
I0
sg141
I0
sg142
I0
sg143
I0
sg144
I0
sg145
I0
sg146
I0
sg147
S'EMP'
p1068
sbsS'n17'
p1069
(ijoueur
joueur
p1070
(dp1071
g27
I1
sg28
I0
sg29
I0
sg30
F83.35215440871167
sg31
g32
sg33
I0
sg34
g32
sg35
g36
(g37
g38
Ntp1072
Rp1073
(dp1074
g42
I2
sg43
g989
sg45
g990
sbsg47
(dp1075
g530
I0
sg531
I0
sg532
I0
sg533
I0
ssg53
(dp1076
g530
I0
sg531
I0
sg532
I0
sg533
I0
ssg55
I24
sg56
g32
sg57
I0
sg58
F83.35215440871167
sg59
I0
sg60
I0
sg61
I0
sg62
g388
sg64
I00
sg65
g36
(g37
g38
Ntp1077
Rp1078
(dp1079
g42
I1
sg43
g996
sg45
g997
sbsg71
(dp1080
g530
I0
sg531
I0
sg532
I1
sg533
I8
ssg84
(dp1081
g530
I0
sg531
I0
sg532
I0
sg533
I0
ssg74
(dp1082
g530
I0
sg531
I0
sg532
I0
sg533
I0
ssg76
(dp1083
g530
I0
sg531
I0
sg532
I1
sg533
I8
ssg78
I0
sg79
I0
sg80
S'Tryrhg'
p1084
sg82
I13
sg83
I0
sg73
I00
sg86
I10
sg87
(g540
g1026
g32
g32
tp1085
sg92
g32
sg93
(dp1086
g544
I8
sg545
I9
sg546
I8
sg547
I9
sg548
I6
sg549
I4
sg550
I8
sg551
I10
sg552
I7
sg553
I8
sg554
I5
sg555
I8
sg556
I4
sg557
I7
sg558
I6
ssg110
(dp1087
sg130
I8
sg131
g32
sg132
I0
sg133
I0
sg134
F8.703703703703704
sg135
I0
sg136
I0
sg137
I0
sg138
(dp1088
g544
I8
sg545
I9
sg546
I8
sg547
I9
sg552
I7
sg550
I8
sg549
I4
sg551
I10
sg548
I6
sg553
I8
sg554
I6
sg555
I9
sg556
I4
sg557
I8
sg558
I6
ssg140
I1
sg141
I0
sg142
I0
sg143
I0
sg144
I1
sg145
I0
sg146
I0
sg147
S'HB'
p1089
sbsS'n14'
p1090
g25
sS'n15'
p1091
(ijoueur
joueur
p1092
(dp1093
g152
F7.7272727272727275
sg27
I0
sg153
F7.771428571428571
sg131
g32
sg29
I0
sg30
F74.08829229438231
sg31
g32
sg33
I0
sg34
g32
sg35
g36
(g37
g38
Ntp1094
Rp1095
(dp1096
g42
I5
sg43
S'**'
p1097
sg45
S'seigneur'
p1098
sbsg47
(dp1099
S'SR'
p1100
I0
sS'CT'
p1101
I0
sS'CR'
p1102
I0
sS'ST'
p1103
I0
ssg53
(dp1104
g1100
I0
sg1101
I0
sg1102
I0
sg1103
I0
ssg165
I0
sg56
S'vide 13'
p1105
sg134
F9.363636363636363
sg57
I0
sg58
F74.08829229438231
sg59
I0
sg60
I0
sg61
I0
sg62
g63
sg64
I00
sg65
g36
(g37
g38
Ntp1106
Rp1107
(dp1108
g42
I4
sg43
S'x'
p1109
sg45
S'heros'
p1110
sbsg71
(dp1111
g168
I0
sg169
I8
sg170
I0
sg171
I0
ssg73
I00
sg74
(dp1112
g168
I0
sg169
I0
sg170
I0
sg171
I0
ssg76
(dp1113
g1100
I0
sg1101
I8
sg1102
I0
sg1103
I0
ssg78
I0
sg79
I0
sg80
S'Quendal'
p1114
sg82
I8
sg83
I0
sg55
I17
sg86
I103
sg87
(S'dummy'
p1115
S'AR'
p1116
S'CE'
p1117
S'AI'
p1118
tp1119
sg92
g32
sg93
(dp1120
S'RP1'
p1121
I7
sS'ME'
p1122
I2
sS'RP2'
p1123
I8
sS'E'
p1124
I8
sS'TO'
p1125
I8
sS'M'
p1126
I8
sS'JP'
p1127
I8
sS'RP_tot'
p1128
I9
sS'P'
p1129
I9
sS'PA'
p1130
I11
sS'A'
p1131
I10
sS'R'
p1132
I6
sS'TB'
p1133
I8
sS'PL'
p1134
I9
sS'TA'
p1135
I5
ssg110
(dp1136
g196
(ijoueur
joueur
p1137
(dp1138
g152
F7.7272727272727275
sg27
I0
sg131
g32
sg29
I0
sg31
g32
sg33
I0
sg34
g32
sg35
g36
(g37
g38
Ntp1139
Rp1140
(dp1141
g42
I5
sg43
S'**'
p1142
sg45
S'seigneur'
p1143
sbsg47
(dp1144
S'SR'
p1145
I0
sS'CT'
p1146
I0
sS'CR'
p1147
I0
sS'ST'
p1148
I0
ssg53
(dp1149
g1145
I0
sg1146
I0
sg1147
I0
sg1148
I0
ssg56
g32
sg57
I0
sg73
I00
sg59
I0
sg60
I0
sg61
I0
sg62
g210
sg64
I00
sg65
g36
(g37
g38
Ntp1150
Rp1151
(dp1152
g42
I3
sg43
S'^^^'
p1153
sg45
S'rare'
p1154
sbsg71
(dp1155
g212
I0
sg213
I0
sg214
I0
sg215
I0
ssg84
(dp1156
g212
I0
sg213
I0
sg214
I0
sg215
I0
ssg74
(dp1157
g212
I0
sg213
I0
sg214
I0
sg215
I0
ssg76
(dp1158
g1145
I0
sg1146
I0
sg1147
I0
sg1148
I0
ssg78
I0
sg79
I0
sg80
S'Quendal'
p1159
sg82
I8
sg83
I0
sg55
I17
sg86
I38
sg87
(S'dummy'
p1160
S'AR'
p1161
S'CE'
p1162
S'AI'
p1163
tp1164
sg92
g32
sg93
(dp1165
S'RP1'
p1166
I6
sS'ME'
p1167
I1
sS'RP2'
p1168
I6
sS'E'
p1169
I8
sS'P'
p1170
I8
sS'JP'
p1171
I7
sS'M'
p1172
I8
sS'RP_tot'
p1173
I6
sS'TO'
p1174
I6
sS'PA'
p1175
I8
sS'A'
p1176
I9
sS'R'
p1177
I6
sS'TB'
p1178
I8
sS'PL'
p1179
I8
sS'TA'
p1180
I4
ssg110
(dp1181
g241
(ijoueur
joueur
p1182
(dp1183
g27
I0
sg29
I0
sg31
g32
sg33
I0
sg34
g32
sg35
g36
(g37
g38
Ntp1184
Rp1185
(dp1186
g42
I5
sg43
S'**'
p1187
sg45
S'seigneur'
p1188
sbsg47
(dp1189
S'SR'
p1190
I0
sS'ST'
p1191
I0
sS'CR'
p1192
I0
sS'CT'
p1193
I0
ssg53
(dp1194
g1190
I0
sg1191
I0
sg1192
I0
sg1193
I0
ssg56
g32
sg57
I0
sg73
I00
sg59
I0
sg60
I0
sg61
I0
sg62
S'vide'
p1195
sg64
I00
sg65
g36
(g37
g38
Ntp1196
Rp1197
(dp1198
g42
I2
sg43
S'^^'
p1199
sg45
S'special'
p1200
sbsg71
(dp1201
g1190
I0
sg1191
I0
sg1192
I0
sg1193
I0
ssg84
(dp1202
g1190
I0
sg1191
I0
sg1192
I0
sg1193
I0
ssg74
(dp1203
g1190
I0
sg1191
I0
sg1192
I0
sg1193
I0
ssg76
(dp1204
g1190
I0
sg1191
I0
sg1192
I0
sg1193
I0
ssg78
I0
sg79
I0
sg80
S'Quendal'
p1205
sg82
I8
sg83
I0
sg55
I17
sg86
I38
sg87
(S'dummy'
p1206
S'AR'
p1207
S'CE'
p1208
S'AI'
p1209
tp1210
sg92
g32
sg93
(dp1211
S'RP1'
p1212
I6
sS'ME'
p1213
I1
sS'RP2'
p1214
I6
sS'E'
p1215
I8
sS'TO'
p1216
I5
sS'M'
p1217
I9
sS'JP'
p1218
I7
sS'RP_tot'
p1219
I6
sS'P'
p1220
I8
sS'PA'
p1221
I8
sS'A'
p1222
I8
sS'R'
p1223
I7
sS'TB'
p1224
I7
sS'PL'
p1225
I8
sS'TA'
p1226
I4
ssg130
I0
sg28
I0
sg132
I0
sg133
I0
sg134
F7.7272727272727275
sg135
I0
sg136
I0
sg137
I0
sg286
(dp1227
S'RP1'
p1228
I6
sS'ME'
p1229
I1
sS'RP2'
p1230
I6
sS'E'
p1231
I8
sS'TO'
p1232
I5
sS'M'
p1233
I9
sS'JP'
p1234
I7
sS'RP_tot'
p1235
I6
sS'P'
p1236
I8
sS'PA'
p1237
I8
sS'A'
p1238
I8
sS'R'
p1239
I7
sS'TB'
p1240
I7
sS'PL'
p1241
I8
sS'TA'
p1242
I4
ssg138
g1211
sg140
I0
sg141
I0
sg142
I0
sg143
I0
sg144
I3
sg145
I0
sg146
I0
sg147
S'EST'
p1243
sbssg130
I0
sg28
I0
sg132
I0
sg133
I0
sg134
F7.771428571428571
sg135
I0
sg136
I0
sg137
I0
sg286
(dp1244
g1166
I6
sg1167
I1
sg1168
I6
sg1169
I8
sg1174
I5
sg1172
I9
sg1171
I7
sg1173
I6
sg1170
I8
sg1175
I8
sg1176
I8
sg1177
I7
sg1178
I7
sg1179
I8
sg1180
I4
ssg138
g1165
sg140
I0
sg141
I0
sg142
I0
sg143
I0
sg144
I3
sg145
I0
sg146
I0
sg147
S'EST'
p1245
sbsg306
(ijoueur
joueur
p1246
(dp1247
g27
I0
sg29
I0
sg31
g32
sg33
I0
sg34
g32
sg35
g36
(g37
g38
Ntp1248
Rp1249
(dp1250
g42
I5
sg43
S'**'
p1251
sg45
S'seigneur'
p1252
sbsg47
(dp1253
S'SR'
p1254
I0
sS'ST'
p1255
I0
sS'CR'
p1256
I0
sS'CT'
p1257
I0
ssg53
(dp1258
g1254
I0
sg1255
I0
sg1256
I0
sg1257
I0
ssg56
g32
sg57
I0
sg73
I00
sg59
I0
sg60
I0
sg61
I0
sg62
S'vide'
p1259
sg64
I00
sg65
g36
(g37
g38
Ntp1260
Rp1261
(dp1262
g42
I2
sg43
S'^^'
p1263
sg45
S'special'
p1264
sbsg71
(dp1265
g1254
I0
sg1255
I0
sg1256
I0
sg1257
I0
ssg84
(dp1266
g1254
I0
sg1255
I0
sg1256
I0
sg1257
I0
ssg74
(dp1267
g1254
I0
sg1255
I0
sg1256
I0
sg1257
I0
ssg76
(dp1268
g1254
I0
sg1255
I0
sg1256
I0
sg1257
I0
ssg78
I0
sg79
I0
sg80
S'Quendal'
p1269
sg82
I8
sg83
I0
sg55
I17
sg86
I38
sg87
(S'dummy'
p1270
S'AR'
p1271
S'CE'
p1272
S'AI'
p1273
tp1274
sg92
g32
sg93
(dp1275
S'RP1'
p1276
I6
sS'ME'
p1277
I1
sS'RP2'
p1278
I6
sS'E'
p1279
I8
sS'TO'
p1280
I5
sS'M'
p1281
I9
sS'JP'
p1282
I7
sS'RP_tot'
p1283
I6
sS'P'
p1284
I8
sS'PA'
p1285
I8
sS'A'
p1286
I8
sS'R'
p1287
I7
sS'TB'
p1288
I7
sS'PL'
p1289
I8
sS'TA'
p1290
I4
ssg130
I0
sg28
I0
sg132
I0
sg133
I0
sg134
F7.7272727272727275
sg135
I0
sg136
I0
sg137
I0
sg286
(dp1291
S'RP1'
p1292
I6
sS'ME'
p1293
I1
sS'RP2'
p1294
I6
sS'E'
p1295
I8
sS'TO'
p1296
I5
sS'M'
p1297
I9
sS'JP'
p1298
I7
sS'RP_tot'
p1299
I6
sS'P'
p1300
I8
sS'PA'
p1301
I8
sS'A'
p1302
I8
sS'R'
p1303
I7
sS'TB'
p1304
I7
sS'PL'
p1305
I8
sS'TA'
p1306
I4
ssg138
g1275
sg140
I0
sg141
I0
sg142
I0
sg143
I0
sg144
I3
sg145
I0
sg146
I0
sg147
S'EST'
p1307
sbssg130
g509
(g513
S'\x08\x00\x00\x00'
p1308
tp1309
Rp1310
sg28
I0
sg132
I0
sg133
I0
sg84
(dp1311
g168
I0
sg169
I0
sg170
I0
sg171
I0
ssg135
I0
sg136
I0
sg137
I0
sg286
(dp1312
g1121
I6
sg1122
I1
sg1123
I6
sg1124
I8
sg1125
I5
sg1126
I9
sg1127
I7
sg1128
I6
sg1129
I8
sg1130
I8
sg1131
I8
sg1132
I7
sg1133
I7
sg1134
I8
sg1135
I4
ssg138
(dp1313
g1121
I7
sg1122
I2
sg1123
I8
sg1124
I8
sg1129
I9
sg1127
I8
sg1126
I8
sg1128
I9
sg1125
I8
sg1130
I11
sg1131
I11
sg1132
I7
sg1133
I8
sg1134
I10
sg1135
I5
ssg140
I0
sg371
(dp1314
sg141
I0
sg142
I0
sg143
I0
sg144
I9
sg145
I0
sg146
I0
sg147
S'EST'
p1315
sbsS'n18'
p1316
(ijoueur
joueur
p1317
(dp1318
g27
I0
sg28
I0
sg29
I0
sg30
F82.61283546362986
sg31
g32
sg33
I0
sg34
g32
sg35
g36
(g37
g38
Ntp1319
Rp1320
(dp1321
g42
I3
sg43
S'<<<'
p1322
sg45
g70
sbsg47
(dp1323
g49
I0
sg50
I3
sg51
I4
sg52
I0
ssg53
(dp1324
g49
I0
sg50
I0
sg51
I0
sg52
I0
ssg55
I19
sg56
g32
sg57
I0
sg58
F82.61283546362986
sg59
I0
sg60
I0
sg61
I0
sg62
g63
sg64
I00
sg65
g1320
sg71
(dp1325
g49
I0
sg50
I2
sg51
I0
sg52
I0
ssg73
I00
sg74
(dp1326
g49
I0
sg50
I0
sg51
I0
sg52
I0
ssg76
(dp1327
g49
I0
sg50
I2
sg51
I0
sg52
I0
ssg78
I0
sg79
I0
sg80
S'Qelopie'
p1328
sg82
I6
sg83
I0
sg84
(dp1329
g49
I0
sg50
I3
sg51
I4
sg52
I0
ssg86
I25
sg87
(g88
g752
S'DL'
p1330
g32
tp1331
sg92
g32
sg93
(dp1332
g95
I6
sg96
I9
sg97
I6
sg98
I9
sg99
I8
sg100
I8
sg101
I4
sg102
I7
sg103
I4
sg104
I7
sg105
I8
sg106
I11
sg107
I4
sg108
I9
sg109
I6
ssg110
(dp1333
S's12'
p1334
(ijoueur
joueur
p1335
(dp1336
g27
I0
sg28
I0
sg29
I0
sg33
I0
sg35
g36
(g37
g38
Ntp1337
Rp1338
(dp1339
g43
g32
sbsg47
(dp1340
g49
I0
sg50
I0
sg51
I0
sg52
I0
ssg53
(dp1341
g49
I0
sg50
I0
sg51
I0
sg52
I0
ssg55
I0
sg56
g32
sg57
I0
sg59
I0
sg60
I0
sg61
I0
sg87
(g88
g752
g32
g32
tp1342
sg64
I00
sg65
g36
(g37
g38
Ntp1343
Rp1344
(dp1345
g43
g32
sbsg71
(dp1346
g49
I0
sg50
I0
sg51
I0
sg52
I0
ssg73
I00
sg74
(dp1347
g49
I0
sg50
I0
sg51
I0
sg52
I0
ssg76
(dp1348
g49
I0
sg50
I0
sg51
I0
sg52
I0
ssg78
I0
sg79
I0
sg80
g32
sg82
I0
sg83
I0
sg84
(dp1349
g49
I0
sg50
I0
sg51
I0
sg52
I0
ssg86
I0
sg62
g63
sg93
(dp1350
g105
I0
sg96
I0
sg97
I0
sg98
I0
sg103
I0
sg95
I0
sg101
I0
sg102
I0
sg99
I0
sg104
I0
sg100
I0
sg106
I0
sg107
I0
sg108
I0
sg109
I0
ssg110
(dp1351
sg130
I0
sg131
g32
sg132
I0
sg133
I0
sg134
F0.0
sg135
I0
sg136
I0
sg137
I0
sg138
(dp1352
g95
I6
sg96
I9
sg97
I6
sg98
I9
sg103
I4
sg101
I4
sg100
I8
sg102
I7
sg99
I8
sg104
I7
sg105
I8
sg106
I11
sg107
I4
sg108
I9
sg109
I6
ssg140
I0
sg141
I0
sg142
I0
sg143
I0
sg144
I0
sg145
I0
sg146
I0
sg147
g32
sbsS's11'
p1353
(ijoueur
joueur
p1354
(dp1355
g27
I0
sg28
I0
sg29
I0
sg33
I0
sg35
g36
(g37
g38
Ntp1356
Rp1357
(dp1358
g43
g32
sbsg47
(dp1359
g49
I0
sg50
I0
sg51
I0
sg52
I0
ssg53
(dp1360
g49
I0
sg50
I0
sg51
I0
sg52
I0
ssg55
I0
sg56
g32
sg57
I0
sg59
I0
sg60
I0
sg61
I0
sg87
g1342
sg64
I00
sg65
g36
(g37
g38
Ntp1361
Rp1362
(dp1363
g43
g32
sbsg71
(dp1364
g49
I0
sg50
I0
sg51
I0
sg52
I0
ssg73
I00
sg74
(dp1365
g49
I0
sg50
I0
sg51
I0
sg52
I0
ssg76
(dp1366
g49
I0
sg50
I0
sg51
I0
sg52
I0
ssg78
I0
sg79
I0
sg80
g32
sg82
I0
sg83
I0
sg84
(dp1367
g49
I0
sg50
I0
sg51
I0
sg52
I0
ssg86
I0
sg62
g63
sg93
(dp1368
g105
I0
sg96
I0
sg97
I0
sg98
I0
sg103
I0
sg95
I0
sg101
I0
sg102
I0
sg99
I0
sg104
I0
sg100
I0
sg106
I0
sg107
I0
sg108
I0
sg109
I0
ssg110
(dp1369
sg130
I0
sg131
g32
sg132
I0
sg133
I0
sg134
F0.0
sg135
I0
sg136
I0
sg137
I0
sg138
g1352
sg140
I0
sg141
I0
sg142
I0
sg143
I0
sg144
I0
sg145
I0
sg146
I0
sg147
g32
sbssg130
I4
sg131
g32
sg132
I0
sg133
I0
sg134
F9.096774193548388
sg135
I0
sg136
I0
sg137
I0
sg138
g1352
sg140
I0
sg141
I0
sg142
I0
sg143
I0
sg144
I2
sg145
I0
sg146
I0
sg147
g148
sbsS'n19'
p1370
(ijoueur
joueur
p1371
(dp1372
g152
F8.241379310344827
sg27
I0
sg153
F8.758620689655173
sg131
g32
sg29
I0
sg30
F83.24631801741008
sg31
g32
sg33
I0
sg34
g32
sg35
g36
(g37
g38
Ntp1373
Rp1374
(dp1375
g42
I4
sg43
S'x'
p1376
sg45
S'heros'
p1377
sbsg47
(dp1378
S'SR'
p1379
I0
sS'CT'
p1380
I0
sS'CR'
p1381
I0
sS'ST'
p1382
I0
ssg53
(dp1383
g1379
I0
sg1380
I0
sg1381
I0
sg1382
I0
ssg165
I0
sg56
S'vide 13'
p1384
sg134
F9.448275862068966
sg57
I0
sg58
F83.24631801741008
sg59
I0
sg60
I0
sg61
I0
sg62
g63
sg64
I00
sg65
g36
(g37
g38
Ntp1385
Rp1386
(dp1387
g42
I3
sg43
S'^^^'
p1388
sg45
S'rare'
p1389
sbsg71
(dp1390
g168
I0
sg169
I3
sg170
I6
sg171
I0
ssg73
I00
sg74
(dp1391
g168
I0
sg169
I0
sg170
I0
sg171
I0
ssg76
(dp1392
g1379
I0
sg1380
I3
sg1381
I6
sg1382
I0
ssg78
I0
sg79
I0
sg80
S'Lucas'
p1393
sg82
I9
sg83
I0
sg55
I18
sg86
I28
sg87
(S'dummy'
p1394
S'N8'
p1395
g32
g32
tp1396
sg92
g32
sg93
(dp1397
S'RP1'
p1398
I7
sS'ME'
p1399
I10
sS'RP2'
p1400
I7
sS'E'
p1401
I10
sS'TO'
p1402
I9
sS'M'
p1403
I8
sS'JP'
p1404
I4
sS'RP_tot'
p1405
I8
sS'P'
p1406
I5
sS'PA'
p1407
I8
sS'A'
p1408
I11
sS'R'
p1409
I10
sS'TB'
p1410
I6
sS'PL'
p1411
I9
sS'TA'
p1412
I4
ssg110
(dp1413
g196
(ijoueur
joueur
p1414
(dp1415
g152
F8.241379310344827
sg27
I0
sg131
g32
sg29
I0
sg31
g32
sg33
I0
sg34
g32
sg35
g36
(g37
g38
Ntp1416
Rp1417
(dp1418
g42
I4
sg43
S'x'
p1419
sg45
S'heros'
p1420
sbsg47
(dp1421
S'SR'
p1422
I0
sS'ST'
p1423
I0
sS'CR'
p1424
I0
sS'CT'
p1425
I0
ssg53
(dp1426
g1422
I0
sg1423
I0
sg1424
I0
sg1425
I0
ssg56
g32
sg57
I0
sg73
I00
sg59
I0
sg60
I0
sg61
I0
sg62
S'vide'
p1427
sg64
I01
sg65
g36
(g37
g38
Ntp1428
Rp1429
(dp1430
g42
I2
sg43
S'^^'
p1431
sg45
S'special'
p1432
sbsg71
(dp1433
S'SR'
p1434
I0
sS'ST'
p1435
I0
sS'CR'
p1436
I0
sS'CT'
p1437
I0
ssg84
(dp1438
g1434
I0
sg1435
I0
sg1436
I0
sg1437
I0
ssg74
(dp1439
g1434
I0
sg1435
I0
sg1436
I0
sg1437
I0
ssg76
(dp1440
g1422
I0
sg1423
I0
sg1424
I0
sg1425
I0
ssg78
I0
sg79
I0
sg80
S'Lucas'
p1441
sg82
I9
sg83
I0
sg55
I18
sg86
I28
sg87
(S'dummy'
p1442
S'N8'
p1443
g32
g32
tp1444
sg92
g32
sg93
(dp1445
S'RP1'
p1446
I7
sS'ME'
p1447
I10
sS'RP2'
p1448
I7
sS'E'
p1449
I9
sS'TO'
p1450
I7
sS'M'
p1451
I8
sS'JP'
p1452
I4
sS'RP_tot'
p1453
I7
sS'P'
p1454
I5
sS'PA'
p1455
I7
sS'A'
p1456
I10
sS'R'
p1457
I9
sS'TB'
p1458
I6
sS'PL'
p1459
I9
sS'TA'
p1460
I4
ssg110
(dp1461
S's11'
p1462
(ijoueur
joueur
p1463
(dp1464
g27
I0
sg29
I0
sg31
g32
sg33
I0
sg34
g32
sg35
g36
(g37
g38
Ntp1465
Rp1466
(dp1467
g42
I4
sg43
S'x'
p1468
sg45
S'heros'
p1469
sbsg47
(dp1470
S'SR'
p1471
I0
sS'CT'
p1472
I0
sS'CR'
p1473
I0
sS'ST'
p1474
I0
ssg53
(dp1475
g1471
I0
sg1472
I0
sg1473
I0
sg1474
I0
ssg56
g32
sg57
I0
sg73
I01
sg59
I0
sg60
I0
sg61
I0
sg62
S'vide'
p1476
sg64
I00
sg65
g36
(g37
g38
Ntp1477
Rp1478
(dp1479
g42
I1
sg43
S'<'
p1480
sg45
S'base'
p1481
sbsg71
(dp1482
g1471
I0
sg1472
I0
sg1473
I0
sg1474
I0
ssg84
(dp1483
g1471
I0
sg1472
I0
sg1473
I0
sg1474
I0
ssg74
(dp1484
g1471
I0
sg1472
I0
sg1473
I0
sg1474
I0
ssg76
(dp1485
g1471
I0
sg1472
I0
sg1473
I0
sg1474
I0
ssg78
I0
sg79
I0
sg80
S'Lucas'
p1486
sg82
I9
sg83
I0
sg55
I18
sg86
I11
sg87
(S'dummy'
p1487
S'N8'
p1488
g32
g32
tp1489
sg92
g32
sg93
(dp1490
S'RP1'
p1491
I7
sS'ME'
p1492
I10
sS'RP2'
p1493
I7
sS'E'
p1494
I8
sS'P'
p1495
I4
sS'JP'
p1496
I3
sS'M'
p1497
I7
sS'RP_tot'
p1498
I7
sS'TO'
p1499
I7
sS'PA'
p1500
I7
sS'A'
p1501
I9
sS'R'
p1502
I8
sS'TB'
p1503
I5
sS'PL'
p1504
I9
sS'TA'
p1505
I4
ssg130
I0
sg28
I0
sg132
I0
sg133
I0
sg134
F8.241379310344827
sg135
I0
sg136
I0
sg137
I0
sg286
(dp1506
S'RP1'
p1507
I7
sS'ME'
p1508
I10
sS'RP2'
p1509
I7
sS'E'
p1510
I8
sS'P'
p1511
I4
sS'JP'
p1512
I3
sS'M'
p1513
I7
sS'RP_tot'
p1514
I7
sS'TO'
p1515
I7
sS'PA'
p1516
I7
sS'A'
p1517
I9
sS'R'
p1518
I8
sS'TB'
p1519
I5
sS'PL'
p1520
I9
sS'TA'
p1521
I4
ssg138
g1490
sg140
I0
sg141
I0
sg142
I0
sg143
I0
sg144
I1
sg145
I0
sg146
I0
sg147
S'EST'
p1522
sbssg130
I0
sg28
I0
sg132
I0
sg133
I0
sg134
F8.758620689655173
sg135
I0
sg136
I0
sg137
I0
sg286
(dp1523
g1446
I7
sg1447
I10
sg1448
I7
sg1449
I8
sg1454
I4
sg1452
I3
sg1451
I7
sg1453
I7
sg1450
I7
sg1455
I7
sg1456
I9
sg1457
I8
sg1458
I5
sg1459
I9
sg1460
I4
ssg138
g1445
sg140
I0
sg141
I0
sg142
I0
sg143
I0
sg144
I2
sg145
I0
sg146
I0
sg147
S'EST'
p1524
sbsg306
(ijoueur
joueur
p1525
(dp1526
g27
I0
sg29
I0
sg31
g32
sg33
I0
sg34
g32
sg35
g36
(g37
g38
Ntp1527
Rp1528
(dp1529
g42
I4
sg43
S'x'
p1530
sg45
S'heros'
p1531
sbsg47
(dp1532
S'SR'
p1533
I0
sS'ST'
p1534
I0
sS'CR'
p1535
I0
sS'CT'
p1536
I0
ssg53
(dp1537
g1533
I0
sg1534
I0
sg1535
I0
sg1536
I0
ssg56
g32
sg57
I0
sg73
I01
sg59
I0
sg60
I0
sg61
I0
sg62
S'vide'
p1538
sg64
I00
sg65
g36
(g37
g38
Ntp1539
Rp1540
(dp1541
g42
I1
sg43
S'<'
p1542
sg45
S'base'
p1543
sbsg71
(dp1544
g1533
I0
sg1534
I0
sg1535
I0
sg1536
I0
ssg84
(dp1545
g1533
I0
sg1534
I0
sg1535
I0
sg1536
I0
ssg74
(dp1546
g1533
I0
sg1534
I0
sg1535
I0
sg1536
I0
ssg76
(dp1547
g1533
I0
sg1534
I0
sg1535
I0
sg1536
I0
ssg78
I0
sg79
I0
sg80
S'Lucas'
p1548
sg82
I9
sg83
I0
sg55
I18
sg86
I11
sg87
(S'dummy'
p1549
S'N8'
p1550
g32
g32
tp1551
sg92
g32
sg93
(dp1552
S'RP1'
p1553
I7
sS'ME'
p1554
I10
sS'RP2'
p1555
I7
sS'E'
p1556
I8
sS'TO'
p1557
I7
sS'M'
p1558
I7
sS'JP'
p1559
I3
sS'RP_tot'
p1560
I7
sS'P'
p1561
I4
sS'PA'
p1562
I7
sS'A'
p1563
I9
sS'R'
p1564
I8
sS'TB'
p1565
I5
sS'PL'
p1566
I9
sS'TA'
p1567
I4
ssg130
I0
sg28
I0
sg132
I0
sg133
I0
sg134
F8.241379310344827
sg135
I0
sg136
I0
sg137
I0
sg286
(dp1568
S'RP1'
p1569
I7
sS'ME'
p1570
I10
sS'RP2'
p1571
I7
sS'E'
p1572
I8
sS'TO'
p1573
I7
sS'M'
p1574
I7
sS'JP'
p1575
I3
sS'RP_tot'
p1576
I7
sS'P'
p1577
I4
sS'PA'
p1578
I7
sS'A'
p1579
I9
sS'R'
p1580
I8
sS'TB'
p1581
I5
sS'PL'
p1582
I9
sS'TA'
p1583
I4
ssg138
g1552
sg140
I0
sg141
I0
sg142
I0
sg143
I0
sg144
I1
sg145
I0
sg146
I0
sg147
S'EST'
p1584
sbssg130
I6
sg28
I0
sg132
I0
sg133
I0
sg84
(dp1585
g168
I0
sg169
I0
sg170
I0
sg171
I0
ssg135
I0
sg136
I0
sg137
I0
sg286
(dp1586
g1398
I7
sg1399
I10
sg1400
I7
sg1401
I8
sg1402
I7
sg1403
I7
sg1404
I3
sg1405
I7
sg1406
I4
sg1407
I7
sg1408
I9
sg1409
I8
sg1410
I5
sg1411
I9
sg1412
I4
ssg138
(dp1587
g1398
I7
sg1399
I10
sg1400
I7
sg1401
I10
sg1406
I5
sg1404
I4
sg1403
I8
sg1405
I8
sg1402
I9
sg1407
I8
sg1408
I11
sg1409
I10
sg1410
I6
sg1411
I9
sg1412
I4
ssg140
I0
sg371
(dp1588
sg141
I0
sg142
I0
sg143
I0
sg144
I2
sg145
I0
sg146
I0
sg147
S'EST'
p1589
sbsS'n22'
p1590
(ijoueur
joueur
p1591
(dp1592
g27
I0
sg28
I0
sg29
I0
sg30
F45.30807887266362
sg31
g32
sg33
I0
sg34
g32
sg35
g36
(g37
g38
Ntp1593
Rp1594
(dp1595
g42
I1
sg43
S'<'
p1596
sg45
g997
sbsg47
(dp1597
g530
I0
sg531
I0
sg532
I0
sg533
I0
ssg53
(dp1598
g530
I0
sg531
I0
sg532
I0
sg533
I0
ssg55
I17
sg56
g32
sg57
I0
sg58
F45.30807887266362
sg59
I0
sg60
I0
sg61
I0
sg62
g388
sg64
I00
sg65
g1594
sg71
(dp1599
g530
I0
sg531
I0
sg532
I4
sg533
I1
ssg84
(dp1600
g530
I0
sg531
I0
sg532
I0
sg533
I0
ssg74
(dp1601
g530
I0
sg531
I0
sg532
I0
sg533
I0
ssg76
(dp1602
g530
I0
sg531
I0
sg532
I4
sg533
I1
ssg78
I0
sg79
I0
sg80
S'Blenfol'
p1603
sg82
I5
sg83
I0
sg73
I00
sg86
I15
sg87
(g540
g1003
S'DM'
p1604
g32
tp1605
sg92
g32
sg93
(dp1606
g544
I7
sg545
I4
sg546
I7
sg547
I9
sg548
I7
sg549
I5
sg550
I10
sg551
I8
sg552
I4
sg553
I10
sg554
I7
sg555
I6
sg556
I6
sg557
I7
sg558
I6
ssg110
(dp1607
S's12'
p1608
(ijoueur
joueur
p1609
(dp1610
g27
I0
sg28
I0
sg29
I0
sg33
I0
sg35
g36
(g37
g38
Ntp1611
Rp1612
(dp1613
g43
g32
sbsg47
(dp1614
g530
I0
sg531
I0
sg532
I0
sg533
I0
ssg53
(dp1615
g530
I0
sg531
I0
sg532
I0
sg533
I0
ssg55
I0
sg56
g32
sg57
I0
sg59
I0
sg60
I0
sg61
I0
sg87
(g540
g1003
g32
g32
tp1616
sg64
I00
sg65
g36
(g37
g38
Ntp1617
Rp1618
(dp1619
g43
g32
sbsg71
(dp1620
g530
I0
sg531
I0
sg532
I0
sg533
I0
ssg84
(dp1621
g530
I0
sg531
I0
sg532
I0
sg533
I0
ssg74
(dp1622
g530
I0
sg531
I0
sg532
I0
sg533
I0
ssg76
(dp1623
g530
I0
sg531
I0
sg532
I0
sg533
I0
ssg78
I0
sg79
I0
sg80
S'Blenfol (12)'
p1624
sg82
I0
sg83
I0
sg73
I00
sg86
I0
sg62
g388
sg93
(dp1625
g554
I0
sg545
I0
sg546
I0
sg547
I0
sg552
I0
sg544
I0
sg549
I0
sg551
I0
sg548
I0
sg553
I0
sg550
I0
sg555
I0
sg556
I0
sg557
I0
sg558
I0
ssg110
(dp1626
sg130
I0
sg131
g32
sg132
I0
sg133
I0
sg134
F0.0
sg135
I0
sg136
I0
sg137
I0
sg138
(dp1627
g544
I7
sg545
I4
sg546
I7
sg547
I9
sg552
I4
sg550
I10
sg549
I5
sg551
I8
sg548
I7
sg553
I10
sg554
I7
sg555
I6
sg556
I6
sg557
I7
sg558
I6
ssg140
I0
sg141
I0
sg142
I0
sg143
I0
sg144
I0
sg145
I0
sg146
I0
sg147
g32
sbsS's11'
p1628
(ijoueur
joueur
p1629
(dp1630
g27
I0
sg28
I0
sg29
I0
sg33
I0
sg35
g36
(g37
g38
Ntp1631
Rp1632
(dp1633
g43
g32
sbsg47
(dp1634
g530
I0
sg531
I0
sg532
I0
sg533
I0
ssg53
(dp1635
g530
I0
sg531
I0
sg532
I0
sg533
I0
ssg55
I0
sg56
g32
sg57
I0
sg59
I0
sg60
I0
sg61
I0
sg87
g1616
sg64
I00
sg65
g36
(g37
g38
Ntp1636
Rp1637
(dp1638
g43
g32
sbsg71
(dp1639
g530
I0
sg531
I0
sg532
I0
sg533
I0
ssg84
(dp1640
g530
I0
sg531
I0
sg532
I0
sg533
I0
ssg74
(dp1641
g530
I0
sg531
I0
sg532
I0
sg533
I0
ssg76
(dp1642
g530
I0
sg531
I0
sg532
I0
sg533
I0
ssg78
I0
sg79
I0
sg80
S'Blenfol (11)'
p1643
sg82
I0
sg83
I0
sg73
I00
sg86
I0
sg62
g388
sg93
(dp1644
g554
I0
sg545
I0
sg546
I0
sg547
I0
sg552
I0
sg544
I0
sg549
I0
sg551
I0
sg548
I0
sg553
I0
sg550
I0
sg555
I0
sg556
I0
sg557
I0
sg558
I0
ssg110
(dp1645
sg130
I0
sg131
g32
sg132
I0
sg133
I0
sg134
F0.0
sg135
I0
sg136
I0
sg137
I0
sg138
g1627
sg140
I0
sg141
I0
sg142
I0
sg143
I0
sg144
I0
sg145
I0
sg146
I0
sg147
g32
sbssg130
I1
sg131
g32
sg132
I0
sg133
I0
sg134
F8.129032258064516
sg135
I0
sg136
I0
sg137
I0
sg138
g1627
sg140
I0
sg141
I0
sg142
I0
sg143
I0
sg144
I1
sg145
I0
sg146
I0
sg147
g602
sbsS'n21'
p1646
(ijoueur
joueur
p1647
(dp1648
g27
I0
sg28
I0
sg29
I0
sg30
F36.53095951015629
sg31
g32
sg33
I0
sg34
g32
sg35
g36
(g37
g38
Ntp1649
Rp1650
(dp1651
g42
I4
sg43
S'x'
p1652
sg45
g528
sbsg47
(dp1653
g530
I0
sg531
I0
sg532
I0
sg533
I0
ssg53
(dp1654
g530
I0
sg531
I0
sg532
I0
sg533
I0
ssg55
I23
sg56
g32
sg57
I0
sg58
F36.53095951015629
sg59
I0
sg60
I0
sg61
I0
sg62
g388
sg64
I00
sg65
g36
(g37
g38
Ntp1655
Rp1656
(dp1657
g42
I2
sg43
g989
sg45
g990
sbsg71
(dp1658
g530
I0
sg531
I0
sg532
I1
sg533
I3
ssg84
(dp1659
g530
I0
sg531
I0
sg532
I0
sg533
I0
ssg74
(dp1660
g530
I0
sg531
I0
sg532
I0
sg533
I0
ssg76
(dp1661
g530
I0
sg531
I0
sg532
I1
sg533
I3
ssg78
I0
sg79
I0
sg80
S'Ztael'
p1662
sg82
I13
sg83
I0
sg73
I00
sg86
I36
sg87
(g540
S'AR'
p1663
g32
g32
tp1664
sg92
g32
sg93
(dp1665
g544
I5
sg545
I5
sg546
I8
sg547
I10
sg548
I9
sg549
I7
sg550
I10
sg551
I8
sg552
I4
sg553
I6
sg554
I8
sg555
I7
sg556
I7
sg557
I9
sg558
I3
ssg110
(dp1666
sg130
I0
sg131
g32
sg132
I0
sg133
I0
sg134
F8.454545454545455
sg135
I0
sg136
I0
sg137
I0
sg138
(dp1667
g544
I5
sg545
I5
sg546
I8
sg547
I10
sg552
I4
sg550
I10
sg549
I7
sg551
I8
sg548
I9
sg553
I6
sg554
I8
sg555
I7
sg556
I7
sg557
I9
sg558
I3
ssg140
I0
sg141
I0
sg142
I0
sg143
I0
sg144
I3
sg145
I0
sg146
I0
sg147
g602
sbsS'n20'
p1668
(ijoueur
joueur
p1669
(dp1670
g27
I0
sg28
I0
sg29
I0
sg30
F45.5005901069471
sg31
g32
sg33
I0
sg34
g32
sg35
g36
(g37
g38
Ntp1671
Rp1672
(dp1673
g42
I2
sg43
g989
sg45
g990
sbsg47
(dp1674
g530
I0
sg531
I0
sg532
I0
sg533
I0
ssg53
(dp1675
g530
I0
sg531
I0
sg532
I0
sg533
I0
ssg55
I16
sg56
g32
sg57
I0
sg58
F45.5005901069471
sg59
I0
sg60
I1
sg61
I0
sg62
g388
sg64
I00
sg65
g1672
sg71
(dp1676
g530
I0
sg531
I0
sg532
I2
sg533
I3
ssg84
(dp1677
g530
I0
sg531
I0
sg532
I0
sg533
I0
ssg74
(dp1678
g530
I0
sg531
I0
sg532
I0
sg533
I0
ssg76
(dp1679
g530
I0
sg531
I0
sg532
I2
sg533
I3
ssg78
I1
sg79
I1
sg80
S'Leoled'
p1680
sg82
I4
sg83
I0
sg73
I00
sg86
I36
sg87
(g540
S'DM'
p1681
g32
g32
tp1682
sg92
g32
sg93
(dp1683
g544
I8
sg545
I4
sg546
I6
sg547
I10
sg548
I9
sg549
I6
sg550
I8
sg551
I8
sg552
I4
sg553
I11
sg554
I7
sg555
I6
sg556
I9
sg557
I7
sg558
I4
ssg110
(dp1684
S's12'
p1685
(ijoueur
joueur
p1686
(dp1687
g27
I0
sg28
I0
sg29
I0
sg33
I0
sg35
g36
(g37
g38
Ntp1688
Rp1689
(dp1690
g43
g32
sbsg47
(dp1691
g530
I0
sg531
I0
sg532
I0
sg533
I0
ssg53
(dp1692
g530
I0
sg531
I0
sg532
I0
sg533
I0
ssg55
I0
sg56
g32
sg57
I0
sg59
I0
sg60
I0
sg61
I0
sg87
(g540
g1681
g32
g32
tp1693
sg64
I00
sg65
g36
(g37
g38
Ntp1694
Rp1695
(dp1696
g43
g32
sbsg71
(dp1697
g530
I0
sg531
I0
sg532
I0
sg533
I0
ssg84
(dp1698
g530
I0
sg531
I0
sg532
I0
sg533
I0
ssg74
(dp1699
g530
I0
sg531
I0
sg532
I0
sg533
I0
ssg76
(dp1700
g530
I0
sg531
I0
sg532
I0
sg533
I0
ssg78
I0
sg79
I0
sg80
S'Leoled (12)'
p1701
sg82
I0
sg83
I0
sg73
I00
sg86
I0
sg62
g388
sg93
(dp1702
g554
I0
sg545
I0
sg546
I0
sg547
I0
sg552
I0
sg544
I0
sg549
I0
sg551
I0
sg548
I0
sg553
I0
sg550
I0
sg555
I0
sg556
I0
sg557
I0
sg558
I0
ssg110
(dp1703
sg130
I0
sg131
g32
sg132
I0
sg133
I0
sg134
F0.0
sg135
I0
sg136
I0
sg137
I0
sg138
(dp1704
g544
I8
sg545
I4
sg546
I6
sg547
I10
sg552
I4
sg550
I8
sg549
I6
sg551
I8
sg548
I9
sg553
I11
sg554
I7
sg555
I6
sg556
I9
sg557
I7
sg558
I4
ssg140
I0
sg141
I0
sg142
I0
sg143
I0
sg144
I0
sg145
I0
sg146
I0
sg147
g32
sbsS's11'
p1705
(ijoueur
joueur
p1706
(dp1707
g27
I0
sg28
I0
sg29
I0
sg33
I0
sg35
g36
(g37
g38
Ntp1708
Rp1709
(dp1710
g43
g32
sbsg47
(dp1711
g530
I0
sg531
I0
sg532
I0
sg533
I0
ssg53
(dp1712
g530
I0
sg531
I0
sg532
I0
sg533
I0
ssg55
I0
sg56
g32
sg57
I0
sg59
I0
sg60
I0
sg61
I0
sg87
g1693
sg64
I00
sg65
g36
(g37
g38
Ntp1713
Rp1714
(dp1715
g43
g32
sbsg71
(dp1716
g530
I0
sg531
I0
sg532
I0
sg533
I0
ssg84
(dp1717
g530
I0
sg531
I0
sg532
I0
sg533
I0
ssg74
(dp1718
g530
I0
sg531
I0
sg532
I0
sg533
I0
ssg76
(dp1719
g530
I0
sg531
I0
sg532
I0
sg533
I0
ssg78
I0
sg79
I0
sg80
S'Leoled (11)'
p1720
sg82
I0
sg83
I0
sg73
I00
sg86
I0
sg62
g388
sg93
(dp1721
g554
I0
sg545
I0
sg546
I0
sg547
I0
sg552
I0
sg544
I0
sg549
I0
sg551
I0
sg548
I0
sg553
I0
sg550
I0
sg555
I0
sg556
I0
sg557
I0
sg558
I0
ssg110
(dp1722
sg130
I0
sg131
g32
sg132
I0
sg133
I0
sg134
F0.0
sg135
I0
sg136
I0
sg137
I0
sg138
g1704
sg140
I0
sg141
I0
sg142
I0
sg143
I0
sg144
I0
sg145
I0
sg146
I0
sg147
g32
sbssg130
I2
sg131
g32
sg132
I0
sg133
I0
sg134
F8.548387096774194
sg135
I1
sg136
I0
sg137
I0
sg138
g1704
sg140
I0
sg141
I0
sg142
I0
sg143
I0
sg144
I3
sg145
I0
sg146
I0
sg147
g602
sbsS'n8'
p1723
g798
sS'n9'
p1724
(ijoueur
joueur
p1725
(dp1726
g152
F9.758620689655173
sg27
I0
sg153
F9.448275862068966
sg131
g32
sg29
I0
sg30
F74.08829229438231
sg31
g32
sg33
I0
sg34
g32
sg35
g36
(g37
g38
Ntp1727
Rp1728
(dp1729
g42
I4
sg43
S'x'
p1730
sg45
S'heros'
p1731
sbsg47
(dp1732
S'SR'
p1733
I0
sS'ST'
p1734
I0
sS'CR'
p1735
I0
sS'CT'
p1736
I0
ssg53
(dp1737
g1733
I0
sg1734
I0
sg1735
I0
sg1736
I0
ssg165
I0
sg56
S'vide 13'
p1738
sg134
F9.241379310344827
sg57
I0
sg58
F74.08829229438231
sg59
I0
sg60
I1
sg61
I1
sg62
g63
sg64
I00
sg65
g1728
sg71
(dp1739
g168
I0
sg169
I8
sg170
I0
sg171
I0
ssg73
I00
sg74
(dp1740
g168
I0
sg169
I0
sg170
I0
sg171
I0
ssg76
(dp1741
g1733
I0
sg1734
I10
sg1735
I0
sg1736
I8
ssg78
I4
sg79
I4
sg80
S'Fredirico'
p1742
sg82
I5
sg83
I1
sg55
I13
sg86
I150
sg87
(S'dummy'
p1743
S'DM'
p1744
g32
g32
tp1745
sg92
g32
sg93
(dp1746
S'RP1'
p1747
I7
sS'ME'
p1748
I5
sS'RP2'
p1749
I7
sS'E'
p1750
I9
sS'P'
p1751
I9
sS'JP'
p1752
I8
sS'M'
p1753
I5
sS'RP_tot'
p1754
I8
sS'TO'
p1755
I8
sS'PA'
p1756
I13
sS'A'
p1757
I10
sS'R'
p1758
I6
sS'TB'
p1759
I9
sS'PL'
p1760
I7
sS'TA'
p1761
I6
ssg110
(dp1762
g196
(ijoueur
joueur
p1763
(dp1764
g152
F9.758620689655173
sg27
I0
sg131
g32
sg29
I0
sg31
g32
sg33
I0
sg34
g32
sg35
g36
(g37
g38
Ntp1765
Rp1766
(dp1767
g42
I4
sg43
S'x'
p1768
sg45
S'heros'
p1769
sbsg47
(dp1770
S'SR'
p1771
I0
sS'ST'
p1772
I0
sS'CR'
p1773
I0
sS'CT'
p1774
I0
ssg53
(dp1775
g1771
I0
sg1772
I0
sg1773
I0
sg1774
I0
ssg56
g32
sg57
I0
sg73
I00
sg59
I0
sg60
I0
sg61
I0
sg62
g210
sg64
I00
sg65
g1766
sg71
(dp1776
g212
I0
sg213
I0
sg214
I0
sg215
I7
ssg84
(dp1777
g212
I0
sg213
I0
sg214
I0
sg215
I0
ssg74
(dp1778
g212
I0
sg213
I0
sg214
I0
sg215
I0
ssg76
(dp1779
g1771
I0
sg1772
I10
sg1773
I0
sg1774
I0
ssg78
I0
sg79
I0
sg80
S'Fredirico'
p1780
sg82
I5
sg83
I0
sg55
I13
sg86
I150
sg87
(S'dummy'
p1781
S'DM'
p1782
g32
g32
tp1783
sg92
g32
sg93
(dp1784
S'RP1'
p1785
I7
sS'ME'
p1786
I5
sS'RP2'
p1787
I7
sS'E'
p1788
I9
sS'TO'
p1789
I8
sS'M'
p1790
I7
sS'JP'
p1791
I9
sS'RP_tot'
p1792
I7
sS'P'
p1793
I9
sS'PA'
p1794
I13
sS'A'
p1795
I11
sS'R'
p1796
I7
sS'TB'
p1797
I9
sS'PL'
p1798
I8
sS'TA'
p1799
I6
ssg110
(dp1800
g241
(ijoueur
joueur
p1801
(dp1802
g27
I0
sg29
I0
sg31
g32
sg33
I0
sg34
g32
sg35
g36
(g37
g38
Ntp1803
Rp1804
(dp1805
g42
I4
sg43
S'x'
p1806
sg45
S'heros'
p1807
sbsg47
(dp1808
S'SR'
p1809
I0
sS'CT'
p1810
I0
sS'CR'
p1811
I0
sS'ST'
p1812
I0
ssg53
(dp1813
g1809
I0
sg1810
I0
sg1811
I0
sg1812
I0
ssg56
g32
sg57
I0
sg73
I00
sg59
I0
sg60
I0
sg61
I0
sg62
S'vide'
p1814
sg64
I00
sg65
g1804
sg71
(dp1815
g1809
I0
sg1810
I0
sg1811
I0
sg1812
I3
ssg84
(dp1816
g1809
I0
sg1810
I0
sg1811
I0
sg1812
I0
ssg74
(dp1817
g1809
I0
sg1810
I0
sg1811
I0
sg1812
I0
ssg76
(dp1818
g1809
I0
sg1810
I0
sg1811
I0
sg1812
I3
ssg78
I0
sg79
I0
sg80
S'Fredirico'
p1819
sg82
I5
sg83
I0
sg55
I13
sg86
I150
sg87
(S'dummy'
p1820
S'DM'
p1821
g32
g32
tp1822
sg92
g32
sg93
(dp1823
S'RP1'
p1824
I7
sS'ME'
p1825
I5
sS'RP2'
p1826
I8
sS'E'
p1827
I9
sS'P'
p1828
I10
sS'JP'
p1829
I9
sS'M'
p1830
I7
sS'RP_tot'
p1831
I8
sS'TO'
p1832
I8
sS'PA'
p1833
I13
sS'A'
p1834
I11
sS'R'
p1835
I7
sS'TB'
p1836
I8
sS'PL'
p1837
I9
sS'TA'
p1838
I6
ssg130
I0
sg28
I0
sg132
I0
sg133
I0
sg134
F9.758620689655173
sg135
I0
sg136
I0
sg137
I0
sg286
(dp1839
S'RP1'
p1840
I7
sS'ME'
p1841
I5
sS'RP2'
p1842
I8
sS'E'
p1843
I9
sS'P'
p1844
I10
sS'JP'
p1845
I9
sS'M'
p1846
I7
sS'RP_tot'
p1847
I8
sS'TO'
p1848
I8
sS'PA'
p1849
I13
sS'A'
p1850
I11
sS'R'
p1851
I7
sS'TB'
p1852
I8
sS'PL'
p1853
I9
sS'TA'
p1854
I6
ssg138
g1823
sg140
I0
sg141
I0
sg142
I0
sg143
I0
sg144
I14
sg145
I0
sg146
I0
sg147
S'EST'
p1855
sbssg130
I9
sg28
I0
sg132
I0
sg133
I0
sg134
F9.448275862068966
sg135
I0
sg136
I0
sg137
I0
sg286
(dp1856
g1785
I7
sg1786
I5
sg1787
I8
sg1788
I9
sg1793
I10
sg1791
I9
sg1790
I7
sg1792
I8
sg1789
I8
sg1794
I13
sg1795
I11
sg1796
I7
sg1797
I8
sg1798
I9
sg1799
I6
ssg138
g1784
sg140
I0
sg141
I0
sg142
I0
sg143
I0
sg144
I14
sg145
I0
sg146
I0
sg147
S'EST'
p1857
sbsg306
(ijoueur
joueur
p1858
(dp1859
g27
I0
sg29
I0
sg31
g32
sg33
I0
sg34
g32
sg35
g36
(g37
g38
Ntp1860
Rp1861
(dp1862
g42
I4
sg43
S'x'
p1863
sg45
S'heros'
p1864
sbsg47
(dp1865
S'SR'
p1866
I0
sS'CT'
p1867
I0
sS'CR'
p1868
I0
sS'ST'
p1869
I0
ssg53
(dp1870
g1866
I0
sg1867
I0
sg1868
I0
sg1869
I0
ssg56
g32
sg57
I0
sg73
I00
sg59
I0
sg60
I0
sg61
I0
sg62
S'vide'
p1871
sg64
I00
sg65
g1861
sg71
(dp1872
g1866
I0
sg1867
I0
sg1868
I0
sg1869
I3
ssg84
(dp1873
g1866
I0
sg1867
I0
sg1868
I0
sg1869
I0
ssg74
(dp1874
g1866
I0
sg1867
I0
sg1868
I0
sg1869
I0
ssg76
(dp1875
g1866
I0
sg1867
I0
sg1868
I0
sg1869
I3
ssg78
I0
sg79
I0
sg80
S'Fredirico'
p1876
sg82
I5
sg83
I0
sg55
I13
sg86
I150
sg87
(S'dummy'
p1877
S'DM'
p1878
g32
g32
tp1879
sg92
g32
sg93
(dp1880
S'RP1'
p1881
I7
sS'ME'
p1882
I5
sS'RP2'
p1883
I8
sS'E'
p1884
I9
sS'P'
p1885
I10
sS'JP'
p1886
I9
sS'M'
p1887
I7
sS'RP_tot'
p1888
I8
sS'TO'
p1889
I8
sS'PA'
p1890
I13
sS'A'
p1891
I11
sS'R'
p1892
I7
sS'TB'
p1893
I8
sS'PL'
p1894
I9
sS'TA'
p1895
I6
ssg130
I0
sg28
I0
sg132
I0
sg133
I0
sg134
F9.758620689655173
sg135
I0
sg136
I0
sg137
I0
sg286
(dp1896
S'RP1'
p1897
I7
sS'ME'
p1898
I5
sS'RP2'
p1899
I8
sS'E'
p1900
I9
sS'P'
p1901
I10
sS'JP'
p1902
I9
sS'M'
p1903
I7
sS'RP_tot'
p1904
I8
sS'TO'
p1905
I8
sS'PA'
p1906
I13
sS'A'
p1907
I11
sS'R'
p1908
I7
sS'TB'
p1909
I8
sS'PL'
p1910
I9
sS'TA'
p1911
I6
ssg138
g1880
sg140
I0
sg141
I0
sg142
I0
sg143
I0
sg144
I14
sg145
I0
sg146
I0
sg147
S'EST'
p1912
sbssg130
I8
sg28
I0
sg132
I0
sg133
I0
sg84
(dp1913
g168
I0
sg169
I0
sg170
I0
sg171
I0
ssg135
I1
sg136
I0
sg137
I0
sg286
(dp1914
g1747
I7
sg1748
I5
sg1749
I8
sg1750
I9
sg1751
I10
sg1752
I9
sg1753
I7
sg1754
I8
sg1755
I8
sg1756
I13
sg1757
I11
sg1758
I7
sg1759
I8
sg1760
I9
sg1761
I6
ssg138
(dp1915
g1747
I7
sg1748
I5
sg1749
I7
sg1750
I9
sg1755
I8
sg1753
I5
sg1752
I8
sg1754
I8
sg1751
I9
sg1756
I13
sg1757
I11
sg1758
I7
sg1759
I9
sg1760
I8
sg1761
I6
ssg140
I0
sg371
(dp1916
sg141
I3
sg142
I0
sg143
I3
sg144
I14
sg145
I0
sg146
I0
sg147
S'EST'
p1917
sbsS'n1'
p1918
(ijoueur
joueur
p1919
(dp1920
g27
I0
sg28
I0
sg29
I0
sg30
F92.10116054557187
sg31
g32
sg33
I0
sg34
g32
sg35
g36
(g37
g38
Ntp1921
Rp1922
(dp1923
g42
I1
sg43
g1596
sg45
g997
sbsg47
(dp1924
g530
I0
sg531
I0
sg532
I0
sg533
I0
ssg53
(dp1925
g530
I0
sg531
I0
sg532
I0
sg533
I0
ssg55
I18
sg56
g32
sg57
I0
sg58
F92.10116054557187
sg59
I0
sg60
I0
sg61
I0
sg62
g388
sg64
I00
sg65
g1922
sg71
(dp1926
g530
I0
sg531
I0
sg532
I6
sg533
I4
ssg84
(dp1927
g530
I0
sg531
I0
sg532
I0
sg533
I0
ssg74
(dp1928
g530
I0
sg531
I0
sg532
I0
sg533
I0
ssg76
(dp1929
g530
I0
sg531
I0
sg532
I6
sg533
I4
ssg78
I0
sg79
I0
sg80
S'Neyeniol'
p1930
sg82
I6
sg83
I0
sg73
I00
sg86
I37
sg87
(g540
g1026
S'DL'
p1931
g32
tp1932
sg92
g32
sg93
(dp1933
g544
I8
sg545
I7
sg546
I8
sg547
I10
sg548
I6
sg549
I4
sg550
I9
sg551
I10
sg552
I8
sg553
I9
sg554
I8
sg555
I7
sg556
I4
sg557
I9
sg558
I6
ssg110
(dp1934
S's12'
p1935
(ijoueur
joueur
p1936
(dp1937
g27
I0
sg28
I0
sg29
I0
sg33
I0
sg35
g36
(g37
g38
Ntp1938
Rp1939
(dp1940
g43
g32
sbsg47
(dp1941
g530
I0
sg531
I0
sg532
I0
sg533
I0
ssg53
(dp1942
g530
I0
sg531
I0
sg532
I0
sg533
I0
ssg55
I0
sg56
g32
sg57
I0
sg59
I0
sg60
I0
sg61
I0
sg87
(g540
g1026
g32
g32
tp1943
sg64
I00
sg65
g36
(g37
g38
Ntp1944
Rp1945
(dp1946
g43
g32
sbsg71
(dp1947
g530
I0
sg531
I0
sg532
I0
sg533
I0
ssg84
(dp1948
g530
I0
sg531
I0
sg532
I0
sg533
I0
ssg74
(dp1949
g530
I0
sg531
I0
sg532
I0
sg533
I0
ssg76
(dp1950
g530
I0
sg531
I0
sg532
I0
sg533
I0
ssg78
I0
sg79
I0
sg80
g32
sg82
I0
sg83
I0
sg73
I00
sg86
I0
sg62
g388
sg93
(dp1951
g554
I0
sg545
I0
sg546
I0
sg547
I0
sg552
I0
sg544
I0
sg549
I0
sg551
I0
sg548
I0
sg553
I0
sg550
I0
sg555
I0
sg556
I0
sg557
I0
sg558
I0
ssg110
(dp1952
sg130
I0
sg131
g32
sg132
I0
sg133
I0
sg134
F0.0
sg135
I0
sg136
I0
sg137
I0
sg138
(dp1953
g544
I8
sg545
I7
sg546
I8
sg547
I10
sg552
I8
sg550
I9
sg549
I4
sg551
I10
sg548
I6
sg553
I9
sg554
I8
sg555
I7
sg556
I4
sg557
I9
sg558
I6
ssg140
I0
sg141
I0
sg142
I0
sg143
I0
sg144
I0
sg145
I0
sg146
I0
sg147
g32
sbsS's11'
p1954
(ijoueur
joueur
p1955
(dp1956
g27
I0
sg28
I0
sg29
I0
sg33
I0
sg35
g36
(g37
g38
Ntp1957
Rp1958
(dp1959
g43
g32
sbsg47
(dp1960
g530
I0
sg531
I0
sg532
I0
sg533
I0
ssg53
(dp1961
g530
I0
sg531
I0
sg532
I0
sg533
I0
ssg55
I0
sg56
g32
sg57
I0
sg59
I0
sg60
I0
sg61
I0
sg87
g1943
sg64
I00
sg65
g36
(g37
g38
Ntp1962
Rp1963
(dp1964
g43
g32
sbsg71
(dp1965
g530
I0
sg531
I0
sg532
I0
sg533
I0
ssg84
(dp1966
g530
I0
sg531
I0
sg532
I0
sg533
I0
ssg74
(dp1967
g530
I0
sg531
I0
sg532
I0
sg533
I0
ssg76
(dp1968
g530
I0
sg531
I0
sg532
I0
sg533
I0
ssg78
I0
sg79
I0
sg80
g32
sg82
I0
sg83
I0
sg73
I00
sg86
I0
sg62
g388
sg93
(dp1969
g554
I0
sg545
I0
sg546
I0
sg547
I0
sg552
I0
sg544
I0
sg549
I0
sg551
I0
sg548
I0
sg553
I0
sg550
I0
sg555
I0
sg556
I0
sg557
I0
sg558
I0
ssg110
(dp1970
sg130
I0
sg131
g32
sg132
I0
sg133
I0
sg134
F0.0
sg135
I0
sg136
I0
sg137
I0
sg138
g1953
sg140
I0
sg141
I0
sg142
I0
sg143
I0
sg144
I0
sg145
I0
sg146
I0
sg147
g32
sbssg130
g509
(g513
S'\x05\x00\x00\x00'
p1971
tp1972
Rp1973
sg131
g32
sg132
I0
sg133
I0
sg134
F8.407407407407407
sg135
I0
sg136
I0
sg137
I0
sg138
g1953
sg140
I0
sg141
I0
sg142
I0
sg143
I0
sg144
I3
sg145
I0
sg146
I0
sg147
S'HE'
p1974
sbsS'n2'
p1975
(ijoueur
joueur
p1976
(dp1977
g27
I0
sg28
I0
sg29
I0
sg30
F92.81412762068875
sg31
g32
sg33
I0
sg34
g32
sg35
g36
(g37
g38
Ntp1978
Rp1979
(dp1980
g42
I3
sg43
S'<<<'
p1981
sg45
S'rare'
p1982
sbsg47
(dp1983
g530
I0
sg531
I0
sg532
I0
sg533
I0
ssg53
(dp1984
g530
I0
sg531
I0
sg532
I0
sg533
I0
ssg55
I16
sg56
g32
sg57
I0
sg58
F92.81412762068875
sg59
I0
sg60
I0
sg61
I0
sg62
g388
sg64
I00
sg65
g1979
sg71
(dp1985
g530
I0
sg531
I0
sg532
I8
sg533
I2
ssg84
(dp1986
g530
I0
sg531
I0
sg532
I0
sg533
I0
ssg74
(dp1987
g530
I0
sg531
I0
sg532
I0
sg533
I0
ssg76
(dp1988
g530
I0
sg531
I0
sg532
I8
sg533
I2
ssg78
I0
sg79
I0
sg80
S'Obdenol'
p1989
sg82
I5
sg83
I0
sg73
I00
sg86
I23
sg87
(g540
g558
S'PI'
p1990
g32
tp1991
sg92
g32
sg93
(dp1992
g544
I8
sg545
I8
sg546
I6
sg547
I8
sg548
I3
sg549
I4
sg550
I6
sg551
I8
sg552
I7
sg553
I9
sg554
I7
sg555
I8
sg556
I2
sg557
I9
sg558
I9
ssg110
(dp1993
S's12'
p1994
(ijoueur
joueur
p1995
(dp1996
g27
I0
sg28
I0
sg29
I0
sg33
I0
sg35
g36
(g37
g38
Ntp1997
Rp1998
(dp1999
g43
g32
sbsg47
(dp2000
g530
I0
sg531
I0
sg532
I0
sg533
I0
ssg53
(dp2001
g530
I0
sg531
I0
sg532
I0
sg533
I0
ssg55
I0
sg56
g32
sg57
I0
sg59
I0
sg60
I0
sg61
I0
sg87
(g540
g558
g32
g32
tp2002
sg64
I00
sg65
g36
(g37
g38
Ntp2003
Rp2004
(dp2005
g43
g32
sbsg71
(dp2006
g530
I0
sg531
I0
sg532
I0
sg533
I0
ssg84
(dp2007
g530
I0
sg531
I0
sg532
I0
sg533
I0
ssg74
(dp2008
g530
I0
sg531
I0
sg532
I0
sg533
I0
ssg76
(dp2009
g530
I0
sg531
I0
sg532
I0
sg533
I0
ssg78
I0
sg79
I0
sg80
g32
sg82
I0
sg83
I0
sg73
I00
sg86
I0
sg62
g388
sg93
(dp2010
g554
I0
sg545
I0
sg546
I0
sg547
I0
sg552
I0
sg544
I0
sg549
I0
sg551
I0
sg548
I0
sg553
I0
sg550
I0
sg555
I0
sg556
I0
sg557
I0
sg558
I0
ssg110
(dp2011
sg130
I0
sg131
g32
sg132
I0
sg133
I0
sg134
F0.0
sg135
I0
sg136
I0
sg137
I0
sg138
(dp2012
g544
I8
sg545
I8
sg546
I6
sg547
I8
sg552
I7
sg550
I6
sg549
I4
sg551
I8
sg548
I3
sg553
I9
sg554
I7
sg555
I8
sg556
I2
sg557
I9
sg558
I9
ssg140
I0
sg141
I0
sg142
I0
sg143
I0
sg144
I0
sg145
I0
sg146
I0
sg147
g32
sbsS's11'
p2013
(ijoueur
joueur
p2014
(dp2015
g27
I0
sg28
I0
sg29
I0
sg33
I0
sg35
g36
(g37
g38
Ntp2016
Rp2017
(dp2018
g43
g32
sbsg47
(dp2019
g530
I0
sg531
I0
sg532
I0
sg533
I0
ssg53
(dp2020
g530
I0
sg531
I0
sg532
I0
sg533
I0
ssg55
I0
sg56
g32
sg57
I0
sg59
I0
sg60
I0
sg61
I0
sg87
g2002
sg64
I00
sg65
g36
(g37
g38
Ntp2021
Rp2022
(dp2023
g43
g32
sbsg71
(dp2024
g530
I0
sg531
I0
sg532
I0
sg533
I0
ssg84
(dp2025
g530
I0
sg531
I0
sg532
I0
sg533
I0
ssg74
(dp2026
g530
I0
sg531
I0
sg532
I0
sg533
I0
ssg76
(dp2027
g530
I0
sg531
I0
sg532
I0
sg533
I0
ssg78
I0
sg79
I0
sg80
g32
sg82
I0
sg83
I0
sg73
I00
sg86
I0
sg62
g388
sg93
(dp2028
g554
I0
sg545
I0
sg546
I0
sg547
I0
sg552
I0
sg544
I0
sg549
I0
sg551
I0
sg548
I0
sg553
I0
sg550
I0
sg555
I0
sg556
I0
sg557
I0
sg558
I0
ssg110
(dp2029
sg130
I0
sg131
g32
sg132
I0
sg133
I0
sg134
F0.0
sg135
I0
sg136
I0
sg137
I0
sg138
g2012
sg140
I0
sg141
I0
sg142
I0
sg143
I0
sg144
I0
sg145
I0
sg146
I0
sg147
g32
sbssg130
g509
(g513
S'\x06\x00\x00\x00'
p2030
tp2031
Rp2032
sg131
g32
sg132
I0
sg133
I0
sg134
F8.172413793103448
sg135
I0
sg136
I0
sg137
I0
sg138
g2012
sg140
I0
sg141
I0
sg142
I0
sg143
I0
sg144
I2
sg145
I0
sg146
I0
sg147
g602
sbsS'n3'
p2033
(ijoueur
joueur
p2034
(dp2035
g27
I0
sg28
I0
sg29
I0
sg30
F84.12757534984847
sg31
g32
sg33
I0
sg34
g32
sg35
g36
(g37
g38
Ntp2036
Rp2037
(dp2038
g42
I4
sg43
g44
sg45
g46
sbsg47
(dp2039
g49
I0
sg50
I0
sg51
I0
sg52
I0
ssg53
(dp2040
g49
I0
sg50
I0
sg51
I0
sg52
I0
ssg55
I15
sg56
g32
sg57
I0
sg58
F84.12757534984847
sg59
I1
sg60
I0
sg61
I0
sg62
g63
sg64
I00
sg65
g2037
sg71
(dp2041
g49
I0
sg50
I9
sg51
I0
sg52
I0
ssg73
I00
sg74
(dp2042
g49
I0
sg50
I0
sg51
I0
sg52
I0
ssg76
(dp2043
g49
I0
sg50
I9
sg51
I0
sg52
I0
ssg78
I0
sg79
I0
sg80
S'Zaloel'
p2044
sg82
I6
sg83
I0
sg84
(dp2045
g49
I0
sg50
I0
sg51
I0
sg52
I0
ssg86
I65
sg87
(g88
S'PI'
p2046
g32
g32
tp2047
sg92
g32
sg93
(dp2048
g95
I9
sg96
I9
sg97
I8
sg98
I10
sg99
I8
sg100
I8
sg101
I4
sg102
I10
sg103
I7
sg104
I8
sg105
I8
sg106
I8
sg107
I6
sg108
I9
sg109
I7
ssg110
(dp2049
S's12'
p2050
(ijoueur
joueur
p2051
(dp2052
g27
I0
sg28
I0
sg29
I0
sg33
I0
sg35
g36
(g37
g38
Ntp2053
Rp2054
(dp2055
g43
g32
sbsg47
(dp2056
g49
I0
sg50
I0
sg51
I0
sg52
I0
ssg53
(dp2057
g49
I0
sg50
I0
sg51
I0
sg52
I0
ssg55
I0
sg56
g32
sg57
I0
sg59
I0
sg60
I0
sg61
I0
sg87
(g88
g2046
g32
g32
tp2058
sg64
I00
sg65
g36
(g37
g38
Ntp2059
Rp2060
(dp2061
g43
g32
sbsg71
(dp2062
g49
I0
sg50
I0
sg51
I0
sg52
I0
ssg73
I00
sg74
(dp2063
g49
I0
sg50
I0
sg51
I0
sg52
I0
ssg76
(dp2064
g49
I0
sg50
I0
sg51
I0
sg52
I0
ssg78
I0
sg79
I0
sg80
g32
sg82
I0
sg83
I0
sg84
(dp2065
g49
I0
sg50
I0
sg51
I0
sg52
I0
ssg86
I0
sg62
g63
sg93
(dp2066
g105
I0
sg96
I0
sg97
I0
sg98
I0
sg103
I0
sg95
I0
sg101
I0
sg102
I0
sg99
I0
sg104
I0
sg100
I0
sg106
I0
sg107
I0
sg108
I0
sg109
I0
ssg110
(dp2067
sg130
I0
sg131
g32
sg132
I0
sg133
I0
sg134
F0.0
sg135
I0
sg136
I0
sg137
I0
sg138
(dp2068
g95
I9
sg96
I9
sg97
I8
sg98
I10
sg103
I7
sg101
I4
sg100
I8
sg102
I10
sg99
I8
sg104
I8
sg105
I9
sg106
I9
sg107
I6
sg108
I10
sg109
I7
ssg140
I0
sg141
I0
sg142
I0
sg143
I0
sg144
I0
sg145
I0
sg146
I0
sg147
g32
sbsS's11'
p2069
(ijoueur
joueur
p2070
(dp2071
g27
I0
sg28
I0
sg29
I0
sg33
I0
sg35
g36
(g37
g38
Ntp2072
Rp2073
(dp2074
g43
g32
sbsg47
(dp2075
g49
I0
sg50
I0
sg51
I0
sg52
I0
ssg53
(dp2076
g49
I0
sg50
I0
sg51
I0
sg52
I0
ssg55
I0
sg56
g32
sg57
I0
sg59
I0
sg60
I0
sg61
I0
sg87
g2058
sg64
I00
sg65
g36
(g37
g38
Ntp2077
Rp2078
(dp2079
g43
g32
sbsg71
(dp2080
g49
I0
sg50
I0
sg51
I0
sg52
I0
ssg73
I00
sg74
(dp2081
g49
I0
sg50
I0
sg51
I0
sg52
I0
ssg76
(dp2082
g49
I0
sg50
I0
sg51
I0
sg52
I0
ssg78
I0
sg79
I0
sg80
g32
sg82
I0
sg83
I0
sg84
(dp2083
g49
I0
sg50
I0
sg51
I0
sg52
I0
ssg86
I0
sg62
g63
sg93
(dp2084
g105
I0
sg96
I0
sg97
I0
sg98
I0
sg103
I0
sg95
I0
sg101
I0
sg102
I0
sg99
I0
sg104
I0
sg100
I0
sg106
I0
sg107
I0
sg108
I0
sg109
I0
ssg110
(dp2085
sg130
I0
sg131
g32
sg132
I0
sg133
I0
sg134
F0.0
sg135
I0
sg136
I0
sg137
I0
sg138
g2068
sg140
I0
sg141
I0
sg142
I0
sg143
I0
sg144
I0
sg145
I0
sg146
I0
sg147
g32
sbssg130
g509
(g513
S'\n\x00\x00\x00'
p2086
tp2087
Rp2088
sg131
g32
sg132
I0
sg133
I0
sg134
F9.37037037037037
sg135
I0
sg136
I0
sg137
I0
sg138
g2068
sg140
I0
sg141
I0
sg142
I0
sg143
I0
sg144
I6
sg145
I1
sg146
I0
sg147
g148
sbsS'n4'
p2089
g454
sS'n5'
p2090
g150
sS'n6'
p2091
g606
sS'n7'
p2092
g740
ssS'remplacements'
p2093
(dp2094
g1012
S'n0'
p2095
sg1069
g2095
sg1316
g2095
sg1370
g2095
sg1590
g2095
sg1646
g2095
sg1668
g2095
ssb.