(iclub
compo
p0
(dp1
S'caracs_old'
p2
(dp3
S'A'
p4
F126.0
sS'ME'
p5
F114.0
sS'E'
p6
I247
sS'OplusAV'
p7
F134.0
sS'OplusAR'
p8
F147.5
sS'JP'
p9
F74.5
sS'PA'
p10
F80.5
sS'M'
p11
F60.0
sS'OmoinsAR'
p12
F55.5
sS'TO_off'
p13
F79.0
sS'TO_def'
p14
F70.0
sS'OmoinsAV'
p15
F51.0
sS'R'
p16
F242.5
ssS'totaux_old'
p17
(dp18
S'T2'
p19
F140.5
sS'T3'
p20
F123.5
sS'T1'
p21
F215.5
ssS'roles'
p22
(dp23
S'SA_scd'
p24
(ijoueur
joueur
p25
(dp26
S'rouges_total'
p27
I0
sS'drops_total'
p28
I0
sS'blessure'
p29
I0
sS'RG_max'
p30
ccopy_reg
_reconstructor
p31
(cjoueur
rang_new
p32
c__builtin__
object
p33
Ntp34
Rp35
(dp36
S'type_nb'
p37
I5
sS'rang'
p38
S'xx'
p39
sS'type'
p40
S'seigneur'
p41
sbsS'MJ2_total'
p42
(dp43
S'SR'
p44
I0
sS'CT'
p45
I0
sS'CR'
p46
I0
sS'ST'
p47
I0
ssS'MJ3_total'
p48
(dp49
g44
I0
sg45
I0
sg46
I0
sg47
I0
ssS'drop_rates_total'
p50
I0
sS'drop_rates_saison'
p51
I0
sS'essais_saison'
p52
I1
sS'penalite_ratees_saison'
p53
I0
sS'transformations_saison'
p54
I0
sS'postes'
p55
(S'dummy'
p56
S'N8'
p57
S'TL'
p58
S''
p59
tp60
sS'RG'
p61
g31
(g32
g33
Ntp62
Rp63
(dp64
g37
I5
sg38
S'xx'
p65
sg40
g41
sbsS'MJ1'
p66
(dp67
g44
I0
sg45
I13
sg46
I1
sg47
I5
ssS'MJ2'
p68
(dp69
g44
I0
sg45
I0
sg46
I0
sg47
I0
ssS'MJ3'
p70
(dp71
g44
I0
sg45
I0
sg46
I0
sg47
I0
ssS'MJ1_total'
p72
(dp73
g44
I0
sg45
I13
sg46
I1
sg47
I5
ssS'penalites_total'
p74
I0
sS'penalites_saison'
p75
I0
sS'nom'
p76
S"Rak'Daq"
p77
sS'C'
p78
I5
sS'transformations_total'
p79
I0
sS'D'
p80
I15
sS'VAL'
p81
I525
sS'club'
p82
S'HTH'
p83
sS'caracs'
p84
(dp85
S'A'
p86
I10
sS'ME'
p87
I13
sS'RP2'
p88
I9
sS'E'
p89
I13
sS'TO'
p90
I9
sS'RP1'
p91
I15
sS'JP'
p92
I2
sS'RP_tot'
p93
I17
sS'P'
p94
I4
sS'PA'
p95
I7
sS'M'
p96
I7
sS'R'
p97
I11
sS'TB'
p98
I2
sS'PL'
p99
I8
sS'TA'
p100
I8
ssS'fatigue'
p101
I11
sS'drop_ratees_total'
p102
I0
sS'blessures_total'
p103
I0
sS'XP'
p104
I0
sS'EV'
p105
F12.137931034482758
sS'penalite_ratees_total'
p106
I0
sS'blessures_saison'
p107
I0
sS'jaunes_total'
p108
I0
sS'caracs_sans_fatigue'
p109
(dp110
g86
I11
sg87
I13
sg88
I9
sg89
I13
sg94
I4
sg91
I15
sg92
I2
sg93
I17
sg90
I9
sg95
I7
sg96
I7
sg97
I12
sg98
I2
sg99
I9
sg100
I8
ssS'rouges_saison'
p111
I0
sS'anciens_clubs'
p112
g59
sS'transformation_ratees_total'
p113
I0
sS'drops_saison'
p114
I0
sS'transformation_ratees_saison'
p115
I0
sS'MS'
p116
I70
sS'essais_total'
p117
I17
sS'jaunes_saison'
p118
I0
sS'ARM'
p119
S'HL'
p120
sbsS'drop3'
p121
(ijoueur
joueur
p122
(dp123
g27
I0
sg28
I1
sg29
I0
sg30
g31
(g32
g33
Ntp124
Rp125
(dp126
g37
I4
sg38
S'*'
p127
sg40
S'heros'
p128
sbsg42
(dp129
S'SR'
p130
I0
sS'ST'
p131
I0
sS'CR'
p132
I0
sS'CT'
p133
I12
ssg48
(dp134
g130
I0
sg131
I0
sg132
I0
sg133
I0
ssg50
I0
sg51
I0
sS'transformations'
p135
I0
sS'penalites'
p136
I0
sg52
I0
sg53
I2
sg54
I0
sg55
(S'dummy'
p137
S'DO'
p138
S'CE'
p139
g59
tp140
sg61
g31
(g32
g33
Ntp141
Rp142
(dp143
g37
I4
sg38
g127
sg40
g128
sbsg66
(dp144
g130
I0
sg131
I5
sg132
I0
sg133
I0
ssg68
(dp145
g130
I0
sg131
I0
sg132
I0
sg133
I12
ssg70
(dp146
g130
I0
sg131
I0
sg132
I0
sg133
I0
ssg72
(dp147
g130
I0
sg131
I5
sg132
I0
sg133
I0
ssg74
I5
sg75
I5
sg76
S'Ientl'
p148
sg78
I8
sg79
I0
sg80
I22
sg81
I20
sg82
S'PRG'
p149
sg84
(dp150
S'A'
p151
I10
sS'ME'
p152
I5
sS'RP2'
p153
I8
sS'E'
p154
I15
sS'P'
p155
I10
sS'RP1'
p156
I8
sS'JP'
p157
I9
sS'RP_tot'
p158
I9
sS'TO'
p159
I8
sS'PA'
p160
I11
sS'M'
p161
I10
sS'R'
p162
I9
sS'TB'
p163
I7
sS'PL'
p164
I11
sS'TA'
p165
I8
ssg101
I7
sg102
I0
sg103
I0
sg104
I0
sg105
F10.606060606060606
sg106
I2
sS'drops'
p166
I0
sg107
I0
sg108
I0
sg109
(dp167
g151
I10
sg152
I5
sg153
I8
sg154
I15
sg159
I8
sg156
I8
sg157
I9
sg158
I9
sg155
I10
sg160
I11
sg161
I10
sg162
I9
sg163
I7
sg164
I11
sg165
I8
ssg111
I0
sg112
S'APA 10'
p168
sg113
I0
sg114
I1
sg115
I0
sg116
I2
sg117
I1
sg118
I0
sg119
S'HL'
p169
sbsS'cap'
p170
g122
sS'SA_pcp1'
p171
(ijoueur
joueur
p172
(dp173
g27
I0
sg28
I0
sg29
I0
sg30
g31
(g32
g33
Ntp174
Rp175
(dp176
g37
I4
sg38
S'*'
p177
sg40
S'heros'
p178
sbsg42
(dp179
S'SR'
p180
I0
sS'ST'
p181
I0
sS'CR'
p182
I0
sS'CT'
p183
I0
ssg48
(dp184
g180
I0
sg181
I0
sg182
I0
sg183
I0
ssg50
I0
sg51
I0
sg135
I0
sg136
I0
sg52
I0
sg53
I0
sg54
I0
sg55
(S'dummy'
p185
S'DL'
p186
S'TL'
p187
S'N8'
p188
tp189
sg61
g31
(g32
g33
Ntp190
Rp191
(dp192
g37
I4
sg38
g177
sg40
g178
sbsg66
(dp193
g180
I0
sg181
I5
sg182
I0
sg183
I13
ssg68
(dp194
g180
I0
sg181
I0
sg182
I0
sg183
I0
ssg70
(dp195
g180
I0
sg181
I0
sg182
I0
sg183
I0
ssg72
(dp196
g180
I0
sg181
I5
sg182
I0
sg183
I13
ssg74
I0
sg75
I0
sg76
S'Rigaad'
p197
sg78
I3
sg79
I0
sg80
I12
sg81
I137
sg82
S'QNL'
p198
sg84
(dp199
S'A'
p200
I10
sS'ME'
p201
I11
sS'RP2'
p202
I8
sS'E'
p203
I11
sS'P'
p204
I6
sS'RP1'
p205
I10
sS'JP'
p206
I4
sS'RP_tot'
p207
I11
sS'TO'
p208
I11
sS'PA'
p209
I8
sS'M'
p210
I9
sS'R'
p211
I13
sS'TB'
p212
I4
sS'PL'
p213
I11
sS'TA'
p214
I3
ssg101
I7
sg102
I0
sg103
I0
sg104
I0
sg105
F11.25925925925926
sg106
I0
sg166
I0
sg107
I0
sg108
I0
sg109
(dp215
g200
I10
sg201
I11
sg202
I8
sg203
I11
sg208
I11
sg205
I10
sg206
I4
sg207
I11
sg204
I6
sg209
I8
sg210
I9
sg211
I13
sg212
I4
sg213
I11
sg214
I3
ssg111
I0
sg112
S'TO 8'
p216
sg113
I0
sg114
I0
sg115
I0
sg116
I14
sg117
I10
sg118
I0
sg119
S'HL'
p217
sbsS'B4'
p218
g122
sS'RJC'
p219
(ijoueur
joueur
p220
(dp221
g27
I0
sg28
I2
sg29
I0
sg30
g31
(g32
g33
Ntp222
Rp223
(dp224
g37
I5
sg38
S'xx'
p225
sg40
S'seigneur'
p226
sbsg42
(dp227
S'SR'
p228
I0
sS'ST'
p229
I0
sS'CR'
p230
I0
sS'CT'
p231
I0
ssg48
(dp232
g228
I0
sg229
I0
sg230
I0
sg231
I0
ssg112
S'TO 8;FS 10'
p233
sg51
I0
sg52
I3
sg53
I0
sg54
I0
sg55
(S'dummy'
p234
S'AR'
p235
S'DO'
p236
g59
tp237
sg61
g31
(g32
g33
Ntp238
Rp239
(dp240
g37
I5
sg38
S'xx'
p241
sg40
g226
sbsg66
(dp242
g228
I0
sg229
I5
sg230
I0
sg231
I14
ssg68
(dp243
g228
I0
sg229
I0
sg230
I0
sg231
I0
ssg70
(dp244
g228
I0
sg229
I0
sg230
I0
sg231
I0
ssg72
(dp245
g228
I0
sg229
I5
sg230
I0
sg231
I14
ssg74
I3
sg75
I0
sg76
S'Aadeel'
p246
sg78
I2
sg79
I6
sg80
I13
sg81
I754
sg82
S'AL'
p247
sg84
(dp248
S'A'
p249
I10
sS'ME'
p250
I4
sS'RP2'
p251
I10
sS'E'
p252
I10
sS'P'
p253
I8
sS'RP1'
p254
I13
sS'JP'
p255
I10
sS'RP_tot'
p256
I16
sS'TO'
p257
I4
sS'PA'
p258
I6
sS'M'
p259
I8
sS'R'
p260
I10
sS'TB'
p261
I7
sS'PL'
p262
I14
sS'TA'
p263
I5
ssg109
(dp264
g249
I10
sg250
I4
sg251
I10
sg252
I10
sg257
I4
sg254
I13
sg255
I10
sg256
I16
sg253
I8
sg258
I6
sg259
I8
sg260
I10
sg261
I7
sg262
I14
sg263
I5
ssg101
I5
sg102
I0
sg103
I0
sg104
I0
sg105
F10.909090909090908
sg106
I0
sS'pas_meme_type'
p265
(lp266
S'EV'
p267
asg107
I0
sg108
I0
sS'attribute_error'
p268
(lp269
sg111
I0
sg113
I0
sg114
I0
sg115
I0
sg116
I125
sg117
I22
sg118
I0
sg119
S'HL'
p270
sbsS'B1'
p271
(ijoueur
joueur
p272
(dp273
g27
I0
sg28
I0
sg29
I0
sg30
g31
(g32
g33
Ntp274
Rp275
(dp276
g37
I3
sg38
S'^^^'
p277
sg40
S'rare'
p278
sbsg42
(dp279
S'SR'
p280
I0
sS'CT'
p281
I0
sS'CR'
p282
I9
sS'ST'
p283
I0
ssg48
(dp284
g280
I0
sg281
I0
sg282
I0
sg283
I0
ssg50
I0
sg51
I0
sg52
I0
sg53
I0
sg54
I3
sg55
(S'dummy'
p285
S'DM'
p286
S'DO'
p287
g59
tp288
sg61
g31
(g32
g33
Ntp289
Rp290
(dp291
g37
I3
sg38
S'^^^'
p292
sg40
g278
sbsg66
(dp293
g280
I0
sg281
I2
sg282
I5
sg283
I5
ssg68
(dp294
g280
I0
sg281
I0
sg282
I9
sg283
I0
ssg70
(dp295
g280
I0
sg281
I0
sg282
I0
sg283
I0
ssg72
(dp296
g280
I0
sg281
I2
sg282
I5
sg283
I5
ssg74
I0
sg75
I0
sg76
S'Umaan'
p297
sg78
I9
sg79
I3
sg80
I20
sg81
I66
sg82
S'APA'
p298
sg84
(dp299
S'A'
p300
I8
sS'ME'
p301
I5
sS'RP2'
p302
I8
sS'E'
p303
I11
sS'TO'
p304
I7
sS'RP1'
p305
I9
sS'JP'
p306
I7
sS'RP_tot'
p307
I10
sS'P'
p308
I9
sS'PA'
p309
I9
sS'M'
p310
I10
sS'R'
p311
I6
sS'TB'
p312
I8
sS'PL'
p313
I6
sS'TA'
p314
I6
ssg101
I9
sg102
I0
sg103
I0
sg104
I0
sg105
F9.0
sg106
I0
sg107
I0
sg108
I0
sg109
(dp315
g300
I9
sg301
I5
sg302
I8
sg303
I11
sg308
I9
sg305
I9
sg306
I7
sg307
I10
sg304
I7
sg309
I9
sg310
I10
sg311
I7
sg312
I8
sg313
I7
sg314
I6
ssg111
I0
sg112
g59
sg113
I5
sg114
I0
sg115
I5
sg116
I7
sg117
I0
sg118
I0
sg119
S'HL'
p316
sbsS'B2'
p317
g272
sS'B3'
p318
g272
sS'SA_pcp2'
p319
(ijoueur
joueur
p320
(dp321
g27
I0
sg28
I0
sg29
I0
sg30
g31
(g32
g33
Ntp322
Rp323
(dp324
g37
I5
sg38
S'xx'
p325
sg40
S'seigneur'
p326
sbsg42
(dp327
S'SR'
p328
I0
sS'CT'
p329
I15
sS'CR'
p330
I0
sS'ST'
p331
I0
ssg48
(dp332
g328
I0
sg329
I0
sg330
I0
sg331
I0
ssg50
I0
sg51
I0
sg135
I0
sg136
I0
sg52
I1
sg53
I0
sg54
I0
sg55
(S'dummy'
p333
S'TL'
p334
S'N8'
p335
g59
tp336
sg61
g31
(g32
g33
Ntp337
Rp338
(dp339
g37
I5
sg38
S'xx'
p340
sg40
g326
sbsg66
(dp341
g328
I0
sg329
I0
sg330
I0
sg331
I5
ssg68
(dp342
g328
I0
sg329
I15
sg330
I0
sg331
I0
ssg70
(dp343
g328
I0
sg329
I0
sg330
I0
sg331
I0
ssg72
(dp344
g328
I0
sg329
I0
sg330
I0
sg331
I5
ssg74
I0
sg75
I0
sg76
S'Kulaaq'
p345
sg78
I4
sg79
I0
sg80
I11
sg81
I365
sg82
S'KAK'
p346
sg84
(dp347
S'A'
p348
I6
sS'ME'
p349
I9
sS'RP2'
p350
I6
sS'E'
p351
I11
sS'TO'
p352
I10
sS'RP1'
p353
I15
sS'JP'
p354
I4
sS'RP_tot'
p355
I15
sS'P'
p356
I3
sS'PA'
p357
I7
sS'M'
p358
I9
sS'R'
p359
I11
sS'TB'
p360
I2
sS'PL'
p361
I12
sS'TA'
p362
I7
ssg101
I11
sg102
I0
sg103
I0
sg104
I0
sg105
F11.419354838709678
sg106
I0
sg166
I0
sg107
I0
sg108
I1
sg109
(dp363
g348
I7
sg349
I9
sg350
I6
sg351
I11
sg356
I3
sg353
I15
sg354
I4
sg355
I15
sg352
I10
sg357
I7
sg358
I9
sg359
I12
sg360
I2
sg361
I13
sg362
I7
ssg111
I0
sg112
g59
sg113
I0
sg114
I0
sg115
I0
sg116
I39
sg117
I30
sg118
I1
sg119
S'HL'
p364
sbsS'drop2'
p365
(ijoueur
joueur
p366
(dp367
g27
I1
sg28
I0
sg29
I0
sg30
g31
(g32
g33
Ntp368
Rp369
(dp370
g37
I5
sg38
S'**'
p371
sg40
S'seigneur'
p372
sbsg42
(dp373
g280
I0
sg281
I0
sg282
I0
sg283
I0
ssg48
(dp374
g280
I0
sg281
I0
sg282
I0
sg283
I0
ssg50
I0
sg51
I0
sg52
I2
sg53
I0
sg54
I0
sg55
(g285
S'C1'
p375
S'AI'
p376
S'DO'
p377
tp378
sg61
g31
(g32
g33
Ntp379
Rp380
(dp381
g37
I5
sg38
S'**'
p382
sg40
g372
sbsg66
(dp383
g280
I0
sg281
I16
sg282
I0
sg283
I5
ssg68
(dp384
g280
I0
sg281
I0
sg282
I0
sg283
I0
ssg70
(dp385
g280
I0
sg281
I0
sg282
I0
sg283
I0
ssg72
(dp386
g280
I0
sg281
I16
sg282
I0
sg283
I5
ssg74
I1
sg75
I0
sg76
S'Iqatl'
p387
sg78
I8
sg79
I0
sg80
I22
sg81
I235
sg82
g298
sg84
(dp388
g300
I7
sg301
I6
sg302
I10
sg303
I11
sg304
I7
sg305
I12
sg306
I9
sg307
I15
sg308
I10
sg309
I12
sg310
I11
sg311
I11
sg312
I7
sg313
I11
sg314
I7
ssg101
I12
sg102
I0
sg103
I0
sg104
I0
sg105
F11.3
sg106
I0
sg107
I0
sg108
I0
sg109
(dp389
g300
I8
sg301
I6
sg302
I10
sg303
I11
sg308
I10
sg305
I12
sg306
I9
sg307
I15
sg304
I7
sg309
I12
sg310
I11
sg311
I12
sg312
I7
sg313
I12
sg314
I7
ssg111
I1
sg112
g59
sg113
I0
sg114
I0
sg115
I0
sg116
I24
sg117
I3
sg118
I0
sg119
S'HL'
p390
sbsS'RJL'
p391
g122
sS'SA_remp1'
p392
(ijoueur
joueur
p393
(dp394
g27
I0
sg28
I0
sg29
I0
sg30
g31
(g32
g33
Ntp395
Rp396
(dp397
g37
I4
sg38
S'x'
p398
sg40
S'heros'
p399
sbsg42
(dp400
S'SR'
p401
I0
sS'CT'
p402
I0
sS'CR'
p403
I0
sS'ST'
p404
I5
ssg48
(dp405
g401
I0
sg402
I0
sg403
I0
sg404
I0
ssg50
I0
sg51
I0
sg52
I1
sg53
I0
sg54
I0
sg55
(S'dummy'
p406
S'N8'
p407
S'TL'
p408
g59
tp409
sg61
g31
(g32
g33
Ntp410
Rp411
(dp412
g37
I4
sg38
g398
sg40
g399
sbsg66
(dp413
g401
I0
sg402
I14
sg403
I0
sg404
I0
ssg68
(dp414
g401
I0
sg402
I0
sg403
I0
sg404
I5
ssg70
(dp415
g401
I0
sg402
I0
sg403
I0
sg404
I0
ssg72
(dp416
g401
I0
sg402
I14
sg403
I0
sg404
I0
ssg74
I0
sg75
I0
sg76
S"Kal'Darq"
p417
sg78
I5
sg79
I0
sg80
I15
sg81
I283
sg82
S'FS'
p418
sg84
(dp419
S'A'
p420
I10
sS'ME'
p421
I11
sS'RP2'
p422
I7
sS'E'
p423
I11
sS'TO'
p424
I8
sS'RP1'
p425
I12
sS'JP'
p426
I0
sS'RP_tot'
p427
I12
sS'P'
p428
I2
sS'PA'
p429
I8
sS'M'
p430
I7
sS'R'
p431
I12
sS'TB'
p432
I1
sS'PL'
p433
I9
sS'TA'
p434
I7
ssg101
I9
sg102
I0
sg103
I0
sg104
I0
sg105
F11.241379310344827
sg106
I0
sg107
I0
sg108
I0
sg109
(dp435
g420
I11
sg421
I11
sg422
I7
sg423
I11
sg428
I2
sg425
I12
sg426
I0
sg427
I12
sg424
I8
sg429
I8
sg430
I7
sg431
I13
sg432
I1
sg433
I10
sg434
I7
ssg111
I0
sg112
S'MRB 11'
p436
sg113
I0
sg114
I0
sg115
I0
sg116
I56
sg117
I18
sg118
I0
sg119
S'HL'
p437
sbsS'drop1'
p438
g220
sS'SA_remp2'
p439
(ijoueur
joueur
p440
(dp441
g27
I0
sg28
I0
sg29
I0
sg30
g31
(g32
g33
Ntp442
Rp443
(dp444
g37
I4
sg38
S'x'
p445
sg40
S'heros'
p446
sbsg42
(dp447
S'SR'
p448
I0
sS'ST'
p449
I0
sS'CR'
p450
I0
sS'CT'
p451
I0
ssg48
(dp452
g448
I0
sg449
I0
sg450
I0
sg451
I0
ssg50
I0
sg51
I0
sg135
I0
sg136
I0
sg52
I2
sg53
I0
sg54
I0
sg55
(S'dummy'
p453
S'DL'
p454
S'N8'
p455
S'TL'
p456
tp457
sg61
g31
(g32
g33
Ntp458
Rp459
(dp460
g37
I4
sg38
S'x'
p461
sg40
g446
sbsg66
(dp462
g448
I0
sg449
I5
sg450
I1
sg451
I14
ssg68
(dp463
g448
I0
sg449
I0
sg450
I0
sg451
I0
ssg70
(dp464
g448
I0
sg449
I0
sg450
I0
sg451
I0
ssg72
(dp465
g448
I0
sg449
I5
sg450
I1
sg451
I14
ssg74
I0
sg75
I0
sg76
S'Kadraq'
p466
sg78
I4
sg79
I0
sg80
I17
sg81
I140
sg82
S'ALT'
p467
sg84
(dp468
S'A'
p469
I9
sS'ME'
p470
I14
sS'RP2'
p471
I8
sS'E'
p472
I10
sS'P'
p473
I0
sS'RP1'
p474
I11
sS'JP'
p475
I0
sS'RP_tot'
p476
I12
sS'TO'
p477
I8
sS'PA'
p478
I6
sS'M'
p479
I7
sS'R'
p480
I11
sS'TB'
p481
I1
sS'PL'
p482
I10
sS'TA'
p483
I6
ssg101
I8
sg102
I0
sg103
I0
sg104
I0
sg105
F11.296296296296296
sg106
I0
sg166
I0
sg107
I0
sg108
I0
sg109
(dp484
g469
I10
sg470
I14
sg471
I8
sg472
I10
sg477
I8
sg474
I11
sg475
I0
sg476
I12
sg473
I0
sg478
I6
sg479
I7
sg480
I12
sg481
I1
sg482
I11
sg483
I6
ssg111
I0
sg112
g59
sg113
I0
sg114
I0
sg115
I0
sg116
I23
sg117
I8
sg118
I0
sg119
S'HL'
p485
sbssS'totaux'
p486
(dp487
g19
I0
sg20
I0
sg21
I0
ssS'_compo_defaut_fatigue'
p488
Nsg84
(dp489
g4
I0
sg5
I0
sg6
I0
sg7
I0
sg8
I0
sg9
I0
sg10
I0
sg11
I0
sg12
I0
sg13
I0
sg14
I0
sg15
I0
sg16
I0
ssS'joueurs'
p490
(dp491
S'n12'
p492
g366
sS'n13'
p493
(ijoueur
joueur
p494
(dp495
g27
I0
sg28
I0
sg29
I0
sg30
g31
(g32
g33
Ntp496
Rp497
(dp498
g37
I5
sg38
S'xx'
p499
sg40
S'seigneur'
p500
sbsg42
(dp501
S'SR'
p502
I0
sS'CT'
p503
I0
sS'CR'
p504
I0
sS'ST'
p505
I0
ssg48
(dp506
g502
I0
sg503
I0
sg504
I0
sg505
I0
ssg50
I0
sg51
I0
sg52
I1
sg53
I0
sg54
I0
sg55
(S'dummy'
p507
S'C2'
p508
S'AI'
p509
S'AR'
p510
tp511
sg61
g31
(g32
g33
Ntp512
Rp513
(dp514
g37
I5
sg38
S'xx'
p515
sg40
g500
sbsg66
(dp516
g502
I0
sg503
I13
sg504
I0
sg505
I5
ssg68
(dp517
g502
I0
sg503
I0
sg504
I0
sg505
I0
ssg70
(dp518
g502
I0
sg503
I0
sg504
I0
sg505
I0
ssg72
(dp519
g502
I0
sg503
I13
sg504
I0
sg505
I5
ssg74
I0
sg75
I0
sg76
S"N'Waoy"
p520
sg78
I10
sg79
I0
sg80
I23
sg81
I350
sg82
S'GP'
p521
sg84
(dp522
S'A'
p523
I7
sS'ME'
p524
I5
sS'RP2'
p525
I10
sS'E'
p526
I12
sS'TO'
p527
I6
sS'RP1'
p528
I14
sS'JP'
p529
I7
sS'RP_tot'
p530
I17
sS'P'
p531
I9
sS'PA'
p532
I9
sS'M'
p533
I9
sS'R'
p534
I10
sS'TB'
p535
I7
sS'PL'
p536
I8
sS'TA'
p537
I6
ssg101
I9
sg102
I0
sg103
I0
sg104
I0
sg105
F10.724137931034482
sg106
I0
sg107
I0
sg108
I0
sg109
(dp538
g523
I8
sg524
I5
sg525
I10
sg526
I12
sg531
I9
sg528
I14
sg529
I7
sg530
I17
sg527
I6
sg532
I9
sg533
I9
sg534
I11
sg535
I7
sg536
I9
sg537
I6
ssg111
I0
sg112
g59
sg113
I0
sg114
I0
sg115
I0
sg116
I35
sg117
I1
sg118
I0
sg119
S'HL'
p539
sbsS'n10'
p540
g122
sS'n11'
p541
(ijoueur
joueur
p542
(dp543
g27
I0
sg28
I0
sg29
I0
sg30
g31
(g32
g33
Ntp544
Rp545
(dp546
g37
I5
sg38
S'xx'
p547
sg40
S'seigneur'
p548
sbsg42
(dp549
S'SR'
p550
I0
sS'ST'
p551
I0
sS'CR'
p552
I0
sS'CT'
p553
I0
ssg48
(dp554
g550
I0
sg551
I0
sg552
I0
sg553
I0
ssg50
I0
sg51
I0
sg52
I3
sg53
I0
sg54
I0
sg55
(S'dummy'
p555
S'AI'
p556
g59
g59
tp557
sg61
g31
(g32
g33
Ntp558
Rp559
(dp560
g37
I5
sg38
S'xx'
p561
sg40
g548
sbsg66
(dp562
g550
I0
sg551
I5
sg552
I0
sg553
I15
ssg68
(dp563
g550
I0
sg551
I0
sg552
I0
sg553
I0
ssg70
(dp564
g550
I0
sg551
I0
sg552
I0
sg553
I0
ssg72
(dp565
g550
I0
sg551
I5
sg552
I0
sg553
I15
ssg74
I0
sg75
I0
sg76
S'Lumoor'
p566
sg78
I9
sg79
I0
sg80
I25
sg81
I266
sg82
S'TO'
p567
sg84
(dp568
S'A'
p569
I11
sS'ME'
p570
I7
sS'RP2'
p571
I9
sS'E'
p572
I10
sS'P'
p573
I8
sS'RP1'
p574
I16
sS'JP'
p575
I8
sS'RP_tot'
p576
I18
sS'TO'
p577
I6
sS'PA'
p578
I10
sS'M'
p579
I11
sS'R'
p580
I7
sS'TB'
p581
I7
sS'PL'
p582
I9
sS'TA'
p583
I6
ssg101
I10
sg102
I0
sg103
I0
sg104
I0
sg105
F11.903225806451612
sg106
I0
sg107
I0
sg108
I0
sg109
(dp584
g569
I12
sg570
I7
sg571
I9
sg572
I10
sg577
I6
sg574
I16
sg575
I8
sg576
I18
sg573
I8
sg578
I10
sg579
I11
sg580
I8
sg581
I7
sg582
I10
sg583
I6
ssg111
I0
sg112
g59
sg113
I0
sg114
I0
sg115
I0
sg116
I28
sg117
I5
sg118
I0
sg119
S'HL'
p585
sbsS'n16'
p586
(ijoueur
joueur
p587
(dp588
g27
I1
sg28
I0
sg29
I0
sg30
g31
(g32
g33
Ntp589
Rp590
(dp591
g37
I5
sg38
S'**'
p592
sg40
S'seigneur'
p593
sbsg42
(dp594
g448
I0
sg449
I0
sg450
I0
sg451
I0
ssg48
(dp595
g448
I0
sg449
I0
sg450
I0
sg451
I0
ssg50
I0
sg51
I0
sg135
I0
sg136
I0
sg52
I5
sg53
I0
sg54
I0
sg55
(g453
S'TA'
p596
S'N8'
p597
g59
tp598
sg61
g31
(g32
g33
Ntp599
Rp600
(dp601
g37
I5
sg38
S'**'
p602
sg40
g593
sbsg66
(dp603
g448
I5
sg449
I0
sg450
I0
sg451
I15
ssg68
(dp604
g448
I0
sg449
I0
sg450
I0
sg451
I0
ssg70
(dp605
g448
I0
sg449
I0
sg450
I0
sg451
I0
ssg72
(dp606
g448
I5
sg449
I0
sg450
I0
sg451
I15
ssg74
I0
sg75
I0
sg76
S"Qyel'ak"
p607
sg78
I2
sg79
I0
sg80
I15
sg81
I203
sg82
g467
sg84
(dp608
g469
I9
sg470
I10
sg471
I7
sg472
I12
sg473
I5
sg474
I14
sg475
I6
sg476
I14
sg477
I6
sg478
I6
sg479
I7
sg480
I12
sg481
I3
sg482
I9
sg483
I11
ssg101
I3
sg102
I0
sg103
I0
sg104
I0
sg105
F10.931034482758621
sg106
I0
sg166
I0
sg107
I0
sg108
I0
sg109
(dp609
g469
I9
sg470
I10
sg471
I7
sg472
I12
sg477
I6
sg474
I14
sg475
I6
sg476
I14
sg473
I5
sg478
I6
sg479
I7
sg480
I12
sg481
I3
sg482
I9
sg483
I11
ssg111
I1
sg112
S'ED 9'
p610
sg113
I0
sg114
I0
sg115
I0
sg116
I25
sg117
I11
sg118
I0
sg119
S'HL'
p611
sbsS'n17'
p612
(ijoueur
joueur
p613
(dp614
g27
I0
sg28
I0
sg29
I0
sg30
g31
(g32
g33
Ntp615
Rp616
(dp617
g37
I5
sg38
S'xx'
p618
sg40
g500
sbsg42
(dp619
g502
I0
sg503
I0
sg504
I0
sg505
I0
ssg48
(dp620
g502
I0
sg503
I0
sg504
I0
sg505
I0
ssg50
I0
sg51
I0
sg52
I0
sg53
I0
sg54
I0
sg55
(g507
S'PI'
p621
S'TA'
p622
S'N8'
p623
tp624
sg61
g31
(g32
g33
Ntp625
Rp626
(dp627
g37
I5
sg38
S'xx'
p628
sg40
g500
sbsg66
(dp629
g502
I0
sg503
I12
sg504
I1
sg505
I0
ssg68
(dp630
g502
I0
sg503
I0
sg504
I0
sg505
I0
ssg70
(dp631
g502
I0
sg503
I0
sg504
I0
sg505
I0
ssg72
(dp632
g502
I0
sg503
I12
sg504
I1
sg505
I0
ssg74
I0
sg75
I0
sg76
S"Nav'Pil"
p633
sg78
I6
sg79
I0
sg80
I18
sg81
I350
sg82
g521
sg84
(dp634
g523
I8
sg524
I10
sg525
I7
sg526
I10
sg527
I4
sg528
I14
sg529
I3
sg530
I14
sg531
I5
sg532
I6
sg533
I7
sg534
I13
sg535
I5
sg536
I8
sg537
I11
ssg101
I0
sg102
I0
sg103
I1
sg104
I0
sg105
F10.586206896551724
sg106
I0
sg107
I1
sg108
I0
sg109
(dp635
g523
I8
sg524
I10
sg525
I7
sg526
I10
sg531
I5
sg528
I14
sg529
I3
sg530
I14
sg527
I4
sg532
I6
sg533
I7
sg534
I13
sg535
I5
sg536
I8
sg537
I11
ssg111
I0
sg112
g59
sg113
I0
sg114
I0
sg115
I0
sg116
I35
sg117
I0
sg118
I0
sg119
S'HL'
p636
sbsS'n14'
p637
(ijoueur
joueur
p638
(dp639
g27
I0
sg28
I0
sg29
I0
sg30
g31
(g32
g33
Ntp640
Rp641
(dp642
g37
I4
sg38
S'*'
p643
sg40
S'heros'
p644
sbsg42
(dp645
g502
I0
sg503
I0
sg504
I0
sg505
I0
ssg48
(dp646
g502
I0
sg503
I0
sg504
I0
sg505
I0
ssg50
I0
sg51
I0
sg52
I0
sg53
I0
sg54
I0
sg55
(g507
S'AI'
p647
S'CE'
p648
g59
tp649
sg61
g31
(g32
g33
Ntp650
Rp651
(dp652
g37
I4
sg38
g643
sg40
g644
sbsg66
(dp653
g502
I5
sg503
I13
sg504
I0
sg505
I0
ssg68
(dp654
g502
I0
sg503
I0
sg504
I0
sg505
I0
ssg70
(dp655
g502
I0
sg503
I0
sg504
I0
sg505
I0
ssg72
(dp656
g502
I5
sg503
I13
sg504
I0
sg505
I0
ssg74
I0
sg75
I0
sg76
S'Haloepl'
p657
sg78
I5
sg79
I0
sg80
I18
sg81
I150
sg82
g521
sg84
(dp658
g523
I9
sg524
I5
sg525
I10
sg526
I10
sg527
I5
sg528
I10
sg529
I6
sg530
I13
sg531
I8
sg532
I9
sg533
I14
sg534
I8
sg535
I6
sg536
I8
sg537
I7
ssg101
I5
sg102
I0
sg103
I0
sg104
I0
sg105
F10.419354838709678
sg106
I0
sg107
I0
sg108
I0
sg109
(dp659
g523
I9
sg524
I5
sg525
I10
sg526
I10
sg531
I8
sg528
I10
sg529
I6
sg530
I13
sg527
I5
sg532
I9
sg533
I14
sg534
I8
sg535
I6
sg536
I8
sg537
I7
ssg111
I0
sg112
g59
sg113
I0
sg114
I0
sg115
I0
sg116
I14
sg117
I0
sg118
I0
sg119
S'HL'
p660
sbsS'n15'
p661
g220
sS'n18'
p662
(ijoueur
joueur
p663
(dp664
g27
I0
sg28
I0
sg29
I0
sg30
g31
(g32
g33
Ntp665
Rp666
(dp667
g37
I4
sg38
S'*'
p668
sg40
S'heros'
p669
sbsg42
(dp670
S'SR'
p671
I0
sS'ST'
p672
I0
sS'CR'
p673
I0
sS'CT'
p674
I13
ssg48
(dp675
g671
I0
sg672
I0
sg673
I0
sg674
I0
ssg50
I0
sg51
I0
sg135
I0
sg136
I0
sg52
I4
sg53
I0
sg54
I0
sg55
(S'dummy'
p676
S'PI'
p677
S'DL'
p678
S'TL'
p679
tp680
sg61
g31
(g32
g33
Ntp681
Rp682
(dp683
g37
I5
sg38
S'xx'
p684
sg40
S'seigneur'
p685
sbsg66
(dp686
g671
I5
sg672
I0
sg673
I0
sg674
I0
ssg68
(dp687
g671
I0
sg672
I0
sg673
I0
sg674
I13
ssg70
(dp688
g671
I0
sg672
I0
sg673
I0
sg674
I0
ssg72
(dp689
g671
I5
sg672
I0
sg673
I0
sg674
I0
ssg74
I0
sg75
I0
sg76
S'Slend'
p690
sg78
I3
sg79
I0
sg80
I15
sg81
I363
sg82
S'MRB'
p691
sg84
(dp692
S'A'
p693
I9
sS'ME'
p694
I9
sS'RP2'
p695
I7
sS'E'
p696
I12
sS'P'
p697
I5
sS'RP1'
p698
I15
sS'JP'
p699
I4
sS'RP_tot'
p700
I15
sS'TO'
p701
I8
sS'PA'
p702
I9
sS'M'
p703
I9
sS'R'
p704
I11
sS'TB'
p705
I3
sS'PL'
p706
I8
sS'TA'
p707
I8
ssg101
I5
sg102
I0
sg103
I0
sg104
I0
sg105
F10.62962962962963
sg106
I0
sg166
I0
sg107
I0
sg108
I0
sg109
(dp708
g693
I9
sg694
I9
sg695
I7
sg696
I12
sg701
I8
sg698
I15
sg699
I4
sg700
I15
sg697
I5
sg702
I9
sg703
I9
sg704
I11
sg705
I3
sg706
I8
sg707
I8
ssg111
I0
sg112
S'TO 10'
p709
sg113
I0
sg114
I0
sg115
I0
sg116
I41
sg117
I8
sg118
I0
sg119
S'HL'
p710
sbsS'n19'
p711
g393
sS'n22'
p712
(ijoueur
joueur
p713
(dp714
g27
I0
sg28
I0
sg29
I0
sg30
g31
(g32
g33
Ntp715
Rp716
(dp717
g37
I4
sg38
g398
sg40
g399
sbsg42
(dp718
g401
I0
sg402
I0
sg403
I0
sg404
I0
ssg48
(dp719
g401
I0
sg402
I0
sg403
I0
sg404
I0
ssg50
I0
sg51
I0
sg52
I1
sg53
I0
sg54
I0
sg55
(g406
S'AI'
p720
g59
g59
tp721
sg61
g31
(g32
g33
Ntp722
Rp723
(dp724
g37
I4
sg38
g398
sg40
g399
sbsg66
(dp725
g401
I0
sg402
I13
sg403
I1
sg404
I5
ssg68
(dp726
g401
I0
sg402
I0
sg403
I0
sg404
I0
ssg70
(dp727
g401
I0
sg402
I0
sg403
I0
sg404
I0
ssg72
(dp728
g401
I0
sg402
I13
sg403
I1
sg404
I5
ssg74
I0
sg75
I0
sg76
S"Waad'Up"
p729
sg78
I7
sg79
I0
sg80
I19
sg81
I20
sg82
g418
sg84
(dp730
g420
I10
sg421
I5
sg422
I10
sg423
I11
sg424
I2
sg425
I9
sg426
I7
sg427
I12
sg428
I5
sg429
I8
sg430
I13
sg431
I7
sg432
I3
sg433
I8
sg434
I4
ssg101
I8
sg102
I0
sg103
I0
sg104
I0
sg105
F10.548387096774194
sg106
I0
sg107
I0
sg108
I0
sg109
(dp731
g420
I11
sg421
I5
sg422
I10
sg423
I11
sg428
I5
sg425
I9
sg426
I7
sg427
I12
sg424
I2
sg429
I8
sg430
I13
sg431
I8
sg432
I3
sg433
I9
sg434
I4
ssg111
I0
sg112
S'APA 9'
p732
sg113
I0
sg114
I0
sg115
I0
sg116
I2
sg117
I7
sg118
I0
sg119
S'HL'
p733
sbsS'n21'
p734
(ijoueur
joueur
p735
(dp736
g27
I0
sg28
I0
sg29
I0
sg30
g31
(g32
g33
Ntp737
Rp738
(dp739
g37
I4
sg38
S'x'
p740
sg40
S'heros'
p741
sbsg42
(dp742
S'SR'
p743
I0
sS'CT'
p744
I0
sS'CR'
p745
I0
sS'ST'
p746
I0
ssg48
(dp747
g743
I0
sg744
I0
sg745
I0
sg746
I0
ssg50
I0
sg51
I0
sg135
I0
sg136
I0
sg52
I2
sg53
I0
sg54
I0
sg55
(S'dummy'
p748
S'C2'
p749
S'AR'
p750
S'AI'
p751
tp752
sg61
g31
(g32
g33
Ntp753
Rp754
(dp755
g37
I4
sg38
g740
sg40
g741
sbsg66
(dp756
g743
I5
sg744
I6
sg745
I9
sg746
I0
ssg68
(dp757
g743
I0
sg744
I0
sg745
I0
sg746
I0
ssg70
(dp758
g743
I0
sg744
I0
sg745
I0
sg746
I0
ssg72
(dp759
g743
I5
sg744
I6
sg745
I9
sg746
I0
ssg74
I0
sg75
I0
sg76
S'Mlidaal'
p760
sg78
I3
sg79
I0
sg80
I10
sg81
I70
sg82
S'DKW'
p761
sg84
(dp762
S'A'
p763
I10
sS'ME'
p764
I7
sS'RP2'
p765
I5
sS'E'
p766
I11
sS'TO'
p767
I3
sS'RP1'
p768
I14
sS'JP'
p769
I5
sS'RP_tot'
p770
I14
sS'P'
p771
I4
sS'PA'
p772
I10
sS'M'
p773
I8
sS'R'
p774
I9
sS'TB'
p775
I1
sS'PL'
p776
I9
sS'TA'
p777
I4
ssg101
I5
sg102
I0
sg103
I0
sg104
I0
sg105
F10.0
sg106
I0
sg166
I0
sg107
I0
sg108
I0
sg109
(dp778
g763
I10
sg764
I7
sg765
I5
sg766
I11
sg771
I4
sg768
I14
sg769
I5
sg770
I14
sg767
I3
sg772
I10
sg773
I8
sg774
I9
sg775
I1
sg776
I9
sg777
I4
ssg111
I0
sg112
S'TO 10'
p779
sg113
I0
sg114
I0
sg115
I0
sg116
I16
sg117
I25
sg118
I0
sg119
S'HL'
p780
sbsS'n20'
p781
(ijoueur
joueur
p782
(dp783
g27
I0
sg28
I0
sg29
I0
sg30
g31
(g32
g33
Ntp784
Rp785
(dp786
g37
I5
sg38
S'xx'
p787
sg40
g500
sbsg42
(dp788
g502
I0
sg503
I0
sg504
I0
sg505
I0
ssg48
(dp789
g502
I0
sg503
I0
sg504
I0
sg505
I0
ssg50
I2
sg51
I2
sg52
I1
sg53
I2
sg54
I0
sg55
(g507
S'DO'
p790
S'CE'
p791
S'AR'
p792
tp793
sg61
g31
(g32
g33
Ntp794
Rp795
(dp796
g37
I5
sg38
S'xx'
p797
sg40
g500
sbsg66
(dp798
g502
I5
sg503
I12
sg504
I1
sg505
I0
ssg68
(dp799
g502
I0
sg503
I0
sg504
I0
sg505
I0
ssg70
(dp800
g502
I0
sg503
I0
sg504
I0
sg505
I0
ssg72
(dp801
g502
I5
sg503
I12
sg504
I1
sg505
I0
ssg74
I6
sg75
I6
sg76
S"D'yb"
p802
sg78
I9
sg79
I0
sg80
I19
sg81
I350
sg82
g521
sg84
(dp803
g523
I10
sg524
I6
sg525
I8
sg526
I13
sg527
I6
sg528
I13
sg529
I8
sg530
I14
sg531
I10
sg532
I8
sg533
I8
sg534
I9
sg535
I8
sg536
I9
sg537
I7
ssg101
I5
sg102
I0
sg103
I0
sg104
I0
sg105
F9.787878787878787
sg106
I2
sg107
I0
sg108
I1
sg109
(dp804
g523
I10
sg524
I6
sg525
I8
sg526
I13
sg531
I10
sg528
I13
sg529
I8
sg530
I14
sg527
I6
sg532
I8
sg533
I8
sg534
I9
sg535
I8
sg536
I9
sg537
I7
ssg111
I0
sg112
g59
sg113
I0
sg114
I0
sg115
I0
sg116
I35
sg117
I1
sg118
I1
sg119
S'HL'
p805
sbsS'n8'
p806
g25
sS'n9'
p807
g272
sS'n1'
p808
(ijoueur
joueur
p809
(dp810
g27
I0
sg28
I0
sg29
I0
sg30
g31
(g32
g33
Ntp811
Rp812
(dp813
g37
I4
sg38
S'x'
p814
sg40
S'heros'
p815
sbsg42
(dp816
S'SR'
p817
I0
sS'ST'
p818
I0
sS'CR'
p819
I0
sS'CT'
p820
I0
ssg48
(dp821
g817
I0
sg818
I0
sg819
I0
sg820
I0
ssg50
I0
sg51
I0
sg52
I1
sg53
I0
sg54
I0
sg55
(S'dummy'
p822
S'DL'
p823
S'PI'
p824
g59
tp825
sg61
g31
(g32
g33
Ntp826
Rp827
(dp828
g37
I5
sg38
S'**'
p829
sg40
S'seigneur'
p830
sbsg66
(dp831
g817
I5
sg818
I0
sg819
I0
sg820
I9
ssg68
(dp832
g817
I0
sg818
I0
sg819
I0
sg820
I0
ssg70
(dp833
g817
I0
sg818
I0
sg819
I0
sg820
I0
ssg72
(dp834
g817
I5
sg818
I0
sg819
I0
sg820
I9
ssg74
I0
sg75
I0
sg76
S'Ploetl'
p835
sg78
I5
sg79
I0
sg80
I15
sg81
I470
sg82
S'ED'
p836
sg84
(dp837
S'A'
p838
I9
sS'ME'
p839
I10
sS'RP2'
p840
I6
sS'E'
p841
I10
sS'P'
p842
I5
sS'RP1'
p843
I13
sS'JP'
p844
I4
sS'RP_tot'
p845
I13
sS'TO'
p846
I8
sS'PA'
p847
I6
sS'M'
p848
I7
sS'R'
p849
I13
sS'TB'
p850
I5
sS'PL'
p851
I9
sS'TA'
p852
I6
ssg101
I6
sg102
I0
sg103
I2
sg104
I0
sg105
F10.74074074074074
sg106
I0
sg107
I2
sg108
I0
sg109
(dp853
g838
I9
sg839
I10
sg840
I6
sg841
I10
sg846
I8
sg843
I13
sg844
I4
sg845
I13
sg842
I5
sg847
I6
sg848
I7
sg849
I13
sg850
I5
sg851
I9
sg852
I6
ssg111
I0
sg112
S'APA 11'
p854
sg113
I0
sg114
I0
sg115
I0
sg116
I43
sg117
I4
sg118
I0
sg119
S'HL'
p855
sbsS'n2'
p856
(ijoueur
joueur
p857
(dp858
g27
I0
sg28
I0
sg29
I0
sg30
g31
(g32
g33
Ntp859
Rp860
(dp861
g37
I5
sg38
S'**'
p862
sg40
S'seigneur'
p863
sbsg42
(dp864
g401
I0
sg402
I0
sg403
I0
sg404
I0
ssg48
(dp865
g401
I0
sg402
I0
sg403
I0
sg404
I0
ssg50
I0
sg51
I0
sg52
I1
sg53
I0
sg54
I0
sg55
(g406
S'TA'
p866
S'PI'
p867
g59
tp868
sg61
g31
(g32
g33
Ntp869
Rp870
(dp871
g37
I5
sg38
S'**'
p872
sg40
g863
sbsg66
(dp873
g401
I0
sg402
I15
sg403
I0
sg404
I5
ssg68
(dp874
g401
I0
sg402
I0
sg403
I0
sg404
I0
ssg70
(dp875
g401
I0
sg402
I0
sg403
I0
sg404
I0
ssg72
(dp876
g401
I0
sg402
I15
sg403
I0
sg404
I5
ssg74
I0
sg75
I0
sg76
S"Ayak'Ed"
p877
sg78
I7
sg79
I0
sg80
I21
sg81
I219
sg82
g418
sg84
(dp878
g420
I11
sg421
I10
sg422
I9
sg423
I13
sg424
I6
sg425
I14
sg426
I4
sg427
I16
sg428
I5
sg429
I8
sg430
I7
sg431
I10
sg432
I6
sg433
I6
sg434
I11
ssg101
I8
sg102
I0
sg103
I0
sg104
I0
sg105
F11.137931034482758
sg106
I0
sg107
I0
sg108
I0
sg109
(dp879
g420
I12
sg421
I10
sg422
I9
sg423
I13
sg428
I5
sg425
I14
sg426
I4
sg427
I16
sg424
I6
sg429
I8
sg430
I7
sg431
I11
sg432
I6
sg433
I7
sg434
I11
ssg111
I0
sg112
S'MDL 9'
p880
sg113
I0
sg114
I0
sg115
I0
sg116
I35
sg117
I5
sg118
I0
sg119
S'HL'
p881
sbsS'n3'
p882
(ijoueur
joueur
p883
(dp884
g27
I1
sg28
I0
sg29
I0
sg30
g31
(g32
g33
Ntp885
Rp886
(dp887
g37
I5
sg38
S'xx'
p888
sg40
g548
sbsg42
(dp889
g550
I0
sg551
I0
sg552
I0
sg553
I0
ssg48
(dp890
g550
I0
sg551
I0
sg552
I0
sg553
I0
ssg50
I0
sg51
I0
sg52
I0
sg53
I0
sg54
I0
sg55
(g555
S'PI'
p891
S'TA'
p892
g59
tp893
sg61
g31
(g32
g33
Ntp894
Rp895
(dp896
g37
I5
sg38
S'xx'
p897
sg40
g548
sbsg66
(dp898
g550
I0
sg551
I5
sg552
I0
sg553
I14
ssg68
(dp899
g550
I0
sg551
I0
sg552
I0
sg553
I0
ssg70
(dp900
g550
I0
sg551
I0
sg552
I0
sg553
I0
ssg72
(dp901
g550
I0
sg551
I5
sg552
I0
sg553
I14
ssg74
I0
sg75
I0
sg76
S"B'Aald"
p902
sg78
I8
sg79
I0
sg80
I21
sg81
I362
sg82
g567
sg84
(dp903
g569
I10
sg570
I10
sg571
I8
sg572
I11
sg573
I4
sg574
I13
sg575
I5
sg576
I14
sg577
I8
sg578
I10
sg579
I10
sg580
I11
sg581
I4
sg582
I10
sg583
I10
ssg101
I12
sg102
I0
sg103
I0
sg104
I0
sg105
F11.407407407407407
sg106
I0
sg107
I0
sg108
I0
sg109
(dp904
g569
I11
sg570
I10
sg571
I8
sg572
I11
sg577
I8
sg574
I13
sg575
I5
sg576
I14
sg573
I4
sg578
I10
sg579
I10
sg580
I12
sg581
I4
sg582
I11
sg583
I10
ssg111
I1
sg112
g59
sg113
I0
sg114
I0
sg115
I0
sg116
I37
sg117
I0
sg118
I0
sg119
S'HL'
p905
sbsS'n4'
p906
g172
sS'n5'
p907
g440
sS'n6'
p908
g320
sS'n7'
p909
(ijoueur
joueur
p910
(dp911
g27
I0
sg28
I0
sg29
I0
sg30
g31
(g32
g33
Ntp912
Rp913
(dp914
g37
I5
sg38
S'xx'
p915
sg40
g548
sbsg42
(dp916
g550
I2
sg551
I0
sg552
I0
sg553
I0
ssg48
(dp917
g550
I0
sg551
I0
sg552
I0
sg553
I0
ssg50
I0
sg51
I0
sg52
I3
sg53
I0
sg54
I0
sg55
(g555
S'N8'
p918
S'TL'
p919
g59
tp920
sg61
g31
(g32
g33
Ntp921
Rp922
(dp923
g37
I5
sg38
S'xx'
p924
sg40
g548
sbsg66
(dp925
g550
I3
sg551
I0
sg552
I0
sg553
I13
ssg68
(dp926
g550
I2
sg551
I0
sg552
I0
sg553
I0
ssg70
(dp927
g550
I0
sg551
I0
sg552
I0
sg553
I0
ssg72
(dp928
g550
I3
sg551
I0
sg552
I0
sg553
I13
ssg74
I0
sg75
I0
sg76
S'Slaandal'
p929
sg78
I3
sg79
I0
sg80
I13
sg81
I350
sg82
g567
sg84
(dp930
g569
I10
sg570
I12
sg571
I7
sg572
I13
sg573
I3
sg574
I14
sg575
I2
sg576
I14
sg577
I8
sg578
I7
sg579
I8
sg580
I11
sg581
I4
sg582
I10
sg583
I6
ssg101
I3
sg102
I0
sg103
I0
sg104
I0
sg105
F11.379310344827585
sg106
I0
sg107
I0
sg108
I1
sg109
(dp931
g569
I10
sg570
I12
sg571
I7
sg572
I13
sg577
I8
sg574
I14
sg575
I2
sg576
I14
sg573
I3
sg578
I7
sg579
I8
sg580
I11
sg581
I4
sg582
I10
sg583
I6
ssg111
I0
sg112
g59
sg113
I0
sg114
I0
sg115
I0
sg116
I35
sg117
I18
sg118
I1
sg119
S'HL'
p932
sbssS'remplacements'
p933
(dp934
g781
S'n0'
p935
sg586
g935
sg612
g935
sg712
g935
sg662
g935
sg711
g935
sg734
g935
ssb.