(iclub
compo
p0
(dp1
S'caracs_old'
p2
(dp3
S'A'
p4
cnumpy.core.multiarray
scalar
p5
(cnumpy
dtype
p6
(S'f8'
p7
I0
I1
tp8
Rp9
(I3
S'<'
p10
NNNI-1
I-1
I0
tp11
bS'\x00\x00\x00\x00\x000c@'
p12
tp13
Rp14
sS'ME'
p15
g5
(g9
S'\x00\x00\x00\x00\x00\x00X@'
p16
tp17
Rp18
sS'E'
p19
F181.0
sS'OplusAV'
p20
g5
(g9
S'\x00\x00\x00\x00\x00\xa0W@'
p21
tp22
Rp23
sS'OplusAR'
p24
F114.0
sS'JP'
p25
F92.25
sS'PA'
p26
F101.75
sS'M'
p27
g5
(g9
S'\x00\x00\x00\x00\x00\xa0X@'
p28
tp29
Rp30
sS'OmoinsAR'
p31
F104.0
sS'TO_off'
p32
F109.75
sS'TO_def'
p33
F103.0
sS'OmoinsAV'
p34
F101.5
sS'R'
p35
F174.25
ssS'totaux_old'
p36
(dp37
S'T2'
p38
F173.75
sS'T3'
p39
F90.5
sS'T1'
p40
F188.25
ssS'roles'
p41
(dp42
S'SA_scd'
p43
(ijoueur
joueur
p44
(dp45
S'rouges_total'
p46
I0
sS'residu_experience'
p47
F2.0
sS'drop_ratees_total'
p48
I0
sS'drops_total'
p49
I0
sS'xp_total'
p50
F19.371235546393702
sS'poste3'
p51
S''
p52
sS'blessure'
p53
I0
sS'poste1'
p54
g52
sS'points_retraite'
p55
I0
sS'RG_max'
p56
ccopy_reg
_reconstructor
p57
(cjoueur
rang_new
p58
c__builtin__
object
p59
Ntp60
Rp61
(dp62
S'type_nb'
p63
I4
sS'rang'
p64
S'*'
p65
sS'type'
p66
S'heros'
p67
sbsS'caracs_saison_13'
p68
(dp69
sS'MJ2_total'
p70
(dp71
S'SR'
p72
I0
sS'CT'
p73
I0
sS'CR'
p74
I0
sS'ST'
p75
I0
ssS'EV_saison_13'
p76
F9.735294117647058
sS'MJ3_total'
p77
(dp78
g72
I0
sg73
I0
sg74
I0
sg75
I0
ssS'rand_retraite'
p79
I10
sS'anciens_clubs'
p80
g52
sS'carte_evolution'
p81
(dp82
S'couleur'
p83
I1
sS'valeur'
p84
I10
sS'r_n'
p85
S'n'
p86
ssS'drop_rates_saison'
p87
I0
sS'xp_saison'
p88
F19.371235546393702
sS'nouveau_bonus_evolution'
p89
I00
sS'num_dernier_bonus'
p90
I2
sS'essais_saison'
p91
I0
sS'penalite_ratees_saison'
p92
I0
sS'transformations_saison'
p93
I0
sS'club'
p94
S'MRT'
p95
sS'veut_partir'
p96
I00
sS'experience_total'
p97
F13.0
sS'MJ1'
p98
(dp99
S'SR'
p100
I0
sS'ST'
p101
I0
sS'CR'
p102
I0
sS'CT'
p103
I2
ssS'MS_probleme'
p104
I00
sS'MJ3'
p105
(dp106
g100
I0
sg101
I0
sg102
I0
sg103
I0
ssS'MJ1_total'
p107
(dp108
g72
I0
sg73
I15
sg74
I0
sg75
I0
ssS'penalites_total'
p109
I0
sS'postes_maitrises'
p110
(lp111
S'dummy'
p112
aI01
aI00
aI00
asS'penalites_saison'
p113
I0
sS'nom'
p114
S'Drastarh'
p115
sS'C'
p116
I8
sS'transformations_total'
p117
I0
sS'MJ2'
p118
(dp119
g100
I0
sg101
I0
sg102
I0
sg103
I0
ssS'VAL'
p120
I253
sS'bonus'
p121
I2
sS'retraite'
p122
I00
sS'poste2'
p123
g52
sS'D'
p124
I16
sS'caracs'
p125
(dp126
S'RP1'
p127
I12
sS'ME'
p128
I11
sS'RP2'
p129
I8
sS'E'
p130
I11
sS'TO'
p131
I11
sS'M'
p132
I9
sS'JP'
p133
I4
sS'RP_tot'
p134
I13
sS'P'
p135
I3
sS'PA'
p136
I8
sS'A'
p137
I10
sS'R'
p138
I8
sS'TB'
p139
I2
sS'PL'
p140
I10
sS'TA'
p141
I5
ssS'RG'
p142
g61
sS'fatigue'
p143
g5
(g6
(S'i4'
p144
I0
I1
tp145
Rp146
(I3
S'<'
p147
NNNI-1
I-1
I0
tp148
bS'\x07\x00\x00\x00'
p149
tp150
Rp151
sS'changements_postes'
p152
g52
sS'blessures_total'
p153
I0
sS'experience_saison'
p154
I0
sS'XP'
p155
I0
sS'EV'
p156
F10.294117647058824
sS'penalite_ratees_total'
p157
I0
sS'postes'
p158
(S'dummy'
p159
S'DL'
p160
g52
g52
tp161
sS'evolution'
p162
I5
sS'blessures_saison'
p163
I0
sS'jj_passe'
p164
(dp165
S's13'
p166
(ijoueur
joueur
p167
(dp168
g46
I0
sg47
F2.0
sg48
I0
sg49
I0
sg90
I2
sg53
I0
sg56
g61
sg70
(dp169
S'SR'
p170
I0
sS'CT'
p171
I0
sS'CR'
p172
I0
sS'ST'
p173
I0
ssg77
g78
sg121
I0
sg80
g52
sg81
(dp174
S'couleur'
p175
I1
sS'valeur'
p176
I1
sS'r_n'
p177
S'n'
p178
ssg87
I0
sg91
I3
sg92
I0
sg93
I0
sg158
g161
sg96
I00
sg142
g61
sg97
F13.0
sg104
I00
sg105
(dp179
g72
I0
sg73
I0
sg74
I0
sg75
I0
ssg107
g108
sg109
I0
sg110
(lp180
S'dummy'
p181
aI01
aI00
aI00
asg98
(dp182
g72
I0
sg73
I13
sg74
I0
sg75
I0
ssg114
g115
sg116
I8
sg117
I0
sg124
I16
sg120
I253
sg94
g95
sg125
(dp183
S'A'
p184
I0
sS'ME'
p185
I0
sS'RP2'
p186
I0
sS'E'
p187
I0
sS'P'
p188
I0
sS'RP1'
p189
I0
sS'JP'
p190
I0
sS'RP_tot'
p191
I0
sS'TO'
p192
I0
sS'PA'
p193
I0
sS'M'
p194
I0
sS'R'
p195
I0
sS'TB'
p196
I0
sS'PL'
p197
I0
sS'TA'
p198
I0
ssg164
(dp199
sg143
I0
sg152
g52
sg153
I0
sg154
F13.0
sg155
I0
sg156
F9.735294117647058
sg157
I0
sg162
I0
sg118
(dp200
g72
I0
sg73
I0
sg74
I0
sg75
I0
ssS'jaunes_total'
p201
I0
sS'caracs_sans_fatigue'
p202
(dp203
S'A'
p204
I8
sS'ME'
p205
I10
sS'RP2'
p206
I8
sS'E'
p207
I11
sS'P'
p208
I3
sS'RP1'
p209
I11
sS'JP'
p210
I4
sS'RP_tot'
p211
I12
sS'TO'
p212
I10
sS'PA'
p213
I8
sS'M'
p214
I9
sS'R'
p215
I8
sS'TB'
p216
I2
sS'PL'
p217
I10
sS'TA'
p218
I5
ssS'rouges_saison'
p219
I0
sS'transformation_ratees_total'
p220
I0
sS'drops_saison'
p221
I0
sS'transformation_ratees_saison'
p222
I0
sS'MS'
p223
I25
sS'essais_total'
p224
I0
sg163
I0
sg113
I0
sS'jaunes_saison'
p225
I0
sS'ARM'
p226
S'ARA'
p227
sbsS's12'
p228
(ijoueur
joueur
p229
(dp230
g46
I0
sg47
I0
sg48
I0
sg49
I0
sg90
I0
sg53
I0
sg56
g57
(g58
g59
Ntp231
Rp232
(dp233
g64
g52
sbsg70
(dp234
g72
I0
sg73
I0
sg74
I0
sg75
I0
ssg77
(dp235
g72
I0
sg73
I0
sg74
I0
sg75
I0
ssg121
I0
sg80
g52
sg81
(dp236
g175
I1
sg176
I1
sg177
g178
ssg87
I0
sg91
I0
sg92
I0
sg93
I0
sg158
(g159
g160
g52
g52
tp237
sg96
I00
sg142
g57
(g58
g59
Ntp238
Rp239
(dp240
g64
g52
sbsg97
I0
sg104
I00
sg105
(dp241
g72
I0
sg73
I0
sg74
I0
sg75
I0
ssg107
(dp242
g72
I0
sg73
I0
sg74
I0
sg75
I0
ssg109
I0
sg110
(lp243
g181
aI01
aI00
aI00
asg98
(dp244
g72
I0
sg73
I0
sg74
I0
sg75
I0
ssg114
g52
sg116
I0
sg117
I0
sg124
I0
sg120
I0
sg94
g95
sg125
(dp245
g137
I0
sg128
I0
sg129
I0
sg130
I0
sg135
I0
sg127
I0
sg133
I0
sg134
I0
sg131
I0
sg136
I0
sg132
I0
sg138
I0
sg139
I0
sg140
I0
sg141
I0
ssg164
(dp246
sg143
I0
sg152
g52
sg153
I0
sg154
I0
sg155
I0
sg156
F9.735294117647058
sg157
I0
sg162
I0
sg118
(dp247
g72
I0
sg73
I0
sg74
I0
sg75
I0
ssg201
I0
sg202
(dp248
g127
I12
sg128
I11
sg129
I8
sg130
I11
sg135
I3
sg133
I4
sg132
I9
sg134
I13
sg131
I11
sg136
I8
sg137
I10
sg138
I8
sg139
I2
sg140
I10
sg141
I5
ssg219
I0
sg220
I0
sg221
I0
sg222
I0
sg223
I0
sg224
I0
sg163
I0
sg113
I0
sg225
I0
sg226
g52
sbsS's11'
p249
(ijoueur
joueur
p250
(dp251
g46
I0
sg47
I0
sg48
I0
sg49
I0
sg90
I0
sg53
I0
sg56
g57
(g58
g59
Ntp252
Rp253
(dp254
g64
g52
sbsg70
(dp255
g72
I0
sg73
I0
sg74
I0
sg75
I0
ssg77
(dp256
g72
I0
sg73
I0
sg74
I0
sg75
I0
ssg121
I0
sg80
g52
sg81
(dp257
g175
I1
sg176
I1
sg177
g178
ssg87
I0
sg91
I0
sg92
I0
sg93
I0
sg158
g237
sg96
I00
sg142
g57
(g58
g59
Ntp258
Rp259
(dp260
g64
g52
sbsg97
I0
sg104
I00
sg105
(dp261
g72
I0
sg73
I0
sg74
I0
sg75
I0
ssg107
(dp262
g72
I0
sg73
I0
sg74
I0
sg75
I0
ssg109
I0
sg110
(lp263
g181
aI01
aI00
aI00
asg98
(dp264
g72
I0
sg73
I0
sg74
I0
sg75
I0
ssg114
g52
sg116
I0
sg117
I0
sg124
I0
sg120
I0
sg94
g95
sg125
(dp265
g137
I0
sg128
I0
sg129
I0
sg130
I0
sg135
I0
sg127
I0
sg133
I0
sg134
I0
sg131
I0
sg136
I0
sg132
I0
sg138
I0
sg139
I0
sg140
I0
sg141
I0
ssg164
(dp266
sg143
I0
sg152
g52
sg153
I0
sg154
I0
sg155
I0
sg156
F9.735294117647058
sg157
I0
sg162
I0
sg118
(dp267
g72
I0
sg73
I0
sg74
I0
sg75
I0
ssg201
I0
sg202
g248
sg219
I0
sg220
I0
sg221
I0
sg222
I0
sg223
I0
sg224
I0
sg163
I0
sg113
I0
sg225
I0
sg226
g52
sbssg201
I0
sg202
g248
sg219
I0
sg220
I0
sg221
I0
sg222
I0
sg223
I25
sg224
I3
sg225
I0
sg226
g227
sbsS'drop3'
p268
(ijoueur
joueur
p269
(dp270
g46
I1
sg47
F6.5
sg48
I0
sg49
I5
sg50
F19.371235546393702
sg51
g52
sg53
I0
sg54
g52
sg55
I0
sg56
g57
(g58
g59
Ntp271
Rp272
(dp273
g63
I4
sg64
S'x'
p274
sg66
g67
sbsg68
(dp275
sg70
(dp276
g72
I0
sg73
I0
sg74
I0
sg75
I0
ssg76
F11.085714285714285
sg77
(dp277
g72
I0
sg73
I0
sg74
I0
sg75
I0
ssg79
I10
sg80
g52
sg81
(dp278
g83
I3
sg84
I5
sg85
g86
ssg87
I0
sg88
F19.371235546393702
sg89
I00
sg90
I3
sg91
I0
sg92
I1
sg93
I0
sg94
g95
sg96
I00
sg97
F19.5
sg98
(dp279
g100
I0
sg101
I0
sg102
I0
sg103
I2
ssg104
I00
sg105
(dp280
g100
I0
sg101
I0
sg102
I0
sg103
I0
ssg107
(dp281
g72
I0
sg73
I15
sg74
I1
sg75
I6
ssg109
I57
sg110
(lp282
g112
aI01
aI00
aI00
asg113
I3
sg114
S'Yvlarh Merik'
p283
sg116
I10
sg117
I24
sg118
(dp284
g100
I0
sg101
I0
sg102
I0
sg103
I0
ssg120
I180
sg121
I3
sg122
I00
sg123
g52
sg124
I21
sg125
(dp285
g127
I7
sg128
I6
sg129
I10
sg130
I11
sg131
I5
sg132
I11
sg133
I12
sg134
I10
sg135
I13
sg136
I11
sg137
I12
sg138
I9
sg139
I12
sg140
I12
sg141
I5
ssg142
g272
sg143
g5
(g146
S'\x05\x00\x00\x00'
p286
tp287
Rp288
sg152
g52
sg153
I0
sg154
I0
sg155
I0
sg156
F11.371428571428572
sg157
I4
sg158
(g159
S'AR'
p289
g52
g52
tp290
sg162
I5
sg163
I0
sg164
(dp291
S's13'
p292
(ijoueur
joueur
p293
(dp294
g46
I0
sg47
F6.5
sg48
I0
sg49
I0
sg90
I3
sg53
I0
sg56
g272
sg70
(dp295
g170
I0
sg171
I0
sg172
I0
sg173
I0
ssg77
g277
sg121
I0
sg80
g52
sg81
(dp296
g175
I1
sg176
I1
sg177
g178
ssg87
I0
sg91
I0
sg92
I3
sg93
I24
sg158
g290
sg96
I00
sg142
g272
sg97
F19.5
sg104
I00
sg105
(dp297
g72
I0
sg73
I0
sg74
I0
sg75
I0
ssg107
g281
sg109
I0
sg110
(lp298
g181
aI01
aI00
aI00
asg98
(dp299
g72
I0
sg73
I13
sg74
I1
sg75
I6
ssg114
g283
sg116
I10
sg117
I0
sg124
I21
sg120
I180
sg94
g95
sg125
(dp300
g184
I0
sg185
I0
sg186
I0
sg187
I0
sg188
I0
sg189
I0
sg190
I0
sg191
I0
sg192
I0
sg193
I0
sg194
I0
sg195
I0
sg196
I0
sg197
I0
sg198
I0
ssg164
(dp301
sg143
I0
sg152
g52
sg153
I0
sg154
F19.5
sg155
I0
sg156
F11.085714285714285
sg157
I0
sg162
I0
sg118
(dp302
g72
I0
sg73
I0
sg74
I0
sg75
I0
ssg201
I0
sg202
(dp303
g204
I12
sg205
I6
sg206
I10
sg207
I11
sg208
I11
sg209
I7
sg210
I11
sg211
I10
sg212
I5
sg213
I10
sg214
I11
sg215
I8
sg216
I12
sg217
I12
sg218
I5
ssg219
I0
sg220
I0
sg221
I5
sg222
I2
sg223
I18
sg224
I0
sg163
I0
sg113
I54
sg225
I0
sg226
g227
sbsS's12'
p304
(ijoueur
joueur
p305
(dp306
g46
I0
sg47
I0
sg48
I0
sg49
I0
sg90
I0
sg53
I0
sg56
g57
(g58
g59
Ntp307
Rp308
(dp309
g64
g52
sbsg70
(dp310
g72
I0
sg73
I0
sg74
I0
sg75
I0
ssg77
(dp311
g72
I0
sg73
I0
sg74
I0
sg75
I0
ssg121
I0
sg80
g52
sg81
(dp312
g175
I1
sg176
I1
sg177
g178
ssg87
I0
sg91
I0
sg92
I0
sg93
I0
sg158
(g159
g289
g52
g52
tp313
sg96
I00
sg142
g57
(g58
g59
Ntp314
Rp315
(dp316
g64
g52
sbsg97
I0
sg104
I00
sg105
(dp317
g72
I0
sg73
I0
sg74
I0
sg75
I0
ssg107
(dp318
g72
I0
sg73
I0
sg74
I0
sg75
I0
ssg109
I0
sg110
(lp319
g181
aI01
aI00
aI00
asg98
(dp320
g72
I0
sg73
I0
sg74
I0
sg75
I0
ssg114
g52
sg116
I0
sg117
I0
sg124
I0
sg120
I0
sg94
g95
sg125
(dp321
g137
I0
sg128
I0
sg129
I0
sg130
I0
sg135
I0
sg127
I0
sg133
I0
sg134
I0
sg131
I0
sg136
I0
sg132
I0
sg138
I0
sg139
I0
sg140
I0
sg141
I0
ssg164
(dp322
sg143
I0
sg152
g52
sg153
I0
sg154
I0
sg155
I0
sg156
F11.085714285714285
sg157
I0
sg162
I0
sg118
(dp323
g72
I0
sg73
I0
sg74
I0
sg75
I0
ssg201
I0
sg202
(dp324
g127
I7
sg128
I6
sg129
I10
sg130
I11
sg135
I13
sg133
I12
sg132
I11
sg134
I10
sg131
I5
sg136
I11
sg137
I12
sg138
I9
sg139
I12
sg140
I12
sg141
I5
ssg219
I0
sg220
I0
sg221
I0
sg222
I0
sg223
I0
sg224
I0
sg163
I0
sg113
I0
sg225
I0
sg226
g52
sbsS's11'
p325
(ijoueur
joueur
p326
(dp327
g46
I0
sg47
I0
sg48
I0
sg49
I0
sg90
I0
sg53
I0
sg56
g57
(g58
g59
Ntp328
Rp329
(dp330
g64
g52
sbsg70
(dp331
g72
I0
sg73
I0
sg74
I0
sg75
I0
ssg77
(dp332
g72
I0
sg73
I0
sg74
I0
sg75
I0
ssg121
I0
sg80
g52
sg81
(dp333
g175
I1
sg176
I1
sg177
g178
ssg87
I0
sg91
I0
sg92
I0
sg93
I0
sg158
g313
sg96
I00
sg142
g57
(g58
g59
Ntp334
Rp335
(dp336
g64
g52
sbsg97
I0
sg104
I00
sg105
(dp337
g72
I0
sg73
I0
sg74
I0
sg75
I0
ssg107
(dp338
g72
I0
sg73
I0
sg74
I0
sg75
I0
ssg109
I0
sg110
(lp339
g181
aI01
aI00
aI00
asg98
(dp340
g72
I0
sg73
I0
sg74
I0
sg75
I0
ssg114
g52
sg116
I0
sg117
I0
sg124
I0
sg120
I0
sg94
g95
sg125
(dp341
g137
I0
sg128
I0
sg129
I0
sg130
I0
sg135
I0
sg127
I0
sg133
I0
sg134
I0
sg131
I0
sg136
I0
sg132
I0
sg138
I0
sg139
I0
sg140
I0
sg141
I0
ssg164
(dp342
sg143
I0
sg152
g52
sg153
I0
sg154
I0
sg155
I0
sg156
F11.085714285714285
sg157
I0
sg162
I0
sg118
(dp343
g72
I0
sg73
I0
sg74
I0
sg75
I0
ssg201
I0
sg202
g324
sg219
I0
sg220
I0
sg221
I0
sg222
I0
sg223
I0
sg224
I0
sg163
I0
sg113
I0
sg225
I0
sg226
g52
sbssg201
I0
sg202
g324
sg219
I1
sg220
I2
sg221
I0
sg222
I0
sg223
I18
sg224
I0
sg225
I0
sg226
g227
sbsS'cap'
p344
g269
sS'SA_pcp2'
p345
(ijoueur
joueur
p346
(dp347
g46
I0
sg47
F4.5
sg48
I0
sg49
I0
sg50
F19.371235546393702
sg51
g52
sg53
I0
sg54
g52
sg55
I0
sg56
g57
(g58
g59
Ntp348
Rp349
(dp350
g63
I5
sg64
S'**'
p351
sg66
S'seigneur'
p352
sbsg68
(dp353
sg70
(dp354
g72
I1
sg73
I15
sg74
I0
sg75
I6
ssg76
F10.294117647058824
sg77
(dp355
g72
I0
sg73
I0
sg74
I0
sg75
I0
ssg79
I10
sg80
g52
sg81
(dp356
g83
I3
sg84
I11
sg85
g86
ssg87
I0
sg88
F19.371235546393702
sg89
I00
sg90
I2
sg91
I0
sg92
I0
sg93
I0
sg94
g95
sg96
I00
sg97
F19.5
sg98
(dp357
g100
I0
sg101
I0
sg102
I0
sg103
I0
ssg104
I00
sg105
(dp358
g100
I0
sg101
I0
sg102
I0
sg103
I0
ssg107
(dp359
g72
I0
sg73
I0
sg74
I0
sg75
I0
ssg109
I0
sg110
(lp360
g112
aI01
aI01
aI00
asg113
I0
sg114
S'Effnaerh'
p361
sg116
I6
sg117
I0
sg118
(dp362
g100
I0
sg101
I0
sg102
I0
sg103
I2
ssg120
I161
sg121
I3
sg122
I00
sg123
g52
sg124
I16
sg125
(dp363
g127
I10
sg128
I8
sg129
I9
sg130
I10
sg131
I13
sg132
I10
sg133
I6
sg134
I11
sg135
I6
sg136
I9
sg137
I8
sg138
I10
sg139
I6
sg140
I12
sg141
I4
ssg142
g349
sg143
g5
(g146
S'\t\x00\x00\x00'
p364
tp365
Rp366
sg152
g52
sg153
I0
sg154
I0
sg155
I0
sg156
F10.970588235294118
sg157
I0
sg158
(g159
g160
S'TL'
p367
g52
tp368
sg162
I6
sg163
I0
sg164
(dp369
S's13'
p370
(ijoueur
joueur
p371
(dp372
g46
I0
sg47
F4.5
sg48
I0
sg49
I0
sg90
I2
sg53
I0
sg56
g349
sg70
(dp373
g170
I0
sg171
I0
sg172
I0
sg173
I0
ssg77
g355
sg121
I0
sg80
g52
sg81
(dp374
g175
I1
sg176
I1
sg177
g178
ssg87
I0
sg91
I0
sg92
I0
sg93
I0
sg158
g368
sg96
I00
sg142
g349
sg97
F19.5
sg104
I00
sg105
(dp375
g72
I0
sg73
I0
sg74
I0
sg75
I0
ssg107
g359
sg109
I0
sg110
(lp376
g181
aI01
aI01
aI00
asg98
(dp377
g72
I0
sg73
I0
sg74
I0
sg75
I0
ssg114
g361
sg116
I6
sg117
I0
sg124
I16
sg120
I161
sg94
g95
sg125
(dp378
g184
I0
sg185
I0
sg186
I0
sg187
I0
sg188
I0
sg189
I0
sg190
I0
sg191
I0
sg192
I0
sg193
I0
sg194
I0
sg195
I0
sg196
I0
sg197
I0
sg198
I0
ssg164
(dp379
sg143
I0
sg152
g52
sg153
I0
sg154
F19.5
sg155
I0
sg156
F10.294117647058824
sg157
I0
sg162
I0
sg118
(dp380
g72
I1
sg73
I13
sg74
I0
sg75
I6
ssg201
I0
sg202
(dp381
g204
I9
sg205
I8
sg206
I9
sg207
I10
sg208
I6
sg209
I9
sg210
I6
sg211
I11
sg212
I13
sg213
I9
sg214
I9
sg215
I9
sg216
I6
sg217
I11
sg218
I4
ssg219
I0
sg220
I0
sg221
I0
sg222
I0
sg223
I16
sg224
I0
sg163
I0
sg113
I0
sg225
I0
sg226
g227
sbsS's12'
p382
(ijoueur
joueur
p383
(dp384
g46
I0
sg47
I0
sg48
I0
sg49
I0
sg90
I0
sg53
I0
sg56
g57
(g58
g59
Ntp385
Rp386
(dp387
g64
g52
sbsg70
(dp388
g72
I0
sg73
I0
sg74
I0
sg75
I0
ssg77
(dp389
g72
I0
sg73
I0
sg74
I0
sg75
I0
ssg121
I0
sg80
g52
sg81
(dp390
g175
I1
sg176
I1
sg177
g178
ssg87
I0
sg91
I0
sg92
I0
sg93
I0
sg158
(g159
g160
g52
g52
tp391
sg96
I00
sg142
g57
(g58
g59
Ntp392
Rp393
(dp394
g64
g52
sbsg97
I0
sg104
I00
sg105
(dp395
g72
I0
sg73
I0
sg74
I0
sg75
I0
ssg107
(dp396
g72
I0
sg73
I0
sg74
I0
sg75
I0
ssg109
I0
sg110
(lp397
g181
aI01
aI00
aI00
asg98
(dp398
g72
I0
sg73
I0
sg74
I0
sg75
I0
ssg114
g52
sg116
I0
sg117
I0
sg124
I0
sg120
I0
sg94
g95
sg125
(dp399
g137
I0
sg128
I0
sg129
I0
sg130
I0
sg135
I0
sg127
I0
sg133
I0
sg134
I0
sg131
I0
sg136
I0
sg132
I0
sg138
I0
sg139
I0
sg140
I0
sg141
I0
ssg164
(dp400
sg143
I0
sg152
g52
sg153
I0
sg154
I0
sg155
I0
sg156
F10.294117647058824
sg157
I0
sg162
I0
sg118
(dp401
g72
I0
sg73
I0
sg74
I0
sg75
I0
ssg201
I0
sg202
(dp402
g127
I10
sg128
I8
sg129
I9
sg130
I10
sg135
I6
sg133
I6
sg132
I10
sg134
I11
sg131
I13
sg136
I9
sg137
I9
sg138
I11
sg139
I6
sg140
I13
sg141
I4
ssg219
I0
sg220
I0
sg221
I0
sg222
I0
sg223
I0
sg224
I0
sg163
I0
sg113
I0
sg225
I0
sg226
g52
sbsS's11'
p403
(ijoueur
joueur
p404
(dp405
g46
I0
sg47
I0
sg48
I0
sg49
I0
sg90
I0
sg53
I0
sg56
g57
(g58
g59
Ntp406
Rp407
(dp408
g64
g52
sbsg70
(dp409
g72
I0
sg73
I0
sg74
I0
sg75
I0
ssg77
(dp410
g72
I0
sg73
I0
sg74
I0
sg75
I0
ssg121
I0
sg80
g52
sg81
(dp411
g175
I1
sg176
I1
sg177
g178
ssg87
I0
sg91
I0
sg92
I0
sg93
I0
sg158
g391
sg96
I00
sg142
g57
(g58
g59
Ntp412
Rp413
(dp414
g64
g52
sbsg97
I0
sg104
I00
sg105
(dp415
g72
I0
sg73
I0
sg74
I0
sg75
I0
ssg107
(dp416
g72
I0
sg73
I0
sg74
I0
sg75
I0
ssg109
I0
sg110
(lp417
g181
aI01
aI00
aI00
asg98
(dp418
g72
I0
sg73
I0
sg74
I0
sg75
I0
ssg114
g52
sg116
I0
sg117
I0
sg124
I0
sg120
I0
sg94
g95
sg125
(dp419
g137
I0
sg128
I0
sg129
I0
sg130
I0
sg135
I0
sg127
I0
sg133
I0
sg134
I0
sg131
I0
sg136
I0
sg132
I0
sg138
I0
sg139
I0
sg140
I0
sg141
I0
ssg164
(dp420
sg143
I0
sg152
g52
sg153
I0
sg154
I0
sg155
I0
sg156
F10.294117647058824
sg157
I0
sg162
I0
sg118
(dp421
g72
I0
sg73
I0
sg74
I0
sg75
I0
ssg201
I0
sg202
g402
sg219
I0
sg220
I0
sg221
I0
sg222
I0
sg223
I0
sg224
I0
sg163
I0
sg113
I0
sg225
I0
sg226
g52
sbssg201
I0
sg202
g402
sg219
I0
sg220
I0
sg221
I0
sg222
I0
sg223
I16
sg224
I0
sg225
I0
sg226
g227
sbsS'B4'
p422
g269
sS'RJC'
p423
g269
sS'B1'
p424
g269
sS'B2'
p425
g269
sS'B3'
p426
g269
sS'drop1'
p427
g269
sS'SA_pcp1'
p428
(ijoueur
joueur
p429
(dp430
g46
I0
sg47
F1.5
sg48
I0
sg49
I0
sg50
F19.371235546393702
sg51
g52
sg53
I0
sg54
g52
sg55
I0
sg56
g57
(g58
g59
Ntp431
Rp432
(dp433
g63
I4
sg64
g274
sg66
g67
sbsg68
(dp434
sg70
(dp435
g72
I1
sg73
I0
sg74
I0
sg75
I0
ssg76
F9.705882352941176
sg77
(dp436
g72
I0
sg73
I0
sg74
I0
sg75
I0
ssg79
I10
sg80
g52
sg81
(dp437
g83
I3
sg84
I7
sg85
g86
ssg87
I0
sg88
F19.371235546393702
sg89
I01
sg90
I4
sg91
I0
sg92
I0
sg93
I0
sg94
g95
sg96
I00
sg97
F15.5
sg98
(dp438
g100
I0
sg101
I0
sg102
I0
sg103
I2
ssg104
I00
sg105
(dp439
g100
I0
sg101
I0
sg102
I0
sg103
I0
ssg107
(dp440
g72
I4
sg73
I15
sg74
I0
sg75
I0
ssg109
I0
sg110
(lp441
g112
aI01
aI01
aI00
asg113
I0
sg114
S'Xokent'
p442
sg116
I13
sg117
I0
sg118
(dp443
g100
I0
sg101
I0
sg102
I0
sg103
I0
ssg120
I153
sg121
I4
sg122
I00
sg123
g52
sg124
I20
sg125
(dp444
g127
I8
sg128
I14
sg129
I8
sg130
I10
sg131
I13
sg132
I9
sg133
I6
sg134
I10
sg135
I4
sg136
I12
sg137
I14
sg138
I9
sg139
I5
sg140
I11
sg141
I8
ssg142
g432
sg143
g5
(g146
S'\x04\x00\x00\x00'
p445
tp446
Rp447
sg152
g52
sg153
I0
sg154
I0
sg155
I0
sg156
F11.411764705882353
sg157
I0
sg158
(g159
S'PI'
p448
S'DL'
p449
g52
tp450
sg162
I6
sg163
I0
sg164
(dp451
S's13'
p452
(ijoueur
joueur
p453
(dp454
g46
I0
sg47
F5.5
sg48
I0
sg49
I0
sg90
I4
sg53
I0
sg56
g432
sg70
(dp455
g170
I0
sg171
I0
sg172
I0
sg173
I0
ssg77
g436
sg121
I0
sg80
g52
sg81
(dp456
g175
I1
sg176
I1
sg177
g178
ssg87
I0
sg91
I1
sg92
I0
sg93
I0
sg158
g450
sg96
I00
sg142
g57
(g58
g59
Ntp457
Rp458
(dp459
g63
I3
sg64
S'^^^'
p460
sg66
S'rare'
p461
sbsg97
F15.5
sg104
I00
sg105
(dp462
g72
I0
sg73
I0
sg74
I0
sg75
I0
ssg107
g440
sg109
I0
sg110
(lp463
g181
aI01
aI01
aI00
asg98
(dp464
g72
I4
sg73
I13
sg74
I0
sg75
I0
ssg114
g442
sg116
I13
sg117
I0
sg124
I20
sg120
I103
sg94
g95
sg125
(dp465
g184
I0
sg185
I0
sg186
I0
sg187
I0
sg188
I0
sg189
I0
sg190
I0
sg191
I0
sg192
I0
sg193
I0
sg194
I0
sg195
I0
sg196
I0
sg197
I0
sg198
I0
ssg164
(dp466
sg143
I0
sg152
g52
sg153
I0
sg154
F15.5
sg155
I0
sg156
F9.705882352941176
sg157
I0
sg162
I0
sg118
(dp467
g72
I1
sg73
I0
sg74
I0
sg75
I0
ssg201
I0
sg202
(dp468
g204
I10
sg205
I11
sg206
I7
sg207
I9
sg208
I3
sg209
I8
sg210
I5
sg211
I9
sg212
I11
sg213
I10
sg214
I8
sg215
I8
sg216
I4
sg217
I10
sg218
I8
ssg219
I0
sg220
I0
sg221
I0
sg222
I0
sg223
I10
sg224
I0
sg163
I0
sg113
I0
sg225
I0
sg226
g227
sbssg201
I1
sg202
(dp469
g127
I8
sg128
I14
sg129
I8
sg130
I10
sg135
I4
sg133
I6
sg132
I9
sg134
I10
sg131
I13
sg136
I12
sg137
I14
sg138
I9
sg139
I5
sg140
I11
sg141
I8
ssg219
I0
sg220
I0
sg221
I0
sg222
I0
sg223
I15
sg224
I1
sg225
I1
sg226
g227
sbsS'RJL'
p470
g269
sS'SA_remp1'
p471
(ijoueur
joueur
p472
(dp473
g46
I0
sg47
F3.0
sg48
I0
sg49
I0
sg50
F19.371235546393702
sg51
g52
sg53
I0
sg54
g52
sg55
I0
sg56
g57
(g58
g59
Ntp474
Rp475
(dp476
g63
I2
sg64
S'<<'
p477
sg66
S'special'
p478
sbsg68
(dp479
sg70
(dp480
g72
I0
sg73
I0
sg74
I0
sg75
I0
ssg76
F7.7894736842105265
sg77
(dp481
g72
I0
sg73
I0
sg74
I0
sg75
I0
ssg79
I10
sg80
g52
sg81
(dp482
g83
I1
sg84
I8
sg85
g86
ssg87
I0
sg88
F19.371235546393702
sg89
I01
sg90
I2
sg91
I0
sg92
I0
sg93
I0
sg94
g95
sg96
I00
sg97
F6.0
sg98
(dp483
g100
I0
sg101
I0
sg102
I2
sg103
I0
ssg104
I00
sg105
(dp484
g100
I0
sg101
I0
sg102
I0
sg103
I0
ssg107
(dp485
g72
I0
sg73
I0
sg74
I14
sg75
I0
ssg109
I0
sg110
(lp486
g112
aI01
aI01
aI00
asg113
I0
sg114
S'Erkshyv'
p487
sg116
I13
sg117
I0
sg118
(dp488
g100
I0
sg101
I0
sg102
I0
sg103
I0
ssg120
I29
sg121
I2
sg122
I00
sg123
g52
sg124
I22
sg125
(dp489
g127
I6
sg128
I8
sg129
I6
sg130
I9
sg131
I10
sg132
I9
sg133
I4
sg134
I7
sg135
I4
sg136
I6
sg137
I8
sg138
I9
sg139
I4
sg140
I11
sg141
I4
ssg142
g475
sg143
I2
sg152
g52
sg153
I0
sg154
I0
sg155
I0
sg156
F9.078947368421053
sg157
I0
sg158
(g159
S'TL'
p490
S'DL'
p491
g52
tp492
sg162
I4
sg163
I0
sg164
(dp493
S's13'
p494
(ijoueur
joueur
p495
(dp496
g46
I0
sg47
F2.0
sg48
I0
sg49
I0
sg90
I3
sg53
I0
sg56
g475
sg70
(dp497
g170
I0
sg171
I0
sg172
I0
sg173
I0
ssg77
g481
sg121
I0
sg80
g52
sg81
(dp498
g175
I1
sg176
I1
sg177
g178
ssg87
I0
sg91
I1
sg92
I0
sg93
I0
sg158
g492
sg96
I00
sg142
g57
(g58
g59
Ntp499
Rp500
(dp501
g63
I1
sg64
S'^'
p502
sg66
S'base'
p503
sbsg97
F6.0
sg104
I00
sg105
(dp504
g72
I0
sg73
I0
sg74
I0
sg75
I0
ssg107
g485
sg109
I0
sg110
(lp505
g181
aI01
aI01
aI00
asg98
(dp506
g72
I0
sg73
I0
sg74
I12
sg75
I0
ssg114
g487
sg116
I13
sg117
I0
sg124
I22
sg120
I10
sg94
g95
sg125
(dp507
g184
I0
sg185
I0
sg186
I0
sg187
I0
sg188
I0
sg189
I0
sg190
I0
sg191
I0
sg192
I0
sg193
I0
sg194
I0
sg195
I0
sg196
I0
sg197
I0
sg198
I0
ssg164
(dp508
sg143
I0
sg152
g52
sg153
I0
sg154
F6.0
sg155
I0
sg156
F7.7894736842105265
sg157
I0
sg162
I0
sg118
(dp509
g72
I0
sg73
I0
sg74
I0
sg75
I0
ssg201
I0
sg202
(dp510
g204
I6
sg205
I7
sg206
I6
sg207
I8
sg208
I4
sg209
I6
sg210
I4
sg211
I7
sg212
I8
sg213
I5
sg214
I7
sg215
I9
sg216
I4
sg217
I8
sg218
I3
ssg219
I0
sg220
I0
sg221
I0
sg222
I0
sg223
I1
sg224
I0
sg163
I0
sg113
I0
sg225
I0
sg226
g227
sbssg201
I1
sg202
(dp511
g127
I6
sg128
I8
sg129
I6
sg130
I9
sg135
I4
sg133
I4
sg132
I9
sg134
I7
sg131
I10
sg136
I6
sg137
I8
sg138
I9
sg139
I4
sg140
I11
sg141
I4
ssg219
I0
sg220
I0
sg221
I0
sg222
I0
sg223
I2
sg224
I1
sg225
I1
sg226
g227
sbsS'drop2'
p512
g269
sS'SA_remp2'
p513
(ijoueur
joueur
p514
(dp515
g46
I0
sg47
F4.0
sg48
I0
sg49
I0
sg50
F19.371235546393702
sg51
g52
sg53
I0
sg54
g52
sg55
I0
sg56
g57
(g58
g59
Ntp516
Rp517
(dp518
g63
I5
sg64
g351
sg66
g352
sbsg68
(dp519
sg70
(dp520
g72
I0
sg73
I0
sg74
I0
sg75
I0
ssg76
F9.333333333333334
sg77
(dp521
g72
I0
sg73
I0
sg74
I0
sg75
I0
ssg79
I10
sg80
g52
sg81
(dp522
g83
I2
sg84
I1
sg85
S'r'
p523
ssg87
I0
sg88
F19.371235546393702
sg89
I01
sg90
I2
sg91
I0
sg92
I0
sg93
I0
sg94
g95
sg96
I00
sg97
F11.0
sg98
(dp524
g100
I0
sg101
I0
sg102
I0
sg103
I2
ssg104
I00
sg105
(dp525
g100
I0
sg101
I0
sg102
I0
sg103
I0
ssg107
(dp526
g72
I0
sg73
I13
sg74
I0
sg75
I0
ssg109
I0
sg110
(lp527
g112
aI01
aI00
aI00
asg113
I0
sg114
S'Vladror'
p528
sg116
I11
sg117
I0
sg118
(dp529
g100
I0
sg101
I0
sg102
I0
sg103
I0
ssg120
I171
sg121
I2
sg122
I00
sg123
g52
sg124
I22
sg125
(dp530
g127
I10
sg128
I9
sg129
I8
sg130
I11
sg131
I9
sg132
I9
sg133
I8
sg134
I11
sg135
I6
sg136
I9
sg137
I10
sg138
I9
sg139
I3
sg140
I9
sg141
I7
ssg142
g517
sg143
g5
(g146
S'\x07\x00\x00\x00'
p531
tp532
Rp533
sg152
g52
sg153
I1
sg154
I0
sg155
I0
sg156
F9.666666666666666
sg157
I0
sg158
(g159
g448
g52
g52
tp534
sg162
I2
sg163
I0
sg164
(dp535
S's13'
p536
(ijoueur
joueur
p537
(dp538
g46
I0
sg47
F1.0
sg48
I0
sg49
I0
sg90
I3
sg53
I0
sg56
g517
sg70
(dp539
g170
I0
sg171
I0
sg172
I0
sg173
I0
ssg77
g521
sg121
I0
sg80
g52
sg81
(dp540
g175
I1
sg176
I1
sg177
g178
ssg87
I0
sg91
I0
sg92
I0
sg93
I0
sg158
g534
sg96
I00
sg142
g517
sg97
F11.0
sg104
I00
sg105
(dp541
g72
I0
sg73
I0
sg74
I0
sg75
I0
ssg107
g526
sg109
I0
sg110
(lp542
g181
aI01
aI00
aI00
asg98
(dp543
g72
I0
sg73
I11
sg74
I0
sg75
I0
ssg114
g528
sg116
I11
sg117
I0
sg124
I22
sg120
I171
sg94
g95
sg125
(dp544
g184
I0
sg185
I0
sg186
I0
sg187
I0
sg188
I0
sg189
I0
sg190
I0
sg191
I0
sg192
I0
sg193
I0
sg194
I0
sg195
I0
sg196
I0
sg197
I0
sg198
I0
ssg164
(dp545
sg143
I0
sg152
g52
sg153
I0
sg154
F11.0
sg155
I0
sg156
F9.333333333333334
sg157
I0
sg162
I0
sg118
(dp546
g72
I0
sg73
I0
sg74
I0
sg75
I0
ssg201
I0
sg202
(dp547
g204
I10
sg205
I8
sg206
I8
sg207
I11
sg208
I6
sg209
I9
sg210
I7
sg211
I10
sg212
I9
sg213
I9
sg214
I9
sg215
I9
sg216
I3
sg217
I9
sg218
I7
ssg219
I0
sg220
I0
sg221
I0
sg222
I0
sg223
I17
sg224
I0
sg163
I0
sg113
I0
sg225
I0
sg226
g227
sbsS's12'
p548
(ijoueur
joueur
p549
(dp550
g46
I0
sg47
I0
sg48
I0
sg49
I0
sg90
I0
sg53
I0
sg56
g57
(g58
g59
Ntp551
Rp552
(dp553
g64
g52
sbsg70
(dp554
g72
I0
sg73
I0
sg74
I0
sg75
I0
ssg77
(dp555
g72
I0
sg73
I0
sg74
I0
sg75
I0
ssg121
I0
sg80
g52
sg81
(dp556
g175
I1
sg176
I1
sg177
g178
ssg87
I0
sg91
I0
sg92
I0
sg93
I0
sg158
(g159
g448
g52
g52
tp557
sg96
I00
sg142
g57
(g58
g59
Ntp558
Rp559
(dp560
g64
g52
sbsg97
I0
sg104
I00
sg105
(dp561
g72
I0
sg73
I0
sg74
I0
sg75
I0
ssg107
(dp562
g72
I0
sg73
I0
sg74
I0
sg75
I0
ssg109
I0
sg110
(lp563
g181
aI01
aI00
aI00
asg98
(dp564
g72
I0
sg73
I0
sg74
I0
sg75
I0
ssg114
g52
sg116
I0
sg117
I0
sg124
I0
sg120
I0
sg94
g95
sg125
(dp565
g137
I0
sg128
I0
sg129
I0
sg130
I0
sg135
I0
sg127
I0
sg133
I0
sg134
I0
sg131
I0
sg136
I0
sg132
I0
sg138
I0
sg139
I0
sg140
I0
sg141
I0
ssg164
(dp566
sg143
I0
sg152
g52
sg153
I0
sg154
I0
sg155
I0
sg156
F9.333333333333334
sg157
I0
sg162
I0
sg118
(dp567
g72
I0
sg73
I0
sg74
I0
sg75
I0
ssg201
I0
sg202
(dp568
g127
I10
sg128
I9
sg129
I8
sg130
I11
sg135
I6
sg133
I8
sg132
I9
sg134
I11
sg131
I9
sg136
I9
sg137
I10
sg138
I9
sg139
I3
sg140
I9
sg141
I7
ssg219
I0
sg220
I0
sg221
I0
sg222
I0
sg223
I0
sg224
I0
sg163
I0
sg113
I0
sg225
I0
sg226
g52
sbsS's11'
p569
(ijoueur
joueur
p570
(dp571
g46
I0
sg47
I0
sg48
I0
sg49
I0
sg90
I0
sg53
I0
sg56
g57
(g58
g59
Ntp572
Rp573
(dp574
g64
g52
sbsg70
(dp575
g72
I0
sg73
I0
sg74
I0
sg75
I0
ssg77
(dp576
g72
I0
sg73
I0
sg74
I0
sg75
I0
ssg121
I0
sg80
g52
sg81
(dp577
g175
I1
sg176
I1
sg177
g178
ssg87
I0
sg91
I0
sg92
I0
sg93
I0
sg158
g557
sg96
I00
sg142
g57
(g58
g59
Ntp578
Rp579
(dp580
g64
g52
sbsg97
I0
sg104
I00
sg105
(dp581
g72
I0
sg73
I0
sg74
I0
sg75
I0
ssg107
(dp582
g72
I0
sg73
I0
sg74
I0
sg75
I0
ssg109
I0
sg110
(lp583
g181
aI01
aI00
aI00
asg98
(dp584
g72
I0
sg73
I0
sg74
I0
sg75
I0
ssg114
g52
sg116
I0
sg117
I0
sg124
I0
sg120
I0
sg94
g95
sg125
(dp585
g137
I0
sg128
I0
sg129
I0
sg130
I0
sg135
I0
sg127
I0
sg133
I0
sg134
I0
sg131
I0
sg136
I0
sg132
I0
sg138
I0
sg139
I0
sg140
I0
sg141
I0
ssg164
(dp586
sg143
I0
sg152
g52
sg153
I0
sg154
I0
sg155
I0
sg156
F9.333333333333334
sg157
I0
sg162
I0
sg118
(dp587
g72
I0
sg73
I0
sg74
I0
sg75
I0
ssg201
I0
sg202
g568
sg219
I0
sg220
I0
sg221
I0
sg222
I0
sg223
I0
sg224
I0
sg163
I0
sg113
I0
sg225
I0
sg226
g52
sbssg201
I0
sg202
g568
sg219
I0
sg220
I0
sg221
I0
sg222
I0
sg223
I17
sg224
I0
sg225
I0
sg226
g227
sbssg114
csip
_unpickle_type
p588
(S'PyQt4.QtCore'
p589
S'QString'
p590
(VAHK_MRT
p591
tp592
tp593
Rp594
sS'totaux'
p595
(dp596
g38
I0
sg39
I0
sg40
I0
ssS'_compo_defaut_fatigue'
p597
Nsg125
(dp598
g4
I0
sg15
I0
sg19
I0
sg20
I0
sg24
I0
sg25
I0
sg26
I0
sg27
I0
sg31
I0
sg32
I0
sg33
I0
sg34
I0
sg35
I0
ssS'joueurs'
p599
(dp600
S'n12'
p601
(ijoueur
joueur
p602
(dp603
g46
I0
sg47
F3.0
sg48
I0
sg49
I0
sg50
F19.371235546393702
sg51
g52
sg53
I0
sg54
g52
sg55
I-7
sg56
g57
(g58
g59
Ntp604
Rp605
(dp606
g63
I4
sg64
g65
sg66
g67
sbsg68
(dp607
sg70
(dp608
g72
I0
sg73
I2
sg74
I0
sg75
I0
ssg76
F9.931034482758621
sg77
(dp609
g72
I0
sg73
I1
sg74
I0
sg75
I0
ssg124
I12
sg80
g52
sg81
(dp610
g83
I2
sg84
I6
sg85
g523
ssg87
I0
sg88
F19.371235546393702
sg89
I00
sg90
I1
sg91
I0
sg92
I0
sg93
I0
sg94
g95
sg96
I00
sg97
F13.0
sg98
(dp611
g100
I0
sg101
I0
sg102
I0
sg103
I2
ssg104
I00
sg105
(dp612
g100
I0
sg101
I0
sg102
I0
sg103
I0
ssg107
(dp613
g72
I0
sg73
I12
sg74
I0
sg75
I0
ssg109
I0
sg110
(lp614
g112
aI01
aI01
aI01
asg113
I0
sg114
S'Vishen'
p615
sg116
I3
sg117
I0
sS'random_retraite'
p616
I8
sg120
I230
sg121
I2
sg122
I00
sg123
g52
sg125
(dp617
g127
I10
sg128
I7
sg129
I9
sg130
I8
sg131
I5
sg132
I10
sg133
I8
sg134
I11
sg135
I10
sg136
I10
sg137
I10
sg138
I9
sg139
I6
sg140
I11
sg141
I6
ssg142
g605
sg143
g5
(g146
S'\x06\x00\x00\x00'
p618
tp619
Rp620
sg152
g52
sg153
I0
sg154
I0
sg155
I0
sg156
F9.931034482758621
sg157
I0
sg158
(g159
S'C2'
p621
S'AI'
p622
S'AR'
p623
tp624
sg162
I0
sg118
(dp625
g100
I0
sg101
I0
sg102
I0
sg103
I0
ssg164
(dp626
S's13'
p627
(ijoueur
joueur
p628
(dp629
g46
I0
sg47
F3.0
sg48
I0
sg49
I0
sg90
I1
sg53
I0
sg56
g605
sg70
(dp630
g170
I0
sg171
I0
sg172
I0
sg173
I0
ssg77
g609
sg121
I0
sg80
g52
sg81
(dp631
g175
I1
sg176
I1
sg177
g178
ssg87
I0
sg91
I2
sg92
I0
sg93
I0
sg158
g624
sg96
I00
sg142
g605
sg97
F13.0
sg104
I00
sg105
(dp632
g72
I0
sg73
I1
sg74
I0
sg75
I0
ssg107
g613
sg109
I0
sg110
(lp633
g181
aI01
aI01
aI01
asg98
(dp634
g72
I0
sg73
I10
sg74
I0
sg75
I0
ssg114
g615
sg116
I3
sg117
I0
sg124
I12
sg120
I230
sg94
g95
sg125
(dp635
g184
I0
sg185
I0
sg186
I0
sg187
I0
sg188
I0
sg189
I0
sg190
I0
sg191
I0
sg192
I0
sg193
I0
sg194
I0
sg195
I0
sg196
I0
sg197
I0
sg198
I0
ssg164
(dp636
sg143
I0
sg152
g52
sg153
I0
sg154
F13.0
sg155
I0
sg156
F9.931034482758621
sg157
I0
sg162
I0
sg118
(dp637
g72
I0
sg73
I2
sg74
I0
sg75
I0
ssg201
I0
sg202
(dp638
g204
I10
sg205
I7
sg206
I9
sg207
I8
sg208
I10
sg209
I10
sg210
I8
sg211
I11
sg212
I5
sg213
I10
sg214
I10
sg215
I9
sg216
I6
sg217
I11
sg218
I6
ssg219
I0
sg220
I0
sg221
I0
sg222
I0
sg223
I23
sg224
I0
sg163
I0
sg113
I0
sg225
I0
sg226
g227
sbsS's12'
p639
(ijoueur
joueur
p640
(dp641
g46
I0
sg47
I0
sg48
I0
sg49
I0
sg90
I0
sg53
I0
sg56
g57
(g58
g59
Ntp642
Rp643
(dp644
g64
g52
sbsg70
(dp645
g72
I0
sg73
I0
sg74
I0
sg75
I0
ssg77
(dp646
g72
I0
sg73
I0
sg74
I0
sg75
I0
ssg121
I0
sg80
g52
sg81
(dp647
g175
I1
sg176
I1
sg177
g178
ssg87
I0
sg91
I0
sg92
I0
sg93
I0
sg158
(g159
S'CE'
p648
g52
g52
tp649
sg96
I00
sg142
g57
(g58
g59
Ntp650
Rp651
(dp652
g64
g52
sbsg97
I0
sg104
I00
sg105
(dp653
g72
I0
sg73
I0
sg74
I0
sg75
I0
ssg107
(dp654
g72
I0
sg73
I0
sg74
I0
sg75
I0
ssg109
I0
sg110
(lp655
g181
aI01
aI00
aI00
asg98
(dp656
g72
I0
sg73
I0
sg74
I0
sg75
I0
ssg114
g52
sg116
I0
sg117
I0
sg124
I0
sg120
I0
sg94
g95
sg125
(dp657
g137
I0
sg128
I0
sg129
I0
sg130
I0
sg135
I0
sg127
I0
sg133
I0
sg134
I0
sg131
I0
sg136
I0
sg132
I0
sg138
I0
sg139
I0
sg140
I0
sg141
I0
ssg164
(dp658
sg143
I0
sg152
g52
sg153
I0
sg154
I0
sg155
I0
sg156
F9.931034482758621
sg157
I0
sg162
I0
sg118
(dp659
g72
I0
sg73
I0
sg74
I0
sg75
I0
ssg201
I0
sg202
(dp660
g127
I10
sg128
I7
sg129
I9
sg130
I8
sg135
I10
sg133
I8
sg132
I10
sg134
I11
sg131
I5
sg136
I10
sg137
I10
sg138
I9
sg139
I6
sg140
I11
sg141
I6
ssg219
I0
sg220
I0
sg221
I0
sg222
I0
sg223
I0
sg224
I0
sg163
I0
sg113
I0
sg225
I0
sg226
g52
sbsS's11'
p661
(ijoueur
joueur
p662
(dp663
g46
I0
sg47
I0
sg48
I0
sg49
I0
sg90
I0
sg53
I0
sg56
g57
(g58
g59
Ntp664
Rp665
(dp666
g64
g52
sbsg70
(dp667
g72
I0
sg73
I0
sg74
I0
sg75
I0
ssg77
(dp668
g72
I0
sg73
I0
sg74
I0
sg75
I0
ssg121
I0
sg80
g52
sg81
(dp669
g175
I1
sg176
I1
sg177
g178
ssg87
I0
sg91
I0
sg92
I0
sg93
I0
sg158
g649
sg96
I00
sg142
g57
(g58
g59
Ntp670
Rp671
(dp672
g64
g52
sbsg97
I0
sg104
I00
sg105
(dp673
g72
I0
sg73
I0
sg74
I0
sg75
I0
ssg107
(dp674
g72
I0
sg73
I0
sg74
I0
sg75
I0
ssg109
I0
sg110
(lp675
g181
aI01
aI00
aI00
asg98
(dp676
g72
I0
sg73
I0
sg74
I0
sg75
I0
ssg114
g52
sg116
I0
sg117
I0
sg124
I0
sg120
I0
sg94
g95
sg125
(dp677
g137
I0
sg128
I0
sg129
I0
sg130
I0
sg135
I0
sg127
I0
sg133
I0
sg134
I0
sg131
I0
sg136
I0
sg132
I0
sg138
I0
sg139
I0
sg140
I0
sg141
I0
ssg164
(dp678
sg143
I0
sg152
g52
sg153
I0
sg154
I0
sg155
I0
sg156
F9.931034482758621
sg157
I0
sg162
I0
sg118
(dp679
g72
I0
sg73
I0
sg74
I0
sg75
I0
ssg201
I0
sg202
g660
sg219
I0
sg220
I0
sg221
I0
sg222
I0
sg223
I0
sg224
I0
sg163
I0
sg113
I0
sg225
I0
sg226
g52
sbssg201
I0
sg202
g660
sg219
I0
sg220
I0
sg221
I0
sg222
I0
sg223
I23
sg224
I2
sg163
I0
sg225
I0
sg226
g227
sbsS'n13'
p680
(ijoueur
joueur
p681
(dp682
g46
I0
sg47
F3.5
sg48
I0
sg49
I0
sg50
F19.371235546393702
sg51
g52
sg53
I0
sg54
g52
sg55
I0
sg56
g57
(g58
g59
Ntp683
Rp684
(dp685
g63
I4
sg64
g65
sg66
g67
sbsg68
(dp686
sg70
(dp687
g72
I0
sg73
I0
sg74
I0
sg75
I0
ssg76
F10.068965517241379
sg77
(dp688
g72
I0
sg73
I0
sg74
I0
sg75
I0
ssg79
I10
sg80
g52
sg81
(dp689
g83
I1
sg84
I6
sg85
g86
ssg87
I0
sg88
F19.371235546393702
sg89
I00
sg90
I2
sg91
I0
sg92
I0
sg93
I0
sg94
g95
sg96
I00
sg97
F12.5
sg98
(dp690
g100
I0
sg101
I0
sg102
I0
sg103
I2
ssg104
I00
sg105
(dp691
g100
I0
sg101
I0
sg102
I0
sg103
I0
ssg107
(dp692
g72
I0
sg73
I14
sg74
I1
sg75
I0
ssg109
I0
sg110
(lp693
g112
aI01
aI00
aI00
asg113
I0
sg114
S"Rerh' Dienil"
p694
sg116
I9
sg117
I0
sg118
(dp695
g100
I0
sg101
I0
sg102
I0
sg103
I0
ssg120
I264
sg121
I1
sg122
I00
sg123
g52
sg124
I20
sg125
(dp696
g127
I12
sg128
I6
sg129
I8
sg130
I10
sg131
I5
sg132
I10
sg133
I8
sg134
I13
sg135
I9
sg136
I9
sg137
I10
sg138
I9
sg139
I8
sg140
I11
sg141
I4
ssg142
g684
sg143
g5
(g146
S'\x04\x00\x00\x00'
p697
tp698
Rp699
sg152
g52
sg153
I0
sg154
I0
sg155
I0
sg156
F10.379310344827585
sg157
I0
sg158
(g159
S'C2'
p700
g52
g52
tp701
sg162
I3
sg163
I0
sg164
(dp702
S's13'
p703
(ijoueur
joueur
p704
(dp705
g46
I0
sg47
F3.5
sg48
I0
sg49
I0
sg90
I2
sg53
I0
sg56
g684
sg70
(dp706
g170
I0
sg171
I0
sg172
I0
sg173
I0
ssg77
g688
sg121
I0
sg80
g52
sg81
(dp707
g175
I1
sg176
I1
sg177
g178
ssg87
I0
sg91
I1
sg92
I0
sg93
I0
sg158
g701
sg96
I00
sg142
g684
sg97
F12.5
sg104
I00
sg105
(dp708
g72
I0
sg73
I0
sg74
I0
sg75
I0
ssg107
g692
sg109
I0
sg110
(lp709
g181
aI01
aI00
aI00
asg98
(dp710
g72
I0
sg73
I12
sg74
I1
sg75
I0
ssg114
g694
sg116
I9
sg117
I0
sg124
I20
sg120
I264
sg94
g95
sg125
(dp711
g184
I0
sg185
I0
sg186
I0
sg187
I0
sg188
I0
sg189
I0
sg190
I0
sg191
I0
sg192
I0
sg193
I0
sg194
I0
sg195
I0
sg196
I0
sg197
I0
sg198
I0
ssg164
(dp712
sg143
I0
sg152
g52
sg153
I0
sg154
F12.5
sg155
I0
sg156
F10.068965517241379
sg157
I0
sg162
I0
sg118
(dp713
g72
I0
sg73
I0
sg74
I0
sg75
I0
ssg201
I0
sg202
(dp714
g204
I10
sg205
I6
sg206
I8
sg207
I9
sg208
I9
sg209
I12
sg210
I7
sg211
I13
sg212
I5
sg213
I8
sg214
I10
sg215
I9
sg216
I8
sg217
I11
sg218
I4
ssg219
I0
sg220
I0
sg221
I0
sg222
I0
sg223
I26
sg224
I0
sg163
I0
sg113
I0
sg225
I0
sg226
g227
sbsS's12'
p715
(ijoueur
joueur
p716
(dp717
g46
I0
sg47
I0
sg48
I0
sg49
I0
sg90
I0
sg53
I0
sg56
g57
(g58
g59
Ntp718
Rp719
(dp720
g64
g52
sbsg70
(dp721
g72
I0
sg73
I0
sg74
I0
sg75
I0
ssg77
(dp722
g72
I0
sg73
I0
sg74
I0
sg75
I0
ssg121
I0
sg80
g52
sg81
(dp723
g175
I1
sg176
I1
sg177
g178
ssg87
I0
sg91
I0
sg92
I0
sg93
I0
sg158
(g159
g648
g52
g52
tp724
sg96
I00
sg142
g57
(g58
g59
Ntp725
Rp726
(dp727
g64
g52
sbsg97
I0
sg104
I00
sg105
(dp728
g72
I0
sg73
I0
sg74
I0
sg75
I0
ssg107
(dp729
g72
I0
sg73
I0
sg74
I0
sg75
I0
ssg109
I0
sg110
(lp730
g181
aI01
aI00
aI00
asg98
(dp731
g72
I0
sg73
I0
sg74
I0
sg75
I0
ssg114
g52
sg116
I0
sg117
I0
sg124
I0
sg120
I0
sg94
g95
sg125
(dp732
g137
I0
sg128
I0
sg129
I0
sg130
I0
sg135
I0
sg127
I0
sg133
I0
sg134
I0
sg131
I0
sg136
I0
sg132
I0
sg138
I0
sg139
I0
sg140
I0
sg141
I0
ssg164
(dp733
sg143
I0
sg152
g52
sg153
I0
sg154
I0
sg155
I0
sg156
F10.068965517241379
sg157
I0
sg162
I0
sg118
(dp734
g72
I0
sg73
I0
sg74
I0
sg75
I0
ssg201
I0
sg202
(dp735
g127
I12
sg128
I6
sg129
I8
sg130
I10
sg135
I9
sg133
I8
sg132
I10
sg134
I13
sg131
I5
sg136
I9
sg137
I10
sg138
I9
sg139
I8
sg140
I11
sg141
I4
ssg219
I0
sg220
I0
sg221
I0
sg222
I0
sg223
I0
sg224
I0
sg163
I0
sg113
I0
sg225
I0
sg226
g52
sbsS's11'
p736
(ijoueur
joueur
p737
(dp738
g46
I0
sg47
I0
sg48
I0
sg49
I0
sg90
I0
sg53
I0
sg56
g57
(g58
g59
Ntp739
Rp740
(dp741
g64
g52
sbsg70
(dp742
g72
I0
sg73
I0
sg74
I0
sg75
I0
ssg77
(dp743
g72
I0
sg73
I0
sg74
I0
sg75
I0
ssg121
I0
sg80
g52
sg81
(dp744
g175
I1
sg176
I1
sg177
g178
ssg87
I0
sg91
I0
sg92
I0
sg93
I0
sg158
g724
sg96
I00
sg142
g57
(g58
g59
Ntp745
Rp746
(dp747
g64
g52
sbsg97
I0
sg104
I00
sg105
(dp748
g72
I0
sg73
I0
sg74
I0
sg75
I0
ssg107
(dp749
g72
I0
sg73
I0
sg74
I0
sg75
I0
ssg109
I0
sg110
(lp750
g181
aI01
aI00
aI00
asg98
(dp751
g72
I0
sg73
I0
sg74
I0
sg75
I0
ssg114
g52
sg116
I0
sg117
I0
sg124
I0
sg120
I0
sg94
g95
sg125
(dp752
g137
I0
sg128
I0
sg129
I0
sg130
I0
sg135
I0
sg127
I0
sg133
I0
sg134
I0
sg131
I0
sg136
I0
sg132
I0
sg138
I0
sg139
I0
sg140
I0
sg141
I0
ssg164
(dp753
sg143
I0
sg152
g52
sg153
I0
sg154
I0
sg155
I0
sg156
F10.068965517241379
sg157
I0
sg162
I0
sg118
(dp754
g72
I0
sg73
I0
sg74
I0
sg75
I0
ssg201
I0
sg202
g735
sg219
I0
sg220
I0
sg221
I0
sg222
I0
sg223
I0
sg224
I0
sg163
I0
sg113
I0
sg225
I0
sg226
g52
sbssg201
I0
sg202
g735
sg219
I0
sg220
I0
sg221
I0
sg222
I0
sg223
I26
sg224
I1
sg225
I0
sg226
g227
sbsS'n10'
p755
(ijoueur
joueur
p756
(dp757
g46
I0
sg47
F1.0
sg48
I0
sg49
I1
sg50
F19.371235546393702
sg51
g52
sg53
I0
sg54
g52
sg55
I0
sg56
g57
(g58
g59
Ntp758
Rp759
(dp760
g63
I4
sg64
g65
sg66
g67
sbsg68
(dp761
sg70
(dp762
g72
I0
sg73
I0
sg74
I0
sg75
I0
ssg76
F9.303030303030303
sg77
(dp763
g72
I0
sg73
I0
sg74
I0
sg75
I0
ssg79
I10
sg80
g52
sg81
(dp764
g83
I1
sg84
I11
sg85
g86
ssg87
I0
sg88
F19.371235546393702
sg89
I00
sg90
I2
sg91
I0
sg92
I0
sg93
I0
sg94
g95
sg96
I00
sg97
F12.0
sg98
(dp765
g100
I0
sg101
I0
sg102
I0
sg103
I2
ssg104
I00
sg105
(dp766
g100
I0
sg101
I0
sg102
I0
sg103
I0
ssg107
(dp767
g72
I0
sg73
I14
sg74
I0
sg75
I0
ssg109
I0
sg110
(lp768
g112
aI01
aI01
aI00
asg113
I0
sg114
S"Krash'Ten"
p769
sg116
I8
sg117
I0
sg118
(dp770
g100
I0
sg101
I0
sg102
I0
sg103
I0
ssg120
I241
sg121
I2
sg122
I00
sg123
g52
sg124
I22
sg125
(dp771
g127
I8
sg128
I5
sg129
I9
sg130
I9
sg131
I5
sg132
I9
sg133
I10
sg134
I10
sg135
I7
sg136
I12
sg137
I11
sg138
I9
sg139
I9
sg140
I12
sg141
I5
ssg142
g759
sg143
g5
(g146
S'\x06\x00\x00\x00'
p772
tp773
Rp774
sg152
g52
sg153
I1
sg154
I0
sg155
I0
sg156
F9.93939393939394
sg157
I0
sg158
(g159
S'DO'
p775
S'AR'
p776
g52
tp777
sg162
I5
sg163
I0
sg164
(dp778
S's13'
p779
(ijoueur
joueur
p780
(dp781
g46
I0
sg47
F1.0
sg48
I0
sg49
I0
sg90
I2
sg53
I0
sg56
g759
sg70
(dp782
g170
I0
sg171
I0
sg172
I0
sg173
I0
ssg77
g763
sg121
I0
sg80
g52
sg81
(dp783
g175
I1
sg176
I1
sg177
g178
ssg87
I0
sg91
I0
sg92
I0
sg93
I0
sg158
g777
sg96
I00
sg142
g759
sg97
F12.0
sg104
I00
sg105
(dp784
g72
I0
sg73
I0
sg74
I0
sg75
I0
ssg107
g767
sg109
I0
sg110
(lp785
g181
aI01
aI01
aI00
asg98
(dp786
g72
I0
sg73
I12
sg74
I0
sg75
I0
ssg114
g769
sg116
I8
sg117
I0
sg124
I22
sg120
I241
sg94
g95
sg125
(dp787
g184
I0
sg185
I0
sg186
I0
sg187
I0
sg188
I0
sg189
I0
sg190
I0
sg191
I0
sg192
I0
sg193
I0
sg194
I0
sg195
I0
sg196
I0
sg197
I0
sg198
I0
ssg164
(dp788
sg143
I0
sg152
g52
sg153
I0
sg154
F12.0
sg155
I0
sg156
F9.303030303030303
sg157
I0
sg162
I0
sg118
(dp789
g72
I0
sg73
I0
sg74
I0
sg75
I0
ssg201
I0
sg202
(dp790
g204
I11
sg205
I5
sg206
I9
sg207
I9
sg208
I7
sg209
I8
sg210
I8
sg211
I10
sg212
I5
sg213
I10
sg214
I9
sg215
I8
sg216
I8
sg217
I12
sg218
I5
ssg219
I0
sg220
I0
sg221
I0
sg222
I0
sg223
I24
sg224
I0
sg163
I0
sg113
I0
sg225
I0
sg226
g227
sbsS's12'
p791
(ijoueur
joueur
p792
(dp793
g46
I0
sg47
I0
sg48
I0
sg49
I0
sg90
I0
sg53
I0
sg56
g57
(g58
g59
Ntp794
Rp795
(dp796
g64
g52
sbsg70
(dp797
g72
I0
sg73
I0
sg74
I0
sg75
I0
ssg77
(dp798
g72
I0
sg73
I0
sg74
I0
sg75
I0
ssg121
I0
sg80
g52
sg81
(dp799
g175
I1
sg176
I1
sg177
g178
ssg87
I0
sg91
I0
sg92
I0
sg93
I0
sg158
(g159
g775
g52
g52
tp800
sg96
I00
sg142
g57
(g58
g59
Ntp801
Rp802
(dp803
g64
g52
sbsg97
I0
sg104
I00
sg105
(dp804
g72
I0
sg73
I0
sg74
I0
sg75
I0
ssg107
(dp805
g72
I0
sg73
I0
sg74
I0
sg75
I0
ssg109
I0
sg110
(lp806
g181
aI01
aI00
aI00
asg98
(dp807
g72
I0
sg73
I0
sg74
I0
sg75
I0
ssg114
g52
sg116
I0
sg117
I0
sg124
I0
sg120
I0
sg94
g95
sg125
(dp808
g137
I0
sg128
I0
sg129
I0
sg130
I0
sg135
I0
sg127
I0
sg133
I0
sg134
I0
sg131
I0
sg136
I0
sg132
I0
sg138
I0
sg139
I0
sg140
I0
sg141
I0
ssg164
(dp809
sg143
I0
sg152
g52
sg153
I0
sg154
I0
sg155
I0
sg156
F9.303030303030303
sg157
I0
sg162
I0
sg118
(dp810
g72
I0
sg73
I0
sg74
I0
sg75
I0
ssg201
I0
sg202
(dp811
g127
I8
sg128
I5
sg129
I9
sg130
I9
sg135
I7
sg133
I10
sg132
I9
sg134
I10
sg131
I5
sg136
I12
sg137
I11
sg138
I9
sg139
I9
sg140
I12
sg141
I5
ssg219
I0
sg220
I0
sg221
I0
sg222
I0
sg223
I0
sg224
I0
sg163
I0
sg113
I0
sg225
I0
sg226
g52
sbsS's11'
p812
(ijoueur
joueur
p813
(dp814
g46
I0
sg47
I0
sg48
I0
sg49
I0
sg90
I0
sg53
I0
sg56
g57
(g58
g59
Ntp815
Rp816
(dp817
g64
g52
sbsg70
(dp818
g72
I0
sg73
I0
sg74
I0
sg75
I0
ssg77
(dp819
g72
I0
sg73
I0
sg74
I0
sg75
I0
ssg121
I0
sg80
g52
sg81
(dp820
g175
I1
sg176
I1
sg177
g178
ssg87
I0
sg91
I0
sg92
I0
sg93
I0
sg158
g800
sg96
I00
sg142
g57
(g58
g59
Ntp821
Rp822
(dp823
g64
g52
sbsg97
I0
sg104
I00
sg105
(dp824
g72
I0
sg73
I0
sg74
I0
sg75
I0
ssg107
(dp825
g72
I0
sg73
I0
sg74
I0
sg75
I0
ssg109
I0
sg110
(lp826
g181
aI01
aI00
aI00
asg98
(dp827
g72
I0
sg73
I0
sg74
I0
sg75
I0
ssg114
g52
sg116
I0
sg117
I0
sg124
I0
sg120
I0
sg94
g95
sg125
(dp828
g137
I0
sg128
I0
sg129
I0
sg130
I0
sg135
I0
sg127
I0
sg133
I0
sg134
I0
sg131
I0
sg136
I0
sg132
I0
sg138
I0
sg139
I0
sg140
I0
sg141
I0
ssg164
(dp829
sg143
I0
sg152
g52
sg153
I0
sg154
I0
sg155
I0
sg156
F9.303030303030303
sg157
I0
sg162
I0
sg118
(dp830
g72
I0
sg73
I0
sg74
I0
sg75
I0
ssg201
I0
sg202
g811
sg219
I0
sg220
I0
sg221
I0
sg222
I0
sg223
I0
sg224
I0
sg163
I0
sg113
I0
sg225
I0
sg226
g52
sbssg201
I1
sg202
g811
sg219
I0
sg220
I0
sg221
I1
sg222
I0
sg223
I24
sg224
I0
sg225
I0
sg226
g227
sbsS'n11'
p831
(ijoueur
joueur
p832
(dp833
g46
I0
sg47
F0.0
sg48
I0
sg49
I0
sg50
F19.371235546393702
sg51
g52
sg53
I0
sg54
g52
sg55
I0
sg56
g57
(g58
g59
Ntp834
Rp835
(dp836
g63
I4
sg64
g65
sg66
g67
sbsg68
(dp837
sg70
(dp838
g72
I0
sg73
I0
sg74
I0
sg75
I0
ssg76
F10.580645161290322
sg77
(dp839
g72
I0
sg73
I0
sg74
I0
sg75
I0
ssg79
I10
sg80
g52
sg81
(dp840
g83
I3
sg84
I2
sg85
g86
ssg87
I0
sg88
F19.371235546393702
sg89
I01
sg90
I3
sg91
I0
sg92
I0
sg93
I0
sg94
g95
sg96
I00
sg97
F13.0
sg98
(dp841
g100
I0
sg101
I0
sg102
I0
sg103
I2
ssg104
I00
sg105
(dp842
g100
I0
sg101
I0
sg102
I0
sg103
I0
ssg107
(dp843
g72
I0
sg73
I15
sg74
I0
sg75
I0
ssg109
I0
sg110
(lp844
g112
aI01
aI01
aI00
asg113
I0
sg114
S'Qhomghes'
p845
sg116
I11
sg117
I0
sg118
(dp846
g100
I0
sg101
I0
sg102
I0
sg103
I0
ssg120
I172
sg121
I3
sg122
I00
sg123
g52
sg124
I24
sg125
(dp847
g127
I12
sg128
I6
sg129
I11
sg130
I7
sg131
I6
sg132
I12
sg133
I5
sg134
I14
sg135
I7
sg136
I13
sg137
I11
sg138
I8
sg139
I5
sg140
I11
sg141
I5
ssg142
g835
sg143
g5
(g146
S'\x07\x00\x00\x00'
p848
tp849
Rp850
sg152
g52
sg153
I1
sg154
I0
sg155
I0
sg156
F11.0
sg157
I0
sg158
(g159
S'AI'
p851
S'CE'
p852
g52
tp853
sg162
I4
sg163
I0
sg164
(dp854
S's13'
p855
(ijoueur
joueur
p856
(dp857
g46
I0
sg47
F3.0
sg48
I0
sg49
I0
sg90
I3
sg53
I0
sg56
g835
sg70
(dp858
g170
I0
sg171
I0
sg172
I0
sg173
I0
ssg77
g839
sg121
I0
sg80
g52
sg81
(dp859
g175
I1
sg176
I1
sg177
g178
ssg87
I0
sg91
I0
sg92
I0
sg93
I0
sg158
g853
sg96
I00
sg142
g835
sg97
F13.0
sg104
I00
sg105
(dp860
g72
I0
sg73
I0
sg74
I0
sg75
I0
ssg107
g843
sg109
I0
sg110
(lp861
g181
aI01
aI01
aI00
asg98
(dp862
g72
I0
sg73
I13
sg74
I0
sg75
I0
ssg114
g845
sg116
I11
sg117
I0
sg124
I24
sg120
I172
sg94
g95
sg125
(dp863
g184
I0
sg185
I0
sg186
I0
sg187
I0
sg188
I0
sg189
I0
sg190
I0
sg191
I0
sg192
I0
sg193
I0
sg194
I0
sg195
I0
sg196
I0
sg197
I0
sg198
I0
ssg164
(dp864
sg143
I0
sg152
g52
sg153
I0
sg154
F13.0
sg155
I0
sg156
F10.580645161290322
sg157
I0
sg162
I0
sg118
(dp865
g72
I0
sg73
I0
sg74
I0
sg75
I0
ssg201
I0
sg202
(dp866
g204
I10
sg205
I6
sg206
I11
sg207
I7
sg208
I7
sg209
I12
sg210
I5
sg211
I14
sg212
I6
sg213
I11
sg214
I12
sg215
I7
sg216
I5
sg217
I11
sg218
I5
ssg219
I0
sg220
I0
sg221
I0
sg222
I0
sg223
I17
sg224
I0
sg163
I0
sg113
I0
sg225
I0
sg226
g227
sbsS's12'
p867
(ijoueur
joueur
p868
(dp869
g46
I0
sg47
I0
sg48
I0
sg49
I0
sg90
I0
sg53
I0
sg56
g57
(g58
g59
Ntp870
Rp871
(dp872
g64
g52
sbsg70
(dp873
g72
I0
sg73
I0
sg74
I0
sg75
I0
ssg77
(dp874
g72
I0
sg73
I0
sg74
I0
sg75
I0
ssg121
I0
sg80
g52
sg81
(dp875
g175
I1
sg176
I1
sg177
g178
ssg87
I0
sg91
I0
sg92
I0
sg93
I0
sg158
(g159
g851
g52
g52
tp876
sg96
I00
sg142
g57
(g58
g59
Ntp877
Rp878
(dp879
g64
g52
sbsg97
I0
sg104
I00
sg105
(dp880
g72
I0
sg73
I0
sg74
I0
sg75
I0
ssg107
(dp881
g72
I0
sg73
I0
sg74
I0
sg75
I0
ssg109
I0
sg110
(lp882
g181
aI01
aI00
aI00
asg98
(dp883
g72
I0
sg73
I0
sg74
I0
sg75
I0
ssg114
g52
sg116
I0
sg117
I0
sg124
I0
sg120
I0
sg94
g95
sg125
(dp884
g137
I0
sg128
I0
sg129
I0
sg130
I0
sg135
I0
sg127
I0
sg133
I0
sg134
I0
sg131
I0
sg136
I0
sg132
I0
sg138
I0
sg139
I0
sg140
I0
sg141
I0
ssg164
(dp885
sg143
I0
sg152
g52
sg153
I0
sg154
I0
sg155
I0
sg156
F10.580645161290322
sg157
I0
sg162
I0
sg118
(dp886
g72
I0
sg73
I0
sg74
I0
sg75
I0
ssg201
I0
sg202
(dp887
g127
I12
sg128
I6
sg129
I11
sg130
I7
sg135
I7
sg133
I5
sg132
I12
sg134
I14
sg131
I6
sg136
I13
sg137
I11
sg138
I8
sg139
I5
sg140
I11
sg141
I5
ssg219
I0
sg220
I0
sg221
I0
sg222
I0
sg223
I0
sg224
I0
sg163
I0
sg113
I0
sg225
I0
sg226
g52
sbsS's11'
p888
(ijoueur
joueur
p889
(dp890
g46
I0
sg47
I0
sg48
I0
sg49
I0
sg90
I0
sg53
I0
sg56
g57
(g58
g59
Ntp891
Rp892
(dp893
g64
g52
sbsg70
(dp894
g72
I0
sg73
I0
sg74
I0
sg75
I0
ssg77
(dp895
g72
I0
sg73
I0
sg74
I0
sg75
I0
ssg121
I0
sg80
g52
sg81
(dp896
g175
I1
sg176
I1
sg177
g178
ssg87
I0
sg91
I0
sg92
I0
sg93
I0
sg158
g876
sg96
I00
sg142
g57
(g58
g59
Ntp897
Rp898
(dp899
g64
g52
sbsg97
I0
sg104
I00
sg105
(dp900
g72
I0
sg73
I0
sg74
I0
sg75
I0
ssg107
(dp901
g72
I0
sg73
I0
sg74
I0
sg75
I0
ssg109
I0
sg110
(lp902
g181
aI01
aI00
aI00
asg98
(dp903
g72
I0
sg73
I0
sg74
I0
sg75
I0
ssg114
g52
sg116
I0
sg117
I0
sg124
I0
sg120
I0
sg94
g95
sg125
(dp904
g137
I0
sg128
I0
sg129
I0
sg130
I0
sg135
I0
sg127
I0
sg133
I0
sg134
I0
sg131
I0
sg136
I0
sg132
I0
sg138
I0
sg139
I0
sg140
I0
sg141
I0
ssg164
(dp905
sg143
I0
sg152
g52
sg153
I0
sg154
I0
sg155
I0
sg156
F10.580645161290322
sg157
I0
sg162
I0
sg118
(dp906
g72
I0
sg73
I0
sg74
I0
sg75
I0
ssg201
I0
sg202
g887
sg219
I0
sg220
I0
sg221
I0
sg222
I0
sg223
I0
sg224
I0
sg163
I0
sg113
I0
sg225
I0
sg226
g52
sbssg201
I2
sg202
g887
sg219
I0
sg220
I0
sg221
I0
sg222
I0
sg223
I17
sg224
I0
sg225
I0
sg226
g227
sbsS'n16'
p907
(ijoueur
joueur
p908
(dp909
S'EV_saison_11'
p910
F8.310344827586206
sg46
I0
sS'EV_saison_12'
p911
F8.586206896551724
sg47
F0.0
sg152
g52
sg49
I0
sg50
F19.371235546393702
sg51
g52
sg53
I0
sg54
g52
sg55
I0
sg56
g57
(g58
g59
Ntp912
Rp913
(dp914
g63
I2
sg64
S'^^'
p915
sg66
S'special'
p916
sbsg68
(dp917
sg70
(dp918
S'SR'
p919
I0
sS'CT'
p920
I0
sS'CR'
p921
I0
sS'ST'
p922
I0
ssg76
F9.0
sS'xp'
p923
I0
sg79
I10
sg80
S'vide 14'
p924
sg81
(dp925
g83
I4
sg84
I7
sg85
g523
ssg87
I0
sg88
F19.371235546393702
sg89
I00
sg90
I0
sg91
I0
sg92
I0
sg93
I0
sg121
I0
sg96
I00
sg97
F0.0
sg98
(dp926
g100
I0
sg101
I0
sg102
I2
sg103
I0
ssg118
(dp927
g100
I0
sg101
I0
sg102
I0
sg103
I0
ssg105
(dp928
g100
I0
sg101
I0
sg102
I0
sg103
I0
ssg107
(dp929
g919
I3
sg920
I0
sg921
I2
sg922
I0
ssg109
I0
sg110
(lp930
g112
aI01
aI01
aI00
asg113
I0
sg114
S'Voyer'
p931
sg116
I6
sg117
I0
sg104
I00
sg120
I50
sg94
g95
sg122
I00
sg123
g52
sg124
I18
sg125
(dp932
S'RP1'
p933
I9
sS'ME'
p934
I9
sS'RP2'
p935
I8
sS'E'
p936
I9
sS'TO'
p937
I4
sS'M'
p938
I7
sS'JP'
p939
I4
sS'RP_tot'
p940
I10
sS'P'
p941
I3
sS'PA'
p942
I7
sS'A'
p943
I8
sS'R'
p944
I7
sS'TB'
p945
I4
sS'PL'
p946
I8
sS'TA'
p947
I11
ssg202
(dp948
g933
I9
sg934
I9
sg935
I8
sg936
I9
sg941
I3
sg939
I4
sg938
I7
sg940
I10
sg937
I4
sg942
I7
sg943
I8
sg944
I7
sg945
I4
sg946
I8
sg947
I11
ssg142
g913
sg143
I3
sg48
I0
sg153
I0
sg154
I0
sg155
I0
sg156
F8.655172413793103
sg157
I0
sg158
(S'dummy'
p949
g947
S'PI'
p950
g52
tp951
sg77
(dp952
g919
I0
sg920
I0
sg921
I0
sg922
I0
ssg162
I-2
sg163
I0
sg164
(dp953
S's13'
p954
(ijoueur
joueur
p955
(dp956
g46
I0
sg47
F0.0
sg48
I0
sg49
I0
sg90
I0
sg53
I0
sg56
g913
sg70
(dp957
S'SR'
p958
I0
sS'ST'
p959
I0
sS'CR'
p960
I0
sS'CT'
p961
I0
ssg77
g952
sg121
I0
sg80
S'vide 13;vide 13;vide 14'
p962
sg81
(dp963
g175
I1
sg176
I1
sg177
g178
ssg87
I0
sg91
I0
sg92
I0
sg93
I0
sg158
g951
sg96
I00
sg142
g913
sg97
F0.0
sg104
I00
sg105
(dp964
S'SR'
p965
I0
sS'ST'
p966
I0
sS'CR'
p967
I0
sS'CT'
p968
I0
ssg107
g929
sg109
I0
sg110
(lp969
g181
aI01
aI01
aI00
asg98
(dp970
g965
I0
sg966
I0
sg967
I0
sg968
I0
ssg114
g931
sg116
I6
sg117
I0
sg124
I18
sg120
I50
sg94
S'vide'
p971
sg125
(dp972
S'A'
p973
I0
sS'ME'
p974
I0
sS'RP2'
p975
I0
sS'E'
p976
I0
sS'TO'
p977
I0
sS'RP1'
p978
I0
sS'JP'
p979
I0
sS'RP_tot'
p980
I0
sS'P'
p981
I0
sS'PA'
p982
I0
sS'M'
p983
I0
sS'R'
p984
I0
sS'TB'
p985
I0
sS'PL'
p986
I0
sS'TA'
p987
I0
ssg164
(dp988
sg143
I0
sg152
g52
sg153
I0
sg154
F0.0
sg155
I0
sg156
F9.0
sg157
I0
sg162
I0
sg118
(dp989
g965
I0
sg966
I0
sg967
I0
sg968
I0
ssg201
I0
sg202
(dp990
g204
I8
sg205
I9
sg206
I8
sg207
I9
sg208
I3
sg209
I9
sg210
I4
sg211
I10
sg212
I4
sg213
I7
sg214
I7
sg215
I8
sg216
I4
sg217
I9
sg218
I11
ssg219
I0
sg220
I0
sg221
I0
sg222
I0
sg223
I5
sg224
I0
sg163
I0
sg113
I0
sg225
I0
sg226
S'ARA'
p991
sbsS's12'
p992
(ijoueur
joueur
p993
(dp994
g910
F8.310344827586206
sg46
I0
sg47
F0.0
sg152
g52
sg49
I0
sg90
I0
sg51
g52
sg53
I0
sg54
g52
sg56
g57
(g58
g59
Ntp995
Rp996
(dp997
g63
I2
sg64
S'^^'
p998
sg66
S'special'
p999
sbsg70
(dp1000
S'SR'
p1001
I0
sS'CT'
p1002
I0
sS'CR'
p1003
I0
sS'ST'
p1004
I0
ssg77
(dp1005
g1001
I0
sg1002
I0
sg1003
I0
sg1004
I0
ssg80
g52
sg81
(dp1006
g175
I1
sg176
I1
sg177
g178
ssg87
I0
sg91
I0
sg92
I0
sg93
I0
sg94
S'vide'
p1007
sg96
I01
sg97
F0.0
sg98
(dp1008
S'SR'
p1009
I0
sS'ST'
p1010
I0
sS'CR'
p1011
I0
sS'CT'
p1012
I0
ssg104
I01
sg105
(dp1013
g1009
I0
sg1010
I0
sg1011
I0
sg1012
I0
ssg107
(dp1014
g1001
I3
sg1002
I0
sg1003
I0
sg1004
I0
ssg109
I0
sg110
(lp1015
g181
aI01
aI01
aI00
asg113
I0
sg114
S'Voyer'
p1016
sg116
I6
sg117
I0
sg124
I18
sg120
I14
sg121
I0
sg123
g52
sg125
(dp1017
S'RP1'
p1018
I8
sS'ME'
p1019
I9
sS'RP2'
p1020
I7
sS'E'
p1021
I9
sS'P'
p1022
I3
sS'JP'
p1023
I4
sS'M'
p1024
I7
sS'RP_tot'
p1025
I8
sS'TO'
p1026
I4
sS'PA'
p1027
I7
sS'A'
p1028
I8
sS'R'
p1029
I8
sS'TB'
p1030
I4
sS'PL'
p1031
I9
sS'TA'
p1032
I10
ssg142
g996
sg143
I0
sg48
I0
sg153
I0
sg154
F0.0
sg155
I0
sg156
F8.586206896551724
sg157
I0
sg158
(S'dummy'
p1033
g1032
S'PI'
p1034
g52
tp1035
sg162
I0
sg118
(dp1036
g1009
I0
sg1010
I0
sg1011
I0
sg1012
I0
ssg164
(dp1037
S's11'
p1038
(ijoueur
joueur
p1039
(dp1040
g46
I0
sg49
I0
sg51
g52
sg53
I0
sg54
g52
sg56
g57
(g58
g59
Ntp1041
Rp1042
(dp1043
g63
I2
sg64
S'^^'
p1044
sg66
S'special'
p1045
sbsg70
(dp1046
S'SR'
p1047
I0
sS'ST'
p1048
I0
sS'CR'
p1049
I0
sS'CT'
p1050
I0
ssg77
(dp1051
g1047
I0
sg1048
I0
sg1049
I0
sg1050
I0
ssg80
g52
sg87
I0
sg104
I01
sg91
I0
sg92
I0
sg93
I0
sg94
S'vide'
p1052
sg96
I01
sg142
g1042
sg98
(dp1053
g1047
I3
sg1048
I0
sg1049
I0
sg1050
I0
ssg118
(dp1054
g1047
I0
sg1048
I0
sg1049
I0
sg1050
I0
ssg105
(dp1055
g1047
I0
sg1048
I0
sg1049
I0
sg1050
I0
ssg107
(dp1056
g1047
I3
sg1048
I0
sg1049
I0
sg1050
I0
ssg109
I0
sg113
I0
sg114
S'Voyer'
p1057
sg116
I6
sg117
I0
sg124
I18
sg120
I14
sg158
(S'dummy'
p1058
S'TA'
p1059
S'PI'
p1060
g52
tp1061
sg123
g52
sg125
(dp1062
S'RP1'
p1063
I8
sS'ME'
p1064
I9
sS'RP2'
p1065
I6
sS'E'
p1066
I9
sS'TO'
p1067
I4
sS'M'
p1068
I7
sS'JP'
p1069
I4
sS'RP_tot'
p1070
I8
sS'P'
p1071
I3
sS'PA'
p1072
I7
sS'A'
p1073
I8
sS'R'
p1074
I8
sS'TB'
p1075
I4
sS'PL'
p1076
I8
sg1059
I9
ssg143
I0
sg48
I0
sg153
I0
sg155
I0
sg156
F8.310344827586206
sg157
I0
sg163
I0
sg201
I0
sS'caracs_saison_11'
p1077
(dp1078
S'RP1'
p1079
I8
sS'ME'
p1080
I9
sS'RP2'
p1081
I6
sS'E'
p1082
I9
sS'TO'
p1083
I4
sS'M'
p1084
I7
sS'JP'
p1085
I4
sS'RP_tot'
p1086
I8
sS'P'
p1087
I3
sS'PA'
p1088
I7
sS'A'
p1089
I8
sS'R'
p1090
I8
sS'TB'
p1091
I4
sS'PL'
p1092
I8
sS'TA'
p1093
I9
ssg202
g1062
sg219
I0
sg220
I0
sg221
I0
sg222
I0
sg223
I1
sg224
I0
sg225
I0
sg226
S'ARA'
p1094
sbssg201
I0
sg1077
(dp1095
g1018
I8
sg1019
I9
sg1020
I6
sg1021
I9
sg1026
I4
sg1024
I7
sg1023
I4
sg1025
I8
sg1022
I3
sg1027
I7
sg1028
I8
sg1029
I8
sg1030
I4
sg1031
I8
sg1032
I9
ssg202
g1017
sg219
I0
sg220
I0
sg221
I0
sg222
I0
sg223
I1
sg224
I0
sg163
I0
sg225
I0
sg226
S'ARA'
p1096
sbsS's11'
p1097
(ijoueur
joueur
p1098
(dp1099
g46
I0
sg47
F1.5
sg49
I0
sg90
I0
sg51
g52
sg53
I0
sg54
g52
sg56
g57
(g58
g59
Ntp1100
Rp1101
(dp1102
g63
I2
sg64
S'^^'
p1103
sg66
S'special'
p1104
sbsg70
(dp1105
S'SR'
p1106
I0
sS'ST'
p1107
I0
sS'CR'
p1108
I0
sS'CT'
p1109
I0
ssg77
(dp1110
g1106
I0
sg1107
I0
sg1108
I0
sg1109
I0
ssg80
g52
sg81
(dp1111
g175
I1
sg176
I1
sg177
g178
ssg87
I0
sg104
I01
sg91
I0
sg92
I0
sg93
I0
sg94
S'vide'
p1112
sg96
I01
sg97
F1.5
sg98
(dp1113
g1106
I3
sg1107
I0
sg1108
I0
sg1109
I0
ssg118
(dp1114
g1106
I0
sg1107
I0
sg1108
I0
sg1109
I0
ssg105
(dp1115
g1106
I0
sg1107
I0
sg1108
I0
sg1109
I0
ssg107
(dp1116
g1106
I3
sg1107
I0
sg1108
I0
sg1109
I0
ssg109
I0
sg110
(lp1117
g181
aI01
aI01
aI00
asg113
I0
sg114
S'Voyer'
p1118
sg116
I6
sg117
I0
sg124
I18
sg120
I14
sg121
I0
sg123
g52
sg125
(dp1119
S'RP1'
p1120
I8
sS'ME'
p1121
I9
sS'RP2'
p1122
I6
sS'E'
p1123
I9
sS'TO'
p1124
I4
sS'M'
p1125
I7
sS'JP'
p1126
I4
sS'RP_tot'
p1127
I8
sS'P'
p1128
I3
sS'PA'
p1129
I7
sS'A'
p1130
I8
sS'R'
p1131
I8
sS'TB'
p1132
I4
sS'PL'
p1133
I8
sS'TA'
p1134
I9
ssg142
g1101
sg143
I0
sg48
I0
sg153
I0
sg154
F1.5
sg155
I0
sg156
F8.310344827586206
sg157
I0
sg158
(S'dummy'
p1135
g1134
S'PI'
p1136
g52
tp1137
sg162
I0
sg163
I0
sg201
I0
sg1077
(dp1138
S'RP1'
p1139
I8
sS'ME'
p1140
I9
sS'RP2'
p1141
I6
sS'E'
p1142
I9
sS'TO'
p1143
I4
sS'M'
p1144
I7
sS'JP'
p1145
I4
sS'RP_tot'
p1146
I8
sS'P'
p1147
I3
sS'PA'
p1148
I7
sS'A'
p1149
I8
sS'R'
p1150
I8
sS'TB'
p1151
I4
sS'PL'
p1152
I8
sS'TA'
p1153
I9
ssg202
g1119
sg219
I0
sg220
I0
sg221
I0
sg222
I0
sg223
I1
sg224
I0
sg225
I0
sg226
S'ARA'
p1154
sbssg201
I0
sg1077
(dp1155
g933
I8
sg934
I9
sg935
I6
sg936
I9
sg937
I4
sg938
I7
sg939
I4
sg940
I8
sg941
I3
sg942
I7
sg943
I8
sg944
I8
sg945
I4
sg946
I8
sg947
I9
ssg219
I0
sS'caracs_saison_12'
p1156
(dp1157
sg220
I0
sg221
I0
sg222
I0
sg223
I5
sg224
I0
sg225
I0
sg226
g991
sbsS'n17'
p1158
(ijoueur
joueur
p1159
(dp1160
g46
I0
sg47
F0.5
sg48
I0
sg49
I0
sg50
F19.371235546393702
sg51
g52
sg53
I0
sg54
g52
sg55
I0
sg56
g57
(g58
g59
Ntp1161
Rp1162
(dp1163
g63
I2
sg64
g477
sg66
g478
sbsg68
(dp1164
sg70
(dp1165
g72
I0
sg73
I0
sg74
I0
sg75
I0
ssg76
F7.777777777777778
sg77
(dp1166
g72
I0
sg73
I0
sg74
I0
sg75
I0
ssg79
I10
sg80
g52
sg81
(dp1167
g83
I1
sg84
I11
sg85
g86
ssg87
I0
sg88
F19.371235546393702
sg89
I01
sg90
I1
sg91
I0
sg92
I0
sg93
I0
sg94
g95
sg96
I00
sg97
F1.5
sg98
(dp1168
g100
I0
sg101
I0
sg102
I2
sg103
I0
ssg104
I00
sg105
(dp1169
g100
I0
sg101
I0
sg102
I0
sg103
I0
ssg107
(dp1170
g72
I0
sg73
I0
sg74
I5
sg75
I0
ssg109
I0
sg110
(lp1171
g112
aI01
aI00
aI00
asg113
I0
sg114
S"Xash'Mahrt"
p1172
sg116
I13
sg117
I0
sg118
(dp1173
g100
I0
sg101
I0
sg102
I0
sg103
I0
ssg120
I27
sg121
I1
sg122
I00
sg123
g52
sg124
I27
sg125
(dp1174
g127
I9
sg128
I11
sg129
I7
sg130
I9
sg131
I8
sg132
I9
sg133
I5
sg134
I9
sg135
I4
sg136
I7
sg137
I8
sg138
I9
sg139
I3
sg140
I8
sg141
I10
ssg142
g1162
sg143
I3
sg152
g52
sg153
I0
sg154
I0
sg155
I0
sg156
F9.074074074074074
sg157
I0
sg158
(g159
g448
g52
g52
tp1175
sg162
I4
sg163
I0
sg164
(dp1176
S's13'
p1177
(ijoueur
joueur
p1178
(dp1179
g46
I0
sg47
F0.5
sg48
I0
sg49
I0
sg90
I2
sg53
I0
sg56
g1162
sg70
(dp1180
g170
I0
sg171
I0
sg172
I0
sg173
I0
ssg77
g1166
sg121
I0
sg80
g52
sg81
(dp1181
g175
I1
sg176
I1
sg177
g178
ssg87
I0
sg91
I0
sg92
I0
sg93
I0
sg158
g1175
sg96
I00
sg142
g57
(g58
g59
Ntp1182
Rp1183
(dp1184
g63
I1
sg64
g502
sg66
g503
sbsg97
F1.5
sg104
I00
sg105
(dp1185
g72
I0
sg73
I0
sg74
I0
sg75
I0
ssg107
g1170
sg109
I0
sg110
(lp1186
g181
aI01
aI00
aI00
asg98
(dp1187
g72
I0
sg73
I0
sg74
I3
sg75
I0
ssg114
g1172
sg116
I13
sg117
I0
sg124
I27
sg120
I8
sg94
g95
sg125
(dp1188
g184
I0
sg185
I0
sg186
I0
sg187
I0
sg188
I0
sg189
I0
sg190
I0
sg191
I0
sg192
I0
sg193
I0
sg194
I0
sg195
I0
sg196
I0
sg197
I0
sg198
I0
ssg164
(dp1189
sg143
I0
sg152
g52
sg153
I0
sg154
F1.5
sg155
I0
sg156
F7.777777777777778
sg157
I0
sg162
I0
sg118
(dp1190
g72
I0
sg73
I0
sg74
I0
sg75
I0
ssg201
I0
sg202
(dp1191
g204
I7
sg205
I9
sg206
I6
sg207
I8
sg208
I4
sg209
I9
sg210
I5
sg211
I9
sg212
I7
sg213
I6
sg214
I7
sg215
I7
sg216
I3
sg217
I7
sg218
I9
ssg219
I0
sg220
I0
sg221
I0
sg222
I0
sg223
I0
sg224
I0
sg163
I0
sg113
I0
sg225
I0
sg226
g227
sbssg201
I0
sg202
(dp1192
g127
I9
sg128
I11
sg129
I7
sg130
I9
sg135
I4
sg133
I5
sg132
I9
sg134
I9
sg131
I8
sg136
I7
sg137
I8
sg138
I9
sg139
I3
sg140
I8
sg141
I10
ssg219
I0
sg220
I0
sg221
I0
sg222
I0
sg223
I1
sg224
I0
sg225
I0
sg226
g227
sbsS'n14'
p1193
(ijoueur
joueur
p1194
(dp1195
g46
I0
sg47
F2.5
sg48
I0
sg49
I0
sg50
F19.371235546393702
sg51
g52
sg53
I0
sg54
g52
sg55
I0
sg56
g57
(g58
g59
Ntp1196
Rp1197
(dp1198
g63
I4
sg64
g274
sg66
g67
sbsg68
(dp1199
sg70
(dp1200
g72
I0
sg73
I0
sg74
I0
sg75
I0
ssg76
F9.838709677419354
sg77
(dp1201
g72
I0
sg73
I0
sg74
I0
sg75
I0
ssg79
I10
sg80
g52
sg81
(dp1202
g83
I4
sg84
I12
sg85
g523
ssg87
I0
sg88
F19.371235546393702
sg89
I01
sg90
I3
sg91
I0
sg92
I0
sg93
I0
sg94
g95
sg96
I00
sg97
F12.5
sg98
(dp1203
g100
I0
sg101
I0
sg102
I0
sg103
I2
ssg104
I00
sg105
(dp1204
g100
I0
sg101
I0
sg102
I0
sg103
I0
ssg107
(dp1205
g72
I0
sg73
I14
sg74
I1
sg75
I0
ssg109
I0
sg110
(lp1206
g112
aI01
aI00
aI00
asg113
I0
sg114
S"Ses'Fariss"
p1207
sg116
I12
sg117
I0
sg118
(dp1208
g100
I0
sg101
I0
sg102
I0
sg103
I0
ssg120
I158
sg121
I3
sg122
I00
sg123
g52
sg124
I21
sg125
(dp1209
g127
I11
sg128
I5
sg129
I10
sg130
I11
sg131
I8
sg132
I9
sg133
I8
sg134
I13
sg135
I10
sg136
I10
sg137
I13
sg138
I7
sg139
I9
sg140
I10
sg141
I2
ssg142
g1197
sg143
g5
(g146
S'\x06\x00\x00\x00'
p1210
tp1211
Rp1212
sg152
g52
sg153
I0
sg154
I0
sg155
I0
sg156
F10.96774193548387
sg157
I0
sg158
(g159
g851
g52
g52
tp1213
sg162
I0
sg163
I0
sg164
(dp1214
S's13'
p1215
(ijoueur
joueur
p1216
(dp1217
g46
I0
sg47
F5.5
sg48
I0
sg49
I0
sg90
I3
sg53
I0
sg56
g1197
sg70
(dp1218
g170
I0
sg171
I0
sg172
I0
sg173
I0
ssg77
g1201
sg121
I0
sg80
g52
sg81
(dp1219
g175
I1
sg176
I1
sg177
g178
ssg87
I0
sg91
I3
sg92
I0
sg93
I0
sg158
g1213
sg96
I00
sg142
g57
(g58
g59
Ntp1220
Rp1221
(dp1222
g63
I3
sg64
S'^^^'
p1223
sg66
g461
sbsg97
F12.5
sg104
I00
sg105
(dp1224
g72
I0
sg73
I0
sg74
I0
sg75
I0
ssg107
g1205
sg109
I0
sg110
(lp1225
g181
aI01
aI00
aI00
asg98
(dp1226
g72
I0
sg73
I12
sg74
I1
sg75
I0
ssg114
g1207
sg116
I12
sg117
I0
sg124
I21
sg120
I108
sg94
g95
sg125
(dp1227
g184
I0
sg185
I0
sg186
I0
sg187
I0
sg188
I0
sg189
I0
sg190
I0
sg191
I0
sg192
I0
sg193
I0
sg194
I0
sg195
I0
sg196
I0
sg197
I0
sg198
I0
ssg164
(dp1228
sg143
I0
sg152
g52
sg153
I0
sg154
F12.5
sg155
I0
sg156
F9.838709677419354
sg157
I0
sg162
I0
sg118
(dp1229
g72
I0
sg73
I0
sg74
I0
sg75
I0
ssg201
I0
sg202
(dp1230
g204
I11
sg205
I5
sg206
I9
sg207
I10
sg208
I9
sg209
I11
sg210
I7
sg211
I12
sg212
I6
sg213
I8
sg214
I9
sg215
I6
sg216
I8
sg217
I9
sg218
I2
ssg219
I0
sg220
I0
sg221
I0
sg222
I0
sg223
I10
sg224
I0
sg163
I0
sg113
I0
sg225
I0
sg226
g227
sbsS's12'
p1231
(ijoueur
joueur
p1232
(dp1233
g46
I0
sg47
I0
sg48
I0
sg49
I0
sg90
I0
sg53
I0
sg56
g57
(g58
g59
Ntp1234
Rp1235
(dp1236
g64
g52
sbsg70
(dp1237
g72
I0
sg73
I0
sg74
I0
sg75
I0
ssg77
(dp1238
g72
I0
sg73
I0
sg74
I0
sg75
I0
ssg121
I0
sg80
g52
sg81
(dp1239
g175
I1
sg176
I1
sg177
g178
ssg87
I0
sg91
I0
sg92
I0
sg93
I0
sg158
(g159
g851
g52
g52
tp1240
sg96
I00
sg142
g57
(g58
g59
Ntp1241
Rp1242
(dp1243
g64
g52
sbsg97
I0
sg104
I00
sg105
(dp1244
g72
I0
sg73
I0
sg74
I0
sg75
I0
ssg107
(dp1245
g72
I0
sg73
I0
sg74
I0
sg75
I0
ssg109
I0
sg110
(lp1246
g181
aI01
aI00
aI00
asg98
(dp1247
g72
I0
sg73
I0
sg74
I0
sg75
I0
ssg114
g52
sg116
I0
sg117
I0
sg124
I0
sg120
I0
sg94
g95
sg125
(dp1248
g137
I0
sg128
I0
sg129
I0
sg130
I0
sg135
I0
sg127
I0
sg133
I0
sg134
I0
sg131
I0
sg136
I0
sg132
I0
sg138
I0
sg139
I0
sg140
I0
sg141
I0
ssg164
(dp1249
sg143
I0
sg152
g52
sg153
I0
sg154
I0
sg155
I0
sg156
F9.838709677419354
sg157
I0
sg162
I0
sg118
(dp1250
g72
I0
sg73
I0
sg74
I0
sg75
I0
ssg201
I0
sg202
(dp1251
g127
I11
sg128
I5
sg129
I10
sg130
I11
sg135
I10
sg133
I8
sg132
I9
sg134
I13
sg131
I8
sg136
I10
sg137
I13
sg138
I7
sg139
I9
sg140
I10
sg141
I2
ssg219
I0
sg220
I0
sg221
I0
sg222
I0
sg223
I0
sg224
I0
sg163
I0
sg113
I0
sg225
I0
sg226
g52
sbssg201
I0
sg202
g1251
sg219
I0
sg220
I0
sg221
I0
sg222
I0
sg223
I15
sg224
I3
sg225
I0
sg226
g227
sbsS'n15'
p1252
g269
sS'n18'
p1253
(ijoueur
joueur
p1254
(dp1255
g46
I0
sg47
F2.0
sg48
I0
sg49
I0
sg50
F19.371235546393702
sg51
g52
sg53
I0
sg54
g52
sg55
I0
sg56
g57
(g58
g59
Ntp1256
Rp1257
(dp1258
g63
I1
sg64
g502
sg66
g503
sbsg68
(dp1259
sg70
(dp1260
g72
I0
sg73
I0
sg74
I0
sg75
I0
ssg76
F7.62962962962963
sg77
(dp1261
g72
I0
sg73
I0
sg74
I0
sg75
I0
ssg79
I10
sg80
g52
sg81
(dp1262
g83
I3
sg84
I2
sg85
g86
ssg87
I0
sg88
F19.371235546393702
sg89
I01
sg90
I2
sg91
I0
sg92
I0
sg93
I0
sg94
g95
sg96
I00
sg97
F5.0
sg98
(dp1263
g100
I0
sg101
I0
sg102
I2
sg103
I0
ssg104
I00
sg105
(dp1264
g100
I0
sg101
I0
sg102
I0
sg103
I0
ssg107
(dp1265
g72
I0
sg73
I3
sg74
I6
sg75
I0
ssg109
I0
sg110
(lp1266
g112
aI01
aI00
aI00
asg113
I0
sg114
S'Arsken'
p1267
sg116
I13
sg117
I0
sg118
(dp1268
g100
I0
sg101
I0
sg102
I0
sg103
I0
ssg120
I8
sg121
I2
sg122
I00
sg123
g52
sg124
I26
sg125
(dp1269
g127
I9
sg128
I7
sg129
I6
sg130
I9
sg131
I8
sg132
I8
sg133
I5
sg134
I9
sg135
I5
sg136
I8
sg137
I7
sg138
I7
sg139
I4
sg140
I8
sg141
I3
ssg142
g1257
sg143
I3
sg152
g52
sg153
I0
sg154
I0
sg155
I0
sg156
F7.852941176470588
sg157
I0
sg158
(g159
g160
g52
g52
tp1270
sg162
I3
sg163
I0
sg164
(dp1271
S's13'
p1272
(ijoueur
joueur
p1273
(dp1274
g46
I0
sg47
F1.0
sg48
I0
sg49
I0
sg90
I3
sg53
I0
sg56
g1257
sg70
(dp1275
g170
I0
sg171
I0
sg172
I0
sg173
I0
ssg77
g1261
sg121
I0
sg80
g52
sg81
(dp1276
g175
I1
sg176
I1
sg177
g178
ssg87
I0
sg91
I0
sg92
I0
sg93
I0
sg158
g1270
sg96
I00
sg142
g1257
sg97
F5.0
sg104
I00
sg105
(dp1277
g72
I0
sg73
I0
sg74
I0
sg75
I0
ssg107
g1265
sg109
I0
sg110
(lp1278
g181
aI01
aI00
aI00
asg98
(dp1279
g72
I0
sg73
I3
sg74
I4
sg75
I0
ssg114
g1267
sg116
I13
sg117
I0
sg124
I26
sg120
I8
sg94
g95
sg125
(dp1280
g184
I0
sg185
I0
sg186
I0
sg187
I0
sg188
I0
sg189
I0
sg190
I0
sg191
I0
sg192
I0
sg193
I0
sg194
I0
sg195
I0
sg196
I0
sg197
I0
sg198
I0
ssg164
(dp1281
sg143
I0
sg152
g52
sg153
I0
sg154
F5.0
sg155
I0
sg156
F7.62962962962963
sg157
I0
sg162
I0
sg118
(dp1282
g72
I0
sg73
I0
sg74
I0
sg75
I0
ssg201
I0
sg202
(dp1283
g204
I7
sg205
I7
sg206
I6
sg207
I9
sg208
I5
sg209
I8
sg210
I5
sg211
I8
sg212
I7
sg213
I8
sg214
I7
sg215
I7
sg216
I4
sg217
I8
sg218
I3
ssg219
I0
sg220
I0
sg221
I0
sg222
I0
sg223
I0
sg224
I0
sg163
I0
sg113
I0
sg225
I0
sg226
g227
sbssg201
I0
sg202
(dp1284
g127
I9
sg128
I7
sg129
I6
sg130
I9
sg135
I5
sg133
I5
sg132
I8
sg134
I9
sg131
I8
sg136
I8
sg137
I7
sg138
I7
sg139
I4
sg140
I8
sg141
I3
ssg219
I0
sg220
I0
sg221
I0
sg222
I0
sg223
I0
sg224
I0
sg225
I0
sg226
g227
sbsS'n19'
p1285
(ijoueur
joueur
p1286
(dp1287
g46
I0
sg47
F8.5
sg48
I0
sg49
I0
sg50
I0
sg51
g52
sg53
I0
sg54
g52
sg55
I1
sg56
g57
(g58
g59
Ntp1288
Rp1289
(dp1290
g63
I1
sg64
S'<'
p1291
sg66
S'base'
p1292
sbsg68
(dp1293
sg70
(dp1294
S'SR'
p1295
I0
sS'ST'
p1296
I0
sS'CR'
p1297
I1
sS'CT'
p1298
I1
ssg76
F8.592592592592593
sg77
(dp1299
g1295
I0
sg1296
I0
sg1297
I0
sg1298
I0
ssg124
I13
sg80
g52
sg81
(dp1300
S'couleur'
p1301
I1
sS'valeur'
p1302
I12
sS'r_n'
p1303
S'n'
p1304
ssg87
I0
sg88
I0
sg89
I00
sg90
I0
sg91
I0
sg92
I0
sg93
I0
sg94
S'MRT'
p1305
sg96
I00
sg97
F8.5
sg98
(dp1306
S'SR'
p1307
I0
sS'CT'
p1308
I0
sS'CR'
p1309
I0
sS'ST'
p1310
I0
ssg104
I00
sg105
(dp1311
g1307
I0
sg1308
I0
sg1309
I0
sg1310
I0
ssg107
(dp1312
g1295
I0
sg1296
I0
sg1297
I8
sg1298
I3
ssg109
I0
sg110
(lp1313
S'dummy'
p1314
aI01
aI01
aI00
asg113
I0
sg114
S'Jhermen'
p1315
sg116
I3
sg117
I0
sg616
I2
sg120
I7
sg121
I1
sg122
I00
sg123
g52
sg125
(dp1316
S'RP1'
p1317
I8
sS'ME'
p1318
I6
sS'RP2'
p1319
I8
sS'E'
p1320
I9
sS'P'
p1321
I3
sS'JP'
p1322
I3
sS'M'
p1323
I7
sS'RP_tot'
p1324
I10
sS'TO'
p1325
I8
sS'PA'
p1326
I7
sS'A'
p1327
I7
sS'R'
p1328
I9
sS'TB'
p1329
I4
sS'PL'
p1330
I9
sS'TA'
p1331
I6
ssg142
g1289
sg143
I0
sg152
g52
sg153
I0
sg154
I0
sg155
I0
sg156
F8.296296296296296
sg157
I0
sg158
(S'dummy'
p1332
S'PI'
p1333
S'TL'
p1334
g52
tp1335
sg162
I-2
sg118
(dp1336
g1307
I0
sg1308
I0
sg1309
I0
sg1310
I0
ssg164
(dp1337
S's13'
p1338
(ijoueur
joueur
p1339
(dp1340
g46
I0
sg47
F8.5
sg48
I0
sg49
I0
sg90
I0
sg53
I0
sg56
g1289
sg70
(dp1341
S'SR'
p1342
I0
sS'ST'
p1343
I0
sS'CR'
p1344
I0
sS'CT'
p1345
I0
ssg77
g1299
sg80
g52
sg81
(dp1346
S'couleur'
p1347
I1
sS'valeur'
p1348
I1
sS'r_n'
p1349
S'n'
p1350
ssg87
I0
sg91
I0
sg92
I0
sg93
I0
sg158
g1335
sg96
I00
sg142
g1289
sg97
F8.5
sg104
I00
sg105
(dp1351
g1295
I0
sg1296
I0
sg1297
I0
sg1298
I0
ssg107
g1312
sg109
I0
sg110
(lp1352
S'dummy'
p1353
aI01
aI01
aI00
asg98
(dp1354
g1295
I0
sg1296
I0
sg1297
I8
sg1298
I3
ssg94
g1305
sg114
g1315
sg116
I3
sg117
I0
sg124
I13
sg120
I7
sg121
I0
sg125
(dp1355
S'A'
p1356
I0
sS'ME'
p1357
I0
sS'RP2'
p1358
I0
sS'E'
p1359
I0
sS'TO'
p1360
I0
sS'RP1'
p1361
I0
sS'JP'
p1362
I0
sS'RP_tot'
p1363
I0
sS'P'
p1364
I0
sS'PA'
p1365
I0
sS'M'
p1366
I0
sS'R'
p1367
I0
sS'TB'
p1368
I0
sS'PL'
p1369
I0
sS'TA'
p1370
I0
ssg164
(dp1371
sg143
I0
sg152
g52
sg153
I0
sg154
F8.5
sg155
I0
sg156
F8.592592592592593
sg157
I0
sg162
I0
sg118
(dp1372
g1295
I0
sg1296
I0
sg1297
I1
sg1298
I1
ssg201
I0
sg202
(dp1373
S'A'
p1374
I8
sS'ME'
p1375
I6
sS'RP2'
p1376
I8
sS'E'
p1377
I9
sS'TO'
p1378
I8
sS'RP1'
p1379
I8
sS'JP'
p1380
I3
sS'RP_tot'
p1381
I10
sS'P'
p1382
I3
sS'PA'
p1383
I7
sS'M'
p1384
I7
sS'R'
p1385
I10
sS'TB'
p1386
I4
sS'PL'
p1387
I9
sS'TA'
p1388
I6
ssg219
I0
sg220
I0
sg221
I0
sg222
I0
sg223
I0
sg224
I0
sg163
I0
sg113
I0
sg225
I0
sg226
S'ARA'
p1389
sbsS's12'
p1390
(ijoueur
joueur
p1391
(dp1392
g46
I0
sg47
I0
sg48
I0
sg49
I0
sg90
I0
sg53
I0
sg56
g57
(g58
g59
Ntp1393
Rp1394
(dp1395
g64
g52
sbsg70
(dp1396
g1295
I0
sg1296
I0
sg1297
I0
sg1298
I0
ssg77
(dp1397
g1295
I0
sg1296
I0
sg1297
I0
sg1298
I0
ssg80
g52
sg81
(dp1398
g1347
I1
sg1348
I1
sg1349
g1350
ssg87
I0
sg91
I0
sg92
I0
sg93
I0
sg158
(g1332
g1333
g52
g52
tp1399
sg96
I00
sg142
g57
(g58
g59
Ntp1400
Rp1401
(dp1402
g64
g52
sbsg97
I0
sg104
I00
sg105
(dp1403
g1295
I0
sg1296
I0
sg1297
I0
sg1298
I0
ssg107
(dp1404
g1295
I0
sg1296
I0
sg1297
I0
sg1298
I0
ssg109
I0
sg110
(lp1405
g1353
aI01
aI00
aI00
asg98
(dp1406
g1295
I0
sg1296
I0
sg1297
I0
sg1298
I0
ssg94
g1305
sg114
g52
sg116
I0
sg117
I0
sg124
I0
sg120
I0
sg121
I0
sg125
(dp1407
g1327
I0
sg1318
I0
sg1319
I0
sg1320
I0
sg1325
I0
sg1317
I0
sg1322
I0
sg1324
I0
sg1321
I0
sg1326
I0
sg1323
I0
sg1328
I0
sg1329
I0
sg1330
I0
sg1331
I0
ssg164
(dp1408
sg143
I0
sg152
g52
sg153
I0
sg154
I0
sg155
I0
sg156
F8.592592592592593
sg157
I0
sg162
I0
sg118
(dp1409
g1295
I0
sg1296
I0
sg1297
I0
sg1298
I0
ssg201
I0
sg202
(dp1410
g1317
I8
sg1318
I6
sg1319
I8
sg1320
I9
sg1325
I8
sg1323
I7
sg1322
I3
sg1324
I10
sg1321
I3
sg1326
I7
sg1327
I7
sg1328
I9
sg1329
I4
sg1330
I9
sg1331
I6
ssg219
I0
sg220
I0
sg221
I0
sg222
I0
sg223
I0
sg224
I0
sg163
I0
sg113
I0
sg225
I0
sg226
g52
sbsS's11'
p1411
(ijoueur
joueur
p1412
(dp1413
g46
I0
sg47
I0
sg48
I0
sg49
I0
sg90
I0
sg53
I0
sg56
g57
(g58
g59
Ntp1414
Rp1415
(dp1416
g64
g52
sbsg70
(dp1417
g1295
I0
sg1296
I0
sg1297
I0
sg1298
I0
ssg77
(dp1418
g1295
I0
sg1296
I0
sg1297
I0
sg1298
I0
ssg80
g52
sg81
(dp1419
g1347
I1
sg1348
I1
sg1349
g1350
ssg87
I0
sg91
I0
sg92
I0
sg93
I0
sg158
g1399
sg96
I00
sg142
g57
(g58
g59
Ntp1420
Rp1421
(dp1422
g64
g52
sbsg97
I0
sg104
I00
sg105
(dp1423
g1295
I0
sg1296
I0
sg1297
I0
sg1298
I0
ssg107
(dp1424
g1295
I0
sg1296
I0
sg1297
I0
sg1298
I0
ssg109
I0
sg110
(lp1425
g1353
aI01
aI00
aI00
asg98
(dp1426
g1295
I0
sg1296
I0
sg1297
I0
sg1298
I0
ssg94
g1305
sg114
g52
sg116
I0
sg117
I0
sg124
I0
sg120
I0
sg121
I0
sg125
(dp1427
g1327
I0
sg1318
I0
sg1319
I0
sg1320
I0
sg1325
I0
sg1317
I0
sg1322
I0
sg1324
I0
sg1321
I0
sg1326
I0
sg1323
I0
sg1328
I0
sg1329
I0
sg1330
I0
sg1331
I0
ssg164
(dp1428
sg143
I0
sg152
g52
sg153
I0
sg154
I0
sg155
I0
sg156
F8.592592592592593
sg157
I0
sg162
I0
sg118
(dp1429
g1295
I0
sg1296
I0
sg1297
I0
sg1298
I0
ssg201
I0
sg202
g1410
sg219
I0
sg220
I0
sg221
I0
sg222
I0
sg223
I0
sg224
I0
sg163
I0
sg113
I0
sg225
I0
sg226
g52
sbssg201
I1
sg202
g1410
sg219
I0
sg220
I0
sg221
I0
sg222
I0
sg223
I0
sg224
I0
sg163
I0
sg225
I0
sg226
g1389
sbsS'n22'
p1430
(ijoueur
joueur
p1431
(dp1432
g46
I0
sg47
I0
sg48
I0
sg49
I0
sg90
I0
sg51
g52
sg53
I0
sg54
g52
sg56
g57
(g58
g59
Ntp1433
Rp1434
(dp1435
g63
I4
sg64
S'x'
p1436
sg66
S'heros'
p1437
sbsg70
(dp1438
S'SR'
p1439
I0
sS'CT'
p1440
I0
sS'CR'
p1441
I0
sS'ST'
p1442
I0
ssg77
(dp1443
g1439
I0
sg1440
I0
sg1441
I0
sg1442
I0
ssg80
g52
sg81
(dp1444
S'couleur'
p1445
I1
sS'r_nr'
p1446
S'n'
p1447
sS'valeur'
p1448
I0
ssg87
I0
sg88
F19.371235546393702
sg89
I01
sg50
F19.371235546393702
sg91
I0
sg92
I0
sg93
I0
sg158
(S'dummy'
p1449
S'AI'
p1450
g52
g52
tp1451
sg96
I00
sg142
g57
(g58
g59
Ntp1452
Rp1453
(dp1454
g63
I3
sg64
S'^^^'
p1455
sg66
S'rare'
p1456
sbsg98
(dp1457
g1439
I0
sg1440
I0
sg1441
I2
sg1442
I0
ssg104
I00
sg105
(dp1458
g1439
I0
sg1440
I0
sg1441
I0
sg1442
I0
ssg107
(dp1459
g1439
I0
sg1440
I0
sg1441
I2
sg1442
I0
ssg109
I0
sg110
(lp1460
g1449
aI01
aI00
aI00
asg97
I0
sg94
g95
sg114
S'Bajaer'
p1461
sg116
I14
sg117
I0
sg124
g5
(g146
S'\x15\x00\x00\x00'
p1462
tp1463
Rp1464
sg120
I62
sg121
I0
sg122
I00
sg123
g52
sg225
I0
sg125
(dp1465
S'RP1'
p1466
g5
(g146
S'\x08\x00\x00\x00'
p1467
tp1468
Rp1469
sS'ME'
p1470
g5
(g146
S'\x05\x00\x00\x00'
p1471
tp1472
Rp1473
sS'RP2'
p1474
g5
(g146
S'\x08\x00\x00\x00'
p1475
tp1476
Rp1477
sS'E'
p1478
I11
sS'TO'
p1479
g5
(g146
S'\x07\x00\x00\x00'
p1480
tp1481
Rp1482
sS'M'
p1483
g5
(g146
S'\n\x00\x00\x00'
p1484
tp1485
Rp1486
sS'JP'
p1487
I7
sS'RP_tot'
p1488
g5
(g146
S'\n\x00\x00\x00'
p1489
tp1490
Rp1491
sS'P'
p1492
I9
sS'PA'
p1493
I8
sS'A'
p1494
g5
(g146
S'\x0b\x00\x00\x00'
p1495
tp1496
Rp1497
sS'R'
p1498
I8
sS'TB'
p1499
I8
sS'PL'
p1500
I9
sS'TA'
p1501
I7
ssg164
(dp1502
sg143
I3
sg152
g52
sg153
I0
sg154
I0
sg156
g5
(g9
S'\x9ds\xce9\xe7\x9c#@'
p1503
tp1504
Rp1505
sg157
I0
sg162
I0
sg118
(dp1506
g1439
I0
sg1440
I0
sg1441
I0
sg1442
I0
ssg201
I0
sg202
(dp1507
g1466
g5
(g146
S'\x08\x00\x00\x00'
p1508
tp1509
Rp1510
sg1470
g5
(g146
S'\x05\x00\x00\x00'
p1511
tp1512
Rp1513
sg1474
g5
(g146
S'\x08\x00\x00\x00'
p1514
tp1515
Rp1516
sg1478
I11
sg1492
I9
sg1487
I7
sg1483
g5
(g146
S'\n\x00\x00\x00'
p1517
tp1518
Rp1519
sg1488
g5
(g146
S'\n\x00\x00\x00'
p1520
tp1521
Rp1522
sg1479
g5
(g146
S'\x07\x00\x00\x00'
p1523
tp1524
Rp1525
sg1493
I8
sg1494
g5
(g146
S'\x0b\x00\x00\x00'
p1526
tp1527
Rp1528
sg1498
I8
sg1499
I8
sg1500
I9
sg1501
I7
ssg219
I0
sg220
I0
sg221
I0
sg222
I0
sg223
I6
sg224
I0
sg163
I0
sg113
I0
sg226
S'ARA'
p1529
sbsS'n21'
p1530
(ijoueur
joueur
p1531
(dp1532
g910
F8.206896551724139
sg46
I0
sg911
F9.482758620689655
sg47
F4.5
sg152
g52
sg49
I0
sg50
F19.371235546393702
sg53
I0
sg55
I0
sg56
g57
(g58
g59
Ntp1533
Rp1534
(dp1535
g63
I4
sg64
S'x'
p1536
sg66
S'heros'
p1537
sbsg68
(dp1538
sg70
(dp1539
S'SR'
p1540
I3
sS'CT'
p1541
I4
sS'CR'
p1542
I5
sS'ST'
p1543
I0
ssg76
F9.448275862068966
sg923
I0
sg79
I10
sS'drop_rates_total'
p1544
I0
sg81
(dp1545
g83
I1
sg84
I2
sg85
g86
ssg87
I0
sg88
F19.371235546393702
sg89
I01
sg90
I4
sg91
I0
sg92
I0
sg93
I0
sg121
I0
sg96
I00
sg97
F4.5
sg98
(dp1546
g100
I0
sg101
I0
sg102
I2
sg103
I0
ssg118
(dp1547
g100
I0
sg101
I0
sg102
I0
sg103
I0
ssg105
(dp1548
g100
I0
sg101
I0
sg102
I0
sg103
I0
ssg107
(dp1549
g1540
I0
sg1541
I2
sg1542
I11
sg1543
I0
ssg109
I2
sg110
(lp1550
g112
aI01
aI01
aI00
asg113
I0
sg114
S'Garyoid'
p1551
sg116
I11
sg117
I0
sg104
I00
sg120
I88
sg94
g95
sg122
I00
sg124
I21
sg125
(dp1552
S'A'
p1553
I12
sS'ME'
p1554
I5
sS'RP2'
p1555
I7
sS'E'
p1556
I9
sS'TO'
p1557
I8
sS'RP1'
p1558
I8
sS'JP'
p1559
I4
sS'RP_tot'
p1560
I9
sS'P'
p1561
I10
sS'PA'
p1562
I11
sS'M'
p1563
I9
sS'R'
p1564
I3
sS'TB'
p1565
I9
sS'PL'
p1566
I11
sS'TA'
p1567
I8
ssg202
(dp1568
g1553
I12
sg1554
I5
sg1555
I7
sg1556
I9
sg1561
I10
sg1558
I8
sg1559
I4
sg1560
I9
sg1557
I8
sg1562
I11
sg1563
I9
sg1564
I3
sg1565
I9
sg1566
I11
sg1567
I8
ssg142
g1534
sg143
I2
sg48
I0
sg153
I0
sg154
I0
sg155
I0
sg156
F9.482758620689655
sg157
I0
sg158
(S'dummy'
p1569
S'C2'
p1570
S'AI'
p1571
g52
tp1572
sg77
(dp1573
g1540
I0
sg1541
I0
sg1542
I0
sg1543
I0
ssg162
I1
sg163
I0
sg164
(dp1574
S's13'
p1575
(ijoueur
joueur
p1576
(dp1577
g46
I0
sg47
F4.5
sg48
I0
sg49
I0
sg90
I4
sg53
I0
sg56
g1534
sg70
(dp1578
S'SR'
p1579
I0
sS'ST'
p1580
I0
sS'CR'
p1581
I0
sS'CT'
p1582
I0
ssg77
g1573
sg121
I0
sg80
S'KHR 14'
p1583
sg81
(dp1584
g175
I1
sg176
I1
sg177
g178
ssg87
I0
sg91
I0
sg92
I0
sg93
I0
sg158
g1572
sg96
I00
sg142
g1534
sg97
F2.5
sg104
I00
sg105
(dp1585
S'SR'
p1586
I0
sS'CT'
p1587
I0
sS'CR'
p1588
I0
sS'ST'
p1589
I0
ssg107
g1549
sg109
I0
sg110
(lp1590
g181
aI01
aI01
aI00
asg98
(dp1591
g1586
I0
sg1587
I0
sg1588
I4
sg1589
I0
ssg114
g1551
sg116
I11
sg117
I0
sg124
I21
sg120
I88
sg94
S'KHR'
p1592
sg125
(dp1593
S'A'
p1594
I0
sS'ME'
p1595
I0
sS'RP2'
p1596
I0
sS'E'
p1597
I0
sS'TO'
p1598
I0
sS'RP1'
p1599
I0
sS'JP'
p1600
I0
sS'RP_tot'
p1601
I0
sS'P'
p1602
I0
sS'PA'
p1603
I0
sS'M'
p1604
I0
sS'R'
p1605
I0
sS'TB'
p1606
I0
sS'PL'
p1607
I0
sS'TA'
p1608
I0
ssg164
(dp1609
sg143
I0
sg152
g52
sg153
I0
sg154
F4.5
sg155
I0
sg156
F9.448275862068966
sg157
I0
sg162
I0
sg118
(dp1610
g1586
I0
sg1587
I1
sg1588
I3
sg1589
I0
ssg201
I0
sg202
(dp1611
g204
I12
sg205
I5
sg206
I7
sg207
I9
sg208
I9
sg209
I8
sg210
I4
sg211
I9
sg212
I8
sg213
I11
sg214
I9
sg215
I3
sg216
I9
sg217
I11
sg218
I8
ssg219
I0
sg220
I0
sg221
I0
sg222
I0
sg223
I6
sg224
I0
sg163
I0
sg113
I0
sg225
I0
sg226
S'CHS'
p1612
sbsS's12'
p1613
(ijoueur
joueur
p1614
(dp1615
g910
F8.206896551724139
sg46
I0
sg47
F0.0
sg152
g52
sg49
I0
sg90
I4
sg53
I0
sg56
g57
(g58
g59
Ntp1616
Rp1617
(dp1618
g63
I4
sg64
S'x'
p1619
sg66
S'heros'
p1620
sbsg70
(dp1621
S'SR'
p1622
I3
sS'CT'
p1623
I3
sS'CR'
p1624
I2
sS'ST'
p1625
I0
ssg77
(dp1626
g1622
I0
sg1623
I0
sg1624
I0
sg1625
I0
ssg121
I0
sg1544
I0
sg81
(dp1627
g175
I1
sg176
I1
sg177
g178
ssg87
I0
sg91
I0
sg92
I0
sg93
I0
sg158
(S'dummy'
p1628
S'C2'
p1629
S'AI'
p1630
g52
tp1631
sg96
I00
sg142
g1617
sg97
F2.0
sg104
I00
sg105
(dp1632
S'SR'
p1633
I0
sS'ST'
p1634
I0
sS'CR'
p1635
I0
sS'CT'
p1636
I0
ssg107
(dp1637
g1622
I0
sg1623
I2
sg1624
I5
sg1625
I0
ssg109
I2
sg110
(lp1638
g181
aI01
aI01
aI00
asg98
(dp1639
g1633
I0
sg1634
I0
sg1635
I5
sg1636
I1
ssg114
S'Garyoid'
p1640
sg116
I11
sg117
I0
sg124
I21
sg120
I107
sg94
S'KHR'
p1641
sg125
(dp1642
S'A'
p1643
I12
sS'ME'
p1644
I5
sS'RP2'
p1645
I7
sS'E'
p1646
I9
sS'P'
p1647
I9
sS'RP1'
p1648
I8
sS'JP'
p1649
I5
sS'RP_tot'
p1650
I8
sS'TO'
p1651
I8
sS'PA'
p1652
I11
sS'M'
p1653
I10
sS'R'
p1654
I4
sS'TB'
p1655
I9
sS'PL'
p1656
I11
sS'TA'
p1657
I8
ssg164
(dp1658
S's11'
p1659
(ijoueur
joueur
p1660
(dp1661
g46
I0
sg49
I0
sg53
I0
sg56
g57
(g58
g59
Ntp1662
Rp1663
(dp1664
g63
I4
sg64
S'x'
p1665
sg66
S'heros'
p1666
sbsg70
(dp1667
S'SR'
p1668
I0
sS'CT'
p1669
I0
sS'CR'
p1670
I1
sS'ST'
p1671
I0
ssg77
(dp1672
g1668
I0
sg1669
I0
sg1670
I0
sg1671
I0
ssg1544
I0
sg87
I0
sg104
I00
sg91
I0
sg92
I0
sg93
I0
sg158
(S'dummy'
p1673
S'C2'
p1674
S'AI'
p1675
g52
tp1676
sg96
I00
sg142
g57
(g58
g59
Ntp1677
Rp1678
(dp1679
g63
I1
sg64
S'>'
p1680
sg66
S'base'
p1681
sbsg98
(dp1682
g1668
I0
sg1669
I1
sg1670
I0
sg1671
I0
ssg118
(dp1683
g1668
I0
sg1669
I0
sg1670
I1
sg1671
I0
ssg105
(dp1684
g1668
I0
sg1669
I0
sg1670
I0
sg1671
I0
ssg107
(dp1685
g1668
I0
sg1669
I1
sg1670
I0
sg1671
I0
ssg109
I0
sg113
I0
sg114
S'Garyoid'
p1686
sg116
I11
sg117
I0
sg124
I21
sg120
I20
sg94
S'KHR'
p1687
sg125
(dp1688
S'A'
p1689
I9
sS'ME'
p1690
I3
sS'RP2'
p1691
I8
sS'E'
p1692
I8
sS'P'
p1693
I8
sS'RP1'
p1694
I6
sS'JP'
p1695
I5
sS'RP_tot'
p1696
I8
sS'TO'
p1697
I5
sS'PA'
p1698
I8
sS'M'
p1699
I10
sS'R'
p1700
I5
sS'TB'
p1701
I7
sS'PL'
p1702
I9
sS'TA'
p1703
I6
ssg143
I0
sg48
I0
sg153
I0
sg155
I0
sg156
F8.206896551724139
sg157
I0
sg163
I0
sg201
I0
sg1077
(dp1704
S'A'
p1705
I9
sS'ME'
p1706
I3
sS'RP2'
p1707
I8
sS'E'
p1708
I8
sS'P'
p1709
I8
sS'RP1'
p1710
I6
sS'JP'
p1711
I5
sS'RP_tot'
p1712
I8
sS'TO'
p1713
I5
sS'PA'
p1714
I8
sS'M'
p1715
I10
sS'R'
p1716
I5
sS'TB'
p1717
I7
sS'PL'
p1718
I9
sS'TA'
p1719
I6
ssg202
g1688
sg219
I0
sg80
g52
sg220
I0
sg221
I0
sg222
I0
sg223
I3
sg224
I0
sg225
I0
sg226
S'CHS'
p1720
sbssg143
I0
sg48
I0
sg153
I0
sg154
F8.5
sg155
I0
sg156
F9.482758620689655
sg157
I0
sg162
I0
sg118
(dp1721
g1633
I3
sg1634
I0
sg1635
I1
sg1636
I3
ssg201
I0
sg1077
(dp1722
S'A'
p1723
I9
sS'ME'
p1724
I3
sS'RP2'
p1725
I8
sS'E'
p1726
I8
sS'TO'
p1727
I5
sS'RP1'
p1728
I6
sS'JP'
p1729
I5
sS'RP_tot'
p1730
I8
sS'P'
p1731
I8
sS'PA'
p1732
I8
sS'M'
p1733
I10
sS'R'
p1734
I5
sS'TB'
p1735
I7
sS'PL'
p1736
I9
sS'TA'
p1737
I6
ssg202
g1642
sg219
I0
sg80
g52
sg220
I0
sg221
I0
sg222
I0
sg223
I11
sg224
I0
sg163
I0
sg113
I2
sg225
I0
sg226
S'CHS'
p1738
sbsS's11'
p1739
(ijoueur
joueur
p1740
(dp1741
g46
I0
sg47
F0.5
sg49
I0
sg90
I2
sg53
I0
sg56
g57
(g58
g59
Ntp1742
Rp1743
(dp1744
g63
I4
sg64
S'x'
p1745
sg66
S'heros'
p1746
sbsg70
(dp1747
S'SR'
p1748
I0
sS'CT'
p1749
I0
sS'CR'
p1750
I1
sS'ST'
p1751
I0
ssg77
(dp1752
g1748
I0
sg1749
I0
sg1750
I0
sg1751
I0
ssg121
I0
sg1544
I0
sg81
(dp1753
g175
I1
sg176
I1
sg177
g178
ssg87
I0
sg91
I0
sg92
I0
sg93
I0
sg158
(S'dummy'
p1754
S'C2'
p1755
S'AI'
p1756
g52
tp1757
sg96
I00
sg142
g57
(g58
g59
Ntp1758
Rp1759
(dp1760
g63
I1
sg64
S'>'
p1761
sg66
S'base'
p1762
sbsg97
F1.5
sg104
I00
sg105
(dp1763
g1748
I0
sg1749
I0
sg1750
I0
sg1751
I0
ssg107
(dp1764
g1748
I0
sg1749
I1
sg1750
I0
sg1751
I0
ssg109
I0
sg110
(lp1765
g181
aI01
aI01
aI00
asg113
I0
sg114
S'Garyoid'
p1766
sg116
I11
sg117
I0
sg124
I21
sg120
I20
sg94
S'KHR'
p1767
sg98
(dp1768
g1748
I0
sg1749
I1
sg1750
I0
sg1751
I0
ssg125
(dp1769
S'A'
p1770
I9
sS'ME'
p1771
I3
sS'RP2'
p1772
I8
sS'E'
p1773
I8
sS'P'
p1774
I8
sS'RP1'
p1775
I6
sS'JP'
p1776
I5
sS'RP_tot'
p1777
I8
sS'TO'
p1778
I5
sS'PA'
p1779
I8
sS'M'
p1780
I10
sS'R'
p1781
I5
sS'TB'
p1782
I7
sS'PL'
p1783
I9
sS'TA'
p1784
I6
ssg143
I0
sg48
I0
sg153
I0
sg154
F1.5
sg155
I0
sg156
F8.206896551724139
sg157
I0
sg162
I0
sg118
(dp1785
g1748
I0
sg1749
I0
sg1750
I1
sg1751
I0
ssg201
I0
sg1077
(dp1786
S'A'
p1787
I9
sS'ME'
p1788
I3
sS'RP2'
p1789
I8
sS'E'
p1790
I8
sS'P'
p1791
I8
sS'RP1'
p1792
I6
sS'JP'
p1793
I5
sS'RP_tot'
p1794
I8
sS'TO'
p1795
I5
sS'PA'
p1796
I8
sS'M'
p1797
I10
sS'R'
p1798
I5
sS'TB'
p1799
I7
sS'PL'
p1800
I9
sS'TA'
p1801
I6
ssg202
g1769
sg219
I0
sg80
g52
sg220
I0
sg221
I0
sg222
I0
sg223
I3
sg224
I0
sg163
I0
sg225
I0
sg226
S'CHS'
p1802
sbssg201
I0
sg1077
(dp1803
S'A'
p1804
I9
sS'ME'
p1805
I3
sS'RP2'
p1806
I8
sS'E'
p1807
I8
sS'TO'
p1808
I5
sS'RP1'
p1809
I6
sS'JP'
p1810
I5
sS'RP_tot'
p1811
I8
sS'P'
p1812
I8
sS'PA'
p1813
I8
sS'M'
p1814
I10
sS'R'
p1815
I5
sS'TB'
p1816
I7
sS'PL'
p1817
I9
sS'TA'
p1818
I6
ssg219
I0
sg1156
(dp1819
sg220
I0
sg80
g1583
sg221
I0
sg222
I0
sg223
I6
sg224
I0
sg225
I0
sg226
g1612
sbsS'n20'
p1820
(ijoueur
joueur
p1821
(dp1822
g46
I0
sg47
F5.5
sg48
I0
sg49
I0
sg50
I0
sg51
g52
sg53
I0
sg54
g52
sg55
I0
sg56
g57
(g58
g59
Ntp1823
Rp1824
(dp1825
g63
I1
sg64
S'<'
p1826
sg66
S'base'
p1827
sbsg68
(dp1828
sg70
(dp1829
S'SR'
p1830
I0
sS'CT'
p1831
I0
sS'CR'
p1832
I0
sS'ST'
p1833
I0
ssg76
F8.482758620689655
sg77
(dp1834
g1830
I0
sg1831
I0
sg1832
I0
sg1833
I0
ssg79
I10
sg80
g52
sg81
(dp1835
S'couleur'
p1836
I3
sS'valeur'
p1837
I3
sS'r_n'
p1838
S'n'
p1839
ssg87
I0
sg88
I0
sg89
I01
sg90
I3
sg91
I0
sg92
I0
sg93
I0
sg94
S'MRT'
p1840
sg96
I00
sg97
F12.5
sg98
(dp1841
S'SR'
p1842
I0
sS'ST'
p1843
I0
sS'CR'
p1844
I0
sS'CT'
p1845
I0
ssg104
I00
sg105
(dp1846
g1842
I0
sg1843
I0
sg1844
I0
sg1845
I0
ssg107
(dp1847
g1830
I0
sg1831
I12
sg1832
I1
sg1833
I0
ssg109
I0
sg110
(lp1848
S'dummy'
p1849
aI01
aI00
aI00
asg113
I0
sg114
S'Skathral'
p1850
sg116
I13
sg117
I0
sg118
(dp1851
g1842
I0
sg1843
I0
sg1844
I0
sg1845
I0
ssg120
I10
sg121
I3
sg122
I00
sg123
g52
sg124
I24
sg125
(dp1852
S'RP1'
p1853
I6
sS'ME'
p1854
I3
sS'RP2'
p1855
I9
sS'E'
p1856
I9
sS'TO'
p1857
I5
sS'M'
p1858
I9
sS'JP'
p1859
I9
sS'RP_tot'
p1860
I9
sS'P'
p1861
I6
sS'PA'
p1862
I11
sS'A'
p1863
I10
sS'R'
p1864
I6
sS'TB'
p1865
I8
sS'PL'
p1866
I9
sS'TA'
p1867
I3
ssg142
g1824
sg143
I0
sg152
g52
sg153
I0
sg154
I0
sg155
I0
sg156
F9.10344827586207
sg157
I0
sg158
(S'dummy'
p1868
S'DM'
p1869
g52
g52
tp1870
sg162
I4
sg163
I0
sg164
(dp1871
S's13'
p1872
(ijoueur
joueur
p1873
(dp1874
g46
I0
sg47
F2.5
sg48
I0
sg49
I0
sg90
I4
sg53
I0
sg56
g1824
sg70
(dp1875
S'SR'
p1876
I0
sS'CT'
p1877
I0
sS'CR'
p1878
I0
sS'ST'
p1879
I0
ssg77
g1834
sg80
g52
sg223
I1
sg81
(dp1880
S'couleur'
p1881
I1
sS'valeur'
p1882
I1
sS'r_n'
p1883
S'n'
p1884
ssg87
I0
sg91
I2
sg92
I0
sg93
I0
sg94
g1840
sg96
I00
sg142
g1824
sg97
F12.5
sg104
I00
sg105
(dp1885
g1830
I0
sg1831
I0
sg1832
I0
sg1833
I0
ssg107
g1847
sg109
I0
sg110
(lp1886
S'dummy'
p1887
aI01
aI00
aI00
asg98
(dp1888
g1830
I0
sg1831
I12
sg1832
I1
sg1833
I0
ssg114
g1850
sg116
I13
sg117
I0
sg124
I24
sg120
I10
sg158
g1870
sg125
(dp1889
S'A'
p1890
I0
sS'ME'
p1891
I0
sS'RP2'
p1892
I0
sS'E'
p1893
I0
sS'P'
p1894
I0
sS'RP1'
p1895
I0
sS'JP'
p1896
I0
sS'RP_tot'
p1897
I0
sS'TO'
p1898
I0
sS'PA'
p1899
I0
sS'M'
p1900
I0
sS'R'
p1901
I0
sS'TB'
p1902
I0
sS'PL'
p1903
I0
sS'TA'
p1904
I0
ssg164
(dp1905
sg143
I0
sg152
g52
sg153
I0
sg154
F12.5
sg155
I0
sg156
F8.482758620689655
sg157
I0
sg162
I0
sg118
(dp1906
g1830
I0
sg1831
I0
sg1832
I0
sg1833
I0
ssg201
I0
sg202
(dp1907
S'A'
p1908
I10
sS'ME'
p1909
I3
sS'RP2'
p1910
I9
sS'E'
p1911
I9
sS'P'
p1912
I6
sS'RP1'
p1913
I6
sS'JP'
p1914
I8
sS'RP_tot'
p1915
I9
sS'TO'
p1916
I5
sS'PA'
p1917
I9
sS'M'
p1918
I8
sS'R'
p1919
I6
sS'TB'
p1920
I7
sS'PL'
p1921
I9
sS'TA'
p1922
I3
ssg219
I0
sg220
I0
sg221
I0
sg222
I0
sg121
I0
sg224
I0
sg163
I0
sg113
I0
sg225
I0
sg226
S'ARA'
p1923
sbssg201
I0
sg202
(dp1924
g1853
I6
sg1854
I3
sg1855
I9
sg1856
I9
sg1861
I6
sg1859
I9
sg1858
I9
sg1860
I9
sg1857
I5
sg1862
I11
sg1863
I10
sg1864
I6
sg1865
I8
sg1866
I9
sg1867
I3
ssg219
I0
sg220
I0
sg221
I0
sg222
I0
sg223
I1
sg224
I2
sg225
I0
sg226
g1923
sbsS'n8'
p1925
(ijoueur
joueur
p1926
(dp1927
g46
I0
sg47
F6.0
sg48
I0
sg49
I0
sg50
F19.371235546393702
sg51
g52
sg53
I0
sg54
g52
sg55
I0
sg56
g57
(g58
g59
Ntp1928
Rp1929
(dp1930
g63
I4
sg64
g274
sg66
g67
sbsg68
(dp1931
sg70
(dp1932
g72
I0
sg73
I1
sg74
I0
sg75
I0
ssg76
F8.862068965517242
sg77
(dp1933
g72
I0
sg73
I0
sg74
I0
sg75
I0
ssg79
I10
sg80
g52
sg81
(dp1934
g83
I4
sg84
I13
sg85
g523
ssg87
I0
sg88
F19.371235546393702
sg89
I01
sg90
I3
sg91
I0
sg92
I0
sg93
I0
sg94
g95
sg96
I00
sg97
F13.0
sg98
(dp1935
g100
I0
sg101
I0
sg102
I0
sg103
I2
ssg104
I00
sg105
(dp1936
g100
I0
sg101
I0
sg102
I0
sg103
I0
ssg107
(dp1937
g72
I0
sg73
I14
sg74
I0
sg75
I0
ssg109
I0
sg110
(lp1938
g112
aI01
aI01
aI00
asg113
I0
sg114
S'Xefaldih'
p1939
sg116
I13
sg117
I0
sg118
(dp1940
g100
I0
sg101
I0
sg102
I0
sg103
I0
ssg120
I47
sg121
I3
sg122
I00
sg123
g52
sg124
I24
sg125
(dp1941
g127
I10
sg128
I8
sg129
I7
sg130
I11
sg131
I9
sg132
I8
sg133
I5
sg134
I10
sg135
I6
sg136
I9
sg137
I9
sg138
I9
sg139
I6
sg140
I9
sg141
I5
ssg142
g57
(g58
g59
Ntp1942
Rp1943
(dp1944
g63
I3
sg64
S'^^^'
p1945
sg66
S'rare'
p1946
sbsg143
g5
(g146
S'\x06\x00\x00\x00'
p1947
tp1948
Rp1949
sg152
g52
sg153
I0
sg154
I0
sg155
I0
sg156
F9.310344827586206
sg157
I0
sg158
(g159
S'N8'
p1950
S'TL'
p1951
g52
tp1952
sg162
I-1
sg163
I0
sg164
(dp1953
S's13'
p1954
(ijoueur
joueur
p1955
(dp1956
g46
I0
sg47
F3.0
sg48
I0
sg49
I0
sg90
I4
sg53
I0
sg56
g1929
sg70
(dp1957
g170
I0
sg171
I0
sg172
I0
sg173
I0
ssg77
g1933
sg121
I0
sg80
g52
sg81
(dp1958
g175
I1
sg176
I1
sg177
g178
ssg87
I0
sg91
I0
sg92
I0
sg93
I0
sg158
g1952
sg96
I00
sg142
g57
(g58
g59
Ntp1959
Rp1960
(dp1961
g63
I2
sg64
g477
sg66
g478
sbsg97
F13.0
sg104
I00
sg105
(dp1962
g72
I0
sg73
I0
sg74
I0
sg75
I0
ssg107
g1937
sg109
I0
sg110
(lp1963
g181
aI01
aI01
aI00
asg98
(dp1964
g72
I0
sg73
I12
sg74
I0
sg75
I0
ssg114
g1939
sg116
I13
sg117
I0
sg124
I24
sg120
I26
sg94
g95
sg125
(dp1965
g184
I0
sg185
I0
sg186
I0
sg187
I0
sg188
I0
sg189
I0
sg190
I0
sg191
I0
sg192
I0
sg193
I0
sg194
I0
sg195
I0
sg196
I0
sg197
I0
sg198
I0
ssg164
(dp1966
sg143
I0
sg152
g52
sg153
I0
sg154
F13.0
sg155
I0
sg156
F8.862068965517242
sg157
I0
sg162
I0
sg118
(dp1967
g72
I0
sg73
I1
sg74
I0
sg75
I0
ssg201
I0
sg202
(dp1968
g204
I8
sg205
I8
sg206
I6
sg207
I11
sg208
I4
sg209
I9
sg210
I3
sg211
I9
sg212
I8
sg213
I8
sg214
I9
sg215
I9
sg216
I4
sg217
I8
sg218
I5
ssg219
I0
sg220
I0
sg221
I0
sg222
I0
sg223
I2
sg224
I0
sg163
I0
sg113
I0
sg225
I0
sg226
g227
sbssg201
I0
sg202
(dp1969
g127
I10
sg128
I8
sg129
I7
sg130
I11
sg135
I6
sg133
I5
sg132
I8
sg134
I10
sg131
I9
sg136
I9
sg137
I9
sg138
I9
sg139
I6
sg140
I9
sg141
I5
ssg219
I0
sg220
I0
sg221
I0
sg222
I0
sg223
I4
sg224
I0
sg225
I0
sg226
g227
sbsS'n9'
p1970
(ijoueur
joueur
p1971
(dp1972
g46
I0
sg47
F2.5
sg48
I1
sg49
I0
sg50
F19.371235546393702
sg51
g52
sg53
I0
sg54
g52
sg55
I0
sg56
g57
(g58
g59
Ntp1973
Rp1974
(dp1975
g63
I4
sg64
S'x'
p1976
sg66
S'heros'
p1977
sbsg68
(dp1978
sg70
(dp1979
g1830
I0
sg1831
I2
sg1832
I6
sg1833
I0
ssg76
F8.181818181818182
sg77
(dp1980
g1830
I0
sg1831
I0
sg1832
I0
sg1833
I0
ssg79
I10
sg80
g52
sg81
(dp1981
g1836
I2
sg1837
I10
sg1838
S'r'
p1982
ssg87
I0
sg88
F19.371235546393702
sg89
I01
sg90
I3
sg91
I0
sg92
I0
sg93
I0
sg94
g1840
sg96
I00
sg97
F9.5
sg98
(dp1983
g1842
I0
sg1843
I0
sg1844
I1
sg1845
I0
ssg104
I00
sg105
(dp1984
g1842
I0
sg1843
I0
sg1844
I0
sg1845
I0
ssg107
(dp1985
g1830
I0
sg1831
I3
sg1832
I5
sg1833
I0
ssg109
I0
sg110
(lp1986
g1849
aI01
aI01
aI00
asg113
I0
sg114
S'Drolen'
p1987
sg116
I13
sg117
I0
sg118
(dp1988
g1842
I0
sg1843
I0
sg1844
I1
sg1845
I0
ssg120
I57
sg121
I3
sg122
I00
sg123
g52
sg124
I23
sg125
(dp1989
g1853
I7
sg1854
I6
sg1855
I10
sg1856
I8
sg1857
I7
sg1858
I9
sg1859
I9
sg1860
I10
sg1861
I10
sg1862
I10
sg1863
I8
sg1864
I7
sg1865
I8
sg1866
I10
sg1867
I6
ssg142
g57
(g58
g59
Ntp1990
Rp1991
(dp1992
g63
I3
sg64
S'^^^'
p1993
sg66
S'rare'
p1994
sbsg143
I3
sg152
g52
sg153
I0
sg154
I0
sg155
I0
sg156
F9.242424242424242
sg157
I0
sg158
(g1868
S'DO'
p1995
S'DM'
p1996
g52
tp1997
sg162
I0
sg163
I0
sg164
(dp1998
S's13'
p1999
(ijoueur
joueur
p2000
(dp2001
g46
I0
sg47
F5.5
sg48
I0
sg49
I0
sg90
I3
sg53
I0
sg56
g1974
sg70
(dp2002
g1876
I0
sg1877
I0
sg1878
I0
sg1879
I0
ssg77
g1980
sg80
g52
sg223
I3
sg81
(dp2003
g1881
I1
sg1882
I1
sg1883
g1884
ssg87
I1
sg91
I1
sg92
I0
sg93
I0
sg94
g1840
sg96
I00
sg142
g57
(g58
g59
Ntp2004
Rp2005
(dp2006
g63
I2
sg64
S'<<'
p2007
sg66
S'special'
p2008
sbsg97
F9.5
sg104
I00
sg105
(dp2009
g1830
I0
sg1831
I0
sg1832
I0
sg1833
I0
ssg107
g1985
sg109
I0
sg110
(lp2010
g1887
aI01
aI01
aI00
asg98
(dp2011
g1830
I0
sg1831
I3
sg1832
I4
sg1833
I0
ssg114
g1987
sg116
I13
sg117
I0
sg124
I23
sg120
I36
sg158
g1997
sg125
(dp2012
g1890
I0
sg1891
I0
sg1892
I0
sg1893
I0
sg1894
I0
sg1895
I0
sg1896
I0
sg1897
I0
sg1898
I0
sg1899
I0
sg1900
I0
sg1901
I0
sg1902
I0
sg1903
I0
sg1904
I0
ssg164
(dp2013
sg143
I0
sg152
g52
sg153
I0
sg154
F9.5
sg155
I0
sg156
F8.181818181818182
sg157
I0
sg162
I0
sg118
(dp2014
g1830
I0
sg1831
I2
sg1832
I5
sg1833
I0
ssg201
I0
sg202
(dp2015
g1908
I7
sg1909
I6
sg1910
I9
sg1911
I8
sg1912
I8
sg1913
I6
sg1914
I7
sg1915
I9
sg1916
I6
sg1917
I9
sg1918
I9
sg1919
I7
sg1920
I6
sg1921
I9
sg1922
I6
ssg219
I0
sg220
I0
sg221
I0
sg222
I0
sg121
I0
sg224
I0
sg163
I0
sg113
I0
sg225
I0
sg226
g1923
sbssg201
I0
sg202
(dp2016
g1853
I7
sg1854
I6
sg1855
I10
sg1856
I8
sg1861
I10
sg1859
I9
sg1858
I9
sg1860
I10
sg1857
I7
sg1862
I10
sg1863
I8
sg1864
I7
sg1865
I8
sg1866
I10
sg1867
I6
ssg219
I0
sg220
I0
sg221
I0
sg222
I0
sg223
I5
sg224
I1
sg225
I0
sg226
g1923
sbsS'n1'
p2017
g514
sS'n2'
p2018
(ijoueur
joueur
p2019
(dp2020
g46
I0
sg47
F4.0
sg48
I0
sg49
I0
sg50
F19.371235546393702
sg51
g52
sg53
I0
sg54
g52
sg55
I0
sg56
g57
(g58
g59
Ntp2021
Rp2022
(dp2023
g63
I4
sg64
g65
sg66
g67
sbsg68
(dp2024
sg70
(dp2025
g72
I0
sg73
I0
sg74
I0
sg75
I0
ssg76
F9.172413793103448
sg77
(dp2026
g72
I0
sg73
I0
sg74
I0
sg75
I0
ssg79
I10
sg80
g52
sg81
(dp2027
g83
I2
sg84
I5
sg85
g523
ssg87
I0
sg88
F19.371235546393702
sg89
I00
sg90
I1
sg91
I0
sg92
I0
sg93
I0
sg94
g95
sg96
I00
sg97
F13.0
sg98
(dp2028
g100
I0
sg101
I0
sg102
I0
sg103
I2
ssg104
I00
sg105
(dp2029
g100
I0
sg101
I0
sg102
I0
sg103
I0
ssg107
(dp2030
g72
I0
sg73
I15
sg74
I0
sg75
I0
ssg109
I0
sg110
(lp2031
g112
aI01
aI01
aI00
asg113
I0
sg114
S"Xarsh'Domel"
p2032
sg116
I4
sg117
I0
sg118
(dp2033
g100
I0
sg101
I0
sg102
I0
sg103
I0
ssg120
I161
sg121
I2
sg122
I00
sg123
g52
sg124
I16
sg125
(dp2034
g127
I10
sg128
I9
sg129
I9
sg130
I8
sg131
I8
sg132
I9
sg133
I2
sg134
I11
sg135
I3
sg136
I8
sg137
I8
sg138
I9
sg139
I5
sg140
I11
sg141
I8
ssg142
g2022
sg143
g5
(g146
S'\x05\x00\x00\x00'
p2035
tp2036
Rp2037
sg152
g52
sg153
I0
sg154
I0
sg155
I0
sg156
F9.172413793103448
sg157
I0
sg158
(g159
g141
S'PI'
p2038
g52
tp2039
sg162
I0
sg163
I0
sg164
(dp2040
S's13'
p2041
(ijoueur
joueur
p2042
(dp2043
g46
I0
sg47
F4.0
sg48
I0
sg49
I0
sg90
I1
sg53
I0
sg56
g2022
sg70
(dp2044
g170
I0
sg171
I0
sg172
I0
sg173
I0
ssg77
g2026
sg121
I0
sg80
g52
sg81
(dp2045
g175
I1
sg176
I1
sg177
g178
ssg87
I0
sg91
I0
sg92
I0
sg93
I0
sg158
g2039
sg96
I00
sg142
g2022
sg97
F13.0
sg104
I00
sg105
(dp2046
g72
I0
sg73
I0
sg74
I0
sg75
I0
ssg107
g2030
sg109
I0
sg110
(lp2047
g181
aI01
aI01
aI00
asg98
(dp2048
g72
I0
sg73
I13
sg74
I0
sg75
I0
ssg114
g2032
sg116
I4
sg117
I0
sg124
I16
sg120
I161
sg94
g95
sg125
(dp2049
g184
I0
sg185
I0
sg186
I0
sg187
I0
sg188
I0
sg189
I0
sg190
I0
sg191
I0
sg192
I0
sg193
I0
sg194
I0
sg195
I0
sg196
I0
sg197
I0
sg198
I0
ssg164
(dp2050
sg143
I0
sg152
g52
sg153
I0
sg154
F13.0
sg155
I0
sg156
F9.172413793103448
sg157
I0
sg162
I0
sg118
(dp2051
g72
I0
sg73
I0
sg74
I0
sg75
I0
ssg201
I0
sg202
(dp2052
g204
I8
sg205
I9
sg206
I9
sg207
I8
sg208
I3
sg209
I10
sg210
I2
sg211
I11
sg212
I8
sg213
I8
sg214
I9
sg215
I9
sg216
I5
sg217
I11
sg218
I8
ssg219
I0
sg220
I0
sg221
I0
sg222
I0
sg223
I16
sg224
I0
sg163
I0
sg113
I0
sg225
I0
sg226
g227
sbsS's12'
p2053
(ijoueur
joueur
p2054
(dp2055
g46
I0
sg47
I0
sg48
I0
sg49
I0
sg90
I0
sg53
I0
sg56
g57
(g58
g59
Ntp2056
Rp2057
(dp2058
g64
g52
sbsg70
(dp2059
g72
I0
sg73
I0
sg74
I0
sg75
I0
ssg77
(dp2060
g72
I0
sg73
I0
sg74
I0
sg75
I0
ssg121
I0
sg80
g52
sg81
(dp2061
g175
I1
sg176
I1
sg177
g178
ssg87
I0
sg91
I0
sg92
I0
sg93
I0
sg158
(g159
g141
g52
g52
tp2062
sg96
I00
sg142
g57
(g58
g59
Ntp2063
Rp2064
(dp2065
g64
g52
sbsg97
I0
sg104
I00
sg105
(dp2066
g72
I0
sg73
I0
sg74
I0
sg75
I0
ssg107
(dp2067
g72
I0
sg73
I0
sg74
I0
sg75
I0
ssg109
I0
sg110
(lp2068
g181
aI01
aI00
aI00
asg98
(dp2069
g72
I0
sg73
I0
sg74
I0
sg75
I0
ssg114
g52
sg116
I0
sg117
I0
sg124
I0
sg120
I0
sg94
g95
sg125
(dp2070
g137
I0
sg128
I0
sg129
I0
sg130
I0
sg135
I0
sg127
I0
sg133
I0
sg134
I0
sg131
I0
sg136
I0
sg132
I0
sg138
I0
sg139
I0
sg140
I0
sg141
I0
ssg164
(dp2071
sg143
I0
sg152
g52
sg153
I0
sg154
I0
sg155
I0
sg156
F9.172413793103448
sg157
I0
sg162
I0
sg118
(dp2072
g72
I0
sg73
I0
sg74
I0
sg75
I0
ssg201
I0
sg202
(dp2073
g127
I10
sg128
I9
sg129
I9
sg130
I8
sg135
I3
sg133
I2
sg132
I9
sg134
I11
sg131
I8
sg136
I8
sg137
I8
sg138
I9
sg139
I5
sg140
I11
sg141
I8
ssg219
I0
sg220
I0
sg221
I0
sg222
I0
sg223
I0
sg224
I0
sg163
I0
sg113
I0
sg225
I0
sg226
g52
sbsS's11'
p2074
(ijoueur
joueur
p2075
(dp2076
g46
I0
sg47
I0
sg48
I0
sg49
I0
sg90
I0
sg53
I0
sg56
g57
(g58
g59
Ntp2077
Rp2078
(dp2079
g64
g52
sbsg70
(dp2080
g72
I0
sg73
I0
sg74
I0
sg75
I0
ssg77
(dp2081
g72
I0
sg73
I0
sg74
I0
sg75
I0
ssg121
I0
sg80
g52
sg81
(dp2082
g175
I1
sg176
I1
sg177
g178
ssg87
I0
sg91
I0
sg92
I0
sg93
I0
sg158
g2062
sg96
I00
sg142
g57
(g58
g59
Ntp2083
Rp2084
(dp2085
g64
g52
sbsg97
I0
sg104
I00
sg105
(dp2086
g72
I0
sg73
I0
sg74
I0
sg75
I0
ssg107
(dp2087
g72
I0
sg73
I0
sg74
I0
sg75
I0
ssg109
I0
sg110
(lp2088
g181
aI01
aI00
aI00
asg98
(dp2089
g72
I0
sg73
I0
sg74
I0
sg75
I0
ssg114
g52
sg116
I0
sg117
I0
sg124
I0
sg120
I0
sg94
g95
sg125
(dp2090
g137
I0
sg128
I0
sg129
I0
sg130
I0
sg135
I0
sg127
I0
sg133
I0
sg134
I0
sg131
I0
sg136
I0
sg132
I0
sg138
I0
sg139
I0
sg140
I0
sg141
I0
ssg164
(dp2091
sg143
I0
sg152
g52
sg153
I0
sg154
I0
sg155
I0
sg156
F9.172413793103448
sg157
I0
sg162
I0
sg118
(dp2092
g72
I0
sg73
I0
sg74
I0
sg75
I0
ssg201
I0
sg202
g2073
sg219
I0
sg220
I0
sg221
I0
sg222
I0
sg223
I0
sg224
I0
sg163
I0
sg113
I0
sg225
I0
sg226
g52
sbssg201
I0
sg202
g2073
sg219
I0
sg220
I0
sg221
I0
sg222
I0
sg223
I16
sg224
I0
sg225
I0
sg226
g227
sbsS'n3'
p2093
g429
sS'n4'
p2094
g44
sS'n5'
p2095
(ijoueur
joueur
p2096
(dp2097
g46
I0
sg47
F4.0
sg48
I0
sg49
I0
sg50
F19.371235546393702
sg51
g52
sg53
I0
sg54
g52
sg55
I0
sg56
g57
(g58
g59
Ntp2098
Rp2099
(dp2100
g63
I2
sg64
g477
sg66
g478
sbsg68
(dp2101
sg70
(dp2102
g72
I0
sg73
I6
sg74
I8
sg75
I0
ssg76
F8.631578947368421
sg77
(dp2103
g72
I0
sg73
I0
sg74
I0
sg75
I0
ssg79
I10
sg80
g52
sg81
(dp2104
g83
I3
sg84
I10
sg85
g86
ssg87
I0
sg88
F19.371235546393702
sg89
I00
sg90
I1
sg91
I0
sg92
I0
sg93
I0
sg94
g95
sg96
I00
sg97
F10.0
sg98
(dp2105
g100
I0
sg101
I0
sg102
I0
sg103
I0
ssg104
I00
sg105
(dp2106
g100
I0
sg101
I0
sg102
I0
sg103
I0
ssg107
(dp2107
g72
I0
sg73
I2
sg74
I0
sg75
I0
ssg109
I0
sg110
(lp2108
g112
aI01
aI01
aI00
asg113
I0
sg114
S'Zunna'
p2109
sg116
I7
sg117
I0
sg118
(dp2110
g100
I0
sg101
I0
sg102
I0
sg103
I2
ssg120
I28
sg121
I2
sg122
I00
sg123
g52
sg124
I17
sg125
(dp2111
g127
I7
sg128
I11
sg129
I6
sg130
I9
sg131
I9
sg132
I11
sg133
I3
sg134
I7
sg135
I5
sg136
I7
sg137
I8
sg138
I9
sg139
I4
sg140
I10
sg141
I5
ssg142
g2099
sg143
g5
(g146
S'\x04\x00\x00\x00'
p2112
tp2113
Rp2114
sg152
g52
sg153
I0
sg154
I0
sg155
I0
sg156
F9.03225806451613
sg157
I0
sg158
(g159
g490
S'DL'
p2115
g52
tp2116
sg162
I5
sg163
I0
sg164
(dp2117
S's13'
p2118
(ijoueur
joueur
p2119
(dp2120
g46
I0
sg47
F4.0
sg48
I0
sg49
I0
sg90
I1
sg53
I0
sg56
g2099
sg70
(dp2121
g170
I0
sg171
I0
sg172
I0
sg173
I0
ssg77
g2103
sg121
I0
sg80
g52
sg81
(dp2122
g175
I1
sg176
I1
sg177
g178
ssg87
I0
sg91
I0
sg92
I0
sg93
I0
sg158
g2116
sg96
I00
sg142
g2099
sg97
F10.0
sg104
I00
sg105
(dp2123
g72
I0
sg73
I0
sg74
I0
sg75
I0
ssg107
g2107
sg109
I0
sg110
(lp2124
g181
aI01
aI01
aI00
asg98
(dp2125
g72
I0
sg73
I2
sg74
I0
sg75
I0
ssg114
g2109
sg116
I7
sg117
I0
sg124
I17
sg120
I28
sg94
g95
sg125
(dp2126
g184
I0
sg185
I0
sg186
I0
sg187
I0
sg188
I0
sg189
I0
sg190
I0
sg191
I0
sg192
I0
sg193
I0
sg194
I0
sg195
I0
sg196
I0
sg197
I0
sg198
I0
ssg164
(dp2127
sg143
I0
sg152
g52
sg153
I0
sg154
F10.0
sg155
I0
sg156
F8.631578947368421
sg157
I0
sg162
I0
sg118
(dp2128
g72
I0
sg73
I4
sg74
I8
sg75
I0
ssg201
I0
sg202
(dp2129
g204
I8
sg205
I9
sg206
I6
sg207
I9
sg208
I5
sg209
I6
sg210
I3
sg211
I7
sg212
I9
sg213
I7
sg214
I10
sg215
I8
sg216
I4
sg217
I10
sg218
I5
ssg219
I0
sg220
I0
sg221
I0
sg222
I0
sg223
I2
sg224
I0
sg163
I0
sg113
I0
sg225
I0
sg226
g227
sbsS's12'
p2130
(ijoueur
joueur
p2131
(dp2132
g46
I0
sg47
I0
sg48
I0
sg49
I0
sg90
I0
sg53
I0
sg56
g57
(g58
g59
Ntp2133
Rp2134
(dp2135
g64
g52
sbsg70
(dp2136
g72
I0
sg73
I0
sg74
I0
sg75
I0
ssg77
(dp2137
g72
I0
sg73
I0
sg74
I0
sg75
I0
ssg121
I0
sg80
g52
sg81
(dp2138
g175
I1
sg176
I1
sg177
g178
ssg87
I0
sg91
I0
sg92
I0
sg93
I0
sg158
(g159
g490
g52
g52
tp2139
sg96
I00
sg142
g57
(g58
g59
Ntp2140
Rp2141
(dp2142
g64
g52
sbsg97
I0
sg104
I00
sg105
(dp2143
g72
I0
sg73
I0
sg74
I0
sg75
I0
ssg107
(dp2144
g72
I0
sg73
I0
sg74
I0
sg75
I0
ssg109
I0
sg110
(lp2145
g181
aI01
aI00
aI00
asg98
(dp2146
g72
I0
sg73
I0
sg74
I0
sg75
I0
ssg114
g52
sg116
I0
sg117
I0
sg124
I0
sg120
I0
sg94
g95
sg125
(dp2147
g137
I0
sg128
I0
sg129
I0
sg130
I0
sg135
I0
sg127
I0
sg133
I0
sg134
I0
sg131
I0
sg136
I0
sg132
I0
sg138
I0
sg139
I0
sg140
I0
sg141
I0
ssg164
(dp2148
sg143
I0
sg152
g52
sg153
I0
sg154
I0
sg155
I0
sg156
F8.631578947368421
sg157
I0
sg162
I0
sg118
(dp2149
g72
I0
sg73
I0
sg74
I0
sg75
I0
ssg201
I0
sg202
(dp2150
g127
I7
sg128
I11
sg129
I6
sg130
I9
sg135
I5
sg133
I3
sg132
I11
sg134
I7
sg131
I9
sg136
I7
sg137
I8
sg138
I9
sg139
I4
sg140
I10
sg141
I5
ssg219
I0
sg220
I0
sg221
I0
sg222
I0
sg223
I0
sg224
I0
sg163
I0
sg113
I0
sg225
I0
sg226
g52
sbsS's11'
p2151
(ijoueur
joueur
p2152
(dp2153
g46
I0
sg47
I0
sg48
I0
sg49
I0
sg90
I0
sg53
I0
sg56
g57
(g58
g59
Ntp2154
Rp2155
(dp2156
g64
g52
sbsg70
(dp2157
g72
I0
sg73
I0
sg74
I0
sg75
I0
ssg77
(dp2158
g72
I0
sg73
I0
sg74
I0
sg75
I0
ssg121
I0
sg80
g52
sg81
(dp2159
g175
I1
sg176
I1
sg177
g178
ssg87
I0
sg91
I0
sg92
I0
sg93
I0
sg158
g2139
sg96
I00
sg142
g57
(g58
g59
Ntp2160
Rp2161
(dp2162
g64
g52
sbsg97
I0
sg104
I00
sg105
(dp2163
g72
I0
sg73
I0
sg74
I0
sg75
I0
ssg107
(dp2164
g72
I0
sg73
I0
sg74
I0
sg75
I0
ssg109
I0
sg110
(lp2165
g181
aI01
aI00
aI00
asg98
(dp2166
g72
I0
sg73
I0
sg74
I0
sg75
I0
ssg114
g52
sg116
I0
sg117
I0
sg124
I0
sg120
I0
sg94
g95
sg125
(dp2167
g137
I0
sg128
I0
sg129
I0
sg130
I0
sg135
I0
sg127
I0
sg133
I0
sg134
I0
sg131
I0
sg136
I0
sg132
I0
sg138
I0
sg139
I0
sg140
I0
sg141
I0
ssg164
(dp2168
sg143
I0
sg152
g52
sg153
I0
sg154
I0
sg155
I0
sg156
F8.631578947368421
sg157
I0
sg162
I0
sg118
(dp2169
g72
I0
sg73
I0
sg74
I0
sg75
I0
ssg201
I0
sg202
g2150
sg219
I0
sg220
I0
sg221
I0
sg222
I0
sg223
I0
sg224
I0
sg163
I0
sg113
I0
sg225
I0
sg226
g52
sbssg201
I0
sg202
g2150
sg219
I0
sg220
I0
sg221
I0
sg222
I0
sg223
I2
sg224
I0
sg225
I0
sg226
g227
sbsS'n6'
p2170
g346
sS'n7'
p2171
(ijoueur
joueur
p2172
(dp2173
g46
I0
sg47
F3.0
sg48
I0
sg49
I0
sg50
F19.371235546393702
sg51
g52
sg53
I0
sg54
g52
sg55
I0
sg56
g57
(g58
g59
Ntp2174
Rp2175
(dp2176
g63
I2
sg64
S'<<'
p2177
sg66
S'special'
p2178
sbsg68
(dp2179
sg70
(dp2180
g1295
I0
sg1296
I0
sg1297
I0
sg1298
I0
ssg76
F7.7894736842105265
sg77
(dp2181
g1295
I0
sg1296
I0
sg1297
I0
sg1298
I0
ssg79
I10
sg80
g52
sg81
(dp2182
g1301
I1
sg1302
I8
sg1303
g1304
ssg87
I0
sg88
F19.371235546393702
sg89
I01
sg90
I2
sg91
I0
sg92
I0
sg93
I0
sg94
g1305
sg96
I00
sg97
F6.0
sg98
(dp2183
g1307
I0
sg1308
I0
sg1309
I2
sg1310
I0
ssg104
I00
sg105
(dp2184
g1307
I0
sg1308
I0
sg1309
I0
sg1310
I0
ssg107
(dp2185
g1295
I0
sg1296
I0
sg1297
I14
sg1298
I0
ssg109
I0
sg110
(lp2186
g1314
aI01
aI01
aI00
asg113
I0
sg114
S'Erkshyv'
p2187
sg116
I13
sg117
I0
sg118
(dp2188
g1307
I0
sg1308
I0
sg1309
I0
sg1310
I0
ssg120
I29
sg121
I2
sg122
I00
sg123
g52
sg124
I22
sg125
(dp2189
g1317
I6
sg1318
I8
sg1319
I6
sg1320
I9
sg1321
I4
sg1322
I4
sg1323
I9
sg1324
I7
sg1325
I10
sg1326
I6
sg1327
I8
sg1328
I9
sg1329
I4
sg1330
I11
sg1331
I4
ssg142
g2175
sg143
I2
sg152
g52
sg153
I0
sg154
I0
sg155
I0
sg156
F9.078947368421053
sg157
I0
sg158
(g1332
S'TL'
p2190
S'DL'
p2191
g52
tp2192
sg162
I4
sg163
I0
sg164
(dp2193
S's13'
p2194
(ijoueur
joueur
p2195
(dp2196
g46
I0
sg47
F2.0
sg48
I0
sg49
I0
sg90
I3
sg53
I0
sg56
g2175
sg70
(dp2197
g1342
I0
sg1343
I0
sg1344
I0
sg1345
I0
ssg77
g2181
sg80
g52
sg81
(dp2198
g1347
I1
sg1348
I1
sg1349
g1350
ssg87
I0
sg91
I1
sg92
I0
sg93
I0
sg158
g2192
sg96
I00
sg142
g57
(g58
g59
Ntp2199
Rp2200
(dp2201
g63
I1
sg64
S'^'
p2202
sg66
g1292
sbsg97
F6.0
sg104
I00
sg105
(dp2203
g1295
I0
sg1296
I0
sg1297
I0
sg1298
I0
ssg107
g2185
sg109
I0
sg110
(lp2204
g1353
aI01
aI01
aI00
asg98
(dp2205
g1295
I0
sg1296
I0
sg1297
I12
sg1298
I0
ssg94
g1305
sg114
S'Erkshyv (13)'
p2206
sg116
I13
sg117
I0
sg124
I22
sg120
I10
sg121
I0
sg125
(dp2207
g1356
I0
sg1357
I0
sg1358
I0
sg1359
I0
sg1360
I0
sg1361
I0
sg1362
I0
sg1363
I0
sg1364
I0
sg1365
I0
sg1366
I0
sg1367
I0
sg1368
I0
sg1369
I0
sg1370
I0
ssg164
(dp2208
sg143
I0
sg152
g52
sg153
I0
sg154
F6.0
sg155
I0
sg156
F7.7894736842105265
sg157
I0
sg162
I0
sg118
(dp2209
g1295
I0
sg1296
I0
sg1297
I0
sg1298
I0
ssg201
I0
sg202
(dp2210
g1374
I6
sg1375
I7
sg1376
I6
sg1377
I8
sg1378
I8
sg1379
I6
sg1380
I4
sg1381
I7
sg1382
I4
sg1383
I5
sg1384
I7
sg1385
I9
sg1386
I4
sg1387
I8
sg1388
I3
ssg219
I0
sg220
I0
sg221
I0
sg222
I0
sg223
I1
sg224
I0
sg163
I0
sg113
I0
sg225
I0
sg226
g1389
sbssg201
I1
sg202
(dp2211
g1317
I6
sg1318
I8
sg1319
I6
sg1320
I9
sg1325
I10
sg1323
I9
sg1322
I4
sg1324
I7
sg1321
I4
sg1326
I6
sg1327
I8
sg1328
I9
sg1329
I4
sg1330
I11
sg1331
I4
ssg219
I0
sg220
I0
sg221
I0
sg222
I0
sg223
I2
sg224
I1
sg225
I1
sg226
g1389
sbssS'remplacements'
p2212
(dp2213
g907
S'n0'
p2214
sg1158
g2214
sg1253
g2214
sg1285
g2214
sg1430
g2214
sg1530
g2214
sg1820
g2214
ssb.