(iclub
compo
p0
(dp1
S'caracs_old'
p2
(dp3
S'A'
p4
F106.5
sS'ME'
p5
F92.5
sS'E'
p6
I185
sS'OplusAV'
p7
F56.5
sS'TO_off'
p8
F90.0
sS'OplusAR'
p9
F65.5
sS'M'
p10
F52.5
sS'JP'
p11
F59.0
sS'OmoinsAR'
p12
F39.5
sS'PA'
p13
F74.5
sS'TO_def'
p14
F81.5
sS'OmoinsAV'
p15
F46.5
sS'R'
p16
F162.5
ssS'totaux_old'
p17
(dp18
S'T2'
p19
F120.0
sS'T3'
p20
F92.5
sS'T1'
p21
F170.375
ssS'roles'
p22
(dp23
S'drop1'
p24
(ijoueur
joueur
p25
(dp26
S'rouges_total'
p27
I0
sS'drops_total'
p28
I0
sS'blessure'
p29
I0
sS'RG_max'
p30
(ijoueur
rang
p31
(dp32
S'type_nb'
p33
I5
sS'rang'
p34
S'**'
p35
sS'type'
p36
S'seigneur'
p37
sbsS'MJ2_total'
p38
(dp39
S'SR'
p40
I0
sS'CT'
p41
I0
sS'CR'
p42
I0
sS'ST'
p43
I0
ssS'MJ3_total'
p44
(dp45
g40
I0
sg41
I0
sg42
I0
sg43
I0
ssS'drop_rates_total'
p46
I0
sS'drop_rates_saison'
p47
I0
sS'transformations'
p48
I0
sS'penalites'
p49
I2
sS'essais_saison'
p50
I0
sS'penalite_ratees_saison'
p51
I0
sS'transformations_saison'
p52
I0
sS'postes'
p53
(S'dummy'
p54
S'C1'
p55
S'DO'
p56
S''
p57
tp58
sS'RG'
p59
(ijoueur
rang
p60
(dp61
g33
I5
sg34
S'**'
p62
sg36
g37
sbsS'MJ1'
p63
(dp64
g40
I0
sg41
I1
sg42
I0
sg43
I0
ssS'MJ2'
p65
(dp66
g40
I0
sg41
I0
sg42
I0
sg43
I0
ssS'MJ3'
p67
(dp68
g40
I0
sg41
I0
sg42
I0
sg43
I0
ssS'MJ1_total'
p69
(dp70
g40
I0
sg41
I1
sg42
I0
sg43
I0
ssS'penalites_total'
p71
I2
sS'penalites_saison'
p72
I2
sS'nom'
p73
S'Von Rastak'
p74
sS'C'
p75
I7
sS'transformations_total'
p76
I0
sS'D'
p77
I19
sS'VAL'
p78
I216
sS'club'
p79
S'BSK'
p80
sS'caracs'
p81
(dp82
S'A'
p83
I10
sS'ME'
p84
I5
sS'RP2'
p85
I10
sS'E'
p86
I10
sS'P'
p87
I10
sS'RP1'
p88
I7
sS'JP'
p89
I9
sS'RP_tot'
p90
I10
sS'TO'
p91
I9
sS'PA'
p92
I12
sS'M'
p93
I11
sS'R'
p94
I11
sS'TB'
p95
I9
sS'PL'
p96
I10
sS'TA'
p97
I6
ssS'fatigue'
p98
I5
sS'drop_ratees_total'
p99
I0
sS'blessures_total'
p100
I0
sS'XP'
p101
I0
sS'EV'
p102
F10.366666666666667
sS'penalite_ratees_total'
p103
I1
sS'drops'
p104
I0
sS'blessures_saison'
p105
I0
sS'jaunes_total'
p106
I0
sS'caracs_sans_fatigue'
p107
g82
sS'rouges_saison'
p108
I0
sS'anciens_clubs'
p109
g57
sS'transformation_ratees_total'
p110
I1
sS'drops_saison'
p111
I0
sS'transformation_ratees_saison'
p112
I0
sS'MS'
p113
I40
sS'essais_total'
p114
I0
sS'jaunes_saison'
p115
I0
sS'ARM'
p116
S'CV'
p117
sbsS'SA_scd'
p118
(ijoueur
joueur
p119
(dp120
g27
I0
sg28
I0
sg29
I0
sg30
(ijoueur
rang
p121
(dp122
g33
I4
sg34
S'*'
p123
sg36
S'heros'
p124
sbsg38
(dp125
S'SR'
p126
I0
sS'ST'
p127
I0
sS'CR'
p128
I0
sS'CT'
p129
I0
ssg44
(dp130
g126
I0
sg127
I0
sg128
I0
sg129
I0
ssg46
I0
sg47
I0
sg48
I0
sg49
I0
sg50
I0
sg51
I0
sg52
I0
sg53
(g54
S'PI'
p131
S'DL'
p132
g57
tp133
sg59
(ijoueur
rang
p134
(dp135
g33
I4
sg34
S'*'
p136
sg36
g124
sbsg63
(dp137
g126
I0
sg127
I0
sg128
I0
sg129
I1
ssg65
(dp138
g126
I0
sg127
I0
sg128
I0
sg129
I0
ssg67
(dp139
g126
I0
sg127
I0
sg128
I0
sg129
I0
ssg69
(dp140
g126
I0
sg127
I0
sg128
I0
sg129
I1
ssg71
I0
sg72
I0
sg73
S'Jkebr'
p141
sg75
I4
sg76
I0
sg77
I16
sg78
I78
sg79
g80
sg81
(dp142
S'A'
p143
I7
sS'ME'
p144
I9
sS'RP2'
p145
I9
sS'E'
p146
I12
sS'TO'
p147
I10
sS'RP1'
p148
I11
sS'JP'
p149
I2
sS'RP_tot'
p150
I13
sS'P'
p151
I5
sS'PA'
p152
I7
sS'M'
p153
I7
sS'R'
p154
I11
sS'TB'
p155
I6
sS'PL'
p156
I9
sS'TA'
p157
I8
ssg98
I5
sg99
I0
sg100
I0
sg101
I0
sg102
F10.185185185185185
sg103
I0
sg104
I0
sg105
I0
sg106
I0
sg107
g142
sg108
I0
sg109
g57
sg110
I0
sg111
I0
sg112
I0
sg113
I12
sg114
I0
sg115
I0
sg116
S'O'
p158
sbsS'RJL'
p159
(ijoueur
joueur
p160
(dp161
g27
I0
sg28
I0
sg29
I0
sg30
(ijoueur
rang
p162
(dp163
g33
I5
sg34
S'xx'
p164
sg36
S'seigneur'
p165
sbsg38
(dp166
g126
I0
sg127
I0
sg128
I0
sg129
I0
ssg44
(dp167
g126
I0
sg127
I0
sg128
I0
sg129
I1
ssg46
I0
sg47
I0
sg48
I0
sg49
I0
sg50
I0
sg51
I0
sg52
I0
sg53
(g54
S'DO'
p168
S'CE'
p169
S'AI'
p170
tp171
sg59
(ijoueur
rang
p172
(dp173
g33
I3
sg34
S'<<<'
p174
sg36
S'rare'
p175
sbsg63
(dp176
g126
I0
sg127
I0
sg128
I0
sg129
I0
ssg65
(dp177
g126
I0
sg127
I0
sg128
I0
sg129
I0
ssg67
(dp178
g126
I0
sg127
I0
sg128
I0
sg129
I1
ssg69
(dp179
g126
I0
sg127
I0
sg128
I0
sg129
I0
ssg71
I0
sg72
I0
sg73
S'Brokleop'
p180
sg75
I9
sg76
I0
sg77
I22
sg78
I170
sg79
g80
sg81
(dp181
g143
I8
sg144
I8
sg145
I10
sg146
I11
sg147
I3
sg148
I12
sg149
I6
sg150
I15
sg151
I11
sg152
I9
sg153
I13
sg154
I9
sg155
I6
sg156
I7
sg157
I8
ssg98
I7
sg99
I0
sg100
I0
sg101
I0
sg102
F9.666666666666666
sg103
I0
sg104
I0
sg105
I0
sg106
I0
sg107
g181
sg108
I0
sg109
g57
sg110
I0
sg111
I0
sg112
I0
sg113
I14
sg114
I0
sg115
I0
sg116
S'HB'
p182
sbsS'cap'
p183
g119
sS'B4'
p184
g25
sS'RJC'
p185
g25
sS'B1'
p186
g25
sS'B2'
p187
g25
sS'B3'
p188
g25
sS'SA_pcp2'
p189
(ijoueur
joueur
p190
(dp191
g27
I0
sg28
I0
sg29
I0
sg30
(ijoueur
rang
p192
(dp193
g33
I5
sg34
S'**'
p194
sg36
g165
sbsg38
(dp195
g126
I0
sg127
I0
sg128
I0
sg129
I0
ssg44
(dp196
g126
I0
sg127
I0
sg128
I0
sg129
I0
ssg46
I0
sg47
I0
sg48
I0
sg49
I0
sg50
I0
sg51
I0
sg52
I0
sg53
(g54
S'TL'
p197
S'DL'
p198
g57
tp199
sg59
(ijoueur
rang
p200
(dp201
g33
I5
sg34
S'**'
p202
sg36
g165
sbsg63
(dp203
g126
I0
sg127
I0
sg128
I0
sg129
I1
ssg65
(dp204
g126
I0
sg127
I0
sg128
I0
sg129
I0
ssg67
(dp205
g126
I0
sg127
I0
sg128
I0
sg129
I0
ssg69
(dp206
g126
I0
sg127
I0
sg128
I0
sg129
I1
ssg71
I0
sg72
I0
sg73
S'Mahetyf'
p207
sg75
I4
sg76
I0
sg77
I16
sg78
I203
sg79
g80
sg81
(dp208
g143
I3
sg144
I10
sg145
I7
sg146
I11
sg147
I10
sg148
I11
sg149
I6
sg150
I11
sg151
I4
sg152
I7
sg153
I8
sg154
I2
sg155
I5
sg156
I8
sg157
I3
ssg98
I8
sg99
I0
sg100
I0
sg101
I0
sg102
F10.129032258064516
sg103
I0
sg104
I0
sg105
I0
sg106
I0
sg107
g208
sg108
I0
sg109
g57
sg110
I0
sg111
I0
sg112
I0
sg113
I18
sg114
I0
sg115
I0
sg116
S'O'
p209
sbsS'SA_pcp1'
p210
(ijoueur
joueur
p211
(dp212
g27
I0
sg28
I0
sg29
I0
sg30
(ijoueur
rang
p213
(dp214
g33
I4
sg34
S'*'
p215
sg36
g124
sbsg38
(dp216
g126
I0
sg127
I0
sg128
I0
sg129
I0
ssg44
(dp217
g126
I0
sg127
I0
sg128
I0
sg129
I0
ssg46
I0
sg47
I0
sg48
I0
sg49
I0
sg50
I0
sg51
I0
sg52
I0
sg53
(g54
S'DL'
p218
g57
g57
tp219
sg59
(ijoueur
rang
p220
(dp221
g33
I4
sg34
S'*'
p222
sg36
g124
sbsg63
(dp223
g126
I0
sg127
I0
sg128
I0
sg129
I1
ssg65
(dp224
g126
I0
sg127
I0
sg128
I0
sg129
I0
ssg67
(dp225
g126
I0
sg127
I0
sg128
I0
sg129
I0
ssg69
(dp226
g126
I0
sg127
I0
sg128
I0
sg129
I1
ssg71
I0
sg72
I0
sg73
S'Uprek'
p227
sg75
I9
sg76
I0
sg77
I20
sg78
I78
sg79
g80
sg81
(dp228
g143
I8
sg144
I10
sg145
I6
sg146
I8
sg147
I11
sg148
I10
sg149
I4
sg150
I10
sg151
I6
sg152
I7
sg153
I7
sg154
I10
sg155
I4
sg156
I8
sg157
I6
ssg98
I6
sg99
I0
sg100
I0
sg101
I0
sg102
F9.441176470588236
sg103
I0
sg104
I0
sg105
I0
sg106
I0
sg107
g228
sg108
I0
sg109
g57
sg110
I0
sg111
I0
sg112
I0
sg113
I14
sg114
I0
sg115
I0
sg116
S'O'
p229
sbsS'drop3'
p230
g25
sS'SA_remp1'
p231
(ijoueur
joueur
p232
(dp233
g27
I0
sg28
I0
sg29
I0
sg30
(ijoueur
rang
p234
(dp235
g33
I4
sg34
S'x'
p236
sg36
g124
sbsg38
(dp237
g126
I0
sg127
I0
sg128
I0
sg129
I0
ssg44
(dp238
g126
I0
sg127
I0
sg128
I0
sg129
I0
ssg46
I0
sg47
I0
sg48
I0
sg49
I0
sg50
I0
sg51
I0
sg52
I0
sg53
(g54
S'DL'
p239
g57
g57
tp240
sg59
(ijoueur
rang
p241
(dp242
g33
I2
sg34
S'^^'
p243
sg36
S'special'
p244
sbsg63
(dp245
g126
I0
sg127
I0
sg128
I1
sg129
I0
ssg65
(dp246
g126
I0
sg127
I0
sg128
I0
sg129
I0
ssg67
(dp247
g126
I0
sg127
I0
sg128
I0
sg129
I0
ssg69
(dp248
g126
I0
sg127
I0
sg128
I1
sg129
I0
ssg71
I0
sg72
I0
sg73
S'Cusqey'
p249
sg75
I11
sg76
I0
sg77
I22
sg78
I23
sg79
g80
sg81
(dp250
g143
I7
sg144
I9
sg145
I8
sg146
I9
sg147
I11
sg148
I7
sg149
I4
sg150
I8
sg151
I5
sg152
I6
sg153
I7
sg154
I8
sg155
I2
sg156
I8
sg157
I3
ssg98
I3
sg99
I0
sg100
I0
sg101
I0
sg102
F8.705882352941176
sg103
I0
sg104
I0
sg105
I0
sg106
I0
sg107
g250
sg108
I0
sg109
g57
sg110
I0
sg111
I0
sg112
I0
sg113
I2
sg114
I0
sg115
I0
sg116
S'O'
p251
sbsS'drop2'
p252
g25
sS'SA_remp2'
p253
(ijoueur
joueur
p254
(dp255
g27
I0
sg28
I0
sg29
I0
sg30
(ijoueur
rang
p256
(dp257
g33
I4
sg34
S'*'
p258
sg36
g124
sbsg38
(dp259
g126
I0
sg127
I0
sg128
I0
sg129
I0
ssg44
(dp260
g126
I0
sg127
I0
sg128
I0
sg129
I0
ssg46
I0
sg47
I0
sg48
I0
sg49
I0
sg50
I0
sg51
I0
sg52
I0
sg53
(g54
S'N8'
p261
S'TL'
p262
g57
tp263
sg59
(ijoueur
rang
p264
(dp265
g33
I4
sg34
S'*'
p266
sg36
g124
sbsg63
(dp267
g126
I0
sg127
I0
sg128
I0
sg129
I1
ssg65
(dp268
g126
I0
sg127
I0
sg128
I0
sg129
I0
ssg67
(dp269
g126
I0
sg127
I0
sg128
I0
sg129
I0
ssg69
(dp270
g126
I0
sg127
I0
sg128
I0
sg129
I1
ssg71
I0
sg72
I0
sg73
S'Joreid'
p271
sg75
I10
sg76
I0
sg77
I23
sg78
I163
sg79
g80
sg81
(dp272
g143
I8
sg144
I8
sg145
I9
sg146
I11
sg147
I9
sg148
I9
sg149
I4
sg150
I11
sg151
I4
sg152
I7
sg153
I7
sg154
I11
sg155
I3
sg156
I10
sg157
I6
ssg98
I6
sg99
I0
sg100
I0
sg101
I0
sg102
F9.931034482758621
sg103
I0
sg104
I0
sg105
I0
sg106
I0
sg107
g272
sg108
I0
sg109
g57
sg110
I0
sg111
I0
sg112
I0
sg113
I10
sg114
I0
sg115
I0
sg116
S'O'
p273
sbssS'totaux'
p274
(dp275
g19
I0
sg20
I0
sg21
I0
ssS'_compo_defaut_fatigue'
p276
Nsg81
(dp277
g4
I0
sg5
I0
sg6
I0
sg7
I0
sg8
I0
sg9
I0
sg10
I0
sg11
I0
sg12
I0
sg13
I0
sg14
I0
sg15
I0
sg16
I0
ssS'joueurs'
p278
(dp279
S'n12'
p280
g25
sS'n13'
p281
(ijoueur
joueur
p282
(dp283
g27
I0
sg28
I0
sg29
I0
sg30
(ijoueur
rang
p284
(dp285
g33
I5
sg34
S'**'
p286
sg36
g37
sbsg38
(dp287
g40
I0
sg41
I0
sg42
I0
sg43
I0
ssg44
(dp288
g40
I0
sg41
I0
sg42
I0
sg43
I0
ssg46
I0
sg47
I0
sg48
I0
sg49
I0
sg50
I0
sg51
I0
sg52
I0
sg53
(g54
S'AI'
p289
S'CE'
p290
g57
tp291
sg59
(ijoueur
rang
p292
(dp293
g33
I5
sg34
S'**'
p294
sg36
g37
sbsg63
(dp295
g40
I0
sg41
I1
sg42
I0
sg43
I0
ssg65
(dp296
g40
I0
sg41
I0
sg42
I0
sg43
I0
ssg67
(dp297
g40
I0
sg41
I0
sg42
I0
sg43
I0
ssg69
(dp298
g40
I0
sg41
I1
sg42
I0
sg43
I0
ssg71
I0
sg72
I0
sg73
S'Stuhill'
p299
sg75
I6
sg76
I0
sg77
I21
sg78
I311
sg79
g80
sg81
(dp300
g83
I9
sg84
I5
sg85
I7
sg86
I11
sg87
I7
sg88
I12
sg89
I6
sg90
I12
sg91
I7
sg92
I7
sg93
I10
sg94
I8
sg95
I6
sg96
I11
sg97
I5
ssg98
I5
sg99
I0
sg100
I0
sg101
I0
sg102
F9.870967741935484
sg103
I0
sg104
I0
sg105
I0
sg106
I0
sg107
g300
sg108
I0
sg109
g57
sg110
I0
sg111
I0
sg112
I0
sg113
I16
sg114
I0
sg115
I0
sg116
S'O'
p301
sbsS'n10'
p302
g160
sS'n11'
p303
(ijoueur
joueur
p304
(dp305
g27
I0
sg28
I0
sg29
I0
sg30
(ijoueur
rang
p306
(dp307
g33
I4
sg34
S'*'
p308
sg36
g124
sbsg38
(dp309
g126
I0
sg127
I0
sg128
I0
sg129
I0
ssg44
(dp310
g126
I0
sg127
I0
sg128
I0
sg129
I0
ssg46
I0
sg47
I0
sg48
I0
sg49
I0
sg50
I0
sg51
I0
sg52
I0
sg53
(g54
S'C2'
p311
S'AI'
p312
g57
tp313
sg59
(ijoueur
rang
p314
(dp315
g33
I4
sg34
S'*'
p316
sg36
g124
sbsg63
(dp317
g126
I0
sg127
I0
sg128
I0
sg129
I1
ssg65
(dp318
g126
I0
sg127
I0
sg128
I0
sg129
I0
ssg67
(dp319
g126
I0
sg127
I0
sg128
I0
sg129
I0
ssg69
(dp320
g126
I0
sg127
I0
sg128
I0
sg129
I1
ssg71
I0
sg72
I0
sg73
S'Qayod'
p321
sg75
I9
sg76
I0
sg77
I20
sg78
I104
sg79
g80
sg81
(dp322
g143
I9
sg144
I4
sg145
I9
sg146
I9
sg147
I4
sg148
I12
sg149
I6
sg150
I14
sg151
I8
sg152
I8
sg153
I9
sg154
I9
sg155
I7
sg156
I9
sg157
I4
ssg98
I4
sg99
I0
sg100
I0
sg101
I0
sg102
F9.586206896551724
sg103
I0
sg104
I0
sg105
I0
sg106
I0
sg107
g322
sg108
I0
sg109
g57
sg110
I0
sg111
I0
sg112
I0
sg113
I12
sg114
I0
sg115
I0
sg116
S'O'
p323
sbsS'n16'
p324
(ijoueur
joueur
p325
(dp326
g27
I0
sg28
I0
sg29
I0
sg30
(ijoueur
rang
p327
(dp328
g33
I2
sg34
S'^^'
p329
sg36
g244
sbsg38
(dp330
g126
I0
sg127
I0
sg128
I0
sg129
I0
ssg44
(dp331
g126
I0
sg127
I0
sg128
I0
sg129
I0
ssg46
I0
sg47
I0
sg48
I0
sg49
I0
sg50
I0
sg51
I0
sg52
I0
sg53
(g54
S'TA'
p332
g57
g57
tp333
sg59
(ijoueur
rang
p334
(dp335
g33
I2
sg34
S'^^'
p336
sg36
g244
sbsg63
(dp337
g126
I0
sg127
I0
sg128
I1
sg129
I0
ssg65
(dp338
g126
I0
sg127
I0
sg128
I0
sg129
I0
ssg67
(dp339
g126
I0
sg127
I0
sg128
I0
sg129
I0
ssg69
(dp340
g126
I0
sg127
I0
sg128
I1
sg129
I0
ssg71
I0
sg72
I0
sg73
S'Zwig'
p341
sg75
I9
sg76
I0
sg77
I21
sg78
I17
sg79
g80
sg81
(dp342
g143
I8
sg144
I8
sg145
I6
sg146
I11
sg147
I4
sg148
I8
sg149
I5
sg150
I8
sg151
I3
sg152
I6
sg153
I7
sg154
I8
sg155
I0
sg156
I8
sg157
I10
ssg98
I5
sg99
I0
sg100
I0
sg101
I0
sg102
F8.586206896551724
sg103
I0
sg104
I0
sg105
I0
sg106
I0
sg107
g342
sg108
I0
sg109
g57
sg110
I0
sg111
I0
sg112
I0
sg113
I2
sg114
I0
sg115
I0
sg116
S'O'
p343
sbsS'n17'
p344
(ijoueur
joueur
p345
(dp346
g27
I0
sg28
I0
sg29
I0
sg30
(ijoueur
rang
p347
(dp348
g33
I1
sg34
S'^'
p349
sg36
S'base'
p350
sbsg38
(dp351
g126
I0
sg127
I0
sg128
I0
sg129
I0
ssg44
(dp352
g126
I0
sg127
I0
sg128
I0
sg129
I0
ssg46
I0
sg47
I0
sg48
I0
sg49
I0
sg50
I0
sg51
I0
sg52
I0
sg53
(g54
S'PI'
p353
g57
g57
tp354
sg59
(ijoueur
rang
p355
(dp356
g33
I1
sg34
S'^'
p357
sg36
g350
sbsg63
(dp358
g126
I0
sg127
I0
sg128
I0
sg129
I0
ssg65
(dp359
g126
I0
sg127
I0
sg128
I0
sg129
I0
ssg67
(dp360
g126
I0
sg127
I0
sg128
I0
sg129
I0
ssg69
(dp361
g126
I0
sg127
I0
sg128
I0
sg129
I0
ssg71
I0
sg72
I0
sg73
S'Jether'
p362
sg75
I8
sg76
I0
sg77
I18
sg78
I10
sg79
g80
sg81
(dp363
g143
I8
sg144
I8
sg145
I6
sg146
I8
sg147
I5
sg148
I9
sg149
I3
sg150
I9
sg151
I4
sg152
I7
sg153
I9
sg154
I9
sg155
I3
sg156
I10
sg157
I5
ssg98
I0
sg99
I0
sg100
I0
sg101
I0
sg102
F8.666666666666666
sg103
I0
sg104
I0
sg105
I0
sg106
I0
sg107
g363
sg108
I0
sg109
g57
sg110
I0
sg111
I0
sg112
I0
sg113
I1
sg114
I0
sg115
I0
sg116
S'EMP'
p364
sbsS'n14'
p365
(ijoueur
joueur
p366
(dp367
g27
I0
sg28
I0
sg29
I0
sg30
(ijoueur
rang
p368
(dp369
g33
I2
sg34
S'^^'
p370
sg36
S'special'
p371
sbsg38
(dp372
g40
I0
sg41
I0
sg42
I0
sg43
I0
ssg44
(dp373
g40
I0
sg41
I0
sg42
I0
sg43
I0
ssg46
I0
sg47
I0
sg48
I0
sg49
I0
sg50
I0
sg51
I0
sg52
I0
sg53
(g54
S'AI'
p374
g57
g57
tp375
sg59
(ijoueur
rang
p376
(dp377
g33
I2
sg34
S'^^'
p378
sg36
g371
sbsg63
(dp379
g40
I0
sg41
I0
sg42
I1
sg43
I0
ssg65
(dp380
g40
I0
sg41
I0
sg42
I0
sg43
I0
ssg67
(dp381
g40
I0
sg41
I0
sg42
I0
sg43
I0
ssg69
(dp382
g40
I0
sg41
I0
sg42
I1
sg43
I0
ssg71
I0
sg72
I0
sg73
S'Femeal'
p383
sg75
I3
sg76
I0
sg77
I12
sg78
I48
sg79
g80
sg81
(dp384
g83
I11
sg84
I4
sg85
I8
sg86
I9
sg87
I9
sg88
I6
sg89
I5
sg90
I8
sg91
I6
sg92
I8
sg93
I12
sg94
I6
sg95
I6
sg96
I8
sg97
I4
ssg98
I6
sg99
I0
sg100
I0
sg101
I0
sg102
F9.225806451612904
sg103
I0
sg104
I0
sg105
I0
sg106
I0
sg107
g384
sg108
I0
sg109
g57
sg110
I0
sg111
I0
sg112
I0
sg113
I6
sg114
I0
sg115
I0
sg116
S'B'
p385
sbsS'n15'
p386
(ijoueur
joueur
p387
(dp388
g27
I0
sg28
I0
sg29
I0
sg30
(ijoueur
rang
p389
(dp390
g33
I2
sg34
S'^^'
p391
sg36
g371
sbsg38
(dp392
g40
I0
sg41
I0
sg42
I0
sg43
I0
ssg44
(dp393
g40
I0
sg41
I0
sg42
I0
sg43
I0
ssg46
I0
sg47
I0
sg48
I0
sg49
I0
sg50
I0
sg51
I0
sg52
I0
sg53
(g54
S'AR'
p394
S'CE'
p395
g57
tp396
sg59
(ijoueur
rang
p397
(dp398
g33
I2
sg34
S'^^'
p399
sg36
g371
sbsg63
(dp400
g40
I0
sg41
I1
sg42
I0
sg43
I0
ssg65
(dp401
g40
I0
sg41
I0
sg42
I0
sg43
I0
ssg67
(dp402
g40
I0
sg41
I0
sg42
I0
sg43
I0
ssg69
(dp403
g40
I0
sg41
I1
sg42
I0
sg43
I0
ssg71
I0
sg72
I0
sg73
S'Keprat'
p404
sg75
I9
sg76
I0
sg77
I20
sg78
I21
sg79
g80
sg81
(dp405
g83
I9
sg84
I5
sg85
I8
sg86
I8
sg87
I7
sg88
I6
sg89
I7
sg90
I8
sg91
I5
sg92
I8
sg93
I10
sg94
I4
sg95
I6
sg96
I11
sg97
I4
ssg98
I5
sg99
I0
sg100
I0
sg101
I0
sg102
F8.727272727272727
sg103
I0
sg104
I0
sg105
I0
sg106
I0
sg107
g405
sg108
I0
sg109
g57
sg110
I0
sg111
I0
sg112
I0
sg113
I2
sg114
I0
sg115
I0
sg116
S'O'
p406
sbsS'n18'
p407
g232
sS'n19'
p408
(ijoueur
joueur
p409
(dp410
g27
I0
sg28
I0
sg29
I0
sg30
(ijoueur
rang
p411
(dp412
g33
I5
sg34
S'xx'
p413
sg36
g165
sbsg38
(dp414
g126
I0
sg127
I0
sg128
I0
sg129
I0
ssg44
(dp415
g126
I0
sg127
I0
sg128
I0
sg129
I0
ssg46
I0
sg47
I0
sg48
I0
sg49
I0
sg50
I0
sg51
I0
sg52
I0
sg53
(g54
S'TL'
p416
g57
g57
tp417
sg59
(ijoueur
rang
p418
(dp419
g33
I2
sg34
S'^^'
p420
sg36
g244
sbsg63
(dp421
g126
I0
sg127
I0
sg128
I1
sg129
I0
ssg65
(dp422
g126
I0
sg127
I0
sg128
I0
sg129
I0
ssg67
(dp423
g126
I0
sg127
I0
sg128
I0
sg129
I0
ssg69
(dp424
g126
I0
sg127
I0
sg128
I1
sg129
I0
ssg71
I0
sg72
I0
sg73
S'Lemdec'
p425
sg75
I11
sg76
I0
sg77
I21
sg78
I12
sg79
g80
sg81
(dp426
g143
I6
sg144
I8
sg145
I6
sg146
I10
sg147
I7
sg148
I8
sg149
I4
sg150
I8
sg151
I5
sg152
I6
sg153
I10
sg154
I7
sg155
I1
sg156
I11
sg157
I6
ssg98
I4
sg99
I0
sg100
I0
sg101
I0
sg102
F8.419354838709678
sg103
I0
sg104
I0
sg105
I0
sg106
I0
sg107
g426
sg108
I0
sg109
g57
sg110
I0
sg111
I0
sg112
I0
sg113
I2
sg114
I0
sg115
I0
sg116
S'O'
p427
sbsS'n22'
p428
(ijoueur
joueur
p429
(dp430
g27
I0
sg28
I0
sg29
I0
sg30
(ijoueur
rang
p431
(dp432
g33
I1
sg34
S'>'
p433
sg36
S'base'
p434
sbsg38
(dp435
g40
I0
sg41
I0
sg42
I0
sg43
I0
ssg44
(dp436
g40
I0
sg41
I0
sg42
I0
sg43
I0
ssg46
I0
sg47
I0
sg48
I0
sg49
I0
sg50
I0
sg51
I0
sg52
I0
sg53
(g54
S'AI'
p437
g57
g57
tp438
sg59
(ijoueur
rang
p439
(dp440
g33
I1
sg34
S'>'
p441
sg36
g434
sbsg63
(dp442
g40
I0
sg41
I0
sg42
I0
sg43
I0
ssg65
(dp443
g40
I0
sg41
I0
sg42
I0
sg43
I0
ssg67
(dp444
g40
I0
sg41
I0
sg42
I0
sg43
I0
ssg69
(dp445
g40
I0
sg41
I0
sg42
I0
sg43
I0
ssg71
I0
sg72
I0
sg73
S'Nerott'
p446
sg75
I3
sg76
I0
sg77
I15
sg78
I15
sg79
g80
sg81
(dp447
g83
I8
sg84
I3
sg85
I7
sg86
I8
sg87
I6
sg88
I9
sg89
I5
sg90
I9
sg91
I4
sg92
I9
sg93
I9
sg94
I8
sg95
I5
sg96
I7
sg97
I4
ssg98
I0
sg99
I0
sg100
I0
sg101
I0
sg102
F8.161290322580646
sg103
I0
sg104
I0
sg105
I0
sg106
I0
sg107
g447
sg108
I0
sg109
g57
sg110
I0
sg111
I0
sg112
I0
sg113
I2
sg114
I0
sg115
I0
sg116
S'O'
p448
sbsS'n21'
p449
(ijoueur
joueur
p450
(dp451
g27
I0
sg28
I0
sg29
I0
sg30
(ijoueur
rang
p452
(dp453
g33
I2
sg34
S'^^'
p454
sg36
g244
sbsg38
(dp455
g126
I0
sg127
I0
sg128
I0
sg129
I0
ssg44
(dp456
g126
I0
sg127
I0
sg128
I0
sg129
I0
ssg46
I0
sg47
I0
sg48
I0
sg49
I0
sg50
I0
sg51
I0
sg52
I0
sg53
(g54
S'C1'
p457
g57
g57
tp458
sg59
(ijoueur
rang
p459
(dp460
g33
I2
sg34
S'^^'
p461
sg36
g244
sbsg63
(dp462
g126
I0
sg127
I0
sg128
I1
sg129
I0
ssg65
(dp463
g126
I0
sg127
I0
sg128
I0
sg129
I0
ssg67
(dp464
g126
I0
sg127
I0
sg128
I0
sg129
I0
ssg69
(dp465
g126
I0
sg127
I0
sg128
I1
sg129
I0
ssg71
I0
sg72
I0
sg73
S'Kropeg'
p466
sg75
I10
sg76
I0
sg77
I18
sg78
I16
sg79
g80
sg81
(dp467
g143
I9
sg144
I4
sg145
I5
sg146
I10
sg147
I2
sg148
I8
sg149
I6
sg150
I8
sg151
I9
sg152
I9
sg153
I8
sg154
I8
sg155
I6
sg156
I7
sg157
I5
ssg98
I3
sg99
I0
sg100
I0
sg101
I0
sg102
F8.3
sg103
I0
sg104
I0
sg105
I0
sg106
I0
sg107
g467
sg108
I0
sg109
g57
sg110
I0
sg111
I0
sg112
I0
sg113
I1
sg114
I0
sg115
I0
sg116
S'O'
p468
sbsS'n20'
p469
(ijoueur
joueur
p470
(dp471
g27
I0
sg28
I0
sg29
I0
sg30
(ijoueur
rang
p472
(dp473
g33
I5
sg34
S'**'
p474
sg36
g165
sbsg38
(dp475
g126
I0
sg127
I0
sg128
I0
sg129
I0
ssg44
(dp476
g126
I0
sg127
I0
sg128
I0
sg129
I0
ssg46
I0
sg47
I0
sg48
I0
sg49
I0
sg50
I0
sg51
I0
sg52
I0
sg53
(g54
S'DM'
p477
g57
g57
tp478
sg59
(ijoueur
rang
p479
(dp480
g33
I2
sg34
S'^^'
p481
sg36
g244
sbsg63
(dp482
g126
I0
sg127
I0
sg128
I1
sg129
I0
ssg65
(dp483
g126
I0
sg127
I0
sg128
I0
sg129
I0
ssg67
(dp484
g126
I0
sg127
I0
sg128
I0
sg129
I0
ssg69
(dp485
g126
I0
sg127
I0
sg128
I1
sg129
I0
ssg71
I0
sg72
I0
sg73
S'Pritess'
p486
sg75
I10
sg76
I0
sg77
I20
sg78
I23
sg79
g80
sg81
(dp487
g143
I7
sg144
I4
sg145
I9
sg146
I9
sg147
I5
sg148
I6
sg149
I6
sg150
I9
sg151
I7
sg152
I10
sg153
I8
sg154
I9
sg155
I6
sg156
I8
sg157
I4
ssg98
I3
sg99
I0
sg100
I0
sg101
I0
sg102
F8.275862068965518
sg103
I0
sg104
I0
sg105
I0
sg106
I0
sg107
g487
sg108
I0
sg109
g57
sg110
I0
sg111
I0
sg112
I0
sg113
I1
sg114
I0
sg115
I0
sg116
S'O'
p488
sbsS'n8'
p489
g254
sS'n9'
p490
(ijoueur
joueur
p491
(dp492
g27
I0
sg28
I0
sg29
I0
sg30
(ijoueur
rang
p493
(dp494
g33
I4
sg34
S'*'
p495
sg36
g124
sbsg38
(dp496
g126
I0
sg127
I0
sg128
I0
sg129
I0
ssg44
(dp497
g126
I0
sg127
I0
sg128
I0
sg129
I0
ssg46
I0
sg47
I0
sg48
I0
sg49
I0
sg50
I0
sg51
I0
sg52
I0
sg53
(g54
S'DM'
p498
g57
g57
tp499
sg59
(ijoueur
rang
p500
(dp501
g33
I4
sg34
S'*'
p502
sg36
g124
sbsg63
(dp503
g126
I0
sg127
I0
sg128
I0
sg129
I1
ssg65
(dp504
g126
I0
sg127
I0
sg128
I0
sg129
I0
ssg67
(dp505
g126
I0
sg127
I0
sg128
I0
sg129
I0
ssg69
(dp506
g126
I0
sg127
I0
sg128
I0
sg129
I1
ssg71
I0
sg72
I0
sg73
S'Drudred'
p507
sg75
I9
sg76
I0
sg77
I19
sg78
I117
sg79
g80
sg81
(dp508
g143
I11
sg144
I6
sg145
I8
sg146
I10
sg147
I3
sg148
I7
sg149
I7
sg150
I8
sg151
I8
sg152
I10
sg153
I10
sg154
I8
sg155
I6
sg156
I8
sg157
I4
ssg98
I5
sg99
I0
sg100
I0
sg101
I0
sg102
F9.10344827586207
sg103
I0
sg104
I0
sg105
I0
sg106
I0
sg107
g508
sg108
I0
sg109
g57
sg110
I0
sg111
I0
sg112
I0
sg113
I14
sg114
I0
sg115
I0
sg116
S'O'
p509
sbsS'n1'
p510
g119
sS'n2'
p511
(ijoueur
joueur
p512
(dp513
g27
I0
sg28
I0
sg29
I0
sg30
(ijoueur
rang
p514
(dp515
g33
I5
sg34
S'xx'
p516
sg36
g165
sbsg38
(dp517
g126
I0
sg127
I0
sg128
I0
sg129
I0
ssg44
(dp518
g126
I0
sg127
I0
sg128
I0
sg129
I0
ssg46
I0
sg47
I0
sg48
I0
sg49
I0
sg50
I0
sg51
I0
sg52
I0
sg53
(g54
S'TA'
p519
S'PI'
p520
g57
tp521
sg59
(ijoueur
rang
p522
(dp523
g33
I5
sg34
S'xx'
p524
sg36
g165
sbsg63
(dp525
g126
I0
sg127
I0
sg128
I0
sg129
I1
ssg65
(dp526
g126
I0
sg127
I0
sg128
I0
sg129
I0
ssg67
(dp527
g126
I0
sg127
I0
sg128
I0
sg129
I0
ssg69
(dp528
g126
I0
sg127
I0
sg128
I0
sg129
I1
ssg71
I0
sg72
I0
sg73
S'Herkor'
p529
sg75
I8
sg76
I0
sg77
I20
sg78
I288
sg79
g80
sg81
(dp530
g143
I8
sg144
I10
sg145
I7
sg146
I9
sg147
I4
sg148
I10
sg149
I5
sg150
I10
sg151
I5
sg152
I7
sg153
I9
sg154
I9
sg155
I4
sg156
I9
sg157
I11
ssg98
I7
sg99
I0
sg100
I0
sg101
I0
sg102
F9.379310344827585
sg103
I0
sg104
I0
sg105
I0
sg106
I0
sg107
g530
sg108
I0
sg109
g57
sg110
I0
sg111
I0
sg112
I0
sg113
I14
sg114
I0
sg115
I0
sg116
S'O'
p531
sbsS'n3'
p532
(ijoueur
joueur
p533
(dp534
g27
I0
sg28
I0
sg29
I0
sg30
(ijoueur
rang
p535
(dp536
g33
I5
sg34
S'xx'
p537
sg36
g165
sbsg38
(dp538
g126
I0
sg127
I0
sg128
I0
sg129
I1
ssg44
(dp539
g126
I0
sg127
I0
sg128
I0
sg129
I0
ssg46
I0
sg47
I0
sg48
I0
sg49
I0
sg50
I0
sg51
I0
sg52
I0
sg53
(g54
S'TA'
p540
S'PI'
p541
g57
tp542
sg59
(ijoueur
rang
p543
(dp544
g33
I5
sg34
S'xx'
p545
sg36
g165
sbsg63
(dp546
g126
I0
sg127
I0
sg128
I0
sg129
I0
ssg65
(dp547
g126
I0
sg127
I0
sg128
I0
sg129
I1
ssg67
(dp548
g126
I0
sg127
I0
sg128
I0
sg129
I0
ssg69
(dp549
g126
I0
sg127
I0
sg128
I0
sg129
I0
ssg71
I0
sg72
I0
sg73
S'Qerred'
p550
sg75
I6
sg76
I0
sg77
I17
sg78
I184
sg79
g80
sg81
(dp551
g143
I7
sg144
I13
sg145
I6
sg146
I11
sg147
I5
sg148
I11
sg149
I4
sg150
I11
sg151
I6
sg152
I7
sg153
I7
sg154
I10
sg155
I6
sg156
I11
sg157
I9
ssg98
I4
sg99
I0
sg100
I0
sg101
I0
sg102
F10.172413793103448
sg103
I0
sg104
I0
sg105
I0
sg106
I0
sg107
g551
sg108
I0
sg109
g57
sg110
I0
sg111
I0
sg112
I0
sg113
I16
sg114
I0
sg115
I0
sg116
S'O'
p552
sbsS'n4'
p553
g211
sS'n5'
p554
(ijoueur
joueur
p555
(dp556
g27
I0
sg28
I0
sg29
I0
sg30
(ijoueur
rang
p557
(dp558
g33
I4
sg34
S'x'
p559
sg36
S'heros'
p560
sbsg38
(dp561
g126
I0
sg127
I0
sg128
I0
sg129
I0
ssg44
(dp562
g126
I0
sg127
I0
sg128
I0
sg129
I0
ssg46
I0
sg47
I0
sg48
I0
sg49
I0
sg50
I0
sg51
I0
sg52
I0
sg53
(g54
S'DL'
p563
g57
g57
tp564
sg59
(ijoueur
rang
p565
(dp566
g33
I4
sg34
S'x'
p567
sg36
g124
sbsg63
(dp568
g126
I0
sg127
I0
sg128
I0
sg129
I1
ssg65
(dp569
g126
I0
sg127
I0
sg128
I0
sg129
I0
ssg67
(dp570
g126
I0
sg127
I0
sg128
I0
sg129
I0
ssg69
(dp571
g126
I0
sg127
I0
sg128
I0
sg129
I1
ssg71
I0
sg72
I0
sg73
S'Moblak'
p572
sg75
I7
sg76
I0
sg77
I18
sg78
I168
sg79
g80
sg81
(dp573
g143
I8
sg144
I10
sg145
I7
sg146
I10
sg147
I9
sg148
I9
sg149
I3
sg150
I9
sg151
I6
sg152
I9
sg153
I7
sg154
I11
sg155
I3
sg156
I9
sg157
I6
ssg98
I6
sg99
I0
sg100
I0
sg101
I0
sg102
F9.666666666666666
sg103
I0
sg104
I0
sg105
I0
sg106
I0
sg107
g573
sg108
I0
sg109
g57
sg110
I0
sg111
I0
sg112
I0
sg113
I10
sg114
I0
sg115
I0
sg116
S'O'
p574
sbsS'n6'
p575
g190
sS'n7'
p576
(ijoueur
joueur
p577
(dp578
g27
I0
sg28
I0
sg29
I0
sg30
(ijoueur
rang
p579
(dp580
g33
I1
sg34
S'^'
p581
sg36
g350
sbsg38
(dp582
g126
I0
sg127
I0
sg128
I0
sg129
I1
ssg44
(dp583
g126
I0
sg127
I0
sg128
I0
sg129
I0
ssg46
I0
sg47
I0
sg48
I0
sg49
I0
sg50
I0
sg51
I0
sg52
I0
sg53
(g54
S'N8'
p584
S'TL'
p585
g57
tp586
sg59
(ijoueur
rang
p587
(dp588
g33
I1
sg34
S'^'
p589
sg36
g350
sbsg63
(dp590
g126
I0
sg127
I0
sg128
I0
sg129
I0
ssg65
(dp591
g126
I0
sg127
I0
sg128
I0
sg129
I1
ssg67
(dp592
g126
I0
sg127
I0
sg128
I0
sg129
I0
ssg69
(dp593
g126
I0
sg127
I0
sg128
I0
sg129
I0
ssg71
I0
sg72
I0
sg73
S'Denpett'
p594
sg75
I8
sg76
I0
sg77
I20
sg78
I11
sg79
g80
sg81
(dp595
g143
I7
sg144
I9
sg145
I6
sg146
I9
sg147
I8
sg148
I6
sg149
I4
sg150
I6
sg151
I5
sg152
I7
sg153
I7
sg154
I10
sg155
I2
sg156
I10
sg157
I4
ssg98
I6
sg99
I0
sg100
I0
sg101
I0
sg102
F8.551724137931034
sg103
I0
sg104
I0
sg105
I0
sg106
I0
sg107
g595
sg108
I0
sg109
g57
sg110
I0
sg111
I0
sg112
I0
sg113
I1
sg114
I0
sg115
I0
sg116
S'O'
p596
sbssS'remplacements'
p597
(dp598
g324
S'n0'
p599
sg344
g599
sg407
g599
sg408
g599
sg428
g599
sg449
g599
sg469
g599
ssb.