(iclub
compo
p0
(dp1
S'caracs_old'
p2
(dp3
S'A'
p4
F172.0
sS'ME'
p5
F93.5
sS'E'
p6
I173
sS'OplusAV'
p7
F71.5
sS'OplusAR'
p8
F72.5
sS'JP'
p9
F89.0
sS'PA'
p10
F113.5
sS'M'
p11
F48.0
sS'OmoinsAR'
p12
F61.5
sS'TO_off'
p13
F114.5
sS'TO_def'
p14
F107.0
sS'OmoinsAV'
p15
F91.0
sS'R'
p16
F166.5
ssS'totaux_old'
p17
(dp18
S'T2'
p19
F187.25
sS'T3'
p20
F86.5
sS'T1'
p21
F185.375
ssS'roles'
p22
(dp23
S'SA_scd'
p24
(ijoueur
joueur
p25
(dp26
S'EV_saison_11'
p27
F9.0
sS'rouges_total'
p28
I1
sS'drops_total'
p29
I0
sS'blessure'
p30
I0
sS'RG_max'
p31
ccopy_reg
_reconstructor
p32
(cjoueur
rang_new
p33
c__builtin__
object
p34
Ntp35
Rp36
(dp37
S'type_nb'
p38
I2
sS'rang'
p39
S'^^'
p40
sS'type'
p41
S'special'
p42
sbsS'MJ2_total'
p43
(dp44
S'SR'
p45
I0
sS'CT'
p46
I8
sS'CR'
p47
I2
sS'ST'
p48
I0
ssS'MJ3_total'
p49
(dp50
g45
I0
sg46
I0
sg47
I0
sg48
I0
ssS'drop_rates_total'
p51
I0
sS'EV'
p52
F10.5
sS'drop_rates_saison'
p53
I0
sS'transformations'
p54
I0
sS'penalites'
p55
I0
sS'essais_saison'
p56
I1
sS'penalite_ratees_saison'
p57
I0
sS'transformations_saison'
p58
I0
sS'postes'
p59
(S'dummy'
p60
S'DL'
p61
S'N8'
p62
S''
p63
tp64
sS'veut_partir'
p65
I00
sS'RG'
p66
g32
(g33
g34
Ntp67
Rp68
(dp69
g38
I4
sg39
S'*'
p70
sg41
S'heros'
p71
sbsS'MJ1'
p72
(dp73
S'SR'
p74
I0
sS'ST'
p75
I0
sS'CR'
p76
I0
sS'CT'
p77
I0
ssS'MS_probleme'
p78
I01
sS'MJ3'
p79
(dp80
g74
I0
sg75
I0
sg76
I0
sg77
I0
ssS'MJ1_total'
p81
(dp82
g45
I0
sg46
I4
sg47
I2
sg48
I0
ssS'penalites_total'
p83
I0
sS'penalites_saison'
p84
I0
sS'nom'
p85
S'Mapedt'
p86
sS'C'
p87
I7
sS'transformations_total'
p88
I0
sS'D'
p89
I16
sS'VAL'
p90
I50
sS'club'
p91
S'PRG'
p92
sS'caracs'
p93
(dp94
S'A'
p95
I7
sS'ME'
p96
I7
sS'RP2'
p97
I11
sS'E'
p98
I9
sS'TO'
p99
I11
sS'RP1'
p100
I11
sS'JP'
p101
I4
sS'RP_tot'
p102
I15
sS'P'
p103
I3
sS'PA'
p104
I9
sS'M'
p105
I7
sS'R'
p106
I10
sS'TB'
p107
I5
sS'PL'
p108
I14
sS'TA'
p109
I6
ssS'fatigue'
p110
I4
sS'drop_ratees_total'
p111
I0
sS'blessures_total'
p112
I0
sS'XP'
p113
I0
sS'MJ2'
p114
(dp115
g74
I0
sg75
I0
sg76
I0
sg77
I8
ssS'penalite_ratees_total'
p116
I0
sS'drops'
p117
I0
sS'blessures_saison'
p118
I0
sS'jaunes_total'
p119
I0
sS'caracs_saison_11'
p120
(dp121
S'A'
p122
I5
sS'ME'
p123
I6
sS'RP2'
p124
I9
sS'E'
p125
I9
sS'TO'
p126
I9
sS'RP1'
p127
I9
sS'JP'
p128
I3
sS'RP_tot'
p129
I11
sS'P'
p130
I2
sS'PA'
p131
I7
sS'M'
p132
I7
sS'R'
p133
I7
sS'TB'
p134
I4
sS'PL'
p135
I12
sS'TA'
p136
I5
ssS'caracs_sans_fatigue'
p137
(dp138
g95
I7
sg96
I7
sg97
I11
sg98
I9
sg103
I3
sg100
I11
sg101
I4
sg102
I15
sg99
I11
sg104
I9
sg105
I7
sg106
I10
sg107
I5
sg108
I14
sg109
I6
ssS'rouges_saison'
p139
I0
sS'anciens_clubs'
p140
g63
sS'transformation_ratees_total'
p141
I0
sS'drops_saison'
p142
I0
sS'transformation_ratees_saison'
p143
I0
sS'MS'
p144
I5
sS'essais_total'
p145
I1
sS'jaunes_saison'
p146
I0
sS'ARM'
p147
S'EMP'
p148
sbsS'drop3'
p149
(ijoueur
joueur
p150
(dp151
g27
F11.1
sg28
I0
sg29
I11
sg30
I0
sg31
g32
(g33
g34
Ntp152
Rp153
(dp154
g38
I4
sg39
S'*'
p155
sg41
S'heros'
p156
sbsg43
(dp157
S'SR'
p158
I0
sS'ST'
p159
I0
sS'CR'
p160
I0
sS'CT'
p161
I9
ssg49
(dp162
g158
I0
sg159
I0
sg160
I0
sg161
I0
ssg140
S'AL 12'
p163
sg53
I0
sg78
I00
sg56
I0
sg57
I1
sg58
I1
sg59
(S'dummy'
p164
S'C1'
p165
S'DO'
p166
g63
tp167
sg65
I00
sg66
g32
(g33
g34
Ntp168
Rp169
(dp170
g38
I4
sg39
S'*'
p171
sg41
g156
sbsg72
(dp172
g74
I0
sg75
I0
sg76
I0
sg77
I0
ssg114
(dp173
g74
I0
sg75
I0
sg76
I0
sg77
I8
ssg79
(dp174
g74
I0
sg75
I0
sg76
I0
sg77
I0
ssg81
(dp175
g158
I0
sg159
I0
sg160
I0
sg161
I13
ssg83
I40
sg84
I15
sg85
S'Jtaren'
p176
sg87
I8
sg88
I22
sg89
I17
sg90
I100
sg91
g92
sg93
(dp177
S'A'
p178
I11
sS'ME'
p179
I6
sS'RP2'
p180
I9
sS'E'
p181
I10
sS'P'
p182
I9
sS'RP1'
p183
I9
sS'JP'
p184
I15
sS'RP_tot'
p185
I11
sS'TO'
p186
I8
sS'PA'
p187
I14
sS'M'
p188
I12
sS'R'
p189
I4
sS'TB'
p190
I11
sS'PL'
p191
I13
sS'TA'
p192
I4
ssg137
(dp193
g178
I11
sg179
I6
sg180
I9
sg181
I10
sg186
I8
sg183
I9
sg184
I15
sg185
I11
sg182
I9
sg187
I14
sg188
I12
sg189
I4
sg190
I11
sg191
I13
sg192
I4
ssg110
I6
sg111
I1
sg112
I0
sg113
I0
sg52
F11.366666666666667
sg116
I3
sS'pas_meme_type'
p194
(lp195
S'EV'
p196
asg118
I0
sg119
I0
sg120
(dp197
S'A'
p198
I11
sS'ME'
p199
I6
sS'RP2'
p200
I9
sS'E'
p201
I10
sS'P'
p202
I9
sS'RP1'
p203
I8
sS'JP'
p204
I14
sS'RP_tot'
p205
I10
sS'TO'
p206
I8
sS'PA'
p207
I12
sS'M'
p208
I10
sS'R'
p209
I4
sS'TB'
p210
I11
sS'PL'
p211
I12
sS'TA'
p212
I4
ssS'attribute_error'
p213
(lp214
sg139
I0
sg141
I3
sg142
I4
sg143
I1
sg144
I21
sg145
I4
sg146
I0
sg147
S'ES'
p215
sbsS'cap'
p216
(ijoueur
joueur
p217
(dp218
g27
F10.333333333333334
sg28
I0
sg29
I0
sg30
I0
sg31
g32
(g33
g34
Ntp219
Rp220
(dp221
g38
I1
sg39
S'<'
p222
sg41
S'base'
p223
sbsg43
(dp224
g45
I1
sg46
I12
sg47
I0
sg48
I0
ssg49
(dp225
g45
I0
sg46
I0
sg47
I0
sg48
I0
ssg51
I0
sg52
F10.592592592592593
sg53
I0
sg54
I0
sg55
I0
sg56
I0
sg57
I0
sg58
I0
sg59
(g60
S'DL'
p226
S'PI'
p227
g63
tp228
sg65
I00
sg66
g32
(g33
g34
Ntp229
Rp230
(dp231
g38
I3
sg39
S'^^^'
p232
sg41
S'rare'
p233
sbsg72
(dp234
g74
I0
sg75
I0
sg76
I0
sg77
I7
ssg78
I00
sg79
(dp235
g74
I0
sg75
I0
sg76
I0
sg77
I0
ssg81
(dp236
g45
I0
sg46
I8
sg47
I0
sg48
I5
ssg83
I0
sg84
I0
sg85
S'Haradt'
p237
sg87
I3
sg88
I0
sg89
I16
sg90
I21
sg91
g92
sg93
(dp238
g95
I9
sg96
I13
sg97
I8
sg98
I12
sg99
I10
sg100
I9
sg101
I3
sg102
I10
sg103
I3
sg104
I6
sg105
I6
sg106
I12
sg107
I2
sg108
I8
sg109
I4
ssg110
I1
sg111
I0
sg112
I0
sg113
I0
sg114
(dp239
g74
I0
sg75
I0
sg76
I0
sg77
I0
ssg116
I0
sg117
I0
sg118
I0
sg119
I0
sg120
(dp240
g122
I9
sg123
I13
sg124
I8
sg125
I9
sg126
I9
sg127
I9
sg128
I3
sg129
I10
sg130
I3
sg131
I6
sg132
I6
sg133
I11
sg134
I2
sg135
I7
sg136
I4
ssg137
(dp241
g95
I9
sg96
I13
sg97
I8
sg98
I12
sg103
I3
sg100
I9
sg101
I3
sg102
I10
sg99
I10
sg104
I6
sg105
I6
sg106
I12
sg107
I2
sg108
I8
sg109
I4
ssg139
I0
sg140
S'DKF 11'
p242
sg141
I0
sg142
I0
sg143
I0
sg144
I2
sg145
I2
sg146
I0
sg147
S'CV'
p243
sbsS'SA_pcp1'
p244
(ijoueur
joueur
p245
(dp246
g27
F10.941176470588236
sg28
I0
sg29
I0
sg30
I0
sg31
g32
(g33
g34
Ntp247
Rp248
(dp249
g38
I5
sg39
S'**'
p250
sg41
S'seigneur'
p251
sbsg43
(dp252
g45
I0
sg46
I0
sg47
I0
sg48
I4
ssg49
(dp253
g45
I0
sg46
I12
sg47
I0
sg48
I0
ssg51
I0
sg52
F10.676470588235293
sg53
I0
sg54
I0
sg55
I0
sg56
I0
sg57
I0
sg58
I0
sg59
(g60
S'DL'
p254
S'TL'
p255
S'N8'
p256
tp257
sg65
I00
sg66
g32
(g33
g34
Ntp258
Rp259
(dp260
g38
I5
sg39
S'**'
p261
sg41
g251
sbsg72
(dp262
g74
I0
sg75
I0
sg76
I0
sg77
I7
ssg78
I00
sg79
(dp263
g74
I0
sg75
I0
sg76
I0
sg77
I0
ssg81
(dp264
g45
I0
sg46
I8
sg47
I0
sg48
I0
ssg83
I0
sg84
I0
sg85
S'Zysken'
p265
sg87
I1
sg88
I0
sg89
I12
sg90
I210
sg91
g92
sg93
(dp266
g95
I13
sg96
I10
sg97
I7
sg98
I9
sg99
I13
sg100
I12
sg101
I4
sg102
I12
sg103
I4
sg104
I11
sg105
I7
sg106
I8
sg107
I3
sg108
I12
sg109
I5
ssg110
I0
sg111
I0
sg112
I0
sg113
I0
sg114
(dp267
g74
I0
sg75
I0
sg76
I0
sg77
I0
ssg116
I0
sg117
I0
sg118
I0
sg119
I1
sg120
(dp268
g122
I14
sg123
I10
sg124
I7
sg125
I10
sg126
I13
sg127
I13
sg128
I4
sg129
I13
sg130
I4
sg131
I11
sg132
I8
sg133
I9
sg134
I3
sg135
I13
sg136
I5
ssg137
(dp269
g95
I13
sg96
I10
sg97
I7
sg98
I9
sg103
I4
sg100
I12
sg101
I4
sg102
I12
sg99
I13
sg104
I11
sg105
I7
sg106
I8
sg107
I3
sg108
I12
sg109
I5
ssg139
I0
sg140
g63
sg141
I0
sg142
I0
sg143
I0
sg144
I21
sg145
I7
sg146
I0
sg147
S'CHS'
p270
sbsS'B4'
p271
g150
sS'RJC'
p272
g150
sS'B1'
p273
g150
sS'B2'
p274
g150
sS'B3'
p275
g150
sS'SA_pcp2'
p276
(ijoueur
joueur
p277
(dp278
g27
F10.083333333333334
sg28
I0
sg29
I0
sg30
I0
sg31
g32
(g33
g34
Ntp279
Rp280
(dp281
g38
I4
sg39
S'x'
p282
sg41
S'heros'
p283
sbsg43
(dp284
g45
I0
sg46
I19
sg47
I0
sg48
I0
ssg49
(dp285
g45
I0
sg46
I0
sg47
I0
sg48
I0
ssg51
I0
sg52
F10.277777777777779
sg53
I0
sg54
I0
sg55
I0
sg56
I1
sg57
I0
sg58
I0
sg59
(g60
S'N8'
p286
S'TL'
p287
g63
tp288
sg65
I00
sg66
g32
(g33
g34
Ntp289
Rp290
(dp291
g38
I4
sg39
g282
sg41
g283
sbsg72
(dp292
g74
I0
sg75
I0
sg76
I0
sg77
I1
ssg78
I00
sg79
(dp293
g74
I0
sg75
I0
sg76
I0
sg77
I0
ssg81
(dp294
g45
I0
sg46
I1
sg47
I1
sg48
I0
ssg83
I0
sg84
I0
sg85
S'Equyx'
p295
sg87
I10
sg88
I0
sg89
I21
sg90
I130
sg91
g92
sg93
(dp296
g95
I11
sg96
I8
sg97
I7
sg98
I9
sg99
I13
sg100
I9
sg101
I5
sg102
I9
sg103
I8
sg104
I10
sg105
I7
sg106
I7
sg107
I6
sg108
I15
sg109
I5
ssg110
I1
sg111
I0
sg112
I0
sg113
I0
sg114
(dp297
g74
I0
sg75
I0
sg76
I0
sg77
I6
ssg116
I0
sg117
I0
sg118
I0
sg119
I1
sg120
(dp298
g122
I12
sg123
I8
sg124
I6
sg125
I9
sg126
I12
sg127
I9
sg128
I5
sg129
I9
sg130
I7
sg131
I10
sg132
I7
sg133
I8
sg134
I6
sg135
I15
sg136
I5
ssg137
(dp299
g95
I11
sg96
I8
sg97
I7
sg98
I9
sg103
I8
sg100
I9
sg101
I5
sg102
I9
sg99
I13
sg104
I10
sg105
I7
sg106
I7
sg107
I6
sg108
I15
sg109
I5
ssg139
I0
sg140
g63
sg141
I0
sg142
I0
sg143
I0
sg144
I12
sg145
I2
sg146
I0
sg147
S'CHS'
p300
sbsS'drop2'
p301
g150
sS'RJL'
p302
(ijoueur
joueur
p303
(dp304
g27
F8.533333333333333
sg28
I0
sg29
I1
sg30
I0
sg31
g32
(g33
g34
Ntp305
Rp306
(dp307
g38
I4
sg39
S'*'
p308
sg41
g283
sbsg43
(dp309
g45
I0
sg46
I1
sg47
I4
sg48
I0
ssg49
(dp310
g45
I0
sg46
I0
sg47
I0
sg48
I0
ssg51
I0
sg52
F9.633333333333333
sg53
I1
sg54
I0
sg55
I0
sg56
I0
sg57
I0
sg58
I0
sg59
(g60
S'C1'
p311
S'DO'
p312
g63
tp313
sg65
I00
sg66
g306
sg72
(dp314
g74
I0
sg75
I0
sg76
I0
sg77
I8
ssg78
I01
sg79
(dp315
g74
I0
sg75
I0
sg76
I0
sg77
I0
ssg81
(dp316
g45
I0
sg46
I9
sg47
I1
sg48
I0
ssg83
I0
sg84
I0
sg85
S'Engellart'
p317
sg87
I10
sg88
I0
sg89
I20
sg90
I61
sg91
g92
sg93
(dp318
g95
I11
sg96
I5
sg97
I9
sg98
I12
sg99
I7
sg100
I8
sg101
I8
sg102
I10
sg103
I10
sg104
I10
sg105
I9
sg106
I7
sg107
I8
sg108
I8
sg109
I6
ssg110
I4
sg111
I1
sg112
I0
sg113
I0
sg114
(dp319
g74
I0
sg75
I0
sg76
I0
sg77
I0
ssg116
I0
sg117
I0
sg118
I0
sg119
I1
sg120
(dp320
g122
I9
sg123
I4
sg124
I7
sg125
I10
sg126
I5
sg127
I6
sg128
I10
sg129
I7
sg130
I9
sg131
I8
sg132
I9
sg133
I6
sg134
I7
sg135
I8
sg136
I5
ssg137
(dp321
g95
I11
sg96
I5
sg97
I9
sg98
I12
sg103
I10
sg100
I8
sg101
I8
sg102
I10
sg99
I7
sg104
I10
sg105
I9
sg106
I7
sg107
I8
sg108
I8
sg109
I6
ssg139
I0
sg140
g63
sg141
I0
sg142
I1
sg143
I0
sg144
I5
sg145
I0
sg146
I1
sg147
S'EMP'
p322
sbsS'SA_remp1'
p323
(ijoueur
joueur
p324
(dp325
g28
I0
sg29
I0
sS'poste3'
p326
g63
sg30
I0
sS'poste1'
p327
g63
sg31
g32
(g33
g34
Ntp328
Rp329
(dp330
g38
I5
sg39
S'**'
p331
sg41
S'seigneur'
p332
sbsg43
(dp333
S'SR'
p334
I0
sS'ST'
p335
I0
sS'CR'
p336
I0
sS'CT'
p337
I0
ssg49
(dp338
g334
I0
sg335
I0
sg336
I0
sg337
I0
ssg140
g63
sg53
I0
sg56
I0
sg57
I0
sg58
I0
sg91
g92
sg66
g32
(g33
g34
Ntp339
Rp340
(dp341
g38
I2
sg39
S'<<'
p342
sg41
S'special'
p343
sbsg72
(dp344
g334
I0
sg335
I0
sg336
I7
sg337
I2
ssg114
(dp345
g334
I0
sg335
I0
sg336
I0
sg337
I0
ssg79
(dp346
g334
I0
sg335
I0
sg336
I0
sg337
I0
ssg81
(dp347
g334
I0
sg335
I0
sg336
I7
sg337
I2
ssg83
I0
sg84
I0
sg85
S'Diebahir'
p348
sg87
I12
sg88
I0
sg89
I25
sg90
I48
sg59
(S'dummy'
p349
S'DL'
p350
g63
g63
tp351
sS'poste2'
p352
g63
sg93
(dp353
S'RP1'
p354
I8
sS'ME'
p355
I10
sS'RP2'
p356
I6
sS'E'
p357
I9
sS'P'
p358
I5
sS'JP'
p359
I2
sS'M'
p360
I7
sS'RP_tot'
p361
I8
sS'TO'
p362
I11
sS'PA'
p363
I8
sS'A'
p364
I8
sS'R'
p365
I10
sS'TB'
p366
I4
sS'PL'
p367
I12
sS'TA'
p368
I4
ssg110
I4
sg111
I0
sg112
I0
sg113
I0
sg52
F9.823529411764707
sg116
I0
sg118
I0
sg119
I0
sg137
(dp369
g354
I8
sg355
I10
sg356
I6
sg357
I9
sg362
I11
sg360
I7
sg359
I2
sg361
I8
sg358
I5
sg363
I8
sg364
I8
sg365
I10
sg366
I4
sg367
I12
sg368
I4
ssg139
I0
sg141
I0
sg142
I0
sg143
I0
sg144
I4
sg145
I0
sg146
I0
sg147
S'CHS'
p370
sbsS'drop1'
p371
g303
sS'SA_remp2'
p372
(ijoueur
joueur
p373
(dp374
g27
F10.631578947368421
sg28
I0
sg29
I0
sg30
I0
sg31
g32
(g33
g34
Ntp375
Rp376
(dp377
g38
I5
sg39
S'**'
p378
sg41
g251
sbsg43
(dp379
g45
I0
sg46
I0
sg47
I0
sg48
I6
ssg49
(dp380
g45
I0
sg46
I0
sg47
I0
sg48
I0
ssg51
I0
sg52
F10.387096774193548
sg53
I0
sg54
I0
sg55
I0
sg56
I0
sg57
I0
sg58
I0
sg59
(g60
S'TL'
p381
S'DL'
p382
g63
tp383
sg65
I00
sg66
g32
(g33
g34
Ntp384
Rp385
(dp386
g38
I5
sg39
S'**'
p387
sg41
g251
sbsg72
(dp388
g74
I0
sg75
I0
sg76
I0
sg77
I7
ssg78
I00
sg79
(dp389
g74
I0
sg75
I0
sg76
I0
sg77
I0
ssg81
(dp390
g45
I0
sg46
I21
sg47
I0
sg48
I0
ssg83
I0
sg84
I0
sg85
S'Obolendt'
p391
sg87
I6
sg88
I0
sg89
I20
sg90
I140
sg91
g92
sg93
(dp392
g95
I12
sg96
I10
sg97
I9
sg98
I10
sg99
I10
sg100
I7
sg101
I5
sg102
I9
sg103
I7
sg104
I10
sg105
I9
sg106
I10
sg107
I6
sg108
I12
sg109
I6
ssg110
I1
sg111
I0
sg112
I2
sg113
I0
sg114
(dp393
g74
I0
sg75
I0
sg76
I0
sg77
I0
ssg116
I0
sg117
I0
sg118
I0
sg119
I1
sg120
(dp394
g122
I13
sg123
I10
sg124
I9
sg125
I10
sg126
I11
sg127
I7
sg128
I5
sg129
I9
sg130
I7
sg131
I10
sg132
I10
sg133
I10
sg134
I6
sg135
I11
sg136
I6
ssg137
(dp395
g95
I12
sg96
I10
sg97
I9
sg98
I10
sg103
I7
sg100
I7
sg101
I5
sg102
I9
sg99
I10
sg104
I10
sg105
I9
sg106
I10
sg107
I6
sg108
I12
sg109
I6
ssg139
I0
sg140
S'MSL 9'
p396
sg141
I0
sg142
I0
sg143
I0
sg144
I12
sg145
I7
sg146
I1
sg147
S'CV'
p397
sbssS'totaux'
p398
(dp399
g19
I0
sg20
I0
sg21
I0
ssS'_compo_defaut_fatigue'
p400
Nsg93
(dp401
g4
I0
sg5
I0
sg6
I0
sg7
I0
sg8
I0
sg9
I0
sg10
I0
sg11
I0
sg12
I0
sg13
I0
sg14
I0
sg15
I0
sg16
I0
ssS'joueurs'
p402
(dp403
S'n12'
p404
g303
sS'n13'
p405
(ijoueur
joueur
p406
(dp407
g27
F10.655172413793103
sg28
I1
sg29
I0
sg30
I0
sg31
g32
(g33
g34
Ntp408
Rp409
(dp410
g38
I5
sg39
S'**'
p411
sg41
g251
sbsg43
(dp412
g45
I0
sg46
I1
sg47
I0
sg48
I0
ssg49
(dp413
g45
I0
sg46
I0
sg47
I0
sg48
I6
ssg51
I0
sg52
F10.827586206896552
sg53
I0
sg54
I0
sg55
I0
sg56
I0
sg57
I0
sg58
I0
sg59
(g60
S'C2'
p414
S'AI'
p415
S'DM'
p416
tp417
sg65
I00
sg66
g32
(g33
g34
Ntp418
Rp419
(dp420
g38
I5
sg39
S'**'
p421
sg41
g251
sbsg72
(dp422
g74
I0
sg75
I0
sg76
I0
sg77
I8
ssg78
I01
sg79
(dp423
g74
I0
sg75
I0
sg76
I0
sg77
I0
ssg81
(dp424
g45
I0
sg46
I14
sg47
I0
sg48
I0
ssg83
I0
sg84
I0
sg85
S'Mill'
p425
sg87
I8
sg88
I0
sg89
I20
sg90
I145
sg91
g92
sg93
(dp426
g95
I10
sg96
I4
sg97
I11
sg98
I11
sg99
I5
sg100
I7
sg101
I8
sg102
I11
sg103
I8
sg104
I13
sg105
I10
sg106
I6
sg107
I6
sg108
I13
sg109
I6
ssg110
I7
sg111
I0
sg112
I1
sg113
I0
sg114
(dp427
g74
I0
sg75
I0
sg76
I0
sg77
I0
ssg116
I0
sg117
I0
sg118
I0
sg119
I1
sg120
(dp428
g122
I10
sg123
I4
sg124
I11
sg125
I11
sg126
I5
sg127
I9
sg128
I7
sg129
I13
sg130
I8
sg131
I12
sg132
I10
sg133
I6
sg134
I6
sg135
I13
sg136
I6
ssg137
(dp429
g95
I10
sg96
I4
sg97
I11
sg98
I11
sg103
I8
sg100
I7
sg101
I8
sg102
I11
sg99
I5
sg104
I13
sg105
I10
sg106
I6
sg107
I6
sg108
I13
sg109
I6
ssg139
I1
sg140
g63
sg141
I0
sg142
I0
sg143
I0
sg144
I15
sg145
I4
sg146
I1
sg147
S'EMP'
p430
sbsS'n10'
p431
g150
sS'n11'
p432
(ijoueur
joueur
p433
(dp434
g27
F9.225806451612904
sg28
I0
sg29
I0
sg326
g63
sg30
I0
sg327
g63
sg31
g32
(g33
g34
Ntp435
Rp436
(dp437
g38
I4
sg39
S'*'
p438
sg41
S'heros'
p439
sbsg43
(dp440
S'SR'
p441
I0
sS'CT'
p442
I0
sS'CR'
p443
I0
sS'ST'
p444
I0
ssg49
(dp445
g441
I0
sg442
I0
sg443
I0
sg444
I0
ssg140
S'vide 12'
p446
sg53
I0
sg78
I00
sg56
I0
sg57
I0
sg58
I0
sg91
g92
sg65
I00
sg66
g436
sg72
(dp447
g74
I0
sg75
I0
sg76
I0
sg77
I7
ssg114
(dp448
g74
I0
sg75
I0
sg76
I0
sg77
I0
ssg79
(dp449
g74
I0
sg75
I0
sg76
I0
sg77
I0
ssg81
(dp450
g441
I0
sg442
I7
sg443
I0
sg444
I0
ssg83
I0
sg84
I0
sg85
S'Uulnen'
p451
sg87
I11
sg88
I0
sg89
I20
sg90
I144
sg59
(S'dummy'
p452
S'AI'
p453
S'AR'
p454
g63
tp455
sg352
g63
sg93
(dp456
S'RP1'
p457
I10
sS'ME'
p458
I5
sS'RP2'
p459
I11
sS'E'
p460
I10
sS'TO'
p461
I5
sS'M'
p462
I9
sS'JP'
p463
I8
sS'RP_tot'
p464
I14
sS'P'
p465
I10
sS'PA'
p466
I8
sS'A'
p467
I11
sS'R'
p468
I10
sS'TB'
p469
I9
sS'PL'
p470
I9
sS'TA'
p471
I5
ssg110
I3
sg111
I0
sg112
I1
sg113
I0
sg52
F10.419354838709678
sg116
I0
sg118
I1
sg119
I0
sg120
(dp472
S'RP1'
p473
I7
sS'ME'
p474
I3
sS'RP2'
p475
I9
sS'E'
p476
I9
sS'P'
p477
I7
sS'JP'
p478
I6
sS'M'
p479
I8
sS'RP_tot'
p480
I9
sS'TO'
p481
I3
sS'PA'
p482
I6
sS'A'
p483
I9
sS'R'
p484
I9
sS'TB'
p485
I6
sS'PL'
p486
I6
sS'TA'
p487
I3
ssg137
(dp488
g457
I10
sg458
I5
sg459
I11
sg460
I10
sg465
I10
sg463
I8
sg462
I9
sg464
I14
sg461
I5
sg466
I8
sg467
I11
sg468
I10
sg469
I9
sg470
I9
sg471
I5
ssg139
I0
sg141
I0
sg142
I0
sg143
I0
sg144
I10
sg145
I0
sg146
I0
sg147
S'K'
p489
sbsS'n16'
p490
(ijoueur
joueur
p491
(dp492
g27
F8.620689655172415
sg28
I0
sg29
I0
sg30
I0
sg31
g32
(g33
g34
Ntp493
Rp494
(dp495
g38
I4
sg39
g282
sg41
g283
sbsg43
(dp496
g45
I0
sg46
I2
sg47
I3
sg48
I0
ssg49
(dp497
g45
I0
sg46
I0
sg47
I0
sg48
I0
ssg51
I0
sg52
F8.482758620689655
sg53
I0
sg54
I0
sg55
I0
sg56
I0
sg57
I0
sg58
I0
sg59
(g60
S'TA'
p498
S'PI'
p499
g63
tp500
sg65
I00
sg66
g494
sg72
(dp501
g74
I0
sg75
I0
sg76
I1
sg77
I0
ssg78
I00
sg79
(dp502
g74
I0
sg75
I0
sg76
I0
sg77
I0
ssg81
(dp503
g45
I0
sg46
I1
sg47
I5
sg48
I0
ssg83
I0
sg84
I0
sg85
S'Nermed'
p504
sg87
I11
sg88
I0
sg89
I20
sg90
I103
sg91
g92
sg93
(dp505
g95
I7
sg96
I11
sg97
I7
sg98
I8
sg99
I6
sg100
I8
sg101
I2
sg102
I8
sg103
I4
sg104
I8
sg105
I9
sg106
I9
sg107
I2
sg108
I8
sg109
I8
ssg110
I2
sg111
I0
sg112
I0
sg113
I0
sg114
(dp506
g74
I0
sg75
I0
sg76
I1
sg77
I1
ssg116
I0
sg117
I0
sg118
I0
sg119
I0
sg120
(dp507
g122
I6
sg123
I11
sg124
I6
sg125
I9
sg126
I5
sg127
I7
sg128
I1
sg129
I7
sg130
I3
sg131
I7
sg132
I9
sg133
I8
sg134
I1
sg135
I8
sg136
I8
ssg137
(dp508
g95
I7
sg96
I11
sg97
I7
sg98
I8
sg103
I4
sg100
I8
sg101
I2
sg102
I8
sg99
I6
sg104
I8
sg105
I9
sg106
I9
sg107
I2
sg108
I8
sg109
I8
ssg139
I0
sg140
g63
sg141
I0
sg142
I0
sg143
I0
sg144
I10
sg145
I0
sg146
I0
sg147
S'EMP'
p509
sbsS'n17'
p510
(ijoueur
joueur
p511
(dp512
g27
F9.74074074074074
sg28
I0
sg29
I0
sg30
I0
sg31
g32
(g33
g34
Ntp513
Rp514
(dp515
g38
I5
sg39
S'xx'
p516
sg41
S'seigneur'
p517
sbsg43
(dp518
S'SR'
p519
I0
sS'ST'
p520
I0
sS'CR'
p521
I3
sS'CT'
p522
I0
ssg49
(dp523
g519
I0
sg520
I0
sg521
I0
sg522
I0
ssg51
I0
sg52
F9.518518518518519
sg53
I0
sg54
I0
sg55
I0
sg56
I0
sg57
I0
sg58
I0
sg59
(S'dummy'
p524
S'PI'
p525
S'N8'
p526
S'TA'
p527
tp528
sg65
I00
sg66
g32
(g33
g34
Ntp529
Rp530
(dp531
g38
I5
sg39
S'xx'
p532
sg41
g517
sbsg72
(dp533
g74
I0
sg75
I0
sg76
I6
sg77
I3
ssg78
I00
sg79
(dp534
g74
I0
sg75
I0
sg76
I0
sg77
I0
ssg81
(dp535
g519
I0
sg520
I0
sg521
I9
sg522
I4
ssg83
I0
sg84
I0
sg85
S'Niendi'
p536
sg87
I1
sg88
I0
sg89
I9
sg90
I84
sg91
g92
sg93
(dp537
S'A'
p538
I12
sS'ME'
p539
I9
sS'RP2'
p540
I4
sS'E'
p541
I10
sS'P'
p542
I5
sS'RP1'
p543
I9
sS'JP'
p544
I2
sS'RP_tot'
p545
I9
sS'TO'
p546
I4
sS'PA'
p547
I11
sS'M'
p548
I7
sS'R'
p549
I9
sS'TB'
p550
I1
sS'PL'
p551
I10
sS'TA'
p552
I7
ssg110
I3
sg111
I0
sg112
I0
sg113
I0
sg114
(dp553
g74
I0
sg75
I0
sg76
I0
sg77
I0
ssg116
I0
sg117
I0
sg118
I0
sg119
I0
sg120
(dp554
S'A'
p555
I12
sS'ME'
p556
I9
sS'RP2'
p557
I4
sS'E'
p558
I10
sS'P'
p559
I5
sS'RP1'
p560
I9
sS'JP'
p561
I2
sS'RP_tot'
p562
I9
sS'TO'
p563
I4
sS'PA'
p564
I11
sS'M'
p565
I7
sS'R'
p566
I10
sS'TB'
p567
I1
sS'PL'
p568
I10
sS'TA'
p569
I7
ssg137
(dp570
g538
I12
sg539
I9
sg540
I4
sg541
I10
sg546
I4
sg543
I9
sg544
I2
sg545
I9
sg542
I5
sg547
I11
sg548
I7
sg549
I9
sg550
I1
sg551
I10
sg552
I7
ssg139
I0
sg140
S'KAK 12'
p571
sg141
I0
sg142
I0
sg143
I0
sg144
I7
sg145
I15
sg146
I0
sg147
S'N'
p572
sbsS'n14'
p573
(ijoueur
joueur
p574
(dp575
g27
F9.0
sg28
I1
sg29
I0
sg326
g63
sg30
I0
sg327
g63
sg31
g32
(g33
g34
Ntp576
Rp577
(dp578
g38
I4
sg39
S'*'
p579
sg41
S'heros'
p580
sbsg43
(dp581
S'SR'
p582
I0
sS'CT'
p583
I0
sS'CR'
p584
I0
sS'ST'
p585
I0
ssg49
(dp586
g582
I0
sg583
I0
sg584
I0
sg585
I0
ssg140
S'vide 12'
p587
sg53
I0
sg78
I00
sg56
I0
sg57
I0
sg58
I0
sg91
g92
sg65
I00
sg66
g32
(g33
g34
Ntp588
Rp589
(dp590
g38
I3
sg39
S'^^^'
p591
sg41
S'rare'
p592
sbsg72
(dp593
g74
I0
sg75
I0
sg76
I0
sg77
I7
ssg114
(dp594
g74
I0
sg75
I0
sg76
I0
sg77
I0
ssg79
(dp595
g74
I0
sg75
I0
sg76
I0
sg77
I0
ssg81
(dp596
g582
I0
sg583
I7
sg584
I0
sg585
I0
ssg83
I0
sg84
I0
sg85
S'Louesh'
p597
sg87
I11
sg88
I0
sg89
I19
sg90
I60
sg59
(S'dummy'
p598
S'AI'
p599
S'AR'
p600
g63
tp601
sg352
g63
sg93
(dp602
S'RP1'
p603
I7
sS'ME'
p604
I6
sS'RP2'
p605
I10
sS'E'
p606
I9
sS'TO'
p607
I5
sS'M'
p608
I12
sS'JP'
p609
I7
sS'RP_tot'
p610
I10
sS'P'
p611
I10
sS'PA'
p612
I8
sS'A'
p613
I12
sS'R'
p614
I6
sS'TB'
p615
I7
sS'PL'
p616
I8
sS'TA'
p617
I5
ssg110
I0
sg111
I0
sg112
I0
sg113
I0
sg52
F9.903225806451612
sg116
I0
sg118
I0
sg119
I1
sg120
(dp618
S'RP1'
p619
I6
sS'ME'
p620
I5
sS'RP2'
p621
I9
sS'E'
p622
I8
sS'P'
p623
I8
sS'JP'
p624
I6
sS'M'
p625
I9
sS'RP_tot'
p626
I9
sS'TO'
p627
I3
sS'PA'
p628
I6
sS'A'
p629
I10
sS'R'
p630
I6
sS'TB'
p631
I5
sS'PL'
p632
I6
sS'TA'
p633
I4
ssg137
(dp634
g603
I7
sg604
I6
sg605
I10
sg606
I9
sg611
I10
sg609
I7
sg608
I12
sg610
I10
sg607
I5
sg612
I8
sg613
I12
sg614
I6
sg615
I7
sg616
I8
sg617
I5
ssg139
I1
sg141
I0
sg142
I0
sg143
I0
sg144
I5
sg145
I0
sg146
I1
sg147
S'ARA'
p635
sbsS'n15'
p636
(ijoueur
joueur
p637
(dp638
g27
F9.969696969696969
sg28
I0
sg29
I0
sg326
g63
sg30
I0
sg327
g63
sg31
g32
(g33
g34
Ntp639
Rp640
(dp641
g38
I4
sg39
S'*'
p642
sg41
S'heros'
p643
sbsg43
(dp644
S'SR'
p645
I2
sS'CT'
p646
I1
sS'CR'
p647
I0
sS'ST'
p648
I1
ssg49
(dp649
g645
I0
sg646
I0
sg647
I0
sg648
I0
ssg140
S'vide 12'
p650
sg53
I0
sg78
I00
sg56
I0
sg57
I0
sg58
I0
sg91
g92
sg65
I00
sg66
g640
sg72
(dp651
g74
I0
sg75
I0
sg76
I0
sg77
I7
ssg114
(dp652
g74
I0
sg75
I0
sg76
I0
sg77
I1
ssg79
(dp653
g74
I0
sg75
I0
sg76
I0
sg77
I0
ssg81
(dp654
g645
I0
sg646
I7
sg647
I0
sg648
I0
ssg83
I0
sg84
I0
sg85
S'Cahen Caher'
p655
sg87
I9
sg88
I0
sg89
I20
sg90
I209
sg59
(S'dummy'
p656
S'AR'
p657
S'CE'
p658
g63
tp659
sg352
g63
sg93
(dp660
S'RP1'
p661
I8
sS'ME'
p662
I5
sS'RP2'
p663
I9
sS'E'
p664
I8
sS'TO'
p665
I7
sS'M'
p666
I11
sS'JP'
p667
I7
sS'RP_tot'
p668
I10
sS'P'
p669
I6
sS'PA'
p670
I9
sS'A'
p671
I11
sS'R'
p672
I6
sS'TB'
p673
I6
sS'PL'
p674
I10
sS'TA'
p675
I3
ssg110
I10
sg111
I0
sg112
I0
sg113
I0
sg52
F9.818181818181818
sg116
I0
sg118
I0
sg119
I0
sg120
(dp676
S'RP1'
p677
I8
sS'ME'
p678
I5
sS'RP2'
p679
I10
sS'E'
p680
I8
sS'P'
p681
I6
sS'JP'
p682
I7
sS'M'
p683
I10
sS'RP_tot'
p684
I11
sS'TO'
p685
I7
sS'PA'
p686
I9
sS'A'
p687
I10
sS'R'
p688
I7
sS'TB'
p689
I6
sS'PL'
p690
I11
sS'TA'
p691
I3
ssg137
(dp692
g661
I8
sg662
I5
sg663
I9
sg664
I8
sg669
I6
sg667
I7
sg666
I11
sg668
I10
sg665
I7
sg670
I9
sg671
I12
sg672
I7
sg673
I6
sg674
I11
sg675
I3
ssg139
I0
sg141
I0
sg142
I0
sg143
I0
sg144
I11
sg145
I0
sg146
I0
sg147
S'ARA'
p693
sbsS'n18'
p694
g324
sS'n19'
p695
(ijoueur
joueur
p696
(dp697
g27
F9.368421052631579
sg28
I0
sg29
I0
sg30
I0
sg31
g32
(g33
g34
Ntp698
Rp699
(dp700
g38
I1
sg39
S'>'
p701
sg41
g223
sbsg43
(dp702
g45
I0
sg46
I12
sg47
I2
sg48
I0
ssg49
(dp703
g45
I0
sg46
I0
sg47
I1
sg48
I0
ssg51
I0
sg52
F9.263157894736842
sg53
I0
sg54
I0
sg55
I0
sg56
I0
sg57
I0
sg58
I0
sg59
(g60
S'TL'
p704
S'DL'
p705
S'TA'
p706
tp707
sg65
I00
sg66
g32
(g33
g34
Ntp708
Rp709
(dp710
g38
I1
sg39
g701
sg41
g223
sbsg72
(dp711
g74
I0
sg75
I0
sg76
I2
sg77
I1
ssg78
I00
sg79
(dp712
g74
I0
sg75
I0
sg76
I1
sg77
I0
ssg81
(dp713
g45
I0
sg46
I1
sg47
I2
sg48
I0
ssg83
I0
sg84
I0
sg85
S'Paad'
p714
sg87
I2
sg88
I0
sg89
I15
sg90
I50
sg91
g92
sg93
(dp715
g95
I10
sg96
I11
sg97
I6
sg98
I8
sg99
I11
sg100
I10
sg101
I4
sg102
I10
sg103
I4
sg104
I7
sg105
I6
sg106
I10
sg107
I4
sg108
I7
sg109
I6
ssg110
I3
sg111
I0
sg112
I0
sg113
I0
sg114
(dp716
g74
I0
sg75
I0
sg76
I0
sg77
I2
ssg116
I0
sg117
I0
sg118
I0
sg119
I0
sg120
(dp717
g122
I9
sg123
I11
sg124
I6
sg125
I8
sg126
I9
sg127
I10
sg128
I4
sg129
I10
sg130
I4
sg131
I7
sg132
I8
sg133
I9
sg134
I4
sg135
I7
sg136
I6
ssg137
(dp718
g95
I10
sg96
I11
sg97
I6
sg98
I8
sg103
I4
sg100
I10
sg101
I4
sg102
I10
sg99
I11
sg104
I7
sg105
I6
sg106
I10
sg107
I4
sg108
I7
sg109
I6
ssg139
I0
sg140
S'TO 10'
p719
sg141
I0
sg142
I0
sg143
I0
sg144
I5
sg145
I3
sg146
I0
sg147
S'HL'
p720
sbsS'n22'
p721
(ijoueur
joueur
p722
(dp723
g27
F9.290322580645162
sg28
I0
sg29
I0
sg30
I0
sg31
g32
(g33
g34
Ntp724
Rp725
(dp726
g38
I1
sg39
S'<'
p727
sg41
S'base'
p728
sbsg43
(dp729
S'SR'
p730
I0
sS'CT'
p731
I0
sS'CR'
p732
I0
sS'ST'
p733
I0
ssg49
(dp734
g730
I0
sg731
I0
sg732
I0
sg733
I0
ssg51
I0
sg52
F9.35483870967742
sg53
I0
sg54
I0
sg55
I0
sg56
I1
sg57
I0
sg58
I0
sg59
(S'dummy'
p735
S'AI'
p736
g63
g63
tp737
sg65
I00
sg66
g32
(g33
g34
Ntp738
Rp739
(dp740
g38
I1
sg39
g727
sg41
g728
sbsg72
(dp741
g74
I0
sg75
I0
sg76
I6
sg77
I3
ssg78
I00
sg79
(dp742
g74
I0
sg75
I0
sg76
I0
sg77
I0
ssg81
(dp743
g730
I0
sg731
I3
sg732
I8
sg733
I0
ssg83
I0
sg84
I0
sg85
S'Irstolfg'
p744
sg87
I4
sg88
I0
sg89
I16
sg90
I20
sg91
g92
sg93
(dp745
S'A'
p746
I12
sS'ME'
p747
I4
sS'RP2'
p748
I6
sS'E'
p749
I7
sS'TO'
p750
I3
sS'RP1'
p751
I11
sS'JP'
p752
I6
sS'RP_tot'
p753
I11
sS'P'
p754
I7
sS'PA'
p755
I6
sS'M'
p756
I11
sS'R'
p757
I6
sS'TB'
p758
I5
sS'PL'
p759
I8
sS'TA'
p760
I5
ssg110
I2
sg111
I0
sg112
I0
sg113
I0
sg114
(dp761
g74
I0
sg75
I0
sg76
I0
sg77
I0
ssg116
I0
sg117
I0
sg118
I0
sg119
I0
sg120
(dp762
S'A'
p763
I10
sS'ME'
p764
I4
sS'RP2'
p765
I6
sS'E'
p766
I7
sS'TO'
p767
I3
sS'RP1'
p768
I11
sS'JP'
p769
I5
sS'RP_tot'
p770
I11
sS'P'
p771
I7
sS'PA'
p772
I6
sS'M'
p773
I9
sS'R'
p774
I5
sS'TB'
p775
I5
sS'PL'
p776
I8
sS'TA'
p777
I5
ssg137
(dp778
g746
I12
sg747
I4
sg748
I6
sg749
I7
sg754
I7
sg751
I11
sg752
I6
sg753
I11
sg750
I3
sg755
I6
sg756
I11
sg757
I6
sg758
I5
sg759
I8
sg760
I5
ssg139
I0
sg140
S'KH 10;QNL 12'
p779
sg141
I0
sg142
I0
sg143
I0
sg144
I4
sg145
I1
sg146
I0
sg147
S'HB'
p780
sbsS'n21'
p781
(ijoueur
joueur
p782
(dp783
g27
F9.151515151515152
sg28
I0
sg29
I1
sg30
I0
sg31
g32
(g33
g34
Ntp784
Rp785
(dp786
g38
I2
sg39
S'<<'
p787
sg41
g42
sbsg43
(dp788
g45
I0
sg46
I3
sg47
I1
sg48
I0
ssg49
(dp789
g45
I0
sg46
I0
sg47
I2
sg48
I0
ssg51
I0
sg52
F9.030303030303031
sg53
I0
sg54
I0
sg55
I1
sg56
I0
sg57
I1
sg58
I1
sg59
(g60
S'DO'
p790
S'CE'
p791
S'AR'
p792
tp793
sg65
I00
sg66
g32
(g33
g34
Ntp794
Rp795
(dp796
g38
I2
sg39
S'<<'
p797
sg41
g42
sbsg72
(dp798
g74
I0
sg75
I0
sg76
I4
sg77
I2
ssg78
I00
sg79
(dp799
g74
I0
sg75
I0
sg76
I2
sg77
I0
ssg81
(dp800
g45
I1
sg46
I6
sg47
I12
sg48
I1
ssg83
I20
sg84
I7
sg85
S'Dyrthied'
p801
sg87
I11
sg88
I2
sg89
I22
sg90
I25
sg91
g92
sg93
(dp802
g95
I8
sg96
I5
sg97
I5
sg98
I9
sg99
I7
sg100
I7
sg101
I7
sg102
I7
sg103
I10
sg104
I11
sg105
I9
sg106
I6
sg107
I9
sg108
I11
sg109
I6
ssg110
I5
sg111
I0
sg112
I0
sg113
I0
sg114
(dp803
g74
I0
sg75
I0
sg76
I1
sg77
I0
ssg116
I5
sg117
I0
sg118
I0
sg119
I0
sg120
(dp804
g122
I8
sg123
I5
sg124
I6
sg125
I9
sg126
I7
sg127
I7
sg128
I8
sg129
I7
sg130
I10
sg131
I11
sg132
I10
sg133
I7
sg134
I8
sg135
I11
sg136
I6
ssg137
(dp805
g95
I8
sg96
I5
sg97
I5
sg98
I9
sg103
I10
sg100
I7
sg101
I7
sg102
I7
sg99
I7
sg104
I11
sg105
I9
sg106
I6
sg107
I9
sg108
I11
sg109
I6
ssg139
I0
sg140
g63
sg141
I0
sg142
I0
sg143
I0
sg144
I5
sg145
I0
sg146
I0
sg147
S'CHS'
p806
sbsS'n20'
p807
(ijoueur
joueur
p808
(dp809
g28
I0
sg29
I0
sg326
g63
sg30
I0
sg327
g63
sg31
g32
(g33
g34
Ntp810
Rp811
(dp812
g38
I4
sg39
S'*'
p813
sg41
S'heros'
p814
sbsg43
(dp815
g334
I0
sg335
I0
sg336
I3
sg337
I2
ssg49
(dp816
g334
I0
sg335
I0
sg336
I0
sg337
I0
ssg140
g63
sg53
I0
sg56
I0
sg57
I0
sg58
I0
sg91
g92
sg66
g32
(g33
g34
Ntp817
Rp818
(dp819
g38
I1
sg39
S'<'
p820
sg41
S'base'
p821
sbsg72
(dp822
g334
I0
sg335
I0
sg336
I2
sg337
I0
ssg114
(dp823
g334
I0
sg335
I0
sg336
I3
sg337
I2
ssg79
(dp824
g334
I0
sg335
I0
sg336
I0
sg337
I0
ssg81
(dp825
g334
I0
sg335
I0
sg336
I2
sg337
I0
ssg83
I0
sg84
I0
sg85
S'Malhuer'
p826
sg87
I12
sg88
I0
sg89
I24
sg90
I7
sg59
(g349
S'DO'
p827
S'DM'
p828
g63
tp829
sg352
g63
sg93
(dp830
g354
I6
sg355
I5
sg356
I8
sg357
I8
sg358
I9
sg359
I6
sg360
I7
sg361
I8
sg362
I5
sg363
I9
sg364
I9
sg365
I7
sg366
I9
sg367
I9
sg368
I5
ssg110
I4
sg111
I0
sg112
I0
sg113
I0
sg52
F8.142857142857142
sg116
I0
sg118
I0
sg119
I0
sg137
(dp831
g354
I6
sg355
I5
sg356
I8
sg357
I8
sg362
I5
sg360
I7
sg359
I6
sg361
I8
sg358
I9
sg363
I9
sg364
I9
sg365
I7
sg366
I9
sg367
I9
sg368
I5
ssg139
I0
sg141
I0
sg142
I0
sg143
I0
sg144
I0
sg145
I0
sg146
I0
sg147
g370
sbsS'n8'
p832
g25
sS'n9'
p833
(ijoueur
joueur
p834
(dp835
g27
F9.862068965517242
sg28
I1
sg29
I0
sg30
I0
sg31
g32
(g33
g34
Ntp836
Rp837
(dp838
g38
I4
sg39
g308
sg41
g283
sbsg43
(dp839
g45
I0
sg46
I0
sg47
I0
sg48
I0
ssg49
(dp840
g45
I0
sg46
I0
sg47
I0
sg48
I0
ssg51
I0
sg52
F9.724137931034482
sg53
I0
sg54
I0
sg55
I0
sg56
I0
sg57
I0
sg58
I0
sg59
(g60
S'DM'
p841
S'DO'
p842
g63
tp843
sg65
I00
sg66
g32
(g33
g34
Ntp844
Rp845
(dp846
g38
I4
sg39
g308
sg41
g283
sbsg72
(dp847
g74
I0
sg75
I0
sg76
I1
sg77
I8
ssg78
I00
sg79
(dp848
g74
I0
sg75
I0
sg76
I0
sg77
I0
ssg81
(dp849
g45
I0
sg46
I18
sg47
I1
sg48
I3
ssg83
I0
sg84
I0
sg85
S'Joherd'
p850
sg87
I2
sg88
I0
sg89
I12
sg90
I80
sg91
g92
sg93
(dp851
g95
I11
sg96
I3
sg97
I9
sg98
I9
sg99
I4
sg100
I8
sg101
I8
sg102
I10
sg103
I8
sg104
I13
sg105
I7
sg106
I6
sg107
I8
sg108
I10
sg109
I4
ssg110
I5
sg111
I0
sg112
I1
sg113
I0
sg114
(dp852
g74
I0
sg75
I0
sg76
I0
sg77
I0
ssg116
I0
sg117
I0
sg118
I0
sg119
I0
sg120
(dp853
g122
I11
sg123
I3
sg124
I9
sg125
I9
sg126
I4
sg127
I8
sg128
I8
sg129
I10
sg130
I9
sg131
I13
sg132
I7
sg133
I7
sg134
I8
sg135
I10
sg136
I4
ssg137
(dp854
g95
I11
sg96
I3
sg97
I9
sg98
I9
sg103
I8
sg100
I8
sg101
I8
sg102
I10
sg99
I4
sg104
I13
sg105
I7
sg106
I6
sg107
I8
sg108
I10
sg109
I4
ssg139
I0
sg140
g63
sg141
I0
sg142
I0
sg143
I0
sg144
I8
sg145
I2
sg146
I0
sg147
S'CHS'
p855
sbsS'n1'
p856
(ijoueur
joueur
p857
(dp858
g27
F10.592592592592593
sg28
I0
sg29
I0
sg30
I0
sg31
g32
(g33
g34
Ntp859
Rp860
(dp861
g38
I5
sg39
S'**'
p862
sg41
g251
sbsg43
(dp863
g45
I0
sg46
I0
sg47
I0
sg48
I0
ssg49
(dp864
g45
I0
sg46
I0
sg47
I0
sg48
I0
ssg51
I0
sg52
F10.185185185185185
sg53
I0
sg54
I0
sg55
I0
sg56
I0
sg57
I0
sg58
I0
sg59
(g60
S'PI'
p865
S'N8'
p866
S'TA'
p867
tp868
sg65
I00
sg66
g32
(g33
g34
Ntp869
Rp870
(dp871
g38
I5
sg39
S'**'
p872
sg41
g251
sbsg72
(dp873
g74
I0
sg75
I0
sg76
I1
sg77
I7
ssg78
I00
sg79
(dp874
g74
I0
sg75
I0
sg76
I0
sg77
I0
ssg81
(dp875
g45
I3
sg46
I20
sg47
I2
sg48
I2
ssg83
I0
sg84
I0
sg85
S'Stavehyr'
p876
sg87
I4
sg88
I0
sg89
I11
sg90
I210
sg91
g92
sg93
(dp877
g95
I11
sg96
I9
sg97
I6
sg98
I9
sg99
I10
sg100
I11
sg101
I2
sg102
I11
sg103
I5
sg104
I13
sg105
I3
sg106
I10
sg107
I3
sg108
I13
sg109
I7
ssg110
I3
sg111
I0
sg112
I0
sg113
I0
sg114
(dp878
g74
I0
sg75
I0
sg76
I0
sg77
I0
ssg116
I0
sg117
I0
sg118
I0
sg119
I0
sg120
(dp879
g122
I11
sg123
I10
sg124
I7
sg125
I9
sg126
I10
sg127
I11
sg128
I2
sg129
I11
sg130
I5
sg131
I13
sg132
I6
sg133
I10
sg134
I3
sg135
I14
sg136
I8
ssg137
(dp880
g95
I11
sg96
I9
sg97
I6
sg98
I9
sg103
I5
sg100
I11
sg101
I2
sg102
I11
sg99
I10
sg104
I13
sg105
I3
sg106
I10
sg107
I3
sg108
I13
sg109
I7
ssg139
I0
sg140
g63
sg141
I0
sg142
I0
sg143
I0
sg144
I21
sg145
I7
sg146
I0
sg147
S'CHS'
p881
sbsS'n2'
p882
(ijoueur
joueur
p883
(dp884
g27
F10.172413793103448
sg28
I1
sg29
I0
sg30
I0
sg31
g32
(g33
g34
Ntp885
Rp886
(dp887
g38
I4
sg39
g308
sg41
g283
sbsg43
(dp888
g45
I0
sg46
I0
sg47
I0
sg48
I0
ssg49
(dp889
g45
I0
sg46
I0
sg47
I0
sg48
I0
ssg51
I0
sg52
F10.172413793103448
sg53
I0
sg54
I0
sg55
I0
sg56
I0
sg57
I0
sg58
I0
sg59
(g60
S'TA'
p890
S'PI'
p891
g63
tp892
sg65
I00
sg66
g32
(g33
g34
Ntp893
Rp894
(dp895
g38
I4
sg39
g308
sg41
g283
sbsg72
(dp896
g74
I0
sg75
I0
sg76
I0
sg77
I7
ssg78
I01
sg79
(dp897
g74
I0
sg75
I0
sg76
I0
sg77
I0
ssg81
(dp898
g45
I4
sg46
I19
sg47
I1
sg48
I1
ssg83
I0
sg84
I0
sg85
S'Cloendal'
p899
sg87
I2
sg88
I0
sg89
I14
sg90
I80
sg91
g92
sg93
(dp900
g95
I9
sg96
I11
sg97
I7
sg98
I9
sg99
I6
sg100
I10
sg101
I2
sg102
I10
sg103
I5
sg104
I8
sg105
I6
sg106
I11
sg107
I3
sg108
I11
sg109
I11
ssg110
I0
sg111
I0
sg112
I0
sg113
I0
sg114
(dp901
g74
I0
sg75
I0
sg76
I0
sg77
I0
ssg116
I0
sg117
I0
sg118
I0
sg119
I0
sg120
(dp902
g122
I10
sg123
I11
sg124
I7
sg125
I10
sg126
I6
sg127
I10
sg128
I2
sg129
I10
sg130
I5
sg131
I8
sg132
I7
sg133
I11
sg134
I3
sg135
I11
sg136
I11
ssg137
(dp903
g95
I9
sg96
I11
sg97
I7
sg98
I9
sg103
I5
sg100
I10
sg101
I2
sg102
I10
sg99
I6
sg104
I8
sg105
I6
sg106
I11
sg107
I3
sg108
I11
sg109
I11
ssg139
I0
sg140
g63
sg141
I0
sg142
I0
sg143
I0
sg144
I8
sg145
I0
sg146
I0
sg147
S'CHS'
p904
sbsS'n3'
p905
(ijoueur
joueur
p906
(dp907
g27
F10.148148148148149
sg28
I0
sg29
I0
sg30
I0
sg31
g32
(g33
g34
Ntp908
Rp909
(dp910
g38
I4
sg39
g282
sg41
g283
sbsg43
(dp911
g45
I0
sg46
I2
sg47
I8
sg48
I0
ssg49
(dp912
g45
I0
sg46
I0
sg47
I0
sg48
I0
ssg51
I0
sg52
F10.555555555555555
sg53
I0
sg54
I0
sg55
I0
sg56
I0
sg57
I0
sg58
I0
sg59
(g60
S'PI'
p913
S'TL'
p914
g63
tp915
sg65
I00
sg66
g909
sg72
(dp916
g74
I0
sg75
I0
sg76
I0
sg77
I8
ssg78
I00
sg79
(dp917
g74
I0
sg75
I0
sg76
I0
sg77
I0
ssg81
(dp918
g45
I0
sg46
I11
sg47
I1
sg48
I0
ssg83
I0
sg84
I0
sg85
S'Kareops'
p919
sg87
I11
sg88
I0
sg89
I20
sg90
I128
sg91
g92
sg93
(dp920
g95
I15
sg96
I9
sg97
I7
sg98
I10
sg99
I8
sg100
I12
sg101
I5
sg102
I12
sg103
I4
sg104
I10
sg105
I8
sg106
I10
sg107
I1
sg108
I11
sg109
I9
ssg110
I3
sg111
I0
sg112
I0
sg113
I0
sg114
(dp921
g74
I0
sg75
I0
sg76
I0
sg77
I0
ssg116
I0
sg117
I0
sg118
I0
sg119
I0
sg120
(dp922
g122
I11
sg123
I7
sg124
I6
sg125
I10
sg126
I6
sg127
I9
sg128
I4
sg129
I9
sg130
I3
sg131
I8
sg132
I7
sg133
I10
sg134
I0
sg135
I10
sg136
I8
ssg137
(dp923
g95
I15
sg96
I9
sg97
I7
sg98
I10
sg103
I4
sg100
I12
sg101
I5
sg102
I12
sg99
I8
sg104
I10
sg105
I8
sg106
I10
sg107
I1
sg108
I11
sg109
I9
ssg139
I0
sg140
g63
sg141
I0
sg142
I0
sg143
I0
sg144
I11
sg145
I0
sg146
I0
sg147
S'CHS'
p924
sbsS'n4'
p925
g245
sS'n5'
p926
g217
sS'n6'
p927
g373
sS'n7'
p928
g277
ssS'remplacements'
p929
(dp930
g807
S'n0'
p931
sg490
g931
sg510
g931
sg721
g931
sg694
g931
sg695
g931
sg781
g931
ssb.