(iclub
compo
p0
(dp1
S'caracs_old'
p2
(dp3
S'A'
p4
F181.5
sS'ME'
p5
F91.0
sS'E'
p6
I212
sS'OplusAV'
p7
F84.0
sS'TO_off'
p8
F114.0
sS'OplusAR'
p9
F122.0
sS'M'
p10
F46.0
sS'JP'
p11
F124.5
sS'OmoinsAR'
p12
F81.5
sS'PA'
p13
F144.0
sS'TO_def'
p14
F105.0
sS'OmoinsAV'
p15
F61.0
sS'R'
p16
F165.5
ssS'totaux_old'
p17
(dp18
S'T2'
p19
F225.0
sS'T3'
p20
F106.0
sS'T1'
p21
F183.0
ssS'roles'
p22
(dp23
S'drop1'
p24
(ijoueur
joueur
p25
(dp26
S'rouges_total'
p27
I0
sS'drops_total'
p28
I0
sS'blessure'
p29
I0
sS'RG_max'
p30
(ijoueur
rang
p31
(dp32
S'type_nb'
p33
I5
sS'rang'
p34
S'**'
p35
sS'type'
p36
S'seigneur'
p37
sbsS'MJ2_total'
p38
(dp39
S'SR'
p40
I0
sS'ST'
p41
I0
sS'CR'
p42
I0
sS'CT'
p43
I1
ssS'MJ3_total'
p44
(dp45
g40
I0
sg41
I0
sg42
I0
sg43
I0
ssS'drop_rates_total'
p46
I0
sS'drop_rates_saison'
p47
I0
sS'transformations'
p48
I0
sS'penalites'
p49
I0
sS'essais_saison'
p50
I1
sS'penalite_ratees_saison'
p51
I0
sS'transformations_saison'
p52
I0
sS'postes'
p53
(S'dummy'
p54
S'DO'
p55
S'CE'
p56
S''
p57
tp58
sS'RG'
p59
(ijoueur
rang
p60
(dp61
g33
I4
sg34
S'*'
p62
sg36
S'heros'
p63
sbsS'MJ1'
p64
(dp65
g40
I0
sg41
I0
sg42
I0
sg43
I0
ssS'MJ2'
p66
(dp67
g40
I0
sg41
I0
sg42
I0
sg43
I1
ssS'MJ3'
p68
(dp69
g40
I0
sg41
I0
sg42
I0
sg43
I0
ssS'MJ1_total'
p70
(dp71
g40
I0
sg41
I0
sg42
I0
sg43
I0
ssS'penalites_total'
p72
I0
sS'penalites_saison'
p73
I0
sS'nom'
p74
S'De Drin'
p75
sS'C'
p76
I9
sS'transformations_total'
p77
I0
sS'D'
p78
I24
sS'VAL'
p79
I121
sS'club'
p80
S'QNL'
p81
sS'caracs'
p82
(dp83
S'A'
p84
I9
sS'ME'
p85
I5
sS'RP2'
p86
I10
sS'E'
p87
I10
sS'TO'
p88
I7
sS'RP1'
p89
I8
sS'JP'
p90
I9
sS'RP_tot'
p91
I11
sS'P'
p92
I12
sS'PA'
p93
I14
sS'M'
p94
I11
sS'R'
p95
I9
sS'TB'
p96
I7
sS'PL'
p97
I10
sS'TA'
p98
I5
ssS'fatigue'
p99
I2
sS'drop_ratees_total'
p100
I0
sS'blessures_total'
p101
I0
sS'XP'
p102
I0
sS'EV'
p103
F10.818181818181818
sS'penalite_ratees_total'
p104
I0
sS'drops'
p105
I0
sS'blessures_saison'
p106
I0
sS'jaunes_total'
p107
I0
sS'caracs_sans_fatigue'
p108
g83
sS'rouges_saison'
p109
I0
sS'anciens_clubs'
p110
g57
sS'transformation_ratees_total'
p111
I0
sS'drops_saison'
p112
I0
sS'transformation_ratees_saison'
p113
I0
sS'MS'
p114
I12
sS'essais_total'
p115
I1
sS'jaunes_saison'
p116
I0
sS'ARM'
p117
S'B'
p118
sbsS'SA_scd'
p119
(ijoueur
joueur
p120
(dp121
g27
I0
sg28
I0
sg29
I0
sg30
(ijoueur
rang
p122
(dp123
g33
I4
sg34
g62
sg36
g63
sbsg38
(dp124
g40
I0
sg41
I0
sg42
I0
sg43
I0
ssg44
(dp125
g40
I0
sg41
I0
sg42
I0
sg43
I0
ssg46
I0
sg47
I0
sg48
I0
sg49
I0
sg50
I0
sg51
I0
sg52
I0
sg53
(g54
S'DL'
p126
S'TL'
p127
S'N8'
p128
tp129
sg59
(ijoueur
rang
p130
(dp131
g33
I4
sg34
g62
sg36
g63
sbsg64
(dp132
g40
I0
sg41
I0
sg42
I0
sg43
I1
ssg66
(dp133
g40
I0
sg41
I0
sg42
I0
sg43
I0
ssg68
(dp134
g40
I0
sg41
I0
sg42
I0
sg43
I0
ssg70
(dp135
g40
I0
sg41
I0
sg42
I0
sg43
I1
ssg72
I0
sg73
I0
sg74
S'Rigaad'
p136
sg76
I3
sg77
I0
sg78
I12
sg79
I137
sg80
g81
sg82
(dp137
g84
I10
sg85
I11
sg86
I8
sg87
I11
sg88
I11
sg89
I10
sg90
I4
sg91
I11
sg92
I6
sg93
I8
sg94
I9
sg95
I13
sg96
I4
sg97
I11
sg98
I3
ssg99
I4
sg100
I0
sg101
I0
sg102
I0
sg103
F11.25925925925926
sg104
I0
sg105
I0
sg106
I0
sg107
I0
sg108
g137
sg109
I0
sg110
S'TO8'
p138
sg111
I0
sg112
I0
sg113
I0
sg114
I14
sg115
I10
sg116
I0
sg117
S'HL'
p139
sbsS'RJL'
p140
(ijoueur
joueur
p141
(dp142
g27
I0
sg28
I5
sg29
I0
sg30
(ijoueur
rang
p143
(dp144
g33
I5
sg34
S'**'
p145
sg36
g37
sbsg38
(dp146
g40
I0
sg41
I0
sg42
I0
sg43
I0
ssg44
(dp147
g40
I0
sg41
I0
sg42
I0
sg43
I0
ssg46
I0
sg47
I0
sg48
I6
sg49
I24
sg50
I0
sg51
I0
sg52
I0
sg53
(g54
S'C1'
p148
S'AR'
p149
S'DO'
p150
tp151
sg59
(ijoueur
rang
p152
(dp153
g33
I5
sg34
S'**'
p154
sg36
g37
sbsg64
(dp155
g40
I0
sg41
I0
sg42
I0
sg43
I0
ssg66
(dp156
g40
I0
sg41
I0
sg42
I0
sg43
I0
ssg68
(dp157
g40
I0
sg41
I0
sg42
I0
sg43
I0
ssg70
(dp158
g40
I0
sg41
I0
sg42
I0
sg43
I0
ssg72
I24
sg73
I0
sg74
S'Bechen'
p159
sg76
I3
sg77
I6
sg78
I17
sg79
I243
sg80
g81
sg82
(dp160
g84
I12
sg85
I6
sg86
I9
sg87
I12
sg88
I8
sg89
I8
sg90
I15
sg91
I10
sg92
I15
sg93
I14
sg94
I11
sg95
I6
sg96
I10
sg97
I11
sg98
I4
ssg99
I0
sg100
I0
sg101
I0
sg102
I0
sg103
F11.733333333333333
sg104
I0
sg105
I5
sg106
I0
sg107
I0
sg108
g160
sg109
I0
sg110
S'AL10'
p161
sg111
I0
sg112
I0
sg113
I0
sg114
I27
sg115
I2
sg116
I0
sg117
S'ES'
p162
sbsS'cap'
p163
(ijoueur
joueur
p164
(dp165
g27
I0
sg28
I0
sg29
I0
sg30
(ijoueur
rang
p166
(dp167
g33
I5
sg34
S'xx'
p168
sg36
g37
sbsg38
(dp169
g40
I0
sg41
I0
sg42
I0
sg43
I0
ssg44
(dp170
g40
I0
sg41
I0
sg42
I0
sg43
I0
ssg46
I0
sg47
I0
sg48
I0
sg49
I0
sg50
I0
sg51
I0
sg52
I0
sg53
(g54
S'C1'
p171
S'DO'
p172
S'DM'
p173
tp174
sg59
(ijoueur
rang
p175
(dp176
g33
I5
sg34
S'xx'
p177
sg36
g37
sbsg64
(dp178
g40
I0
sg41
I0
sg42
I0
sg43
I0
ssg66
(dp179
g40
I0
sg41
I0
sg42
I0
sg43
I0
ssg68
(dp180
g40
I0
sg41
I0
sg42
I0
sg43
I0
ssg70
(dp181
g40
I0
sg41
I0
sg42
I0
sg43
I0
ssg72
I0
sg73
I0
sg74
S'Von Dokhoff'
p182
sg76
I7
sg77
I0
sg78
I19
sg79
I500
sg80
g81
sg82
(dp183
g84
I14
sg85
I8
sg86
I14
sg87
I14
sg88
I9
sg89
I7
sg90
I8
sg91
I14
sg92
I10
sg93
I15
sg94
I10
sg95
I6
sg96
I9
sg97
I12
sg98
I5
ssg99
I0
sg100
I0
sg101
I0
sg102
I0
sg103
F12.2
sg104
I0
sg105
I0
sg106
I0
sg107
I0
sg108
g183
sg109
I0
sg110
g57
sg111
I0
sg112
I0
sg113
I0
sg114
I43
sg115
I7
sg116
I0
sg117
S'CV'
p184
sbsS'B4'
p185
g141
sS'RJC'
p186
g141
sS'B1'
p187
g141
sS'B2'
p188
g141
sS'B3'
p189
g141
sS'SA_pcp2'
p190
(ijoueur
joueur
p191
(dp192
g27
I0
sg28
I0
sg29
I0
sg30
(ijoueur
rang
p193
(dp194
g33
I5
sg34
S'**'
p195
sg36
g37
sbsg38
(dp196
g40
I0
sg41
I0
sg42
I0
sg43
I0
ssg44
(dp197
g40
I0
sg41
I0
sg42
I0
sg43
I0
ssg46
I0
sg47
I0
sg48
I0
sg49
I0
sg50
I0
sg51
I0
sg52
I0
sg53
(g54
S'TL'
p198
S'DL'
p199
g57
tp200
sg59
(ijoueur
rang
p201
(dp202
g33
I5
sg34
S'**'
p203
sg36
g37
sbsg64
(dp204
g40
I0
sg41
I0
sg42
I0
sg43
I1
ssg66
(dp205
g40
I0
sg41
I0
sg42
I0
sg43
I0
ssg68
(dp206
g40
I0
sg41
I0
sg42
I0
sg43
I0
ssg70
(dp207
g40
I0
sg41
I0
sg42
I0
sg43
I1
ssg72
I0
sg73
I0
sg74
S'Le Lof'
p208
sg76
I8
sg77
I0
sg78
I20
sg79
I127
sg80
g81
sg82
(dp209
g84
I11
sg85
I8
sg86
I9
sg87
I11
sg88
I11
sg89
I10
sg90
I5
sg91
I12
sg92
I5
sg93
I10
sg94
I10
sg95
I8
sg96
I3
sg97
I10
sg98
I6
ssg99
I3
sg100
I0
sg101
I0
sg102
I0
sg103
F10.0
sg104
I0
sg105
I0
sg106
I0
sg107
I0
sg108
g209
sg109
I0
sg110
g57
sg111
I0
sg112
I0
sg113
I0
sg114
I11
sg115
I0
sg116
I0
sg117
g118
sbsS'SA_pcp1'
p210
(ijoueur
joueur
p211
(dp212
g27
I0
sg28
I0
sg29
I0
sg30
(ijoueur
rang
p213
(dp214
g33
I4
sg34
g62
sg36
g63
sbsg38
(dp215
g40
I0
sg41
I0
sg42
I0
sg43
I0
ssg44
(dp216
g40
I0
sg41
I0
sg42
I0
sg43
I0
ssg46
I0
sg47
I0
sg48
I0
sg49
I0
sg50
I0
sg51
I0
sg52
I0
sg53
(g54
S'DL'
p217
S'N8'
p218
S'TL'
p219
tp220
sg59
(ijoueur
rang
p221
(dp222
g33
I4
sg34
g62
sg36
g63
sbsg64
(dp223
g40
I0
sg41
I0
sg42
I0
sg43
I1
ssg66
(dp224
g40
I0
sg41
I0
sg42
I0
sg43
I0
ssg68
(dp225
g40
I0
sg41
I0
sg42
I0
sg43
I0
ssg70
(dp226
g40
I0
sg41
I0
sg42
I0
sg43
I1
ssg72
I0
sg73
I0
sg74
S'Yxolder'
p227
sg76
I5
sg77
I0
sg78
I16
sg79
I168
sg80
g81
sg82
(dp228
g84
I12
sg85
I11
sg86
I8
sg87
I9
sg88
I14
sg89
I12
sg90
I4
sg91
I13
sg92
I6
sg93
I9
sg94
I7
sg95
I11
sg96
I3
sg97
I11
sg98
I5
ssg99
I2
sg100
I0
sg101
I0
sg102
I0
sg103
F11.5
sg104
I0
sg105
I0
sg106
I0
sg107
I0
sg108
g228
sg109
I0
sg110
g57
sg111
I0
sg112
I0
sg113
I0
sg114
I18
sg115
I13
sg116
I0
sg117
S'VHS'
p229
sbsS'drop3'
p230
(ijoueur
joueur
p231
(dp232
g27
I0
sg28
I16
sg29
I0
sg30
(ijoueur
rang
p233
(dp234
g33
I4
sg34
S'x'
p235
sg36
g63
sbsg38
(dp236
g40
I0
sg41
I0
sg42
I0
sg43
I0
ssg44
(dp237
g40
I0
sg41
I0
sg42
I1
sg43
I0
ssg46
I0
sg47
I0
sg48
I0
sg49
I0
sg50
I0
sg51
I0
sg52
I0
sg53
(g54
S'AR'
p238
S'CE'
p239
S'DO'
p240
tp241
sg59
(ijoueur
rang
p242
(dp243
g33
I4
sg34
g235
sg36
g63
sbsg64
(dp244
g40
I0
sg41
I0
sg42
I0
sg43
I0
ssg66
(dp245
g40
I0
sg41
I0
sg42
I0
sg43
I0
ssg68
(dp246
g40
I0
sg41
I0
sg42
I1
sg43
I0
ssg70
(dp247
g40
I0
sg41
I0
sg42
I0
sg43
I0
ssg72
I0
sg73
I0
sg74
S'Dunog'
p248
sg76
I2
sg77
I0
sg78
I11
sg79
I150
sg80
g81
sg82
(dp249
g84
I11
sg85
I7
sg86
I8
sg87
I9
sg88
I6
sg89
I10
sg90
I10
sg91
I11
sg92
I10
sg93
I13
sg94
I9
sg95
I7
sg96
I6
sg97
I10
sg98
I8
ssg99
I2
sg100
I0
sg101
I0
sg102
I0
sg103
F10.272727272727273
sg104
I0
sg105
I16
sg106
I0
sg107
I0
sg108
g249
sg109
I0
sg110
g57
sg111
I0
sg112
I0
sg113
I0
sg114
I16
sg115
I16
sg116
I0
sg117
S'CHS'
p250
sbsS'SA_remp1'
p251
(ijoueur
joueur
p252
(dp253
g27
I0
sg28
I0
sg29
I0
sg30
(ijoueur
rang
p254
(dp255
g33
I5
sg34
S'**'
p256
sg36
g37
sbsg38
(dp257
g40
I0
sg41
I0
sg42
I0
sg43
I0
ssg44
(dp258
g40
I0
sg41
I0
sg42
I0
sg43
I0
ssg46
I0
sg47
I0
sg48
I0
sg49
I0
sg50
I0
sg51
I0
sg52
I0
sg53
(g54
S'DL'
p259
g57
g57
tp260
sg59
(ijoueur
rang
p261
(dp262
g33
I5
sg34
S'**'
p263
sg36
g37
sbsg64
(dp264
g40
I0
sg41
I0
sg42
I1
sg43
I0
ssg66
(dp265
g40
I0
sg41
I0
sg42
I0
sg43
I0
ssg68
(dp266
g40
I0
sg41
I0
sg42
I0
sg43
I0
ssg70
(dp267
g40
I0
sg41
I0
sg42
I1
sg43
I0
ssg72
I0
sg73
I0
sg74
S'Figuenol'
p268
sg76
I1
sg77
I0
sg78
I11
sg79
I105
sg80
g81
sg82
(dp269
g84
I12
sg85
I9
sg86
I6
sg87
I10
sg88
I11
sg89
I9
sg90
I3
sg91
I9
sg92
I5
sg93
I9
sg94
I9
sg95
I7
sg96
I3
sg97
I7
sg98
I7
ssg99
I2
sg100
I0
sg101
I0
sg102
I0
sg103
F9.058823529411764
sg104
I0
sg105
I0
sg106
I0
sg107
I0
sg108
g269
sg109
I0
sg110
g57
sg111
I0
sg112
I0
sg113
I0
sg114
I11
sg115
I11
sg116
I0
sg117
g118
sbsS'drop2'
p270
g141
sS'SA_remp2'
p271
(ijoueur
joueur
p272
(dp273
g27
I0
sg28
I0
sg29
I0
sg30
(ijoueur
rang
p274
(dp275
g33
I5
sg34
S'xx'
p276
sg36
g37
sbsg38
(dp277
g40
I0
sg41
I0
sg42
I0
sg43
I0
ssg44
(dp278
g40
I0
sg41
I0
sg42
I0
sg43
I0
ssg46
I0
sg47
I0
sg48
I0
sg49
I0
sg50
I0
sg51
I0
sg52
I0
sg53
(g54
S'PI'
p279
S'DL'
p280
g57
tp281
sg59
(ijoueur
rang
p282
(dp283
g33
I5
sg34
S'xx'
p284
sg36
g37
sbsg64
(dp285
g40
I0
sg41
I0
sg42
I0
sg43
I1
ssg66
(dp286
g40
I0
sg41
I0
sg42
I0
sg43
I0
ssg68
(dp287
g40
I0
sg41
I0
sg42
I0
sg43
I0
ssg70
(dp288
g40
I0
sg41
I0
sg42
I0
sg43
I1
ssg72
I0
sg73
I0
sg74
S'Lorvhend'
p289
sg76
I1
sg77
I0
sg78
I17
sg79
I583
sg80
g81
sg82
(dp290
g84
I14
sg85
I9
sg86
I11
sg87
I10
sg88
I11
sg89
I9
sg90
I4
sg91
I13
sg92
I7
sg93
I11
sg94
I9
sg95
I8
sg96
I4
sg97
I9
sg98
I8
ssg99
I4
sg100
I0
sg101
I0
sg102
I0
sg103
F10.176470588235293
sg104
I0
sg105
I0
sg106
I0
sg107
I0
sg108
g290
sg109
I0
sg110
S'MSL9'
p291
sg111
I0
sg112
I0
sg113
I0
sg114
I47
sg115
I2
sg116
I0
sg117
S'CV'
p292
sbssS'totaux'
p293
(dp294
g19
I0
sg20
I0
sg21
I0
ssS'_compo_defaut_fatigue'
p295
Nsg82
(dp296
g4
I0
sg5
I0
sg6
I0
sg7
I0
sg8
I0
sg9
I0
sg10
I0
sg11
I0
sg12
I0
sg13
I0
sg14
I0
sg15
I0
sg16
I0
ssS'joueurs'
p297
(dp298
S'n12'
p299
g25
sS'n13'
p300
(ijoueur
joueur
p301
(dp302
g27
I0
sg28
I0
sg29
I0
sg30
(ijoueur
rang
p303
(dp304
g33
I5
sg34
S'**'
p305
sg36
g37
sbsg38
(dp306
g40
I0
sg41
I0
sg42
I0
sg43
I1
ssg44
(dp307
g40
I0
sg41
I0
sg42
I0
sg43
I0
ssg46
I0
sg47
I0
sg48
I0
sg49
I0
sg50
I0
sg51
I0
sg52
I0
sg53
(g54
S'DO'
p308
S'CE'
p309
S'AI'
p310
tp311
sg59
(ijoueur
rang
p312
(dp313
g33
I5
sg34
S'**'
p314
sg36
g37
sbsg64
(dp315
g40
I0
sg41
I0
sg42
I0
sg43
I0
ssg66
(dp316
g40
I0
sg41
I0
sg42
I0
sg43
I1
ssg68
(dp317
g40
I0
sg41
I0
sg42
I0
sg43
I0
ssg70
(dp318
g40
I0
sg41
I0
sg42
I0
sg43
I0
ssg72
I0
sg73
I0
sg74
S'Lebat'
p319
sg76
I6
sg77
I0
sg78
I14
sg79
I435
sg80
g81
sg82
(dp320
g84
I13
sg85
I5
sg86
I6
sg87
I11
sg88
I6
sg89
I12
sg90
I9
sg91
I12
sg92
I7
sg93
I13
sg94
I9
sg95
I8
sg96
I8
sg97
I14
sg98
I7
ssg99
I3
sg100
I0
sg101
I0
sg102
I0
sg103
F10.757575757575758
sg104
I0
sg105
I0
sg106
I0
sg107
I0
sg108
g320
sg109
I0
sg110
S'MDL11'
p321
sg111
I0
sg112
I0
sg113
I0
sg114
I53
sg115
I16
sg116
I0
sg117
S'OG'
p322
sbsS'n10'
p323
g141
sS'n11'
p324
(ijoueur
joueur
p325
(dp326
g27
I0
sg28
I0
sg29
I0
sg30
(ijoueur
rang
p327
(dp328
g33
I4
sg34
g62
sg36
g63
sbsg38
(dp329
g40
I0
sg41
I0
sg42
I0
sg43
I1
ssg44
(dp330
g40
I0
sg41
I0
sg42
I0
sg43
I0
ssg46
I0
sg47
I0
sg48
I0
sg49
I0
sg50
I1
sg51
I0
sg52
I0
sg53
(g54
S'AR'
p331
S'AI'
p332
g57
tp333
sg59
(ijoueur
rang
p334
(dp335
g33
I4
sg34
g62
sg36
g63
sbsg64
(dp336
g40
I0
sg41
I0
sg42
I0
sg43
I0
ssg66
(dp337
g40
I0
sg41
I0
sg42
I0
sg43
I1
ssg68
(dp338
g40
I0
sg41
I0
sg42
I0
sg43
I0
ssg70
(dp339
g40
I0
sg41
I0
sg42
I0
sg43
I0
ssg72
I0
sg73
I0
sg74
S'Humberdt'
p340
sg76
I7
sg77
I0
sg78
I15
sg79
I166
sg80
g81
sg82
(dp341
g84
I10
sg85
I5
sg86
I11
sg87
I11
sg88
I3
sg89
I11
sg90
I9
sg91
I15
sg92
I7
sg93
I10
sg94
I9
sg95
I8
sg96
I10
sg97
I10
sg98
I2
ssg99
I3
sg100
I0
sg101
I0
sg102
I0
sg103
F10.454545454545455
sg104
I0
sg105
I0
sg106
I0
sg107
I0
sg108
g341
sg109
I0
sg110
S'HTH11'
p342
sg111
I0
sg112
I0
sg113
I0
sg114
I11
sg115
I8
sg116
I0
sg117
S'EMP'
p343
sbsS'n16'
p344
(ijoueur
joueur
p345
(dp346
g27
I0
sg28
I0
sg29
I0
sg30
(ijoueur
rang
p347
(dp348
g33
I4
sg34
g62
sg36
g63
sbsg38
(dp349
g40
I0
sg41
I0
sg42
I0
sg43
I0
ssg44
(dp350
g40
I0
sg41
I0
sg42
I0
sg43
I0
ssg46
I0
sg47
I0
sg48
I0
sg49
I0
sg50
I1
sg51
I0
sg52
I0
sg53
(g54
S'TA'
p351
g57
g57
tp352
sg59
(ijoueur
rang
p353
(dp354
g33
I4
sg34
g62
sg36
g63
sbsg64
(dp355
g40
I0
sg41
I0
sg42
I1
sg43
I0
ssg66
(dp356
g40
I0
sg41
I0
sg42
I0
sg43
I0
ssg68
(dp357
g40
I0
sg41
I0
sg42
I0
sg43
I0
ssg70
(dp358
g40
I0
sg41
I0
sg42
I1
sg43
I0
ssg72
I0
sg73
I0
sg74
S'Zepaul'
p359
sg76
I10
sg77
I0
sg78
I21
sg79
I98
sg80
g81
sg82
(dp360
g84
I9
sg85
I9
sg86
I8
sg87
I8
sg88
I8
sg89
I10
sg90
I3
sg91
I11
sg92
I5
sg93
I8
sg94
I8
sg95
I9
sg96
I4
sg97
I8
sg98
I9
ssg99
I1
sg100
I0
sg101
I0
sg102
I0
sg103
F8.931034482758621
sg104
I0
sg105
I0
sg106
I0
sg107
I0
sg108
g360
sg109
I0
sg110
g57
sg111
I0
sg112
I0
sg113
I0
sg114
I7
sg115
I1
sg116
I0
sg117
g118
sbsS'n17'
p361
(ijoueur
joueur
p362
(dp363
g27
I0
sg28
I0
sg29
I0
sg30
(ijoueur
rang
p364
(dp365
g33
I4
sg34
g62
sg36
g63
sbsg38
(dp366
g40
I0
sg41
I0
sg42
I0
sg43
I0
ssg44
(dp367
g40
I0
sg41
I0
sg42
I0
sg43
I0
ssg46
I0
sg47
I0
sg48
I0
sg49
I0
sg50
I0
sg51
I0
sg52
I0
sg53
(g54
S'TA'
p368
S'PI'
p369
g57
tp370
sg59
(ijoueur
rang
p371
(dp372
g33
I5
sg34
S'**'
p373
sg36
g37
sbsg64
(dp374
g40
I0
sg41
I0
sg42
I0
sg43
I0
ssg66
(dp375
g40
I0
sg41
I0
sg42
I0
sg43
I0
ssg68
(dp376
g40
I0
sg41
I0
sg42
I0
sg43
I0
ssg70
(dp377
g40
I0
sg41
I0
sg42
I0
sg43
I0
ssg72
I0
sg73
I0
sg74
S'Ortiens'
p378
sg76
I1
sg77
I0
sg78
I13
sg79
I110
sg80
g81
sg82
(dp379
g84
I9
sg85
I9
sg86
I7
sg87
I11
sg88
I7
sg89
I9
sg90
I2
sg91
I9
sg92
I5
sg93
I11
sg94
I7
sg95
I6
sg96
I4
sg97
I8
sg98
I10
ssg99
I0
sg100
I0
sg101
I0
sg102
I0
sg103
F8.655172413793103
sg104
I0
sg105
I0
sg106
I0
sg107
I0
sg108
g379
sg109
I0
sg110
g57
sg111
I0
sg112
I0
sg113
I0
sg114
I11
sg115
I7
sg116
I0
sg117
g118
sbsS'n14'
p380
(ijoueur
joueur
p381
(dp382
g27
I0
sg28
I0
sg29
I0
sg30
(ijoueur
rang
p383
(dp384
g33
I5
sg34
S'**'
p385
sg36
g37
sbsg38
(dp386
g40
I0
sg41
I0
sg42
I0
sg43
I0
ssg44
(dp387
g40
I0
sg41
I0
sg42
I0
sg43
I0
ssg46
I0
sg47
I0
sg48
I0
sg49
I0
sg50
I0
sg51
I0
sg52
I0
sg53
(g54
S'DM'
p388
S'CE'
p389
S'AI'
p390
tp391
sg59
(ijoueur
rang
p392
(dp393
g33
I5
sg34
S'**'
p394
sg36
g37
sbsg64
(dp395
g40
I0
sg41
I0
sg42
I0
sg43
I1
ssg66
(dp396
g40
I0
sg41
I0
sg42
I0
sg43
I0
ssg68
(dp397
g40
I0
sg41
I0
sg42
I0
sg43
I0
ssg70
(dp398
g40
I0
sg41
I0
sg42
I0
sg43
I1
ssg72
I0
sg73
I0
sg74
S'Netard'
p399
sg76
I6
sg77
I0
sg78
I15
sg79
I110
sg80
g81
sg82
(dp400
g84
I10
sg85
I5
sg86
I11
sg87
I13
sg88
I7
sg89
I10
sg90
I6
sg91
I14
sg92
I5
sg93
I11
sg94
I8
sg95
I6
sg96
I6
sg97
I10
sg98
I7
ssg99
I4
sg100
I0
sg101
I0
sg102
I0
sg103
F9.758620689655173
sg104
I0
sg105
I0
sg106
I0
sg107
I0
sg108
g400
sg109
I0
sg110
g57
sg111
I0
sg112
I0
sg113
I0
sg114
I11
sg115
I11
sg116
I0
sg117
g118
sbsS'n15'
p401
(ijoueur
joueur
p402
(dp403
g27
I0
sg28
I0
sg29
I0
sg30
(ijoueur
rang
p404
(dp405
g33
I5
sg34
S'**'
p406
sg36
g37
sbsg38
(dp407
g40
I0
sg41
I0
sg42
I0
sg43
I0
ssg44
(dp408
g40
I0
sg41
I0
sg42
I0
sg43
I0
ssg46
I0
sg47
I0
sg48
I0
sg49
I0
sg50
I1
sg51
I0
sg52
I0
sg53
(g54
S'AR'
p409
S'AI'
p410
S'CE'
p411
tp412
sg59
(ijoueur
rang
p413
(dp414
g33
I5
sg34
S'**'
p415
sg36
g37
sbsg64
(dp416
g40
I0
sg41
I0
sg42
I0
sg43
I1
ssg66
(dp417
g40
I0
sg41
I0
sg42
I0
sg43
I0
ssg68
(dp418
g40
I0
sg41
I0
sg42
I0
sg43
I0
ssg70
(dp419
g40
I0
sg41
I0
sg42
I0
sg43
I1
ssg72
I0
sg73
I0
sg74
S'Ythrend'
p420
sg76
I8
sg77
I0
sg78
I22
sg79
I339
sg80
g81
sg82
(dp421
g84
I13
sg85
I6
sg86
I14
sg87
I11
sg88
I9
sg89
I9
sg90
I9
sg91
I16
sg92
I12
sg93
I13
sg94
I9
sg95
I10
sg96
I6
sg97
I13
sg98
I7
ssg99
I6
sg100
I0
sg101
I0
sg102
I0
sg103
F12.333333333333334
sg104
I0
sg105
I0
sg106
I0
sg107
I0
sg108
g421
sg109
I0
sg110
S'APA11'
p422
sg111
I0
sg112
I0
sg113
I0
sg114
I22
sg115
I6
sg116
I0
sg117
S'CV'
p423
sbsS'n18'
p424
g252
sS'n19'
p425
(ijoueur
joueur
p426
(dp427
g27
I0
sg28
I0
sg29
I0
sg30
(ijoueur
rang
p428
(dp429
g33
I4
sg34
g62
sg36
g63
sbsg38
(dp430
g40
I0
sg41
I0
sg42
I0
sg43
I0
ssg44
(dp431
g40
I0
sg41
I0
sg42
I0
sg43
I0
ssg46
I0
sg47
I0
sg48
I0
sg49
I0
sg50
I0
sg51
I0
sg52
I0
sg53
(g54
S'TL'
p432
g57
g57
tp433
sg59
(ijoueur
rang
p434
(dp435
g33
I4
sg34
g62
sg36
g63
sbsg64
(dp436
g40
I0
sg41
I0
sg42
I0
sg43
I1
ssg66
(dp437
g40
I0
sg41
I0
sg42
I0
sg43
I0
ssg68
(dp438
g40
I0
sg41
I0
sg42
I0
sg43
I0
ssg70
(dp439
g40
I0
sg41
I0
sg42
I0
sg43
I1
ssg72
I0
sg73
I0
sg74
S'Zurung'
p440
sg76
I3
sg77
I0
sg78
I9
sg79
I97
sg80
g81
sg82
(dp441
g84
I10
sg85
I10
sg86
I7
sg87
I10
sg88
I9
sg89
I7
sg90
I1
sg91
I7
sg92
I4
sg93
I8
sg94
I8
sg95
I9
sg96
I3
sg97
I10
sg98
I3
ssg99
I6
sg100
I0
sg101
I0
sg102
I0
sg103
F9.129032258064516
sg104
I0
sg105
I0
sg106
I0
sg107
I0
sg108
g441
sg109
I0
sg110
g57
sg111
I0
sg112
I0
sg113
I0
sg114
I9
sg115
I9
sg116
I0
sg117
S'HB'
p442
sbsS'n22'
p443
(ijoueur
joueur
p444
(dp445
g27
I0
sg28
I0
sg29
I0
sg30
(ijoueur
rang
p446
(dp447
g33
I1
sg34
S'<'
p448
sg36
S'base'
p449
sbsg38
(dp450
g40
I0
sg41
I0
sg42
I0
sg43
I0
ssg44
(dp451
g40
I0
sg41
I0
sg42
I0
sg43
I0
ssg46
I0
sg47
I0
sg48
I19
sg49
I16
sg50
I0
sg51
I0
sg52
I4
sg53
(g54
S'AI'
p452
S'CE'
p453
S'AR'
p454
tp455
sg59
(ijoueur
rang
p456
(dp457
g33
I2
sg34
S'<<'
p458
sg36
S'special'
p459
sbsg64
(dp460
g40
I0
sg41
I0
sg42
I0
sg43
I1
ssg66
(dp461
g40
I0
sg41
I0
sg42
I0
sg43
I0
ssg68
(dp462
g40
I0
sg41
I0
sg42
I0
sg43
I0
ssg70
(dp463
g40
I0
sg41
I0
sg42
I0
sg43
I1
ssg72
I16
sg73
I4
sg74
S'Ilaeth'
p464
sg76
I3
sg77
I19
sg78
I12
sg79
I34
sg80
g81
sg82
(dp465
g84
I11
sg85
I6
sg86
I6
sg87
I10
sg88
I6
sg89
I9
sg90
I8
sg91
I9
sg92
I8
sg93
I10
sg94
I11
sg95
I7
sg96
I11
sg97
I10
sg98
I4
ssg99
I3
sg100
I0
sg101
I0
sg102
I0
sg103
F10.0
sg104
I0
sg105
I0
sg106
I0
sg107
I0
sg108
g465
sg109
I0
sg110
g57
sg111
I1
sg112
I0
sg113
I1
sg114
I3
sg115
I7
sg116
I0
sg117
S'HE'
p466
sbsS'n21'
p467
(ijoueur
joueur
p468
(dp469
g27
I0
sg28
I18
sg29
I0
sg30
(ijoueur
rang
p470
(dp471
g33
I4
sg34
g62
sg36
g63
sbsg38
(dp472
g40
I0
sg41
I0
sg42
I0
sg43
I1
ssg44
(dp473
g40
I0
sg41
I0
sg42
I0
sg43
I0
ssg46
I0
sg47
I0
sg48
I2
sg49
I11
sg50
I0
sg51
I0
sg52
I0
sg53
(g54
S'C1'
p474
S'DO'
p475
S'AR'
p476
tp477
sg59
(ijoueur
rang
p478
(dp479
g33
I4
sg34
g62
sg36
g63
sbsg64
(dp480
g40
I0
sg41
I0
sg42
I0
sg43
I0
ssg66
(dp481
g40
I0
sg41
I0
sg42
I0
sg43
I1
ssg68
(dp482
g40
I0
sg41
I0
sg42
I0
sg43
I0
ssg70
(dp483
g40
I0
sg41
I0
sg42
I0
sg43
I0
ssg72
I11
sg73
I0
sg74
S'Vendt'
p484
sg76
I7
sg77
I2
sg78
I19
sg79
I87
sg80
g81
sg82
(dp485
g84
I12
sg85
I5
sg86
I13
sg87
I10
sg88
I6
sg89
I9
sg90
I10
sg91
I15
sg92
I8
sg93
I9
sg94
I9
sg95
I6
sg96
I9
sg97
I10
sg98
I6
ssg99
I5
sg100
I0
sg101
I0
sg102
I0
sg103
F10.3
sg104
I0
sg105
I18
sg106
I0
sg107
I0
sg108
g485
sg109
I0
sg110
S'KHR9'
p486
sg111
I0
sg112
I1
sg113
I0
sg114
I13
sg115
I10
sg116
I0
sg117
S'EMP'
p487
sbsS'n20'
p488
g231
sS'n8'
p489
(ijoueur
joueur
p490
(dp491
g27
I0
sg28
I0
sg29
I0
sg30
(ijoueur
rang
p492
(dp493
g33
I2
sg34
S'^^'
p494
sg36
g459
sbsg38
(dp495
g40
I0
sg41
I0
sg42
I0
sg43
I0
ssg44
(dp496
g40
I0
sg41
I0
sg42
I0
sg43
I0
ssg46
I0
sg47
I0
sg48
I0
sg49
I0
sg50
I0
sg51
I0
sg52
I0
sg53
(g54
S'N8'
p497
S'DL'
p498
g57
tp499
sg59
(ijoueur
rang
p500
(dp501
g33
I2
sg34
S'^^'
p502
sg36
g459
sbsg64
(dp503
g40
I0
sg41
I0
sg42
I1
sg43
I0
ssg66
(dp504
g40
I0
sg41
I0
sg42
I0
sg43
I0
ssg68
(dp505
g40
I0
sg41
I0
sg42
I0
sg43
I0
ssg70
(dp506
g40
I0
sg41
I0
sg42
I1
sg43
I0
ssg72
I0
sg73
I0
sg74
S'Gorog'
p507
sg76
I3
sg77
I0
sg78
I12
sg79
I105
sg80
g81
sg82
(dp508
g84
I10
sg85
I10
sg86
I7
sg87
I7
sg88
I7
sg89
I11
sg90
I0
sg91
I11
sg92
I1
sg93
I7
sg94
I9
sg95
I8
sg96
I0
sg97
I10
sg98
I5
ssg99
I2
sg100
I0
sg101
I0
sg102
I0
sg103
F9.137931034482758
sg104
I0
sg105
I0
sg106
I0
sg107
I0
sg108
g508
sg109
I0
sg110
S'MDL8'
p509
sg111
I0
sg112
I0
sg113
I0
sg114
I5
sg115
I1
sg116
I0
sg117
S'OG'
p510
sbsS'n9'
p511
g164
sS'n1'
p512
g272
sS'n2'
p513
(ijoueur
joueur
p514
(dp515
g27
I0
sg28
I0
sg29
I0
sg30
(ijoueur
rang
p516
(dp517
g33
I5
sg34
S'**'
p518
sg36
g37
sbsg38
(dp519
g40
I0
sg41
I0
sg42
I0
sg43
I0
ssg44
(dp520
g40
I0
sg41
I0
sg42
I0
sg43
I0
ssg46
I0
sg47
I0
sg48
I0
sg49
I0
sg50
I0
sg51
I0
sg52
I0
sg53
(g54
S'TA'
p521
S'DL'
p522
g57
tp523
sg59
(ijoueur
rang
p524
(dp525
g33
I5
sg34
S'**'
p526
sg36
g37
sbsg64
(dp527
g40
I0
sg41
I0
sg42
I0
sg43
I1
ssg66
(dp528
g40
I0
sg41
I0
sg42
I0
sg43
I0
ssg68
(dp529
g40
I0
sg41
I0
sg42
I0
sg43
I0
ssg70
(dp530
g40
I0
sg41
I0
sg42
I0
sg43
I1
ssg72
I0
sg73
I0
sg74
S'Draofoey'
p531
sg76
I7
sg77
I0
sg78
I23
sg79
I224
sg80
g81
sg82
(dp532
g84
I12
sg85
I9
sg86
I7
sg87
I12
sg88
I9
sg89
I11
sg90
I3
sg91
I11
sg92
I7
sg93
I11
sg94
I7
sg95
I9
sg96
I6
sg97
I12
sg98
I12
ssg99
I1
sg100
I0
sg101
I0
sg102
I0
sg103
F10.724137931034482
sg104
I0
sg105
I0
sg106
I0
sg107
I0
sg108
g532
sg109
I0
sg110
g57
sg111
I0
sg112
I0
sg113
I0
sg114
I22
sg115
I1
sg116
I0
sg117
S'CHS'
p533
sbsS'n3'
p534
(ijoueur
joueur
p535
(dp536
g27
I0
sg28
I0
sg29
I0
sg30
(ijoueur
rang
p537
(dp538
g33
I4
sg34
g62
sg36
g63
sbsg38
(dp539
g40
I0
sg41
I0
sg42
I0
sg43
I0
ssg44
(dp540
g40
I0
sg41
I0
sg42
I0
sg43
I0
ssg46
I0
sg47
I0
sg48
I0
sg49
I0
sg50
I0
sg51
I0
sg52
I0
sg53
(g54
S'PI'
p541
S'TA'
p542
g57
tp543
sg59
(ijoueur
rang
p544
(dp545
g33
I4
sg34
g62
sg36
g63
sbsg64
(dp546
g40
I0
sg41
I0
sg42
I1
sg43
I0
ssg66
(dp547
g40
I0
sg41
I0
sg42
I0
sg43
I0
ssg68
(dp548
g40
I0
sg41
I0
sg42
I0
sg43
I0
ssg70
(dp549
g40
I0
sg41
I0
sg42
I1
sg43
I0
ssg72
I0
sg73
I0
sg74
S'Harounk'
p550
sg76
I4
sg77
I0
sg78
I11
sg79
I136
sg80
g81
sg82
(dp551
g84
I8
sg85
I9
sg86
I9
sg87
I9
sg88
I8
sg89
I9
sg90
I3
sg91
I11
sg92
I4
sg93
I8
sg94
I7
sg95
I11
sg96
I4
sg97
I8
sg98
I8
ssg99
I2
sg100
I0
sg101
I0
sg102
I0
sg103
F9.407407407407407
sg104
I0
sg105
I0
sg106
I0
sg107
I0
sg108
g551
sg109
I0
sg110
g57
sg111
I0
sg112
I0
sg113
I0
sg114
I13
sg115
I12
sg116
I0
sg117
S'HB'
p552
sbsS'n4'
p553
g120
sS'n5'
p554
g211
sS'n6'
p555
(ijoueur
joueur
p556
(dp557
g27
I0
sg28
I0
sg29
I0
sg30
(ijoueur
rang
p558
(dp559
g33
I4
sg34
g62
sg36
g63
sbsg38
(dp560
g40
I0
sg41
I0
sg42
I0
sg43
I0
ssg44
(dp561
g40
I0
sg41
I0
sg42
I0
sg43
I0
ssg46
I0
sg47
I0
sg48
I0
sg49
I0
sg50
I0
sg51
I0
sg52
I0
sg53
(g54
S'N8'
p562
S'TL'
p563
g57
tp564
sg59
(ijoueur
rang
p565
(dp566
g33
I4
sg34
g62
sg36
g63
sbsg64
(dp567
g40
I0
sg41
I0
sg42
I0
sg43
I0
ssg66
(dp568
g40
I0
sg41
I0
sg42
I0
sg43
I0
ssg68
(dp569
g40
I0
sg41
I0
sg42
I0
sg43
I0
ssg70
(dp570
g40
I0
sg41
I0
sg42
I0
sg43
I0
ssg72
I0
sg73
I0
sg74
S'Gramoun'
p571
sg76
I8
sg77
I0
sg78
I23
sg79
I163
sg80
g81
sg82
(dp572
g84
I9
sg85
I10
sg86
I8
sg87
I9
sg88
I7
sg89
I13
sg90
I8
sg91
I14
sg92
I7
sg93
I9
sg94
I10
sg95
I10
sg96
I9
sg97
I11
sg98
I5
ssg99
I0
sg100
I0
sg101
I0
sg102
I0
sg103
F10.586206896551724
sg104
I0
sg105
I0
sg106
I0
sg107
I0
sg108
g572
sg109
I0
sg110
S'ED10'
p573
sg111
I0
sg112
I0
sg113
I0
sg114
I12
sg115
I3
sg116
I0
sg117
S'OG'
p574
sbsS'n7'
p575
g191
ssS'remplacements'
p576
(dp577
g344
S'n0'
p578
sg361
g578
sg424
g578
sg425
g578
sg443
g578
sg467
g578
sg488
g578
ssb.