(iclub
compo
p0
(dp1
S'caracs_old'
p2
(dp3
S'A'
p4
F167.5
sS'ME'
p5
F94.5
sS'E'
p6
I221
sS'OplusAV'
p7
F71.0
sS'TO_off'
p8
F142.0
sS'OplusAR'
p9
F87.0
sS'M'
p10
F54.5
sS'JP'
p11
F104.5
sS'OmoinsAR'
p12
F75.0
sS'PA'
p13
F123.5
sS'TO_def'
p14
F133.5
sS'OmoinsAV'
p15
F80.5
sS'R'
p16
F201.0
ssS'totaux_old'
p17
(dp18
S'T2'
p19
F197.75
sS'T3'
p20
F110.5
sS'T1'
p21
F216.625
ssS'roles'
p22
(dp23
S'drop1'
p24
(ijoueur
joueur
p25
(dp26
S'rouges_total'
p27
I0
sS'drops_total'
p28
I9
sS'blessure'
p29
I0
sS'RG_max'
p30
(ijoueur
rang
p31
(dp32
S'type_nb'
p33
I4
sS'rang'
p34
S'*'
p35
sS'type'
p36
S'heros'
p37
sbsS'MJ2_total'
p38
(dp39
S'SR'
p40
I0
sS'CT'
p41
I0
sS'CR'
p42
I0
sS'ST'
p43
I0
ssS'MJ3_total'
p44
(dp45
g40
I0
sg41
I0
sg42
I0
sg43
I0
ssS'drop_rates_total'
p46
I0
sS'drop_rates_saison'
p47
I0
sS'essais_saison'
p48
I1
sS'penalite_ratees_saison'
p49
I0
sS'transformations_saison'
p50
I0
sS'postes'
p51
(S'dummy'
p52
S'C1'
p53
S'AR'
p54
S'AI'
p55
tp56
sS'RG'
p57
(ijoueur
rang
p58
(dp59
g33
I4
sg34
g35
sg36
g37
sbsS'MJ1'
p60
(dp61
g40
I0
sg41
I1
sg42
I0
sg43
I0
ssS'MJ2'
p62
(dp63
g40
I0
sg41
I0
sg42
I0
sg43
I0
ssS'MJ3'
p64
(dp65
g40
I0
sg41
I0
sg42
I0
sg43
I0
ssS'MJ1_total'
p66
(dp67
g40
I0
sg41
I1
sg42
I0
sg43
I0
ssS'penalites_total'
p68
I0
sS'penalites_saison'
p69
I0
sS'nom'
p70
S'Soled'
p71
sS'C'
p72
I5
sS'transformations_total'
p73
I0
sS'D'
p74
I18
sS'VAL'
p75
I133
sS'club'
p76
S'KHR'
p77
sS'caracs'
p78
(dp79
S'A'
p80
I14
sS'ME'
p81
I6
sS'RP2'
p82
I9
sS'E'
p83
I11
sS'P'
p84
I8
sS'RP1'
p85
I9
sS'JP'
p86
I11
sS'RP_tot'
p87
I11
sS'TO'
p88
I9
sS'PA'
p89
I14
sS'M'
p90
I10
sS'R'
p91
I7
sS'TB'
p92
I8
sS'PL'
p93
I11
sS'TA'
p94
I5
ssS'fatigue'
p95
I3
sS'drop_ratees_total'
p96
I0
sS'blessures_total'
p97
I0
sS'XP'
p98
I0
sS'EV'
p99
F11.233333333333333
sS'penalite_ratees_total'
p100
I0
sS'blessures_saison'
p101
I0
sS'jaunes_total'
p102
I0
sS'caracs_sans_fatigue'
p103
g79
sS'rouges_saison'
p104
I0
sS'anciens_clubs'
p105
S''
p106
sS'transformation_ratees_total'
p107
I0
sS'drops_saison'
p108
I1
sS'transformation_ratees_saison'
p109
I0
sS'MS'
p110
I8
sS'essais_total'
p111
I9
sS'jaunes_saison'
p112
I0
sS'ARM'
p113
S'ES'
p114
sbsS'SA_scd'
p115
(ijoueur
joueur
p116
(dp117
g27
I0
sg28
I0
sg29
I0
sg30
(ijoueur
rang
p118
(dp119
g33
I4
sg34
g35
sg36
g37
sbsg38
(dp120
g40
I0
sg41
I0
sg42
I0
sg43
I0
ssg44
(dp121
g40
I0
sg41
I0
sg42
I0
sg43
I0
ssg46
I0
sg47
I0
sg48
I0
sg49
I0
sg50
I0
sg51
(g52
S'DL'
p122
S'N8'
p123
g106
tp124
sg57
(ijoueur
rang
p125
(dp126
g33
I4
sg34
g35
sg36
g37
sbsg60
(dp127
g40
I0
sg41
I1
sg42
I0
sg43
I0
ssg62
(dp128
g40
I0
sg41
I0
sg42
I0
sg43
I0
ssg64
(dp129
g40
I0
sg41
I0
sg42
I0
sg43
I0
ssg66
(dp130
g40
I0
sg41
I1
sg42
I0
sg43
I0
ssg68
I0
sg69
I0
sg70
S'Vyenzhol'
p131
sg72
I7
sg73
I0
sg74
I14
sg75
I152
sg76
g77
sg78
(dp132
g80
I11
sg81
I13
sg82
I6
sg83
I9
sg84
I3
sg85
I11
sg86
I4
sg87
I11
sg88
I14
sg89
I10
sg90
I9
sg91
I9
sg92
I2
sg93
I10
sg94
I6
ssg95
I1
sg96
I0
sg97
I0
sg98
I0
sg99
F11.0
sg100
I0
sg101
I0
sg102
I0
sg103
g132
sg104
I0
sg105
g106
sg107
I0
sg108
I0
sg109
I0
sg110
I15
sg111
I5
sg112
I0
sg113
S'CHS'
p133
sbsS'RJL'
p134
(ijoueur
joueur
p135
(dp136
g27
I0
sg28
I17
sg29
I0
sg30
(ijoueur
rang
p137
(dp138
g33
I5
sg34
S'**'
p139
sg36
S'seigneur'
p140
sbsg38
(dp141
g40
I0
sg41
I0
sg42
I0
sg43
I0
ssg44
(dp142
g40
I0
sg41
I0
sg42
I0
sg43
I0
ssg46
I0
sg47
I0
sg48
I0
sg49
I0
sg50
I0
sg51
(g52
S'DO'
p143
S'CE'
p144
S'AR'
p145
tp146
sg57
(ijoueur
rang
p147
(dp148
g33
I5
sg34
S'**'
p149
sg36
g140
sbsg60
(dp150
g40
I0
sg41
I1
sg42
I0
sg43
I0
ssg62
(dp151
g40
I0
sg41
I0
sg42
I0
sg43
I0
ssg64
(dp152
g40
I0
sg41
I0
sg42
I0
sg43
I0
ssg66
(dp153
g40
I0
sg41
I1
sg42
I0
sg43
I0
ssg68
I7
sg69
I0
sg70
S'Rotovlav'
p154
sg72
I1
sg73
I0
sg74
I18
sg75
I477
sg76
g77
sg78
(dp155
g80
I12
sg81
I6
sg82
I10
sg83
I11
sg84
I12
sg85
I7
sg86
I13
sg87
I10
sg88
I7
sg89
I11
sg90
I12
sg91
I8
sg92
I8
sg93
I11
sg94
I6
ssg95
I3
sg96
I0
sg97
I0
sg98
I0
sg99
F11.454545454545455
sg100
I0
sg101
I0
sg102
I0
sg103
g155
sg104
I0
sg105
S'KH11'
p156
sg107
I0
sg108
I0
sg109
I0
sg110
I42
sg111
I3
sg112
I0
sg113
S'CV'
p157
sbsS'cap'
p158
(ijoueur
joueur
p159
(dp160
g27
I0
sg28
I0
sg29
I0
sg30
(ijoueur
rang
p161
(dp162
g33
I5
sg34
S'**'
p163
sg36
g140
sbsg38
(dp164
g40
I0
sg41
I0
sg42
I0
sg43
I0
ssg44
(dp165
g40
I0
sg41
I0
sg42
I0
sg43
I0
ssg46
I0
sg47
I0
sg48
I0
sg49
I0
sg50
I0
sg51
(g52
S'DL'
p166
g106
g106
tp167
sg57
(ijoueur
rang
p168
(dp169
g33
I5
sg34
S'**'
p170
sg36
g140
sbsg60
(dp171
g40
I0
sg41
I1
sg42
I0
sg43
I0
ssg62
(dp172
g40
I0
sg41
I0
sg42
I0
sg43
I0
ssg64
(dp173
g40
I0
sg41
I0
sg42
I0
sg43
I0
ssg66
(dp174
g40
I0
sg41
I1
sg42
I0
sg43
I0
ssg68
I0
sg69
I0
sg70
S'Yoenthor'
p175
sg72
I5
sg73
I0
sg74
I13
sg75
I997
sg76
g77
sg78
(dp176
g80
I14
sg81
I10
sg82
I9
sg83
I13
sg84
I7
sg85
I10
sg86
I6
sg87
I12
sg88
I14
sg89
I11
sg90
I9
sg91
I11
sg92
I6
sg93
I12
sg94
I6
ssg95
I3
sg96
I0
sg97
I0
sg98
I0
sg99
F12.088235294117647
sg100
I0
sg101
I0
sg102
I0
sg103
g176
sg104
I0
sg105
S'MRB8;TO10'
p177
sg107
I0
sg108
I0
sg109
I0
sg110
I64
sg111
I13
sg112
I0
sg113
S'EN'
p178
sbsS'B4'
p179
(ijoueur
joueur
p180
(dp181
g27
I0
sg28
I5
sg29
I0
sg30
(ijoueur
rang
p182
(dp183
g33
I2
sg34
S'^^'
p184
sg36
S'special'
p185
sbsg38
(dp186
g40
I0
sg41
I0
sg42
I0
sg43
I0
ssg44
(dp187
g40
I0
sg41
I0
sg42
I0
sg43
I0
ssg46
I0
sg47
I0
sg48
I0
sg49
I1
sg50
I2
sg51
(g52
S'AR'
p188
S'AI'
p189
S'CE'
p190
tp191
sg57
(ijoueur
rang
p192
(dp193
g33
I2
sg34
S'^^'
p194
sg36
g185
sbsg60
(dp195
g40
I0
sg41
I1
sg42
I0
sg43
I0
ssg62
(dp196
g40
I0
sg41
I0
sg42
I0
sg43
I0
ssg64
(dp197
g40
I0
sg41
I0
sg42
I0
sg43
I0
ssg66
(dp198
g40
I0
sg41
I1
sg42
I0
sg43
I0
ssg68
I2
sg69
I2
sg70
S'Wydoeth'
p199
sg72
I5
sg73
I2
sg74
I16
sg75
I62
sg76
g77
sg78
(dp200
g80
I10
sg81
I5
sg82
I11
sg83
I10
sg84
I10
sg85
I6
sg86
I11
sg87
I11
sg88
I4
sg89
I10
sg90
I11
sg91
I7
sg92
I10
sg93
I10
sg94
I3
ssg95
I1
sg96
I0
sg97
I0
sg98
I0
sg99
F10.242424242424242
sg100
I1
sg101
I0
sg102
I0
sg103
g200
sg104
I0
sg105
g106
sg107
I0
sg108
I0
sg109
I0
sg110
I4
sg111
I2
sg112
I0
sg113
S'EN'
p201
sbsS'RJC'
p202
g135
sS'B1'
p203
g180
sS'B2'
p204
g180
sS'B3'
p205
g180
sS'SA_pcp2'
p206
(ijoueur
joueur
p207
(dp208
g27
I0
sg28
I0
sg29
I0
sg30
(ijoueur
rang
p209
(dp210
g33
I2
sg34
S'^^'
p211
sg36
g185
sbsg38
(dp212
g40
I0
sg41
I0
sg42
I0
sg43
I0
ssg44
(dp213
g40
I0
sg41
I0
sg42
I0
sg43
I0
ssg46
I0
sg47
I0
sg48
I0
sg49
I0
sg50
I0
sg51
(g52
S'TL'
p214
S'DL'
p215
g106
tp216
sg57
(ijoueur
rang
p217
(dp218
g33
I2
sg34
S'^^'
p219
sg36
g185
sbsg60
(dp220
g40
I0
sg41
I1
sg42
I0
sg43
I0
ssg62
(dp221
g40
I0
sg41
I0
sg42
I0
sg43
I0
ssg64
(dp222
g40
I0
sg41
I0
sg42
I0
sg43
I0
ssg66
(dp223
g40
I0
sg41
I1
sg42
I0
sg43
I0
ssg68
I0
sg69
I0
sg70
S'Filodil'
p224
sg72
I3
sg73
I0
sg74
I13
sg75
I100
sg76
g77
sg78
(dp225
g80
I7
sg81
I9
sg82
I7
sg83
I10
sg84
I7
sg85
I6
sg86
I3
sg87
I7
sg88
I14
sg89
I9
sg90
I8
sg91
I14
sg92
I5
sg93
I14
sg94
I3
ssg95
I4
sg96
I0
sg97
I0
sg98
I0
sg99
F11.578947368421053
sg100
I0
sg101
I0
sg102
I0
sg103
g225
sg104
I0
sg105
S'DKF11'
p226
sg107
I0
sg108
I0
sg109
I0
sg110
I10
sg111
I0
sg112
I0
sg113
S'ES'
p227
sbsS'SA_pcp1'
p228
g159
sS'drop3'
p229
g180
sS'SA_remp1'
p230
(ijoueur
joueur
p231
(dp232
g27
I0
sg28
I0
sg29
I0
sg30
(ijoueur
rang
p233
(dp234
g33
I5
sg34
S'**'
p235
sg36
g140
sbsg38
(dp236
g40
I0
sg41
I0
sg42
I0
sg43
I0
ssg44
(dp237
g40
I0
sg41
I0
sg42
I0
sg43
I0
ssg46
I0
sg47
I0
sg48
I0
sg49
I0
sg50
I0
sg51
(g52
S'DL'
p238
g106
g106
tp239
sg57
(ijoueur
rang
p240
(dp241
g33
I5
sg34
S'**'
p242
sg36
g140
sbsg60
(dp243
g40
I0
sg41
I0
sg42
I1
sg43
I0
ssg62
(dp244
g40
I0
sg41
I0
sg42
I0
sg43
I0
ssg64
(dp245
g40
I0
sg41
I0
sg42
I0
sg43
I0
ssg66
(dp246
g40
I0
sg41
I0
sg42
I1
sg43
I0
ssg68
I0
sg69
I0
sg70
S'Dopregd'
p247
sg72
I6
sg73
I0
sg74
I18
sg75
I153
sg76
g77
sg78
(dp248
g80
I10
sg81
I7
sg82
I7
sg83
I12
sg84
I4
sg85
I10
sg86
I5
sg87
I10
sg88
I13
sg89
I10
sg90
I7
sg91
I8
sg92
I5
sg93
I10
sg94
I4
ssg95
I1
sg96
I0
sg97
I0
sg98
I0
sg99
F10.0
sg100
I0
sg101
I0
sg102
I0
sg103
g248
sg104
I0
sg105
S'MSL9'
p249
sg107
I0
sg108
I0
sg109
I0
sg110
I12
sg111
I1
sg112
I0
sg113
S'HB'
p250
sbsS'drop2'
p251
g135
sS'SA_remp2'
p252
(ijoueur
joueur
p253
(dp254
g27
I0
sg28
I0
sg29
I0
sg30
(ijoueur
rang
p255
(dp256
g33
I5
sg34
S'**'
p257
sg36
g140
sbsg38
(dp258
g40
I0
sg41
I0
sg42
I0
sg43
I0
ssg44
(dp259
g40
I0
sg41
I0
sg42
I0
sg43
I0
ssg46
I0
sg47
I0
sg48
I0
sg49
I0
sg50
I0
sg51
(g52
S'PI'
p260
S'N8'
p261
S'DL'
p262
tp263
sg57
(ijoueur
rang
p264
(dp265
g33
I5
sg34
S'**'
p266
sg36
g140
sbsg60
(dp267
g40
I0
sg41
I1
sg42
I0
sg43
I0
ssg62
(dp268
g40
I0
sg41
I0
sg42
I0
sg43
I0
ssg64
(dp269
g40
I0
sg41
I0
sg42
I0
sg43
I0
ssg66
(dp270
g40
I0
sg41
I1
sg42
I0
sg43
I0
ssg68
I0
sg69
I0
sg70
S'Dylzohed'
p271
sg72
I6
sg73
I0
sg74
I16
sg75
I210
sg76
g77
sg78
(dp272
g80
I10
sg81
I11
sg82
I7
sg83
I11
sg84
I4
sg85
I11
sg86
I2
sg87
I11
sg88
I12
sg89
I12
sg90
I7
sg91
I10
sg92
I4
sg93
I12
sg94
I8
ssg95
I2
sg96
I0
sg97
I0
sg98
I0
sg99
F11.0
sg100
I0
sg101
I0
sg102
I0
sg103
g272
sg104
I0
sg105
g106
sg107
I0
sg108
I0
sg109
I0
sg110
I21
sg111
I12
sg112
I0
sg113
S'CHS'
p273
sbssS'totaux'
p274
(dp275
g19
I0
sg20
I0
sg21
I0
ssS'_compo_defaut_fatigue'
p276
Nsg78
(dp277
g4
I0
sg5
I0
sg6
I0
sg7
I0
sg8
I0
sg9
I0
sg10
I0
sg11
I0
sg12
I0
sg13
I0
sg14
I0
sg15
I0
sg16
I0
ssS'joueurs'
p278
(dp279
S'n12'
p280
g25
sS'n13'
p281
(ijoueur
joueur
p282
(dp283
g27
I0
sg28
I0
sg29
I0
sg30
(ijoueur
rang
p284
(dp285
g33
I3
sg34
S'^^^'
p286
sg36
S'rare'
p287
sbsg38
(dp288
g40
I0
sg41
I0
sg42
I0
sg43
I0
ssg44
(dp289
g40
I0
sg41
I1
sg42
I0
sg43
I0
ssg46
I0
sg47
I0
sg48
I1
sg49
I0
sg50
I0
sg51
(g52
S'AR'
p290
S'AI'
p291
S'CE'
p292
tp293
sg57
(ijoueur
rang
p294
(dp295
g33
I3
sg34
S'^^^'
p296
sg36
g287
sbsg60
(dp297
g40
I0
sg41
I0
sg42
I0
sg43
I0
ssg62
(dp298
g40
I0
sg41
I0
sg42
I0
sg43
I0
ssg64
(dp299
g40
I0
sg41
I1
sg42
I0
sg43
I0
ssg66
(dp300
g40
I0
sg41
I0
sg42
I0
sg43
I0
ssg68
I0
sg69
I0
sg70
S'De Portel'
p301
sg72
I2
sg73
I0
sg74
I15
sg75
I100
sg76
g77
sg78
(dp302
g80
I11
sg81
I5
sg82
I11
sg83
I10
sg84
I10
sg85
I9
sg86
I7
sg87
I13
sg88
I3
sg89
I12
sg90
I10
sg91
I8
sg92
I6
sg93
I9
sg94
I4
ssg95
I3
sg96
I0
sg97
I0
sg98
I0
sg99
F10.393939393939394
sg100
I0
sg101
I0
sg102
I0
sg103
g302
sg104
I0
sg105
S'MSL11'
p303
sg107
I0
sg108
I0
sg109
I0
sg110
I10
sg111
I1
sg112
I0
sg113
S'B'
p304
sbsS'n10'
p305
g135
sS'n11'
p306
(ijoueur
joueur
p307
(dp308
g27
I0
sg28
I0
sg29
I0
sg30
(ijoueur
rang
p309
(dp310
g33
I5
sg34
S'xx'
p311
sg36
g140
sbsg38
(dp312
g40
I0
sg41
I0
sg42
I0
sg43
I0
ssg44
(dp313
g40
I0
sg41
I0
sg42
I0
sg43
I0
ssg46
I0
sg47
I0
sg48
I0
sg49
I0
sg50
I0
sg51
(g52
S'AI'
p314
S'AR'
p315
g106
tp316
sg57
(ijoueur
rang
p317
(dp318
g33
I5
sg34
S'xx'
p319
sg36
g140
sbsg60
(dp320
g40
I0
sg41
I1
sg42
I0
sg43
I0
ssg62
(dp321
g40
I0
sg41
I0
sg42
I0
sg43
I0
ssg64
(dp322
g40
I0
sg41
I0
sg42
I0
sg43
I0
ssg66
(dp323
g40
I0
sg41
I1
sg42
I0
sg43
I0
ssg68
I0
sg69
I0
sg70
S'Thrond'
p324
sg72
I4
sg73
I0
sg74
I11
sg75
I236
sg76
g77
sg78
(dp325
g80
I11
sg81
I6
sg82
I10
sg83
I12
sg84
I7
sg85
I10
sg86
I6
sg87
I13
sg88
I6
sg89
I8
sg90
I9
sg91
I6
sg92
I5
sg93
I12
sg94
I6
ssg95
I4
sg96
I0
sg97
I0
sg98
I0
sg99
F10.580645161290322
sg100
I0
sg101
I0
sg102
I0
sg103
g325
sg104
I0
sg105
g106
sg107
I0
sg108
I0
sg109
I0
sg110
I24
sg111
I16
sg112
I0
sg113
S'N'
p326
sbsS'n16'
p327
(ijoueur
joueur
p328
(dp329
g27
I0
sg28
I0
sg29
I0
sg30
(ijoueur
rang
p330
(dp331
g33
I1
sg34
S'^'
p332
sg36
S'base'
p333
sbsg38
(dp334
g40
I0
sg41
I0
sg42
I0
sg43
I0
ssg44
(dp335
g40
I0
sg41
I0
sg42
I0
sg43
I0
ssg46
I0
sg47
I0
sg48
I0
sg49
I0
sg50
I0
sg51
(g52
S'TA'
p336
g106
g106
tp337
sg57
(ijoueur
rang
p338
(dp339
g33
I1
sg34
g332
sg36
g333
sbsg60
(dp340
g40
I0
sg41
I0
sg42
I1
sg43
I0
ssg62
(dp341
g40
I0
sg41
I0
sg42
I0
sg43
I0
ssg64
(dp342
g40
I0
sg41
I0
sg42
I0
sg43
I0
ssg66
(dp343
g40
I0
sg41
I0
sg42
I1
sg43
I0
ssg68
I0
sg69
I0
sg70
S'Naitheor'
p344
sg72
I11
sg73
I0
sg74
I20
sg75
I29
sg76
g77
sg78
(dp345
g80
I11
sg81
I8
sg82
I8
sg83
I9
sg84
I5
sg85
I8
sg86
I3
sg87
I9
sg88
I7
sg89
I8
sg90
I7
sg91
I9
sg92
I3
sg93
I9
sg94
I12
ssg95
I0
sg96
I0
sg97
I0
sg98
I0
sg99
F9.344827586206897
sg100
I0
sg101
I0
sg102
I0
sg103
g345
sg104
I0
sg105
g106
sg107
I0
sg108
I0
sg109
I0
sg110
I3
sg111
I0
sg112
I0
sg113
S'CHS'
p346
sbsS'n17'
p347
(ijoueur
joueur
p348
(dp349
g27
I0
sg28
I0
sg29
I0
sg30
(ijoueur
rang
p350
(dp351
g33
I5
sg34
S'**'
p352
sg36
g140
sbsg38
(dp353
g40
I0
sg41
I0
sg42
I0
sg43
I0
ssg44
(dp354
g40
I0
sg41
I0
sg42
I0
sg43
I0
ssg46
I0
sg47
I0
sg48
I0
sg49
I0
sg50
I0
sg51
(g52
S'PI'
p355
g106
g106
tp356
sg57
(ijoueur
rang
p357
(dp358
g33
I4
sg34
S'x'
p359
sg36
g37
sbsg60
(dp360
g40
I0
sg41
I0
sg42
I1
sg43
I0
ssg62
(dp361
g40
I0
sg41
I0
sg42
I0
sg43
I0
ssg64
(dp362
g40
I0
sg41
I0
sg42
I0
sg43
I0
ssg66
(dp363
g40
I0
sg41
I0
sg42
I1
sg43
I0
ssg68
I0
sg69
I0
sg70
S'Nravyx'
p364
sg72
I9
sg73
I0
sg74
I25
sg75
I114
sg76
g77
sg78
(dp365
g80
I10
sg81
I10
sg82
I9
sg83
I8
sg84
I4
sg85
I11
sg86
I3
sg87
I13
sg88
I9
sg89
I10
sg90
I8
sg91
I7
sg92
I3
sg93
I10
sg94
I8
ssg95
I2
sg96
I0
sg97
I0
sg98
I0
sg99
F9.407407407407407
sg100
I0
sg101
I0
sg102
I0
sg103
g365
sg104
I0
sg105
g106
sg107
I0
sg108
I0
sg109
I0
sg110
I12
sg111
I0
sg112
I0
sg113
S'CHS'
p366
sbsS'n14'
p367
(ijoueur
joueur
p368
(dp369
g27
I0
sg28
I0
sg29
I0
sg30
(ijoueur
rang
p370
(dp371
g33
I5
sg34
S'**'
p372
sg36
g140
sbsg38
(dp373
g40
I0
sg41
I0
sg42
I0
sg43
I0
ssg44
(dp374
g40
I0
sg41
I0
sg42
I0
sg43
I0
ssg46
I0
sg47
I0
sg48
I0
sg49
I0
sg50
I0
sg51
(g52
S'AI'
p375
g106
g106
tp376
sg57
(ijoueur
rang
p377
(dp378
g33
I5
sg34
S'**'
p379
sg36
g140
sbsg60
(dp380
g40
I0
sg41
I1
sg42
I0
sg43
I0
ssg62
(dp381
g40
I0
sg41
I0
sg42
I0
sg43
I0
ssg64
(dp382
g40
I0
sg41
I0
sg42
I0
sg43
I0
ssg66
(dp383
g40
I0
sg41
I1
sg42
I0
sg43
I0
ssg68
I0
sg69
I0
sg70
S'Lamene'
p384
sg72
I5
sg73
I0
sg74
I16
sg75
I165
sg76
g77
sg78
(dp385
g80
I9
sg81
I7
sg82
I13
sg83
I11
sg84
I6
sg85
I9
sg86
I6
sg87
I15
sg88
I7
sg89
I11
sg90
I11
sg91
I10
sg92
I6
sg93
I13
sg94
I4
ssg95
I2
sg96
I0
sg97
I0
sg98
I0
sg99
F11.290322580645162
sg100
I0
sg101
I0
sg102
I0
sg103
g385
sg104
I0
sg105
g106
sg107
I0
sg108
I0
sg109
I0
sg110
I19
sg111
I31
sg112
I0
sg113
g304
sbsS'n15'
p386
g180
sS'n18'
p387
g231
sS'n19'
p388
(ijoueur
joueur
p389
(dp390
g27
I0
sg28
I0
sg29
I0
sg30
(ijoueur
rang
p391
(dp392
g33
I4
sg34
g35
sg36
g37
sbsg38
(dp393
g40
I0
sg41
I0
sg42
I0
sg43
I0
ssg44
(dp394
g40
I0
sg41
I0
sg42
I0
sg43
I0
ssg46
I0
sg47
I0
sg48
I0
sg49
I0
sg50
I0
sg51
(g52
S'N8'
p395
S'TL'
p396
S'DL'
p397
tp398
sg57
(ijoueur
rang
p399
(dp400
g33
I4
sg34
g35
sg36
g37
sbsg60
(dp401
g40
I0
sg41
I0
sg42
I1
sg43
I0
ssg62
(dp402
g40
I0
sg41
I0
sg42
I0
sg43
I0
ssg64
(dp403
g40
I0
sg41
I0
sg42
I0
sg43
I0
ssg66
(dp404
g40
I0
sg41
I0
sg42
I1
sg43
I0
ssg68
I0
sg69
I0
sg70
S'Garrin'
p405
sg72
I1
sg73
I0
sg74
I10
sg75
I98
sg76
g77
sg78
(dp406
g80
I9
sg81
I10
sg82
I8
sg83
I11
sg84
I8
sg85
I10
sg86
I3
sg87
I11
sg88
I9
sg89
I10
sg90
I7
sg91
I10
sg92
I5
sg93
I9
sg94
I5
ssg95
I1
sg96
I0
sg97
I0
sg98
I0
sg99
F9.931034482758621
sg100
I0
sg101
I0
sg102
I0
sg103
g406
sg104
I0
sg105
S'ALT8'
p407
sg107
I0
sg108
I0
sg109
I0
sg110
I13
sg111
I3
sg112
I0
sg113
S'EMP'
p408
sbsS'n22'
p409
(ijoueur
joueur
p410
(dp411
g27
I0
sg28
I0
sg29
I0
sg30
(ijoueur
rang
p412
(dp413
g33
I2
sg34
S'<<'
p414
sg36
g185
sbsg38
(dp415
g40
I0
sg41
I0
sg42
I0
sg43
I0
ssg44
(dp416
g40
I0
sg41
I0
sg42
I0
sg43
I0
ssg46
I0
sg47
I0
sg48
I0
sg49
I0
sg50
I0
sg51
(g52
S'AR'
p417
S'CE'
p418
S'DO'
p419
tp420
sg57
(ijoueur
rang
p421
(dp422
g33
I2
sg34
S'<<'
p423
sg36
g185
sbsg60
(dp424
g40
I0
sg41
I0
sg42
I1
sg43
I0
ssg62
(dp425
g40
I0
sg41
I0
sg42
I0
sg43
I0
ssg64
(dp426
g40
I0
sg41
I0
sg42
I0
sg43
I0
ssg66
(dp427
g40
I0
sg41
I0
sg42
I1
sg43
I0
ssg68
I0
sg69
I0
sg70
S'Northend'
p428
sg72
I4
sg73
I0
sg74
I16
sg75
I19
sg76
g77
sg78
(dp429
g80
I11
sg81
I4
sg82
I7
sg83
I8
sg84
I8
sg85
I7
sg86
I8
sg87
I7
sg88
I8
sg89
I8
sg90
I13
sg91
I8
sg92
I8
sg93
I11
sg94
I5
ssg95
I2
sg96
I0
sg97
I0
sg98
I0
sg99
F9.545454545454545
sg100
I0
sg101
I0
sg102
I0
sg103
g429
sg104
I0
sg105
g106
sg107
I0
sg108
I0
sg109
I0
sg110
I3
sg111
I4
sg112
I0
sg113
S'EN'
p430
sbsS'n21'
p431
(ijoueur
joueur
p432
(dp433
g27
I0
sg28
I0
sg29
I0
sg30
(ijoueur
rang
p434
(dp435
g33
I2
sg34
S'<<'
p436
sg36
g185
sbsg38
(dp437
g40
I0
sg41
I0
sg42
I0
sg43
I0
ssg44
(dp438
g40
I0
sg41
I0
sg42
I0
sg43
I0
ssg46
I0
sg47
I0
sg48
I0
sg49
I0
sg50
I0
sg51
(g52
S'C2'
p439
S'AI'
p440
g106
tp441
sg57
(ijoueur
rang
p442
(dp443
g33
I2
sg34
S'<<'
p444
sg36
g185
sbsg60
(dp445
g40
I0
sg41
I0
sg42
I1
sg43
I0
ssg62
(dp446
g40
I0
sg41
I0
sg42
I0
sg43
I0
ssg64
(dp447
g40
I0
sg41
I0
sg42
I0
sg43
I0
ssg66
(dp448
g40
I0
sg41
I0
sg42
I1
sg43
I0
ssg68
I0
sg69
I0
sg70
S'Laror'
p449
sg72
I8
sg73
I0
sg74
I19
sg75
I29
sg76
g77
sg78
(dp450
g80
I9
sg81
I4
sg82
I6
sg83
I9
sg84
I10
sg85
I9
sg86
I9
sg87
I9
sg88
I4
sg89
I12
sg90
I9
sg91
I5
sg92
I6
sg93
I11
sg94
I6
ssg95
I2
sg96
I0
sg97
I0
sg98
I0
sg99
F9.517241379310345
sg100
I0
sg101
I0
sg102
I0
sg103
g450
sg104
I0
sg105
g106
sg107
I0
sg108
I0
sg109
I0
sg110
I2
sg111
I0
sg112
I0
sg113
S'CHS'
p451
sbsS'n20'
p452
(ijoueur
joueur
p453
(dp454
g27
I0
sg28
I1
sg29
I0
sg30
(ijoueur
rang
p455
(dp456
g33
I2
sg34
S'^^'
p457
sg36
g185
sbsg38
(dp458
g40
I0
sg41
I0
sg42
I1
sg43
I0
ssg44
(dp459
g40
I0
sg41
I0
sg42
I0
sg43
I0
ssg46
I0
sg47
I0
sg48
I0
sg49
I0
sg50
I0
sg51
(g52
S'C1'
p460
S'DO'
p461
g106
tp462
sg57
(ijoueur
rang
p463
(dp464
g33
I2
sg34
S'^^'
p465
sg36
g185
sbsg60
(dp466
g40
I0
sg41
I0
sg42
I0
sg43
I0
ssg62
(dp467
g40
I0
sg41
I0
sg42
I1
sg43
I0
ssg64
(dp468
g40
I0
sg41
I0
sg42
I0
sg43
I0
ssg66
(dp469
g40
I0
sg41
I0
sg42
I0
sg43
I0
ssg68
I68
sg69
I0
sg70
S'Rieulex'
p470
sg72
I1
sg73
I47
sg74
I9
sg75
I40
sg76
g77
sg78
(dp471
g80
I9
sg81
I5
sg82
I6
sg83
I9
sg84
I9
sg85
I8
sg86
I9
sg87
I8
sg88
I7
sg89
I10
sg90
I7
sg91
I6
sg92
I9
sg93
I10
sg94
I5
ssg95
I0
sg96
I0
sg97
I0
sg98
I0
sg99
F8.78125
sg100
I0
sg101
I0
sg102
I0
sg103
g471
sg104
I0
sg105
g106
sg107
I0
sg108
I0
sg109
I0
sg110
I6
sg111
I9
sg112
I0
sg113
g304
sbsS'n8'
p472
(ijoueur
joueur
p473
(dp474
g27
I0
sg28
I0
sg29
I0
sg30
(ijoueur
rang
p475
(dp476
g33
I4
sg34
g35
sg36
g37
sbsg38
(dp477
g40
I0
sg41
I1
sg42
I0
sg43
I0
ssg44
(dp478
g40
I0
sg41
I0
sg42
I0
sg43
I0
ssg46
I0
sg47
I0
sg48
I0
sg49
I0
sg50
I0
sg51
(g52
S'TL'
p479
S'N8'
p480
g106
tp481
sg57
(ijoueur
rang
p482
(dp483
g33
I4
sg34
g35
sg36
g37
sbsg60
(dp484
g40
I0
sg41
I0
sg42
I0
sg43
I0
ssg62
(dp485
g40
I0
sg41
I1
sg42
I0
sg43
I0
ssg64
(dp486
g40
I0
sg41
I0
sg42
I0
sg43
I0
ssg66
(dp487
g40
I0
sg41
I0
sg42
I0
sg43
I0
ssg68
I0
sg69
I0
sg70
S'Vgadhr'
p488
sg72
I7
sg73
I0
sg74
I20
sg75
I494
sg76
g77
sg78
(dp489
g80
I9
sg81
I10
sg82
I7
sg83
I12
sg84
I6
sg85
I11
sg86
I5
sg87
I11
sg88
I10
sg89
I8
sg90
I10
sg91
I11
sg92
I4
sg93
I12
sg94
I6
ssg95
I3
sg96
I0
sg97
I0
sg98
I0
sg99
F10.903225806451612
sg100
I0
sg101
I0
sg102
I0
sg103
g489
sg104
I0
sg105
S'QNL11'
p490
sg107
I0
sg108
I0
sg109
I0
sg110
I42
sg111
I9
sg112
I0
sg113
S'HB'
p491
sbsS'n9'
p492
(ijoueur
joueur
p493
(dp494
g27
I0
sg28
I0
sg29
I0
sg30
(ijoueur
rang
p495
(dp496
g33
I6
sg34
S'***'
p497
sg36
S'personnage'
p498
sbsg38
(dp499
g40
I0
sg41
I0
sg42
I0
sg43
I0
ssg44
(dp500
g40
I0
sg41
I0
sg42
I0
sg43
I0
ssg46
I0
sg47
I0
sg48
I0
sg49
I0
sg50
I0
sg51
(g52
S'DM'
p501
S'DO'
p502
S'AR'
p503
tp504
sg57
(ijoueur
rang
p505
(dp506
g33
I6
sg34
S'***'
p507
sg36
g498
sbsg60
(dp508
g40
I0
sg41
I1
sg42
I0
sg43
I0
ssg62
(dp509
g40
I0
sg41
I0
sg42
I0
sg43
I0
ssg64
(dp510
g40
I0
sg41
I0
sg42
I0
sg43
I0
ssg66
(dp511
g40
I0
sg41
I1
sg42
I0
sg43
I0
ssg68
I0
sg69
I0
sg70
S'Eltharion'
p512
sg72
I8
sg73
I0
sg74
I15
sg75
I587
sg76
g77
sg78
(dp513
g80
I14
sg81
I5
sg82
I9
sg83
I12
sg84
I10
sg85
I7
sg86
I9
sg87
I9
sg88
I7
sg89
I14
sg90
I8
sg91
I7
sg92
I8
sg93
I11
sg94
I7
ssg95
I4
sg96
I0
sg97
I0
sg98
I0
sg99
F11.10344827586207
sg100
I0
sg101
I0
sg102
I0
sg103
g513
sg104
I0
sg105
g106
sg107
I0
sg108
I0
sg109
I0
sg110
I59
sg111
I4
sg112
I0
sg113
S'HE'
p514
sbsS'n1'
p515
g253
sS'n2'
p516
(ijoueur
joueur
p517
(dp518
g27
I0
sg28
I0
sg29
I0
sg30
(ijoueur
rang
p519
(dp520
g33
I5
sg34
S'**'
p521
sg36
g140
sbsg38
(dp522
g40
I0
sg41
I0
sg42
I0
sg43
I0
ssg44
(dp523
g40
I0
sg41
I0
sg42
I0
sg43
I0
ssg46
I0
sg47
I0
sg48
I0
sg49
I0
sg50
I0
sg51
(g52
S'TA'
p524
S'TL'
p525
S'N8'
p526
tp527
sg57
(ijoueur
rang
p528
(dp529
g33
I5
sg34
S'**'
p530
sg36
g140
sbsg60
(dp531
g40
I0
sg41
I1
sg42
I0
sg43
I0
ssg62
(dp532
g40
I0
sg41
I0
sg42
I0
sg43
I0
ssg64
(dp533
g40
I0
sg41
I0
sg42
I0
sg43
I0
ssg66
(dp534
g40
I0
sg41
I1
sg42
I0
sg43
I0
ssg68
I0
sg69
I0
sg70
S'Gound'
p535
sg72
I2
sg73
I0
sg74
I10
sg75
I119
sg76
g77
sg78
(dp536
g80
I9
sg81
I8
sg82
I6
sg83
I11
sg84
I4
sg85
I10
sg86
I4
sg87
I10
sg88
I6
sg89
I9
sg90
I9
sg91
I11
sg92
I3
sg93
I6
sg94
I10
ssg95
I2
sg96
I0
sg97
I0
sg98
I0
sg99
F9.448275862068966
sg100
I0
sg101
I0
sg102
I0
sg103
g536
sg104
I0
sg105
S'FS9'
p537
sg107
I0
sg108
I0
sg109
I0
sg110
I19
sg111
I14
sg112
I0
sg113
S'O'
p538
sbsS'n3'
p539
(ijoueur
joueur
p540
(dp541
g27
I0
sg28
I0
sg29
I0
sg30
(ijoueur
rang
p542
(dp543
g33
I4
sg34
g35
sg36
g37
sbsg38
(dp544
g40
I0
sg41
I0
sg42
I0
sg43
I0
ssg44
(dp545
g40
I0
sg41
I0
sg42
I0
sg43
I0
ssg46
I0
sg47
I0
sg48
I0
sg49
I0
sg50
I0
sg51
(g52
S'PI'
p546
g106
g106
tp547
sg57
(ijoueur
rang
p548
(dp549
g33
I4
sg34
g35
sg36
g37
sbsg60
(dp550
g40
I0
sg41
I1
sg42
I0
sg43
I0
ssg62
(dp551
g40
I0
sg41
I0
sg42
I0
sg43
I0
ssg64
(dp552
g40
I0
sg41
I0
sg42
I0
sg43
I0
ssg66
(dp553
g40
I0
sg41
I1
sg42
I0
sg43
I0
ssg68
I0
sg69
I0
sg70
S'Stavaer'
p554
sg72
I5
sg73
I0
sg74
I15
sg75
I168
sg76
g77
sg78
(dp555
g80
I11
sg81
I9
sg82
I8
sg83
I11
sg84
I8
sg85
I11
sg86
I6
sg87
I12
sg88
I7
sg89
I10
sg90
I7
sg91
I10
sg92
I9
sg93
I12
sg94
I7
ssg95
I4
sg96
I0
sg97
I0
sg98
I0
sg99
F10.518518518518519
sg100
I0
sg101
I0
sg102
I0
sg103
g555
sg104
I0
sg105
S'AL11'
p556
sg107
I0
sg108
I0
sg109
I0
sg110
I7
sg111
I3
sg112
I0
sg113
S'ES'
p557
sbsS'n4'
p558
g159
sS'n5'
p559
g116
sS'n6'
p560
(ijoueur
joueur
p561
(dp562
g27
I0
sg28
I0
sg29
I0
sg30
(ijoueur
rang
p563
(dp564
g33
I1
sg34
g332
sg36
g333
sbsg38
(dp565
g40
I0
sg41
I0
sg42
I0
sg43
I0
ssg44
(dp566
g40
I0
sg41
I0
sg42
I0
sg43
I0
ssg46
I0
sg47
I0
sg48
I0
sg49
I0
sg50
I0
sg51
(g52
S'TL'
p567
S'DL'
p568
g106
tp569
sg57
(ijoueur
rang
p570
(dp571
g33
I1
sg34
g332
sg36
g333
sbsg60
(dp572
g40
I0
sg41
I1
sg42
I0
sg43
I0
ssg62
(dp573
g40
I0
sg41
I0
sg42
I0
sg43
I0
ssg64
(dp574
g40
I0
sg41
I0
sg42
I0
sg43
I0
ssg66
(dp575
g40
I0
sg41
I1
sg42
I0
sg43
I0
ssg68
I0
sg69
I0
sg70
S'Ryed'
p576
sg72
I3
sg73
I0
sg74
I14
sg75
I14
sg76
g77
sg78
(dp577
g80
I10
sg81
I9
sg82
I5
sg83
I12
sg84
I5
sg85
I11
sg86
I2
sg87
I11
sg88
I9
sg89
I8
sg90
I8
sg91
I10
sg92
I3
sg93
I11
sg94
I6
ssg95
I2
sg96
I0
sg97
I0
sg98
I0
sg99
F10.32258064516129
sg100
I0
sg101
I0
sg102
I0
sg103
g577
sg104
I0
sg105
g106
sg107
I0
sg108
I0
sg109
I0
sg110
I1
sg111
I6
sg112
I0
sg113
S'CHS'
p578
sbsS'n7'
p579
g207
ssS'remplacements'
p580
(dp581
g327
S'n0'
p582
sg347
g582
sg387
g582
sg388
g582
sg409
g582
sg431
g582
sg452
g582
ssb.