(iclub
compo
p0
(dp1
S'caracs_old'
p2
(dp3
S'A'
p4
F209.5
sS'ME'
p5
F96.0
sS'E'
p6
I223
sS'OplusAV'
p7
F84.0
sS'TO_off'
p8
F107.0
sS'OplusAR'
p9
F93.0
sS'M'
p10
F73.0
sS'JP'
p11
F101.0
sS'OmoinsAR'
p12
F96.0
sS'PA'
p13
F146.0
sS'TO_def'
p14
F99.0
sS'OmoinsAV'
p15
F67.5
sS'R'
p16
F162.0
ssS'totaux_old'
p17
(dp18
S'T2'
p19
F228.25
sS'T3'
p20
F111.5
sS'T1'
p21
F180.5
ssS'roles'
p22
(dp23
S'drop1'
p24
(ijoueur
joueur
p25
(dp26
S'rouges_total'
p27
I0
sS'drops_total'
p28
I1
sS'blessure'
p29
I0
sS'RG_max'
p30
(ijoueur
rang
p31
(dp32
S'type_nb'
p33
I4
sS'rang'
p34
S'x'
p35
sS'type'
p36
S'heros'
p37
sbsS'MJ2_total'
p38
(dp39
S'SR'
p40
I0
sS'CT'
p41
I0
sS'CR'
p42
I0
sS'ST'
p43
I0
ssS'MJ3_total'
p44
(dp45
g40
I0
sg41
I0
sg42
I0
sg43
I0
ssS'anciens_clubs'
p46
S''
p47
sS'drop_rates_saison'
p48
I0
sS'essais_saison'
p49
I0
sS'penalite_ratees_saison'
p50
I0
sS'transformations_saison'
p51
I0
sS'postes'
p52
(S'dummy'
p53
S'AI'
p54
S'AR'
p55
S'CE'
p56
tp57
sS'RG'
p58
(ijoueur
rang
p59
(dp60
g33
I4
sg34
g35
sg36
g37
sbsS'MJ1'
p61
(dp62
g40
I0
sg41
I0
sg42
I0
sg43
I0
ssS'MJ2'
p63
(dp64
g40
I0
sg41
I0
sg42
I0
sg43
I0
ssS'MJ3'
p65
(dp66
g40
I0
sg41
I0
sg42
I0
sg43
I0
ssS'MJ1_total'
p67
(dp68
g40
I0
sg41
I0
sg42
I0
sg43
I0
ssS'penalites_total'
p69
I216
sS'penalites_saison'
p70
I0
sS'nom'
p71
S'Nenoel'
p72
sS'C'
p73
I5
sS'transformations_total'
p74
I179
sS'D'
p75
I15
sS'VAL'
p76
I250
sS'club'
p77
S'SN'
p78
sS'caracs'
p79
(dp80
S'A'
p81
I14
sS'ME'
p82
I4
sS'RP2'
p83
I8
sS'E'
p84
I10
sS'P'
p85
I12
sS'RP1'
p86
I8
sS'JP'
p87
I11
sS'RP_tot'
p88
I9
sS'TO'
p89
I12
sS'PA'
p90
I14
sS'M'
p91
I11
sS'R'
p92
I3
sS'TB'
p93
I12
sS'PL'
p94
I13
sS'TA'
p95
I5
ssS'fatigue'
p96
I0
sS'drop_ratees_total'
p97
I0
sS'blessures_total'
p98
I0
sS'XP'
p99
I0
sS'EV'
p100
F11.424242424242424
sS'penalite_ratees_total'
p101
I0
sS'blessures_saison'
p102
I0
sS'jaunes_total'
p103
I0
sS'caracs_sans_fatigue'
p104
g80
sS'rouges_saison'
p105
I0
sS'transformation_ratees_total'
p106
I0
sS'drops_saison'
p107
I1
sS'transformation_ratees_saison'
p108
I0
sS'MS'
p109
I25
sS'essais_total'
p110
I28
sS'jaunes_saison'
p111
I0
sS'ARM'
p112
S'EN'
p113
sbsS'SA_scd'
p114
(ijoueur
joueur
p115
(dp116
g27
I0
sg28
I0
sg29
I0
sg30
(ijoueur
rang
p117
(dp118
g33
I4
sg34
S'*'
p119
sg36
g37
sbsg38
(dp120
g40
I0
sg41
I0
sg42
I0
sg43
I0
ssg44
(dp121
g40
I0
sg41
I0
sg42
I0
sg43
I0
ssg46
S'PRG10'
p122
sg48
I0
sg49
I0
sg50
I0
sg51
I0
sg52
(g53
S'DL'
p123
S'TL'
p124
g47
tp125
sg58
(ijoueur
rang
p126
(dp127
g33
I4
sg34
g119
sg36
g37
sbsg61
(dp128
g40
I0
sg41
I0
sg42
I0
sg43
I0
ssg63
(dp129
g40
I0
sg41
I0
sg42
I0
sg43
I0
ssg65
(dp130
g40
I0
sg41
I0
sg42
I0
sg43
I0
ssg67
(dp131
g40
I0
sg41
I0
sg42
I0
sg43
I0
ssg69
I0
sg70
I0
sg71
S'Remod'
p132
sg73
I8
sg74
I0
sg75
I20
sg76
I99
sg77
g78
sg79
(dp133
g81
I12
sg82
I8
sg83
I9
sg84
I9
sg85
I6
sg86
I9
sg87
I5
sg88
I11
sg89
I11
sg90
I10
sg91
I8
sg92
I11
sg93
I5
sg94
I9
sg95
I7
ssg96
I0
sg97
I0
sg98
I0
sg99
I0
sg100
F10.117647058823529
sg101
I0
sg102
I0
sg103
I0
sg104
g133
sg105
I0
sg106
I0
sg107
I0
sg108
I0
sg109
I7
sg110
I0
sg111
I0
sg112
S'EMP'
p134
sbsS'RJL'
p135
g25
sS'cap'
p136
(ijoueur
joueur
p137
(dp138
g27
I0
sg28
I0
sg29
I0
sg30
(ijoueur
rang
p139
(dp140
g33
I5
sg34
S'xx'
p141
sg36
S'seigneur'
p142
sbsg38
(dp143
g40
I0
sg41
I0
sg42
I0
sg43
I0
ssg44
(dp144
g40
I0
sg41
I0
sg42
I0
sg43
I0
ssg46
S'TA9'
p145
sg48
I0
sg49
I0
sg50
I0
sg51
I0
sg52
(g53
S'AI'
p146
S'CE'
p147
S'AR'
p148
tp149
sg58
(ijoueur
rang
p150
(dp151
g33
I5
sg34
S'xx'
p152
sg36
g142
sbsg61
(dp153
g40
I0
sg41
I0
sg42
I0
sg43
I0
ssg63
(dp154
g40
I0
sg41
I0
sg42
I0
sg43
I0
ssg65
(dp155
g40
I0
sg41
I0
sg42
I0
sg43
I0
ssg67
(dp156
g40
I0
sg41
I0
sg42
I0
sg43
I0
ssg69
I0
sg70
I0
sg71
S'Drask'
p157
sg73
I7
sg74
I0
sg75
I17
sg76
I1564
sg77
g78
sg79
(dp158
g81
I16
sg82
I6
sg83
I11
sg84
I13
sg85
I9
sg86
I11
sg87
I8
sg88
I15
sg89
I10
sg90
I13
sg91
I14
sg92
I9
sg93
I9
sg94
I14
sg95
I8
ssg96
I0
sg97
I0
sg98
I0
sg99
I0
sg100
F13.838709677419354
sg101
I0
sg102
I0
sg103
I0
sg104
g158
sg105
I0
sg106
I0
sg107
I0
sg108
I0
sg109
I174
sg110
I15
sg111
I0
sg112
S'S'
p159
sbsS'B4'
p160
g25
sS'RJC'
p161
(ijoueur
joueur
p162
(dp163
g27
I0
sg28
I1
sg29
I0
sg30
(ijoueur
rang
p164
(dp165
g33
I5
sg34
S'**'
p166
sg36
g142
sbsg38
(dp167
g40
I0
sg41
I0
sg42
I0
sg43
I0
ssg44
(dp168
g40
I0
sg41
I0
sg42
I0
sg43
I0
ssg46
S'MDL8'
p169
sg48
I0
sg49
I0
sg50
I0
sg51
I0
sg52
(g53
S'DO'
p170
S'DM'
p171
S'DL'
p172
tp173
sg58
(ijoueur
rang
p174
(dp175
g33
I5
sg34
S'**'
p176
sg36
g142
sbsg61
(dp177
g40
I0
sg41
I0
sg42
I0
sg43
I0
ssg63
(dp178
g40
I0
sg41
I0
sg42
I0
sg43
I0
ssg65
(dp179
g40
I0
sg41
I0
sg42
I0
sg43
I0
ssg67
(dp180
g40
I0
sg41
I0
sg42
I0
sg43
I0
ssg69
I0
sg70
I0
sg71
S'Laoten'
p181
sg73
I5
sg74
I0
sg75
I13
sg76
I419
sg77
g78
sg79
(dp182
g81
I11
sg82
I8
sg83
I9
sg84
I11
sg85
I9
sg86
I7
sg87
I13
sg88
I9
sg89
I13
sg90
I13
sg91
I8
sg92
I7
sg93
I7
sg94
I13
sg95
I4
ssg96
I0
sg97
I0
sg98
I0
sg99
I0
sg100
F11.325
sg101
I0
sg102
I0
sg103
I0
sg104
g182
sg105
I0
sg106
I0
sg107
I1
sg108
I0
sg109
I31
sg110
I10
sg111
I0
sg112
S'ES'
p183
sbsS'B1'
p184
g25
sS'B2'
p185
g25
sS'B3'
p186
g25
sS'SA_pcp2'
p187
(ijoueur
joueur
p188
(dp189
g27
I0
sg28
I0
sg29
I0
sg30
(ijoueur
rang
p190
(dp191
g33
I6
sg34
S'***'
p192
sg36
S'personnage'
p193
sbsg38
(dp194
g40
I0
sg41
I0
sg42
I0
sg43
I0
ssg44
(dp195
g40
I0
sg41
I0
sg42
I0
sg43
I0
ssg46
g47
sg48
I0
sg49
I0
sg50
I0
sg51
I0
sg52
(g53
S'DL'
p196
S'N8'
p197
g47
tp198
sg58
(ijoueur
rang
p199
(dp200
g33
I6
sg34
S'***'
p201
sg36
g193
sbsg61
(dp202
g40
I0
sg41
I0
sg42
I0
sg43
I0
ssg63
(dp203
g40
I0
sg41
I0
sg42
I0
sg43
I0
ssg65
(dp204
g40
I0
sg41
I0
sg42
I0
sg43
I0
ssg67
(dp205
g40
I0
sg41
I0
sg42
I0
sg43
I0
ssg69
I0
sg70
I0
sg71
S'Louen'
p206
sg73
I-1
sg74
I0
sg75
I9
sg76
I295
sg77
g78
sg79
(dp207
g81
I10
sg82
I9
sg83
I8
sg84
I12
sg85
I6
sg86
I13
sg87
I6
sg88
I14
sg89
I11
sg90
I10
sg91
I5
sg92
I8
sg93
I5
sg94
I11
sg95
I6
ssg96
I0
sg97
I0
sg98
I0
sg99
I0
sg100
F10.352941176470589
sg101
I0
sg102
I0
sg103
I0
sg104
g207
sg105
I0
sg106
I0
sg107
I0
sg108
I0
sg109
I36
sg110
I34
sg111
I0
sg112
S'B'
p208
sbsS'SA_pcp1'
p209
(ijoueur
joueur
p210
(dp211
g27
I0
sg28
I0
sg29
I0
sg30
(ijoueur
rang
p212
(dp213
g33
I4
sg34
g119
sg36
g37
sbsg38
(dp214
g40
I0
sg41
I0
sg42
I0
sg43
I0
ssg44
(dp215
g40
I0
sg41
I0
sg42
I0
sg43
I0
ssg46
g47
sg48
I0
sg49
I0
sg50
I0
sg51
I0
sg52
(g53
S'N8'
p216
S'TL'
p217
S'CE'
p218
tp219
sg58
(ijoueur
rang
p220
(dp221
g33
I5
sg34
S'**'
p222
sg36
g142
sbsg61
(dp223
g40
I0
sg41
I0
sg42
I0
sg43
I0
ssg63
(dp224
g40
I0
sg41
I0
sg42
I0
sg43
I0
ssg65
(dp225
g40
I0
sg41
I0
sg42
I0
sg43
I0
ssg67
(dp226
g40
I0
sg41
I0
sg42
I0
sg43
I0
ssg69
I0
sg70
I0
sg71
S'Lyeth'
p227
sg73
I2
sg74
I0
sg75
I12
sg76
I130
sg77
g78
sg79
(dp228
g81
I10
sg82
I11
sg83
I9
sg84
I12
sg85
I9
sg86
I11
sg87
I7
sg88
I13
sg89
I12
sg90
I12
sg91
I8
sg92
I10
sg93
I7
sg94
I11
sg95
I6
ssg96
I0
sg97
I0
sg98
I0
sg99
I0
sg100
F11.25
sg101
I0
sg102
I0
sg103
I0
sg104
g228
sg105
I0
sg106
I0
sg107
I0
sg108
I0
sg109
I13
sg110
I25
sg111
I0
sg112
S'EN'
p229
sbsS'drop3'
p230
g162
sS'SA_remp1'
p231
(ijoueur
joueur
p232
(dp233
g27
I0
sg28
I0
sg29
I0
sg30
(ijoueur
rang
p234
(dp235
g33
I3
sg34
S'^^^'
p236
sg36
S'rare'
p237
sbsg38
(dp238
g40
I0
sg41
I0
sg42
I0
sg43
I0
ssg44
(dp239
g40
I0
sg41
I0
sg42
I0
sg43
I0
ssg46
g47
sg48
I0
sg49
I0
sg50
I0
sg51
I0
sg52
(g53
S'DL'
p240
S'PI'
p241
g47
tp242
sg58
(ijoueur
rang
p243
(dp244
g33
I3
sg34
S'^^^'
p245
sg36
g237
sbsg61
(dp246
g40
I0
sg41
I0
sg42
I0
sg43
I0
ssg63
(dp247
g40
I0
sg41
I0
sg42
I0
sg43
I0
ssg65
(dp248
g40
I0
sg41
I0
sg42
I0
sg43
I0
ssg67
(dp249
g40
I0
sg41
I0
sg42
I0
sg43
I0
ssg69
I0
sg70
I0
sg71
S'Lesyl'
p250
sg73
I3
sg74
I0
sg75
I11
sg76
I11
sg77
g78
sg79
(dp251
g81
I10
sg82
I12
sg83
I7
sg84
I10
sg85
I6
sg86
I7
sg87
I5
sg88
I7
sg89
I12
sg90
I8
sg91
I8
sg92
I7
sg93
I6
sg94
I10
sg95
I4
ssg96
I0
sg97
I0
sg98
I0
sg99
I0
sg100
F9.558823529411764
sg101
I0
sg102
I0
sg103
I0
sg104
g251
sg105
I0
sg106
I0
sg107
I0
sg108
I0
sg109
I1
sg110
I5
sg111
I0
sg112
S'RN'
p252
sbsS'drop2'
p253
(ijoueur
joueur
p254
(dp255
g27
I0
sg28
I3
sg29
I0
sg30
(ijoueur
rang
p256
(dp257
g33
I6
sg34
S'***'
p258
sg36
g193
sbsg38
(dp259
g40
I0
sg41
I0
sg42
I0
sg43
I0
ssg44
(dp260
g40
I0
sg41
I0
sg42
I0
sg43
I0
ssg46
g47
sg48
I0
sg49
I0
sg50
I0
sg51
I0
sg52
(g53
S'AR'
p261
S'CE'
p262
S'AI'
p263
tp264
sg58
(ijoueur
rang
p265
(dp266
g33
I6
sg34
S'***'
p267
sg36
g193
sbsg61
(dp268
g40
I0
sg41
I0
sg42
I0
sg43
I0
ssg63
(dp269
g40
I0
sg41
I0
sg42
I0
sg43
I0
ssg65
(dp270
g40
I0
sg41
I0
sg42
I0
sg43
I0
ssg67
(dp271
g40
I0
sg41
I0
sg42
I0
sg43
I0
ssg69
I0
sg70
I0
sg71
S'Snikch'
p272
sg73
I7
sg74
I0
sg75
I20
sg76
I576
sg77
g78
sg79
(dp273
g81
I13
sg82
I6
sg83
I14
sg84
I8
sg85
I9
sg86
I7
sg87
I9
sg88
I14
sg89
I13
sg90
I13
sg91
I12
sg92
I9
sg93
I10
sg94
I14
sg95
I5
ssg96
I0
sg97
I0
sg98
I0
sg99
I0
sg100
F12.0
sg101
I0
sg102
I0
sg103
I0
sg104
g273
sg105
I0
sg106
I0
sg107
I0
sg108
I0
sg109
I106
sg110
I27
sg111
I0
sg112
g159
sbsS'SA_remp2'
p274
(ijoueur
joueur
p275
(dp276
g27
I0
sg28
I0
sg29
I0
sg30
(ijoueur
rang
p277
(dp278
g33
I5
sg34
S'**'
p279
sg36
g142
sbsg38
(dp280
g40
I0
sg41
I0
sg42
I0
sg43
I0
ssg44
(dp281
g40
I0
sg41
I0
sg42
I0
sg43
I0
ssg46
S'KHR8'
p282
sg48
I0
sg49
I0
sg50
I0
sg51
I0
sg52
(g53
S'DL'
p283
S'TL'
p284
g47
tp285
sg58
(ijoueur
rang
p286
(dp287
g33
I5
sg34
S'**'
p288
sg36
g142
sbsg61
(dp289
g40
I0
sg41
I0
sg42
I0
sg43
I0
ssg63
(dp290
g40
I0
sg41
I0
sg42
I0
sg43
I0
ssg65
(dp291
g40
I0
sg41
I0
sg42
I0
sg43
I0
ssg67
(dp292
g40
I0
sg41
I0
sg42
I0
sg43
I0
ssg69
I0
sg70
I0
sg71
S'Le Daho'
p293
sg73
I3
sg74
I0
sg75
I12
sg76
I254
sg77
g78
sg79
(dp294
g81
I11
sg82
I10
sg83
I7
sg84
I11
sg85
I6
sg86
I8
sg87
I4
sg88
I8
sg89
I11
sg90
I10
sg91
I8
sg92
I9
sg93
I2
sg94
I9
sg95
I3
ssg96
I0
sg97
I0
sg98
I0
sg99
I0
sg100
F9.764705882352942
sg101
I0
sg102
I0
sg103
I0
sg104
g294
sg105
I0
sg106
I0
sg107
I0
sg108
I0
sg109
I24
sg110
I10
sg111
I0
sg112
g208
sbssS'totaux'
p295
(dp296
g19
I0
sg20
I0
sg21
I0
ssS'_compo_defaut_fatigue'
p297
Nsg79
(dp298
g4
I0
sg5
I0
sg6
I0
sg7
I0
sg8
I0
sg9
I0
sg10
I0
sg11
I0
sg12
I0
sg13
I0
sg14
I0
sg15
I0
sg16
I0
ssS'joueurs'
p299
(dp300
S'n12'
p301
g25
sS'n13'
p302
(ijoueur
joueur
p303
(dp304
g27
I0
sg28
I0
sg29
I0
sg30
(ijoueur
rang
p305
(dp306
g33
I5
sg34
S'xx'
p307
sg36
g142
sbsg38
(dp308
g40
I0
sg41
I0
sg42
I0
sg43
I0
ssg44
(dp309
g40
I0
sg41
I0
sg42
I0
sg43
I0
ssg46
g47
sg48
I0
sg49
I0
sg50
I0
sg51
I0
sg52
(g53
S'AI'
p310
S'CE'
p311
g47
tp312
sg58
(ijoueur
rang
p313
(dp314
g33
I5
sg34
S'xx'
p315
sg36
g142
sbsg61
(dp316
g40
I0
sg41
I0
sg42
I0
sg43
I0
ssg63
(dp317
g40
I0
sg41
I0
sg42
I0
sg43
I0
ssg65
(dp318
g40
I0
sg41
I0
sg42
I0
sg43
I0
ssg67
(dp319
g40
I0
sg41
I0
sg42
I0
sg43
I0
ssg69
I0
sg70
I0
sg71
S'Croskhaen'
p320
sg73
I7
sg74
I0
sg75
I21
sg76
I483
sg77
g78
sg79
(dp321
g81
I14
sg82
I8
sg83
I11
sg84
I10
sg85
I9
sg86
I9
sg87
I9
sg88
I13
sg89
I13
sg90
I15
sg91
I13
sg92
I11
sg93
I6
sg94
I11
sg95
I5
ssg96
I0
sg97
I0
sg98
I0
sg99
I0
sg100
F12.419354838709678
sg101
I0
sg102
I0
sg103
I0
sg104
g321
sg105
I0
sg106
I0
sg107
I0
sg108
I0
sg109
I49
sg110
I0
sg111
I0
sg112
g159
sbsS'n10'
p322
g162
sS'n11'
p323
(ijoueur
joueur
p324
(dp325
g27
I0
sg28
I0
sg29
I0
sg30
(ijoueur
rang
p326
(dp327
g33
I5
sg34
S'**'
p328
sg36
g142
sbsg38
(dp329
g40
I0
sg41
I0
sg42
I0
sg43
I0
ssg44
(dp330
g40
I0
sg41
I0
sg42
I0
sg43
I0
ssg46
g47
sg48
I0
sg49
I0
sg50
I0
sg51
I0
sg52
(g53
S'AI'
p331
S'AR'
p332
S'DM'
p333
tp334
sg58
(ijoueur
rang
p335
(dp336
g33
I5
sg34
S'**'
p337
sg36
g142
sbsg61
(dp338
g40
I0
sg41
I0
sg42
I0
sg43
I0
ssg63
(dp339
g40
I0
sg41
I0
sg42
I0
sg43
I0
ssg65
(dp340
g40
I0
sg41
I0
sg42
I0
sg43
I0
ssg67
(dp341
g40
I0
sg41
I0
sg42
I0
sg43
I0
ssg69
I0
sg70
I0
sg71
S'Grodhan'
p342
sg73
I7
sg74
I0
sg75
I23
sg76
I121
sg77
g78
sg79
(dp343
g81
I13
sg82
I2
sg83
I12
sg84
I12
sg85
I12
sg86
I7
sg87
I8
sg88
I12
sg89
I10
sg90
I13
sg91
I10
sg92
I5
sg93
I9
sg94
I10
sg95
I7
ssg96
I0
sg97
I0
sg98
I0
sg99
I0
sg100
F11.35483870967742
sg101
I0
sg102
I0
sg103
I0
sg104
g343
sg105
I0
sg106
I0
sg107
I0
sg108
I0
sg109
I12
sg110
I2
sg111
I0
sg112
S'CV'
p344
sbsS'n16'
p345
(ijoueur
joueur
p346
(dp347
g27
I0
sg28
I0
sg29
I0
sg30
(ijoueur
rang
p348
(dp349
g33
I5
sg34
S'**'
p350
sg36
g142
sbsg38
(dp351
g40
I0
sg41
I0
sg42
I0
sg43
I0
ssg44
(dp352
g40
I0
sg41
I0
sg42
I0
sg43
I0
ssg46
g47
sg48
I0
sg49
I0
sg50
I0
sg51
I0
sg52
(g53
S'PI'
p353
S'TA'
p354
S'TL'
p355
tp356
sg58
(ijoueur
rang
p357
(dp358
g33
I5
sg34
S'**'
p359
sg36
g142
sbsg61
(dp360
g40
I0
sg41
I0
sg42
I0
sg43
I0
ssg63
(dp361
g40
I0
sg41
I0
sg42
I0
sg43
I0
ssg65
(dp362
g40
I0
sg41
I0
sg42
I0
sg43
I0
ssg67
(dp363
g40
I0
sg41
I0
sg42
I0
sg43
I0
ssg69
I0
sg70
I0
sg71
S'Van Rutard'
p364
sg73
I4
sg74
I0
sg75
I14
sg76
I160
sg77
g78
sg79
(dp365
g81
I9
sg82
I9
sg83
I9
sg84
I10
sg85
I7
sg86
I9
sg87
I4
sg88
I11
sg89
I6
sg90
I11
sg91
I9
sg92
I12
sg93
I2
sg94
I9
sg95
I13
ssg96
I0
sg97
I0
sg98
I0
sg99
I0
sg100
F10.379310344827585
sg101
I0
sg102
I0
sg103
I0
sg104
g365
sg105
I0
sg106
I0
sg107
I0
sg108
I0
sg109
I26
sg110
I24
sg111
I0
sg112
S'EMP'
p366
sbsS'n17'
p367
g232
sS'n14'
p368
g137
sS'n15'
p369
g254
sS'n18'
p370
g275
sS'n19'
p371
(ijoueur
joueur
p372
(dp373
g27
I0
sg28
I0
sg29
I0
sg30
(ijoueur
rang
p374
(dp375
g33
I5
sg34
S'**'
p376
sg36
g142
sbsg38
(dp377
g40
I0
sg41
I0
sg42
I0
sg43
I0
ssg44
(dp378
g40
I0
sg41
I0
sg42
I0
sg43
I0
ssg46
S'KH9'
p379
sg48
I0
sg49
I0
sg50
I0
sg51
I0
sg52
(g53
S'TL'
p380
g47
g47
tp381
sg58
(ijoueur
rang
p382
(dp383
g33
I5
sg34
S'**'
p384
sg36
g142
sbsg61
(dp385
g40
I0
sg41
I0
sg42
I0
sg43
I0
ssg63
(dp386
g40
I0
sg41
I0
sg42
I0
sg43
I0
ssg65
(dp387
g40
I0
sg41
I0
sg42
I0
sg43
I0
ssg67
(dp388
g40
I0
sg41
I0
sg42
I0
sg43
I0
ssg69
I0
sg70
I0
sg71
S'Skater'
p389
sg73
I3
sg74
I0
sg75
I18
sg76
I270
sg77
g78
sg79
(dp390
g81
I10
sg82
I8
sg83
I6
sg84
I12
sg85
I4
sg86
I8
sg87
I6
sg88
I8
sg89
I8
sg90
I7
sg91
I8
sg92
I12
sg93
I6
sg94
I13
sg95
I6
ssg96
I0
sg97
I0
sg98
I0
sg99
I0
sg100
F10.806451612903226
sg101
I0
sg102
I0
sg103
I0
sg104
g390
sg105
I0
sg106
I0
sg107
I0
sg108
I0
sg109
I19
sg110
I4
sg111
I0
sg112
S'N'
p391
sbsS'n22'
p392
(ijoueur
joueur
p393
(dp394
g27
I0
sg28
I0
sg29
I0
sg30
(ijoueur
rang
p395
(dp396
g33
I2
sg34
S'<<'
p397
sg36
S'special'
p398
sbsg38
(dp399
g40
I0
sg41
I0
sg42
I0
sg43
I0
ssg44
(dp400
g40
I0
sg41
I0
sg42
I0
sg43
I0
ssg46
g47
sg48
I0
sg49
I0
sg50
I0
sg51
I0
sg52
(g53
S'C2'
p401
S'AI'
p402
S'AR'
p403
tp404
sg58
(ijoueur
rang
p405
(dp406
g33
I2
sg34
S'<<'
p407
sg36
g398
sbsg61
(dp408
g40
I0
sg41
I0
sg42
I0
sg43
I0
ssg63
(dp409
g40
I0
sg41
I0
sg42
I0
sg43
I0
ssg65
(dp410
g40
I0
sg41
I0
sg42
I0
sg43
I0
ssg67
(dp411
g40
I0
sg41
I0
sg42
I0
sg43
I0
ssg69
I0
sg70
I0
sg71
S'Dendaenol'
p412
sg73
I1
sg74
I0
sg75
I10
sg76
I8
sg77
g78
sg79
(dp413
g81
I10
sg82
I6
sg83
I6
sg84
I12
sg85
I9
sg86
I11
sg87
I7
sg88
I11
sg89
I7
sg90
I10
sg91
I10
sg92
I5
sg93
I9
sg94
I12
sg95
I3
ssg96
I0
sg97
I0
sg98
I0
sg99
I0
sg100
F10.310344827586206
sg101
I0
sg102
I0
sg103
I0
sg104
g413
sg105
I0
sg106
I0
sg107
I0
sg108
I0
sg109
I1
sg110
I19
sg111
I0
sg112
S'EN'
p414
sbsS'n21'
p415
(ijoueur
joueur
p416
(dp417
g27
I0
sg28
I0
sg29
I0
sg30
(ijoueur
rang
p418
(dp419
g33
I5
sg34
S'**'
p420
sg36
g142
sbsg38
(dp421
g40
I0
sg41
I0
sg42
I0
sg43
I0
ssg44
(dp422
g40
I0
sg41
I0
sg42
I0
sg43
I0
ssg46
g47
sg48
I0
sg49
I0
sg50
I0
sg51
I0
sg52
(g53
S'C1'
p423
S'AR'
p424
S'TA'
p425
tp426
sg58
(ijoueur
rang
p427
(dp428
g33
I5
sg34
S'**'
p429
sg36
g142
sbsg61
(dp430
g40
I0
sg41
I0
sg42
I0
sg43
I0
ssg63
(dp431
g40
I0
sg41
I0
sg42
I0
sg43
I0
ssg65
(dp432
g40
I0
sg41
I0
sg42
I0
sg43
I0
ssg67
(dp433
g40
I0
sg41
I0
sg42
I0
sg43
I0
ssg69
I0
sg70
I0
sg71
S'Myaed'
p434
sg73
I3
sg74
I0
sg75
I12
sg76
I130
sg77
g78
sg79
(dp435
g81
I10
sg82
I8
sg83
I10
sg84
I10
sg85
I8
sg86
I7
sg87
I7
sg88
I10
sg89
I10
sg90
I11
sg91
I9
sg92
I9
sg93
I6
sg94
I13
sg95
I10
ssg96
I0
sg97
I0
sg98
I0
sg99
I0
sg100
F10.133333333333333
sg101
I0
sg102
I0
sg103
I0
sg104
g435
sg105
I0
sg106
I0
sg107
I0
sg108
I0
sg109
I13
sg110
I32
sg111
I0
sg112
S'EN'
p436
sbsS'n20'
p437
(ijoueur
joueur
p438
(dp439
g27
I0
sg28
I0
sg29
I0
sg30
(ijoueur
rang
p440
(dp441
g33
I3
sg34
S'^^^'
p442
sg36
g237
sbsg38
(dp443
g40
I0
sg41
I0
sg42
I0
sg43
I0
ssg44
(dp444
g40
I0
sg41
I0
sg42
I0
sg43
I0
ssg46
g47
sg48
I0
sg49
I0
sg50
I0
sg51
I0
sg52
(g53
S'AR'
p445
S'CE'
p446
S'DO'
p447
tp448
sg58
(ijoueur
rang
p449
(dp450
g33
I3
sg34
S'^^^'
p451
sg36
g237
sbsg61
(dp452
g40
I0
sg41
I0
sg42
I0
sg43
I0
ssg63
(dp453
g40
I0
sg41
I0
sg42
I0
sg43
I0
ssg65
(dp454
g40
I0
sg41
I0
sg42
I0
sg43
I0
ssg67
(dp455
g40
I0
sg41
I0
sg42
I0
sg43
I0
ssg69
I0
sg70
I0
sg71
S'Praedol'
p456
sg73
I3
sg74
I0
sg75
I16
sg76
I13
sg77
g78
sg79
(dp457
g81
I9
sg82
I4
sg83
I10
sg84
I9
sg85
I12
sg86
I6
sg87
I9
sg88
I10
sg89
I7
sg90
I12
sg91
I11
sg92
I6
sg93
I9
sg94
I12
sg95
I4
ssg96
I0
sg97
I0
sg98
I0
sg99
I0
sg100
F10.303030303030303
sg101
I0
sg102
I0
sg103
I0
sg104
g457
sg105
I0
sg106
I0
sg107
I0
sg108
I0
sg109
I1
sg110
I8
sg111
I0
sg112
S'EN'
p458
sbsS'n8'
p459
(ijoueur
joueur
p460
(dp461
g27
I0
sg28
I0
sg29
I0
sg30
(ijoueur
rang
p462
(dp463
g33
I5
sg34
S'xx'
p464
sg36
g142
sbsg38
(dp465
g40
I0
sg41
I0
sg42
I0
sg43
I0
ssg44
(dp466
g40
I0
sg41
I0
sg42
I0
sg43
I0
ssg46
S'TA10'
p467
sg48
I0
sg49
I0
sg50
I0
sg51
I0
sg52
(g53
S'N8'
p468
S'TL'
p469
g47
tp470
sg58
(ijoueur
rang
p471
(dp472
g33
I5
sg34
S'xx'
p473
sg36
g142
sbsg61
(dp474
g40
I0
sg41
I0
sg42
I0
sg43
I0
ssg63
(dp475
g40
I0
sg41
I0
sg42
I0
sg43
I0
ssg65
(dp476
g40
I0
sg41
I0
sg42
I0
sg43
I0
ssg67
(dp477
g40
I0
sg41
I0
sg42
I0
sg43
I0
ssg69
I0
sg70
I0
sg71
S'Magh'
p478
sg73
I7
sg74
I0
sg75
I17
sg76
I303
sg77
g78
sg79
(dp479
g81
I9
sg82
I13
sg83
I7
sg84
I12
sg85
I7
sg86
I16
sg87
I7
sg88
I16
sg89
I10
sg90
I8
sg91
I13
sg92
I12
sg93
I7
sg94
I11
sg95
I10
ssg96
I0
sg97
I0
sg98
I0
sg99
I0
sg100
F12.206896551724139
sg101
I0
sg102
I0
sg103
I0
sg104
g479
sg105
I0
sg106
I0
sg107
I0
sg108
I0
sg109
I44
sg110
I14
sg111
I0
sg112
S'HB'
p480
sbsS'n9'
p481
(ijoueur
joueur
p482
(dp483
g27
I0
sg28
I0
sg29
I0
sg30
(ijoueur
rang
p484
(dp485
g33
I4
sg34
g35
sg36
g37
sbsg38
(dp486
g40
I0
sg41
I0
sg42
I0
sg43
I0
ssg44
(dp487
g40
I0
sg41
I0
sg42
I0
sg43
I0
ssg46
g47
sg48
I0
sg49
I0
sg50
I0
sg51
I0
sg52
(g53
S'DM'
p488
S'DO'
p489
g47
tp490
sg58
(ijoueur
rang
p491
(dp492
g33
I2
sg34
S'<<'
p493
sg36
g398
sbsg61
(dp494
g40
I0
sg41
I0
sg42
I0
sg43
I0
ssg63
(dp495
g40
I0
sg41
I0
sg42
I0
sg43
I0
ssg65
(dp496
g40
I0
sg41
I0
sg42
I0
sg43
I0
ssg67
(dp497
g40
I0
sg41
I0
sg42
I0
sg43
I0
ssg69
I0
sg70
I0
sg71
S'Kerfaod'
p498
sg73
I11
sg74
I0
sg75
I25
sg76
I24
sg77
g78
sg79
(dp499
g81
I11
sg82
I6
sg83
I7
sg84
I10
sg85
I8
sg86
I6
sg87
I8
sg88
I7
sg89
I5
sg90
I12
sg91
I11
sg92
I6
sg93
I7
sg94
I8
sg95
I5
ssg96
I0
sg97
I0
sg98
I0
sg99
I0
sg100
F9.551724137931034
sg101
I0
sg102
I0
sg103
I0
sg104
g499
sg105
I0
sg106
I0
sg107
I0
sg108
I0
sg109
I2
sg110
I0
sg111
I0
sg112
S'EN'
p500
sbsS'n1'
p501
(ijoueur
joueur
p502
(dp503
g27
I0
sg28
I0
sg29
I0
sg30
(ijoueur
rang
p504
(dp505
g33
I6
sg34
S'***'
p506
sg36
g193
sbsg38
(dp507
g40
I0
sg41
I0
sg42
I0
sg43
I0
ssg44
(dp508
g40
I0
sg41
I0
sg42
I0
sg43
I0
ssg46
g47
sg48
I0
sg49
I0
sg50
I0
sg51
I0
sg52
(g53
S'PI'
p509
S'TA'
p510
g47
tp511
sg58
(ijoueur
rang
p512
(dp513
g33
I6
sg34
S'***'
p514
sg36
g193
sbsg61
(dp515
g40
I0
sg41
I0
sg42
I0
sg43
I0
ssg63
(dp516
g40
I0
sg41
I0
sg42
I0
sg43
I0
ssg65
(dp517
g40
I0
sg41
I0
sg42
I0
sg43
I0
ssg67
(dp518
g40
I0
sg41
I0
sg42
I0
sg43
I0
ssg69
I0
sg70
I0
sg71
S'Khazrak'
p519
sg73
I11
sg74
I0
sg75
I23
sg76
I314
sg77
g78
sg79
(dp520
g81
I9
sg82
I11
sg83
I8
sg84
I10
sg85
I1
sg86
I12
sg87
I0
sg88
I13
sg89
I8
sg90
I8
sg91
I10
sg92
I10
sg93
I1
sg94
I10
sg95
I11
ssg96
I0
sg97
I0
sg98
I0
sg99
I0
sg100
F10.517241379310345
sg101
I0
sg102
I0
sg103
I0
sg104
g520
sg105
I0
sg106
I0
sg107
I0
sg108
I0
sg109
I25
sg110
I0
sg111
I0
sg112
S'HB'
p521
sbsS'n2'
p522
(ijoueur
joueur
p523
(dp524
g27
I0
sg28
I0
sg29
I0
sg30
(ijoueur
rang
p525
(dp526
g33
I4
sg34
g119
sg36
g37
sbsg38
(dp527
g40
I0
sg41
I0
sg42
I0
sg43
I0
ssg44
(dp528
g40
I0
sg41
I0
sg42
I0
sg43
I0
ssg46
g47
sg48
I0
sg49
I0
sg50
I0
sg51
I0
sg52
(g53
S'TA'
p529
g47
g47
tp530
sg58
(ijoueur
rang
p531
(dp532
g33
I4
sg34
g119
sg36
g37
sbsg61
(dp533
g40
I0
sg41
I0
sg42
I0
sg43
I0
ssg63
(dp534
g40
I0
sg41
I0
sg42
I0
sg43
I0
ssg65
(dp535
g40
I0
sg41
I0
sg42
I0
sg43
I0
ssg67
(dp536
g40
I0
sg41
I0
sg42
I0
sg43
I0
ssg69
I0
sg70
I0
sg71
S'Dafeor'
p537
sg73
I9
sg74
I0
sg75
I19
sg76
I67
sg77
g78
sg79
(dp538
g81
I14
sg82
I9
sg83
I9
sg84
I11
sg85
I4
sg86
I8
sg87
I5
sg88
I10
sg89
I10
sg90
I11
sg91
I7
sg92
I7
sg93
I5
sg94
I9
sg95
I9
ssg96
I0
sg97
I0
sg98
I0
sg99
I0
sg100
F9.344827586206897
sg101
I0
sg102
I0
sg103
I0
sg104
g538
sg105
I0
sg106
I0
sg107
I0
sg108
I0
sg109
I8
sg110
I1
sg111
I0
sg112
S'EN'
p539
sbsS'n3'
p540
(ijoueur
joueur
p541
(dp542
g27
I0
sg28
I0
sg29
I0
sg30
(ijoueur
rang
p543
(dp544
g33
I5
sg34
S'**'
p545
sg36
g142
sbsg38
(dp546
g40
I0
sg41
I0
sg42
I0
sg43
I0
ssg44
(dp547
g40
I0
sg41
I0
sg42
I0
sg43
I0
ssg46
S'APA10'
p548
sg48
I0
sg49
I0
sg50
I0
sg51
I0
sg52
(g53
S'PI'
p549
S'TA'
p550
g47
tp551
sg58
(ijoueur
rang
p552
(dp553
g33
I4
sg34
g119
sg36
g37
sbsg61
(dp554
g40
I0
sg41
I0
sg42
I0
sg43
I0
ssg63
(dp555
g40
I0
sg41
I0
sg42
I0
sg43
I0
ssg65
(dp556
g40
I0
sg41
I0
sg42
I0
sg43
I0
ssg67
(dp557
g40
I0
sg41
I0
sg42
I0
sg43
I0
ssg69
I0
sg70
I0
sg71
S'Ziflad'
p558
sg73
I8
sg74
I0
sg75
I19
sg76
I68
sg77
g78
sg79
(dp559
g81
I10
sg82
I9
sg83
I8
sg84
I11
sg85
I7
sg86
I8
sg87
I5
sg88
I9
sg89
I7
sg90
I11
sg91
I10
sg92
I7
sg93
I5
sg94
I12
sg95
I7
ssg96
I0
sg97
I0
sg98
I0
sg99
I0
sg100
F9.481481481481481
sg101
I0
sg102
I0
sg103
I0
sg104
g559
sg105
I0
sg106
I0
sg107
I0
sg108
I0
sg109
I7
sg110
I1
sg111
I0
sg112
S'HE'
p560
sbsS'n4'
p561
g115
sS'n5'
p562
g188
sS'n6'
p563
g210
sS'n7'
p564
(ijoueur
joueur
p565
(dp566
g27
I0
sg28
I0
sg29
I0
sg30
(ijoueur
rang
p567
(dp568
g33
I5
sg34
S'**'
p569
sg36
g142
sbsg38
(dp570
g40
I0
sg41
I0
sg42
I0
sg43
I0
ssg44
(dp571
g40
I0
sg41
I0
sg42
I0
sg43
I0
ssg46
g47
sg48
I0
sg49
I0
sg50
I0
sg51
I0
sg52
(g53
S'TL'
p572
S'N8'
p573
g47
tp574
sg58
(ijoueur
rang
p575
(dp576
g33
I3
sg34
S'^^^'
p577
sg36
g237
sbsg61
(dp578
g40
I0
sg41
I0
sg42
I0
sg43
I0
ssg63
(dp579
g40
I0
sg41
I0
sg42
I0
sg43
I0
ssg65
(dp580
g40
I0
sg41
I0
sg42
I0
sg43
I0
ssg67
(dp581
g40
I0
sg41
I0
sg42
I0
sg43
I0
ssg69
I0
sg70
I0
sg71
S'Xarmaod'
p582
sg73
I11
sg74
I0
sg75
I24
sg76
I16
sg77
g78
sg79
(dp583
g81
I11
sg82
I9
sg83
I6
sg84
I12
sg85
I5
sg86
I9
sg87
I5
sg88
I9
sg89
I10
sg90
I7
sg91
I9
sg92
I8
sg93
I4
sg94
I9
sg95
I6
ssg96
I0
sg97
I0
sg98
I0
sg99
I0
sg100
F9.368421052631579
sg101
I0
sg102
I0
sg103
I0
sg104
g583
sg105
I0
sg106
I0
sg107
I0
sg108
I0
sg109
I2
sg110
I0
sg111
I0
sg112
S'EN'
p584
sbssS'remplacements'
p585
(dp586
g345
S'n0'
p587
sg367
g587
sg370
g587
sg371
g587
sg392
g587
sg415
g587
sg437
g587
ssb.