(iclub
compo
p0
(dp1
S'caracs_old'
p2
(dp3
S'A'
p4
F149.0
sS'ME'
p5
F125.0
sS'E'
p6
F225.5
sS'OplusAV'
p7
F129.25
sS'OplusAR'
p8
F133.75
sS'JP'
p9
F104.75
sS'PA'
p10
F99.5
sS'M'
p11
F116.25
sS'OmoinsAR'
p12
F97.75
sS'TO_off'
p13
F105.75
sS'TO_def'
p14
F97.0
sS'OmoinsAV'
p15
F103.25
sS'R'
p16
F225.75
ssS'totaux_old'
p17
(dp18
S'T2'
p19
F176.75
sS'T3'
p20
F112.75
sS'T1'
p21
F226.0
ssS'roles'
p22
(dp23
S'SA_scd'
p24
(ijoueur
joueur
p25
(dp26
S'EV_saison_11'
p27
F10.862068965517242
sS'rouges_total'
p28
I1
sS'EV_saison_12'
p29
F11.379310344827585
sS'changements_postes'
p30
S''
p31
sS'drops_total'
p32
I0
sS'xp_total'
p33
F215.66964113186333
sS'blessure'
p34
I0
sS'RG_max'
p35
ccopy_reg
_reconstructor
p36
(cjoueur
rang_new
p37
c__builtin__
object
p38
Ntp39
Rp40
(dp41
S'type_nb'
p42
I5
sS'rang'
p43
S'xx'
p44
sS'type'
p45
S'seigneur'
p46
sbsS'MJ2_total'
p47
(dp48
S'SR'
p49
I3
sS'CT'
p50
I27
sS'CR'
p51
I7
sS'ST'
p52
I6
ssS'MJ3_total'
p53
(dp54
g49
I0
sg50
I0
sg51
I0
sg52
I0
ssS'xp'
p55
I0
sS'drop_rates_total'
p56
I0
sS'drop_rates_saison'
p57
I0
sS'xp_saison'
p58
F215.66964113186333
sS'MS_probleme'
p59
I00
sS'essais_saison'
p60
I0
sS'penalite_ratees_saison'
p61
I0
sS'transformations_saison'
p62
I0
sS'postes'
p63
(S'dummy'
p64
S'N8'
p65
S'TL'
p66
g31
tp67
sS'veut_partir'
p68
I00
sS'RG'
p69
g40
sS'MJ1'
p70
(dp71
S'SR'
p72
I0
sS'CT'
p73
I3
sS'CR'
p74
I3
sS'ST'
p75
I1
ssS'MJ2'
p76
(dp77
g72
I0
sg73
I2
sg74
I6
sg75
I4
ssS'MJ3'
p78
(dp79
g72
I0
sg73
I0
sg74
I0
sg75
I0
ssS'MJ1_total'
p80
(dp81
g49
I3
sg50
I6
sg51
I4
sg52
I3
ssS'penalites_total'
p82
I0
sS'penalites_saison'
p83
I0
sS'nom'
p84
S'Zerhen'
p85
sS'C'
p86
I7
sS'transformations_total'
p87
I0
sS'D'
p88
I20
sS'VAL'
p89
I255
sS'club'
p90
S'FS'
p91
sS'caracs'
p92
(dp93
S'A'
p94
I9
sS'ME'
p95
I9
sS'RP2'
p96
I6
sS'E'
p97
I14
sS'TO'
p98
I11
sS'RP1'
p99
I13
sS'JP'
p100
I5
sS'RP_tot'
p101
I13
sS'P'
p102
I5
sS'PA'
p103
I7
sS'M'
p104
I12
sS'R'
p105
I11
sS'TB'
p106
I5
sS'PL'
p107
I11
sS'TA'
p108
I5
ssS'jj_passe'
p109
(dp110
S's12'
p111
(ijoueur
joueur
p112
(dp113
g27
F10.862068965517242
sg28
I1
sg30
g31
sg32
I0
sg34
I0
sg35
g36
(g37
g38
Ntp114
Rp115
(dp116
g42
I5
sg43
S'xx'
p117
sg45
S'seigneur'
p118
sbsg47
(dp119
S'SR'
p120
I3
sS'CT'
p121
I25
sS'CR'
p122
I1
sS'ST'
p123
I1
ssg53
(dp124
g120
I0
sg121
I0
sg122
I0
sg123
I0
ssg76
(dp125
S'SR'
p126
I2
sS'CT'
p127
I12
sS'CR'
p128
I1
sS'ST'
p129
I0
ssg56
I0
sg57
I0
sg60
I3
sg61
I0
sg62
I0
sg63
(S'dummy'
p130
S'N8'
p131
S'TL'
p132
g31
tp133
sg68
I01
sg69
g115
sg70
(dp134
g126
I2
sg127
I1
sg128
I1
sg129
I2
ssg59
I01
sg78
(dp135
g126
I0
sg127
I0
sg128
I0
sg129
I0
ssg80
(dp136
g120
I3
sg121
I3
sg122
I1
sg123
I2
ssg82
I0
sg83
I0
sg84
S'Zerhen'
p137
sg86
I7
sg87
I0
sg88
I20
sg89
I170
sg90
S'TO'
p138
sg92
(dp139
S'A'
p140
I10
sS'ME'
p141
I9
sS'RP2'
p142
I6
sS'E'
p143
I13
sS'P'
p144
I5
sS'RP1'
p145
I13
sS'JP'
p146
I5
sS'RP_tot'
p147
I13
sS'TO'
p148
I10
sS'PA'
p149
I7
sS'M'
p150
I12
sS'R'
p151
I11
sS'TB'
p152
I5
sS'PL'
p153
I12
sS'TA'
p154
I5
ssg109
(dp155
S's11'
p156
(ijoueur
joueur
p157
(dp158
g28
I1
sg32
I0
sg34
I0
sg35
g36
(g37
g38
Ntp159
Rp160
(dp161
g42
I5
sg43
S'xx'
p162
sg45
S'seigneur'
p163
sbsg47
(dp164
S'SR'
p165
I0
sS'CT'
p166
I13
sS'CR'
p167
I0
sS'ST'
p168
I1
ssg53
(dp169
g165
I0
sg166
I0
sg167
I0
sg168
I0
ssg56
I0
sg57
I0
sg59
I01
sg60
I0
sg61
I0
sg62
I0
sg63
(S'dummy'
p170
S'N8'
p171
S'TL'
p172
g31
tp173
sg68
I00
sg69
g36
(g37
g38
Ntp174
Rp175
(dp176
g42
I4
sg43
S'*'
p177
sg45
S'heros'
p178
sbsg70
(dp179
g165
I1
sg166
I2
sg167
I0
sg168
I0
ssg76
(dp180
g165
I0
sg166
I13
sg167
I0
sg168
I1
ssg78
(dp181
g165
I0
sg166
I0
sg167
I0
sg168
I0
ssg80
(dp182
g165
I1
sg166
I2
sg167
I0
sg168
I0
ssg82
I0
sg83
I0
sg84
S'Zerhen'
p183
sg86
I7
sg87
I0
sg88
I20
sg89
I80
sg90
S'TO'
p184
sg92
(dp185
S'A'
p186
I10
sS'ME'
p187
I8
sS'RP2'
p188
I7
sS'E'
p189
I13
sS'P'
p190
I5
sS'RP1'
p191
I11
sS'JP'
p192
I5
sS'RP_tot'
p193
I11
sS'TO'
p194
I10
sS'PA'
p195
I7
sS'M'
p196
I10
sS'R'
p197
I11
sS'TB'
p198
I5
sS'PL'
p199
I12
sS'TA'
p200
I3
ssS'fatigue'
p201
I0
sS'drop_ratees_total'
p202
I0
sS'blessures_total'
p203
I0
sS'XP'
p204
I0
sS'EV'
p205
F10.862068965517242
sS'penalite_ratees_total'
p206
I0
sS'blessures_saison'
p207
I0
sS'jaunes_total'
p208
I0
sS'caracs_saison_11'
p209
(dp210
S'A'
p211
I10
sS'ME'
p212
I8
sS'RP2'
p213
I7
sS'E'
p214
I13
sS'P'
p215
I5
sS'RP1'
p216
I11
sS'JP'
p217
I5
sS'RP_tot'
p218
I11
sS'TO'
p219
I10
sS'PA'
p220
I7
sS'M'
p221
I10
sS'R'
p222
I11
sS'TB'
p223
I5
sS'PL'
p224
I12
sS'TA'
p225
I3
ssS'caracs_sans_fatigue'
p226
g185
sS'rouges_saison'
p227
I1
sS'anciens_clubs'
p228
g31
sS'transformation_ratees_total'
p229
I0
sS'drops_saison'
p230
I0
sS'transformation_ratees_saison'
p231
I0
sS'MS'
p232
I8
sS'essais_total'
p233
I2
sS'jaunes_saison'
p234
I0
sS'ARM'
p235
S'HB'
p236
sbssg201
I6
sg202
I0
sg203
I0
sg204
I0
sg205
F11.379310344827585
sg206
I0
sg207
I0
sg208
I0
sg209
(dp237
S'A'
p238
I10
sS'ME'
p239
I8
sS'RP2'
p240
I7
sS'E'
p241
I13
sS'TO'
p242
I10
sS'RP1'
p243
I11
sS'JP'
p244
I5
sS'RP_tot'
p245
I11
sS'P'
p246
I5
sS'PA'
p247
I7
sS'M'
p248
I10
sS'R'
p249
I11
sS'TB'
p250
I5
sS'PL'
p251
I12
sS'TA'
p252
I3
ssg226
g139
sg227
I0
sg228
g31
sg229
I0
sg230
I0
sg231
I0
sg232
I17
sg233
I5
sg234
I0
sg235
S'HB'
p253
sbsS's11'
p254
(ijoueur
joueur
p255
(dp256
g28
I1
sg32
I0
sg34
I0
sg35
g36
(g37
g38
Ntp257
Rp258
(dp259
g42
I5
sg43
S'xx'
p260
sg45
S'seigneur'
p261
sbsg47
(dp262
S'SR'
p263
I0
sS'CT'
p264
I13
sS'CR'
p265
I0
sS'ST'
p266
I1
ssg53
(dp267
g263
I0
sg264
I0
sg265
I0
sg266
I0
ssg56
I0
sg57
I0
sg59
I01
sg60
I0
sg61
I0
sg62
I0
sg63
(S'dummy'
p268
S'N8'
p269
S'TL'
p270
g31
tp271
sg68
I00
sg69
g36
(g37
g38
Ntp272
Rp273
(dp274
g42
I4
sg43
S'*'
p275
sg45
S'heros'
p276
sbsg70
(dp277
g263
I1
sg264
I2
sg265
I0
sg266
I0
ssg76
(dp278
g263
I0
sg264
I13
sg265
I0
sg266
I1
ssg78
(dp279
g263
I0
sg264
I0
sg265
I0
sg266
I0
ssg80
(dp280
g263
I1
sg264
I2
sg265
I0
sg266
I0
ssg82
I0
sg83
I0
sg84
S'Zerhen'
p281
sg86
I7
sg87
I0
sg88
I20
sg89
I80
sg90
S'TO'
p282
sg92
(dp283
S'A'
p284
I10
sS'ME'
p285
I8
sS'RP2'
p286
I7
sS'E'
p287
I13
sS'P'
p288
I5
sS'RP1'
p289
I11
sS'JP'
p290
I5
sS'RP_tot'
p291
I11
sS'TO'
p292
I10
sS'PA'
p293
I7
sS'M'
p294
I10
sS'R'
p295
I11
sS'TB'
p296
I5
sS'PL'
p297
I12
sS'TA'
p298
I3
ssg201
I0
sg202
I0
sg203
I0
sg204
I0
sg205
F10.862068965517242
sg206
I0
sg207
I0
sg208
I0
sg209
(dp299
S'A'
p300
I10
sS'ME'
p301
I8
sS'RP2'
p302
I7
sS'E'
p303
I13
sS'P'
p304
I5
sS'RP1'
p305
I11
sS'JP'
p306
I5
sS'RP_tot'
p307
I11
sS'TO'
p308
I10
sS'PA'
p309
I7
sS'M'
p310
I10
sS'R'
p311
I11
sS'TB'
p312
I5
sS'PL'
p313
I12
sS'TA'
p314
I3
ssg226
g283
sg227
I1
sg228
g31
sg229
I0
sg230
I0
sg231
I0
sg232
I8
sg233
I2
sg234
I0
sg235
S'HB'
p315
sbssg201
I10
sg202
I0
sg203
I1
sg204
I0
sg205
F11.758620689655173
sg206
I0
sg207
I1
sg208
I0
sg209
(dp316
S'A'
p317
I10
sS'ME'
p318
I8
sS'RP2'
p319
I7
sS'E'
p320
I13
sS'TO'
p321
I10
sS'RP1'
p322
I11
sS'JP'
p323
I5
sS'RP_tot'
p324
I11
sS'P'
p325
I5
sS'PA'
p326
I7
sS'M'
p327
I10
sS'R'
p328
I11
sS'TB'
p329
I5
sS'PL'
p330
I12
sS'TA'
p331
I3
ssg226
(dp332
g94
I10
sg95
I9
sg96
I6
sg97
I14
sg102
I5
sg99
I13
sg100
I5
sg101
I13
sg98
I11
sg103
I7
sg104
I12
sg105
I12
sg106
I5
sg107
I12
sg108
I5
ssg227
I0
sS'caracs_saison_12'
p333
(dp334
sg229
I0
sg228
S'TO 13'
p335
sg230
I0
sg231
I0
sg232
I22
sg233
I5
sg234
I0
sg235
S'HB'
p336
sbsS'drop3'
p337
(ijoueur
joueur
p338
(dp339
g27
F9.121212121212121
sg28
I0
sg29
F9.484848484848484
sg30
g31
sg32
I1
sg33
F214.74334429679345
sg34
I0
sg35
g36
(g37
g38
Ntp340
Rp341
(dp342
g42
I1
sg43
S'^'
p343
sg45
S'base'
p344
sbsg47
(dp345
S'SR'
p346
I0
sS'ST'
p347
I0
sS'CR'
p348
I0
sS'CT'
p349
I0
ssg53
(dp350
g346
I0
sg347
I0
sg348
I0
sg349
I0
ssg55
I0
sg76
(dp351
S'SR'
p352
I0
sS'CT'
p353
I0
sS'CR'
p354
I0
sS'ST'
p355
I0
ssg56
I0
sg57
I0
sS'transformations'
p356
I0
sS'penalites'
p357
I0
sg60
I1
sg61
I0
sg62
I0
sg63
(S'dummy'
p358
S'DO'
p359
g31
g31
tp360
sg68
I00
sg69
g36
(g37
g38
Ntp361
Rp362
(dp363
g42
I1
sg43
g343
sg45
g344
sbsg70
(dp364
g352
I5
sg353
I2
sg354
I12
sg355
I0
ssg59
I00
sg78
(dp365
g352
I0
sg353
I0
sg354
I0
sg355
I0
ssg80
(dp366
g346
I13
sg347
I1
sg348
I23
sg349
I6
ssg82
I0
sg83
I0
sg84
S'Merkot'
p367
sg86
I3
sg87
I0
sg88
I14
sg89
I50
sg90
S'ED'
p368
sg92
(dp369
S'A'
p370
I9
sS'ME'
p371
I3
sS'RP2'
p372
I9
sS'E'
p373
I10
sS'P'
p374
I10
sS'RP1'
p375
I6
sS'JP'
p376
I12
sS'RP_tot'
p377
I9
sS'TO'
p378
I4
sS'PA'
p379
I10
sS'M'
p380
I8
sS'R'
p381
I9
sS'TB'
p382
I6
sS'PL'
p383
I9
sS'TA'
p384
I3
ssg109
(dp385
S's12'
p386
(ijoueur
joueur
p387
(dp388
g27
F9.121212121212121
sg28
I0
sg30
g31
sg32
I0
sg34
I0
sg35
g36
(g37
g38
Ntp389
Rp390
(dp391
g42
I1
sg43
S'^'
p392
sg45
S'base'
p393
sbsg47
(dp394
S'SR'
p395
I0
sS'ST'
p396
I0
sS'CR'
p397
I0
sS'CT'
p398
I0
ssg53
(dp399
g395
I0
sg396
I0
sg397
I0
sg398
I0
ssg56
I0
sg205
F9.484848484848484
sg57
I0
sg356
I0
sg357
I0
sg60
I0
sg61
I0
sg62
I0
sg63
(S'dummy'
p400
S'DO'
p401
g31
g31
tp402
sg68
I00
sg69
g36
(g37
g38
Ntp403
Rp404
(dp405
g42
I1
sg43
g392
sg45
g393
sbsg70
(dp406
S'SR'
p407
I6
sS'CT'
p408
I3
sS'CR'
p409
I10
sS'ST'
p410
I0
ssg59
I00
sg78
(dp411
g407
I0
sg408
I0
sg409
I0
sg410
I0
ssg80
(dp412
g395
I7
sg396
I1
sg397
I11
sg398
I4
ssg82
I0
sg83
I0
sg84
S'Merkot'
p413
sg86
I3
sg87
I0
sg88
I14
sg89
I50
sg90
S'ED'
p414
sg92
(dp415
S'A'
p416
I9
sS'ME'
p417
I3
sS'RP2'
p418
I9
sS'E'
p419
I10
sS'TO'
p420
I4
sS'RP1'
p421
I6
sS'JP'
p422
I10
sS'RP_tot'
p423
I9
sS'P'
p424
I10
sS'PA'
p425
I10
sS'M'
p426
I8
sS'R'
p427
I9
sS'TB'
p428
I6
sS'PL'
p429
I9
sS'TA'
p430
I3
ssg109
(dp431
S's11'
p432
(ijoueur
joueur
p433
(dp434
g28
I0
sg32
I0
sg34
I0
sg35
g36
(g37
g38
Ntp435
Rp436
(dp437
g42
I1
sg43
S'^'
p438
sg45
S'base'
p439
sbsg47
(dp440
S'SR'
p441
I0
sS'CT'
p442
I0
sS'CR'
p443
I0
sS'ST'
p444
I0
ssg53
(dp445
g441
I0
sg442
I0
sg443
I0
sg444
I0
ssg56
I0
sg205
F9.121212121212121
sg57
I0
sg356
I0
sg357
I0
sg60
I0
sg61
I0
sg62
I0
sg63
(S'dummy'
p446
S'DO'
p447
g31
g31
tp448
sg68
I01
sg69
g36
(g37
g38
Ntp449
Rp450
(dp451
g42
I1
sg43
g438
sg45
g439
sbsg70
(dp452
g441
I0
sg442
I1
sg443
I1
sg444
I1
ssg59
I01
sg78
(dp453
g441
I0
sg442
I0
sg443
I0
sg444
I0
ssg80
(dp454
g441
I0
sg442
I1
sg443
I1
sg444
I1
ssg82
I0
sg83
I0
sg84
S'Merkot'
p455
sg86
I3
sg87
I0
sg88
I14
sg89
I6
sg90
S'DKW'
p456
sg92
(dp457
S'A'
p458
I9
sS'ME'
p459
I3
sS'RP2'
p460
I8
sS'E'
p461
I10
sS'P'
p462
I9
sS'RP1'
p463
I6
sS'JP'
p464
I10
sS'RP_tot'
p465
I8
sS'TO'
p466
I4
sS'PA'
p467
I10
sS'M'
p468
I8
sS'R'
p469
I9
sS'TB'
p470
I6
sS'PL'
p471
I8
sS'TA'
p472
I3
ssg201
I0
sg202
I0
sg203
I0
sg204
I0
sg76
(dp473
g441
I0
sg442
I0
sg443
I0
sg444
I0
ssg206
I0
sS'drops'
p474
I0
sg207
I0
sg208
I0
sg209
(dp475
S'A'
p476
I9
sS'ME'
p477
I3
sS'RP2'
p478
I8
sS'E'
p479
I10
sS'P'
p480
I9
sS'RP1'
p481
I6
sS'JP'
p482
I10
sS'RP_tot'
p483
I8
sS'TO'
p484
I4
sS'PA'
p485
I10
sS'M'
p486
I8
sS'R'
p487
I9
sS'TB'
p488
I6
sS'PL'
p489
I8
sS'TA'
p490
I3
ssg226
g457
sg227
I0
sg228
g31
sg229
I0
sg230
I0
sg231
I0
sg232
I1
sg233
I1
sg234
I0
sg235
S'HB'
p491
sbssg201
I2
sg202
I0
sg203
I0
sg204
I0
sg76
(dp492
g407
I0
sg408
I0
sg409
I0
sg410
I0
ssg206
I0
sg474
I0
sg207
I0
sg208
I1
sg209
(dp493
S'A'
p494
I9
sS'ME'
p495
I3
sS'RP2'
p496
I8
sS'E'
p497
I10
sS'P'
p498
I9
sS'RP1'
p499
I6
sS'JP'
p500
I10
sS'RP_tot'
p501
I8
sS'TO'
p502
I4
sS'PA'
p503
I10
sS'M'
p504
I8
sS'R'
p505
I9
sS'TB'
p506
I6
sS'PL'
p507
I8
sS'TA'
p508
I3
ssg226
g415
sg227
I0
sg228
S'DKW 12'
p509
sg229
I0
sg230
I0
sg231
I0
sg232
I8
sg233
I1
sg234
I1
sg235
S'HB'
p510
sbsS's11'
p511
(ijoueur
joueur
p512
(dp513
g28
I0
sg32
I0
sg34
I0
sg35
g36
(g37
g38
Ntp514
Rp515
(dp516
g42
I1
sg43
S'^'
p517
sg45
S'base'
p518
sbsg47
(dp519
S'SR'
p520
I0
sS'CT'
p521
I0
sS'CR'
p522
I0
sS'ST'
p523
I0
ssg53
(dp524
g520
I0
sg521
I0
sg522
I0
sg523
I0
ssg56
I0
sg205
F9.121212121212121
sg57
I0
sg356
I0
sg357
I0
sg60
I0
sg61
I0
sg62
I0
sg63
(S'dummy'
p525
S'DO'
p526
g31
g31
tp527
sg68
I01
sg69
g36
(g37
g38
Ntp528
Rp529
(dp530
g42
I1
sg43
g517
sg45
g518
sbsg70
(dp531
g520
I0
sg521
I1
sg522
I1
sg523
I1
ssg59
I01
sg78
(dp532
g520
I0
sg521
I0
sg522
I0
sg523
I0
ssg80
(dp533
g520
I0
sg521
I1
sg522
I1
sg523
I1
ssg82
I0
sg83
I0
sg84
S'Merkot'
p534
sg86
I3
sg87
I0
sg88
I14
sg89
I6
sg90
S'DKW'
p535
sg92
(dp536
S'A'
p537
I9
sS'ME'
p538
I3
sS'RP2'
p539
I8
sS'E'
p540
I10
sS'P'
p541
I9
sS'RP1'
p542
I6
sS'JP'
p543
I10
sS'RP_tot'
p544
I8
sS'TO'
p545
I4
sS'PA'
p546
I10
sS'M'
p547
I8
sS'R'
p548
I9
sS'TB'
p549
I6
sS'PL'
p550
I8
sS'TA'
p551
I3
ssg201
I0
sg202
I0
sg203
I0
sg204
I0
sg76
(dp552
g520
I0
sg521
I0
sg522
I0
sg523
I0
ssg206
I0
sg474
I0
sg207
I0
sg208
I0
sg209
(dp553
S'A'
p554
I9
sS'ME'
p555
I3
sS'RP2'
p556
I8
sS'E'
p557
I10
sS'P'
p558
I9
sS'RP1'
p559
I6
sS'JP'
p560
I10
sS'RP_tot'
p561
I8
sS'TO'
p562
I4
sS'PA'
p563
I10
sS'M'
p564
I8
sS'R'
p565
I9
sS'TB'
p566
I6
sS'PL'
p567
I8
sS'TA'
p568
I3
ssg226
g536
sg227
I0
sg228
g31
sg229
I0
sg230
I0
sg231
I0
sg232
I1
sg233
I1
sg234
I0
sg235
S'HB'
p569
sbssg201
I5
sg202
I0
sg203
I0
sg204
I0
sg205
F9.787878787878787
sg206
I0
sg58
F214.74334429679345
sg474
I0
sg207
I0
sg208
I2
sg209
(dp570
S'A'
p571
I9
sS'ME'
p572
I3
sS'RP2'
p573
I8
sS'E'
p574
I10
sS'P'
p575
I9
sS'RP1'
p576
I6
sS'JP'
p577
I10
sS'RP_tot'
p578
I8
sS'TO'
p579
I4
sS'PA'
p580
I10
sS'M'
p581
I8
sS'R'
p582
I9
sS'TB'
p583
I6
sS'PL'
p584
I8
sS'TA'
p585
I3
ssg226
(dp586
g370
I9
sg371
I3
sg372
I9
sg373
I10
sg378
I4
sg375
I6
sg376
I12
sg377
I9
sg374
I10
sg379
I10
sg380
I8
sg381
I9
sg382
I6
sg383
I9
sg384
I3
ssg227
I0
sg333
(dp587
sg229
I0
sg228
S'DKW 12'
p588
sg230
I1
sg231
I0
sg232
I8
sg233
I2
sg234
I1
sg235
S'HB'
p589
sbsS'cap'
p590
(ijoueur
joueur
p591
(dp592
g27
F11.620689655172415
sg28
I1
sg29
F12.275862068965518
sg30
g31
sg32
I0
sg33
F223.04885254187747
sg34
I0
sg35
g36
(g37
g38
Ntp593
Rp594
(dp595
g42
I4
sg43
S'*'
p596
sg45
S'heros'
p597
sbsg47
(dp598
S'SR'
p599
I0
sS'CT'
p600
I10
sS'CR'
p601
I1
sS'ST'
p602
I0
ssg53
(dp603
g599
I0
sg600
I17
sg601
I0
sg602
I0
ssg55
I0
sg56
I0
sg57
I0
sg356
I0
sg357
I0
sg59
I00
sg60
I1
sg61
I0
sg62
I0
sg63
(S'dummy'
p604
S'TA'
p605
S'TL'
p606
S'N8'
p607
tp608
sg68
I00
sg69
g36
(g37
g38
Ntp609
Rp610
(dp611
g42
I5
sg43
S'xx'
p612
sg45
S'seigneur'
p613
sbsg70
(dp614
S'SR'
p615
I0
sS'CT'
p616
I0
sS'CR'
p617
I0
sS'ST'
p618
I5
ssg76
(dp619
g615
I0
sg616
I10
sg617
I1
sg618
I0
ssg78
(dp620
g615
I0
sg616
I4
sg617
I0
sg618
I0
ssg80
(dp621
g599
I0
sg600
I16
sg601
I1
sg602
I20
ssg82
I0
sg83
I0
sg84
S'Ghenf'
p622
sg86
I7
sg87
I0
sg88
I16
sg89
I200
sg90
S'MRB'
p623
sg92
(dp624
S'A'
p625
I10
sS'ME'
p626
I12
sS'RP2'
p627
I8
sS'E'
p628
I14
sS'TO'
p629
I9
sS'RP1'
p630
I13
sS'JP'
p631
I6
sS'RP_tot'
p632
I14
sS'P'
p633
I8
sS'PA'
p634
I9
sS'M'
p635
I9
sS'R'
p636
I11
sS'TB'
p637
I6
sS'PL'
p638
I12
sS'TA'
p639
I12
ssg109
(dp640
S's12'
p641
(ijoueur
joueur
p642
(dp643
g27
F11.620689655172415
sg28
I1
sg30
g31
sg32
I0
sg34
I0
sg35
g36
(g37
g38
Ntp644
Rp645
(dp646
g42
I4
sg43
S'*'
p647
sg45
S'heros'
p648
sbsg47
(dp649
S'SR'
p650
I0
sS'CT'
p651
I0
sS'CR'
p652
I0
sS'ST'
p653
I0
ssg53
(dp654
g650
I0
sg651
I13
sg652
I0
sg653
I0
ssg76
(dp655
S'SR'
p656
I0
sS'CT'
p657
I0
sS'CR'
p658
I0
sS'ST'
p659
I0
ssg56
I0
sg57
I0
sg356
I0
sg357
I0
sg60
I7
sg61
I0
sg62
I0
sg63
(S'dummy'
p660
S'TA'
p661
S'TL'
p662
S'N8'
p663
tp664
sg68
I00
sg69
g36
(g37
g38
Ntp665
Rp666
(dp667
g42
I5
sg43
S'xx'
p668
sg45
S'seigneur'
p669
sbsg70
(dp670
g656
I0
sg657
I1
sg658
I0
sg659
I5
ssg59
I01
sg78
(dp671
g656
I0
sg657
I13
sg658
I0
sg659
I0
ssg80
(dp672
g650
I0
sg651
I16
sg652
I1
sg653
I14
ssg82
I0
sg83
I0
sg84
S'Ghenf'
p673
sg86
I7
sg87
I0
sg88
I16
sg89
I200
sg90
S'MRB'
p674
sg92
(dp675
S'A'
p676
I11
sS'ME'
p677
I12
sS'RP2'
p678
I8
sS'E'
p679
I14
sS'P'
p680
I7
sS'RP1'
p681
I13
sS'JP'
p682
I7
sS'RP_tot'
p683
I14
sS'TO'
p684
I8
sS'PA'
p685
I9
sS'M'
p686
I9
sS'R'
p687
I12
sS'TB'
p688
I6
sS'PL'
p689
I12
sS'TA'
p690
I12
ssg109
(dp691
S's11'
p692
(ijoueur
joueur
p693
(dp694
g28
I1
sg32
I0
sg34
I0
sg35
g36
(g37
g38
Ntp695
Rp696
(dp697
g42
I4
sg43
S'*'
p698
sg45
S'heros'
p699
sbsg47
(dp700
S'SR'
p701
I0
sS'ST'
p702
I0
sS'CR'
p703
I0
sS'CT'
p704
I0
ssg53
(dp705
g701
I0
sg702
I0
sg703
I0
sg704
I0
ssg76
(dp706
g701
I0
sg702
I0
sg703
I0
sg704
I0
ssg56
I0
sg57
I0
sg356
I0
sg357
I0
sg60
I2
sg61
I0
sg62
I0
sg63
(S'dummy'
p707
S'TA'
p708
S'TL'
p709
S'N8'
p710
tp711
sg68
I01
sg69
g36
(g37
g38
Ntp712
Rp713
(dp714
g42
I5
sg43
S'xx'
p715
sg45
S'seigneur'
p716
sbsg70
(dp717
g701
I0
sg702
I8
sg703
I1
sg704
I15
ssg59
I00
sg78
(dp718
g701
I0
sg702
I0
sg703
I0
sg704
I0
ssg80
(dp719
g701
I0
sg702
I8
sg703
I1
sg704
I15
ssg82
I0
sg83
I0
sg84
S'Ghenf'
p720
sg86
I7
sg87
I0
sg88
I16
sg89
I180
sg90
S'KAK'
p721
sg92
(dp722
S'A'
p723
I10
sS'ME'
p724
I11
sS'RP2'
p725
I7
sS'E'
p726
I13
sS'TO'
p727
I8
sS'RP1'
p728
I13
sS'JP'
p729
I7
sS'RP_tot'
p730
I13
sS'P'
p731
I7
sS'PA'
p732
I9
sS'M'
p733
I9
sS'R'
p734
I11
sS'TB'
p735
I6
sS'PL'
p736
I12
sS'TA'
p737
I12
ssg201
I0
sg202
I0
sg203
I0
sg204
I0
sg205
F11.620689655172415
sg206
I0
sg474
I0
sg207
I0
sg208
I1
sg209
(dp738
S'A'
p739
I10
sS'ME'
p740
I11
sS'RP2'
p741
I7
sS'E'
p742
I13
sS'TO'
p743
I8
sS'RP1'
p744
I13
sS'JP'
p745
I7
sS'RP_tot'
p746
I13
sS'P'
p747
I7
sS'PA'
p748
I9
sS'M'
p749
I9
sS'R'
p750
I11
sS'TB'
p751
I6
sS'PL'
p752
I12
sS'TA'
p753
I12
ssg226
g722
sg227
I1
sg228
g31
sg229
I0
sg230
I0
sg231
I0
sg232
I21
sg233
I5
sg234
I1
sg235
S'HB'
p754
sbssg201
I13
sg202
I0
sg203
I0
sg204
I0
sg205
F12.275862068965518
sg206
I0
sg474
I0
sg207
I0
sg208
I3
sg209
(dp755
S'A'
p756
I10
sS'ME'
p757
I11
sS'RP2'
p758
I7
sS'E'
p759
I13
sS'P'
p760
I7
sS'RP1'
p761
I13
sS'JP'
p762
I7
sS'RP_tot'
p763
I13
sS'TO'
p764
I8
sS'PA'
p765
I9
sS'M'
p766
I9
sS'R'
p767
I11
sS'TB'
p768
I6
sS'PL'
p769
I12
sS'TA'
p770
I12
ssg226
g675
sg227
I0
sg228
S'KAK 12'
p771
sg229
I0
sg230
I0
sg231
I0
sg232
I20
sg233
I12
sg234
I2
sg235
S'HB'
p772
sbsS's11'
p773
(ijoueur
joueur
p774
(dp775
g28
I1
sg32
I0
sg34
I0
sg35
g36
(g37
g38
Ntp776
Rp777
(dp778
g42
I4
sg43
S'*'
p779
sg45
S'heros'
p780
sbsg47
(dp781
S'SR'
p782
I0
sS'ST'
p783
I0
sS'CR'
p784
I0
sS'CT'
p785
I0
ssg53
(dp786
g782
I0
sg783
I0
sg784
I0
sg785
I0
ssg76
(dp787
g782
I0
sg783
I0
sg784
I0
sg785
I0
ssg56
I0
sg57
I0
sg356
I0
sg357
I0
sg60
I2
sg61
I0
sg62
I0
sg63
(S'dummy'
p788
S'TA'
p789
S'TL'
p790
S'N8'
p791
tp792
sg68
I01
sg69
g36
(g37
g38
Ntp793
Rp794
(dp795
g42
I5
sg43
S'xx'
p796
sg45
S'seigneur'
p797
sbsg70
(dp798
g782
I0
sg783
I8
sg784
I1
sg785
I15
ssg59
I00
sg78
(dp799
g782
I0
sg783
I0
sg784
I0
sg785
I0
ssg80
(dp800
g782
I0
sg783
I8
sg784
I1
sg785
I15
ssg82
I0
sg83
I0
sg84
S'Ghenf'
p801
sg86
I7
sg87
I0
sg88
I16
sg89
I180
sg90
S'KAK'
p802
sg92
(dp803
S'A'
p804
I10
sS'ME'
p805
I11
sS'RP2'
p806
I7
sS'E'
p807
I13
sS'TO'
p808
I8
sS'RP1'
p809
I13
sS'JP'
p810
I7
sS'RP_tot'
p811
I13
sS'P'
p812
I7
sS'PA'
p813
I9
sS'M'
p814
I9
sS'R'
p815
I11
sS'TB'
p816
I6
sS'PL'
p817
I12
sS'TA'
p818
I12
ssg201
I0
sg202
I0
sg203
I0
sg204
I0
sg205
F11.620689655172415
sg206
I0
sg474
I0
sg207
I0
sg208
I1
sg209
(dp819
S'A'
p820
I10
sS'ME'
p821
I11
sS'RP2'
p822
I7
sS'E'
p823
I13
sS'TO'
p824
I8
sS'RP1'
p825
I13
sS'JP'
p826
I7
sS'RP_tot'
p827
I13
sS'P'
p828
I7
sS'PA'
p829
I9
sS'M'
p830
I9
sS'R'
p831
I11
sS'TB'
p832
I6
sS'PL'
p833
I12
sS'TA'
p834
I12
ssg226
g803
sg227
I1
sg228
g31
sg229
I0
sg230
I0
sg231
I0
sg232
I21
sg233
I5
sg234
I1
sg235
S'HB'
p835
sbssg201
I10
sg202
I0
sg203
I0
sg204
I0
sg205
F12.413793103448276
sg206
I0
sg58
F223.04885254187747
sg474
I0
sg207
I0
sg208
I3
sg209
(dp836
S'A'
p837
I10
sS'ME'
p838
I11
sS'RP2'
p839
I7
sS'E'
p840
I13
sS'P'
p841
I7
sS'RP1'
p842
I13
sS'JP'
p843
I7
sS'RP_tot'
p844
I13
sS'TO'
p845
I8
sS'PA'
p846
I9
sS'M'
p847
I9
sS'R'
p848
I11
sS'TB'
p849
I6
sS'PL'
p850
I12
sS'TA'
p851
I12
ssg226
(dp852
g625
I11
sg626
I12
sg627
I8
sg628
I14
sg633
I8
sg630
I13
sg631
I6
sg632
I14
sg629
I9
sg634
I9
sg635
I9
sg636
I12
sg637
I6
sg638
I13
sg639
I12
ssg227
I0
sg333
(dp853
sg229
I0
sg228
S'KAK 12'
p854
sg230
I0
sg231
I0
sg232
I20
sg233
I13
sg234
I0
sg235
S'HB'
p855
sbsS'SA_pcp2'
p856
(ijoueur
joueur
p857
(dp858
g27
F12.64516129032258
sg28
I1
sg29
F12.419354838709678
sg30
g31
sg32
I0
sg33
F205.64628268423542
sg34
I0
sg35
g36
(g37
g38
Ntp859
Rp860
(dp861
g42
I5
sg43
S'xx'
p862
sg45
S'seigneur'
p863
sbsg47
(dp864
S'SR'
p865
I0
sS'CT'
p866
I0
sS'CR'
p867
I0
sS'ST'
p868
I0
ssg53
(dp869
g865
I0
sg866
I0
sg867
I0
sg868
I0
ssg55
I0
sg228
S'KAK 10;AL 13'
p870
sg205
F12.96774193548387
sg57
I0
sg58
F205.64628268423542
sg60
I2
sg61
I0
sg62
I0
sg63
(S'dummy'
p871
S'TL'
p872
g31
g31
tp873
sg68
I00
sg69
g36
(g37
g38
Ntp874
Rp875
(dp876
g42
I5
sg43
S'xx'
p877
sg45
g863
sbsg70
(dp878
g72
I0
sg73
I12
sg74
I1
sg75
I5
ssg59
I00
sg78
(dp879
g72
I0
sg73
I0
sg74
I0
sg75
I0
ssg80
(dp880
g865
I0
sg866
I41
sg867
I2
sg868
I21
ssg82
I0
sg83
I0
sg84
S'Rohogd'
p881
sg86
I7
sg87
I0
sg88
I21
sg89
I504
sg90
g91
sg92
(dp882
S'A'
p883
I12
sS'ME'
p884
I12
sS'RP2'
p885
I8
sS'E'
p886
I12
sS'TO'
p887
I11
sS'RP1'
p888
I15
sS'JP'
p889
I11
sS'RP_tot'
p890
I16
sS'P'
p891
I7
sS'PA'
p892
I7
sS'M'
p893
I11
sS'R'
p894
I13
sS'TB'
p895
I8
sS'PL'
p896
I11
sS'TA'
p897
I9
ssg226
(dp898
g883
I13
sg884
I12
sg885
I8
sg886
I12
sg891
I7
sg888
I15
sg889
I11
sg890
I16
sg887
I11
sg892
I7
sg893
I11
sg894
I14
sg895
I8
sg896
I12
sg897
I9
ssg109
(dp899
S's12'
p900
(ijoueur
joueur
p901
(dp902
g27
F12.64516129032258
sg28
I1
sg30
g31
sg32
I0
sg34
I0
sg35
g36
(g37
g38
Ntp903
Rp904
(dp905
g42
I5
sg43
S'xx'
p906
sg45
S'seigneur'
p907
sbsg47
(dp908
S'SR'
p909
I0
sS'CT'
p910
I0
sS'CR'
p911
I0
sS'ST'
p912
I0
ssg53
(dp913
g909
I0
sg910
I0
sg911
I0
sg912
I0
ssg228
S'KAK 10'
p914
sg57
I0
sg59
I00
sg60
I5
sg61
I0
sg62
I0
sg63
(S'dummy'
p915
S'TL'
p916
g31
g31
tp917
sg68
I01
sg69
g36
(g37
g38
Ntp918
Rp919
(dp920
g42
I5
sg43
S'xx'
p921
sg45
g907
sbsg70
(dp922
S'SR'
p923
I0
sS'ST'
p924
I6
sS'CR'
p925
I0
sS'CT'
p926
I14
ssg76
(dp927
g923
I0
sg924
I0
sg925
I0
sg926
I0
ssg78
(dp928
g923
I0
sg924
I0
sg925
I0
sg926
I0
ssg80
(dp929
g909
I0
sg910
I29
sg911
I1
sg912
I15
ssg82
I0
sg83
I0
sg84
S'Rohogd'
p930
sg86
I7
sg87
I0
sg88
I21
sg89
I359
sg90
S'AL'
p931
sg92
(dp932
S'A'
p933
I13
sS'ME'
p934
I12
sS'RP2'
p935
I8
sS'E'
p936
I11
sS'P'
p937
I7
sS'RP1'
p938
I14
sS'JP'
p939
I10
sS'RP_tot'
p940
I15
sS'TO'
p941
I11
sS'PA'
p942
I7
sS'M'
p943
I11
sS'R'
p944
I13
sS'TB'
p945
I8
sS'PL'
p946
I12
sS'TA'
p947
I9
ssg226
g932
sg109
(dp948
S's11'
p949
(ijoueur
joueur
p950
(dp951
g28
I0
sg32
I0
sg34
I0
sg35
g36
(g37
g38
Ntp952
Rp953
(dp954
g42
I5
sg43
S'xx'
p955
sg45
S'seigneur'
p956
sbsg47
(dp957
S'SR'
p958
I0
sS'ST'
p959
I0
sS'CR'
p960
I0
sS'CT'
p961
I0
ssg53
(dp962
g958
I0
sg959
I0
sg960
I0
sg961
I0
ssg228
S'KAK 10'
p963
sg57
I0
sg59
I01
sg60
I5
sg61
I0
sg62
I0
sg63
(S'dummy'
p964
S'TL'
p965
g31
g31
tp966
sg68
I01
sg69
g36
(g37
g38
Ntp967
Rp968
(dp969
g42
I5
sg43
S'xx'
p970
sg45
g956
sbsg70
(dp971
g958
I0
sg959
I8
sg960
I1
sg961
I15
ssg76
(dp972
g958
I0
sg959
I0
sg960
I0
sg961
I0
ssg78
(dp973
g958
I0
sg959
I0
sg960
I0
sg961
I0
ssg80
(dp974
g958
I0
sg959
I8
sg960
I1
sg961
I15
ssg82
I0
sg83
I0
sg84
S'Rohogd'
p975
sg86
I7
sg87
I0
sg88
I21
sg89
I359
sg90
S'AL'
p976
sg92
(dp977
S'A'
p978
I12
sS'ME'
p979
I13
sS'RP2'
p980
I7
sS'E'
p981
I13
sS'TO'
p982
I11
sS'RP1'
p983
I14
sS'JP'
p984
I9
sS'RP_tot'
p985
I14
sS'P'
p986
I8
sS'PA'
p987
I7
sS'M'
p988
I13
sS'R'
p989
I13
sS'TB'
p990
I7
sS'PL'
p991
I12
sS'TA'
p992
I9
ssg226
g977
sg201
I0
sg202
I0
sg203
I0
sg204
I0
sg205
F12.64516129032258
sg206
I0
sS'pas_meme_type'
p993
(lp994
S'EV'
p995
asg207
I0
sg208
I0
sg209
(dp996
S'A'
p997
I12
sS'ME'
p998
I13
sS'RP2'
p999
I7
sS'E'
p1000
I13
sS'TO'
p1001
I11
sS'RP1'
p1002
I14
sS'JP'
p1003
I9
sS'RP_tot'
p1004
I14
sS'P'
p1005
I8
sS'PA'
p1006
I7
sS'M'
p1007
I13
sS'R'
p1008
I13
sS'TB'
p1009
I7
sS'PL'
p1010
I12
sS'TA'
p1011
I9
ssS'attribute_error'
p1012
(lp1013
sg227
I0
sg229
I0
sg230
I0
sg231
I0
sg232
I24
sg233
I9
sg234
I0
sg235
S'HB'
p1014
sbssg201
I14
sg202
I0
sg203
I0
sg204
I0
sg205
F12.419354838709678
sg206
I0
sg993
(lp1015
S'EV'
p1016
asg207
I0
sg208
I0
sg209
(dp1017
S'A'
p1018
I12
sS'ME'
p1019
I13
sS'RP2'
p1020
I7
sS'E'
p1021
I13
sS'P'
p1022
I8
sS'RP1'
p1023
I14
sS'JP'
p1024
I9
sS'RP_tot'
p1025
I14
sS'TO'
p1026
I11
sS'PA'
p1027
I7
sS'M'
p1028
I13
sS'R'
p1029
I13
sS'TB'
p1030
I7
sS'PL'
p1031
I12
sS'TA'
p1032
I9
ssg1012
(lp1033
sg227
I1
sg229
I0
sg230
I0
sg231
I0
sg232
I118
sg233
I14
sg234
I0
sg235
S'HB'
p1034
sbsS's11'
p1035
(ijoueur
joueur
p1036
(dp1037
g28
I0
sg32
I0
sg34
I0
sg35
g36
(g37
g38
Ntp1038
Rp1039
(dp1040
g42
I5
sg43
S'xx'
p1041
sg45
S'seigneur'
p1042
sbsg47
(dp1043
S'SR'
p1044
I0
sS'ST'
p1045
I0
sS'CR'
p1046
I0
sS'CT'
p1047
I0
ssg53
(dp1048
g1044
I0
sg1045
I0
sg1046
I0
sg1047
I0
ssg228
S'KAK 10'
p1049
sg57
I0
sg59
I01
sg60
I5
sg61
I0
sg62
I0
sg63
(S'dummy'
p1050
S'TL'
p1051
g31
g31
tp1052
sg68
I01
sg69
g36
(g37
g38
Ntp1053
Rp1054
(dp1055
g42
I5
sg43
S'xx'
p1056
sg45
g1042
sbsg70
(dp1057
g1044
I0
sg1045
I8
sg1046
I1
sg1047
I15
ssg76
(dp1058
g1044
I0
sg1045
I0
sg1046
I0
sg1047
I0
ssg78
(dp1059
g1044
I0
sg1045
I0
sg1046
I0
sg1047
I0
ssg80
(dp1060
g1044
I0
sg1045
I8
sg1046
I1
sg1047
I15
ssg82
I0
sg83
I0
sg84
S'Rohogd'
p1061
sg86
I7
sg87
I0
sg88
I21
sg89
I359
sg90
S'AL'
p1062
sg92
(dp1063
S'A'
p1064
I12
sS'ME'
p1065
I13
sS'RP2'
p1066
I7
sS'E'
p1067
I13
sS'TO'
p1068
I11
sS'RP1'
p1069
I14
sS'JP'
p1070
I9
sS'RP_tot'
p1071
I14
sS'P'
p1072
I8
sS'PA'
p1073
I7
sS'M'
p1074
I13
sS'R'
p1075
I13
sS'TB'
p1076
I7
sS'PL'
p1077
I12
sS'TA'
p1078
I9
ssg226
g1063
sg201
I0
sg202
I0
sg203
I0
sg204
I0
sg205
F12.64516129032258
sg206
I0
sg993
(lp1079
S'EV'
p1080
asg207
I0
sg208
I0
sg209
(dp1081
S'A'
p1082
I12
sS'ME'
p1083
I13
sS'RP2'
p1084
I7
sS'E'
p1085
I13
sS'TO'
p1086
I11
sS'RP1'
p1087
I14
sS'JP'
p1088
I9
sS'RP_tot'
p1089
I14
sS'P'
p1090
I8
sS'PA'
p1091
I7
sS'M'
p1092
I13
sS'R'
p1093
I13
sS'TB'
p1094
I7
sS'PL'
p1095
I12
sS'TA'
p1096
I9
ssg1012
(lp1097
sg227
I0
sg229
I0
sg230
I0
sg231
I0
sg232
I24
sg233
I9
sg234
I0
sg235
S'HB'
p1098
sbssg201
I12
sg202
I0
sg203
I1
sg204
I0
sg76
(dp1099
g72
I0
sg73
I0
sg74
I0
sg75
I0
ssg206
I0
sg993
(lp1100
S'EV'
p1101
asg207
I1
sg208
I0
sg209
(dp1102
S'A'
p1103
I12
sS'ME'
p1104
I13
sS'RP2'
p1105
I7
sS'E'
p1106
I13
sS'P'
p1107
I8
sS'RP1'
p1108
I14
sS'JP'
p1109
I9
sS'RP_tot'
p1110
I14
sS'TO'
p1111
I11
sS'PA'
p1112
I7
sS'M'
p1113
I13
sS'R'
p1114
I13
sS'TB'
p1115
I7
sS'PL'
p1116
I12
sS'TA'
p1117
I9
ssg1012
(lp1118
sg227
I0
sg333
(dp1119
sg229
I0
sg230
I0
sg231
I0
sg232
I43
sg233
I16
sg234
I0
sg235
S'HB'
p1120
sbsS'B4'
p1121
(ijoueur
joueur
p1122
(dp1123
g27
F9.666666666666666
sg28
I0
sg29
F11.666666666666666
sg30
g31
sg32
I6
sg33
F213.3826016633929
sg34
I0
sg35
g36
(g37
g38
Ntp1124
Rp1125
(dp1126
g42
I5
sg43
S'xx'
p1127
sg45
S'seigneur'
p1128
sbsg47
(dp1129
S'SR'
p1130
I0
sS'ST'
p1131
I0
sS'CR'
p1132
I0
sS'CT'
p1133
I0
ssg53
(dp1134
g1130
I0
sg1131
I0
sg1132
I0
sg1133
I8
ssg55
I0
sg76
(dp1135
S'SR'
p1136
I0
sS'CT'
p1137
I0
sS'CR'
p1138
I0
sS'ST'
p1139
I0
ssg56
I1
sg57
I0
sg356
I0
sg357
I0
sg60
I2
sg61
I13
sg62
I26
sg63
(S'dummy'
p1140
S'DO'
p1141
S'CE'
p1142
S'AI'
p1143
tp1144
sg68
I00
sg69
g1125
sg70
(dp1145
g1136
I0
sg1137
I14
sg1138
I0
sg1139
I5
ssg59
I00
sg78
(dp1146
g1136
I0
sg1137
I0
sg1138
I0
sg1139
I0
ssg80
(dp1147
g1130
I0
sg1131
I20
sg1132
I0
sg1133
I32
ssg82
I94
sg83
I47
sg84
S'Brokleop'
p1148
sg86
I9
sg87
I61
sg88
I22
sg89
I260
sg90
S'BSK'
p1149
sg92
(dp1150
S'A'
p1151
I9
sS'ME'
p1152
I10
sS'RP2'
p1153
I10
sS'E'
p1154
I10
sS'P'
p1155
I15
sS'RP1'
p1156
I14
sS'JP'
p1157
I10
sS'RP_tot'
p1158
I15
sS'TO'
p1159
I5
sS'PA'
p1160
I10
sS'M'
p1161
I15
sS'R'
p1162
I7
sS'TB'
p1163
I11
sS'PL'
p1164
I8
sS'TA'
p1165
I10
ssg109
(dp1166
S's12'
p1167
(ijoueur
joueur
p1168
(dp1169
g27
F9.666666666666666
sg28
I0
sg30
g31
sg32
I2
sg34
I0
sg35
g36
(g37
g38
Ntp1170
Rp1171
(dp1172
g42
I5
sg43
S'xx'
p1173
sg45
S'seigneur'
p1174
sbsg47
(dp1175
S'SR'
p1176
I0
sS'ST'
p1177
I0
sS'CR'
p1178
I0
sS'CT'
p1179
I0
ssg53
(dp1180
g1176
I0
sg1177
I0
sg1178
I0
sg1179
I8
ssg56
I1
sg205
F11.666666666666666
sg57
I0
sg356
I0
sg357
I0
sg60
I5
sg61
I9
sg62
I35
sg63
(S'dummy'
p1181
S'DO'
p1182
S'CE'
p1183
S'AI'
p1184
tp1185
sg68
I00
sg69
g1171
sg70
(dp1186
S'SR'
p1187
I0
sS'CT'
p1188
I13
sS'CR'
p1189
I0
sS'ST'
p1190
I6
ssg59
I00
sg78
(dp1191
g1187
I0
sg1188
I0
sg1189
I0
sg1190
I0
ssg80
(dp1192
g1176
I0
sg1177
I14
sg1178
I0
sg1179
I18
ssg82
I47
sg83
I46
sg84
S'Brokleop'
p1193
sg86
I9
sg87
I35
sg88
I22
sg89
I260
sg90
S'BSK'
p1194
sg92
(dp1195
S'A'
p1196
I9
sS'ME'
p1197
I10
sS'RP2'
p1198
I10
sS'E'
p1199
I11
sS'TO'
p1200
I5
sS'RP1'
p1201
I14
sS'JP'
p1202
I10
sS'RP_tot'
p1203
I17
sS'P'
p1204
I15
sS'PA'
p1205
I10
sS'M'
p1206
I15
sS'R'
p1207
I7
sS'TB'
p1208
I10
sS'PL'
p1209
I9
sS'TA'
p1210
I10
ssg109
(dp1211
S's11'
p1212
(ijoueur
joueur
p1213
(dp1214
g28
I0
sg32
I0
sg34
I0
sg35
g36
(g37
g38
Ntp1215
Rp1216
(dp1217
g42
I5
sg43
S'xx'
p1218
sg45
S'seigneur'
p1219
sbsg47
(dp1220
S'SR'
p1221
I0
sS'ST'
p1222
I0
sS'CR'
p1223
I0
sS'CT'
p1224
I0
ssg53
(dp1225
g1221
I0
sg1222
I0
sg1223
I0
sg1224
I8
ssg56
I1
sg205
F9.666666666666666
sg57
I1
sg356
I0
sg357
I0
sg60
I1
sg61
I3
sg62
I0
sg63
(S'dummy'
p1226
S'DO'
p1227
S'CE'
p1228
S'AI'
p1229
tp1230
sg68
I00
sg69
g36
(g37
g38
Ntp1231
Rp1232
(dp1233
g42
I3
sg43
S'<<<'
p1234
sg45
S'rare'
p1235
sbsg70
(dp1236
g1221
I0
sg1222
I7
sg1223
I0
sg1224
I5
ssg59
I00
sg78
(dp1237
g1221
I0
sg1222
I0
sg1223
I0
sg1224
I8
ssg80
(dp1238
g1221
I0
sg1222
I7
sg1223
I0
sg1224
I5
ssg82
I1
sg83
I1
sg84
S'Brokleop'
p1239
sg86
I9
sg87
I0
sg88
I22
sg89
I170
sg90
S'BSK'
p1240
sg92
(dp1241
S'A'
p1242
I8
sS'ME'
p1243
I8
sS'RP2'
p1244
I10
sS'E'
p1245
I11
sS'TO'
p1246
I3
sS'RP1'
p1247
I12
sS'JP'
p1248
I6
sS'RP_tot'
p1249
I15
sS'P'
p1250
I11
sS'PA'
p1251
I9
sS'M'
p1252
I13
sS'R'
p1253
I9
sS'TB'
p1254
I6
sS'PL'
p1255
I7
sS'TA'
p1256
I8
ssg201
I0
sg202
I0
sg203
I0
sg204
I0
sg76
(dp1257
g1221
I0
sg1222
I0
sg1223
I0
sg1224
I0
ssg206
I3
sg474
I0
sg207
I0
sg208
I0
sg209
(dp1258
S'A'
p1259
I8
sS'ME'
p1260
I8
sS'RP2'
p1261
I10
sS'E'
p1262
I11
sS'TO'
p1263
I3
sS'RP1'
p1264
I12
sS'JP'
p1265
I6
sS'RP_tot'
p1266
I15
sS'P'
p1267
I11
sS'PA'
p1268
I9
sS'M'
p1269
I13
sS'R'
p1270
I9
sS'TB'
p1271
I6
sS'PL'
p1272
I7
sS'TA'
p1273
I8
ssg226
g1241
sg227
I0
sg228
g31
sg229
I0
sg230
I0
sg231
I0
sg232
I14
sg233
I1
sg234
I0
sg235
S'HB'
p1274
sbssg201
I14
sg202
I0
sg203
I0
sg204
I0
sg76
(dp1275
g1187
I0
sg1188
I0
sg1189
I0
sg1190
I0
ssg206
I12
sg474
I0
sg207
I0
sg208
I0
sg209
(dp1276
S'A'
p1277
I8
sS'ME'
p1278
I8
sS'RP2'
p1279
I10
sS'E'
p1280
I11
sS'P'
p1281
I11
sS'RP1'
p1282
I12
sS'JP'
p1283
I6
sS'RP_tot'
p1284
I15
sS'TO'
p1285
I3
sS'PA'
p1286
I9
sS'M'
p1287
I13
sS'R'
p1288
I9
sS'TB'
p1289
I6
sS'PL'
p1290
I7
sS'TA'
p1291
I8
ssg226
g1195
sg227
I0
sg228
g31
sg229
I5
sg230
I2
sg231
I5
sg232
I23
sg233
I6
sg234
I0
sg235
S'HB'
p1292
sbsS's11'
p1293
(ijoueur
joueur
p1294
(dp1295
g28
I0
sg32
I0
sg34
I0
sg35
g36
(g37
g38
Ntp1296
Rp1297
(dp1298
g42
I5
sg43
S'xx'
p1299
sg45
S'seigneur'
p1300
sbsg47
(dp1301
S'SR'
p1302
I0
sS'ST'
p1303
I0
sS'CR'
p1304
I0
sS'CT'
p1305
I0
ssg53
(dp1306
g1302
I0
sg1303
I0
sg1304
I0
sg1305
I8
ssg56
I1
sg205
F9.666666666666666
sg57
I1
sg356
I0
sg357
I0
sg60
I1
sg61
I3
sg62
I0
sg63
(S'dummy'
p1307
S'DO'
p1308
S'CE'
p1309
S'AI'
p1310
tp1311
sg68
I00
sg69
g36
(g37
g38
Ntp1312
Rp1313
(dp1314
g42
I3
sg43
S'<<<'
p1315
sg45
S'rare'
p1316
sbsg70
(dp1317
g1302
I0
sg1303
I7
sg1304
I0
sg1305
I5
ssg59
I00
sg78
(dp1318
g1302
I0
sg1303
I0
sg1304
I0
sg1305
I8
ssg80
(dp1319
g1302
I0
sg1303
I7
sg1304
I0
sg1305
I5
ssg82
I1
sg83
I1
sg84
S'Brokleop'
p1320
sg86
I9
sg87
I0
sg88
I22
sg89
I170
sg90
S'BSK'
p1321
sg92
(dp1322
S'A'
p1323
I8
sS'ME'
p1324
I8
sS'RP2'
p1325
I10
sS'E'
p1326
I11
sS'TO'
p1327
I3
sS'RP1'
p1328
I12
sS'JP'
p1329
I6
sS'RP_tot'
p1330
I15
sS'P'
p1331
I11
sS'PA'
p1332
I9
sS'M'
p1333
I13
sS'R'
p1334
I9
sS'TB'
p1335
I6
sS'PL'
p1336
I7
sS'TA'
p1337
I8
ssg201
I0
sg202
I0
sg203
I0
sg204
I0
sg76
(dp1338
g1302
I0
sg1303
I0
sg1304
I0
sg1305
I0
ssg206
I3
sg474
I0
sg207
I0
sg208
I0
sg209
(dp1339
S'A'
p1340
I8
sS'ME'
p1341
I8
sS'RP2'
p1342
I10
sS'E'
p1343
I11
sS'TO'
p1344
I3
sS'RP1'
p1345
I12
sS'JP'
p1346
I6
sS'RP_tot'
p1347
I15
sS'P'
p1348
I11
sS'PA'
p1349
I9
sS'M'
p1350
I13
sS'R'
p1351
I9
sS'TB'
p1352
I6
sS'PL'
p1353
I7
sS'TA'
p1354
I8
ssg226
g1322
sg227
I0
sg228
g31
sg229
I0
sg230
I0
sg231
I0
sg232
I14
sg233
I1
sg234
I0
sg235
S'HB'
p1355
sbssg201
I5
sg202
I0
sg203
I0
sg204
I0
sg205
F11.242424242424242
sg206
I25
sg58
F213.3826016633929
sg474
I0
sg207
I0
sg208
I0
sg209
(dp1356
S'A'
p1357
I8
sS'ME'
p1358
I8
sS'RP2'
p1359
I10
sS'E'
p1360
I11
sS'P'
p1361
I11
sS'RP1'
p1362
I12
sS'JP'
p1363
I6
sS'RP_tot'
p1364
I15
sS'TO'
p1365
I3
sS'PA'
p1366
I9
sS'M'
p1367
I13
sS'R'
p1368
I9
sS'TB'
p1369
I6
sS'PL'
p1370
I7
sS'TA'
p1371
I8
ssg226
(dp1372
g1151
I9
sg1152
I10
sg1153
I10
sg1154
I10
sg1159
I5
sg1156
I14
sg1157
I10
sg1158
I15
sg1155
I15
sg1160
I10
sg1161
I15
sg1162
I7
sg1163
I11
sg1164
I8
sg1165
I10
ssg227
I0
sg333
(dp1373
sg229
I6
sg228
g31
sg230
I4
sg231
I1
sg232
I23
sg233
I8
sg234
I0
sg235
S'HB'
p1374
sbsS'RJC'
p1375
g1122
sS'B1'
p1376
g1122
sS'B2'
p1377
g1122
sS'B3'
p1378
g1122
sS'drop1'
p1379
(ijoueur
joueur
p1380
(dp1381
g27
F10.9
sg28
I1
sg29
F11.166666666666666
sg30
g31
sg32
I3
sg33
F194.6509073515851
sg34
I0
sg35
g36
(g37
g38
Ntp1382
Rp1383
(dp1384
g42
I5
sg43
S'**'
p1385
sg45
S'seigneur'
p1386
sbsg47
(dp1387
S'SR'
p1388
I0
sS'CT'
p1389
I0
sS'CR'
p1390
I0
sS'ST'
p1391
I12
ssg53
(dp1392
g1388
I0
sg1389
I39
sg1390
I0
sg1391
I0
ssg55
I0
sg56
I0
sg205
F11.233333333333333
sg57
I0
sg356
I0
sg357
I0
sg60
I1
sg61
I0
sg62
I0
sg63
(S'dummy'
p1393
S'C1'
p1394
S'AR'
p1395
S'DM'
p1396
tp1397
sg68
I00
sg69
g36
(g37
g38
Ntp1398
Rp1399
(dp1400
g42
I5
sg43
S'**'
p1401
sg45
g1386
sbsg70
(dp1402
S'SR'
p1403
I0
sS'CT'
p1404
I1
sS'CR'
p1405
I0
sS'ST'
p1406
I0
ssg59
I00
sg78
(dp1407
g1403
I0
sg1404
I11
sg1405
I0
sg1406
I0
ssg80
(dp1408
g1388
I0
sg1389
I1
sg1390
I0
sg1391
I9
ssg82
I0
sg83
I0
sg84
S'Katrouk'
p1409
sg86
I6
sg87
I0
sg88
I17
sg89
I193
sg90
S'ALT'
p1410
sg92
(dp1411
S'A'
p1412
I13
sS'ME'
p1413
I7
sS'RP2'
p1414
I10
sS'E'
p1415
I12
sS'TO'
p1416
I10
sS'RP1'
p1417
I10
sS'JP'
p1418
I10
sS'RP_tot'
p1419
I12
sS'P'
p1420
I9
sS'PA'
p1421
I13
sS'M'
p1422
I9
sS'R'
p1423
I6
sS'TB'
p1424
I7
sS'PL'
p1425
I12
sS'TA'
p1426
I6
ssg109
(dp1427
S's12'
p1428
(ijoueur
joueur
p1429
(dp1430
g27
F10.9
sg28
I0
sg30
g31
sg32
I2
sg34
I0
sg35
g36
(g37
g38
Ntp1431
Rp1432
(dp1433
g42
I5
sg43
S'**'
p1434
sg45
S'seigneur'
p1435
sbsg47
(dp1436
S'SR'
p1437
I0
sS'CT'
p1438
I0
sS'CR'
p1439
I0
sS'ST'
p1440
I6
ssg53
(dp1441
g1437
I0
sg1438
I28
sg1439
I0
sg1440
I0
ssg76
(dp1442
S'SR'
p1443
I0
sS'ST'
p1444
I5
sS'CR'
p1445
I0
sS'CT'
p1446
I0
ssg56
I0
sg57
I0
sg356
I0
sg357
I0
sg60
I3
sg61
I0
sg62
I0
sg63
(S'dummy'
p1447
S'C1'
p1448
S'AR'
p1449
S'DM'
p1450
tp1451
sg68
I00
sg69
g36
(g37
g38
Ntp1452
Rp1453
(dp1454
g42
I5
sg43
S'**'
p1455
sg45
g1435
sbsg70
(dp1456
g1443
I0
sg1444
I1
sg1445
I0
sg1446
I0
ssg59
I01
sg78
(dp1457
g1443
I0
sg1444
I0
sg1445
I0
sg1446
I14
ssg80
(dp1458
g1437
I0
sg1438
I0
sg1439
I0
sg1440
I9
ssg82
I0
sg83
I0
sg84
S'Katrouk'
p1459
sg86
I6
sg87
I0
sg88
I17
sg89
I193
sg90
S'ALT'
p1460
sg92
(dp1461
S'A'
p1462
I12
sS'ME'
p1463
I7
sS'RP2'
p1464
I10
sS'E'
p1465
I12
sS'P'
p1466
I9
sS'RP1'
p1467
I10
sS'JP'
p1468
I9
sS'RP_tot'
p1469
I13
sS'TO'
p1470
I10
sS'PA'
p1471
I13
sS'M'
p1472
I9
sS'R'
p1473
I6
sS'TB'
p1474
I7
sS'PL'
p1475
I12
sS'TA'
p1476
I6
ssg109
(dp1477
S's11'
p1478
(ijoueur
joueur
p1479
(dp1480
g28
I0
sg32
I2
sg34
I0
sg35
g36
(g37
g38
Ntp1481
Rp1482
(dp1483
g42
I5
sg43
S'**'
p1484
sg45
S'seigneur'
p1485
sbsg47
(dp1486
S'SR'
p1487
I0
sS'CT'
p1488
I0
sS'CR'
p1489
I0
sS'ST'
p1490
I0
ssg53
(dp1491
g1487
I0
sg1488
I14
sg1489
I0
sg1490
I0
ssg56
I0
sg205
F10.9
sg57
I0
sg356
I0
sg357
I0
sg60
I1
sg61
I0
sg62
I0
sg63
(S'dummy'
p1492
S'C1'
p1493
S'AR'
p1494
S'DM'
p1495
tp1496
sg68
I00
sg69
g36
(g37
g38
Ntp1497
Rp1498
(dp1499
g42
I5
sg43
S'**'
p1500
sg45
g1485
sbsg70
(dp1501
g1487
I0
sg1488
I0
sg1489
I0
sg1490
I8
ssg59
I00
sg78
(dp1502
g1487
I0
sg1488
I14
sg1489
I0
sg1490
I0
ssg80
(dp1503
g1487
I0
sg1488
I0
sg1489
I0
sg1490
I8
ssg82
I0
sg83
I0
sg84
S'Katrouk'
p1504
sg86
I6
sg87
I0
sg88
I17
sg89
I193
sg90
S'ALT'
p1505
sg92
(dp1506
S'A'
p1507
I12
sS'ME'
p1508
I7
sS'RP2'
p1509
I10
sS'E'
p1510
I12
sS'P'
p1511
I9
sS'RP1'
p1512
I10
sS'JP'
p1513
I8
sS'RP_tot'
p1514
I13
sS'TO'
p1515
I10
sS'PA'
p1516
I13
sS'M'
p1517
I8
sS'R'
p1518
I7
sS'TB'
p1519
I8
sS'PL'
p1520
I11
sS'TA'
p1521
I6
ssg201
I0
sg202
I0
sg203
I1
sg204
I0
sg76
(dp1522
g1487
I0
sg1488
I0
sg1489
I0
sg1490
I0
ssg206
I0
sg474
I2
sg207
I1
sg208
I0
sg209
(dp1523
S'A'
p1524
I12
sS'ME'
p1525
I7
sS'RP2'
p1526
I10
sS'E'
p1527
I12
sS'P'
p1528
I9
sS'RP1'
p1529
I10
sS'JP'
p1530
I8
sS'RP_tot'
p1531
I13
sS'TO'
p1532
I10
sS'PA'
p1533
I13
sS'M'
p1534
I8
sS'R'
p1535
I7
sS'TB'
p1536
I8
sS'PL'
p1537
I11
sS'TA'
p1538
I6
ssg226
g1506
sg227
I0
sg228
S'BRB 9'
p1539
sg229
I0
sg230
I0
sg231
I0
sg232
I15
sg233
I7
sg234
I0
sg235
S'HB'
p1540
sbssg201
I14
sg202
I0
sg203
I1
sg204
I0
sg205
F11.166666666666666
sg206
I0
sg474
I2
sg207
I0
sg208
I0
sg209
(dp1541
S'A'
p1542
I12
sS'ME'
p1543
I7
sS'RP2'
p1544
I10
sS'E'
p1545
I12
sS'TO'
p1546
I10
sS'RP1'
p1547
I10
sS'JP'
p1548
I8
sS'RP_tot'
p1549
I13
sS'P'
p1550
I9
sS'PA'
p1551
I13
sS'M'
p1552
I8
sS'R'
p1553
I7
sS'TB'
p1554
I8
sS'PL'
p1555
I11
sS'TA'
p1556
I6
ssg226
g1461
sg227
I0
sg228
S'BRB 9'
p1557
sg229
I0
sg230
I0
sg231
I0
sg232
I15
sg233
I10
sg234
I0
sg235
S'HB'
p1558
sbsS's11'
p1559
(ijoueur
joueur
p1560
(dp1561
g28
I0
sg32
I2
sg34
I0
sg35
g36
(g37
g38
Ntp1562
Rp1563
(dp1564
g42
I5
sg43
S'**'
p1565
sg45
S'seigneur'
p1566
sbsg47
(dp1567
S'SR'
p1568
I0
sS'CT'
p1569
I0
sS'CR'
p1570
I0
sS'ST'
p1571
I0
ssg53
(dp1572
g1568
I0
sg1569
I14
sg1570
I0
sg1571
I0
ssg56
I0
sg205
F10.9
sg57
I0
sg356
I0
sg357
I0
sg60
I1
sg61
I0
sg62
I0
sg63
(S'dummy'
p1573
S'C1'
p1574
S'AR'
p1575
S'DM'
p1576
tp1577
sg68
I00
sg69
g36
(g37
g38
Ntp1578
Rp1579
(dp1580
g42
I5
sg43
S'**'
p1581
sg45
g1566
sbsg70
(dp1582
g1568
I0
sg1569
I0
sg1570
I0
sg1571
I8
ssg59
I00
sg78
(dp1583
g1568
I0
sg1569
I14
sg1570
I0
sg1571
I0
ssg80
(dp1584
g1568
I0
sg1569
I0
sg1570
I0
sg1571
I8
ssg82
I0
sg83
I0
sg84
S'Katrouk'
p1585
sg86
I6
sg87
I0
sg88
I17
sg89
I193
sg90
S'ALT'
p1586
sg92
(dp1587
S'A'
p1588
I12
sS'ME'
p1589
I7
sS'RP2'
p1590
I10
sS'E'
p1591
I12
sS'P'
p1592
I9
sS'RP1'
p1593
I10
sS'JP'
p1594
I8
sS'RP_tot'
p1595
I13
sS'TO'
p1596
I10
sS'PA'
p1597
I13
sS'M'
p1598
I8
sS'R'
p1599
I7
sS'TB'
p1600
I8
sS'PL'
p1601
I11
sS'TA'
p1602
I6
ssg201
I0
sg202
I0
sg203
I1
sg204
I0
sg76
(dp1603
g1568
I0
sg1569
I0
sg1570
I0
sg1571
I0
ssg206
I0
sg474
I2
sg207
I1
sg208
I0
sg209
(dp1604
S'A'
p1605
I12
sS'ME'
p1606
I7
sS'RP2'
p1607
I10
sS'E'
p1608
I12
sS'P'
p1609
I9
sS'RP1'
p1610
I10
sS'JP'
p1611
I8
sS'RP_tot'
p1612
I13
sS'TO'
p1613
I10
sS'PA'
p1614
I13
sS'M'
p1615
I8
sS'R'
p1616
I7
sS'TB'
p1617
I8
sS'PL'
p1618
I11
sS'TA'
p1619
I6
ssg226
g1587
sg227
I0
sg228
S'BRB 9'
p1620
sg229
I0
sg230
I0
sg231
I0
sg232
I15
sg233
I7
sg234
I0
sg235
S'HB'
p1621
sbssg201
I7
sg202
I0
sg203
I1
sg204
I0
sg76
(dp1622
g1403
I0
sg1404
I0
sg1405
I0
sg1406
I5
ssg206
I0
sg58
F194.6509073515851
sg474
I2
sg207
I0
sg208
I0
sg209
(dp1623
S'A'
p1624
I12
sS'ME'
p1625
I7
sS'RP2'
p1626
I10
sS'E'
p1627
I12
sS'TO'
p1628
I10
sS'RP1'
p1629
I10
sS'JP'
p1630
I8
sS'RP_tot'
p1631
I13
sS'P'
p1632
I9
sS'PA'
p1633
I13
sS'M'
p1634
I8
sS'R'
p1635
I7
sS'TB'
p1636
I8
sS'PL'
p1637
I11
sS'TA'
p1638
I6
ssg226
(dp1639
g1412
I13
sg1413
I7
sg1414
I10
sg1415
I12
sg1420
I9
sg1417
I10
sg1418
I10
sg1419
I12
sg1416
I10
sg1421
I13
sg1422
I9
sg1423
I6
sg1424
I7
sg1425
I12
sg1426
I6
ssg227
I1
sg333
(dp1640
sg229
I0
sg228
S'BRB 9'
p1641
sg230
I1
sg231
I0
sg232
I15
sg233
I11
sg234
I0
sg235
S'HB'
p1642
sbsS'SA_pcp1'
p1643
(ijoueur
joueur
p1644
(dp1645
g27
F11.666666666666666
sg28
I0
sg29
F12.518518518518519
sg30
g31
sg32
I0
sg33
F214.1408056942998
sg34
I0
sg35
g36
(g37
g38
Ntp1646
Rp1647
(dp1648
g42
I5
sg43
S'xx'
p1649
sg45
S'seigneur'
p1650
sbsg47
(dp1651
S'SR'
p1652
I0
sS'ST'
p1653
I0
sS'CR'
p1654
I0
sS'CT'
p1655
I0
ssg53
(dp1656
g1652
I0
sg1653
I0
sg1654
I0
sg1655
I0
ssg55
I0
sg56
I0
sg205
F12.666666666666666
sg57
I0
sg356
I0
sg357
I0
sg60
I5
sg61
I0
sg62
I0
sg63
(S'dummy'
p1657
S'DL'
p1658
S'PI'
p1659
g31
tp1660
sg68
I00
sg69
g1647
sg70
(dp1661
g615
I0
sg616
I14
sg617
I0
sg618
I5
ssg59
I00
sg78
(dp1662
g615
I0
sg616
I0
sg617
I0
sg618
I0
ssg80
(dp1663
g1652
I0
sg1653
I20
sg1654
I0
sg1655
I43
ssg82
I0
sg83
I0
sg84
S'Cashak'
p1664
sg86
I10
sg87
I0
sg88
I19
sg89
I500
sg90
g623
sg92
(dp1665
S'A'
p1666
I8
sS'ME'
p1667
I15
sS'RP2'
p1668
I8
sS'E'
p1669
I12
sS'P'
p1670
I6
sS'RP1'
p1671
I15
sS'JP'
p1672
I4
sS'RP_tot'
p1673
I16
sS'TO'
p1674
I12
sS'PA'
p1675
I7
sS'M'
p1676
I11
sS'R'
p1677
I13
sS'TB'
p1678
I6
sS'PL'
p1679
I8
sS'TA'
p1680
I8
ssg109
(dp1681
S's12'
p1682
(ijoueur
joueur
p1683
(dp1684
g27
F11.666666666666666
sg28
I0
sg30
g31
sg32
I0
sg34
I0
sg35
g36
(g37
g38
Ntp1685
Rp1686
(dp1687
g42
I5
sg43
S'xx'
p1688
sg45
S'seigneur'
p1689
sbsg47
(dp1690
S'SR'
p1691
I0
sS'ST'
p1692
I0
sS'CR'
p1693
I0
sS'CT'
p1694
I0
ssg53
(dp1695
g1691
I0
sg1692
I0
sg1693
I0
sg1694
I0
ssg56
I0
sg57
I0
sg356
I0
sg357
I0
sg59
I01
sg60
I3
sg61
I0
sg62
I0
sg63
(S'dummy'
p1696
S'DL'
p1697
S'PI'
p1698
g31
tp1699
sg68
I01
sg69
g1686
sg70
(dp1700
S'SR'
p1701
I0
sS'ST'
p1702
I5
sS'CR'
p1703
I0
sS'CT'
p1704
I15
ssg76
(dp1705
g1701
I0
sg1702
I0
sg1703
I0
sg1704
I0
ssg78
(dp1706
g1701
I0
sg1702
I0
sg1703
I0
sg1704
I0
ssg80
(dp1707
g1691
I0
sg1692
I14
sg1693
I0
sg1694
I29
ssg82
I0
sg83
I0
sg84
S'Cashak'
p1708
sg86
I10
sg87
I0
sg88
I19
sg89
I300
sg90
S'DKW'
p1709
sg92
(dp1710
S'A'
p1711
I9
sS'ME'
p1712
I15
sS'RP2'
p1713
I7
sS'E'
p1714
I12
sS'TO'
p1715
I11
sS'RP1'
p1716
I15
sS'JP'
p1717
I4
sS'RP_tot'
p1718
I15
sS'P'
p1719
I6
sS'PA'
p1720
I7
sS'M'
p1721
I11
sS'R'
p1722
I14
sS'TB'
p1723
I6
sS'PL'
p1724
I9
sS'TA'
p1725
I8
ssg109
(dp1726
S's11'
p1727
(ijoueur
joueur
p1728
(dp1729
g28
I0
sg32
I0
sg34
I0
sg35
g36
(g37
g38
Ntp1730
Rp1731
(dp1732
g42
I5
sg43
S'xx'
p1733
sg45
S'seigneur'
p1734
sbsg47
(dp1735
S'SR'
p1736
I0
sS'CT'
p1737
I0
sS'CR'
p1738
I0
sS'ST'
p1739
I0
ssg53
(dp1740
g1736
I0
sg1737
I0
sg1738
I0
sg1739
I0
ssg56
I0
sg205
F11.666666666666666
sg57
I0
sg356
I0
sg357
I0
sg60
I1
sg61
I0
sg62
I0
sg63
(S'dummy'
p1741
S'DL'
p1742
S'PI'
p1743
g31
tp1744
sg68
I00
sg69
g36
(g37
g38
Ntp1745
Rp1746
(dp1747
g42
I4
sg43
S'*'
p1748
sg45
S'heros'
p1749
sbsg70
(dp1750
g1736
I0
sg1737
I14
sg1738
I0
sg1739
I8
ssg59
I01
sg78
(dp1751
g1736
I0
sg1737
I0
sg1738
I0
sg1739
I0
ssg80
(dp1752
g1736
I0
sg1737
I14
sg1738
I0
sg1739
I8
ssg82
I0
sg83
I0
sg84
S'Cashak'
p1753
sg86
I10
sg87
I0
sg88
I19
sg89
I210
sg90
S'DKW'
p1754
sg92
(dp1755
S'A'
p1756
I9
sS'ME'
p1757
I14
sS'RP2'
p1758
I7
sS'E'
p1759
I13
sS'P'
p1760
I7
sS'RP1'
p1761
I13
sS'JP'
p1762
I4
sS'RP_tot'
p1763
I13
sS'TO'
p1764
I11
sS'PA'
p1765
I7
sS'M'
p1766
I10
sS'R'
p1767
I12
sS'TB'
p1768
I6
sS'PL'
p1769
I9
sS'TA'
p1770
I6
ssg201
I0
sg202
I0
sg203
I0
sg204
I0
sg76
(dp1771
g1736
I0
sg1737
I0
sg1738
I0
sg1739
I0
ssg206
I0
sg474
I0
sg207
I0
sg208
I0
sg209
(dp1772
S'A'
p1773
I9
sS'ME'
p1774
I14
sS'RP2'
p1775
I7
sS'E'
p1776
I13
sS'P'
p1777
I7
sS'RP1'
p1778
I13
sS'JP'
p1779
I4
sS'RP_tot'
p1780
I13
sS'TO'
p1781
I11
sS'PA'
p1782
I7
sS'M'
p1783
I10
sS'R'
p1784
I12
sS'TB'
p1785
I6
sS'PL'
p1786
I9
sS'TA'
p1787
I6
ssg226
g1755
sg227
I0
sg228
g31
sg229
I0
sg230
I0
sg231
I0
sg232
I16
sg233
I2
sg234
I0
sg235
S'HB'
p1788
sbssg201
I6
sg202
I0
sg203
I0
sg204
I0
sg205
F12.518518518518519
sg206
I0
sg474
I0
sg207
I0
sg208
I1
sg209
(dp1789
S'A'
p1790
I9
sS'ME'
p1791
I14
sS'RP2'
p1792
I7
sS'E'
p1793
I13
sS'TO'
p1794
I11
sS'RP1'
p1795
I13
sS'JP'
p1796
I4
sS'RP_tot'
p1797
I13
sS'P'
p1798
I7
sS'PA'
p1799
I7
sS'M'
p1800
I10
sS'R'
p1801
I12
sS'TB'
p1802
I6
sS'PL'
p1803
I9
sS'TA'
p1804
I6
ssg226
g1710
sg227
I0
sg228
g31
sg229
I0
sg230
I0
sg231
I0
sg232
I25
sg233
I5
sg234
I1
sg235
S'HB'
p1805
sbsS's11'
p1806
(ijoueur
joueur
p1807
(dp1808
g28
I0
sg32
I0
sg34
I0
sg35
g36
(g37
g38
Ntp1809
Rp1810
(dp1811
g42
I5
sg43
S'xx'
p1812
sg45
S'seigneur'
p1813
sbsg47
(dp1814
S'SR'
p1815
I0
sS'CT'
p1816
I0
sS'CR'
p1817
I0
sS'ST'
p1818
I0
ssg53
(dp1819
g1815
I0
sg1816
I0
sg1817
I0
sg1818
I0
ssg56
I0
sg205
F11.666666666666666
sg57
I0
sg356
I0
sg357
I0
sg60
I1
sg61
I0
sg62
I0
sg63
(S'dummy'
p1820
S'DL'
p1821
S'PI'
p1822
g31
tp1823
sg68
I00
sg69
g36
(g37
g38
Ntp1824
Rp1825
(dp1826
g42
I4
sg43
S'*'
p1827
sg45
S'heros'
p1828
sbsg70
(dp1829
g1815
I0
sg1816
I14
sg1817
I0
sg1818
I8
ssg59
I01
sg78
(dp1830
g1815
I0
sg1816
I0
sg1817
I0
sg1818
I0
ssg80
(dp1831
g1815
I0
sg1816
I14
sg1817
I0
sg1818
I8
ssg82
I0
sg83
I0
sg84
S'Cashak'
p1832
sg86
I10
sg87
I0
sg88
I19
sg89
I210
sg90
S'DKW'
p1833
sg92
(dp1834
S'A'
p1835
I9
sS'ME'
p1836
I14
sS'RP2'
p1837
I7
sS'E'
p1838
I13
sS'P'
p1839
I7
sS'RP1'
p1840
I13
sS'JP'
p1841
I4
sS'RP_tot'
p1842
I13
sS'TO'
p1843
I11
sS'PA'
p1844
I7
sS'M'
p1845
I10
sS'R'
p1846
I12
sS'TB'
p1847
I6
sS'PL'
p1848
I9
sS'TA'
p1849
I6
ssg201
I0
sg202
I0
sg203
I0
sg204
I0
sg76
(dp1850
g1815
I0
sg1816
I0
sg1817
I0
sg1818
I0
ssg206
I0
sg474
I0
sg207
I0
sg208
I0
sg209
(dp1851
S'A'
p1852
I9
sS'ME'
p1853
I14
sS'RP2'
p1854
I7
sS'E'
p1855
I13
sS'P'
p1856
I7
sS'RP1'
p1857
I13
sS'JP'
p1858
I4
sS'RP_tot'
p1859
I13
sS'TO'
p1860
I11
sS'PA'
p1861
I7
sS'M'
p1862
I10
sS'R'
p1863
I12
sS'TB'
p1864
I6
sS'PL'
p1865
I9
sS'TA'
p1866
I6
ssg226
g1834
sg227
I0
sg228
g31
sg229
I0
sg230
I0
sg231
I0
sg232
I16
sg233
I2
sg234
I0
sg235
S'HB'
p1867
sbssg201
I9
sg202
I0
sg203
I1
sg204
I0
sg76
(dp1868
g615
I0
sg616
I0
sg617
I0
sg618
I0
ssg206
I0
sg58
F214.1408056942998
sg474
I0
sg207
I1
sg208
I1
sg209
(dp1869
S'A'
p1870
I9
sS'ME'
p1871
I14
sS'RP2'
p1872
I7
sS'E'
p1873
I13
sS'TO'
p1874
I11
sS'RP1'
p1875
I13
sS'JP'
p1876
I4
sS'RP_tot'
p1877
I13
sS'P'
p1878
I7
sS'PA'
p1879
I7
sS'M'
p1880
I10
sS'R'
p1881
I12
sS'TB'
p1882
I6
sS'PL'
p1883
I9
sS'TA'
p1884
I6
ssg226
(dp1885
g1666
I9
sg1667
I15
sg1668
I8
sg1669
I12
sg1674
I12
sg1671
I15
sg1672
I4
sg1673
I16
sg1670
I6
sg1675
I7
sg1676
I11
sg1677
I14
sg1678
I6
sg1679
I9
sg1680
I8
ssg227
I0
sg333
(dp1886
sg229
I0
sg228
S'DKW 13'
p1887
sg230
I0
sg231
I0
sg232
I73
sg233
I10
sg234
I0
sg235
S'HB'
p1888
sbsS'RJL'
p1889
g1122
sS'SA_remp1'
p1890
(ijoueur
joueur
p1891
(dp1892
g27
F10.588235294117647
sg28
I0
sg29
F10.617647058823529
sg30
g31
sg32
I0
sg33
F213.79564117873372
sg34
I0
sg35
g36
(g37
g38
Ntp1893
Rp1894
(dp1895
g42
I4
sg43
g596
sg45
g597
sbsg47
(dp1896
g599
I0
sg600
I0
sg601
I0
sg602
I0
ssg53
(dp1897
g599
I0
sg600
I0
sg601
I0
sg602
I0
ssg55
I0
sg56
I0
sg57
I0
sg356
I0
sg357
I0
sg59
I00
sg60
I0
sg61
I0
sg62
I0
sg63
(g604
S'PI'
p1898
S'DL'
p1899
g31
tp1900
sg68
I00
sg69
g36
(g37
g38
Ntp1901
Rp1902
(dp1903
g42
I4
sg43
g596
sg45
g597
sbsg70
(dp1904
g615
I3
sg616
I14
sg617
I0
sg618
I2
ssg76
(dp1905
g615
I0
sg616
I0
sg617
I0
sg618
I0
ssg78
(dp1906
g615
I0
sg616
I0
sg617
I0
sg618
I0
ssg80
(dp1907
g599
I10
sg600
I33
sg601
I12
sg602
I10
ssg82
I0
sg83
I0
sg84
S'Brednh'
p1908
sg86
I7
sg87
I0
sg88
I18
sg89
I356
sg90
g623
sg92
(dp1909
g625
I11
sg626
I15
sg627
I7
sg628
I8
sg629
I11
sg630
I11
sg631
I3
sg632
I11
sg633
I6
sg634
I7
sg635
I9
sg636
I13
sg637
I2
sg638
I9
sg639
I8
ssg109
(dp1910
g641
(ijoueur
joueur
p1911
(dp1912
g27
F10.588235294117647
sg28
I0
sg30
g31
sg32
I0
sg34
I0
sg35
g36
(g37
g38
Ntp1913
Rp1914
(dp1915
g42
I4
sg43
g647
sg45
g648
sbsg47
(dp1916
g650
I0
sg651
I0
sg652
I0
sg653
I0
ssg53
(dp1917
g650
I0
sg651
I0
sg652
I0
sg653
I0
ssg76
(dp1918
g656
I0
sg657
I0
sg658
I0
sg659
I0
ssg56
I0
sg57
I0
sg356
I0
sg357
I0
sg60
I2
sg61
I0
sg62
I0
sg63
(g660
S'PI'
p1919
S'DL'
p1920
g31
tp1921
sg68
I00
sg69
g36
(g37
g38
Ntp1922
Rp1923
(dp1924
g42
I4
sg43
g647
sg45
g648
sbsg70
(dp1925
g656
I5
sg657
I15
sg658
I0
sg659
I1
ssg59
I00
sg78
(dp1926
g656
I0
sg657
I0
sg658
I0
sg659
I0
ssg80
(dp1927
g650
I7
sg651
I19
sg652
I12
sg653
I7
ssg82
I0
sg83
I0
sg84
S'Brednh'
p1928
sg86
I7
sg87
I0
sg88
I18
sg89
I356
sg90
g674
sg92
(dp1929
g676
I11
sg677
I14
sg678
I7
sg679
I8
sg680
I6
sg681
I11
sg682
I3
sg683
I11
sg684
I11
sg685
I7
sg686
I7
sg687
I11
sg688
I2
sg689
I9
sg690
I8
ssg109
(dp1930
g692
(ijoueur
joueur
p1931
(dp1932
g28
I0
sg32
I0
sg34
I0
sg35
g36
(g37
g38
Ntp1933
Rp1934
(dp1935
g42
I4
sg43
S'*'
p1936
sg45
S'heros'
p1937
sbsg47
(dp1938
S'SR'
p1939
I0
sS'ST'
p1940
I0
sS'CR'
p1941
I0
sS'CT'
p1942
I0
ssg53
(dp1943
g1939
I0
sg1940
I0
sg1941
I0
sg1942
I0
ssg76
(dp1944
g1939
I0
sg1940
I0
sg1941
I0
sg1942
I0
ssg56
I0
sg57
I0
sg356
I0
sg357
I0
sg60
I1
sg61
I0
sg62
I0
sg63
(S'dummy'
p1945
S'PI'
p1946
S'DL'
p1947
g31
tp1948
sg68
I01
sg69
g36
(g37
g38
Ntp1949
Rp1950
(dp1951
g42
I4
sg43
g1936
sg45
g1937
sbsg70
(dp1952
g1939
I1
sg1940
I6
sg1941
I12
sg1942
I4
ssg59
I00
sg78
(dp1953
g1939
I0
sg1940
I0
sg1941
I0
sg1942
I0
ssg80
(dp1954
g1939
I1
sg1940
I6
sg1941
I12
sg1942
I4
ssg82
I0
sg83
I0
sg84
S'Brednh'
p1955
sg86
I7
sg87
I0
sg88
I18
sg89
I176
sg90
S'KAK'
p1956
sg92
(dp1957
S'A'
p1958
I11
sS'ME'
p1959
I13
sS'RP2'
p1960
I7
sS'E'
p1961
I9
sS'TO'
p1962
I11
sS'RP1'
p1963
I10
sS'JP'
p1964
I3
sS'RP_tot'
p1965
I10
sS'P'
p1966
I6
sS'PA'
p1967
I7
sS'M'
p1968
I7
sS'R'
p1969
I11
sS'TB'
p1970
I2
sS'PL'
p1971
I10
sS'TA'
p1972
I8
ssg201
I0
sg202
I0
sg203
I0
sg204
I0
sg205
F10.588235294117647
sg206
I0
sg474
I0
sg207
I0
sg208
I0
sg209
(dp1973
S'A'
p1974
I11
sS'ME'
p1975
I13
sS'RP2'
p1976
I7
sS'E'
p1977
I9
sS'TO'
p1978
I11
sS'RP1'
p1979
I10
sS'JP'
p1980
I3
sS'RP_tot'
p1981
I10
sS'P'
p1982
I6
sS'PA'
p1983
I7
sS'M'
p1984
I7
sS'R'
p1985
I11
sS'TB'
p1986
I2
sS'PL'
p1987
I10
sS'TA'
p1988
I8
ssg226
g1957
sg227
I0
sg228
g31
sg229
I0
sg230
I0
sg231
I0
sg232
I10
sg233
I13
sg234
I0
sg235
S'HB'
p1989
sbssg201
I5
sg202
I0
sg203
I0
sg204
I0
sg205
F10.617647058823529
sg206
I0
sg474
I0
sg207
I0
sg208
I0
sg209
(dp1990
g756
I11
sg757
I13
sg758
I7
sg759
I9
sg760
I6
sg761
I10
sg762
I3
sg763
I10
sg764
I11
sg765
I7
sg766
I7
sg767
I11
sg768
I2
sg769
I10
sg770
I8
ssg226
g1929
sg227
I0
sg228
S'KAK 12'
p1991
sg229
I0
sg230
I0
sg231
I0
sg232
I15
sg233
I15
sg234
I0
sg235
S'HB'
p1992
sbsg773
(ijoueur
joueur
p1993
(dp1994
g28
I0
sg32
I0
sg34
I0
sg35
g36
(g37
g38
Ntp1995
Rp1996
(dp1997
g42
I4
sg43
S'*'
p1998
sg45
S'heros'
p1999
sbsg47
(dp2000
S'SR'
p2001
I0
sS'ST'
p2002
I0
sS'CR'
p2003
I0
sS'CT'
p2004
I0
ssg53
(dp2005
g2001
I0
sg2002
I0
sg2003
I0
sg2004
I0
ssg76
(dp2006
g2001
I0
sg2002
I0
sg2003
I0
sg2004
I0
ssg56
I0
sg57
I0
sg356
I0
sg357
I0
sg60
I1
sg61
I0
sg62
I0
sg63
(S'dummy'
p2007
S'PI'
p2008
S'DL'
p2009
g31
tp2010
sg68
I01
sg69
g36
(g37
g38
Ntp2011
Rp2012
(dp2013
g42
I4
sg43
g1998
sg45
g1999
sbsg70
(dp2014
g2001
I1
sg2002
I6
sg2003
I12
sg2004
I4
ssg59
I00
sg78
(dp2015
g2001
I0
sg2002
I0
sg2003
I0
sg2004
I0
ssg80
(dp2016
g2001
I1
sg2002
I6
sg2003
I12
sg2004
I4
ssg82
I0
sg83
I0
sg84
S'Brednh'
p2017
sg86
I7
sg87
I0
sg88
I18
sg89
I176
sg90
S'KAK'
p2018
sg92
(dp2019
S'A'
p2020
I11
sS'ME'
p2021
I13
sS'RP2'
p2022
I7
sS'E'
p2023
I9
sS'TO'
p2024
I11
sS'RP1'
p2025
I10
sS'JP'
p2026
I3
sS'RP_tot'
p2027
I10
sS'P'
p2028
I6
sS'PA'
p2029
I7
sS'M'
p2030
I7
sS'R'
p2031
I11
sS'TB'
p2032
I2
sS'PL'
p2033
I10
sS'TA'
p2034
I8
ssg201
I0
sg202
I0
sg203
I0
sg204
I0
sg205
F10.588235294117647
sg206
I0
sg474
I0
sg207
I0
sg208
I0
sg209
(dp2035
S'A'
p2036
I11
sS'ME'
p2037
I13
sS'RP2'
p2038
I7
sS'E'
p2039
I9
sS'TO'
p2040
I11
sS'RP1'
p2041
I10
sS'JP'
p2042
I3
sS'RP_tot'
p2043
I10
sS'P'
p2044
I6
sS'PA'
p2045
I7
sS'M'
p2046
I7
sS'R'
p2047
I11
sS'TB'
p2048
I2
sS'PL'
p2049
I10
sS'TA'
p2050
I8
ssg226
g2019
sg227
I0
sg228
g31
sg229
I0
sg230
I0
sg231
I0
sg232
I10
sg233
I13
sg234
I0
sg235
S'HB'
p2051
sbssg201
I5
sg202
I0
sg203
I0
sg204
I0
sg205
F11.222222222222221
sg206
I0
sg58
F213.79564117873372
sg474
I0
sg207
I0
sg208
I0
sg209
(dp2052
g837
I11
sg838
I13
sg839
I7
sg840
I9
sg841
I6
sg842
I10
sg843
I3
sg844
I10
sg845
I11
sg846
I7
sg847
I7
sg848
I11
sg849
I2
sg850
I10
sg851
I8
ssg226
(dp2053
g625
I11
sg626
I15
sg627
I7
sg628
I8
sg633
I6
sg630
I11
sg631
I3
sg632
I11
sg629
I11
sg634
I7
sg635
I9
sg636
I13
sg637
I2
sg638
I9
sg639
I8
ssg227
I0
sg333
(dp2054
sg229
I0
sg228
S'KAK 12'
p2055
sg230
I0
sg231
I0
sg232
I15
sg233
I15
sg234
I0
sg235
S'HB'
p2056
sbsS'drop2'
p2057
(ijoueur
joueur
p2058
(dp2059
g27
F9.0
sg28
I1
sg29
F11.548387096774194
sg30
g31
sg32
I2
sg33
F215.38847272957025
sg34
I0
sg35
g36
(g37
g38
Ntp2060
Rp2061
(dp2062
g42
I4
sg43
S'*'
p2063
sg45
S'heros'
p2064
sbsg47
(dp2065
S'SR'
p2066
I0
sS'CT'
p2067
I0
sS'CR'
p2068
I0
sS'ST'
p2069
I0
ssg53
(dp2070
g2066
I0
sg2067
I0
sg2068
I0
sg2069
I0
ssg55
I0
sg56
I0
sg205
F11.612903225806452
sg57
I0
sg58
F215.38847272957025
sg60
I4
sg61
I9
sg62
I16
sg63
(S'dummy'
p2071
S'AI'
p2072
g31
g31
tp2073
sg68
I00
sg69
g2061
sg70
(dp2074
S'SR'
p2075
I0
sS'CT'
p2076
I16
sS'CR'
p2077
I0
sS'ST'
p2078
I3
ssg59
I00
sg78
(dp2079
g2075
I0
sg2076
I0
sg2077
I0
sg2078
I0
ssg80
(dp2080
g2066
I0
sg2067
I35
sg2068
I3
sg2069
I10
ssg82
I27
sg83
I27
sg84
S'Iyeban'
p2081
sg86
I10
sg87
I16
sg88
I22
sg89
I101
sg90
S'BRB'
p2082
sg92
(dp2083
S'A'
p2084
I7
sS'ME'
p2085
I6
sS'RP2'
p2086
I11
sS'E'
p2087
I14
sS'TO'
p2088
I7
sS'RP1'
p2089
I11
sS'JP'
p2090
I10
sS'RP_tot'
p2091
I14
sS'P'
p2092
I11
sS'PA'
p2093
I9
sS'M'
p2094
I15
sS'R'
p2095
I8
sS'TB'
p2096
I9
sS'PL'
p2097
I9
sS'TA'
p2098
I6
ssg109
(dp2099
S's12'
p2100
(ijoueur
joueur
p2101
(dp2102
g27
F9.0
sg28
I0
sg30
g31
sg32
I1
sg34
I0
sg35
g36
(g37
g38
Ntp2103
Rp2104
(dp2105
g42
I4
sg43
S'*'
p2106
sg45
S'heros'
p2107
sbsg47
(dp2108
S'SR'
p2109
I0
sS'CT'
p2110
I0
sS'CR'
p2111
I0
sS'ST'
p2112
I0
ssg53
(dp2113
g2109
I0
sg2110
I0
sg2111
I0
sg2112
I0
ssg56
I0
sg57
I1
sg59
I01
sg60
I9
sg61
I0
sg62
I0
sg63
(S'dummy'
p2114
S'AI'
p2115
g31
g31
tp2116
sg68
I00
sg69
g2104
sg70
(dp2117
S'SR'
p2118
I0
sS'ST'
p2119
I5
sS'CR'
p2120
I0
sS'CT'
p2121
I14
ssg76
(dp2122
g2118
I0
sg2119
I0
sg2120
I0
sg2121
I0
ssg78
(dp2123
g2118
I0
sg2119
I0
sg2120
I0
sg2121
I0
ssg80
(dp2124
g2109
I0
sg2110
I19
sg2111
I3
sg2112
I6
ssg82
I0
sg83
I0
sg84
S'Iyeban'
p2125
sg86
I10
sg87
I0
sg88
I22
sg89
I101
sg90
S'BRB'
p2126
sg92
(dp2127
S'A'
p2128
I8
sS'ME'
p2129
I6
sS'RP2'
p2130
I11
sS'E'
p2131
I14
sS'P'
p2132
I11
sS'RP1'
p2133
I11
sS'JP'
p2134
I9
sS'RP_tot'
p2135
I15
sS'TO'
p2136
I7
sS'PA'
p2137
I8
sS'M'
p2138
I15
sS'R'
p2139
I9
sS'TB'
p2140
I8
sS'PL'
p2141
I9
sS'TA'
p2142
I6
ssg109
(dp2143
S's11'
p2144
(ijoueur
joueur
p2145
(dp2146
g28
I0
sg32
I0
sg34
I0
sg35
g36
(g37
g38
Ntp2147
Rp2148
(dp2149
g42
I4
sg43
S'*'
p2150
sg45
S'heros'
p2151
sbsg47
(dp2152
S'SR'
p2153
I0
sS'ST'
p2154
I0
sS'CR'
p2155
I0
sS'CT'
p2156
I0
ssg53
(dp2157
g2153
I0
sg2154
I0
sg2155
I0
sg2156
I0
ssg56
I0
sg57
I0
sg59
I01
sg60
I0
sg61
I0
sg62
I0
sg63
(S'dummy'
p2158
S'AI'
p2159
g31
g31
tp2160
sg68
I00
sg69
g36
(g37
g38
Ntp2161
Rp2162
(dp2163
g42
I2
sg43
S'^^'
p2164
sg45
S'special'
p2165
sbsg70
(dp2166
g2153
I0
sg2154
I0
sg2155
I3
sg2156
I5
ssg76
(dp2167
g2153
I0
sg2154
I0
sg2155
I0
sg2156
I0
ssg78
(dp2168
g2153
I0
sg2154
I0
sg2155
I0
sg2156
I0
ssg80
(dp2169
g2153
I0
sg2154
I0
sg2155
I3
sg2156
I5
ssg82
I0
sg83
I0
sg84
S'Iyeban'
p2170
sg86
I10
sg87
I0
sg88
I22
sg89
I9
sg90
S'BRB'
p2171
sg92
(dp2172
S'A'
p2173
I7
sS'ME'
p2174
I4
sS'RP2'
p2175
I10
sS'E'
p2176
I11
sS'TO'
p2177
I5
sS'RP1'
p2178
I6
sS'JP'
p2179
I5
sS'RP_tot'
p2180
I10
sS'P'
p2181
I9
sS'PA'
p2182
I6
sS'M'
p2183
I13
sS'R'
p2184
I8
sS'TB'
p2185
I5
sS'PL'
p2186
I7
sS'TA'
p2187
I4
ssg201
I0
sg202
I0
sg203
I0
sg204
I0
sg205
F9.0
sg206
I0
sg207
I0
sg208
I0
sg209
(dp2188
S'A'
p2189
I7
sS'ME'
p2190
I4
sS'RP2'
p2191
I10
sS'E'
p2192
I11
sS'TO'
p2193
I5
sS'RP1'
p2194
I6
sS'JP'
p2195
I5
sS'RP_tot'
p2196
I10
sS'P'
p2197
I9
sS'PA'
p2198
I6
sS'M'
p2199
I13
sS'R'
p2200
I8
sS'TB'
p2201
I5
sS'PL'
p2202
I7
sS'TA'
p2203
I4
ssg226
g2172
sg227
I0
sg228
g31
sg229
I0
sg230
I0
sg231
I0
sg232
I2
sg233
I0
sg234
I0
sg235
S'HB'
p2204
sbssg201
I10
sg202
I1
sg203
I0
sg204
I0
sg205
F11.548387096774194
sg206
I0
sg207
I0
sg208
I2
sg209
(dp2205
S'A'
p2206
I7
sS'ME'
p2207
I4
sS'RP2'
p2208
I10
sS'E'
p2209
I11
sS'TO'
p2210
I5
sS'RP1'
p2211
I6
sS'JP'
p2212
I5
sS'RP_tot'
p2213
I10
sS'P'
p2214
I9
sS'PA'
p2215
I6
sS'M'
p2216
I13
sS'R'
p2217
I8
sS'TB'
p2218
I5
sS'PL'
p2219
I7
sS'TA'
p2220
I4
ssg226
g2127
sg227
I0
sg228
g31
sg229
I0
sg230
I1
sg231
I0
sg232
I11
sg233
I9
sg234
I2
sg235
S'HB'
p2221
sbsS's11'
p2222
(ijoueur
joueur
p2223
(dp2224
g28
I0
sg32
I0
sg34
I0
sg35
g36
(g37
g38
Ntp2225
Rp2226
(dp2227
g42
I4
sg43
S'*'
p2228
sg45
S'heros'
p2229
sbsg47
(dp2230
S'SR'
p2231
I0
sS'ST'
p2232
I0
sS'CR'
p2233
I0
sS'CT'
p2234
I0
ssg53
(dp2235
g2231
I0
sg2232
I0
sg2233
I0
sg2234
I0
ssg56
I0
sg57
I0
sg59
I01
sg60
I0
sg61
I0
sg62
I0
sg63
(S'dummy'
p2236
S'AI'
p2237
g31
g31
tp2238
sg68
I00
sg69
g36
(g37
g38
Ntp2239
Rp2240
(dp2241
g42
I2
sg43
S'^^'
p2242
sg45
S'special'
p2243
sbsg70
(dp2244
g2231
I0
sg2232
I0
sg2233
I3
sg2234
I5
ssg76
(dp2245
g2231
I0
sg2232
I0
sg2233
I0
sg2234
I0
ssg78
(dp2246
g2231
I0
sg2232
I0
sg2233
I0
sg2234
I0
ssg80
(dp2247
g2231
I0
sg2232
I0
sg2233
I3
sg2234
I5
ssg82
I0
sg83
I0
sg84
S'Iyeban'
p2248
sg86
I10
sg87
I0
sg88
I22
sg89
I9
sg90
S'BRB'
p2249
sg92
(dp2250
S'A'
p2251
I7
sS'ME'
p2252
I4
sS'RP2'
p2253
I10
sS'E'
p2254
I11
sS'TO'
p2255
I5
sS'RP1'
p2256
I6
sS'JP'
p2257
I5
sS'RP_tot'
p2258
I10
sS'P'
p2259
I9
sS'PA'
p2260
I6
sS'M'
p2261
I13
sS'R'
p2262
I8
sS'TB'
p2263
I5
sS'PL'
p2264
I7
sS'TA'
p2265
I4
ssg201
I0
sg202
I0
sg203
I0
sg204
I0
sg205
F9.0
sg206
I0
sg207
I0
sg208
I0
sg209
(dp2266
S'A'
p2267
I7
sS'ME'
p2268
I4
sS'RP2'
p2269
I10
sS'E'
p2270
I11
sS'TO'
p2271
I5
sS'RP1'
p2272
I6
sS'JP'
p2273
I5
sS'RP_tot'
p2274
I10
sS'P'
p2275
I9
sS'PA'
p2276
I6
sS'M'
p2277
I13
sS'R'
p2278
I8
sS'TB'
p2279
I5
sS'PL'
p2280
I7
sS'TA'
p2281
I4
ssg226
g2250
sg227
I0
sg228
g31
sg229
I0
sg230
I0
sg231
I0
sg232
I2
sg233
I0
sg234
I0
sg235
S'HB'
p2282
sbssg201
I8
sg202
I1
sg203
I0
sg204
I0
sg76
(dp2283
g2075
I0
sg2076
I0
sg2077
I0
sg2078
I0
ssg206
I9
sg207
I0
sg208
I2
sg209
(dp2284
S'A'
p2285
I7
sS'ME'
p2286
I4
sS'RP2'
p2287
I10
sS'E'
p2288
I11
sS'TO'
p2289
I5
sS'RP1'
p2290
I6
sS'JP'
p2291
I5
sS'RP_tot'
p2292
I10
sS'P'
p2293
I9
sS'PA'
p2294
I6
sS'M'
p2295
I13
sS'R'
p2296
I8
sS'TB'
p2297
I5
sS'PL'
p2298
I7
sS'TA'
p2299
I4
ssg226
(dp2300
g2084
I8
sg2085
I6
sg2086
I11
sg2087
I14
sg2092
I11
sg2089
I11
sg2090
I10
sg2091
I14
sg2088
I7
sg2093
I9
sg2094
I15
sg2095
I9
sg2096
I9
sg2097
I10
sg2098
I6
ssg227
I1
sg333
(dp2301
sg229
I5
sg228
g31
sg230
I1
sg231
I5
sg232
I11
sg233
I13
sg234
I0
sg235
S'HB'
p2302
sbsS'SA_remp2'
p2303
(ijoueur
joueur
p2304
(dp2305
g27
F12.206896551724139
sg28
I1
sg29
F11.689655172413794
sg30
g31
sg32
I0
sg33
F204.68415253883205
sg34
I0
sg35
g36
(g37
g38
Ntp2306
Rp2307
(dp2308
g42
I5
sg43
S'xx'
p2309
sg45
S'seigneur'
p2310
sbsg47
(dp2311
S'SR'
p2312
I2
sS'CT'
p2313
I14
sS'CR'
p2314
I1
sS'ST'
p2315
I0
ssg53
(dp2316
g2312
I0
sg2313
I0
sg2314
I0
sg2315
I0
ssg55
I0
sg76
(dp2317
S'SR'
p2318
I0
sS'ST'
p2319
I0
sS'CR'
p2320
I0
sS'CT'
p2321
I13
ssg56
I0
sg57
I0
sg58
F204.68415253883205
sg60
I3
sg61
I0
sg62
I0
sg63
(S'dummy'
p2322
S'N8'
p2323
S'TL'
p2324
g31
tp2325
sg68
I00
sg69
g36
(g37
g38
Ntp2326
Rp2327
(dp2328
g42
I5
sg43
S'xx'
p2329
sg45
g2310
sbsg70
(dp2330
g2318
I0
sg2319
I4
sg2320
I0
sg2321
I1
ssg59
I00
sg78
(dp2331
g2318
I0
sg2319
I0
sg2320
I0
sg2321
I0
ssg80
(dp2332
g2312
I0
sg2313
I25
sg2314
I0
sg2315
I18
ssg82
I0
sg83
I0
sg84
S'Magh'
p2333
sg86
I7
sg87
I0
sg88
I17
sg89
I568
sg90
S'TO'
p2334
sg92
(dp2335
S'A'
p2336
I8
sS'ME'
p2337
I12
sS'RP2'
p2338
I7
sS'E'
p2339
I12
sS'TO'
p2340
I11
sS'RP1'
p2341
I16
sS'JP'
p2342
I8
sS'RP_tot'
p2343
I16
sS'P'
p2344
I7
sS'PA'
p2345
I8
sS'M'
p2346
I13
sS'R'
p2347
I11
sS'TB'
p2348
I7
sS'PL'
p2349
I9
sS'TA'
p2350
I10
ssg109
(dp2351
S's12'
p2352
(ijoueur
joueur
p2353
(dp2354
g27
F12.206896551724139
sg28
I1
sg30
g31
sg32
I0
sg34
I0
sg35
g36
(g37
g38
Ntp2355
Rp2356
(dp2357
g42
I5
sg43
S'xx'
p2358
sg45
S'seigneur'
p2359
sbsg47
(dp2360
S'SR'
p2361
I2
sS'CT'
p2362
I1
sS'CR'
p2363
I1
sS'ST'
p2364
I0
ssg53
(dp2365
g2361
I0
sg2362
I0
sg2363
I0
sg2364
I0
ssg56
I0
sg205
F11.689655172413794
sg57
I0
sg60
I6
sg61
I0
sg62
I0
sg63
(S'dummy'
p2366
S'N8'
p2367
S'TL'
p2368
g31
tp2369
sg68
I01
sg69
g36
(g37
g38
Ntp2370
Rp2371
(dp2372
g42
I5
sg43
S'xx'
p2373
sg45
g2359
sbsg70
(dp2374
S'SR'
p2375
I0
sS'ST'
p2376
I4
sS'CR'
p2377
I0
sS'CT'
p2378
I12
ssg59
I00
sg78
(dp2379
g2375
I0
sg2376
I0
sg2377
I0
sg2378
I0
ssg80
(dp2380
g2361
I0
sg2362
I24
sg2363
I0
sg2364
I13
ssg82
I0
sg83
I0
sg84
S'Magh'
p2381
sg86
I7
sg87
I0
sg88
I17
sg89
I303
sg90
S'SN'
p2382
sg92
(dp2383
S'A'
p2384
I8
sS'ME'
p2385
I12
sS'RP2'
p2386
I7
sS'E'
p2387
I11
sS'P'
p2388
I7
sS'RP1'
p2389
I16
sS'JP'
p2390
I7
sS'RP_tot'
p2391
I16
sS'TO'
p2392
I10
sS'PA'
p2393
I8
sS'M'
p2394
I13
sS'R'
p2395
I12
sS'TB'
p2396
I8
sS'PL'
p2397
I10
sS'TA'
p2398
I10
ssg109
(dp2399
S's11'
p2400
(ijoueur
joueur
p2401
(dp2402
g28
I1
sg32
I0
sg34
I0
sg35
g36
(g37
g38
Ntp2403
Rp2404
(dp2405
g42
I5
sg43
S'xx'
p2406
sg45
S'seigneur'
p2407
sbsg47
(dp2408
S'SR'
p2409
I0
sS'ST'
p2410
I0
sS'CR'
p2411
I0
sS'CT'
p2412
I0
ssg53
(dp2413
g2409
I0
sg2410
I0
sg2411
I0
sg2412
I0
ssg56
I0
sg57
I0
sg59
I01
sg60
I2
sg61
I0
sg62
I0
sg63
(S'dummy'
p2414
S'N8'
p2415
S'TL'
p2416
g31
tp2417
sg68
I01
sg69
g36
(g37
g38
Ntp2418
Rp2419
(dp2420
g42
I5
sg43
S'xx'
p2421
sg45
g2407
sbsg70
(dp2422
g2409
I0
sg2410
I8
sg2411
I0
sg2412
I12
ssg76
(dp2423
g2409
I0
sg2410
I0
sg2411
I0
sg2412
I0
ssg78
(dp2424
g2409
I0
sg2410
I0
sg2411
I0
sg2412
I0
ssg80
(dp2425
g2409
I0
sg2410
I8
sg2411
I0
sg2412
I12
ssg82
I0
sg83
I0
sg84
S'Magh'
p2426
sg86
I7
sg87
I0
sg88
I17
sg89
I303
sg90
S'SN'
p2427
sg92
(dp2428
S'A'
p2429
I9
sS'ME'
p2430
I13
sS'RP2'
p2431
I7
sS'E'
p2432
I12
sS'TO'
p2433
I10
sS'RP1'
p2434
I16
sS'JP'
p2435
I7
sS'RP_tot'
p2436
I16
sS'P'
p2437
I7
sS'PA'
p2438
I8
sS'M'
p2439
I13
sS'R'
p2440
I12
sS'TB'
p2441
I7
sS'PL'
p2442
I11
sS'TA'
p2443
I10
ssg201
I0
sg202
I0
sg203
I1
sg204
I0
sg205
F12.206896551724139
sg206
I0
sg207
I1
sg208
I0
sg209
(dp2444
S'A'
p2445
I9
sS'ME'
p2446
I13
sS'RP2'
p2447
I7
sS'E'
p2448
I12
sS'TO'
p2449
I10
sS'RP1'
p2450
I16
sS'JP'
p2451
I7
sS'RP_tot'
p2452
I16
sS'P'
p2453
I7
sS'PA'
p2454
I8
sS'M'
p2455
I13
sS'R'
p2456
I12
sS'TB'
p2457
I7
sS'PL'
p2458
I11
sS'TA'
p2459
I10
ssg226
g2428
sg227
I1
sg228
S'TA 10'
p2460
sg229
I0
sg230
I0
sg231
I0
sg232
I44
sg233
I16
sg234
I0
sg235
S'HB'
p2461
sbssg201
I14
sg202
I0
sg203
I1
sg204
I0
sg76
(dp2462
g2375
I2
sg2376
I0
sg2377
I1
sg2378
I1
ssg206
I0
sg207
I0
sg208
I0
sg209
(dp2463
S'A'
p2464
I9
sS'ME'
p2465
I13
sS'RP2'
p2466
I7
sS'E'
p2467
I12
sS'TO'
p2468
I10
sS'RP1'
p2469
I16
sS'JP'
p2470
I7
sS'RP_tot'
p2471
I16
sS'P'
p2472
I7
sS'PA'
p2473
I8
sS'M'
p2474
I13
sS'R'
p2475
I12
sS'TB'
p2476
I7
sS'PL'
p2477
I11
sS'TA'
p2478
I10
ssg226
g2383
sg227
I0
sg228
S'TA 10'
p2479
sg229
I0
sg230
I0
sg231
I0
sg232
I129
sg233
I22
sg234
I0
sg235
S'HB'
p2480
sbsS's11'
p2481
(ijoueur
joueur
p2482
(dp2483
g28
I1
sg32
I0
sg34
I0
sg35
g36
(g37
g38
Ntp2484
Rp2485
(dp2486
g42
I5
sg43
S'xx'
p2487
sg45
S'seigneur'
p2488
sbsg47
(dp2489
S'SR'
p2490
I0
sS'ST'
p2491
I0
sS'CR'
p2492
I0
sS'CT'
p2493
I0
ssg53
(dp2494
g2490
I0
sg2491
I0
sg2492
I0
sg2493
I0
ssg56
I0
sg57
I0
sg59
I01
sg60
I2
sg61
I0
sg62
I0
sg63
(S'dummy'
p2495
S'N8'
p2496
S'TL'
p2497
g31
tp2498
sg68
I01
sg69
g36
(g37
g38
Ntp2499
Rp2500
(dp2501
g42
I5
sg43
S'xx'
p2502
sg45
g2488
sbsg70
(dp2503
g2490
I0
sg2491
I8
sg2492
I0
sg2493
I12
ssg76
(dp2504
g2490
I0
sg2491
I0
sg2492
I0
sg2493
I0
ssg78
(dp2505
g2490
I0
sg2491
I0
sg2492
I0
sg2493
I0
ssg80
(dp2506
g2490
I0
sg2491
I8
sg2492
I0
sg2493
I12
ssg82
I0
sg83
I0
sg84
S'Magh'
p2507
sg86
I7
sg87
I0
sg88
I17
sg89
I303
sg90
S'SN'
p2508
sg92
(dp2509
S'A'
p2510
I9
sS'ME'
p2511
I13
sS'RP2'
p2512
I7
sS'E'
p2513
I12
sS'TO'
p2514
I10
sS'RP1'
p2515
I16
sS'JP'
p2516
I7
sS'RP_tot'
p2517
I16
sS'P'
p2518
I7
sS'PA'
p2519
I8
sS'M'
p2520
I13
sS'R'
p2521
I12
sS'TB'
p2522
I7
sS'PL'
p2523
I11
sS'TA'
p2524
I10
ssg201
I0
sg202
I0
sg203
I1
sg204
I0
sg205
F12.206896551724139
sg206
I0
sg207
I1
sg208
I0
sg209
(dp2525
S'A'
p2526
I9
sS'ME'
p2527
I13
sS'RP2'
p2528
I7
sS'E'
p2529
I12
sS'TO'
p2530
I10
sS'RP1'
p2531
I16
sS'JP'
p2532
I7
sS'RP_tot'
p2533
I16
sS'P'
p2534
I7
sS'PA'
p2535
I8
sS'M'
p2536
I13
sS'R'
p2537
I12
sS'TB'
p2538
I7
sS'PL'
p2539
I11
sS'TA'
p2540
I10
ssg226
g2509
sg227
I1
sg228
S'TA 10'
p2541
sg229
I0
sg230
I0
sg231
I0
sg232
I44
sg233
I16
sg234
I0
sg235
S'HB'
p2542
sbssg201
I10
sg202
I0
sg203
I1
sg204
I0
sg205
F11.931034482758621
sg206
I0
sg207
I0
sg208
I0
sg209
(dp2543
S'A'
p2544
I9
sS'ME'
p2545
I13
sS'RP2'
p2546
I7
sS'E'
p2547
I12
sS'TO'
p2548
I10
sS'RP1'
p2549
I16
sS'JP'
p2550
I7
sS'RP_tot'
p2551
I16
sS'P'
p2552
I7
sS'PA'
p2553
I8
sS'M'
p2554
I13
sS'R'
p2555
I12
sS'TB'
p2556
I7
sS'PL'
p2557
I11
sS'TA'
p2558
I10
ssg226
(dp2559
g2336
I9
sg2337
I12
sg2338
I7
sg2339
I12
sg2344
I7
sg2341
I16
sg2342
I8
sg2343
I16
sg2340
I11
sg2345
I8
sg2346
I13
sg2347
I12
sg2348
I7
sg2349
I10
sg2350
I10
ssg227
I0
sg333
(dp2560
sg229
I0
sg228
S'TA 10;SN 13'
p2561
sg230
I0
sg231
I0
sg232
I14
sg233
I25
sg234
I0
sg235
S'HB'
p2562
sbssg84
csip
_unpickle_type
p2563
(S'PyQt4.QtCore'
p2564
S'QString'
p2565
(VS_HB_t
p2566
tp2567
tp2568
Rp2569
sS'totaux'
p2570
(dp2571
g19
I0
sg20
I0
sg21
I0
ssS'_compo_defaut_fatigue'
p2572
Nsg92
(dp2573
g4
I0
sg5
I0
sg6
I0
sg7
I0
sg8
I0
sg9
I0
sg10
I0
sg11
I0
sg12
I0
sg13
I0
sg14
I0
sg15
I0
sg16
I0
ssS'joueurs'
p2574
(dp2575
S'n12'
p2576
(ijoueur
joueur
p2577
(dp2578
g27
F10.633333333333333
sg28
I1
sg29
F11.233333333333333
sg30
g31
sg32
I0
sg33
F180.28188164751782
sg34
I0
sg35
g36
(g37
g38
Ntp2579
Rp2580
(dp2581
g42
I5
sg43
S'**'
p2582
sg45
S'seigneur'
p2583
sbsg47
(dp2584
S'SR'
p2585
I0
sS'ST'
p2586
I0
sS'CR'
p2587
I0
sS'CT'
p2588
I0
ssg53
(dp2589
g2585
I0
sg2586
I0
sg2587
I0
sg2588
I0
ssg55
I0
sg56
I0
sg205
F10.8
sg57
I0
sg356
I0
sg357
I0
sg60
I0
sg61
I0
sg62
I0
sg63
(S'dummy'
p2590
S'C1'
p2591
S'TA'
p2592
g31
tp2593
sg68
I00
sg69
g2580
sg70
(dp2594
S'SR'
p2595
I0
sS'CT'
p2596
I13
sS'CR'
p2597
I0
sS'ST'
p2598
I4
ssg59
I00
sg78
(dp2599
g2595
I0
sg2596
I0
sg2597
I0
sg2598
I0
ssg80
(dp2600
g2585
I0
sg2586
I18
sg2587
I0
sg2588
I40
ssg82
I0
sg83
I0
sg84
S'Aylefrg'
p2601
sg86
I10
sg87
I0
sg88
I22
sg89
I210
sg90
S'DKW'
p2602
sg92
(dp2603
S'A'
p2604
I10
sS'ME'
p2605
I9
sS'RP2'
p2606
I8
sS'E'
p2607
I10
sS'P'
p2608
I10
sS'RP1'
p2609
I13
sS'JP'
p2610
I9
sS'RP_tot'
p2611
I14
sS'TO'
p2612
I4
sS'PA'
p2613
I11
sS'M'
p2614
I12
sS'R'
p2615
I10
sS'TB'
p2616
I10
sS'PL'
p2617
I10
sS'TA'
p2618
I8
ssg109
(dp2619
S's12'
p2620
(ijoueur
joueur
p2621
(dp2622
g27
F10.633333333333333
sg28
I0
sg30
g31
sg32
I0
sg34
I0
sg35
g36
(g37
g38
Ntp2623
Rp2624
(dp2625
g42
I5
sg43
S'**'
p2626
sg45
S'seigneur'
p2627
sbsg47
(dp2628
S'SR'
p2629
I0
sS'ST'
p2630
I0
sS'CR'
p2631
I0
sS'CT'
p2632
I0
ssg53
(dp2633
g2629
I0
sg2630
I0
sg2631
I0
sg2632
I0
ssg56
I0
sg57
I0
sg356
I0
sg357
I0
sg59
I00
sg60
I3
sg61
I0
sg62
I0
sg63
(S'dummy'
p2634
S'C1'
p2635
S'TA'
p2636
g31
tp2637
sg68
I00
sg69
g2624
sg70
(dp2638
S'SR'
p2639
I0
sS'ST'
p2640
I5
sS'CR'
p2641
I0
sS'CT'
p2642
I14
ssg76
(dp2643
g2639
I0
sg2640
I0
sg2641
I0
sg2642
I0
ssg78
(dp2644
g2639
I0
sg2640
I0
sg2641
I0
sg2642
I0
ssg80
(dp2645
g2629
I0
sg2630
I14
sg2631
I0
sg2632
I27
ssg82
I0
sg83
I0
sg84
S'Aylefrg'
p2646
sg86
I10
sg87
I0
sg88
I22
sg89
I210
sg90
S'DKW'
p2647
sg92
(dp2648
S'A'
p2649
I11
sS'ME'
p2650
I9
sS'RP2'
p2651
I8
sS'E'
p2652
I11
sS'TO'
p2653
I4
sS'RP1'
p2654
I13
sS'JP'
p2655
I8
sS'RP_tot'
p2656
I14
sS'P'
p2657
I9
sS'PA'
p2658
I12
sS'M'
p2659
I12
sS'R'
p2660
I10
sS'TB'
p2661
I9
sS'PL'
p2662
I11
sS'TA'
p2663
I8
ssg109
(dp2664
S's11'
p2665
(ijoueur
joueur
p2666
(dp2667
g28
I0
sg32
I0
sg34
I0
sg35
g36
(g37
g38
Ntp2668
Rp2669
(dp2670
g42
I5
sg43
S'**'
p2671
sg45
S'seigneur'
p2672
sbsg47
(dp2673
S'SR'
p2674
I0
sS'CT'
p2675
I0
sS'CR'
p2676
I0
sS'ST'
p2677
I0
ssg53
(dp2678
g2674
I0
sg2675
I0
sg2676
I0
sg2677
I0
ssg56
I0
sg205
F10.633333333333333
sg57
I0
sg356
I0
sg357
I0
sg60
I2
sg61
I0
sg62
I0
sg63
(S'dummy'
p2679
S'C1'
p2680
S'TA'
p2681
g31
tp2682
sg68
I00
sg69
g36
(g37
g38
Ntp2683
Rp2684
(dp2685
g42
I4
sg43
S'*'
p2686
sg45
S'heros'
p2687
sbsg70
(dp2688
g2674
I0
sg2675
I13
sg2676
I0
sg2677
I8
ssg59
I00
sg78
(dp2689
g2674
I0
sg2675
I0
sg2676
I0
sg2677
I0
ssg80
(dp2690
g2674
I0
sg2675
I13
sg2676
I0
sg2677
I8
ssg82
I0
sg83
I0
sg84
S'Aylefrg'
p2691
sg86
I10
sg87
I0
sg88
I22
sg89
I190
sg90
S'DKW'
p2692
sg92
(dp2693
S'A'
p2694
I10
sS'ME'
p2695
I9
sS'RP2'
p2696
I8
sS'E'
p2697
I11
sS'P'
p2698
I8
sS'RP1'
p2699
I13
sS'JP'
p2700
I8
sS'RP_tot'
p2701
I14
sS'TO'
p2702
I3
sS'PA'
p2703
I11
sS'M'
p2704
I11
sS'R'
p2705
I10
sS'TB'
p2706
I9
sS'PL'
p2707
I10
sS'TA'
p2708
I8
ssg201
I0
sg202
I0
sg203
I1
sg204
I0
sg76
(dp2709
g2674
I0
sg2675
I0
sg2676
I0
sg2677
I0
ssg206
I0
sg474
I0
sg207
I1
sg208
I0
sg209
(dp2710
S'A'
p2711
I10
sS'ME'
p2712
I9
sS'RP2'
p2713
I8
sS'E'
p2714
I11
sS'P'
p2715
I8
sS'RP1'
p2716
I13
sS'JP'
p2717
I8
sS'RP_tot'
p2718
I14
sS'TO'
p2719
I3
sS'PA'
p2720
I11
sS'M'
p2721
I11
sS'R'
p2722
I10
sS'TB'
p2723
I9
sS'PL'
p2724
I10
sS'TA'
p2725
I8
ssg226
g2693
sg227
I0
sg228
g31
sg229
I0
sg230
I0
sg231
I0
sg232
I23
sg233
I2
sg234
I0
sg235
S'HB'
p2726
sbssg201
I6
sg202
I0
sg203
I1
sg204
I0
sg205
F11.233333333333333
sg206
I0
sg474
I0
sg207
I0
sg208
I0
sg209
(dp2727
S'A'
p2728
I10
sS'ME'
p2729
I9
sS'RP2'
p2730
I8
sS'E'
p2731
I11
sS'TO'
p2732
I3
sS'RP1'
p2733
I13
sS'JP'
p2734
I8
sS'RP_tot'
p2735
I14
sS'P'
p2736
I8
sS'PA'
p2737
I11
sS'M'
p2738
I11
sS'R'
p2739
I10
sS'TB'
p2740
I9
sS'PL'
p2741
I10
sS'TA'
p2742
I8
ssg226
g2648
sg227
I0
sg228
g31
sg229
I0
sg230
I0
sg231
I0
sg232
I25
sg233
I5
sg234
I0
sg235
S'HB'
p2743
sbsS's11'
p2744
(ijoueur
joueur
p2745
(dp2746
g28
I0
sg32
I0
sg34
I0
sg35
g36
(g37
g38
Ntp2747
Rp2748
(dp2749
g42
I5
sg43
S'**'
p2750
sg45
S'seigneur'
p2751
sbsg47
(dp2752
S'SR'
p2753
I0
sS'CT'
p2754
I0
sS'CR'
p2755
I0
sS'ST'
p2756
I0
ssg53
(dp2757
g2753
I0
sg2754
I0
sg2755
I0
sg2756
I0
ssg56
I0
sg205
F10.633333333333333
sg57
I0
sg356
I0
sg357
I0
sg60
I2
sg61
I0
sg62
I0
sg63
(S'dummy'
p2758
S'C1'
p2759
S'TA'
p2760
g31
tp2761
sg68
I00
sg69
g36
(g37
g38
Ntp2762
Rp2763
(dp2764
g42
I4
sg43
S'*'
p2765
sg45
S'heros'
p2766
sbsg70
(dp2767
g2753
I0
sg2754
I13
sg2755
I0
sg2756
I8
ssg59
I00
sg78
(dp2768
g2753
I0
sg2754
I0
sg2755
I0
sg2756
I0
ssg80
(dp2769
g2753
I0
sg2754
I13
sg2755
I0
sg2756
I8
ssg82
I0
sg83
I0
sg84
S'Aylefrg'
p2770
sg86
I10
sg87
I0
sg88
I22
sg89
I190
sg90
S'DKW'
p2771
sg92
(dp2772
S'A'
p2773
I10
sS'ME'
p2774
I9
sS'RP2'
p2775
I8
sS'E'
p2776
I11
sS'P'
p2777
I8
sS'RP1'
p2778
I13
sS'JP'
p2779
I8
sS'RP_tot'
p2780
I14
sS'TO'
p2781
I3
sS'PA'
p2782
I11
sS'M'
p2783
I11
sS'R'
p2784
I10
sS'TB'
p2785
I9
sS'PL'
p2786
I10
sS'TA'
p2787
I8
ssg201
I0
sg202
I0
sg203
I1
sg204
I0
sg76
(dp2788
g2753
I0
sg2754
I0
sg2755
I0
sg2756
I0
ssg206
I0
sg474
I0
sg207
I1
sg208
I0
sg209
(dp2789
S'A'
p2790
I10
sS'ME'
p2791
I9
sS'RP2'
p2792
I8
sS'E'
p2793
I11
sS'P'
p2794
I8
sS'RP1'
p2795
I13
sS'JP'
p2796
I8
sS'RP_tot'
p2797
I14
sS'TO'
p2798
I3
sS'PA'
p2799
I11
sS'M'
p2800
I11
sS'R'
p2801
I10
sS'TB'
p2802
I9
sS'PL'
p2803
I10
sS'TA'
p2804
I8
ssg226
g2772
sg227
I0
sg228
g31
sg229
I0
sg230
I0
sg231
I0
sg232
I23
sg233
I2
sg234
I0
sg235
S'HB'
p2805
sbssg201
I0
sg202
I0
sg203
I1
sg204
I0
sg76
(dp2806
g2595
I0
sg2596
I0
sg2597
I0
sg2598
I0
ssg206
I0
sg58
F180.28188164751782
sg474
I0
sg207
I0
sg208
I1
sg209
(dp2807
S'A'
p2808
I10
sS'ME'
p2809
I9
sS'RP2'
p2810
I8
sS'E'
p2811
I11
sS'TO'
p2812
I3
sS'RP1'
p2813
I13
sS'JP'
p2814
I8
sS'RP_tot'
p2815
I14
sS'P'
p2816
I8
sS'PA'
p2817
I11
sS'M'
p2818
I11
sS'R'
p2819
I10
sS'TB'
p2820
I9
sS'PL'
p2821
I10
sS'TA'
p2822
I8
ssg226
(dp2823
g2604
I10
sg2605
I9
sg2606
I8
sg2607
I10
sg2612
I4
sg2609
I13
sg2610
I9
sg2611
I14
sg2608
I10
sg2613
I11
sg2614
I12
sg2615
I10
sg2616
I10
sg2617
I10
sg2618
I8
ssg227
I1
sg333
(dp2824
sg229
I0
sg228
g31
sg230
I0
sg231
I0
sg232
I25
sg233
I5
sg234
I1
sg235
S'HB'
p2825
sbsS'n13'
p2826
(ijoueur
joueur
p2827
(dp2828
g27
F9.827586206896552
sg28
I1
sg29
F11.793103448275861
sg30
g31
sg32
I0
sg33
F226.42688685484558
sg34
I0
sg35
g36
(g37
g38
Ntp2829
Rp2830
(dp2831
g42
I5
sg43
S'**'
p2832
sg45
S'seigneur'
p2833
sbsg47
(dp2834
g2066
I0
sg2067
I0
sg2068
I0
sg2069
I0
ssg53
(dp2835
g2066
I0
sg2067
I0
sg2068
I0
sg2069
I0
ssg55
I0
sg56
I0
sg205
F12.10344827586207
sg57
I0
sg58
F226.42688685484558
sg60
I1
sg61
I0
sg62
I4
sg63
(g2071
S'C2'
p2836
S'N8'
p2837
g31
tp2838
sg68
I00
sg69
g2830
sg70
(dp2839
g2075
I0
sg2076
I16
sg2077
I0
sg2078
I4
ssg59
I00
sg78
(dp2840
g2075
I0
sg2076
I0
sg2077
I0
sg2078
I0
ssg80
(dp2841
g2066
I0
sg2067
I43
sg2068
I0
sg2069
I12
ssg82
I5
sg83
I2
sg84
S'Jrekopf'
p2842
sg86
I11
sg87
I7
sg88
I20
sg89
I210
sg90
g2082
sg92
(dp2843
g2084
I12
sg2085
I8
sg2086
I8
sg2087
I12
sg2088
I6
sg2089
I14
sg2090
I6
sg2091
I15
sg2092
I11
sg2093
I9
sg2094
I12
sg2095
I10
sg2096
I9
sg2097
I12
sg2098
I8
ssg109
(dp2844
g2100
(ijoueur
joueur
p2845
(dp2846
g27
F9.827586206896552
sg28
I0
sg30
g31
sg32
I0
sg34
I0
sg35
g36
(g37
g38
Ntp2847
Rp2848
(dp2849
g42
I5
sg43
S'**'
p2850
sg45
S'seigneur'
p2851
sbsg47
(dp2852
g2109
I0
sg2110
I0
sg2111
I0
sg2112
I0
ssg53
(dp2853
g2109
I0
sg2110
I0
sg2111
I0
sg2112
I0
ssg56
I0
sg57
I0
sg59
I01
sg60
I3
sg61
I0
sg62
I3
sg63
(g2114
S'C2'
p2854
S'N8'
p2855
g31
tp2856
sg68
I00
sg69
g2848
sg70
(dp2857
g2118
I0
sg2119
I6
sg2120
I0
sg2121
I13
ssg76
(dp2858
g2118
I0
sg2119
I0
sg2120
I0
sg2121
I0
ssg78
(dp2859
g2118
I0
sg2119
I0
sg2120
I0
sg2121
I0
ssg80
(dp2860
g2109
I0
sg2110
I27
sg2111
I0
sg2112
I7
ssg82
I3
sg83
I3
sg84
S'Jrekopf'
p2861
sg86
I11
sg87
I3
sg88
I20
sg89
I210
sg90
g2126
sg92
(dp2862
g2128
I11
sg2129
I8
sg2130
I8
sg2131
I12
sg2132
I10
sg2133
I14
sg2134
I6
sg2135
I15
sg2136
I6
sg2137
I9
sg2138
I12
sg2139
I11
sg2140
I9
sg2141
I13
sg2142
I8
ssg109
(dp2863
g2144
(ijoueur
joueur
p2864
(dp2865
g28
I0
sg32
I0
sg34
I0
sg35
g36
(g37
g38
Ntp2866
Rp2867
(dp2868
g42
I5
sg43
S'**'
p2869
sg45
S'seigneur'
p2870
sbsg47
(dp2871
S'SR'
p2872
I0
sS'ST'
p2873
I0
sS'CR'
p2874
I0
sS'CT'
p2875
I0
ssg53
(dp2876
g2872
I0
sg2873
I0
sg2874
I0
sg2875
I0
ssg56
I0
sg57
I0
sg59
I00
sg60
I4
sg61
I0
sg62
I0
sg63
(S'dummy'
p2877
S'C2'
p2878
S'N8'
p2879
g31
tp2880
sg68
I00
sg69
g36
(g37
g38
Ntp2881
Rp2882
(dp2883
g42
I3
sg43
S'<<<'
p2884
sg45
S'rare'
p2885
sbsg70
(dp2886
g2872
I0
sg2873
I0
sg2874
I0
sg2875
I14
ssg76
(dp2887
g2872
I0
sg2873
I0
sg2874
I0
sg2875
I0
ssg78
(dp2888
g2872
I0
sg2873
I0
sg2874
I0
sg2875
I0
ssg80
(dp2889
g2872
I0
sg2873
I0
sg2874
I0
sg2875
I14
ssg82
I0
sg83
I0
sg84
S'Jrekopf'
p2890
sg86
I11
sg87
I0
sg88
I20
sg89
I190
sg90
S'BRB'
p2891
sg92
(dp2892
S'A'
p2893
I8
sS'ME'
p2894
I8
sS'RP2'
p2895
I8
sS'E'
p2896
I11
sS'TO'
p2897
I3
sS'RP1'
p2898
I13
sS'JP'
p2899
I3
sS'RP_tot'
p2900
I14
sS'P'
p2901
I5
sS'PA'
p2902
I7
sS'M'
p2903
I12
sS'R'
p2904
I11
sS'TB'
p2905
I4
sS'PL'
p2906
I9
sS'TA'
p2907
I8
ssg201
I0
sg202
I0
sg203
I0
sg204
I0
sg205
F9.827586206896552
sg206
I0
sg207
I0
sg208
I0
sg209
(dp2908
S'A'
p2909
I8
sS'ME'
p2910
I8
sS'RP2'
p2911
I8
sS'E'
p2912
I11
sS'TO'
p2913
I3
sS'RP1'
p2914
I13
sS'JP'
p2915
I3
sS'RP_tot'
p2916
I14
sS'P'
p2917
I5
sS'PA'
p2918
I7
sS'M'
p2919
I12
sS'R'
p2920
I11
sS'TB'
p2921
I4
sS'PL'
p2922
I9
sS'TA'
p2923
I8
ssg226
g2892
sg227
I0
sg228
g31
sg229
I0
sg230
I0
sg231
I0
sg232
I11
sg233
I4
sg234
I0
sg235
S'HB'
p2924
sbssg201
I11
sg202
I0
sg203
I0
sg204
I0
sg205
F11.793103448275861
sg206
I0
sg207
I0
sg208
I0
sg209
(dp2925
g2206
I8
sg2207
I8
sg2208
I8
sg2209
I11
sg2210
I3
sg2211
I13
sg2212
I3
sg2213
I14
sg2214
I5
sg2215
I7
sg2216
I12
sg2217
I11
sg2218
I4
sg2219
I9
sg2220
I8
ssg226
g2862
sg227
I0
sg228
g31
sg229
I0
sg230
I0
sg231
I0
sg232
I13
sg233
I7
sg234
I0
sg235
S'HB'
p2926
sbsg2222
(ijoueur
joueur
p2927
(dp2928
g28
I0
sg32
I0
sg34
I0
sg35
g36
(g37
g38
Ntp2929
Rp2930
(dp2931
g42
I5
sg43
S'**'
p2932
sg45
S'seigneur'
p2933
sbsg47
(dp2934
S'SR'
p2935
I0
sS'ST'
p2936
I0
sS'CR'
p2937
I0
sS'CT'
p2938
I0
ssg53
(dp2939
g2935
I0
sg2936
I0
sg2937
I0
sg2938
I0
ssg56
I0
sg57
I0
sg59
I00
sg60
I4
sg61
I0
sg62
I0
sg63
(S'dummy'
p2940
S'C2'
p2941
S'N8'
p2942
g31
tp2943
sg68
I00
sg69
g36
(g37
g38
Ntp2944
Rp2945
(dp2946
g42
I3
sg43
S'<<<'
p2947
sg45
S'rare'
p2948
sbsg70
(dp2949
g2935
I0
sg2936
I0
sg2937
I0
sg2938
I14
ssg76
(dp2950
g2935
I0
sg2936
I0
sg2937
I0
sg2938
I0
ssg78
(dp2951
g2935
I0
sg2936
I0
sg2937
I0
sg2938
I0
ssg80
(dp2952
g2935
I0
sg2936
I0
sg2937
I0
sg2938
I14
ssg82
I0
sg83
I0
sg84
S'Jrekopf'
p2953
sg86
I11
sg87
I0
sg88
I20
sg89
I190
sg90
S'BRB'
p2954
sg92
(dp2955
S'A'
p2956
I8
sS'ME'
p2957
I8
sS'RP2'
p2958
I8
sS'E'
p2959
I11
sS'TO'
p2960
I3
sS'RP1'
p2961
I13
sS'JP'
p2962
I3
sS'RP_tot'
p2963
I14
sS'P'
p2964
I5
sS'PA'
p2965
I7
sS'M'
p2966
I12
sS'R'
p2967
I11
sS'TB'
p2968
I4
sS'PL'
p2969
I9
sS'TA'
p2970
I8
ssg201
I0
sg202
I0
sg203
I0
sg204
I0
sg205
F9.827586206896552
sg206
I0
sg207
I0
sg208
I0
sg209
(dp2971
S'A'
p2972
I8
sS'ME'
p2973
I8
sS'RP2'
p2974
I8
sS'E'
p2975
I11
sS'TO'
p2976
I3
sS'RP1'
p2977
I13
sS'JP'
p2978
I3
sS'RP_tot'
p2979
I14
sS'P'
p2980
I5
sS'PA'
p2981
I7
sS'M'
p2982
I12
sS'R'
p2983
I11
sS'TB'
p2984
I4
sS'PL'
p2985
I9
sS'TA'
p2986
I8
ssg226
g2955
sg227
I0
sg228
g31
sg229
I0
sg230
I0
sg231
I0
sg232
I11
sg233
I4
sg234
I0
sg235
S'HB'
p2987
sbssg201
I10
sg202
I0
sg203
I0
sg204
I0
sg76
(dp2988
g2075
I0
sg2076
I0
sg2077
I0
sg2078
I0
ssg206
I0
sg207
I0
sg208
I0
sg209
(dp2989
g2285
I8
sg2286
I8
sg2287
I8
sg2288
I11
sg2289
I3
sg2290
I13
sg2291
I3
sg2292
I14
sg2293
I5
sg2294
I7
sg2295
I12
sg2296
I11
sg2297
I4
sg2298
I9
sg2299
I8
ssg226
(dp2990
g2084
I13
sg2085
I8
sg2086
I8
sg2087
I12
sg2092
I11
sg2089
I14
sg2090
I6
sg2091
I15
sg2088
I6
sg2093
I9
sg2094
I12
sg2095
I11
sg2096
I9
sg2097
I13
sg2098
I8
ssg227
I1
sg333
(dp2991
sg229
I0
sg228
g31
sg230
I0
sg231
I0
sg232
I13
sg233
I8
sg234
I0
sg235
S'HB'
p2992
sbsS'n10'
p2993
g1122
sS'n11'
p2994
(ijoueur
joueur
p2995
(dp2996
g27
F11.030303030303031
sg28
I1
sg29
F10.727272727272727
sg30
g31
sg32
I0
sg33
F201.6032723307141
sg34
I0
sg35
g36
(g37
g38
Ntp2997
Rp2998
(dp2999
g42
I5
sg43
S'**'
p3000
sg45
S'seigneur'
p3001
sbsg47
(dp3002
S'SR'
p3003
I3
sS'CT'
p3004
I0
sS'CR'
p3005
I0
sS'ST'
p3006
I0
ssg53
(dp3007
g3003
I0
sg3004
I0
sg3005
I0
sg3006
I6
ssg55
I0
sg56
I0
sg57
I0
sg356
I0
sg357
I0
sg59
I00
sg60
I4
sg61
I0
sg62
I0
sg63
(S'dummy'
p3008
S'AR'
p3009
S'CE'
p3010
S'AI'
p3011
tp3012
sg68
I00
sg69
g36
(g37
g38
Ntp3013
Rp3014
(dp3015
g42
I5
sg43
S'**'
p3016
sg45
g3001
sbsg70
(dp3017
S'SR'
p3018
I0
sS'CT'
p3019
I13
sS'CR'
p3020
I0
sS'ST'
p3021
I0
ssg76
(dp3022
g3018
I0
sg3019
I0
sg3020
I0
sg3021
I0
ssg78
(dp3023
g3018
I0
sg3019
I0
sg3020
I0
sg3021
I5
ssg80
(dp3024
g3003
I4
sg3004
I41
sg3005
I0
sg3006
I8
ssg82
I0
sg83
I0
sg84
S'Hrgoth'
p3025
sg86
I7
sg87
I0
sg88
I17
sg89
I100
sg90
S'TLB'
p3026
sg92
(dp3027
S'A'
p3028
I10
sS'ME'
p3029
I4
sS'RP2'
p3030
I10
sS'E'
p3031
I13
sS'TO'
p3032
I7
sS'RP1'
p3033
I9
sS'JP'
p3034
I6
sS'RP_tot'
p3035
I11
sS'P'
p3036
I8
sS'PA'
p3037
I8
sS'M'
p3038
I9
sS'R'
p3039
I9
sS'TB'
p3040
I8
sS'PL'
p3041
I12
sS'TA'
p3042
I6
ssg109
(dp3043
S's12'
p3044
(ijoueur
joueur
p3045
(dp3046
g27
F11.030303030303031
sg28
I0
sg30
g31
sg32
I0
sg34
I0
sg35
g36
(g37
g38
Ntp3047
Rp3048
(dp3049
g42
I5
sg43
S'**'
p3050
sg45
S'seigneur'
p3051
sbsg47
(dp3052
S'SR'
p3053
I3
sS'CT'
p3054
I0
sS'CR'
p3055
I0
sS'ST'
p3056
I0
ssg53
(dp3057
g3053
I0
sg3054
I0
sg3055
I0
sg3056
I0
ssg76
(dp3058
S'SR'
p3059
I2
sS'CT'
p3060
I0
sS'CR'
p3061
I0
sS'ST'
p3062
I0
ssg56
I0
sg57
I0
sg356
I0
sg357
I0
sg60
I1
sg61
I0
sg62
I0
sg63
(S'dummy'
p3063
S'AR'
p3064
S'CE'
p3065
S'AI'
p3066
tp3067
sg68
I00
sg69
g36
(g37
g38
Ntp3068
Rp3069
(dp3070
g42
I5
sg43
S'**'
p3071
sg45
g3051
sbsg70
(dp3072
g3059
I3
sg3060
I13
sg3061
I0
sg3062
I1
ssg59
I00
sg78
(dp3073
g3059
I0
sg3060
I0
sg3061
I0
sg3062
I0
ssg80
(dp3074
g3053
I4
sg3054
I28
sg3055
I0
sg3056
I8
ssg82
I0
sg83
I0
sg84
S'Hrgoth'
p3075
sg86
I7
sg87
I0
sg88
I17
sg89
I100
sg90
S'TLB'
p3076
sg92
(dp3077
S'A'
p3078
I11
sS'ME'
p3079
I4
sS'RP2'
p3080
I10
sS'E'
p3081
I13
sS'P'
p3082
I8
sS'RP1'
p3083
I9
sS'JP'
p3084
I6
sS'RP_tot'
p3085
I12
sS'TO'
p3086
I7
sS'PA'
p3087
I8
sS'M'
p3088
I9
sS'R'
p3089
I10
sS'TB'
p3090
I7
sS'PL'
p3091
I13
sS'TA'
p3092
I6
ssg109
(dp3093
S's11'
p3094
(ijoueur
joueur
p3095
(dp3096
g28
I0
sg32
I0
sg34
I0
sg35
g36
(g37
g38
Ntp3097
Rp3098
(dp3099
g42
I5
sg43
S'**'
p3100
sg45
S'seigneur'
p3101
sbsg47
(dp3102
S'SR'
p3103
I1
sS'ST'
p3104
I0
sS'CR'
p3105
I0
sS'CT'
p3106
I0
ssg53
(dp3107
g3103
I0
sg3104
I0
sg3105
I0
sg3106
I0
ssg56
I0
sg205
F11.030303030303031
sg57
I0
sg356
I0
sg357
I0
sg60
I3
sg61
I0
sg62
I0
sg63
(S'dummy'
p3108
S'AR'
p3109
S'CE'
p3110
S'AI'
p3111
tp3112
sg68
I00
sg69
g36
(g37
g38
Ntp3113
Rp3114
(dp3115
g42
I5
sg43
S'**'
p3116
sg45
g3101
sbsg70
(dp3117
g3103
I0
sg3104
I7
sg3105
I0
sg3106
I15
ssg59
I01
sg78
(dp3118
g3103
I0
sg3104
I0
sg3105
I0
sg3106
I0
ssg80
(dp3119
g3103
I0
sg3104
I7
sg3105
I0
sg3106
I15
ssg82
I0
sg83
I0
sg84
S'Hrgoth'
p3120
sg86
I7
sg87
I0
sg88
I17
sg89
I100
sg90
S'TLB'
p3121
sg92
(dp3122
S'A'
p3123
I11
sS'ME'
p3124
I4
sS'RP2'
p3125
I10
sS'E'
p3126
I13
sS'TO'
p3127
I7
sS'RP1'
p3128
I9
sS'JP'
p3129
I7
sS'RP_tot'
p3130
I12
sS'P'
p3131
I9
sS'PA'
p3132
I10
sS'M'
p3133
I9
sS'R'
p3134
I10
sS'TB'
p3135
I8
sS'PL'
p3136
I13
sS'TA'
p3137
I6
ssg201
I0
sg202
I0
sg203
I0
sg204
I0
sg76
(dp3138
g3103
I1
sg3104
I0
sg3105
I0
sg3106
I0
ssg206
I0
sg474
I0
sg207
I0
sg208
I0
sg209
(dp3139
S'A'
p3140
I11
sS'ME'
p3141
I4
sS'RP2'
p3142
I10
sS'E'
p3143
I13
sS'TO'
p3144
I7
sS'RP1'
p3145
I9
sS'JP'
p3146
I7
sS'RP_tot'
p3147
I12
sS'P'
p3148
I9
sS'PA'
p3149
I10
sS'M'
p3150
I9
sS'R'
p3151
I10
sS'TB'
p3152
I8
sS'PL'
p3153
I13
sS'TA'
p3154
I6
ssg226
g3122
sg227
I0
sg228
g31
sg229
I0
sg230
I0
sg231
I0
sg232
I10
sg233
I3
sg234
I0
sg235
S'HB'
p3155
sbssg201
I3
sg202
I0
sg203
I0
sg204
I0
sg205
F10.727272727272727
sg206
I0
sg474
I0
sg207
I0
sg208
I0
sg209
(dp3156
S'A'
p3157
I11
sS'ME'
p3158
I4
sS'RP2'
p3159
I10
sS'E'
p3160
I13
sS'P'
p3161
I9
sS'RP1'
p3162
I9
sS'JP'
p3163
I7
sS'RP_tot'
p3164
I12
sS'TO'
p3165
I7
sS'PA'
p3166
I10
sS'M'
p3167
I9
sS'R'
p3168
I10
sS'TB'
p3169
I8
sS'PL'
p3170
I13
sS'TA'
p3171
I6
ssg226
g3077
sg227
I0
sg228
g31
sg229
I0
sg230
I0
sg231
I0
sg232
I10
sg233
I4
sg234
I0
sg235
S'HB'
p3172
sbsS's11'
p3173
(ijoueur
joueur
p3174
(dp3175
g28
I0
sg32
I0
sg34
I0
sg35
g36
(g37
g38
Ntp3176
Rp3177
(dp3178
g42
I5
sg43
S'**'
p3179
sg45
S'seigneur'
p3180
sbsg47
(dp3181
S'SR'
p3182
I1
sS'ST'
p3183
I0
sS'CR'
p3184
I0
sS'CT'
p3185
I0
ssg53
(dp3186
g3182
I0
sg3183
I0
sg3184
I0
sg3185
I0
ssg56
I0
sg205
F11.030303030303031
sg57
I0
sg356
I0
sg357
I0
sg60
I3
sg61
I0
sg62
I0
sg63
(S'dummy'
p3187
S'AR'
p3188
S'CE'
p3189
S'AI'
p3190
tp3191
sg68
I00
sg69
g36
(g37
g38
Ntp3192
Rp3193
(dp3194
g42
I5
sg43
S'**'
p3195
sg45
g3180
sbsg70
(dp3196
g3182
I0
sg3183
I7
sg3184
I0
sg3185
I15
ssg59
I01
sg78
(dp3197
g3182
I0
sg3183
I0
sg3184
I0
sg3185
I0
ssg80
(dp3198
g3182
I0
sg3183
I7
sg3184
I0
sg3185
I15
ssg82
I0
sg83
I0
sg84
S'Hrgoth'
p3199
sg86
I7
sg87
I0
sg88
I17
sg89
I100
sg90
S'TLB'
p3200
sg92
(dp3201
S'A'
p3202
I11
sS'ME'
p3203
I4
sS'RP2'
p3204
I10
sS'E'
p3205
I13
sS'TO'
p3206
I7
sS'RP1'
p3207
I9
sS'JP'
p3208
I7
sS'RP_tot'
p3209
I12
sS'P'
p3210
I9
sS'PA'
p3211
I10
sS'M'
p3212
I9
sS'R'
p3213
I10
sS'TB'
p3214
I8
sS'PL'
p3215
I13
sS'TA'
p3216
I6
ssg201
I0
sg202
I0
sg203
I0
sg204
I0
sg76
(dp3217
g3182
I1
sg3183
I0
sg3184
I0
sg3185
I0
ssg206
I0
sg474
I0
sg207
I0
sg208
I0
sg209
(dp3218
S'A'
p3219
I11
sS'ME'
p3220
I4
sS'RP2'
p3221
I10
sS'E'
p3222
I13
sS'TO'
p3223
I7
sS'RP1'
p3224
I9
sS'JP'
p3225
I7
sS'RP_tot'
p3226
I12
sS'P'
p3227
I9
sS'PA'
p3228
I10
sS'M'
p3229
I9
sS'R'
p3230
I10
sS'TB'
p3231
I8
sS'PL'
p3232
I13
sS'TA'
p3233
I6
ssg226
g3201
sg227
I0
sg228
g31
sg229
I0
sg230
I0
sg231
I0
sg232
I10
sg233
I3
sg234
I0
sg235
S'HB'
p3234
sbssg201
I11
sg202
I0
sg203
I0
sg204
I0
sg205
F10.575757575757576
sg206
I0
sg58
F201.6032723307141
sg474
I0
sg207
I0
sg208
I1
sg209
(dp3235
S'A'
p3236
I11
sS'ME'
p3237
I4
sS'RP2'
p3238
I10
sS'E'
p3239
I13
sS'P'
p3240
I9
sS'RP1'
p3241
I9
sS'JP'
p3242
I7
sS'RP_tot'
p3243
I12
sS'TO'
p3244
I7
sS'PA'
p3245
I10
sS'M'
p3246
I9
sS'R'
p3247
I10
sS'TB'
p3248
I8
sS'PL'
p3249
I13
sS'TA'
p3250
I6
ssg226
(dp3251
g3028
I11
sg3029
I4
sg3030
I10
sg3031
I13
sg3036
I8
sg3033
I9
sg3034
I6
sg3035
I11
sg3032
I7
sg3037
I8
sg3038
I9
sg3039
I10
sg3040
I8
sg3041
I13
sg3042
I6
ssg227
I1
sg333
(dp3252
sg229
I0
sg228
g31
sg230
I0
sg231
I0
sg232
I10
sg233
I8
sg234
I1
sg235
S'HB'
p3253
sbsS'n16'
p3254
(ijoueur
joueur
p3255
(dp3256
g27
F10.689655172413794
sg28
I0
sg29
F10.793103448275861
sg30
g31
sg32
I0
sg33
F227.1452598856465
sg34
I0
sg35
g36
(g37
g38
Ntp3257
Rp3258
(dp3259
g42
I5
sg43
S'**'
p3260
sg45
S'seigneur'
p3261
sbsg47
(dp3262
S'SR'
p3263
I0
sS'CT'
p3264
I0
sS'CR'
p3265
I0
sS'ST'
p3266
I0
ssg53
(dp3267
g3263
I0
sg3264
I0
sg3265
I0
sg3266
I0
ssg55
I0
sg56
I0
sg205
F10.793103448275861
sg57
I0
sg58
F227.1452598856465
sg60
I0
sg61
I0
sg62
I0
sg63
(S'dummy'
p3268
S'TA'
p3269
g31
g31
tp3270
sg68
I00
sg69
g36
(g37
g38
Ntp3271
Rp3272
(dp3273
g42
I5
sg43
S'**'
p3274
sg45
g3261
sbsg70
(dp3275
S'SR'
p3276
I5
sS'CT'
p3277
I14
sS'CR'
p3278
I1
sS'ST'
p3279
I0
ssg59
I00
sg78
(dp3280
g3276
I0
sg3277
I0
sg3278
I0
sg3279
I0
ssg80
(dp3281
g3263
I19
sg3264
I43
sg3265
I1
sg3266
I1
ssg82
I0
sg83
I0
sg84
S'Uurghizul'
p3282
sg86
I6
sg87
I0
sg88
I15
sg89
I120
sg90
S'HTH'
p3283
sg92
(dp3284
S'A'
p3285
I12
sS'ME'
p3286
I12
sS'RP2'
p3287
I7
sS'E'
p3288
I11
sS'TO'
p3289
I8
sS'RP1'
p3290
I9
sS'JP'
p3291
I2
sS'RP_tot'
p3292
I9
sS'P'
p3293
I3
sS'PA'
p3294
I8
sS'M'
p3295
I7
sS'R'
p3296
I13
sS'TB'
p3297
I1
sS'PL'
p3298
I9
sS'TA'
p3299
I11
ssg109
(dp3300
S's12'
p3301
(ijoueur
joueur
p3302
(dp3303
g27
F10.689655172413794
sg28
I0
sg30
g31
sg32
I0
sg34
I0
sg35
g36
(g37
g38
Ntp3304
Rp3305
(dp3306
g42
I5
sg43
S'**'
p3307
sg45
S'seigneur'
p3308
sbsg47
(dp3309
S'SR'
p3310
I0
sS'CT'
p3311
I0
sS'CR'
p3312
I0
sS'ST'
p3313
I0
ssg53
(dp3314
g3310
I0
sg3311
I0
sg3312
I0
sg3313
I0
ssg56
I0
sg57
I0
sg59
I00
sg60
I2
sg61
I0
sg62
I0
sg63
(S'dummy'
p3315
S'TA'
p3316
g31
g31
tp3317
sg68
I00
sg69
g36
(g37
g38
Ntp3318
Rp3319
(dp3320
g42
I5
sg43
S'**'
p3321
sg45
g3308
sbsg70
(dp3322
S'SR'
p3323
I5
sS'CT'
p3324
I14
sS'CR'
p3325
I0
sS'ST'
p3326
I1
ssg76
(dp3327
g3323
I0
sg3324
I0
sg3325
I0
sg3326
I0
ssg78
(dp3328
g3323
I0
sg3324
I0
sg3325
I0
sg3326
I0
ssg80
(dp3329
g3310
I13
sg3311
I29
sg3312
I0
sg3313
I1
ssg82
I0
sg83
I0
sg84
S'Uurghizul'
p3330
sg86
I6
sg87
I0
sg88
I15
sg89
I120
sg90
S'HTH'
p3331
sg92
(dp3332
S'A'
p3333
I12
sS'ME'
p3334
I12
sS'RP2'
p3335
I7
sS'E'
p3336
I11
sS'P'
p3337
I3
sS'RP1'
p3338
I9
sS'JP'
p3339
I2
sS'RP_tot'
p3340
I9
sS'TO'
p3341
I8
sS'PA'
p3342
I8
sS'M'
p3343
I7
sS'R'
p3344
I13
sS'TB'
p3345
I1
sS'PL'
p3346
I9
sS'TA'
p3347
I11
ssg109
(dp3348
S's11'
p3349
(ijoueur
joueur
p3350
(dp3351
g28
I0
sg32
I0
sg34
I0
sg35
g36
(g37
g38
Ntp3352
Rp3353
(dp3354
g42
I5
sg43
S'**'
p3355
sg45
S'seigneur'
p3356
sbsg47
(dp3357
S'SR'
p3358
I0
sS'CT'
p3359
I0
sS'CR'
p3360
I0
sS'ST'
p3361
I0
ssg53
(dp3362
g3358
I0
sg3359
I0
sg3360
I0
sg3361
I0
ssg56
I0
sg57
I0
sg59
I00
sg60
I1
sg61
I0
sg62
I0
sg63
(S'dummy'
p3363
S'TA'
p3364
g31
g31
tp3365
sg68
I00
sg69
g36
(g37
g38
Ntp3366
Rp3367
(dp3368
g42
I5
sg43
S'**'
p3369
sg45
g3356
sbsg70
(dp3370
g3358
I7
sg3359
I15
sg3360
I0
sg3361
I0
ssg76
(dp3371
g3358
I0
sg3359
I0
sg3360
I0
sg3361
I0
ssg78
(dp3372
g3358
I0
sg3359
I0
sg3360
I0
sg3361
I0
ssg80
(dp3373
g3358
I7
sg3359
I15
sg3360
I0
sg3361
I0
ssg82
I0
sg83
I0
sg84
S'Uurghizul'
p3374
sg86
I6
sg87
I0
sg88
I15
sg89
I120
sg90
S'HTH'
p3375
sg92
(dp3376
S'A'
p3377
I11
sS'ME'
p3378
I11
sS'RP2'
p3379
I7
sS'E'
p3380
I11
sS'P'
p3381
I3
sS'RP1'
p3382
I9
sS'JP'
p3383
I2
sS'RP_tot'
p3384
I9
sS'TO'
p3385
I8
sS'PA'
p3386
I8
sS'M'
p3387
I7
sS'R'
p3388
I12
sS'TB'
p3389
I1
sS'PL'
p3390
I10
sS'TA'
p3391
I12
ssg201
I0
sg202
I0
sg203
I1
sg204
I0
sg205
F10.689655172413794
sg206
I0
sg207
I1
sg208
I1
sg209
(dp3392
S'A'
p3393
I11
sS'ME'
p3394
I11
sS'RP2'
p3395
I7
sS'E'
p3396
I11
sS'P'
p3397
I3
sS'RP1'
p3398
I9
sS'JP'
p3399
I2
sS'RP_tot'
p3400
I9
sS'TO'
p3401
I8
sS'PA'
p3402
I8
sS'M'
p3403
I7
sS'R'
p3404
I12
sS'TB'
p3405
I1
sS'PL'
p3406
I10
sS'TA'
p3407
I12
ssg226
g3376
sg227
I0
sg228
g31
sg229
I0
sg230
I0
sg231
I0
sg232
I12
sg233
I9
sg234
I1
sg235
S'HB'
p3408
sbssg201
I2
sg202
I0
sg203
I1
sg204
I0
sg205
F10.793103448275861
sg206
I0
sg207
I0
sg208
I1
sg209
(dp3409
S'A'
p3410
I11
sS'ME'
p3411
I11
sS'RP2'
p3412
I7
sS'E'
p3413
I11
sS'TO'
p3414
I8
sS'RP1'
p3415
I9
sS'JP'
p3416
I2
sS'RP_tot'
p3417
I9
sS'P'
p3418
I3
sS'PA'
p3419
I8
sS'M'
p3420
I7
sS'R'
p3421
I12
sS'TB'
p3422
I1
sS'PL'
p3423
I10
sS'TA'
p3424
I12
ssg226
g3332
sg227
I0
sg228
g31
sg229
I0
sg230
I0
sg231
I0
sg232
I12
sg233
I11
sg234
I0
sg235
S'HB'
p3425
sbsS's11'
p3426
(ijoueur
joueur
p3427
(dp3428
g28
I0
sg32
I0
sg34
I0
sg35
g36
(g37
g38
Ntp3429
Rp3430
(dp3431
g42
I5
sg43
S'**'
p3432
sg45
S'seigneur'
p3433
sbsg47
(dp3434
S'SR'
p3435
I0
sS'CT'
p3436
I0
sS'CR'
p3437
I0
sS'ST'
p3438
I0
ssg53
(dp3439
g3435
I0
sg3436
I0
sg3437
I0
sg3438
I0
ssg56
I0
sg57
I0
sg59
I00
sg60
I1
sg61
I0
sg62
I0
sg63
(S'dummy'
p3440
S'TA'
p3441
g31
g31
tp3442
sg68
I00
sg69
g36
(g37
g38
Ntp3443
Rp3444
(dp3445
g42
I5
sg43
S'**'
p3446
sg45
g3433
sbsg70
(dp3447
g3435
I7
sg3436
I15
sg3437
I0
sg3438
I0
ssg76
(dp3448
g3435
I0
sg3436
I0
sg3437
I0
sg3438
I0
ssg78
(dp3449
g3435
I0
sg3436
I0
sg3437
I0
sg3438
I0
ssg80
(dp3450
g3435
I7
sg3436
I15
sg3437
I0
sg3438
I0
ssg82
I0
sg83
I0
sg84
S'Uurghizul'
p3451
sg86
I6
sg87
I0
sg88
I15
sg89
I120
sg90
S'HTH'
p3452
sg92
(dp3453
S'A'
p3454
I11
sS'ME'
p3455
I11
sS'RP2'
p3456
I7
sS'E'
p3457
I11
sS'P'
p3458
I3
sS'RP1'
p3459
I9
sS'JP'
p3460
I2
sS'RP_tot'
p3461
I9
sS'TO'
p3462
I8
sS'PA'
p3463
I8
sS'M'
p3464
I7
sS'R'
p3465
I12
sS'TB'
p3466
I1
sS'PL'
p3467
I10
sS'TA'
p3468
I12
ssg201
I0
sg202
I0
sg203
I1
sg204
I0
sg205
F10.689655172413794
sg206
I0
sg207
I1
sg208
I1
sg209
(dp3469
S'A'
p3470
I11
sS'ME'
p3471
I11
sS'RP2'
p3472
I7
sS'E'
p3473
I11
sS'P'
p3474
I3
sS'RP1'
p3475
I9
sS'JP'
p3476
I2
sS'RP_tot'
p3477
I9
sS'TO'
p3478
I8
sS'PA'
p3479
I8
sS'M'
p3480
I7
sS'R'
p3481
I12
sS'TB'
p3482
I1
sS'PL'
p3483
I10
sS'TA'
p3484
I12
ssg226
g3453
sg227
I0
sg228
g31
sg229
I0
sg230
I0
sg231
I0
sg232
I12
sg233
I9
sg234
I1
sg235
S'HB'
p3485
sbssg201
I6
sg202
I0
sg203
I1
sg204
I0
sg76
(dp3486
g3276
I0
sg3277
I0
sg3278
I0
sg3279
I0
ssg206
I0
sg207
I0
sg208
I1
sg209
(dp3487
S'A'
p3488
I11
sS'ME'
p3489
I11
sS'RP2'
p3490
I7
sS'E'
p3491
I11
sS'TO'
p3492
I8
sS'RP1'
p3493
I9
sS'JP'
p3494
I2
sS'RP_tot'
p3495
I9
sS'P'
p3496
I3
sS'PA'
p3497
I8
sS'M'
p3498
I7
sS'R'
p3499
I12
sS'TB'
p3500
I1
sS'PL'
p3501
I10
sS'TA'
p3502
I12
ssg226
(dp3503
g3285
I12
sg3286
I12
sg3287
I7
sg3288
I11
sg3293
I3
sg3290
I9
sg3291
I2
sg3292
I9
sg3289
I8
sg3294
I8
sg3295
I7
sg3296
I13
sg3297
I1
sg3298
I9
sg3299
I11
ssg227
I0
sg333
(dp3504
sg229
I0
sg228
g31
sg230
I0
sg231
I0
sg232
I12
sg233
I11
sg234
I0
sg235
S'HB'
p3505
sbsS'n17'
p3506
(ijoueur
joueur
p3507
(dp3508
g27
F8.037037037037036
sg28
I1
sg29
F10.296296296296296
sg30
g31
sg32
I0
sg33
F156.53743004008254
sg34
I0
sg35
g36
(g37
g38
Ntp3509
Rp3510
(dp3511
g42
I4
sg43
S'*'
p3512
sg45
S'heros'
p3513
sbsg47
(dp3514
S'SR'
p3515
I0
sS'CT'
p3516
I0
sS'CR'
p3517
I0
sS'ST'
p3518
I0
ssg53
(dp3519
g3515
I0
sg3516
I0
sg3517
I0
sg3518
I0
ssg55
I0
sg56
I0
sg205
F10.814814814814815
sg57
I0
sg356
I0
sg357
I0
sg60
I3
sg61
I0
sg62
I0
sg63
(S'dummy'
p3520
S'PI'
p3521
g31
g31
tp3522
sg68
I00
sg69
g3510
sg70
(dp3523
S'SR'
p3524
I2
sS'CT'
p3525
I12
sS'CR'
p3526
I0
sS'ST'
p3527
I0
ssg59
I00
sg78
(dp3528
g3524
I0
sg3525
I0
sg3526
I0
sg3527
I0
ssg80
(dp3529
g3515
I3
sg3516
I25
sg3517
I6
sg3518
I0
ssg82
I0
sg83
I0
sg84
S'Pkotr'
p3530
sg86
I10
sg87
I0
sg88
I20
sg89
I100
sg90
S'TLB'
p3531
sg92
(dp3532
S'A'
p3533
I8
sS'ME'
p3534
I11
sS'RP2'
p3535
I8
sS'E'
p3536
I12
sS'TO'
p3537
I6
sS'RP1'
p3538
I13
sS'JP'
p3539
I6
sS'RP_tot'
p3540
I14
sS'P'
p3541
I6
sS'PA'
p3542
I8
sS'M'
p3543
I13
sS'R'
p3544
I10
sS'TB'
p3545
I7
sS'PL'
p3546
I9
sS'TA'
p3547
I8
ssg109
(dp3548
S's12'
p3549
(ijoueur
joueur
p3550
(dp3551
g27
F8.037037037037036
sg28
I0
sg30
g31
sg32
I0
sg34
I0
sg35
g36
(g37
g38
Ntp3552
Rp3553
(dp3554
g42
I4
sg43
S'*'
p3555
sg45
S'heros'
p3556
sbsg47
(dp3557
S'SR'
p3558
I0
sS'CT'
p3559
I0
sS'CR'
p3560
I0
sS'ST'
p3561
I0
ssg53
(dp3562
g3558
I0
sg3559
I0
sg3560
I0
sg3561
I0
ssg56
I0
sg57
I0
sg356
I0
sg357
I0
sg59
I00
sg60
I1
sg61
I0
sg62
I0
sg63
(S'dummy'
p3563
S'PI'
p3564
g31
g31
tp3565
sg68
I00
sg69
g36
(g37
g38
Ntp3566
Rp3567
(dp3568
g42
I3
sg43
S'<<<'
p3569
sg45
S'rare'
p3570
sbsg70
(dp3571
S'SR'
p3572
I0
sS'CT'
p3573
I12
sS'CR'
p3574
I0
sS'ST'
p3575
I0
ssg76
(dp3576
g3572
I0
sg3573
I0
sg3574
I0
sg3575
I0
ssg78
(dp3577
g3572
I0
sg3573
I0
sg3574
I0
sg3575
I0
ssg80
(dp3578
g3558
I0
sg3559
I13
sg3560
I6
sg3561
I0
ssg82
I0
sg83
I0
sg84
S'Pkotr'
p3579
sg86
I10
sg87
I0
sg88
I20
sg89
I100
sg90
S'TLB'
p3580
sg92
(dp3581
S'A'
p3582
I6
sS'ME'
p3583
I11
sS'RP2'
p3584
I8
sS'E'
p3585
I12
sS'P'
p3586
I2
sS'RP1'
p3587
I13
sS'JP'
p3588
I2
sS'RP_tot'
p3589
I14
sS'TO'
p3590
I4
sS'PA'
p3591
I6
sS'M'
p3592
I13
sS'R'
p3593
I10
sS'TB'
p3594
I3
sS'PL'
p3595
I7
sS'TA'
p3596
I8
ssg109
(dp3597
S's11'
p3598
(ijoueur
joueur
p3599
(dp3600
g28
I0
sg32
I0
sg34
I0
sg35
g36
(g37
g38
Ntp3601
Rp3602
(dp3603
g42
I4
sg43
S'*'
p3604
sg45
S'heros'
p3605
sbsg47
(dp3606
S'SR'
p3607
I0
sS'ST'
p3608
I0
sS'CR'
p3609
I0
sS'CT'
p3610
I0
ssg53
(dp3611
g3607
I0
sg3608
I0
sg3609
I0
sg3610
I0
ssg56
I0
sg205
F8.037037037037036
sg57
I0
sg356
I0
sg357
I0
sg60
I0
sg61
I0
sg62
I0
sg63
(S'dummy'
p3612
S'PI'
p3613
g31
g31
tp3614
sg68
I00
sg69
g36
(g37
g38
Ntp3615
Rp3616
(dp3617
g42
I2
sg43
S'^^'
p3618
sg45
S'special'
p3619
sbsg70
(dp3620
g3607
I0
sg3608
I0
sg3609
I6
sg3610
I1
ssg59
I01
sg78
(dp3621
g3607
I0
sg3608
I0
sg3609
I0
sg3610
I0
ssg80
(dp3622
g3607
I0
sg3608
I0
sg3609
I6
sg3610
I1
ssg82
I0
sg83
I0
sg84
S'Pkotr'
p3623
sg86
I10
sg87
I0
sg88
I20
sg89
I8
sg90
S'TLB'
p3624
sg92
(dp3625
S'A'
p3626
I6
sS'ME'
p3627
I9
sS'RP2'
p3628
I7
sS'E'
p3629
I9
sS'TO'
p3630
I4
sS'RP1'
p3631
I8
sS'JP'
p3632
I2
sS'RP_tot'
p3633
I8
sS'P'
p3634
I2
sS'PA'
p3635
I6
sS'M'
p3636
I10
sS'R'
p3637
I8
sS'TB'
p3638
I3
sS'PL'
p3639
I7
sS'TA'
p3640
I5
ssg201
I0
sg202
I0
sg203
I1
sg204
I0
sg76
(dp3641
g3607
I0
sg3608
I0
sg3609
I0
sg3610
I0
ssg206
I0
sg474
I0
sg207
I1
sg208
I0
sg209
(dp3642
S'A'
p3643
I6
sS'ME'
p3644
I9
sS'RP2'
p3645
I7
sS'E'
p3646
I9
sS'TO'
p3647
I4
sS'RP1'
p3648
I8
sS'JP'
p3649
I2
sS'RP_tot'
p3650
I8
sS'P'
p3651
I2
sS'PA'
p3652
I6
sS'M'
p3653
I10
sS'R'
p3654
I8
sS'TB'
p3655
I3
sS'PL'
p3656
I7
sS'TA'
p3657
I5
ssg226
g3625
sg227
I0
sg228
g31
sg229
I0
sg230
I0
sg231
I0
sg232
I1
sg233
I0
sg234
I0
sg235
S'HB'
p3658
sbssg201
I0
sg202
I0
sg203
I1
sg204
I0
sg205
F10.296296296296296
sg206
I0
sg474
I0
sg207
I0
sg208
I0
sg209
(dp3659
S'A'
p3660
I6
sS'ME'
p3661
I9
sS'RP2'
p3662
I7
sS'E'
p3663
I9
sS'P'
p3664
I2
sS'RP1'
p3665
I8
sS'JP'
p3666
I2
sS'RP_tot'
p3667
I8
sS'TO'
p3668
I4
sS'PA'
p3669
I6
sS'M'
p3670
I10
sS'R'
p3671
I8
sS'TB'
p3672
I3
sS'PL'
p3673
I7
sS'TA'
p3674
I5
ssg226
g3581
sg227
I0
sg228
g31
sg229
I0
sg230
I0
sg231
I0
sg232
I10
sg233
I1
sg234
I0
sg235
S'HB'
p3675
sbsS's11'
p3676
(ijoueur
joueur
p3677
(dp3678
g28
I0
sg32
I0
sg34
I0
sg35
g36
(g37
g38
Ntp3679
Rp3680
(dp3681
g42
I4
sg43
S'*'
p3682
sg45
S'heros'
p3683
sbsg47
(dp3684
S'SR'
p3685
I0
sS'ST'
p3686
I0
sS'CR'
p3687
I0
sS'CT'
p3688
I0
ssg53
(dp3689
g3685
I0
sg3686
I0
sg3687
I0
sg3688
I0
ssg56
I0
sg205
F8.037037037037036
sg57
I0
sg356
I0
sg357
I0
sg60
I0
sg61
I0
sg62
I0
sg63
(S'dummy'
p3690
S'PI'
p3691
g31
g31
tp3692
sg68
I00
sg69
g36
(g37
g38
Ntp3693
Rp3694
(dp3695
g42
I2
sg43
S'^^'
p3696
sg45
S'special'
p3697
sbsg70
(dp3698
g3685
I0
sg3686
I0
sg3687
I6
sg3688
I1
ssg59
I01
sg78
(dp3699
g3685
I0
sg3686
I0
sg3687
I0
sg3688
I0
ssg80
(dp3700
g3685
I0
sg3686
I0
sg3687
I6
sg3688
I1
ssg82
I0
sg83
I0
sg84
S'Pkotr'
p3701
sg86
I10
sg87
I0
sg88
I20
sg89
I8
sg90
S'TLB'
p3702
sg92
(dp3703
S'A'
p3704
I6
sS'ME'
p3705
I9
sS'RP2'
p3706
I7
sS'E'
p3707
I9
sS'TO'
p3708
I4
sS'RP1'
p3709
I8
sS'JP'
p3710
I2
sS'RP_tot'
p3711
I8
sS'P'
p3712
I2
sS'PA'
p3713
I6
sS'M'
p3714
I10
sS'R'
p3715
I8
sS'TB'
p3716
I3
sS'PL'
p3717
I7
sS'TA'
p3718
I5
ssg201
I0
sg202
I0
sg203
I1
sg204
I0
sg76
(dp3719
g3685
I0
sg3686
I0
sg3687
I0
sg3688
I0
ssg206
I0
sg474
I0
sg207
I1
sg208
I0
sg209
(dp3720
S'A'
p3721
I6
sS'ME'
p3722
I9
sS'RP2'
p3723
I7
sS'E'
p3724
I9
sS'TO'
p3725
I4
sS'RP1'
p3726
I8
sS'JP'
p3727
I2
sS'RP_tot'
p3728
I8
sS'P'
p3729
I2
sS'PA'
p3730
I6
sS'M'
p3731
I10
sS'R'
p3732
I8
sS'TB'
p3733
I3
sS'PL'
p3734
I7
sS'TA'
p3735
I5
ssg226
g3703
sg227
I0
sg228
g31
sg229
I0
sg230
I0
sg231
I0
sg232
I1
sg233
I0
sg234
I0
sg235
S'HB'
p3736
sbssg201
I2
sg202
I0
sg203
I1
sg204
I0
sg76
(dp3737
g3524
I0
sg3525
I0
sg3526
I0
sg3527
I0
ssg206
I0
sg58
F156.53743004008254
sg474
I0
sg207
I0
sg208
I0
sg209
(dp3738
S'A'
p3739
I6
sS'ME'
p3740
I9
sS'RP2'
p3741
I7
sS'E'
p3742
I9
sS'P'
p3743
I2
sS'RP1'
p3744
I8
sS'JP'
p3745
I2
sS'RP_tot'
p3746
I8
sS'TO'
p3747
I4
sS'PA'
p3748
I6
sS'M'
p3749
I10
sS'R'
p3750
I8
sS'TB'
p3751
I3
sS'PL'
p3752
I7
sS'TA'
p3753
I5
ssg226
(dp3754
g3533
I8
sg3534
I11
sg3535
I8
sg3536
I12
sg3541
I6
sg3538
I13
sg3539
I6
sg3540
I14
sg3537
I6
sg3542
I8
sg3543
I13
sg3544
I10
sg3545
I7
sg3546
I9
sg3547
I8
ssg227
I1
sg333
(dp3755
sg229
I0
sg228
g31
sg230
I0
sg231
I0
sg232
I10
sg233
I4
sg234
I0
sg235
S'HB'
p3756
sbsS'n14'
p3757
g2058
sS'n15'
p3758
g1380
sS'n18'
p3759
(ijoueur
joueur
p3760
(dp3761
g27
F9.5
sg28
I0
sg29
F10.35483870967742
sg30
g31
sg32
I0
sg33
F222.70797908934867
sg34
I0
sg35
g36
(g37
g38
Ntp3762
Rp3763
(dp3764
g42
I5
sg43
S'xx'
p3765
sg45
S'seigneur'
p3766
sbsg47
(dp3767
S'SR'
p3768
I4
sS'ST'
p3769
I1
sS'CR'
p3770
I1
sS'CT'
p3771
I13
ssg53
(dp3772
g3768
I0
sg3769
I0
sg3770
I4
sg3771
I1
ssg55
I0
sg56
I0
sg57
I0
sg356
I0
sg357
I0
sg59
I00
sg60
I1
sg61
I0
sg62
I0
sg63
(S'dummy'
p3773
S'TL'
p3774
S'DL'
p3775
S'N8'
p3776
tp3777
sg68
I00
sg69
g3763
sg70
(dp3778
S'SR'
p3779
I0
sS'CT'
p3780
I0
sS'CR'
p3781
I0
sS'ST'
p3782
I0
ssg76
(dp3783
g3779
I3
sg3780
I13
sg3781
I1
sg3782
I1
ssg78
(dp3784
g3779
I0
sg3780
I1
sg3781
I1
sg3782
I0
ssg80
(dp3785
g3768
I0
sg3769
I0
sg3770
I3
sg3771
I22
ssg82
I0
sg83
I0
sg84
S'Zhdavr'
p3786
sg86
I8
sg87
I0
sg88
I24
sg89
I389
sg90
S'KHR'
p3787
sg92
(dp3788
S'A'
p3789
I11
sS'ME'
p3790
I12
sS'RP2'
p3791
I7
sS'E'
p3792
I9
sS'P'
p3793
I6
sS'RP1'
p3794
I12
sS'JP'
p3795
I4
sS'RP_tot'
p3796
I12
sS'TO'
p3797
I10
sS'PA'
p3798
I10
sS'M'
p3799
I13
sS'R'
p3800
I8
sS'TB'
p3801
I4
sS'PL'
p3802
I14
sS'TA'
p3803
I9
ssg109
(dp3804
S's12'
p3805
(ijoueur
joueur
p3806
(dp3807
g27
F9.5
sg28
I0
sg30
g31
sg32
I0
sg34
I0
sg35
g36
(g37
g38
Ntp3808
Rp3809
(dp3810
g42
I5
sg43
S'xx'
p3811
sg45
S'seigneur'
p3812
sbsg47
(dp3813
S'SR'
p3814
I0
sS'ST'
p3815
I0
sS'CR'
p3816
I0
sS'CT'
p3817
I0
ssg53
(dp3818
g3814
I0
sg3815
I0
sg3816
I3
sg3817
I0
ssg76
(dp3819
S'SR'
p3820
I0
sS'ST'
p3821
I0
sS'CR'
p3822
I0
sS'CT'
p3823
I0
ssg56
I0
sg57
I0
sg356
I0
sg357
I0
sg60
I0
sg61
I0
sg62
I0
sg63
(S'dummy'
p3824
S'TL'
p3825
S'DL'
p3826
S'N8'
p3827
tp3828
sg68
I01
sg69
g3809
sg70
(dp3829
g3820
I0
sg3821
I0
sg3822
I0
sg3823
I14
ssg59
I00
sg78
(dp3830
g3820
I0
sg3821
I0
sg3822
I0
sg3823
I0
ssg80
(dp3831
g3814
I0
sg3815
I0
sg3816
I3
sg3817
I22
ssg82
I0
sg83
I0
sg84
S'Zhdavr (12)'
p3832
sg86
I8
sg87
I0
sg88
I24
sg89
I173
sg90
S'DKW'
p3833
sg92
(dp3834
S'A'
p3835
I11
sS'ME'
p3836
I11
sS'RP2'
p3837
I7
sS'E'
p3838
I9
sS'TO'
p3839
I10
sS'RP1'
p3840
I11
sS'JP'
p3841
I4
sS'RP_tot'
p3842
I11
sS'P'
p3843
I6
sS'PA'
p3844
I10
sS'M'
p3845
I13
sS'R'
p3846
I8
sS'TB'
p3847
I4
sS'PL'
p3848
I13
sS'TA'
p3849
I9
ssg109
(dp3850
S's11'
p3851
(ijoueur
joueur
p3852
(dp3853
g28
I0
sg32
I0
sg34
I0
sg35
g36
(g37
g38
Ntp3854
Rp3855
(dp3856
g42
I5
sg43
S'xx'
p3857
sg45
S'seigneur'
p3858
sbsg47
(dp3859
S'SR'
p3860
I0
sS'CT'
p3861
I0
sS'CR'
p3862
I0
sS'ST'
p3863
I0
ssg53
(dp3864
g3860
I0
sg3861
I0
sg3862
I3
sg3863
I0
ssg56
I0
sg205
F9.5
sg57
I0
sg356
I0
sg357
I0
sg60
I0
sg61
I0
sg62
I0
sg63
(S'dummy'
p3865
S'TL'
p3866
S'DL'
p3867
S'N8'
p3868
tp3869
sg68
I00
sg69
g36
(g37
g38
Ntp3870
Rp3871
(dp3872
g42
I4
sg43
S'*'
p3873
sg45
S'heros'
p3874
sbsg70
(dp3875
g3860
I0
sg3861
I8
sg3862
I3
sg3863
I0
ssg59
I00
sg78
(dp3876
g3860
I0
sg3861
I0
sg3862
I3
sg3863
I0
ssg80
(dp3877
g3860
I0
sg3861
I8
sg3862
I3
sg3863
I0
ssg82
I0
sg83
I0
sg84
S'Zhdavr'
p3878
sg86
I8
sg87
I0
sg88
I24
sg89
I83
sg90
S'DKW'
p3879
sg92
(dp3880
S'A'
p3881
I10
sS'ME'
p3882
I9
sS'RP2'
p3883
I7
sS'E'
p3884
I9
sS'P'
p3885
I6
sS'RP1'
p3886
I9
sS'JP'
p3887
I4
sS'RP_tot'
p3888
I9
sS'TO'
p3889
I10
sS'PA'
p3890
I10
sS'M'
p3891
I10
sS'R'
p3892
I7
sS'TB'
p3893
I4
sS'PL'
p3894
I13
sS'TA'
p3895
I7
ssg201
I0
sg202
I0
sg203
I0
sg204
I0
sg76
(dp3896
g3860
I0
sg3861
I0
sg3862
I0
sg3863
I0
ssg206
I0
sg474
I0
sg207
I0
sg208
I0
sg209
(dp3897
S'A'
p3898
I10
sS'ME'
p3899
I9
sS'RP2'
p3900
I7
sS'E'
p3901
I9
sS'P'
p3902
I6
sS'RP1'
p3903
I9
sS'JP'
p3904
I4
sS'RP_tot'
p3905
I9
sS'TO'
p3906
I10
sS'PA'
p3907
I10
sS'M'
p3908
I10
sS'R'
p3909
I7
sS'TB'
p3910
I4
sS'PL'
p3911
I13
sS'TA'
p3912
I7
ssg226
g3880
sg227
I0
sg228
g31
sg229
I0
sg230
I0
sg231
I0
sg232
I9
sg233
I0
sg234
I0
sg235
S'HB'
p3913
sbssg201
I0
sg202
I0
sg203
I0
sg204
I0
sg205
F10.35483870967742
sg206
I0
sg474
I0
sg207
I0
sg208
I0
sg209
(dp3914
S'A'
p3915
I10
sS'ME'
p3916
I9
sS'RP2'
p3917
I7
sS'E'
p3918
I9
sS'TO'
p3919
I10
sS'RP1'
p3920
I9
sS'JP'
p3921
I4
sS'RP_tot'
p3922
I9
sS'P'
p3923
I6
sS'PA'
p3924
I10
sS'M'
p3925
I10
sS'R'
p3926
I7
sS'TB'
p3927
I4
sS'PL'
p3928
I13
sS'TA'
p3929
I7
ssg226
g3834
sg227
I0
sg228
g31
sg229
I0
sg230
I0
sg231
I0
sg232
I18
sg233
I0
sg234
I0
sg235
S'HB'
p3930
sbsS's11'
p3931
(ijoueur
joueur
p3932
(dp3933
g28
I0
sg32
I0
sg34
I0
sg35
g36
(g37
g38
Ntp3934
Rp3935
(dp3936
g42
I5
sg43
S'xx'
p3937
sg45
S'seigneur'
p3938
sbsg47
(dp3939
S'SR'
p3940
I0
sS'CT'
p3941
I0
sS'CR'
p3942
I0
sS'ST'
p3943
I0
ssg53
(dp3944
g3940
I0
sg3941
I0
sg3942
I3
sg3943
I0
ssg56
I0
sg205
F9.5
sg57
I0
sg356
I0
sg357
I0
sg60
I0
sg61
I0
sg62
I0
sg63
(S'dummy'
p3945
S'TL'
p3946
S'DL'
p3947
S'N8'
p3948
tp3949
sg68
I00
sg69
g36
(g37
g38
Ntp3950
Rp3951
(dp3952
g42
I4
sg43
S'*'
p3953
sg45
S'heros'
p3954
sbsg70
(dp3955
g3940
I0
sg3941
I8
sg3942
I3
sg3943
I0
ssg59
I00
sg78
(dp3956
g3940
I0
sg3941
I0
sg3942
I3
sg3943
I0
ssg80
(dp3957
g3940
I0
sg3941
I8
sg3942
I3
sg3943
I0
ssg82
I0
sg83
I0
sg84
S'Zhdavr (11)'
p3958
sg86
I8
sg87
I0
sg88
I24
sg89
I83
sg90
S'DKW'
p3959
sg92
(dp3960
S'A'
p3961
I10
sS'ME'
p3962
I9
sS'RP2'
p3963
I7
sS'E'
p3964
I9
sS'P'
p3965
I6
sS'RP1'
p3966
I9
sS'JP'
p3967
I4
sS'RP_tot'
p3968
I9
sS'TO'
p3969
I10
sS'PA'
p3970
I10
sS'M'
p3971
I10
sS'R'
p3972
I7
sS'TB'
p3973
I4
sS'PL'
p3974
I13
sS'TA'
p3975
I7
ssg201
I0
sg202
I0
sg203
I0
sg204
I0
sg76
(dp3976
g3940
I0
sg3941
I0
sg3942
I0
sg3943
I0
ssg206
I0
sg474
I0
sg207
I0
sg208
I0
sg209
(dp3977
S'A'
p3978
I10
sS'ME'
p3979
I9
sS'RP2'
p3980
I7
sS'E'
p3981
I9
sS'P'
p3982
I6
sS'RP1'
p3983
I9
sS'JP'
p3984
I4
sS'RP_tot'
p3985
I9
sS'TO'
p3986
I10
sS'PA'
p3987
I10
sS'M'
p3988
I10
sS'R'
p3989
I7
sS'TB'
p3990
I4
sS'PL'
p3991
I13
sS'TA'
p3992
I7
ssg226
g3960
sg227
I0
sg228
g31
sg229
I0
sg230
I0
sg231
I0
sg232
I9
sg233
I0
sg234
I0
sg235
S'HB'
p3993
sbssg201
I4
sg202
I0
sg203
I0
sg204
I0
sg205
F10.741935483870968
sg206
I0
sg58
F222.70797908934867
sg474
I0
sg207
I0
sg208
I0
sg209
(dp3994
S'A'
p3995
I10
sS'ME'
p3996
I9
sS'RP2'
p3997
I7
sS'E'
p3998
I9
sS'TO'
p3999
I10
sS'RP1'
p4000
I9
sS'JP'
p4001
I4
sS'RP_tot'
p4002
I9
sS'P'
p4003
I6
sS'PA'
p4004
I10
sS'M'
p4005
I10
sS'R'
p4006
I7
sS'TB'
p4007
I4
sS'PL'
p4008
I13
sS'TA'
p4009
I7
ssg226
(dp4010
g3789
I11
sg3790
I12
sg3791
I7
sg3792
I9
sg3797
I10
sg3794
I12
sg3795
I4
sg3796
I12
sg3793
I6
sg3798
I10
sg3799
I13
sg3800
I8
sg3801
I4
sg3802
I14
sg3803
I9
ssg227
I0
sg333
(dp4011
sg229
I0
sg228
S'DKW 13'
p4012
sg230
I0
sg231
I0
sg232
I20
sg233
I1
sg234
I0
sg235
S'HB'
p4013
sbsS'n19'
p4014
(ijoueur
joueur
p4015
(dp4016
g27
F10.903225806451612
sg28
I0
sg29
F10.947368421052632
sg30
g31
sg32
I0
sg33
F168.30695593305154
sg34
I0
sg35
g36
(g37
g38
Ntp4017
Rp4018
(dp4019
g42
I4
sg43
S'*'
p4020
sg45
S'heros'
p4021
sbsg47
(dp4022
S'SR'
p4023
I1
sS'ST'
p4024
I0
sS'CR'
p4025
I0
sS'CT'
p4026
I39
ssg53
(dp4027
g4023
I0
sg4024
I0
sg4025
I0
sg4026
I0
ssg55
I0
sg76
(dp4028
S'SR'
p4029
I1
sS'ST'
p4030
I0
sS'CR'
p4031
I0
sS'CT'
p4032
I15
ssg56
I0
sg57
I0
sg58
F168.30695593305154
sg60
I1
sg61
I0
sg62
I0
sg63
(S'dummy'
p4033
S'TL'
p4034
S'N8'
p4035
g31
tp4036
sg68
I00
sg69
g36
(g37
g38
Ntp4037
Rp4038
(dp4039
g42
I4
sg43
g4020
sg45
g4021
sbsg70
(dp4040
g4029
I0
sg4030
I0
sg4031
I0
sg4032
I0
ssg59
I00
sg78
(dp4041
g4029
I0
sg4030
I0
sg4031
I0
sg4032
I0
ssg80
(dp4042
g4023
I1
sg4024
I0
sg4025
I0
sg4026
I3
ssg82
I0
sg83
I0
sg84
S'Vgadhr'
p4043
sg86
I7
sg87
I0
sg88
I20
sg89
I494
sg90
S'KHR'
p4044
sg92
(dp4045
S'A'
p4046
I9
sS'ME'
p4047
I10
sS'RP2'
p4048
I8
sS'E'
p4049
I12
sS'P'
p4050
I6
sS'RP1'
p4051
I11
sS'JP'
p4052
I5
sS'RP_tot'
p4053
I12
sS'TO'
p4054
I11
sS'PA'
p4055
I8
sS'M'
p4056
I10
sS'R'
p4057
I10
sS'TB'
p4058
I4
sS'PL'
p4059
I13
sS'TA'
p4060
I6
ssg109
(dp4061
S's12'
p4062
(ijoueur
joueur
p4063
(dp4064
g27
F10.903225806451612
sg28
I0
sg30
g31
sg32
I0
sg34
I0
sg35
g36
(g37
g38
Ntp4065
Rp4066
(dp4067
g42
I4
sg43
S'*'
p4068
sg45
S'heros'
p4069
sbsg47
(dp4070
S'SR'
p4071
I0
sS'ST'
p4072
I0
sS'CR'
p4073
I0
sS'CT'
p4074
I24
ssg53
(dp4075
g4071
I0
sg4072
I0
sg4073
I0
sg4074
I0
ssg56
I0
sg205
F10.947368421052632
sg57
I0
sg60
I0
sg61
I0
sg62
I0
sg63
(S'dummy'
p4076
S'TL'
p4077
S'N8'
p4078
g31
tp4079
sg68
I00
sg69
g36
(g37
g38
Ntp4080
Rp4081
(dp4082
g42
I4
sg43
g4068
sg45
g4069
sbsg70
(dp4083
S'SR'
p4084
I0
sS'CT'
p4085
I0
sS'CR'
p4086
I0
sS'ST'
p4087
I0
ssg59
I00
sg78
(dp4088
g4084
I0
sg4085
I0
sg4086
I0
sg4087
I0
ssg80
(dp4089
g4071
I1
sg4072
I0
sg4073
I0
sg4074
I3
ssg82
I0
sg83
I0
sg84
S'Vgadhr (12)'
p4090
sg86
I7
sg87
I0
sg88
I20
sg89
I494
sg90
S'KHR'
p4091
sg92
(dp4092
S'A'
p4093
I9
sS'ME'
p4094
I10
sS'RP2'
p4095
I8
sS'E'
p4096
I12
sS'TO'
p4097
I11
sS'RP1'
p4098
I11
sS'JP'
p4099
I5
sS'RP_tot'
p4100
I12
sS'P'
p4101
I6
sS'PA'
p4102
I8
sS'M'
p4103
I10
sS'R'
p4104
I10
sS'TB'
p4105
I4
sS'PL'
p4106
I13
sS'TA'
p4107
I6
ssg109
(dp4108
S's11'
p4109
(ijoueur
joueur
p4110
(dp4111
g28
I0
sg32
I0
sg34
I0
sg35
g36
(g37
g38
Ntp4112
Rp4113
(dp4114
g42
I4
sg43
S'*'
p4115
sg45
S'heros'
p4116
sbsg47
(dp4117
S'SR'
p4118
I0
sS'ST'
p4119
I0
sS'CR'
p4120
I0
sS'CT'
p4121
I10
ssg53
(dp4122
g4118
I0
sg4119
I0
sg4120
I0
sg4121
I0
ssg56
I0
sg57
I0
sg59
I00
sg60
I2
sg61
I0
sg62
I0
sg63
(S'dummy'
p4123
S'TL'
p4124
S'N8'
p4125
g31
tp4126
sg68
I01
sg69
g36
(g37
g38
Ntp4127
Rp4128
(dp4129
g42
I4
sg43
g4115
sg45
g4116
sbsg70
(dp4130
g4118
I1
sg4119
I0
sg4120
I0
sg4121
I3
ssg76
(dp4131
g4118
I0
sg4119
I0
sg4120
I0
sg4121
I10
ssg78
(dp4132
g4118
I0
sg4119
I0
sg4120
I0
sg4121
I0
ssg80
(dp4133
g4118
I1
sg4119
I0
sg4120
I0
sg4121
I3
ssg82
I0
sg83
I0
sg84
S'Vgadhr'
p4134
sg86
I7
sg87
I0
sg88
I20
sg89
I494
sg90
S'KHR'
p4135
sg92
(dp4136
S'A'
p4137
I9
sS'ME'
p4138
I10
sS'RP2'
p4139
I7
sS'E'
p4140
I12
sS'TO'
p4141
I10
sS'RP1'
p4142
I11
sS'JP'
p4143
I5
sS'RP_tot'
p4144
I11
sS'P'
p4145
I6
sS'PA'
p4146
I8
sS'M'
p4147
I10
sS'R'
p4148
I11
sS'TB'
p4149
I4
sS'PL'
p4150
I12
sS'TA'
p4151
I6
ssg201
I0
sg202
I0
sg203
I0
sg204
I0
sg205
F10.903225806451612
sg206
I0
sg207
I0
sg208
I0
sg209
(dp4152
S'A'
p4153
I9
sS'ME'
p4154
I10
sS'RP2'
p4155
I7
sS'E'
p4156
I12
sS'TO'
p4157
I10
sS'RP1'
p4158
I11
sS'JP'
p4159
I5
sS'RP_tot'
p4160
I11
sS'P'
p4161
I6
sS'PA'
p4162
I8
sS'M'
p4163
I10
sS'R'
p4164
I11
sS'TB'
p4165
I4
sS'PL'
p4166
I12
sS'TA'
p4167
I6
ssg226
g4136
sg227
I0
sg228
S'QNL 11'
p4168
sg229
I0
sg230
I0
sg231
I0
sg232
I42
sg233
I11
sg234
I0
sg235
S'HB'
p4169
sbssg201
I11
sg202
I0
sg203
I0
sg204
I0
sg76
(dp4170
g4084
I0
sg4085
I14
sg4086
I0
sg4087
I0
ssg206
I0
sg207
I0
sg208
I0
sg209
(dp4171
S'A'
p4172
I9
sS'ME'
p4173
I10
sS'RP2'
p4174
I7
sS'E'
p4175
I12
sS'P'
p4176
I6
sS'RP1'
p4177
I11
sS'JP'
p4178
I5
sS'RP_tot'
p4179
I11
sS'TO'
p4180
I10
sS'PA'
p4181
I8
sS'M'
p4182
I10
sS'R'
p4183
I11
sS'TB'
p4184
I4
sS'PL'
p4185
I12
sS'TA'
p4186
I6
ssg226
g4092
sg227
I0
sg228
S'QNL 11'
p4187
sg229
I0
sg230
I0
sg231
I0
sg232
I42
sg233
I11
sg234
I0
sg235
S'HB'
p4188
sbsS's11'
p4189
(ijoueur
joueur
p4190
(dp4191
g28
I0
sg32
I0
sg34
I0
sg35
g36
(g37
g38
Ntp4192
Rp4193
(dp4194
g42
I4
sg43
S'*'
p4195
sg45
S'heros'
p4196
sbsg47
(dp4197
S'SR'
p4198
I0
sS'ST'
p4199
I0
sS'CR'
p4200
I0
sS'CT'
p4201
I10
ssg53
(dp4202
g4198
I0
sg4199
I0
sg4200
I0
sg4201
I0
ssg56
I0
sg57
I0
sg59
I00
sg60
I2
sg61
I0
sg62
I0
sg63
(S'dummy'
p4203
S'TL'
p4204
S'N8'
p4205
g31
tp4206
sg68
I01
sg69
g36
(g37
g38
Ntp4207
Rp4208
(dp4209
g42
I4
sg43
g4195
sg45
g4196
sbsg70
(dp4210
g4198
I1
sg4199
I0
sg4200
I0
sg4201
I3
ssg76
(dp4211
g4198
I0
sg4199
I0
sg4200
I0
sg4201
I10
ssg78
(dp4212
g4198
I0
sg4199
I0
sg4200
I0
sg4201
I0
ssg80
(dp4213
g4198
I1
sg4199
I0
sg4200
I0
sg4201
I3
ssg82
I0
sg83
I0
sg84
S'Vgadhr (11)'
p4214
sg86
I7
sg87
I0
sg88
I20
sg89
I494
sg90
S'KHR'
p4215
sg92
(dp4216
S'A'
p4217
I9
sS'ME'
p4218
I10
sS'RP2'
p4219
I7
sS'E'
p4220
I12
sS'TO'
p4221
I10
sS'RP1'
p4222
I11
sS'JP'
p4223
I5
sS'RP_tot'
p4224
I11
sS'P'
p4225
I6
sS'PA'
p4226
I8
sS'M'
p4227
I10
sS'R'
p4228
I11
sS'TB'
p4229
I4
sS'PL'
p4230
I12
sS'TA'
p4231
I6
ssg201
I0
sg202
I0
sg203
I0
sg204
I0
sg205
F10.903225806451612
sg206
I0
sg207
I0
sg208
I0
sg209
(dp4232
S'A'
p4233
I9
sS'ME'
p4234
I10
sS'RP2'
p4235
I7
sS'E'
p4236
I12
sS'TO'
p4237
I10
sS'RP1'
p4238
I11
sS'JP'
p4239
I5
sS'RP_tot'
p4240
I11
sS'P'
p4241
I6
sS'PA'
p4242
I8
sS'M'
p4243
I10
sS'R'
p4244
I11
sS'TB'
p4245
I4
sS'PL'
p4246
I12
sS'TA'
p4247
I6
ssg226
g4216
sg227
I0
sg228
S'QNL 11'
p4248
sg229
I0
sg230
I0
sg231
I0
sg232
I42
sg233
I11
sg234
I0
sg235
S'HB'
p4249
sbssg201
I0
sg202
I0
sg203
I0
sg204
I0
sg205
F10.947368421052632
sg206
I0
sg207
I0
sg208
I0
sg209
(dp4250
S'A'
p4251
I9
sS'ME'
p4252
I10
sS'RP2'
p4253
I7
sS'E'
p4254
I12
sS'P'
p4255
I6
sS'RP1'
p4256
I11
sS'JP'
p4257
I5
sS'RP_tot'
p4258
I11
sS'TO'
p4259
I10
sS'PA'
p4260
I8
sS'M'
p4261
I10
sS'R'
p4262
I11
sS'TB'
p4263
I4
sS'PL'
p4264
I12
sS'TA'
p4265
I6
ssg226
(dp4266
g4046
I9
sg4047
I10
sg4048
I8
sg4049
I12
sg4054
I11
sg4051
I11
sg4052
I5
sg4053
I12
sg4050
I6
sg4055
I8
sg4056
I10
sg4057
I10
sg4058
I4
sg4059
I13
sg4060
I6
ssg227
I0
sg333
(dp4267
sg229
I0
sg228
S'QNL 11'
p4268
sg230
I0
sg231
I0
sg232
I42
sg233
I12
sg234
I0
sg235
S'HB'
p4269
sbsS'n22'
p4270
(ijoueur
joueur
p4271
(dp4272
g28
I0
sg30
g31
sg32
I0
sg33
F227.10647207966684
sS'poste3'
p4273
g31
sg34
I0
sS'poste1'
p4274
g31
sg35
g36
(g37
g38
Ntp4275
Rp4276
(dp4277
g42
I4
sg43
S'*'
p4278
sg45
S'heros'
p4279
sbsg47
(dp4280
S'SR'
p4281
I2
sS'CT'
p4282
I15
sS'CR'
p4283
I1
sS'ST'
p4284
I1
ssg53
(dp4285
g4281
I0
sg4282
I0
sg4283
I0
sg4284
I0
ssg55
I0
sg228
g31
sg57
I0
sg58
F227.10647207966684
sg60
I0
sg61
I0
sg62
I0
sg90
g2082
sg69
g36
(g37
g38
Ntp4286
Rp4287
(dp4288
g42
I3
sg43
S'<<<'
p4289
sg45
S'rare'
p4290
sbsg70
(dp4291
g4281
I1
sg4282
I0
sg4283
I0
sg4284
I0
ssg76
(dp4292
g4281
I2
sg4282
I15
sg4283
I1
sg4284
I1
ssg78
(dp4293
g4281
I0
sg4282
I0
sg4283
I0
sg4284
I0
ssg80
(dp4294
g4281
I2
sg4282
I0
sg4283
I0
sg4284
I0
ssg82
I0
sg83
I0
sg84
S'Larkharyem'
p4295
sg86
I13
sg87
I0
sg88
I25
sg89
I150
sg63
(S'dummy'
p4296
S'AR'
p4297
S'AI'
p4298
g31
tp4299
sS'poste2'
p4300
g31
sg92
(dp4301
S'RP1'
p4302
I13
sS'ME'
p4303
I5
sS'RP2'
p4304
I11
sS'E'
p4305
I12
sS'TO'
p4306
I4
sS'M'
p4307
I12
sS'JP'
p4308
I3
sS'RP_tot'
p4309
I15
sS'P'
p4310
I4
sS'PA'
p4311
I6
sS'A'
p4312
I8
sS'R'
p4313
I9
sS'TB'
p4314
I4
sS'PL'
p4315
I10
sS'TA'
p4316
I9
ssg109
(dp4317
sg201
I7
sg202
I0
sg203
I0
sg204
I0
sg205
F9.696969696969697
sg206
I0
sg207
I0
sg208
I0
sg226
(dp4318
g4302
I13
sg4303
I5
sg4304
I11
sg4305
I12
sg4310
I4
sg4308
I3
sg4307
I12
sg4309
I15
sg4306
I4
sg4311
I6
sg4312
I8
sg4313
I9
sg4314
I4
sg4315
I10
sg4316
I9
ssg227
I0
sg229
I0
sg230
I0
sg231
I0
sg232
I15
sg233
I0
sg234
I0
sg235
S'HB'
p4319
sbsS'n21'
p4320
(ijoueur
joueur
p4321
(dp4322
g27
F10.633333333333333
sg28
I0
sg29
F11.0
sg30
g31
sg32
I4
sg33
F224.7039250173358
sg34
I0
sg35
g36
(g37
g38
Ntp4323
Rp4324
(dp4325
g42
I5
sg43
S'xx'
p4326
sg45
S'seigneur'
p4327
sbsg47
(dp4328
S'SR'
p4329
I3
sS'CT'
p4330
I0
sS'CR'
p4331
I0
sS'ST'
p4332
I0
ssg53
(dp4333
g4329
I1
sg4330
I0
sg4331
I0
sg4332
I13
ssg55
I0
sg76
(dp4334
S'SR'
p4335
I2
sS'ST'
p4336
I0
sS'CR'
p4337
I0
sS'CT'
p4338
I0
ssg56
I0
sg57
I0
sg356
I6
sg357
I7
sg60
I2
sg61
I0
sg62
I0
sg63
(S'dummy'
p4339
S'C1'
p4340
S'AR'
p4341
S'AI'
p4342
tp4343
sg68
I00
sg69
g36
(g37
g38
Ntp4344
Rp4345
(dp4346
g42
I5
sg43
S'xx'
p4347
sg45
g4327
sbsg70
(dp4348
g4335
I1
sg4336
I2
sg4337
I0
sg4338
I15
ssg59
I00
sg78
(dp4349
g4335
I0
sg4336
I0
sg4337
I0
sg4338
I0
ssg80
(dp4350
g4329
I1
sg4330
I44
sg4331
I0
sg4332
I3
ssg82
I7
sg83
I0
sg84
S'Nratr'
p4351
sg86
I8
sg87
I6
sg88
I15
sg89
I323
sg90
S'TA'
p4352
sg92
(dp4353
S'A'
p4354
I9
sS'ME'
p4355
I6
sS'RP2'
p4356
I7
sS'E'
p4357
I13
sS'TO'
p4358
I7
sS'RP1'
p4359
I12
sS'JP'
p4360
I9
sS'RP_tot'
p4361
I12
sS'P'
p4362
I9
sS'PA'
p4363
I9
sS'M'
p4364
I11
sS'R'
p4365
I11
sS'TB'
p4366
I11
sS'PL'
p4367
I9
sS'TA'
p4368
I5
ssg109
(dp4369
S's12'
p4370
(ijoueur
joueur
p4371
(dp4372
g27
F10.633333333333333
sg28
I0
sg30
g31
sg32
I4
sg34
I0
sg35
g36
(g37
g38
Ntp4373
Rp4374
(dp4375
g42
I5
sg43
S'xx'
p4376
sg45
S'seigneur'
p4377
sbsg47
(dp4378
S'SR'
p4379
I1
sS'CT'
p4380
I0
sS'CR'
p4381
I0
sS'ST'
p4382
I0
ssg53
(dp4383
g4379
I1
sg4380
I0
sg4381
I0
sg4382
I13
ssg56
I0
sg205
F11.0
sg57
I0
sg356
I6
sg357
I7
sg60
I3
sg61
I0
sg62
I0
sg63
(S'dummy'
p4384
S'C1'
p4385
S'AR'
p4386
S'AI'
p4387
tp4388
sg68
I00
sg69
g36
(g37
g38
Ntp4389
Rp4390
(dp4391
g42
I5
sg43
S'xx'
p4392
sg45
g4377
sbsg70
(dp4393
S'SR'
p4394
I0
sS'CT'
p4395
I13
sS'CR'
p4396
I0
sS'ST'
p4397
I0
ssg59
I00
sg78
(dp4398
g4394
I0
sg4395
I0
sg4396
I0
sg4397
I6
ssg80
(dp4399
g4379
I0
sg4380
I29
sg4381
I0
sg4382
I0
ssg82
I7
sg83
I0
sg84
S'Nratr'
p4400
sg86
I8
sg87
I6
sg88
I15
sg89
I323
sg90
S'TA'
p4401
sg92
(dp4402
S'A'
p4403
I11
sS'ME'
p4404
I6
sS'RP2'
p4405
I7
sS'E'
p4406
I13
sS'P'
p4407
I10
sS'RP1'
p4408
I12
sS'JP'
p4409
I9
sS'RP_tot'
p4410
I12
sS'TO'
p4411
I7
sS'PA'
p4412
I9
sS'M'
p4413
I11
sS'R'
p4414
I12
sS'TB'
p4415
I10
sS'PL'
p4416
I11
sS'TA'
p4417
I5
ssg109
(dp4418
S's11'
p4419
(ijoueur
joueur
p4420
(dp4421
g28
I0
sg32
I4
sg34
I0
sg35
g36
(g37
g38
Ntp4422
Rp4423
(dp4424
g42
I5
sg43
S'xx'
p4425
sg45
S'seigneur'
p4426
sbsg47
(dp4427
S'SR'
p4428
I1
sS'CT'
p4429
I0
sS'CR'
p4430
I0
sS'ST'
p4431
I0
ssg53
(dp4432
g4428
I1
sg4429
I0
sg4430
I0
sg4431
I6
ssg56
I0
sg205
F10.633333333333333
sg57
I0
sg356
I6
sg357
I7
sg60
I2
sg61
I0
sg62
I0
sg63
(S'dummy'
p4433
S'C1'
p4434
S'AR'
p4435
S'AI'
p4436
tp4437
sg68
I01
sg69
g36
(g37
g38
Ntp4438
Rp4439
(dp4440
g42
I5
sg43
S'xx'
p4441
sg45
g4426
sbsg70
(dp4442
g4428
I0
sg4429
I16
sg4430
I0
sg4431
I0
ssg59
I00
sg78
(dp4443
g4428
I1
sg4429
I0
sg4430
I0
sg4431
I6
ssg80
(dp4444
g4428
I0
sg4429
I16
sg4430
I0
sg4431
I0
ssg82
I7
sg83
I0
sg84
S'Nratr'
p4445
sg86
I8
sg87
I6
sg88
I15
sg89
I323
sg90
S'TA'
p4446
sg92
(dp4447
S'A'
p4448
I10
sS'ME'
p4449
I6
sS'RP2'
p4450
I7
sS'E'
p4451
I13
sS'P'
p4452
I10
sS'RP1'
p4453
I12
sS'JP'
p4454
I9
sS'RP_tot'
p4455
I12
sS'TO'
p4456
I7
sS'PA'
p4457
I9
sS'M'
p4458
I11
sS'R'
p4459
I11
sS'TB'
p4460
I9
sS'PL'
p4461
I10
sS'TA'
p4462
I5
ssg201
I0
sg202
I0
sg203
I0
sg204
I0
sg76
(dp4463
g4428
I1
sg4429
I0
sg4430
I0
sg4431
I0
ssg206
I0
sg474
I4
sg207
I0
sg208
I0
sg209
(dp4464
S'A'
p4465
I10
sS'ME'
p4466
I6
sS'RP2'
p4467
I7
sS'E'
p4468
I13
sS'P'
p4469
I10
sS'RP1'
p4470
I12
sS'JP'
p4471
I9
sS'RP_tot'
p4472
I12
sS'TO'
p4473
I7
sS'PA'
p4474
I9
sS'M'
p4475
I11
sS'R'
p4476
I11
sS'TB'
p4477
I9
sS'PL'
p4478
I10
sS'TA'
p4479
I5
ssg226
g4447
sg227
I0
sg228
S'BRB 11'
p4480
sg229
I0
sg230
I0
sg231
I0
sg232
I25
sg233
I5
sg234
I0
sg235
S'HB'
p4481
sbssg201
I14
sg202
I0
sg203
I0
sg204
I0
sg76
(dp4482
g4394
I0
sg4395
I0
sg4396
I0
sg4397
I0
ssg206
I0
sg474
I4
sg207
I0
sg208
I2
sg209
(dp4483
S'A'
p4484
I10
sS'ME'
p4485
I6
sS'RP2'
p4486
I7
sS'E'
p4487
I13
sS'P'
p4488
I10
sS'RP1'
p4489
I12
sS'JP'
p4490
I9
sS'RP_tot'
p4491
I12
sS'TO'
p4492
I7
sS'PA'
p4493
I9
sS'M'
p4494
I11
sS'R'
p4495
I11
sS'TB'
p4496
I9
sS'PL'
p4497
I10
sS'TA'
p4498
I5
ssg226
g4402
sg227
I0
sg228
S'BRB 11'
p4499
sg229
I0
sg230
I0
sg231
I0
sg232
I25
sg233
I8
sg234
I2
sg235
S'HB'
p4500
sbsS's11'
p4501
(ijoueur
joueur
p4502
(dp4503
g28
I0
sg32
I4
sg34
I0
sg35
g36
(g37
g38
Ntp4504
Rp4505
(dp4506
g42
I5
sg43
S'xx'
p4507
sg45
S'seigneur'
p4508
sbsg47
(dp4509
S'SR'
p4510
I1
sS'CT'
p4511
I0
sS'CR'
p4512
I0
sS'ST'
p4513
I0
ssg53
(dp4514
g4510
I1
sg4511
I0
sg4512
I0
sg4513
I6
ssg56
I0
sg205
F10.633333333333333
sg57
I0
sg356
I6
sg357
I7
sg60
I2
sg61
I0
sg62
I0
sg63
(S'dummy'
p4515
S'C1'
p4516
S'AR'
p4517
S'AI'
p4518
tp4519
sg68
I01
sg69
g36
(g37
g38
Ntp4520
Rp4521
(dp4522
g42
I5
sg43
S'xx'
p4523
sg45
g4508
sbsg70
(dp4524
g4510
I0
sg4511
I16
sg4512
I0
sg4513
I0
ssg59
I00
sg78
(dp4525
g4510
I1
sg4511
I0
sg4512
I0
sg4513
I6
ssg80
(dp4526
g4510
I0
sg4511
I16
sg4512
I0
sg4513
I0
ssg82
I7
sg83
I0
sg84
S'Nratr'
p4527
sg86
I8
sg87
I6
sg88
I15
sg89
I323
sg90
S'TA'
p4528
sg92
(dp4529
S'A'
p4530
I10
sS'ME'
p4531
I6
sS'RP2'
p4532
I7
sS'E'
p4533
I13
sS'P'
p4534
I10
sS'RP1'
p4535
I12
sS'JP'
p4536
I9
sS'RP_tot'
p4537
I12
sS'TO'
p4538
I7
sS'PA'
p4539
I9
sS'M'
p4540
I11
sS'R'
p4541
I11
sS'TB'
p4542
I9
sS'PL'
p4543
I10
sS'TA'
p4544
I5
ssg201
I0
sg202
I0
sg203
I0
sg204
I0
sg76
(dp4545
g4510
I1
sg4511
I0
sg4512
I0
sg4513
I0
ssg206
I0
sg474
I4
sg207
I0
sg208
I0
sg209
(dp4546
S'A'
p4547
I10
sS'ME'
p4548
I6
sS'RP2'
p4549
I7
sS'E'
p4550
I13
sS'P'
p4551
I10
sS'RP1'
p4552
I12
sS'JP'
p4553
I9
sS'RP_tot'
p4554
I12
sS'TO'
p4555
I7
sS'PA'
p4556
I9
sS'M'
p4557
I11
sS'R'
p4558
I11
sS'TB'
p4559
I9
sS'PL'
p4560
I10
sS'TA'
p4561
I5
ssg226
g4529
sg227
I0
sg228
S'BRB 11'
p4562
sg229
I0
sg230
I0
sg231
I0
sg232
I25
sg233
I5
sg234
I0
sg235
S'HB'
p4563
sbssg201
cnumpy.core.multiarray
scalar
p4564
(cnumpy
dtype
p4565
(S'i4'
p4566
I0
I1
tp4567
Rp4568
(I3
S'<'
p4569
NNNI-1
I-1
I0
tp4570
bS'\n\x00\x00\x00'
p4571
tp4572
Rp4573
sg202
I0
sg203
I0
sg204
I0
sg205
F10.65625
sg206
I0
sg58
F224.7039250173358
sg474
I4
sg207
I0
sg208
I2
sg209
(dp4574
S'A'
p4575
I10
sS'ME'
p4576
I6
sS'RP2'
p4577
I7
sS'E'
p4578
I13
sS'P'
p4579
I10
sS'RP1'
p4580
I12
sS'JP'
p4581
I9
sS'RP_tot'
p4582
I12
sS'TO'
p4583
I7
sS'PA'
p4584
I9
sS'M'
p4585
I11
sS'R'
p4586
I11
sS'TB'
p4587
I9
sS'PL'
p4588
I10
sS'TA'
p4589
I5
ssg226
(dp4590
g4354
I10
sg4355
I6
sg4356
I7
sg4357
I13
sg4362
I9
sg4359
I12
sg4360
I9
sg4361
I12
sg4358
I7
sg4363
I9
sg4364
I11
sg4365
I12
sg4366
I11
sg4367
I10
sg4368
I5
ssg227
I0
sg333
(dp4591
sg229
I0
sg228
S'BRB 11'
p4592
sg230
I0
sg231
I0
sg232
I25
sg233
I10
sg234
I0
sg235
S'HB'
p4593
sbsS'n20'
p4594
g338
sS'n8'
p4595
g2304
sS'n9'
p4596
(ijoueur
joueur
p4597
(dp4598
g27
F11.448275862068966
sg28
I0
sg29
F11.344827586206897
sg30
g31
sg32
I0
sg33
F203.1909359362715
sg34
I0
sg35
g36
(g37
g38
Ntp4599
Rp4600
(dp4601
g42
I5
sg43
S'xx'
p4602
sg45
g2583
sbsg47
(dp4603
g2585
I0
sg2586
I0
sg2587
I0
sg2588
I0
ssg53
(dp4604
g2585
I0
sg2586
I0
sg2587
I0
sg2588
I0
ssg55
I0
sg56
I0
sg205
F12.068965517241379
sg57
I0
sg356
I0
sg357
I0
sg60
I4
sg61
I0
sg62
I0
sg63
(g2590
S'DM'
p4605
g31
g31
tp4606
sg68
I00
sg69
g36
(g37
g38
Ntp4607
Rp4608
(dp4609
g42
I5
sg43
S'xx'
p4610
sg45
g2583
sbsg70
(dp4611
g2595
I0
sg2596
I13
sg2597
I0
sg2598
I5
ssg59
I00
sg78
(dp4612
g2595
I0
sg2596
I0
sg2597
I0
sg2598
I0
ssg80
(dp4613
g2585
I0
sg2586
I21
sg2587
I0
sg2588
I41
ssg82
I0
sg83
I0
sg84
S'Grogf'
p4614
sg86
I9
sg87
I0
sg88
I23
sg89
I200
sg90
g2602
sg92
(dp4615
g2604
I13
sg2605
I8
sg2606
I8
sg2607
I13
sg2608
I9
sg2609
I13
sg2610
I9
sg2611
I14
sg2612
I6
sg2613
I14
sg2614
I13
sg2615
I9
sg2616
I8
sg2617
I8
sg2618
I8
ssg109
(dp4616
g2620
(ijoueur
joueur
p4617
(dp4618
g27
F11.448275862068966
sg28
I0
sg30
g31
sg32
I0
sg34
I0
sg35
g36
(g37
g38
Ntp4619
Rp4620
(dp4621
g42
I5
sg43
S'xx'
p4622
sg45
g2627
sbsg47
(dp4623
g2629
I0
sg2630
I0
sg2631
I0
sg2632
I0
ssg53
(dp4624
g2629
I0
sg2630
I0
sg2631
I0
sg2632
I0
ssg56
I0
sg57
I0
sg356
I0
sg357
I0
sg59
I00
sg60
I4
sg61
I0
sg62
I0
sg63
(g2634
S'DM'
p4625
g31
g31
tp4626
sg68
I00
sg69
g36
(g37
g38
Ntp4627
Rp4628
(dp4629
g42
I5
sg43
S'xx'
p4630
sg45
g2627
sbsg70
(dp4631
g2639
I0
sg2640
I6
sg2641
I0
sg2642
I15
ssg76
(dp4632
g2639
I0
sg2640
I0
sg2641
I0
sg2642
I0
ssg78
(dp4633
g2639
I0
sg2640
I0
sg2641
I0
sg2642
I0
ssg80
(dp4634
g2629
I0
sg2630
I15
sg2631
I0
sg2632
I28
ssg82
I0
sg83
I0
sg84
S'Grogf'
p4635
sg86
I9
sg87
I0
sg88
I23
sg89
I200
sg90
g2647
sg92
(dp4636
g2649
I14
sg2650
I8
sg2651
I8
sg2652
I13
sg2653
I6
sg2654
I13
sg2655
I9
sg2656
I14
sg2657
I8
sg2658
I11
sg2659
I13
sg2660
I10
sg2661
I8
sg2662
I9
sg2663
I8
ssg109
(dp4637
g2665
(ijoueur
joueur
p4638
(dp4639
g28
I0
sg32
I0
sg34
I0
sg35
g36
(g37
g38
Ntp4640
Rp4641
(dp4642
g42
I5
sg43
S'xx'
p4643
sg45
S'seigneur'
p4644
sbsg47
(dp4645
S'SR'
p4646
I0
sS'CT'
p4647
I0
sS'CR'
p4648
I0
sS'ST'
p4649
I0
ssg53
(dp4650
g4646
I0
sg4647
I0
sg4648
I0
sg4649
I0
ssg56
I0
sg205
F11.448275862068966
sg57
I0
sg356
I0
sg357
I0
sg60
I3
sg61
I0
sg62
I0
sg63
(S'dummy'
p4651
S'DM'
p4652
g31
g31
tp4653
sg68
I00
sg69
g36
(g37
g38
Ntp4654
Rp4655
(dp4656
g42
I5
sg43
S'xx'
p4657
sg45
g4644
sbsg70
(dp4658
g4646
I0
sg4647
I13
sg4648
I0
sg4649
I8
ssg59
I00
sg78
(dp4659
g4646
I0
sg4647
I0
sg4648
I0
sg4649
I0
ssg80
(dp4660
g4646
I0
sg4647
I13
sg4648
I0
sg4649
I8
ssg82
I0
sg83
I0
sg84
S'Grogf'
p4661
sg86
I9
sg87
I0
sg88
I23
sg89
I200
sg90
S'DKW'
p4662
sg92
(dp4663
S'A'
p4664
I14
sS'ME'
p4665
I8
sS'RP2'
p4666
I8
sS'E'
p4667
I13
sS'P'
p4668
I8
sS'RP1'
p4669
I13
sS'JP'
p4670
I8
sS'RP_tot'
p4671
I14
sS'TO'
p4672
I6
sS'PA'
p4673
I11
sS'M'
p4674
I13
sS'R'
p4675
I10
sS'TB'
p4676
I8
sS'PL'
p4677
I11
sS'TA'
p4678
I8
ssg201
I0
sg202
I0
sg203
I0
sg204
I0
sg76
(dp4679
g4646
I0
sg4647
I0
sg4648
I0
sg4649
I0
ssg206
I0
sg474
I0
sg207
I0
sg208
I2
sg209
(dp4680
S'A'
p4681
I14
sS'ME'
p4682
I8
sS'RP2'
p4683
I8
sS'E'
p4684
I13
sS'P'
p4685
I8
sS'RP1'
p4686
I13
sS'JP'
p4687
I8
sS'RP_tot'
p4688
I14
sS'TO'
p4689
I6
sS'PA'
p4690
I11
sS'M'
p4691
I13
sS'R'
p4692
I10
sS'TB'
p4693
I8
sS'PL'
p4694
I11
sS'TA'
p4695
I8
ssg226
g4663
sg227
I0
sg228
g31
sg229
I0
sg230
I0
sg231
I0
sg232
I32
sg233
I4
sg234
I2
sg235
S'HB'
p4696
sbssg201
I14
sg202
I0
sg203
I0
sg204
I0
sg205
F11.344827586206897
sg206
I0
sg474
I0
sg207
I0
sg208
I2
sg209
(dp4697
g2728
I14
sg2729
I8
sg2730
I8
sg2731
I13
sg2732
I6
sg2733
I13
sg2734
I8
sg2735
I14
sg2736
I8
sg2737
I11
sg2738
I13
sg2739
I10
sg2740
I8
sg2741
I11
sg2742
I8
ssg226
g4636
sg227
I0
sg228
g31
sg229
I0
sg230
I0
sg231
I0
sg232
I32
sg233
I8
sg234
I0
sg235
S'HB'
p4698
sbsg2744
(ijoueur
joueur
p4699
(dp4700
g28
I0
sg32
I0
sg34
I0
sg35
g36
(g37
g38
Ntp4701
Rp4702
(dp4703
g42
I5
sg43
S'xx'
p4704
sg45
S'seigneur'
p4705
sbsg47
(dp4706
S'SR'
p4707
I0
sS'CT'
p4708
I0
sS'CR'
p4709
I0
sS'ST'
p4710
I0
ssg53
(dp4711
g4707
I0
sg4708
I0
sg4709
I0
sg4710
I0
ssg56
I0
sg205
F11.448275862068966
sg57
I0
sg356
I0
sg357
I0
sg60
I3
sg61
I0
sg62
I0
sg63
(S'dummy'
p4712
S'DM'
p4713
g31
g31
tp4714
sg68
I00
sg69
g36
(g37
g38
Ntp4715
Rp4716
(dp4717
g42
I5
sg43
S'xx'
p4718
sg45
g4705
sbsg70
(dp4719
g4707
I0
sg4708
I13
sg4709
I0
sg4710
I8
ssg59
I00
sg78
(dp4720
g4707
I0
sg4708
I0
sg4709
I0
sg4710
I0
ssg80
(dp4721
g4707
I0
sg4708
I13
sg4709
I0
sg4710
I8
ssg82
I0
sg83
I0
sg84
S'Grogf'
p4722
sg86
I9
sg87
I0
sg88
I23
sg89
I200
sg90
S'DKW'
p4723
sg92
(dp4724
S'A'
p4725
I14
sS'ME'
p4726
I8
sS'RP2'
p4727
I8
sS'E'
p4728
I13
sS'P'
p4729
I8
sS'RP1'
p4730
I13
sS'JP'
p4731
I8
sS'RP_tot'
p4732
I14
sS'TO'
p4733
I6
sS'PA'
p4734
I11
sS'M'
p4735
I13
sS'R'
p4736
I10
sS'TB'
p4737
I8
sS'PL'
p4738
I11
sS'TA'
p4739
I8
ssg201
I0
sg202
I0
sg203
I0
sg204
I0
sg76
(dp4740
g4707
I0
sg4708
I0
sg4709
I0
sg4710
I0
ssg206
I0
sg474
I0
sg207
I0
sg208
I2
sg209
(dp4741
S'A'
p4742
I14
sS'ME'
p4743
I8
sS'RP2'
p4744
I8
sS'E'
p4745
I13
sS'P'
p4746
I8
sS'RP1'
p4747
I13
sS'JP'
p4748
I8
sS'RP_tot'
p4749
I14
sS'TO'
p4750
I6
sS'PA'
p4751
I11
sS'M'
p4752
I13
sS'R'
p4753
I10
sS'TB'
p4754
I8
sS'PL'
p4755
I11
sS'TA'
p4756
I8
ssg226
g4724
sg227
I0
sg228
g31
sg229
I0
sg230
I0
sg231
I0
sg232
I32
sg233
I4
sg234
I2
sg235
S'HB'
p4757
sbssg201
I12
sg202
I0
sg203
I0
sg204
I0
sg76
(dp4758
g2595
I0
sg2596
I0
sg2597
I0
sg2598
I0
ssg206
I0
sg58
F203.1909359362715
sg474
I0
sg207
I0
sg208
I2
sg209
(dp4759
g2808
I14
sg2809
I8
sg2810
I8
sg2811
I13
sg2812
I6
sg2813
I13
sg2814
I8
sg2815
I14
sg2816
I8
sg2817
I11
sg2818
I13
sg2819
I10
sg2820
I8
sg2821
I11
sg2822
I8
ssg226
(dp4760
g2604
I14
sg2605
I8
sg2606
I8
sg2607
I13
sg2612
I6
sg2609
I13
sg2610
I9
sg2611
I14
sg2608
I9
sg2613
I14
sg2614
I13
sg2615
I10
sg2616
I8
sg2617
I9
sg2618
I8
ssg227
I0
sg333
(dp4761
sg229
I0
sg228
g31
sg230
I0
sg231
I0
sg232
I32
sg233
I12
sg234
I0
sg235
S'HB'
p4762
sbsS'n1'
p4763
(ijoueur
joueur
p4764
(dp4765
g27
F11.11111111111111
sg28
I1
sg29
F11.555555555555555
sg30
g31
sg32
I0
sg33
F191.63576052597136
sg34
I0
sg35
g36
(g37
g38
Ntp4766
Rp4767
(dp4768
g42
I3
sg43
S'<<<'
p4769
sg45
S'rare'
p4770
sbsg47
(dp4771
g2585
I0
sg2586
I0
sg2587
I0
sg2588
I2
ssg53
(dp4772
g2585
I0
sg2586
I0
sg2587
I0
sg2588
I8
ssg55
I0
sg56
I0
sg205
F11.407407407407407
sg57
I0
sg356
I0
sg357
I0
sg60
I2
sg61
I0
sg62
I0
sg63
(g2590
S'PI'
p4773
S'N8'
p4774
S'TA'
p4775
tp4776
sg68
I00
sg69
g36
(g37
g38
Ntp4777
Rp4778
(dp4779
g42
I3
sg43
S'<<<'
p4780
sg45
g4770
sbsg70
(dp4781
g2595
I0
sg2596
I11
sg2597
I2
sg2598
I4
ssg59
I00
sg78
(dp4782
g2595
I0
sg2596
I0
sg2597
I0
sg2598
I0
ssg80
(dp4783
g2585
I2
sg2586
I16
sg2587
I3
sg2588
I31
ssg82
I0
sg83
I0
sg84
S'Ngaod'
p4784
sg86
I11
sg87
I0
sg88
I22
sg89
I200
sg90
g2602
sg92
(dp4785
g2604
I9
sg2605
I14
sg2606
I7
sg2607
I12
sg2608
I3
sg2609
I13
sg2610
I0
sg2611
I13
sg2612
I5
sg2613
I6
sg2614
I10
sg2615
I12
sg2616
I2
sg2617
I8
sg2618
I8
ssg109
(dp4786
g2620
(ijoueur
joueur
p4787
(dp4788
g27
F11.11111111111111
sg28
I0
sg30
g31
sg32
I0
sg34
I0
sg35
g36
(g37
g38
Ntp4789
Rp4790
(dp4791
g42
I3
sg43
S'<<<'
p4792
sg45
S'rare'
p4793
sbsg47
(dp4794
g2629
I0
sg2630
I0
sg2631
I0
sg2632
I1
ssg53
(dp4795
g2629
I0
sg2630
I0
sg2631
I0
sg2632
I8
ssg56
I0
sg57
I0
sg356
I0
sg357
I0
sg59
I00
sg60
I3
sg61
I0
sg62
I0
sg63
(g2634
S'PI'
p4796
S'N8'
p4797
S'TA'
p4798
tp4799
sg68
I00
sg69
g36
(g37
g38
Ntp4800
Rp4801
(dp4802
g42
I3
sg43
S'<<<'
p4803
sg45
g4793
sbsg70
(dp4804
g2639
I0
sg2640
I5
sg2641
I0
sg2642
I7
ssg76
(dp4805
g2639
I0
sg2640
I0
sg2641
I0
sg2642
I1
ssg78
(dp4806
g2639
I0
sg2640
I0
sg2641
I0
sg2642
I7
ssg80
(dp4807
g2629
I2
sg2630
I12
sg2631
I1
sg2632
I20
ssg82
I0
sg83
I0
sg84
S'Ngaod'
p4808
sg86
I11
sg87
I0
sg88
I22
sg89
I200
sg90
g2647
sg92
(dp4809
g2649
I9
sg2650
I14
sg2651
I7
sg2652
I12
sg2653
I5
sg2654
I13
sg2655
I0
sg2656
I13
sg2657
I3
sg2658
I6
sg2659
I10
sg2660
I12
sg2661
I2
sg2662
I9
sg2663
I9
ssg109
(dp4810
g2665
(ijoueur
joueur
p4811
(dp4812
g28
I0
sg32
I0
sg34
I0
sg35
g36
(g37
g38
Ntp4813
Rp4814
(dp4815
g42
I3
sg43
S'<<<'
p4816
sg45
S'rare'
p4817
sbsg47
(dp4818
S'SR'
p4819
I0
sS'CT'
p4820
I0
sS'CR'
p4821
I0
sS'ST'
p4822
I0
ssg53
(dp4823
g4819
I0
sg4820
I1
sg4821
I0
sg4822
I0
ssg56
I0
sg205
F11.11111111111111
sg57
I0
sg356
I0
sg357
I0
sg60
I0
sg61
I0
sg62
I0
sg63
(S'dummy'
p4824
S'PI'
p4825
S'N8'
p4826
S'TA'
p4827
tp4828
sg68
I00
sg69
g36
(g37
g38
Ntp4829
Rp4830
(dp4831
g42
I3
sg43
S'<<<'
p4832
sg45
g4817
sbsg70
(dp4833
g4819
I2
sg4820
I13
sg4821
I1
sg4822
I6
ssg59
I00
sg78
(dp4834
g4819
I0
sg4820
I1
sg4821
I0
sg4822
I0
ssg80
(dp4835
g4819
I2
sg4820
I13
sg4821
I1
sg4822
I6
ssg82
I0
sg83
I0
sg84
S'Ngaod'
p4836
sg86
I11
sg87
I0
sg88
I22
sg89
I200
sg90
S'DKW'
p4837
sg92
(dp4838
S'A'
p4839
I9
sS'ME'
p4840
I12
sS'RP2'
p4841
I7
sS'E'
p4842
I12
sS'P'
p4843
I3
sS'RP1'
p4844
I13
sS'JP'
p4845
I0
sS'RP_tot'
p4846
I13
sS'TO'
p4847
I5
sS'PA'
p4848
I6
sS'M'
p4849
I10
sS'R'
p4850
I11
sS'TB'
p4851
I2
sS'PL'
p4852
I10
sS'TA'
p4853
I11
ssg201
I0
sg202
I0
sg203
I0
sg204
I0
sg76
(dp4854
g4819
I0
sg4820
I0
sg4821
I0
sg4822
I0
ssg206
I0
sg474
I0
sg207
I0
sg208
I0
sg209
(dp4855
S'A'
p4856
I9
sS'ME'
p4857
I12
sS'RP2'
p4858
I7
sS'E'
p4859
I12
sS'P'
p4860
I3
sS'RP1'
p4861
I13
sS'JP'
p4862
I0
sS'RP_tot'
p4863
I13
sS'TO'
p4864
I5
sS'PA'
p4865
I6
sS'M'
p4866
I10
sS'R'
p4867
I11
sS'TB'
p4868
I2
sS'PL'
p4869
I10
sS'TA'
p4870
I11
ssg226
g4838
sg227
I0
sg228
g31
sg229
I0
sg230
I0
sg231
I0
sg232
I21
sg233
I0
sg234
I0
sg235
S'HB'
p4871
sbssg201
I14
sg202
I0
sg203
I0
sg204
I0
sg205
F11.555555555555555
sg206
I0
sg474
I0
sg207
I0
sg208
I0
sg209
(dp4872
g2728
I9
sg2729
I12
sg2730
I7
sg2731
I12
sg2732
I5
sg2733
I13
sg2734
I0
sg2735
I13
sg2736
I3
sg2737
I6
sg2738
I10
sg2739
I11
sg2740
I2
sg2741
I10
sg2742
I11
ssg226
g4809
sg227
I0
sg228
g31
sg229
I0
sg230
I0
sg231
I0
sg232
I21
sg233
I3
sg234
I0
sg235
S'HB'
p4873
sbsg2744
(ijoueur
joueur
p4874
(dp4875
g28
I0
sg32
I0
sg34
I0
sg35
g36
(g37
g38
Ntp4876
Rp4877
(dp4878
g42
I3
sg43
S'<<<'
p4879
sg45
S'rare'
p4880
sbsg47
(dp4881
S'SR'
p4882
I0
sS'CT'
p4883
I0
sS'CR'
p4884
I0
sS'ST'
p4885
I0
ssg53
(dp4886
g4882
I0
sg4883
I1
sg4884
I0
sg4885
I0
ssg56
I0
sg205
F11.11111111111111
sg57
I0
sg356
I0
sg357
I0
sg60
I0
sg61
I0
sg62
I0
sg63
(S'dummy'
p4887
S'PI'
p4888
S'N8'
p4889
S'TA'
p4890
tp4891
sg68
I00
sg69
g36
(g37
g38
Ntp4892
Rp4893
(dp4894
g42
I3
sg43
S'<<<'
p4895
sg45
g4880
sbsg70
(dp4896
g4882
I2
sg4883
I13
sg4884
I1
sg4885
I6
ssg59
I00
sg78
(dp4897
g4882
I0
sg4883
I1
sg4884
I0
sg4885
I0
ssg80
(dp4898
g4882
I2
sg4883
I13
sg4884
I1
sg4885
I6
ssg82
I0
sg83
I0
sg84
S'Ngaod'
p4899
sg86
I11
sg87
I0
sg88
I22
sg89
I200
sg90
S'DKW'
p4900
sg92
(dp4901
S'A'
p4902
I9
sS'ME'
p4903
I12
sS'RP2'
p4904
I7
sS'E'
p4905
I12
sS'P'
p4906
I3
sS'RP1'
p4907
I13
sS'JP'
p4908
I0
sS'RP_tot'
p4909
I13
sS'TO'
p4910
I5
sS'PA'
p4911
I6
sS'M'
p4912
I10
sS'R'
p4913
I11
sS'TB'
p4914
I2
sS'PL'
p4915
I10
sS'TA'
p4916
I11
ssg201
I0
sg202
I0
sg203
I0
sg204
I0
sg76
(dp4917
g4882
I0
sg4883
I0
sg4884
I0
sg4885
I0
ssg206
I0
sg474
I0
sg207
I0
sg208
I0
sg209
(dp4918
S'A'
p4919
I9
sS'ME'
p4920
I12
sS'RP2'
p4921
I7
sS'E'
p4922
I12
sS'P'
p4923
I3
sS'RP1'
p4924
I13
sS'JP'
p4925
I0
sS'RP_tot'
p4926
I13
sS'TO'
p4927
I5
sS'PA'
p4928
I6
sS'M'
p4929
I10
sS'R'
p4930
I11
sS'TB'
p4931
I2
sS'PL'
p4932
I10
sS'TA'
p4933
I11
ssg226
g4901
sg227
I0
sg228
g31
sg229
I0
sg230
I0
sg231
I0
sg232
I21
sg233
I0
sg234
I0
sg235
S'HB'
p4934
sbssg201
I0
sg202
I0
sg203
I0
sg204
I0
sg76
(dp4935
g2595
I0
sg2596
I1
sg2597
I0
sg2598
I0
ssg206
I0
sg58
F191.63576052597136
sg474
I0
sg207
I0
sg208
I0
sg209
(dp4936
g2808
I9
sg2809
I12
sg2810
I7
sg2811
I12
sg2812
I5
sg2813
I13
sg2814
I0
sg2815
I13
sg2816
I3
sg2817
I6
sg2818
I10
sg2819
I11
sg2820
I2
sg2821
I10
sg2822
I11
ssg226
(dp4937
g2604
I9
sg2605
I14
sg2606
I7
sg2607
I12
sg2612
I5
sg2609
I13
sg2610
I0
sg2611
I13
sg2608
I3
sg2613
I6
sg2614
I10
sg2615
I12
sg2616
I2
sg2617
I8
sg2618
I8
ssg227
I1
sg333
(dp4938
sg229
I0
sg228
g31
sg230
I0
sg231
I0
sg232
I21
sg233
I5
sg234
I0
sg235
S'HB'
p4939
sbsS'n2'
p4940
g591
sS'n3'
p4941
(ijoueur
joueur
p4942
(dp4943
g27
F10.481481481481481
sg28
I0
sg29
F11.555555555555555
sg30
g31
sg32
I0
sg33
F216.84909856561285
sg34
I0
sg35
g36
(g37
g38
Ntp4944
Rp4945
(dp4946
g42
I4
sg43
S'*'
p4947
sg45
g2064
sbsg47
(dp4948
g2066
I0
sg2067
I1
sg2068
I0
sg2069
I0
ssg53
(dp4949
g2066
I0
sg2067
I0
sg2068
I0
sg2069
I0
ssg55
I0
sg56
I0
sg205
F11.925925925925926
sg57
I0
sg58
F216.84909856561285
sg60
I2
sg61
I0
sg62
I0
sg63
(g2071
S'PI'
p4950
S'TA'
p4951
g31
tp4952
sg68
I00
sg69
g4945
sg70
(dp4953
g2075
I0
sg2076
I14
sg2077
I1
sg2078
I4
ssg59
I00
sg78
(dp4954
g2075
I0
sg2076
I0
sg2077
I0
sg2078
I0
ssg80
(dp4955
g2066
I0
sg2067
I40
sg2068
I2
sg2069
I12
ssg82
I0
sg83
I0
sg84
S'Trivyzgh'
p4956
sg86
I11
sg87
I0
sg88
I24
sg89
I180
sg90
g2082
sg92
(dp4957
g2084
I8
sg2085
I14
sg2086
I7
sg2087
I11
sg2088
I7
sg2089
I13
sg2090
I4
sg2091
I13
sg2092
I5
sg2093
I8
sg2094
I12
sg2095
I12
sg2096
I4
sg2097
I12
sg2098
I9
ssg109
(dp4958
g2100
(ijoueur
joueur
p4959
(dp4960
g27
F10.481481481481481
sg28
I0
sg30
g31
sg32
I0
sg34
I0
sg35
g36
(g37
g38
Ntp4961
Rp4962
(dp4963
g42
I4
sg43
S'*'
p4964
sg45
g2107
sbsg47
(dp4965
g2109
I0
sg2110
I1
sg2111
I0
sg2112
I0
ssg53
(dp4966
g2109
I0
sg2110
I0
sg2111
I0
sg2112
I0
ssg56
I0
sg57
I0
sg59
I01
sg60
I1
sg61
I0
sg62
I0
sg63
(g2114
S'PI'
p4967
S'TA'
p4968
g31
tp4969
sg68
I00
sg69
g4962
sg70
(dp4970
g2118
I0
sg2119
I6
sg2120
I0
sg2121
I13
ssg76
(dp4971
g2118
I0
sg2119
I0
sg2120
I0
sg2121
I1
ssg78
(dp4972
g2118
I0
sg2119
I0
sg2120
I0
sg2121
I0
ssg80
(dp4973
g2109
I0
sg2110
I26
sg2111
I1
sg2112
I7
ssg82
I0
sg83
I0
sg84
S'Trivyzgh'
p4974
sg86
I11
sg87
I0
sg88
I24
sg89
I180
sg90
g2126
sg92
(dp4975
g2128
I8
sg2129
I12
sg2130
I7
sg2131
I11
sg2132
I5
sg2133
I13
sg2134
I4
sg2135
I13
sg2136
I7
sg2137
I8
sg2138
I12
sg2139
I12
sg2140
I4
sg2141
I12
sg2142
I9
ssg109
(dp4976
g2144
(ijoueur
joueur
p4977
(dp4978
g28
I0
sg32
I0
sg34
I0
sg35
g36
(g37
g38
Ntp4979
Rp4980
(dp4981
g42
I4
sg43
S'*'
p4982
sg45
S'heros'
p4983
sbsg47
(dp4984
S'SR'
p4985
I0
sS'ST'
p4986
I0
sS'CR'
p4987
I0
sS'CT'
p4988
I0
ssg53
(dp4989
g4985
I0
sg4986
I0
sg4987
I0
sg4988
I0
ssg56
I0
sg57
I0
sg59
I00
sg60
I1
sg61
I0
sg62
I0
sg63
(S'dummy'
p4990
S'PI'
p4991
S'TA'
p4992
g31
tp4993
sg68
I00
sg69
g36
(g37
g38
Ntp4994
Rp4995
(dp4996
g42
I3
sg43
S'<<<'
p4997
sg45
S'rare'
p4998
sbsg70
(dp4999
g4985
I0
sg4986
I0
sg4987
I1
sg4988
I13
ssg76
(dp5000
g4985
I0
sg4986
I0
sg4987
I0
sg4988
I0
ssg78
(dp5001
g4985
I0
sg4986
I0
sg4987
I0
sg4988
I0
ssg80
(dp5002
g4985
I0
sg4986
I0
sg4987
I1
sg4988
I13
ssg82
I0
sg83
I0
sg84
S'Trivyzgh'
p5003
sg86
I11
sg87
I0
sg88
I24
sg89
I180
sg90
S'BRB'
p5004
sg92
(dp5005
S'A'
p5006
I6
sS'ME'
p5007
I11
sS'RP2'
p5008
I7
sS'E'
p5009
I11
sS'TO'
p5010
I5
sS'RP1'
p5011
I12
sS'JP'
p5012
I0
sS'RP_tot'
p5013
I12
sS'P'
p5014
I1
sS'PA'
p5015
I6
sS'M'
p5016
I12
sS'R'
p5017
I11
sS'TB'
p5018
I0
sS'PL'
p5019
I10
sS'TA'
p5020
I9
ssg201
I0
sg202
I0
sg203
I0
sg204
I0
sg205
F10.481481481481481
sg206
I0
sg207
I0
sg208
I1
sg209
(dp5021
S'A'
p5022
I6
sS'ME'
p5023
I11
sS'RP2'
p5024
I7
sS'E'
p5025
I11
sS'TO'
p5026
I5
sS'RP1'
p5027
I12
sS'JP'
p5028
I0
sS'RP_tot'
p5029
I12
sS'P'
p5030
I1
sS'PA'
p5031
I6
sS'M'
p5032
I12
sS'R'
p5033
I11
sS'TB'
p5034
I0
sS'PL'
p5035
I10
sS'TA'
p5036
I9
ssg226
g5005
sg227
I0
sg228
g31
sg229
I0
sg230
I0
sg231
I0
sg232
I11
sg233
I1
sg234
I1
sg235
S'HB'
p5037
sbssg201
I18
sg202
I0
sg203
I0
sg204
I0
sg205
F11.555555555555555
sg206
I0
sg207
I0
sg208
I1
sg209
(dp5038
g2206
I6
sg2207
I11
sg2208
I7
sg2209
I11
sg2210
I5
sg2211
I12
sg2212
I0
sg2213
I12
sg2214
I1
sg2215
I6
sg2216
I12
sg2217
I11
sg2218
I0
sg2219
I10
sg2220
I9
ssg226
g4975
sg227
I0
sg228
g31
sg229
I0
sg230
I0
sg231
I0
sg232
I11
sg233
I2
sg234
I0
sg235
S'HB'
p5039
sbsg2222
(ijoueur
joueur
p5040
(dp5041
g28
I0
sg32
I0
sg34
I0
sg35
g36
(g37
g38
Ntp5042
Rp5043
(dp5044
g42
I4
sg43
S'*'
p5045
sg45
S'heros'
p5046
sbsg47
(dp5047
S'SR'
p5048
I0
sS'ST'
p5049
I0
sS'CR'
p5050
I0
sS'CT'
p5051
I0
ssg53
(dp5052
g5048
I0
sg5049
I0
sg5050
I0
sg5051
I0
ssg56
I0
sg57
I0
sg59
I00
sg60
I1
sg61
I0
sg62
I0
sg63
(S'dummy'
p5053
S'PI'
p5054
S'TA'
p5055
g31
tp5056
sg68
I00
sg69
g36
(g37
g38
Ntp5057
Rp5058
(dp5059
g42
I3
sg43
S'<<<'
p5060
sg45
S'rare'
p5061
sbsg70
(dp5062
g5048
I0
sg5049
I0
sg5050
I1
sg5051
I13
ssg76
(dp5063
g5048
I0
sg5049
I0
sg5050
I0
sg5051
I0
ssg78
(dp5064
g5048
I0
sg5049
I0
sg5050
I0
sg5051
I0
ssg80
(dp5065
g5048
I0
sg5049
I0
sg5050
I1
sg5051
I13
ssg82
I0
sg83
I0
sg84
S'Trivyzgh'
p5066
sg86
I11
sg87
I0
sg88
I24
sg89
I180
sg90
S'BRB'
p5067
sg92
(dp5068
S'A'
p5069
I6
sS'ME'
p5070
I11
sS'RP2'
p5071
I7
sS'E'
p5072
I11
sS'TO'
p5073
I5
sS'RP1'
p5074
I12
sS'JP'
p5075
I0
sS'RP_tot'
p5076
I12
sS'P'
p5077
I1
sS'PA'
p5078
I6
sS'M'
p5079
I12
sS'R'
p5080
I11
sS'TB'
p5081
I0
sS'PL'
p5082
I10
sS'TA'
p5083
I9
ssg201
I0
sg202
I0
sg203
I0
sg204
I0
sg205
F10.481481481481481
sg206
I0
sg207
I0
sg208
I1
sg209
(dp5084
S'A'
p5085
I6
sS'ME'
p5086
I11
sS'RP2'
p5087
I7
sS'E'
p5088
I11
sS'TO'
p5089
I5
sS'RP1'
p5090
I12
sS'JP'
p5091
I0
sS'RP_tot'
p5092
I12
sS'P'
p5093
I1
sS'PA'
p5094
I6
sS'M'
p5095
I12
sS'R'
p5096
I11
sS'TB'
p5097
I0
sS'PL'
p5098
I10
sS'TA'
p5099
I9
ssg226
g5068
sg227
I0
sg228
g31
sg229
I0
sg230
I0
sg231
I0
sg232
I11
sg233
I1
sg234
I1
sg235
S'HB'
p5100
sbssg201
I5
sg202
I0
sg203
I0
sg204
I0
sg76
(dp5101
g2075
I0
sg2076
I0
sg2077
I0
sg2078
I0
ssg206
I0
sg207
I0
sg208
I1
sg209
(dp5102
g2285
I6
sg2286
I11
sg2287
I7
sg2288
I11
sg2289
I5
sg2290
I12
sg2291
I0
sg2292
I12
sg2293
I1
sg2294
I6
sg2295
I12
sg2296
I11
sg2297
I0
sg2298
I10
sg2299
I9
ssg226
(dp5103
g2084
I8
sg2085
I14
sg2086
I7
sg2087
I11
sg2092
I5
sg2089
I13
sg2090
I4
sg2091
I13
sg2088
I7
sg2093
I8
sg2094
I12
sg2095
I12
sg2096
I4
sg2097
I12
sg2098
I9
ssg227
I0
sg333
(dp5104
sg229
I0
sg228
g31
sg230
I0
sg231
I0
sg232
I11
sg233
I4
sg234
I0
sg235
S'HB'
p5105
sbsS'n4'
p5106
(ijoueur
joueur
p5107
(dp5108
g27
F10.588235294117647
sg28
I0
sg29
F10.617647058823529
sg30
g31
sg32
I0
sg33
F213.79564117873372
sg34
I0
sg35
g36
(g37
g38
Ntp5109
Rp5110
(dp5111
g42
I4
sg43
S'*'
p5112
sg45
S'heros'
p5113
sbsg47
(dp5114
S'SR'
p5115
I0
sS'CT'
p5116
I0
sS'CR'
p5117
I0
sS'ST'
p5118
I0
ssg53
(dp5119
g5115
I0
sg5116
I0
sg5117
I0
sg5118
I0
ssg55
I0
sg56
I0
sg205
F11.222222222222221
sg57
I0
sg356
I0
sg357
I0
sg60
I0
sg61
I0
sg62
I0
sg63
(S'dummy'
p5120
S'PI'
p5121
S'DL'
p5122
g31
tp5123
sg68
I00
sg69
g36
(g37
g38
Ntp5124
Rp5125
(dp5126
g42
I4
sg43
g5112
sg45
g5113
sbsg70
(dp5127
S'SR'
p5128
I3
sS'CT'
p5129
I14
sS'CR'
p5130
I0
sS'ST'
p5131
I2
ssg59
I00
sg78
(dp5132
g5128
I0
sg5129
I0
sg5130
I0
sg5131
I0
ssg80
(dp5133
g5115
I10
sg5116
I33
sg5117
I12
sg5118
I10
ssg82
I0
sg83
I0
sg84
S'Brednh'
p5134
sg86
I7
sg87
I0
sg88
I18
sg89
I356
sg90
S'MRB'
p5135
sg92
(dp5136
S'A'
p5137
I11
sS'ME'
p5138
I15
sS'RP2'
p5139
I7
sS'E'
p5140
I8
sS'TO'
p5141
I11
sS'RP1'
p5142
I11
sS'JP'
p5143
I3
sS'RP_tot'
p5144
I11
sS'P'
p5145
I6
sS'PA'
p5146
I7
sS'M'
p5147
I9
sS'R'
p5148
I13
sS'TB'
p5149
I2
sS'PL'
p5150
I9
sS'TA'
p5151
I8
ssg109
(dp5152
S's12'
p5153
(ijoueur
joueur
p5154
(dp5155
g27
F10.588235294117647
sg28
I0
sg30
g31
sg32
I0
sg34
I0
sg35
g36
(g37
g38
Ntp5156
Rp5157
(dp5158
g42
I4
sg43
S'*'
p5159
sg45
S'heros'
p5160
sbsg47
(dp5161
S'SR'
p5162
I0
sS'CT'
p5163
I0
sS'CR'
p5164
I0
sS'ST'
p5165
I0
ssg53
(dp5166
g5162
I0
sg5163
I0
sg5164
I0
sg5165
I0
ssg56
I0
sg57
I0
sg356
I0
sg357
I0
sg59
I00
sg60
I2
sg61
I0
sg62
I0
sg63
(S'dummy'
p5167
S'PI'
p5168
S'DL'
p5169
g31
tp5170
sg68
I00
sg69
g36
(g37
g38
Ntp5171
Rp5172
(dp5173
g42
I4
sg43
g5159
sg45
g5160
sbsg70
(dp5174
S'SR'
p5175
I5
sS'CT'
p5176
I15
sS'CR'
p5177
I0
sS'ST'
p5178
I1
ssg76
(dp5179
g5175
I0
sg5176
I0
sg5177
I0
sg5178
I0
ssg78
(dp5180
g5175
I0
sg5176
I0
sg5177
I0
sg5178
I0
ssg80
(dp5181
g5162
I7
sg5163
I19
sg5164
I12
sg5165
I7
ssg82
I0
sg83
I0
sg84
S'Brednh'
p5182
sg86
I7
sg87
I0
sg88
I18
sg89
I356
sg90
S'MRB'
p5183
sg92
(dp5184
S'A'
p5185
I11
sS'ME'
p5186
I14
sS'RP2'
p5187
I7
sS'E'
p5188
I8
sS'P'
p5189
I6
sS'RP1'
p5190
I11
sS'JP'
p5191
I3
sS'RP_tot'
p5192
I11
sS'TO'
p5193
I11
sS'PA'
p5194
I7
sS'M'
p5195
I7
sS'R'
p5196
I11
sS'TB'
p5197
I2
sS'PL'
p5198
I9
sS'TA'
p5199
I8
ssg109
(dp5200
S's11'
p5201
(ijoueur
joueur
p5202
(dp5203
g28
I0
sg32
I0
sg34
I0
sg35
g36
(g37
g38
Ntp5204
Rp5205
(dp5206
g42
I4
sg43
S'*'
p5207
sg45
S'heros'
p5208
sbsg47
(dp5209
S'SR'
p5210
I0
sS'ST'
p5211
I0
sS'CR'
p5212
I0
sS'CT'
p5213
I0
ssg53
(dp5214
g5210
I0
sg5211
I0
sg5212
I0
sg5213
I0
ssg76
(dp5215
g5210
I0
sg5211
I0
sg5212
I0
sg5213
I0
ssg56
I0
sg57
I0
sg356
I0
sg357
I0
sg60
I1
sg61
I0
sg62
I0
sg63
(S'dummy'
p5216
S'PI'
p5217
S'DL'
p5218
g31
tp5219
sg68
I01
sg69
g36
(g37
g38
Ntp5220
Rp5221
(dp5222
g42
I4
sg43
g5207
sg45
g5208
sbsg70
(dp5223
g5210
I1
sg5211
I6
sg5212
I12
sg5213
I4
ssg59
I00
sg78
(dp5224
g5210
I0
sg5211
I0
sg5212
I0
sg5213
I0
ssg80
(dp5225
g5210
I1
sg5211
I6
sg5212
I12
sg5213
I4
ssg82
I0
sg83
I0
sg84
S'Brednh'
p5226
sg86
I7
sg87
I0
sg88
I18
sg89
I176
sg90
S'KAK'
p5227
sg92
(dp5228
S'A'
p5229
I11
sS'ME'
p5230
I13
sS'RP2'
p5231
I7
sS'E'
p5232
I9
sS'TO'
p5233
I11
sS'RP1'
p5234
I10
sS'JP'
p5235
I3
sS'RP_tot'
p5236
I10
sS'P'
p5237
I6
sS'PA'
p5238
I7
sS'M'
p5239
I7
sS'R'
p5240
I11
sS'TB'
p5241
I2
sS'PL'
p5242
I10
sS'TA'
p5243
I8
ssg201
I0
sg202
I0
sg203
I0
sg204
I0
sg205
F10.588235294117647
sg206
I0
sg474
I0
sg207
I0
sg208
I0
sg209
(dp5244
S'A'
p5245
I11
sS'ME'
p5246
I13
sS'RP2'
p5247
I7
sS'E'
p5248
I9
sS'TO'
p5249
I11
sS'RP1'
p5250
I10
sS'JP'
p5251
I3
sS'RP_tot'
p5252
I10
sS'P'
p5253
I6
sS'PA'
p5254
I7
sS'M'
p5255
I7
sS'R'
p5256
I11
sS'TB'
p5257
I2
sS'PL'
p5258
I10
sS'TA'
p5259
I8
ssg226
g5228
sg227
I0
sg228
g31
sg229
I0
sg230
I0
sg231
I0
sg232
I10
sg233
I13
sg234
I0
sg235
S'HB'
p5260
sbssg201
I5
sg202
I0
sg203
I0
sg204
I0
sg205
F10.617647058823529
sg206
I0
sg474
I0
sg207
I0
sg208
I0
sg209
(dp5261
S'A'
p5262
I11
sS'ME'
p5263
I13
sS'RP2'
p5264
I7
sS'E'
p5265
I9
sS'P'
p5266
I6
sS'RP1'
p5267
I10
sS'JP'
p5268
I3
sS'RP_tot'
p5269
I10
sS'TO'
p5270
I11
sS'PA'
p5271
I7
sS'M'
p5272
I7
sS'R'
p5273
I11
sS'TB'
p5274
I2
sS'PL'
p5275
I10
sS'TA'
p5276
I8
ssg226
g5184
sg227
I0
sg228
S'KAK 12'
p5277
sg229
I0
sg230
I0
sg231
I0
sg232
I15
sg233
I15
sg234
I0
sg235
S'HB'
p5278
sbsS's11'
p5279
(ijoueur
joueur
p5280
(dp5281
g28
I0
sg32
I0
sg34
I0
sg35
g36
(g37
g38
Ntp5282
Rp5283
(dp5284
g42
I4
sg43
S'*'
p5285
sg45
S'heros'
p5286
sbsg47
(dp5287
S'SR'
p5288
I0
sS'ST'
p5289
I0
sS'CR'
p5290
I0
sS'CT'
p5291
I0
ssg53
(dp5292
g5288
I0
sg5289
I0
sg5290
I0
sg5291
I0
ssg76
(dp5293
g5288
I0
sg5289
I0
sg5290
I0
sg5291
I0
ssg56
I0
sg57
I0
sg356
I0
sg357
I0
sg60
I1
sg61
I0
sg62
I0
sg63
(S'dummy'
p5294
S'PI'
p5295
S'DL'
p5296
g31
tp5297
sg68
I01
sg69
g36
(g37
g38
Ntp5298
Rp5299
(dp5300
g42
I4
sg43
g5285
sg45
g5286
sbsg70
(dp5301
g5288
I1
sg5289
I6
sg5290
I12
sg5291
I4
ssg59
I00
sg78
(dp5302
g5288
I0
sg5289
I0
sg5290
I0
sg5291
I0
ssg80
(dp5303
g5288
I1
sg5289
I6
sg5290
I12
sg5291
I4
ssg82
I0
sg83
I0
sg84
S'Brednh'
p5304
sg86
I7
sg87
I0
sg88
I18
sg89
I176
sg90
S'KAK'
p5305
sg92
(dp5306
S'A'
p5307
I11
sS'ME'
p5308
I13
sS'RP2'
p5309
I7
sS'E'
p5310
I9
sS'TO'
p5311
I11
sS'RP1'
p5312
I10
sS'JP'
p5313
I3
sS'RP_tot'
p5314
I10
sS'P'
p5315
I6
sS'PA'
p5316
I7
sS'M'
p5317
I7
sS'R'
p5318
I11
sS'TB'
p5319
I2
sS'PL'
p5320
I10
sS'TA'
p5321
I8
ssg201
I0
sg202
I0
sg203
I0
sg204
I0
sg205
F10.588235294117647
sg206
I0
sg474
I0
sg207
I0
sg208
I0
sg209
(dp5322
S'A'
p5323
I11
sS'ME'
p5324
I13
sS'RP2'
p5325
I7
sS'E'
p5326
I9
sS'TO'
p5327
I11
sS'RP1'
p5328
I10
sS'JP'
p5329
I3
sS'RP_tot'
p5330
I10
sS'P'
p5331
I6
sS'PA'
p5332
I7
sS'M'
p5333
I7
sS'R'
p5334
I11
sS'TB'
p5335
I2
sS'PL'
p5336
I10
sS'TA'
p5337
I8
ssg226
g5306
sg227
I0
sg228
g31
sg229
I0
sg230
I0
sg231
I0
sg232
I10
sg233
I13
sg234
I0
sg235
S'HB'
p5338
sbssg201
I5
sg202
I0
sg203
I0
sg204
I0
sg76
(dp5339
g5128
I0
sg5129
I0
sg5130
I0
sg5131
I0
ssg206
I0
sg58
F213.79564117873372
sg474
I0
sg207
I0
sg208
I0
sg209
(dp5340
S'A'
p5341
I11
sS'ME'
p5342
I13
sS'RP2'
p5343
I7
sS'E'
p5344
I9
sS'P'
p5345
I6
sS'RP1'
p5346
I10
sS'JP'
p5347
I3
sS'RP_tot'
p5348
I10
sS'TO'
p5349
I11
sS'PA'
p5350
I7
sS'M'
p5351
I7
sS'R'
p5352
I11
sS'TB'
p5353
I2
sS'PL'
p5354
I10
sS'TA'
p5355
I8
ssg226
(dp5356
g5137
I11
sg5138
I15
sg5139
I7
sg5140
I8
sg5145
I6
sg5142
I11
sg5143
I3
sg5144
I11
sg5141
I11
sg5146
I7
sg5147
I9
sg5148
I13
sg5149
I2
sg5150
I9
sg5151
I8
ssg227
I0
sg333
(dp5357
sg229
I0
sg228
S'KAK 12'
p5358
sg230
I0
sg231
I0
sg232
I15
sg233
I15
sg234
I0
sg235
S'HB'
p5359
sbsS'n5'
p5360
g1644
sS'n6'
p5361
g25
sS'n7'
p5362
g857
ssS'remplacements'
p5363
(dp5364
g3254
S'n0'
p5365
sg3506
g5365
sg3759
g5365
sg4014
g5365
sg4270
g5365
sg4320
g5365
sg4594
g5365
ssb.