(iclub
compo
p0
(dp1
S'caracs_old'
p2
(dp3
S'A'
p4
F160.0
sS'ME'
p5
F89.5
sS'E'
p6
I205
sS'OplusAV'
p7
F86.0
sS'TO_off'
p8
F116.5
sS'OplusAR'
p9
F113.5
sS'M'
p10
F59.5
sS'JP'
p11
F110.5
sS'OmoinsAR'
p12
F43.5
sS'PA'
p13
F114.0
sS'TO_def'
p14
F106.5
sS'OmoinsAV'
p15
F70.5
sS'R'
p16
F159.5
ssS'totaux_old'
p17
(dp18
S'T2'
p19
F192.25
sS'T3'
p20
F102.5
sS'T1'
p21
F180.25
ssS'roles'
p22
(dp23
S'drop1'
p24
(ijoueur
joueur
p25
(dp26
S'rouges_total'
p27
I0
sS'drops_total'
p28
I9
sS'blessure'
p29
I0
sS'RG_max'
p30
(ijoueur
rang
p31
(dp32
S'type_nb'
p33
I5
sS'rang'
p34
S'**'
p35
sS'type'
p36
S'seigneur'
p37
sbsS'MJ2_total'
p38
(dp39
S'SR'
p40
I0
sS'CT'
p41
I0
sS'CR'
p42
I0
sS'ST'
p43
I0
ssS'MJ3_total'
p44
(dp45
g40
I0
sg41
I0
sg42
I0
sg43
I0
ssS'drop_rates_total'
p46
I0
sS'drop_rates_saison'
p47
I0
sS'essais_saison'
p48
I0
sS'penalite_ratees_saison'
p49
I1
sS'transformations_saison'
p50
I9
sS'postes'
p51
(S'dummy'
p52
S'C1'
p53
S'DO'
p54
S'DM'
p55
tp56
sS'RG'
p57
(ijoueur
rang
p58
(dp59
g33
I5
sg34
S'**'
p60
sg36
g37
sbsS'MJ1'
p61
(dp62
g40
I0
sg41
I8
sg42
I0
sg43
I0
ssS'MJ2'
p63
(dp64
g40
I0
sg41
I0
sg42
I0
sg43
I0
ssS'MJ3'
p65
(dp66
g40
I0
sg41
I0
sg42
I0
sg43
I0
ssS'MJ1_total'
p67
(dp68
g40
I0
sg41
I8
sg42
I0
sg43
I0
ssS'penalites_total'
p69
I45
sS'penalites_saison'
p70
I12
sS'nom'
p71
S'Srud'
p72
sS'C'
p73
I4
sS'transformations_total'
p74
I52
sS'D'
p75
I12
sS'VAL'
p76
I181
sS'club'
p77
S'TO'
p78
sS'caracs'
p79
(dp80
S'A'
p81
I12
sS'ME'
p82
I6
sS'RP2'
p83
I13
sS'E'
p84
I11
sS'TO'
p85
I7
sS'RP1'
p86
I7
sS'JP'
p87
I10
sS'RP_tot'
p88
I13
sS'P'
p89
I9
sS'PA'
p90
I12
sS'M'
p91
I10
sS'R'
p92
I5
sS'TB'
p93
I11
sS'PL'
p94
I7
sS'TA'
p95
I5
ssS'fatigue'
p96
I13
sS'drop_ratees_total'
p97
I0
sS'blessures_total'
p98
I0
sS'XP'
p99
I0
sS'EV'
p100
F10.5625
sS'penalite_ratees_total'
p101
I1
sS'blessures_saison'
p102
I0
sS'jaunes_total'
p103
I1
sS'caracs_sans_fatigue'
p104
(dp105
g81
I13
sg82
I6
sg83
I13
sg84
I11
sg89
I9
sg86
I7
sg87
I10
sg88
I13
sg85
I7
sg90
I12
sg91
I10
sg92
I6
sg93
I11
sg94
I8
sg95
I5
ssS'rouges_saison'
p106
I0
sS'anciens_clubs'
p107
S''
p108
sS'transformation_ratees_total'
p109
I1
sS'drops_saison'
p110
I0
sS'transformation_ratees_saison'
p111
I1
sS'MS'
p112
I18
sS'essais_total'
p113
I16
sS'jaunes_saison'
p114
I1
sS'ARM'
p115
S'S'
p116
sbsS'SA_scd'
p117
(ijoueur
joueur
p118
(dp119
g27
I0
sg28
I0
sg29
I0
sg30
(ijoueur
rang
p120
(dp121
g33
I5
sg34
S'**'
p122
sg36
g37
sbsg38
(dp123
g40
I0
sg41
I0
sg42
I0
sg43
I0
ssg44
(dp124
g40
I0
sg41
I0
sg42
I0
sg43
I0
ssg46
I0
sg47
I0
sg48
I0
sg49
I0
sg50
I0
sg51
(g52
S'DL'
p125
g108
g108
tp126
sg57
(ijoueur
rang
p127
(dp128
g33
I5
sg34
S'**'
p129
sg36
g37
sbsg61
(dp130
g40
I0
sg41
I2
sg42
I5
sg43
I0
ssg63
(dp131
g40
I0
sg41
I0
sg42
I0
sg43
I0
ssg65
(dp132
g40
I0
sg41
I0
sg42
I0
sg43
I0
ssg67
(dp133
g40
I0
sg41
I2
sg42
I5
sg43
I0
ssg69
I0
sg70
I0
sg71
S'Skoss'
p134
sg73
I7
sg74
I0
sg75
I18
sg76
I198
sg77
g78
sg79
(dp135
g81
I12
sg82
I10
sg83
I9
sg84
I10
sg85
I12
sg86
I8
sg87
I6
sg88
I10
sg89
I6
sg90
I10
sg91
I8
sg92
I9
sg93
I6
sg94
I9
sg95
I5
ssg96
I7
sg97
I0
sg98
I1
sg99
I0
sg100
F10.147058823529411
sg101
I0
sg102
I1
sg103
I0
sg104
(dp136
g81
I12
sg82
I10
sg83
I9
sg84
I10
sg89
I6
sg86
I8
sg87
I6
sg88
I10
sg85
I12
sg90
I10
sg91
I8
sg92
I9
sg93
I6
sg94
I9
sg95
I5
ssg106
I0
sg107
g108
sg109
I0
sg110
I0
sg111
I0
sg112
I18
sg113
I6
sg114
I0
sg115
g116
sbsS'RJL'
p137
(ijoueur
joueur
p138
(dp139
g27
I0
sg28
I28
sg29
I0
sg30
(ijoueur
rang
p140
(dp141
g33
I5
sg34
S'**'
p142
sg36
g37
sbsg38
(dp143
g40
I0
sg41
I0
sg42
I0
sg43
I0
ssg44
(dp144
g40
I0
sg41
I0
sg42
I0
sg43
I0
ssg46
I1
sg47
I1
sg48
I0
sg49
I3
sg50
I0
sg51
(g52
S'DO'
p145
S'DM'
p146
S'CE'
p147
tp148
sg57
(ijoueur
rang
p149
(dp150
g33
I5
sg34
S'**'
p151
sg36
g37
sbsg61
(dp152
g40
I0
sg41
I7
sg42
I0
sg43
I0
ssg63
(dp153
g40
I0
sg41
I0
sg42
I0
sg43
I0
ssg65
(dp154
g40
I0
sg41
I0
sg42
I0
sg43
I0
ssg67
(dp155
g40
I0
sg41
I7
sg42
I0
sg43
I0
ssg69
I215
sg70
I21
sg71
S'Hoerdal'
p156
sg73
I5
sg74
I170
sg75
I12
sg76
I221
sg77
g78
sg79
(dp157
g81
I12
sg82
I4
sg83
I10
sg84
I10
sg85
I6
sg86
I7
sg87
I13
sg88
I10
sg89
I12
sg90
I14
sg91
I8
sg92
I6
sg93
I9
sg94
I10
sg95
I7
ssg96
I11
sg97
I0
sg98
I0
sg99
I0
sg100
F11.484848484848484
sg101
I3
sg102
I0
sg103
I0
sg104
(dp158
g81
I13
sg82
I4
sg83
I10
sg84
I10
sg89
I12
sg86
I7
sg87
I13
sg88
I10
sg85
I6
sg90
I14
sg91
I8
sg92
I7
sg93
I9
sg94
I11
sg95
I7
ssg106
I0
sg107
g108
sg109
I0
sg110
I0
sg111
I0
sg112
I25
sg113
I16
sg114
I0
sg115
S'EN'
p159
sbsS'cap'
p160
(ijoueur
joueur
p161
(dp162
g27
I0
sg28
I0
sg29
I0
sg30
(ijoueur
rang
p163
(dp164
g33
I5
sg34
S'**'
p165
sg36
g37
sbsg38
(dp166
g40
I0
sg41
I0
sg42
I0
sg43
I0
ssg44
(dp167
g40
I0
sg41
I0
sg42
I0
sg43
I0
ssg46
I0
sg47
I0
sg48
I0
sg49
I0
sg50
I0
sg51
(g52
S'DL'
p168
S'TL'
p169
g108
tp170
sg57
(ijoueur
rang
p171
(dp172
g33
I5
sg34
S'**'
p173
sg36
g37
sbsg61
(dp174
g40
I0
sg41
I7
sg42
I0
sg43
I0
ssg63
(dp175
g40
I0
sg41
I0
sg42
I0
sg43
I0
ssg65
(dp176
g40
I0
sg41
I0
sg42
I0
sg43
I0
ssg67
(dp177
g40
I0
sg41
I7
sg42
I0
sg43
I0
ssg69
I0
sg70
I0
sg71
S'Centanael'
p178
sg73
I5
sg74
I0
sg75
I14
sg76
I150
sg77
g78
sg79
(dp179
g81
I11
sg82
I10
sg83
I8
sg84
I14
sg85
I13
sg86
I7
sg87
I7
sg88
I8
sg89
I9
sg90
I11
sg91
I8
sg92
I8
sg93
I8
sg94
I10
sg95
I7
ssg96
I14
sg97
I0
sg98
I0
sg99
I0
sg100
F10.852941176470589
sg101
I0
sg102
I0
sg103
I0
sg104
(dp180
g81
I12
sg82
I10
sg83
I8
sg84
I14
sg89
I9
sg86
I7
sg87
I7
sg88
I8
sg85
I13
sg90
I11
sg91
I8
sg92
I9
sg93
I8
sg94
I11
sg95
I7
ssg106
I0
sg107
S'FS 10'
p181
sg109
I0
sg110
I0
sg111
I0
sg112
I31
sg113
I6
sg114
I0
sg115
S'ES'
p182
sbsS'B4'
p183
g138
sS'RJC'
p184
g138
sS'B1'
p185
g25
sS'B2'
p186
g25
sS'B3'
p187
g25
sS'SA_pcp2'
p188
(ijoueur
joueur
p189
(dp190
g27
I0
sg28
I0
sg29
I0
sg30
(ijoueur
rang
p191
(dp192
g33
I4
sg34
S'x'
p193
sg36
S'heros'
p194
sbsg38
(dp195
g40
I0
sg41
I0
sg42
I0
sg43
I0
ssg44
(dp196
g40
I0
sg41
I7
sg42
I0
sg43
I0
ssg46
I0
sg47
I0
sg48
I2
sg49
I0
sg50
I0
sg51
(g52
S'TL'
p197
S'N8'
p198
S'DL'
p199
tp200
sg57
(ijoueur
rang
p201
(dp202
g33
I4
sg34
g193
sg36
g194
sbsg61
(dp203
g40
I0
sg41
I0
sg42
I0
sg43
I0
ssg63
(dp204
g40
I0
sg41
I0
sg42
I0
sg43
I0
ssg65
(dp205
g40
I0
sg41
I7
sg42
I0
sg43
I0
ssg67
(dp206
g40
I0
sg41
I0
sg42
I0
sg43
I0
ssg69
I0
sg70
I0
sg71
S'Srend'
p207
sg73
I4
sg74
I0
sg75
I15
sg76
I390
sg77
g78
sg79
(dp208
g81
I10
sg82
I11
sg83
I9
sg84
I9
sg85
I12
sg86
I13
sg87
I4
sg88
I15
sg89
I4
sg90
I9
sg91
I7
sg92
I10
sg93
I3
sg94
I11
sg95
I8
ssg96
I11
sg97
I0
sg98
I0
sg99
I0
sg100
F11.289473684210526
sg101
I0
sg102
I0
sg103
I0
sg104
(dp209
g81
I11
sg82
I11
sg83
I9
sg84
I9
sg89
I4
sg86
I13
sg87
I4
sg88
I15
sg85
I12
sg90
I9
sg91
I7
sg92
I11
sg93
I3
sg94
I12
sg95
I8
ssg106
I0
sg107
S'HTH 8'
p210
sg109
I0
sg110
I0
sg111
I0
sg112
I30
sg113
I21
sg114
I0
sg115
S'CHS'
p211
sbsS'SA_pcp1'
p212
g161
sS'drop3'
p213
g138
sS'SA_remp1'
p214
(ijoueur
joueur
p215
(dp216
g27
I0
sg28
I0
sg29
I0
sg30
(ijoueur
rang
p217
(dp218
g33
I4
sg34
g193
sg36
g194
sbsg38
(dp219
g40
I0
sg41
I0
sg42
I0
sg43
I0
ssg44
(dp220
g40
I0
sg41
I6
sg42
I0
sg43
I0
ssg46
I0
sg47
I0
sg48
I0
sg49
I0
sg50
I0
sg51
(g52
S'N8'
p221
S'DL'
p222
S'TL'
p223
tp224
sg57
(ijoueur
rang
p225
(dp226
g33
I4
sg34
g193
sg36
g194
sbsg61
(dp227
g40
I0
sg41
I0
sg42
I0
sg43
I0
ssg63
(dp228
g40
I0
sg41
I0
sg42
I0
sg43
I0
ssg65
(dp229
g40
I0
sg41
I6
sg42
I0
sg43
I0
ssg67
(dp230
g40
I0
sg41
I0
sg42
I0
sg43
I0
ssg69
I0
sg70
I0
sg71
S'Hydoel'
p231
sg73
I3
sg74
I0
sg75
I12
sg76
I240
sg77
g78
sg79
(dp232
g81
I11
sg82
I7
sg83
I7
sg84
I10
sg85
I11
sg86
I11
sg87
I3
sg88
I11
sg89
I4
sg90
I9
sg91
I7
sg92
I11
sg93
I3
sg94
I13
sg95
I4
ssg96
I3
sg97
I0
sg98
I0
sg99
I0
sg100
F10.666666666666666
sg101
I0
sg102
I0
sg103
I0
sg104
(dp233
g81
I11
sg82
I7
sg83
I7
sg84
I10
sg89
I4
sg86
I11
sg87
I3
sg88
I11
sg85
I11
sg90
I9
sg91
I7
sg92
I11
sg93
I3
sg94
I13
sg95
I4
ssg106
I0
sg107
S'QNL 10'
p234
sg109
I0
sg110
I0
sg111
I0
sg112
I24
sg113
I6
sg114
I0
sg115
S'CHS'
p235
sbsS'drop2'
p236
(ijoueur
joueur
p237
(dp238
g27
I0
sg28
I2
sg29
I0
sg30
(ijoueur
rang
p239
(dp240
g33
I5
sg34
S'**'
p241
sg36
g37
sbsg38
(dp242
g40
I0
sg41
I1
sg42
I0
sg43
I0
ssg44
(dp243
g40
I0
sg41
I0
sg42
I0
sg43
I0
ssg46
I1
sg47
I1
sg48
I0
sg49
I0
sg50
I0
sg51
(g52
S'DM'
p244
S'DO'
p245
g108
tp246
sg57
(ijoueur
rang
p247
(dp248
g33
I5
sg34
S'**'
p249
sg36
g37
sbsg61
(dp250
g40
I0
sg41
I6
sg42
I0
sg43
I0
ssg63
(dp251
g40
I0
sg41
I1
sg42
I0
sg43
I0
ssg65
(dp252
g40
I0
sg41
I0
sg42
I0
sg43
I0
ssg67
(dp253
g40
I0
sg41
I6
sg42
I0
sg43
I0
ssg69
I0
sS'carton_jaunes_saison'
p254
I1
sg70
I0
sg71
S'Ludalr'
p255
sg73
I6
sg74
I0
sg75
I14
sg76
I126
sg77
g78
sS'carton_jaunes_total'
p256
I1
sg79
(dp257
g81
I8
sg82
I5
sg83
I10
sg84
I11
sg85
I9
sg86
I8
sg87
I11
sg88
I11
sg89
I12
sg90
I12
sg91
I8
sg92
I5
sg93
I8
sg94
I9
sg95
I4
ssg96
I10
sg97
I0
sg98
I0
sg99
I0
sg100
F10.517241379310345
sg101
I0
sg102
I0
sg103
I0
sg104
(dp258
g81
I9
sg82
I5
sg83
I10
sg84
I11
sg89
I12
sg86
I8
sg87
I11
sg88
I11
sg85
I9
sg90
I12
sg91
I8
sg92
I6
sg93
I8
sg94
I10
sg95
I4
ssg106
I0
sg107
g108
sg109
I0
sg110
I1
sg111
I0
sg112
I14
sg113
I7
sg114
I0
sg115
g116
sbsS'SA_remp2'
p259
(ijoueur
joueur
p260
(dp261
g27
I0
sg28
I0
sg29
I0
sg30
(ijoueur
rang
p262
(dp263
g33
I5
sg34
S'xx'
p264
sg36
g37
sbsg38
(dp265
g40
I0
sg41
I6
sg42
I0
sg43
I0
ssg44
(dp266
g40
I0
sg41
I0
sg42
I0
sg43
I0
ssg46
I0
sg47
I0
sg48
I0
sg49
I0
sg50
I0
sg51
(g52
S'N8'
p267
S'TL'
p268
g108
tp269
sg57
(ijoueur
rang
p270
(dp271
g33
I4
sg34
S'*'
p272
sg36
g194
sbsg61
(dp273
g40
I0
sg41
I1
sg42
I0
sg43
I0
ssg63
(dp274
g40
I0
sg41
I6
sg42
I0
sg43
I0
ssg65
(dp275
g40
I0
sg41
I0
sg42
I0
sg43
I0
ssg67
(dp276
g40
I0
sg41
I1
sg42
I0
sg43
I0
ssg69
I0
sg70
I0
sg71
S'Zerhen'
p277
sg73
I7
sg74
I0
sg75
I20
sg76
I80
sg77
g78
sg79
(dp278
g81
I9
sg82
I8
sg83
I7
sg84
I13
sg85
I10
sg86
I11
sg87
I5
sg88
I11
sg89
I5
sg90
I7
sg91
I10
sg92
I10
sg93
I5
sg94
I11
sg95
I3
ssg96
I8
sg97
I0
sg98
I0
sg99
I0
sg100
F10.862068965517242
sg101
I0
sg102
I0
sg103
I0
sg104
(dp279
g81
I10
sg82
I8
sg83
I7
sg84
I13
sg89
I5
sg86
I11
sg87
I5
sg88
I11
sg85
I10
sg90
I7
sg91
I10
sg92
I11
sg93
I5
sg94
I12
sg95
I3
ssg106
I0
sg107
g108
sg109
I0
sg110
I0
sg111
I0
sg112
I8
sg113
I2
sg114
I0
sg115
S'HB'
p280
sbssS'totaux'
p281
(dp282
g19
I0
sg20
I0
sg21
I0
ssS'_compo_defaut_fatigue'
p283
Nsg79
(dp284
g4
I0
sg5
I0
sg6
I0
sg7
I0
sg8
I0
sg9
I0
sg10
I0
sg11
I0
sg12
I0
sg13
I0
sg14
I0
sg15
I0
sg16
I0
ssS'joueurs'
p285
(dp286
S'n12'
p287
g25
sS'n13'
p288
(ijoueur
joueur
p289
(dp290
g27
I0
sg28
I0
sg29
I0
sg30
(ijoueur
rang
p291
(dp292
g33
I5
sg34
S'**'
p293
sg36
g37
sbsg38
(dp294
g40
I0
sg41
I0
sg42
I0
sg43
I0
ssg44
(dp295
g40
I0
sg41
I0
sg42
I0
sg43
I0
ssg46
I0
sg47
I0
sg48
I0
sg49
I0
sg50
I0
sg51
(g52
S'C2'
p296
S'AI'
p297
g108
tp298
sg57
(ijoueur
rang
p299
(dp300
g33
I5
sg34
S'**'
p301
sg36
g37
sbsg61
(dp302
g40
I0
sg41
I1
sg42
I6
sg43
I0
ssg63
(dp303
g40
I0
sg41
I0
sg42
I0
sg43
I0
ssg65
(dp304
g40
I0
sg41
I0
sg42
I0
sg43
I0
ssg67
(dp305
g40
I0
sg41
I1
sg42
I6
sg43
I0
ssg69
I1
sg70
I0
sg71
S'De Laheault'
p306
sg73
I7
sg74
I0
sg75
I15
sg76
I264
sg77
g78
sg79
(dp307
g81
I10
sg82
I7
sg83
I11
sg84
I9
sg85
I8
sg86
I9
sg87
I6
sg88
I13
sg89
I9
sg90
I12
sg91
I8
sg92
I7
sg93
I8
sg94
I12
sg95
I4
ssg96
I3
sg97
I0
sg98
I0
sg99
I0
sg100
F10.413793103448276
sg101
I0
sg102
I0
sg103
I0
sg104
(dp308
g81
I10
sg82
I7
sg83
I11
sg84
I9
sg89
I9
sg86
I9
sg87
I6
sg88
I13
sg85
I8
sg90
I12
sg91
I8
sg92
I7
sg93
I8
sg94
I12
sg95
I4
ssg106
I0
sg107
g108
sg109
I0
sg110
I0
sg111
I0
sg112
I21
sg113
I16
sg114
I0
sg115
S'B'
p309
sbsS'n10'
p310
g138
sS'n11'
p311
(ijoueur
joueur
p312
(dp313
g27
I0
sg28
I0
sg29
I0
sg30
(ijoueur
rang
p314
(dp315
g33
I5
sg34
S'xx'
p316
sg36
g37
sbsg38
(dp317
g40
I0
sg41
I0
sg42
I0
sg43
I0
ssg44
(dp318
g40
I0
sg41
I0
sg42
I0
sg43
I0
ssg46
I0
sg47
I0
sg48
I2
sg49
I0
sg50
I0
sg51
(g52
S'AI'
p319
g108
g108
tp320
sg57
(ijoueur
rang
p321
(dp322
g33
I5
sg34
S'xx'
p323
sg36
g37
sbsg61
(dp324
g40
I0
sg41
I7
sg42
I0
sg43
I0
ssg63
(dp325
g40
I0
sg41
I0
sg42
I0
sg43
I0
ssg65
(dp326
g40
I0
sg41
I0
sg42
I0
sg43
I0
ssg67
(dp327
g40
I0
sg41
I7
sg42
I0
sg43
I0
ssg69
I0
sg70
I0
sg71
S'Lumoor'
p328
sg73
I9
sg74
I0
sg75
I25
sg76
I266
sg77
g78
sg79
(dp329
g81
I11
sg82
I7
sg83
I9
sg84
I10
sg85
I6
sg86
I16
sg87
I8
sg88
I18
sg89
I8
sg90
I10
sg91
I11
sg92
I7
sg93
I7
sg94
I9
sg95
I6
ssg96
I13
sg97
I0
sg98
I0
sg99
I0
sg100
F11.903225806451612
sg101
I0
sg102
I0
sg103
I0
sg104
(dp330
g81
I12
sg82
I7
sg83
I9
sg84
I10
sg89
I8
sg86
I16
sg87
I8
sg88
I18
sg85
I6
sg90
I10
sg91
I11
sg92
I8
sg93
I7
sg94
I10
sg95
I6
ssg106
I0
sg107
g108
sg109
I0
sg110
I0
sg111
I0
sg112
I28
sg113
I4
sg114
I0
sg115
S'HL'
p331
sbsS'n16'
p332
(ijoueur
joueur
p333
(dp334
g27
I0
sg28
I0
sg29
I0
sg30
(ijoueur
rang
p335
(dp336
g33
I1
sg34
S'>'
p337
sg36
S'base'
p338
sbsg38
(dp339
g40
I0
sg41
I0
sg42
I0
sg43
I0
ssg44
(dp340
g40
I0
sg41
I0
sg42
I0
sg43
I0
ssg46
I0
sg47
I0
sg48
I0
sg49
I0
sg50
I0
sg51
(g52
S'TA'
p341
S'PI'
p342
g108
tp343
sg57
(ijoueur
rang
p344
(dp345
g33
I1
sg34
g337
sg36
g338
sbsg61
(dp346
g40
I0
sg41
I0
sg42
I2
sg43
I0
ssg63
(dp347
g40
I0
sg41
I0
sg42
I0
sg43
I0
ssg65
(dp348
g40
I0
sg41
I0
sg42
I0
sg43
I0
ssg67
(dp349
g40
I0
sg41
I0
sg42
I2
sg43
I0
ssg69
I0
sg70
I0
sg71
S'Ikmelet'
p350
sg73
I11
sg74
I0
sg75
I20
sg76
I21
sg77
g78
sg79
(dp351
g81
I7
sg82
I9
sg83
I7
sg84
I10
sg85
I2
sg86
I10
sg87
I0
sg88
I10
sg89
I2
sg90
I6
sg91
I7
sg92
I8
sg93
I0
sg94
I9
sg95
I9
ssg96
I1
sg97
I0
sg98
I0
sg99
I0
sg100
F8.758620689655173
sg101
I0
sg102
I0
sg103
I0
sg104
(dp352
g81
I7
sg82
I9
sg83
I7
sg84
I10
sg89
I2
sg86
I10
sg87
I0
sg88
I10
sg85
I2
sg90
I6
sg91
I7
sg92
I8
sg93
I0
sg94
I9
sg95
I9
ssg106
I0
sg107
g108
sg109
I0
sg110
I0
sg111
I0
sg112
I3
sg113
I0
sg114
I0
sg115
S'HL'
p353
sbsS'n17'
p354
(ijoueur
joueur
p355
(dp356
g27
I0
sg28
I0
sg29
I0
sg30
(ijoueur
rang
p357
(dp358
g33
I5
sg34
S'**'
p359
sg36
g37
sbsg38
(dp360
g40
I0
sg41
I0
sg42
I0
sg43
I0
ssg44
(dp361
g40
I0
sg41
I0
sg42
I0
sg43
I0
ssg46
I0
sg47
I0
sg48
I1
sg49
I0
sg50
I0
sg51
(g52
S'PI'
p362
S'N8'
p363
S'TL'
p364
tp365
sg57
(ijoueur
rang
p366
(dp367
g33
I5
sg34
S'**'
p368
sg36
g37
sbsg61
(dp369
g40
I0
sg41
I4
sg42
I4
sg43
I0
ssg63
(dp370
g40
I0
sg41
I0
sg42
I0
sg43
I0
ssg65
(dp371
g40
I0
sg41
I0
sg42
I0
sg43
I0
ssg67
(dp372
g40
I0
sg41
I4
sg42
I4
sg43
I0
ssg69
I0
sg70
I0
sg71
S'Gorr'
p373
sg73
I5
sg74
I0
sg75
I15
sg76
I150
sg77
g78
sg79
(dp374
g81
I9
sg82
I10
sg83
I7
sg84
I11
sg85
I8
sg86
I9
sg87
I2
sg88
I9
sg89
I3
sg90
I9
sg91
I6
sg92
I11
sg93
I2
sg94
I8
sg95
I7
ssg96
I12
sg97
I0
sg98
I0
sg99
I0
sg100
F10.11111111111111
sg101
I0
sg102
I0
sg103
I0
sg104
(dp375
g81
I10
sg82
I10
sg83
I7
sg84
I11
sg89
I3
sg86
I9
sg87
I2
sg88
I9
sg85
I8
sg90
I9
sg91
I6
sg92
I12
sg93
I2
sg94
I9
sg95
I7
ssg106
I0
sg107
g108
sg109
I0
sg110
I0
sg111
I0
sg112
I16
sg113
I10
sg114
I0
sg115
S'HB'
p376
sbsS'n14'
p377
(ijoueur
joueur
p378
(dp379
g27
I0
sg28
I0
sg29
I0
sg30
(ijoueur
rang
p380
(dp381
g33
I1
sg34
g337
sg36
g338
sbsg38
(dp382
g40
I0
sg41
I1
sg42
I3
sg43
I0
ssg44
(dp383
g40
I0
sg41
I0
sg42
I0
sg43
I0
ssg46
I0
sg47
I0
sg48
I0
sg49
I0
sg50
I0
sg51
(g52
S'AR'
p384
S'AI'
p385
S'DO'
p386
tp387
sg57
(ijoueur
rang
p388
(dp389
g33
I1
sg34
g337
sg36
g338
sbsg61
(dp390
g40
I0
sg41
I0
sg42
I2
sg43
I0
ssg63
(dp391
g40
I0
sg41
I1
sg42
I3
sg43
I0
ssg65
(dp392
g40
I0
sg41
I0
sg42
I0
sg43
I0
ssg67
(dp393
g40
I0
sg41
I0
sg42
I2
sg43
I0
ssg69
I0
sg70
I0
sg71
S'Iroad'
p394
sg73
I3
sg74
I0
sg75
I15
sg76
I4
sg77
g78
sg79
(dp395
g81
I11
sg82
I4
sg83
I10
sg84
I7
sg85
I5
sg86
I6
sg87
I6
sg88
I10
sg89
I7
sg90
I6
sg91
I14
sg92
I5
sg93
I6
sg94
I7
sg95
I6
ssg96
I4
sg97
I0
sg98
I0
sg99
I0
sg100
F8.818181818181818
sg101
I0
sg102
I0
sg103
I0
sg104
(dp396
g81
I11
sg82
I4
sg83
I10
sg84
I7
sg89
I7
sg86
I6
sg87
I6
sg88
I10
sg85
I5
sg90
I6
sg91
I14
sg92
I5
sg93
I6
sg94
I7
sg95
I6
ssg106
I0
sg107
g108
sg109
I0
sg110
I0
sg111
I0
sg112
I1
sg113
I3
sg114
I0
sg115
S'HL'
p397
sbsS'n15'
p398
(ijoueur
joueur
p399
(dp400
g27
I0
sg28
I1
sg29
I0
sg30
(ijoueur
rang
p401
(dp402
g33
I5
sg34
S'**'
p403
sg36
g37
sbsg38
(dp404
g40
I0
sg41
I0
sg42
I0
sg43
I0
ssg44
(dp405
g40
I0
sg41
I0
sg42
I0
sg43
I0
ssg46
I0
sg47
I0
sg48
I0
sg49
I0
sg50
I0
sg51
(g52
S'AI'
p406
S'AR'
p407
S'CE'
p408
tp409
sg57
(ijoueur
rang
p410
(dp411
g33
I5
sg34
S'**'
p412
sg36
g37
sbsg61
(dp413
g40
I0
sg41
I7
sg42
I0
sg43
I0
ssg63
(dp414
g40
I0
sg41
I0
sg42
I0
sg43
I0
ssg65
(dp415
g40
I0
sg41
I0
sg42
I0
sg43
I0
ssg67
(dp416
g40
I0
sg41
I7
sg42
I0
sg43
I0
ssg69
I0
sg70
I0
sg71
S'Frors'
p417
sg73
I5
sg74
I0
sg75
I16
sg76
I162
sg77
g78
sg79
(dp418
g81
I11
sg82
I4
sg83
I11
sg84
I10
sg85
I8
sg86
I11
sg87
I11
sg88
I15
sg89
I11
sg90
I13
sg91
I11
sg92
I7
sg93
I9
sg94
I10
sg95
I4
ssg96
I13
sg97
I0
sg98
I0
sg99
I0
sg100
F11.935483870967742
sg101
I0
sg102
I0
sg103
I0
sg104
(dp419
g81
I12
sg82
I4
sg83
I11
sg84
I10
sg89
I11
sg86
I11
sg87
I11
sg88
I15
sg85
I8
sg90
I13
sg91
I11
sg92
I8
sg93
I9
sg94
I11
sg95
I4
ssg106
I0
sg107
g108
sg109
I0
sg110
I0
sg111
I0
sg112
I20
sg113
I25
sg114
I0
sg115
g116
sbsS'n18'
p420
(ijoueur
joueur
p421
(dp422
g27
I0
sg28
I0
sg29
I0
sg30
(ijoueur
rang
p423
(dp424
g33
I4
sg34
g272
sg36
g194
sbsg38
(dp425
g40
I0
sg41
I0
sg42
I0
sg43
I0
ssg44
(dp426
g40
I0
sg41
I0
sg42
I0
sg43
I0
ssg46
I0
sg47
I0
sg48
I0
sg49
I0
sg50
I0
sg51
(g52
S'DL'
p427
g108
g108
tp428
sg57
(ijoueur
rang
p429
(dp430
g33
I4
sg34
g272
sg36
g194
sbsg61
(dp431
g40
I0
sg41
I0
sg42
I3
sg43
I0
ssg63
(dp432
g40
I0
sg41
I0
sg42
I0
sg43
I0
ssg65
(dp433
g40
I0
sg41
I0
sg42
I0
sg43
I0
ssg67
(dp434
g40
I0
sg41
I0
sg42
I3
sg43
I0
ssg69
I0
sg70
I0
sg71
S'Puule'
p435
sg73
I10
sg74
I0
sg75
I21
sg76
I150
sg77
g78
sg79
(dp436
g81
I10
sg82
I9
sg83
I8
sg84
I9
sg85
I11
sg86
I10
sg87
I5
sg88
I11
sg89
I5
sg90
I8
sg91
I9
sg92
I8
sg93
I4
sg94
I8
sg95
I7
ssg96
I2
sg97
I0
sg98
I0
sg99
I0
sg100
F9.352941176470589
sg101
I0
sg102
I0
sg103
I0
sg104
(dp437
g81
I10
sg82
I9
sg83
I8
sg84
I9
sg89
I5
sg86
I10
sg87
I5
sg88
I11
sg85
I11
sg90
I8
sg91
I9
sg92
I8
sg93
I4
sg94
I8
sg95
I7
ssg106
I0
sg107
g108
sg109
I0
sg110
I0
sg111
I0
sg112
I8
sg113
I0
sg114
I0
sg115
S'HL'
p438
sbsS'n19'
p439
(ijoueur
joueur
p440
(dp441
g27
I0
sg28
I0
sg29
I0
sg30
(ijoueur
rang
p442
(dp443
g33
I1
sg34
S'^'
p444
sg36
g338
sbsg38
(dp445
g40
I0
sg41
I0
sg42
I0
sg43
I0
ssg44
(dp446
g40
I0
sg41
I0
sg42
I0
sg43
I0
ssg46
I0
sg47
I0
sg48
I0
sg49
I0
sg50
I0
sg51
(g52
S'TL'
p447
g108
g108
tp448
sg57
(ijoueur
rang
p449
(dp450
g33
I1
sg34
g337
sg36
g338
sbsg61
(dp451
g40
I0
sg41
I1
sg42
I2
sg43
I0
ssg63
(dp452
g40
I0
sg41
I0
sg42
I0
sg43
I0
ssg65
(dp453
g40
I0
sg41
I0
sg42
I0
sg43
I0
ssg67
(dp454
g40
I0
sg41
I1
sg42
I2
sg43
I0
ssg69
I0
sg70
I0
sg71
S'Lafael'
p455
sg73
I1
sg74
I0
sg75
I13
sg76
I50
sg77
g78
sg79
(dp456
g81
I8
sg82
I12
sg83
I6
sg84
I9
sg85
I9
sg86
I9
sg87
I4
sg88
I9
sg89
I9
sg90
I8
sg91
I11
sg92
I11
sg93
I5
sg94
I12
sg95
I8
ssg96
I4
sg97
I0
sg98
I0
sg99
I0
sg100
F10.35483870967742
sg101
I0
sg102
I0
sg103
I0
sg104
(dp457
g81
I8
sg82
I12
sg83
I6
sg84
I9
sg89
I9
sg86
I9
sg87
I4
sg88
I9
sg85
I9
sg90
I8
sg91
I11
sg92
I11
sg93
I5
sg94
I12
sg95
I8
ssg106
I0
sg107
S'HTH 8'
p458
sg109
I0
sg110
I0
sg111
I0
sg112
I5
sg113
I6
sg114
I0
sg115
S'HE'
p459
sbsS'n22'
p460
(ijoueur
joueur
p461
(dp462
g27
I0
sg28
I0
sg29
I0
sg30
(ijoueur
rang
p463
(dp464
g33
I3
sg34
S'^^^'
p465
sg36
S'rare'
p466
sbsg38
(dp467
g40
I0
sg41
I0
sg42
I0
sg43
I0
ssg44
(dp468
g40
I0
sg41
I0
sg42
I0
sg43
I0
ssg46
I0
sg47
I0
sg48
I0
sg49
I0
sg50
I0
sg51
(g52
S'AI'
p469
g108
g108
tp470
sg57
(ijoueur
rang
p471
(dp472
g33
I3
sg34
S'^^^'
p473
sg36
g466
sbsg61
(dp474
g40
I0
sg41
I0
sg42
I2
sg43
I0
ssg63
(dp475
g40
I0
sg41
I0
sg42
I0
sg43
I0
ssg65
(dp476
g40
I0
sg41
I0
sg42
I0
sg43
I0
ssg67
(dp477
g40
I0
sg41
I0
sg42
I2
sg43
I0
ssg69
I0
sg70
I0
sg71
S'Duumd'
p478
sg73
I3
sg74
I0
sg75
I16
sg76
I65
sg77
g78
sg79
(dp479
g81
I10
sg82
I7
sg83
I5
sg84
I9
sg85
I3
sg86
I10
sg87
I2
sg88
I10
sg89
I3
sg90
I7
sg91
I12
sg92
I5
sg93
I2
sg94
I8
sg95
I6
ssg96
I0
sg97
I0
sg98
I0
sg99
I0
sg100
F9.0
sg101
I0
sg102
I0
sg103
I0
sg104
(dp480
g81
I10
sg82
I7
sg83
I5
sg84
I9
sg89
I3
sg86
I10
sg87
I2
sg88
I10
sg85
I3
sg90
I7
sg91
I12
sg92
I5
sg93
I2
sg94
I8
sg95
I6
ssg106
I0
sg107
g108
sg109
I0
sg110
I0
sg111
I0
sg112
I7
sg113
I7
sg114
I0
sg115
S'HL'
p481
sbsS'n21'
p482
(ijoueur
joueur
p483
(dp484
g27
I0
sg28
I1
sg29
I0
sg30
(ijoueur
rang
p485
(dp486
g33
I4
sg34
g193
sg36
g194
sbsg38
(dp487
g40
I0
sg41
I0
sg42
I0
sg43
I0
ssg44
(dp488
g40
I0
sg41
I0
sg42
I0
sg43
I0
ssg46
I0
sg47
I0
sg48
I0
sg49
I0
sg50
I0
sg51
(g52
S'DM'
p489
S'CE'
p490
S'AI'
p491
tp492
sg57
(ijoueur
rang
p493
(dp494
g33
I4
sg34
g193
sg36
g194
sbsg61
(dp495
g40
I0
sg41
I2
sg42
I6
sg43
I0
ssg63
(dp496
g40
I0
sg41
I0
sg42
I0
sg43
I0
ssg65
(dp497
g40
I0
sg41
I0
sg42
I0
sg43
I0
ssg67
(dp498
g40
I0
sg41
I2
sg42
I6
sg43
I0
ssg69
I0
sg70
I0
sg71
S'Medeuleur'
p499
sg73
I7
sg74
I0
sg75
I15
sg76
I168
sg77
g78
sg79
(dp500
g81
I7
sg82
I7
sg83
I9
sg84
I11
sg85
I5
sg86
I10
sg87
I7
sg88
I12
sg89
I10
sg90
I8
sg91
I10
sg92
I9
sg93
I7
sg94
I10
sg95
I6
ssg96
I11
sg97
I0
sg98
I0
sg99
I0
sg100
F9.517241379310345
sg101
I0
sg102
I0
sg103
I0
sg104
(dp501
g81
I8
sg82
I7
sg83
I9
sg84
I11
sg89
I10
sg86
I10
sg87
I7
sg88
I12
sg85
I5
sg90
I8
sg91
I10
sg92
I10
sg93
I7
sg94
I11
sg95
I6
ssg106
I0
sg107
g108
sg109
I0
sg110
I0
sg111
I0
sg112
I11
sg113
I7
sg114
I0
sg115
S'OG'
p502
sbsS'n20'
p503
(ijoueur
joueur
p504
(dp505
g27
I0
sg28
I0
sg29
I0
sg30
(ijoueur
rang
p506
(dp507
g33
I1
sg34
g337
sg36
g338
sbsg38
(dp508
g40
I0
sg41
I0
sg42
I0
sg43
I0
ssg44
(dp509
g40
I0
sg41
I0
sg42
I0
sg43
I0
ssg46
I0
sg47
I0
sg48
I0
sg49
I0
sg50
I0
sg51
(g52
S'AI'
p510
S'DM'
p511
g108
tp512
sg57
(ijoueur
rang
p513
(dp514
g33
I1
sg34
g337
sg36
g338
sbsg61
(dp515
g40
I0
sg41
I1
sg42
I1
sg43
I0
ssg63
(dp516
g40
I0
sg41
I0
sg42
I0
sg43
I0
ssg65
(dp517
g40
I0
sg41
I0
sg42
I0
sg43
I0
ssg67
(dp518
g40
I0
sg41
I1
sg42
I1
sg43
I0
ssg69
I0
sg70
I0
sg71
S'Idlal'
p519
sg73
I8
sg74
I0
sg75
I17
sg76
I8
sg77
g78
sg79
(dp520
g81
I14
sg82
I5
sg83
I7
sg84
I8
sg85
I7
sg86
I8
sg87
I8
sg88
I8
sg89
I9
sg90
I8
sg91
I12
sg92
I4
sg93
I5
sg94
I6
sg95
I3
ssg96
I4
sg97
I0
sg98
I0
sg99
I0
sg100
F9.451612903225806
sg101
I0
sg102
I0
sg103
I0
sg104
(dp521
g81
I14
sg82
I5
sg83
I7
sg84
I8
sg89
I9
sg86
I8
sg87
I8
sg88
I8
sg85
I7
sg90
I8
sg91
I12
sg92
I4
sg93
I5
sg94
I6
sg95
I3
ssg106
I0
sg107
g108
sg109
I0
sg110
I0
sg111
I0
sg112
I1
sg113
I0
sg114
I0
sg115
S'HL'
p522
sbsS'n8'
p523
g189
sS'n9'
p524
g237
sS'n1'
p525
(ijoueur
joueur
p526
(dp527
g27
I0
sg28
I0
sg29
I0
sg30
(ijoueur
rang
p528
(dp529
g33
I5
sg34
S'xx'
p530
sg36
g37
sbsg38
(dp531
g40
I0
sg41
I0
sg42
I0
sg43
I0
ssg44
(dp532
g40
I0
sg41
I0
sg42
I0
sg43
I0
ssg46
I0
sg47
I0
sg48
I0
sg49
I0
sg50
I0
sg51
(g52
S'PI'
p533
S'TA'
p534
g108
tp535
sg57
(ijoueur
rang
p536
(dp537
g33
I5
sg34
S'xx'
p538
sg36
g37
sbsg61
(dp539
g40
I0
sg41
I7
sg42
I0
sg43
I0
ssg63
(dp540
g40
I0
sg41
I0
sg42
I0
sg43
I0
ssg65
(dp541
g40
I0
sg41
I0
sg42
I0
sg43
I0
ssg67
(dp542
g40
I0
sg41
I7
sg42
I0
sg43
I0
ssg69
I0
sg70
I0
sg71
S"B'Aald"
p543
sg73
I8
sg74
I0
sg75
I21
sg76
I362
sg77
g78
sg79
(dp544
g81
I10
sg82
I10
sg83
I8
sg84
I11
sg85
I8
sg86
I13
sg87
I5
sg88
I14
sg89
I4
sg90
I10
sg91
I10
sg92
I11
sg93
I4
sg94
I10
sg95
I10
ssg96
I14
sg97
I0
sg98
I0
sg99
I0
sg100
F11.407407407407407
sg101
I0
sg102
I0
sg103
I0
sg104
(dp545
g81
I11
sg82
I10
sg83
I8
sg84
I11
sg89
I4
sg86
I13
sg87
I5
sg88
I14
sg85
I8
sg90
I10
sg91
I10
sg92
I12
sg93
I4
sg94
I11
sg95
I10
ssg106
I0
sg107
g108
sg109
I0
sg110
I0
sg111
I0
sg112
I37
sg113
I0
sg114
I0
sg115
S'HL'
p546
sbsS'n2'
p547
(ijoueur
joueur
p548
(dp549
g27
I0
sg28
I0
sg29
I0
sg30
(ijoueur
rang
p550
(dp551
g33
I4
sg34
g272
sg36
g194
sbsg38
(dp552
g40
I0
sg41
I0
sg42
I0
sg43
I0
ssg44
(dp553
g40
I0
sg41
I0
sg42
I0
sg43
I0
ssg46
I0
sg47
I0
sg48
I0
sg49
I0
sg50
I0
sg51
(g52
S'TA'
p554
S'PI'
p555
g108
tp556
sg57
(ijoueur
rang
p557
(dp558
g33
I4
sg34
g272
sg36
g194
sbsg61
(dp559
g40
I0
sg41
I7
sg42
I0
sg43
I0
ssg63
(dp560
g40
I0
sg41
I0
sg42
I0
sg43
I0
ssg65
(dp561
g40
I0
sg41
I0
sg42
I0
sg43
I0
ssg67
(dp562
g40
I0
sg41
I7
sg42
I0
sg43
I0
ssg69
I0
sg70
I0
sg71
S'Momnod'
p563
sg73
I6
sg74
I0
sg75
I16
sg76
I801
sg77
g78
sg79
(dp564
g81
I9
sg82
I6
sg83
I7
sg84
I10
sg85
I8
sg86
I11
sg87
I3
sg88
I11
sg89
I3
sg90
I9
sg91
I7
sg92
I8
sg93
I2
sg94
I11
sg95
I13
ssg96
I9
sg97
I0
sg98
I0
sg99
I0
sg100
F10.068965517241379
sg101
I0
sg102
I0
sg103
I1
sg104
(dp565
g81
I10
sg82
I6
sg83
I7
sg84
I10
sg89
I3
sg86
I11
sg87
I3
sg88
I11
sg85
I8
sg90
I9
sg91
I7
sg92
I9
sg93
I2
sg94
I12
sg95
I13
ssg106
I0
sg107
S'TO 8;DKW 10'
p566
sg109
I0
sg110
I0
sg111
I0
sg112
I51
sg113
I4
sg114
I1
sg115
S'CHS'
p567
sbsS'n3'
p568
(ijoueur
joueur
p569
(dp570
g27
I0
sg28
I0
sg29
I0
sg30
(ijoueur
rang
p571
(dp572
g33
I5
sg34
S'xx'
p573
sg36
g37
sbsg38
(dp574
g40
I0
sg41
I5
sg42
I2
sg43
I0
ssg44
(dp575
g40
I0
sg41
I0
sg42
I0
sg43
I0
ssg46
I0
sg47
I0
sg48
I0
sg49
I0
sg50
I0
sg51
(g52
S'DL'
p576
S'PI'
p577
S'N8'
p578
tp579
sg57
(ijoueur
rang
p580
(dp581
g33
I5
sg34
S'xx'
p582
sg36
g37
sbsg61
(dp583
g40
I0
sg41
I0
sg42
I0
sg43
I0
ssg63
(dp584
g40
I0
sg41
I5
sg42
I2
sg43
I0
ssg65
(dp585
g40
I0
sg41
I0
sg42
I0
sg43
I0
ssg67
(dp586
g40
I0
sg41
I0
sg42
I0
sg43
I0
ssg69
I0
sg70
I0
sg71
S'Gorand'
p587
sg73
I3
sg74
I0
sg75
I11
sg76
I125
sg77
g78
sg79
(dp588
g81
I9
sg82
I10
sg83
I6
sg84
I12
sg85
I7
sg86
I14
sg87
I3
sg88
I14
sg89
I4
sg90
I7
sg91
I8
sg92
I8
sg93
I3
sg94
I9
sg95
I6
ssg96
I10
sg97
I0
sg98
I0
sg99
I0
sg100
F10.444444444444445
sg101
I0
sg102
I0
sg103
I0
sg104
(dp589
g81
I10
sg82
I10
sg83
I6
sg84
I12
sg89
I4
sg86
I14
sg87
I3
sg88
I14
sg85
I7
sg90
I7
sg91
I8
sg92
I9
sg93
I3
sg94
I10
sg95
I6
ssg106
I0
sg107
g108
sg109
I0
sg110
I0
sg111
I0
sg112
I14
sg113
I13
sg114
I0
sg115
S'N'
p590
sbsS'n4'
p591
g161
sS'n5'
p592
g118
sS'n6'
p593
g260
sS'n7'
p594
g215
ssS'remplacements'
p595
(dp596
g332
S'n0'
p597
sg354
g597
sg420
g597
sg439
g597
sg460
g597
sg482
g597
sg503
g597
ssb.