(iclub
compo
p0
(dp1
S'caracs_old'
p2
(dp3
S'A'
p4
F189.0
sS'ME'
p5
F102.0
sS'E'
p6
I230
sS'OplusAV'
p7
F65.5
sS'TO_off'
p8
F107.0
sS'OplusAR'
p9
F72.5
sS'M'
p10
F56.5
sS'JP'
p11
F75.5
sS'OmoinsAR'
p12
F63.5
sS'PA'
p13
F120.5
sS'TO_def'
p14
F97.5
sS'OmoinsAV'
p15
F67.0
sS'R'
p16
F184.0
ssS'totaux_old'
p17
(dp18
S'T2'
p19
F192.5
sS'T3'
p20
F115.0
sS'T1'
p21
F194.125
ssS'roles'
p22
(dp23
S'drop1'
p24
(ijoueur
joueur
p25
(dp26
S'rouges_total'
p27
I0
sS'drops_total'
p28
I0
sS'blessure'
p29
I0
sS'RG_max'
p30
(ijoueur
rang
p31
(dp32
S'type_nb'
p33
I5
sS'rang'
p34
S'**'
p35
sS'type'
p36
S'seigneur'
p37
sbsS'MJ2_total'
p38
(dp39
S'SR'
p40
I0
sS'ST'
p41
I0
sS'CR'
p42
I0
sS'CT'
p43
I0
ssS'MJ3_total'
p44
(dp45
g40
I0
sg41
I0
sg42
I0
sg43
I1
ssS'drop_rates_total'
p46
I0
sS'drop_rates_saison'
p47
I0
sS'essais_saison'
p48
I0
sS'penalite_ratees_saison'
p49
I0
sS'transformations_saison'
p50
I0
sS'postes'
p51
(S'dummy'
p52
S'AI'
p53
S'AR'
p54
S'DM'
p55
tp56
sS'RG'
p57
(ijoueur
rang
p58
(dp59
g33
I5
sg34
S'**'
p60
sg36
g37
sbsS'MJ1'
p61
(dp62
g40
I0
sg41
I0
sg42
I0
sg43
I0
ssS'MJ2'
p63
(dp64
g40
I0
sg41
I0
sg42
I0
sg43
I0
ssS'MJ3'
p65
(dp66
g40
I0
sg41
I0
sg42
I0
sg43
I1
ssS'MJ1_total'
p67
(dp68
g40
I0
sg41
I0
sg42
I0
sg43
I0
ssS'penalites_total'
p69
I24
sS'penalites_saison'
p70
I0
sS'nom'
p71
S'Uthimol'
p72
sS'C'
p73
I4
sS'transformations_total'
p74
I16
sS'D'
p75
I14
sS'VAL'
p76
I633
sS'club'
p77
S'HTH'
p78
sS'caracs'
p79
(dp80
S'A'
p81
I13
sS'ME'
p82
I6
sS'RP2'
p83
I10
sS'E'
p84
I12
sS'TO'
p85
I9
sS'RP1'
p86
I10
sS'JP'
p87
I9
sS'RP_tot'
p88
I13
sS'P'
p89
I11
sS'PA'
p90
I14
sS'M'
p91
I10
sS'R'
p92
I4
sS'TB'
p93
I7
sS'PL'
p94
I11
sS'TA'
p95
I6
ssS'fatigue'
p96
I2
sS'drop_ratees_total'
p97
I0
sS'blessures_total'
p98
I0
sS'XP'
p99
I0
sS'EV'
p100
F11.741935483870968
sS'penalite_ratees_total'
p101
I0
sS'blessures_saison'
p102
I0
sS'jaunes_total'
p103
I0
sS'caracs_sans_fatigue'
p104
g80
sS'rouges_saison'
p105
I0
sS'anciens_clubs'
p106
S'MRB9;MDL11'
p107
sS'transformation_ratees_total'
p108
I0
sS'drops_saison'
p109
I0
sS'transformation_ratees_saison'
p110
I0
sS'MS'
p111
I50
sS'essais_total'
p112
I17
sS'jaunes_saison'
p113
I0
sS'ARM'
p114
S'EN'
p115
sbsS'SA_scd'
p116
(ijoueur
joueur
p117
(dp118
g27
I0
sg28
I0
sg29
I0
sg30
(ijoueur
rang
p119
(dp120
g33
I5
sg34
S'**'
p121
sg36
S'seigneur'
p122
sbsg38
(dp123
S'SR'
p124
I0
sS'ST'
p125
I0
sS'CR'
p126
I0
sS'CT'
p127
I0
ssg44
(dp128
g124
I0
sg125
I0
sg126
I0
sg127
I0
ssg46
I0
sg47
I0
sg48
I0
sg49
I0
sg50
I0
sg51
(g52
S'TL'
p129
S''
p130
g130
tp131
sg57
(ijoueur
rang
p132
(dp133
g33
I4
sg34
S'*'
p134
sg36
S'heros'
p135
sbsg61
(dp136
g124
I0
sg125
I0
sg126
I0
sg127
I1
ssg63
(dp137
g124
I0
sg125
I0
sg126
I0
sg127
I0
ssg65
(dp138
g124
I0
sg125
I0
sg126
I0
sg127
I0
ssg67
(dp139
g124
I0
sg125
I0
sg126
I0
sg127
I1
ssg69
I0
sg70
I0
sg71
S'Le Catel'
p140
sg73
I8
sg74
I0
sg75
I24
sg76
I66
sg77
g78
sg79
(dp141
S'A'
p142
I10
sS'ME'
p143
I10
sS'RP2'
p144
I8
sS'E'
p145
I10
sS'TO'
p146
I10
sS'RP1'
p147
I8
sS'JP'
p148
I5
sS'RP_tot'
p149
I9
sS'P'
p150
I4
sS'PA'
p151
I9
sS'M'
p152
I8
sS'R'
p153
I11
sS'TB'
p154
I5
sS'PL'
p155
I10
sS'TA'
p156
I5
ssg96
I2
sg97
I0
sg98
I0
sg99
I0
sg100
F10.0
sg101
I0
sg102
I0
sg103
I0
sg104
g141
sg105
I0
sg106
g130
sg108
I0
sg109
I0
sg110
I0
sg111
I6
sg112
I0
sg113
I0
sg114
S'B'
p157
sbsS'RJL'
p158
(ijoueur
joueur
p159
(dp160
g27
I0
sg28
I0
sg29
I0
sg30
(ijoueur
rang
p161
(dp162
g33
I4
sg34
S'x'
p163
sg36
S'heros'
p164
sbsg38
(dp165
g40
I0
sg41
I0
sg42
I0
sg43
I0
ssg44
(dp166
g40
I0
sg41
I0
sg42
I0
sg43
I0
ssg46
I0
sg47
I0
sg48
I0
sg49
I0
sg50
I0
sg51
(g52
S'C1'
p167
S'AR'
p168
S'AI'
p169
tp170
sg57
(ijoueur
rang
p171
(dp172
g33
I4
sg34
g163
sg36
g164
sbsg61
(dp173
g40
I0
sg41
I0
sg42
I0
sg43
I1
ssg63
(dp174
g40
I0
sg41
I0
sg42
I0
sg43
I0
ssg65
(dp175
g40
I0
sg41
I0
sg42
I0
sg43
I0
ssg67
(dp176
g40
I0
sg41
I0
sg42
I0
sg43
I1
ssg69
I0
sg70
I0
sg71
S'Farifend'
p177
sg73
I7
sg74
I0
sg75
I22
sg76
I120
sg77
g78
sg79
(dp178
g81
I12
sg82
I3
sg83
I8
sg84
I11
sg85
I10
sg86
I9
sg87
I8
sg88
I10
sg89
I11
sg90
I12
sg91
I13
sg92
I7
sg93
I9
sg94
I10
sg95
I3
ssg96
I4
sg97
I0
sg98
I0
sg99
I0
sg100
F10.7
sg101
I0
sg102
I0
sg103
I0
sg104
g178
sg105
I0
sg106
g130
sg108
I0
sg109
I0
sg110
I0
sg111
I14
sg112
I3
sg113
I0
sg114
S'ES'
p179
sbsS'cap'
p180
(ijoueur
joueur
p181
(dp182
g27
I0
sg28
I0
sg29
I0
sg30
(ijoueur
rang
p183
(dp184
g33
I4
sg34
S'*'
p185
sg36
g164
sbsg38
(dp186
g40
I0
sg41
I0
sg42
I0
sg43
I0
ssg44
(dp187
g40
I0
sg41
I0
sg42
I0
sg43
I0
ssg46
I0
sg47
I0
sg48
I0
sg49
I0
sg50
I0
sg51
(g52
S'C2'
p188
S'AR'
p189
S'AI'
p190
tp191
sg57
(ijoueur
rang
p192
(dp193
g33
I4
sg34
g185
sg36
g164
sbsg61
(dp194
g40
I0
sg41
I0
sg42
I0
sg43
I1
ssg63
(dp195
g40
I0
sg41
I0
sg42
I0
sg43
I0
ssg65
(dp196
g40
I0
sg41
I0
sg42
I0
sg43
I0
ssg67
(dp197
g40
I0
sg41
I0
sg42
I0
sg43
I1
ssg69
I0
sg70
I0
sg71
S'Guzum'
p198
sg73
I1
sg74
I0
sg75
I11
sg76
I50
sg77
g78
sg79
(dp199
g81
I10
sg82
I5
sg83
I6
sg84
I14
sg85
I3
sg86
I10
sg87
I6
sg88
I10
sg89
I8
sg90
I10
sg91
I8
sg92
I8
sg93
I8
sg94
I11
sg95
I6
ssg96
I3
sg97
I0
sg98
I0
sg99
I0
sg100
F10.172413793103448
sg101
I0
sg102
I0
sg103
I0
sg104
g199
sg105
I0
sg106
g130
sg108
I0
sg109
I0
sg110
I0
sg111
I7
sg112
I10
sg113
I0
sg114
S'O'
p200
sbsS'B4'
p201
g159
sS'RJC'
p202
(ijoueur
joueur
p203
(dp204
g27
I0
sg28
I23
sg29
I0
sg30
(ijoueur
rang
p205
(dp206
g33
I5
sg34
S'**'
p207
sg36
g37
sbsg38
(dp208
g40
I0
sg41
I0
sg42
I0
sg43
I0
ssg44
(dp209
g40
I0
sg41
I0
sg42
I0
sg43
I0
ssg46
I0
sg47
I0
sg48
I0
sg49
I0
sg50
I0
sg51
(g52
S'DO'
p210
S'CE'
p211
S'AI'
p212
tp213
sg57
(ijoueur
rang
p214
(dp215
g33
I5
sg34
S'**'
p216
sg36
g37
sbsg61
(dp217
g40
I0
sg41
I0
sg42
I1
sg43
I0
ssg63
(dp218
g40
I0
sg41
I0
sg42
I0
sg43
I0
ssg65
(dp219
g40
I0
sg41
I0
sg42
I0
sg43
I0
ssg67
(dp220
g40
I0
sg41
I0
sg42
I1
sg43
I0
ssg69
I55
sg70
I0
sg71
S'Loenir'
p221
sg73
I0
sg74
I10
sg75
I11
sg76
I120
sg77
g78
sg79
(dp222
g81
I12
sg82
I7
sg83
I10
sg84
I10
sg85
I8
sg86
I6
sg87
I10
sg88
I10
sg89
I8
sg90
I11
sg91
I11
sg92
I9
sg93
I9
sg94
I9
sg95
I9
ssg96
I2
sg97
I0
sg98
I0
sg99
I0
sg100
F9.969696969696969
sg101
I0
sg102
I0
sg103
I0
sg104
g222
sg105
I0
sg106
g130
sg108
I0
sg109
I1
sg110
I0
sg111
I130
sg112
I15
sg113
I0
sg114
S'HE'
p223
sbsS'B1'
p224
(ijoueur
joueur
p225
(dp226
g27
I0
sg28
I0
sg29
I0
sg30
(ijoueur
rang
p227
(dp228
g33
I3
sg34
S'^^^'
p229
sg36
S'rare'
p230
sbsg38
(dp231
g40
I0
sg41
I0
sg42
I0
sg43
I0
ssg44
(dp232
g40
I0
sg41
I0
sg42
I0
sg43
I0
ssg46
I0
sg47
I0
sg48
I0
sg49
I0
sg50
I0
sg51
(g52
S'AR'
p233
S'AI'
p234
S'CE'
p235
tp236
sg57
(ijoueur
rang
p237
(dp238
g33
I3
sg34
S'^^^'
p239
sg36
g230
sbsg61
(dp240
g40
I0
sg41
I0
sg42
I1
sg43
I0
ssg63
(dp241
g40
I0
sg41
I0
sg42
I0
sg43
I0
ssg65
(dp242
g40
I0
sg41
I0
sg42
I0
sg43
I0
ssg67
(dp243
g40
I0
sg41
I0
sg42
I1
sg43
I0
ssg69
I0
sg70
I0
sg71
S'Neffair'
p244
sg73
I11
sg74
I0
sg75
I21
sg76
I35
sg77
g78
sg79
(dp245
g81
I13
sg82
I3
sg83
I7
sg84
I11
sg85
I7
sg86
I6
sg87
I8
sg88
I7
sg89
I9
sg90
I10
sg91
I10
sg92
I7
sg93
I10
sg94
I11
sg95
I4
ssg96
I4
sg97
I0
sg98
I0
sg99
I0
sg100
F10.121212121212121
sg101
I0
sg102
I0
sg103
I0
sg104
g245
sg105
I0
sg106
g130
sg108
I0
sg109
I0
sg110
I0
sg111
I4
sg112
I0
sg113
I0
sg114
S'HE'
p246
sbsS'B2'
p247
g225
sS'B3'
p248
g159
sS'SA_pcp2'
p249
(ijoueur
joueur
p250
(dp251
g27
I0
sg28
I0
sg29
I0
sg30
(ijoueur
rang
p252
(dp253
g33
I3
sg34
S'^^^'
p254
sg36
S'rare'
p255
sbsg38
(dp256
g124
I0
sg125
I0
sg126
I0
sg127
I0
ssg44
(dp257
g124
I0
sg125
I0
sg126
I0
sg127
I0
ssg46
I0
sg47
I0
sg48
I0
sg49
I0
sg50
I0
sg51
(g52
S'DL'
p258
g130
g130
tp259
sg57
(ijoueur
rang
p260
(dp261
g33
I3
sg34
S'^^^'
p262
sg36
g255
sbsg61
(dp263
g124
I0
sg125
I0
sg126
I0
sg127
I1
ssg63
(dp264
g124
I0
sg125
I0
sg126
I0
sg127
I0
ssg65
(dp265
g124
I0
sg125
I0
sg126
I0
sg127
I0
ssg67
(dp266
g124
I0
sg125
I0
sg126
I0
sg127
I1
ssg69
I0
sg70
I0
sg71
S'Noroel'
p267
sg73
I6
sg74
I0
sg75
I19
sg76
I25
sg77
g78
sg79
(dp268
g142
I9
sg143
I10
sg144
I6
sg145
I10
sg146
I11
sg147
I9
sg148
I5
sg149
I9
sg150
I6
sg151
I8
sg152
I8
sg153
I9
sg154
I4
sg155
I11
sg156
I5
ssg96
I3
sg97
I0
sg98
I0
sg99
I0
sg100
F9.823529411764707
sg101
I0
sg102
I0
sg103
I0
sg104
g268
sg105
I0
sg106
g130
sg108
I0
sg109
I0
sg110
I0
sg111
I2
sg112
I2
sg113
I0
sg114
S'EN'
p269
sbsS'SA_pcp1'
p270
(ijoueur
joueur
p271
(dp272
g27
I0
sg28
I0
sg29
I0
sg30
(ijoueur
rang
p273
(dp274
g33
I4
sg34
g134
sg36
g135
sbsg38
(dp275
g124
I0
sg125
I0
sg126
I0
sg127
I0
ssg44
(dp276
g124
I0
sg125
I0
sg126
I0
sg127
I0
ssg46
I0
sg47
I0
sg48
I0
sg49
I0
sg50
I0
sg51
(g52
S'DL'
p277
g130
g130
tp278
sg57
(ijoueur
rang
p279
(dp280
g33
I4
sg34
g134
sg36
g135
sbsg61
(dp281
g124
I0
sg125
I0
sg126
I0
sg127
I1
ssg63
(dp282
g124
I0
sg125
I0
sg126
I0
sg127
I0
ssg65
(dp283
g124
I0
sg125
I0
sg126
I0
sg127
I0
ssg67
(dp284
g124
I0
sg125
I0
sg126
I0
sg127
I1
ssg69
I0
sg70
I0
sg71
S'Daethyl'
p285
sg73
I8
sg74
I0
sg75
I23
sg76
I78
sg77
g78
sg79
(dp286
g142
I13
sg143
I11
sg144
I8
sg145
I12
sg146
I13
sg147
I8
sg148
I8
sg149
I9
sg150
I7
sg151
I9
sg152
I9
sg153
I8
sg154
I9
sg155
I10
sg156
I7
ssg96
I4
sg97
I0
sg98
I0
sg99
I0
sg100
F10.558823529411764
sg101
I0
sg102
I0
sg103
I0
sg104
g286
sg105
I0
sg106
g130
sg108
I0
sg109
I0
sg110
I0
sg111
I7
sg112
I0
sg113
I0
sg114
S'HE'
p287
sbsS'drop3'
p288
g203
sS'SA_remp1'
p289
(ijoueur
joueur
p290
(dp291
g27
I0
sg28
I0
sg29
I0
sg30
(ijoueur
rang
p292
(dp293
g33
I2
sg34
S'^^'
p294
sg36
S'special'
p295
sbsg38
(dp296
g124
I0
sg125
I0
sg126
I0
sg127
I0
ssg44
(dp297
g124
I0
sg125
I0
sg126
I0
sg127
I0
ssg46
I0
sg47
I0
sg48
I0
sg49
I0
sg50
I0
sg51
(g52
S'DL'
p298
g130
g130
tp299
sg57
(ijoueur
rang
p300
(dp301
g33
I2
sg34
S'^^'
p302
sg36
g295
sbsg61
(dp303
g124
I0
sg125
I0
sg126
I1
sg127
I0
ssg63
(dp304
g124
I0
sg125
I0
sg126
I0
sg127
I0
ssg65
(dp305
g124
I0
sg125
I0
sg126
I0
sg127
I0
ssg67
(dp306
g124
I0
sg125
I0
sg126
I1
sg127
I0
ssg69
I0
sS'carton_jaunes_saison'
p307
I1
sg70
I0
sg71
S'Mue'
p308
sg73
I2
sg74
I0
sg75
I13
sg76
I50
sg77
g78
sS'carton_jaunes_total'
p309
I1
sg79
(dp310
g142
I10
sg143
I8
sg144
I8
sg145
I10
sg146
I12
sg147
I8
sg148
I3
sg149
I9
sg150
I4
sg151
I9
sg152
I7
sg153
I7
sg154
I3
sg155
I9
sg156
I5
ssg96
I2
sg97
I0
sg98
I0
sg99
I0
sg100
F9.205882352941176
sg101
I0
sg102
I0
sg103
I0
sg104
g310
sg105
I0
sg106
S'AL9'
p311
sg108
I0
sg109
I0
sg110
I0
sg111
I5
sg112
I0
sg113
I0
sg114
S'ES'
p312
sbsS'drop2'
p313
g203
sS'SA_remp2'
p314
(ijoueur
joueur
p315
(dp316
g27
I0
sg28
I0
sg29
I0
sg30
(ijoueur
rang
p317
(dp318
g33
I4
sg34
g134
sg36
g135
sbsg38
(dp319
g124
I0
sg125
I0
sg126
I0
sg127
I0
ssg44
(dp320
g124
I0
sg125
I0
sg126
I0
sg127
I0
ssg46
I0
sg47
I0
sg48
I0
sg49
I0
sg50
I0
sg51
(g52
S'N8'
p321
S'TL'
p322
g130
tp323
sg57
(ijoueur
rang
p324
(dp325
g33
I4
sg34
g134
sg36
g135
sbsg61
(dp326
g124
I0
sg125
I0
sg126
I1
sg127
I0
ssg63
(dp327
g124
I0
sg125
I0
sg126
I0
sg127
I0
ssg65
(dp328
g124
I0
sg125
I0
sg126
I0
sg127
I0
ssg67
(dp329
g124
I0
sg125
I0
sg126
I1
sg127
I0
ssg69
I0
sg70
I0
sg71
S'Rothonhal'
p330
sg73
I4
sg74
I0
sg75
I11
sg76
I80
sg77
g78
sg79
(dp331
g142
I9
sg143
I10
sg144
I10
sg145
I10
sg146
I10
sg147
I7
sg148
I5
sg149
I10
sg150
I6
sg151
I8
sg152
I6
sg153
I10
sg154
I5
sg155
I11
sg156
I5
ssg96
I2
sg97
I0
sg98
I0
sg99
I0
sg100
F9.88888888888889
sg101
I0
sg102
I0
sg103
I0
sg104
g331
sg105
I0
sg106
S'TA9'
p332
sg108
I0
sg109
I0
sg110
I0
sg111
I11
sg112
I5
sg113
I0
sg114
S'S'
p333
sbssS'totaux'
p334
(dp335
g19
I0
sg20
I0
sg21
I0
ssS'_compo_defaut_fatigue'
p336
Nsg79
(dp337
g4
I0
sg5
I0
sg6
I0
sg7
I0
sg8
I0
sg9
I0
sg10
I0
sg11
I0
sg12
I0
sg13
I0
sg14
I0
sg15
I0
sg16
I0
ssS'joueurs'
p338
(dp339
S'n12'
p340
g159
sS'n13'
p341
g181
sS'n10'
p342
g203
sS'n11'
p343
(ijoueur
joueur
p344
(dp345
g27
I0
sg28
I0
sg29
I0
sg30
(ijoueur
rang
p346
(dp347
g33
I5
sg34
S'xx'
p348
sg36
g37
sbsg38
(dp349
g40
I0
sg41
I0
sg42
I0
sg43
I0
ssg44
(dp350
g40
I0
sg41
I0
sg42
I0
sg43
I1
ssg46
I0
sg47
I0
sg48
I0
sg49
I0
sg50
I0
sg51
(g52
S'C2'
p351
S'AR'
p352
S'AI'
p353
tp354
sg57
(ijoueur
rang
p355
(dp356
g33
I5
sg34
S'xx'
p357
sg36
g37
sbsg61
(dp358
g40
I0
sg41
I0
sg42
I0
sg43
I0
ssg63
(dp359
g40
I0
sg41
I0
sg42
I0
sg43
I0
ssg65
(dp360
g40
I0
sg41
I0
sg42
I0
sg43
I1
ssg67
(dp361
g40
I0
sg41
I0
sg42
I0
sg43
I0
ssg69
I0
sg70
I0
sg71
S'Skergn'
p362
sg73
I3
sg74
I0
sg75
I15
sg76
I1603
sg77
g78
sg79
(dp363
g81
I15
sg82
I6
sg83
I14
sg84
I10
sg85
I11
sg86
I6
sg87
I4
sg88
I14
sg89
I9
sg90
I14
sg91
I11
sg92
I10
sg93
I4
sg94
I10
sg95
I8
ssg96
I3
sg97
I0
sg98
I0
sg99
I0
sg100
F11.793103448275861
sg101
I0
sg102
I0
sg103
I0
sg104
g363
sg105
I0
sg106
S'SN11'
p364
sg108
I0
sg109
I0
sg110
I0
sg111
I155
sg112
I46
sg113
I0
sg114
S'S'
p365
sbsS'n16'
p366
(ijoueur
joueur
p367
(dp368
g27
I0
sg28
I0
sg29
I0
sg30
(ijoueur
rang
p369
(dp370
g33
I5
sg34
S'**'
p371
sg36
g122
sbsg38
(dp372
g124
I0
sg125
I0
sg126
I0
sg127
I0
ssg44
(dp373
g124
I0
sg125
I0
sg126
I0
sg127
I0
ssg46
I0
sg47
I0
sg48
I0
sg49
I0
sg50
I0
sg51
(g52
S'TA'
p374
S'PI'
p375
g130
tp376
sg57
(ijoueur
rang
p377
(dp378
g33
I5
sg34
S'**'
p379
sg36
g122
sbsg61
(dp380
g124
I0
sg125
I0
sg126
I1
sg127
I0
ssg63
(dp381
g124
I0
sg125
I0
sg126
I0
sg127
I0
ssg65
(dp382
g124
I0
sg125
I0
sg126
I0
sg127
I0
ssg67
(dp383
g124
I0
sg125
I0
sg126
I1
sg127
I0
ssg69
I0
sg70
I0
sg71
S'Uskass'
p384
sg73
I8
sg74
I0
sg75
I18
sg76
I153
sg77
g78
sg79
(dp385
g142
I12
sg143
I10
sg144
I8
sg145
I8
sg146
I8
sg147
I8
sg148
I7
sg149
I9
sg150
I7
sg151
I11
sg152
I8
sg153
I7
sg154
I5
sg155
I9
sg156
I10
ssg96
I1
sg97
I0
sg98
I0
sg99
I0
sg100
F8.931034482758621
sg101
I0
sg102
I0
sg103
I0
sg104
g385
sg105
I0
sg106
g130
sg108
I0
sg109
I0
sg110
I0
sg111
I19
sg112
I5
sg113
I0
sg114
g333
sbsS'n17'
p386
(ijoueur
joueur
p387
(dp388
g27
I0
sg28
I0
sg29
I0
sg30
(ijoueur
rang
p389
(dp390
g33
I1
sg34
S'<'
p391
sg36
S'base'
p392
sbsg38
(dp393
g124
I0
sg125
I0
sg126
I0
sg127
I0
ssg44
(dp394
g124
I0
sg125
I0
sg126
I0
sg127
I0
ssg46
I0
sg47
I0
sg48
I0
sg49
I0
sg50
I0
sg51
(g52
S'PI'
p395
S'N8'
p396
S'TA'
p397
tp398
sg57
(ijoueur
rang
p399
(dp400
g33
I1
sg34
g391
sg36
g392
sbsg61
(dp401
g124
I0
sg125
I0
sg126
I1
sg127
I0
ssg63
(dp402
g124
I0
sg125
I0
sg126
I0
sg127
I0
ssg65
(dp403
g124
I0
sg125
I0
sg126
I0
sg127
I0
ssg67
(dp404
g124
I0
sg125
I0
sg126
I1
sg127
I0
ssg69
I0
sg70
I0
sg71
S'Lohonel'
p405
sg73
I-2
sg74
I0
sg75
I11
sg76
I14
sg77
g78
sg79
(dp406
g142
I9
sg143
I10
sg144
I6
sg145
I12
sg146
I8
sg147
I8
sg148
I5
sg149
I8
sg150
I8
sg151
I8
sg152
I6
sg153
I8
sg154
I3
sg155
I8
sg156
I8
ssg96
I3
sg97
I0
sg98
I0
sg99
I0
sg100
F8.962962962962964
sg101
I0
sg102
I0
sg103
I0
sg104
g406
sg105
I0
sg106
g130
sg108
I0
sg109
I0
sg110
I0
sg111
I2
sg112
I3
sg113
I0
sg114
S'HE'
p407
sbsS'n14'
p408
(ijoueur
joueur
p409
(dp410
g27
I0
sg28
I0
sg29
I0
sg30
(ijoueur
rang
p411
(dp412
g33
I5
sg34
S'**'
p413
sg36
g37
sbsg38
(dp414
g40
I0
sg41
I0
sg42
I0
sg43
I0
ssg44
(dp415
g40
I0
sg41
I0
sg42
I0
sg43
I0
ssg46
I0
sg47
I0
sg48
I0
sg49
I0
sg50
I0
sg51
(g52
S'AI'
p416
S'DM'
p417
S'CE'
p418
tp419
sg57
(ijoueur
rang
p420
(dp421
g33
I5
sg34
S'**'
p422
sg36
g37
sbsg61
(dp423
g40
I0
sg41
I0
sg42
I0
sg43
I1
ssg63
(dp424
g40
I0
sg41
I0
sg42
I0
sg43
I0
ssg65
(dp425
g40
I0
sg41
I0
sg42
I0
sg43
I0
ssg67
(dp426
g40
I0
sg41
I0
sg42
I0
sg43
I1
ssg69
I0
sg70
I0
sg71
S'Arthenol'
p427
sg73
I2
sg74
I0
sg75
I9
sg76
I176
sg77
g78
sg79
(dp428
g81
I13
sg82
I4
sg83
I10
sg84
I11
sg85
I6
sg86
I8
sg87
I5
sg88
I11
sg89
I5
sg90
I11
sg91
I11
sg92
I9
sg93
I8
sg94
I8
sg95
I5
ssg96
I4
sg97
I0
sg98
I0
sg99
I0
sg100
F10.548387096774194
sg101
I0
sg102
I0
sg103
I0
sg104
g428
sg105
I0
sg106
g130
sg108
I0
sg109
I0
sg110
I0
sg111
I23
sg112
I20
sg113
I0
sg114
S'B'
p429
sbsS'n15'
p430
g225
sS'n18'
p431
g290
sS'n19'
p432
g315
sS'n22'
p433
(ijoueur
joueur
p434
(dp435
g27
I0
sg28
I0
sg29
I0
sg30
(ijoueur
rang
p436
(dp437
g33
I6
sg34
S'***'
p438
sg36
S'personnage'
p439
sbsg38
(dp440
g40
I0
sg41
I0
sg42
I0
sg43
I1
ssg44
(dp441
g40
I0
sg41
I0
sg42
I0
sg43
I0
ssg46
I0
sg47
I0
sg48
I0
sg49
I0
sg50
I0
sg51
(g52
S'C2'
p442
S'AR'
p443
S'AI'
p444
tp445
sg57
(ijoueur
rang
p446
(dp447
g33
I6
sg34
S'***'
p448
sg36
g439
sbsg61
(dp449
g40
I0
sg41
I0
sg42
I0
sg43
I0
ssg63
(dp450
g40
I0
sg41
I0
sg42
I0
sg43
I1
ssg65
(dp451
g40
I0
sg41
I0
sg42
I0
sg43
I0
ssg67
(dp452
g40
I0
sg41
I0
sg42
I0
sg43
I0
ssg69
I0
sg70
I0
sg71
S'Karl Franz'
p453
sg73
I9
sg74
I0
sg75
I21
sg76
I397
sg77
g78
sg79
(dp454
g81
I12
sg82
I7
sg83
I10
sg84
I12
sg85
I9
sg86
I11
sg87
I8
sg88
I14
sg89
I10
sg90
I11
sg91
I10
sg92
I7
sg93
I7
sg94
I14
sg95
I4
ssg96
I4
sg97
I0
sg98
I0
sg99
I0
sg100
F11.793103448275861
sg101
I0
sg102
I0
sg103
I0
sg104
g454
sg105
I0
sg106
g130
sg108
I0
sg109
I0
sg110
I0
sg111
I26
sg112
I3
sg113
I0
sg114
S'EMP'
p455
sbsS'n21'
p456
(ijoueur
joueur
p457
(dp458
g27
I0
sg28
I0
sg29
I0
sg30
(ijoueur
rang
p459
(dp460
g33
I3
sg34
S'^^^'
p461
sg36
g230
sbsg38
(dp462
g40
I0
sg41
I0
sg42
I0
sg43
I0
ssg44
(dp463
g40
I0
sg41
I0
sg42
I0
sg43
I0
ssg46
I0
sg47
I0
sg48
I0
sg49
I0
sg50
I0
sg51
(g52
S'DO'
p464
S'AR'
p465
g130
tp466
sg57
(ijoueur
rang
p467
(dp468
g33
I3
sg34
S'^^^'
p469
sg36
g230
sbsg61
(dp470
g40
I0
sg41
I0
sg42
I0
sg43
I0
ssg63
(dp471
g40
I0
sg41
I0
sg42
I0
sg43
I0
ssg65
(dp472
g40
I0
sg41
I0
sg42
I0
sg43
I0
ssg67
(dp473
g40
I0
sg41
I0
sg42
I0
sg43
I0
ssg69
I0
sg70
I0
sg71
S'Latael'
p474
sg73
I8
sg74
I0
sg75
I16
sg76
I58
sg77
g78
sg79
(dp475
g81
I12
sg82
I5
sg83
I6
sg84
I10
sg85
I8
sg86
I6
sg87
I9
sg88
I6
sg89
I8
sg90
I9
sg91
I9
sg92
I8
sg93
I11
sg94
I11
sg95
I4
ssg96
I0
sg97
I0
sg98
I0
sg99
I0
sg100
F9.285714285714286
sg101
I0
sg102
I0
sg103
I0
sg104
g475
sg105
I0
sg106
g130
sg108
I0
sg109
I0
sg110
I0
sg111
I3
sg112
I2
sg113
I0
sg114
S'HE'
p476
sbsS'n20'
p477
(ijoueur
joueur
p478
(dp479
g27
I0
sg28
I0
sg29
I0
sg30
(ijoueur
rang
p480
(dp481
g33
I5
sg34
S'**'
p482
sg36
g37
sbsg38
(dp483
g40
I0
sg41
I0
sg42
I0
sg43
I0
ssg44
(dp484
g40
I0
sg41
I0
sg42
I0
sg43
I0
ssg46
I0
sg47
I0
sg48
I0
sg49
I0
sg50
I0
sg51
(g52
S'DM'
p485
g130
g130
tp486
sg57
(ijoueur
rang
p487
(dp488
g33
I2
sg34
S'^^'
p489
sg36
S'special'
p490
sbsg61
(dp491
g40
I0
sg41
I0
sg42
I1
sg43
I0
ssg63
(dp492
g40
I0
sg41
I0
sg42
I0
sg43
I0
ssg65
(dp493
g40
I0
sg41
I0
sg42
I0
sg43
I0
ssg67
(dp494
g40
I0
sg41
I0
sg42
I1
sg43
I0
ssg69
I0
sg70
I0
sg71
S'Zimloeth'
p495
sg73
I11
sg74
I0
sg75
I23
sg76
I23
sg77
g78
sg79
(dp496
g81
I11
sg82
I6
sg83
I6
sg84
I10
sg85
I6
sg86
I6
sg87
I7
sg88
I6
sg89
I9
sg90
I14
sg91
I9
sg92
I5
sg93
I7
sg94
I8
sg95
I4
ssg96
I1
sg97
I0
sg98
I0
sg99
I0
sg100
F9.620689655172415
sg101
I0
sg102
I0
sg103
I0
sg104
g496
sg105
I0
sg106
g130
sg108
I0
sg109
I0
sg110
I0
sg111
I2
sg112
I0
sg113
I0
sg114
S'HE'
p497
sbsS'n8'
p498
(ijoueur
joueur
p499
(dp500
g27
I0
sg28
I0
sg29
I0
sg30
(ijoueur
rang
p501
(dp502
g33
I5
sg34
S'xx'
p503
sg36
g122
sbsg38
(dp504
g124
I0
sg125
I0
sg126
I0
sg127
I0
ssg44
(dp505
g124
I0
sg125
I0
sg126
I0
sg127
I0
ssg46
I0
sg47
I0
sg48
I0
sg49
I0
sg50
I0
sg51
(g52
S'N8'
p506
S'TL'
p507
g130
tp508
sg57
(ijoueur
rang
p509
(dp510
g33
I5
sg34
S'xx'
p511
sg36
g122
sbsg61
(dp512
g124
I0
sg125
I0
sg126
I0
sg127
I1
ssg63
(dp513
g124
I0
sg125
I0
sg126
I0
sg127
I0
ssg65
(dp514
g124
I0
sg125
I0
sg126
I0
sg127
I0
ssg67
(dp515
g124
I0
sg125
I0
sg126
I0
sg127
I1
ssg69
I0
sg70
I0
sg71
S"Rak'Daq"
p516
sg73
I5
sg74
I0
sg75
I15
sg76
I525
sg77
g78
sg79
(dp517
g142
I11
sg143
I13
sg144
I9
sg145
I13
sg146
I9
sg147
I15
sg148
I2
sg149
I17
sg150
I4
sg151
I7
sg152
I7
sg153
I12
sg154
I2
sg155
I9
sg156
I8
ssg96
I1
sg97
I0
sg98
I0
sg99
I0
sg100
F12.137931034482758
sg101
I0
sg102
I0
sg103
I0
sg104
g517
sg105
I0
sg106
g130
sg108
I0
sg109
I0
sg110
I0
sg111
I70
sg112
I16
sg113
I0
sg114
S'HL'
p518
sbsS'n9'
p519
g25
sS'n1'
p520
(ijoueur
joueur
p521
(dp522
g27
I0
sg28
I0
sg29
I0
sg30
(ijoueur
rang
p523
(dp524
g33
I4
sg34
S'x'
p525
sg36
g135
sbsg38
(dp526
g124
I0
sg125
I0
sg126
I0
sg127
I0
ssg44
(dp527
g124
I0
sg125
I0
sg126
I0
sg127
I0
ssg46
I0
sg47
I0
sg48
I0
sg49
I0
sg50
I0
sg51
(g52
S'PI'
p528
g130
g130
tp529
sg57
(ijoueur
rang
p530
(dp531
g33
I4
sg34
g525
sg36
g135
sbsg61
(dp532
g124
I0
sg125
I0
sg126
I0
sg127
I1
ssg63
(dp533
g124
I0
sg125
I0
sg126
I0
sg127
I0
ssg65
(dp534
g124
I0
sg125
I0
sg126
I0
sg127
I0
ssg67
(dp535
g124
I0
sg125
I0
sg126
I0
sg127
I1
ssg69
I0
sg70
I0
sg71
S'Quadyr'
p536
sg73
I8
sg74
I0
sg75
I19
sg76
I192
sg77
g78
sg79
(dp537
g142
I5
sg143
I10
sg144
I7
sg145
I11
sg146
I6
sg147
I10
sg148
I4
sg149
I10
sg150
I5
sg151
I7
sg152
I6
sg153
I8
sg154
I3
sg155
I11
sg156
I7
ssg96
I1
sg97
I0
sg98
I0
sg99
I0
sg100
F9.222222222222221
sg101
I0
sg102
I0
sg103
I0
sg104
g537
sg105
I0
sg106
S'KH10'
p538
sg108
I0
sg109
I0
sg110
I0
sg111
I11
sg112
I3
sg113
I0
sg114
S'N'
p539
sbsS'n2'
p540
(ijoueur
joueur
p541
(dp542
g27
I0
sg28
I0
sg29
I0
sg30
(ijoueur
rang
p543
(dp544
g33
I5
sg34
S'**'
p545
sg36
g122
sbsg38
(dp546
g124
I0
sg125
I0
sg126
I0
sg127
I0
ssg44
(dp547
g124
I0
sg125
I0
sg126
I0
sg127
I0
ssg46
I0
sg47
I0
sg48
I1
sg49
I0
sg50
I0
sg51
(g52
S'TA'
p548
g130
g130
tp549
sg57
(ijoueur
rang
p550
(dp551
g33
I5
sg34
S'**'
p552
sg36
g122
sbsg61
(dp553
g124
I0
sg125
I0
sg126
I0
sg127
I1
ssg63
(dp554
g124
I0
sg125
I0
sg126
I0
sg127
I0
ssg65
(dp555
g124
I0
sg125
I0
sg126
I0
sg127
I0
ssg67
(dp556
g124
I0
sg125
I0
sg126
I0
sg127
I1
ssg69
I0
sg70
I0
sg71
S'Uurghizul'
p557
sg73
I6
sg74
I0
sg75
I15
sg76
I120
sg77
g78
sg79
(dp558
g142
I11
sg143
I11
sg144
I7
sg145
I11
sg146
I8
sg147
I9
sg148
I2
sg149
I9
sg150
I3
sg151
I8
sg152
I7
sg153
I12
sg154
I1
sg155
I10
sg156
I12
ssg96
I3
sg97
I0
sg98
I0
sg99
I0
sg100
F10.689655172413794
sg101
I0
sg102
I0
sg103
I0
sg104
g558
sg105
I0
sg106
g130
sg108
I0
sg109
I0
sg110
I0
sg111
I12
sg112
I9
sg113
I0
sg114
S'HB'
p559
sbsS'n3'
p560
(ijoueur
joueur
p561
(dp562
g27
I0
sg28
I0
sg29
I0
sg30
(ijoueur
rang
p563
(dp564
g33
I4
sg34
g134
sg36
g135
sbsg38
(dp565
g124
I0
sg125
I0
sg126
I0
sg127
I0
ssg44
(dp566
g124
I0
sg125
I0
sg126
I0
sg127
I0
ssg46
I0
sg47
I0
sg48
I0
sg49
I0
sg50
I0
sg51
(g52
S'PI'
p567
S'N8'
p568
g130
tp569
sg57
(ijoueur
rang
p570
(dp571
g33
I4
sg34
g134
sg36
g135
sbsg61
(dp572
g124
I0
sg125
I0
sg126
I0
sg127
I1
ssg63
(dp573
g124
I0
sg125
I0
sg126
I0
sg127
I0
ssg65
(dp574
g124
I0
sg125
I0
sg126
I0
sg127
I0
ssg67
(dp575
g124
I0
sg125
I0
sg126
I0
sg127
I1
ssg69
I0
sg70
I0
sg71
S'Mortord'
p576
sg73
I4
sg74
I0
sg75
I11
sg76
I310
sg77
g78
sg79
(dp577
g142
I5
sg143
I9
sg144
I7
sg145
I11
sg146
I3
sg147
I12
sg148
I2
sg149
I12
sg150
I3
sg151
I6
sg152
I9
sg153
I11
sg154
I0
sg155
I9
sg156
I8
ssg96
I4
sg97
I0
sg98
I0
sg99
I0
sg100
F9.777777777777779
sg101
I0
sg102
I0
sg103
I0
sg104
g577
sg105
I0
sg106
S'MDL8'
p578
sg108
I0
sg109
I0
sg110
I0
sg111
I40
sg112
I7
sg113
I0
sg114
S'OG'
p579
sbsS'n4'
p580
g271
sS'n5'
p581
g250
sS'n6'
p582
(ijoueur
joueur
p583
(dp584
g27
I0
sg28
I0
sg29
I0
sg30
(ijoueur
rang
p585
(dp586
g33
I5
sg34
S'xx'
p587
sg36
g122
sbsg38
(dp588
g124
I0
sg125
I0
sg126
I0
sg127
I1
ssg44
(dp589
g124
I0
sg125
I0
sg126
I0
sg127
I0
ssg46
I0
sg47
I0
sg48
I0
sg49
I0
sg50
I0
sg51
(g52
S'N8'
p590
S'TL'
p591
g130
tp592
sg57
(ijoueur
rang
p593
(dp594
g33
I5
sg34
S'xx'
p595
sg36
g122
sbsg61
(dp596
g124
I0
sg125
I0
sg126
I0
sg127
I0
ssg63
(dp597
g124
I0
sg125
I0
sg126
I0
sg127
I1
ssg65
(dp598
g124
I0
sg125
I0
sg126
I0
sg127
I0
ssg67
(dp599
g124
I0
sg125
I0
sg126
I0
sg127
I0
ssg69
I0
sg70
I0
sg71
S'Mredug'
p600
sg73
I6
sg74
I0
sg75
I13
sg76
I190
sg77
g78
sg79
(dp601
g142
I7
sg143
I9
sg144
I6
sg145
I10
sg146
I7
sg147
I9
sg148
I4
sg149
I9
sg150
I4
sg151
I7
sg152
I8
sg153
I11
sg154
I4
sg155
I13
sg156
I5
ssg96
I4
sg97
I0
sg98
I0
sg99
I0
sg100
F10.0
sg101
I0
sg102
I0
sg103
I0
sg104
g601
sg105
I0
sg106
S'FS11'
p602
sg108
I0
sg109
I0
sg110
I0
sg111
I9
sg112
I4
sg113
I0
sg114
S'O'
p603
sbsS'n7'
p604
g117
ssS'remplacements'
p605
(dp606
g366
S'n0'
p607
sg386
g607
sg431
g607
sg432
g607
sg433
g607
sg456
g607
sg477
g607
ssb.