(iclub
compo
p0
(dp1
S'caracs_old'
p2
(dp3
S'A'
p4
F159.5
sS'ME'
p5
F83.5
sS'E'
p6
I213
sS'OplusAV'
p7
F47.0
sS'TO_off'
p8
F98.0
sS'OplusAR'
p9
F61.5
sS'M'
p10
F51.5
sS'JP'
p11
F82.5
sS'OmoinsAR'
p12
F63.0
sS'PA'
p13
F106.0
sS'TO_def'
p14
F93.5
sS'OmoinsAV'
p15
F46.0
sS'R'
p16
F161.0
ssS'totaux_old'
p17
(dp18
S'T2'
p19
F174.0
sS'T3'
p20
F106.5
sS'T1'
p21
F170.125
ssS'roles'
p22
(dp23
S'drop1'
p24
(ijoueur
joueur
p25
(dp26
S'rouges_total'
p27
I0
sS'drops_total'
p28
I0
sS'blessure'
p29
I0
sS'RG_max'
p30
(ijoueur
rang
p31
(dp32
S'type_nb'
p33
I4
sS'rang'
p34
S'x'
p35
sS'type'
p36
S'heros'
p37
sbsS'MJ2_total'
p38
(dp39
S'SR'
p40
I0
sS'ST'
p41
I0
sS'CR'
p42
I0
sS'CT'
p43
I0
ssS'MJ3_total'
p44
(dp45
g40
I0
sg41
I0
sg42
I0
sg43
I0
ssS'drop_rates_total'
p46
I0
sS'drop_rates_saison'
p47
I0
sS'essais_saison'
p48
I0
sS'penalite_ratees_saison'
p49
I0
sS'transformations_saison'
p50
I0
sS'postes'
p51
(S'dummy'
p52
S'C1'
p53
S'AR'
p54
S'AI'
p55
tp56
sS'RG'
p57
(ijoueur
rang
p58
(dp59
g33
I4
sg34
g35
sg36
g37
sbsS'MJ1'
p60
(dp61
g40
I0
sg41
I0
sg42
I0
sg43
I6
ssS'MJ2'
p62
(dp63
g40
I0
sg41
I0
sg42
I0
sg43
I0
ssS'MJ3'
p64
(dp65
g40
I0
sg41
I0
sg42
I0
sg43
I0
ssS'MJ1_total'
p66
(dp67
g40
I0
sg41
I0
sg42
I0
sg43
I6
ssS'penalites_total'
p68
I0
sS'penalites_saison'
p69
I0
sS'nom'
p70
S'Farifend'
p71
sS'C'
p72
I7
sS'transformations_total'
p73
I0
sS'D'
p74
I22
sS'VAL'
p75
I120
sS'club'
p76
S'HTH'
p77
sS'caracs'
p78
(dp79
S'A'
p80
I12
sS'ME'
p81
I3
sS'RP2'
p82
I8
sS'E'
p83
I11
sS'TO'
p84
I10
sS'RP1'
p85
I9
sS'JP'
p86
I8
sS'RP_tot'
p87
I10
sS'P'
p88
I11
sS'PA'
p89
I12
sS'M'
p90
I13
sS'R'
p91
I7
sS'TB'
p92
I9
sS'PL'
p93
I10
sS'TA'
p94
I3
ssS'fatigue'
p95
I12
sS'drop_ratees_total'
p96
I0
sS'blessures_total'
p97
I0
sS'XP'
p98
I0
sS'EV'
p99
F10.7
sS'penalite_ratees_total'
p100
I0
sS'blessures_saison'
p101
I0
sS'jaunes_total'
p102
I0
sS'caracs_sans_fatigue'
p103
g79
sS'rouges_saison'
p104
I0
sS'anciens_clubs'
p105
S''
p106
sS'transformation_ratees_total'
p107
I0
sS'drops_saison'
p108
I0
sS'transformation_ratees_saison'
p109
I0
sS'MS'
p110
I14
sS'essais_total'
p111
I3
sS'jaunes_saison'
p112
I0
sS'ARM'
p113
S'ES'
p114
sbsS'SA_scd'
p115
(ijoueur
joueur
p116
(dp117
g27
I0
sg28
I0
sg29
I0
sg30
(ijoueur
rang
p118
(dp119
g33
I5
sg34
S'**'
p120
sg36
S'seigneur'
p121
sbsg38
(dp122
S'SR'
p123
I0
sS'ST'
p124
I0
sS'CR'
p125
I0
sS'CT'
p126
I0
ssg44
(dp127
g123
I0
sg124
I0
sg125
I0
sg126
I0
ssg46
I0
sg47
I0
sg48
I0
sg49
I0
sg50
I0
sg51
(g52
S'TL'
p128
g106
g106
tp129
sg57
(ijoueur
rang
p130
(dp131
g33
I4
sg34
S'*'
p132
sg36
S'heros'
p133
sbsg60
(dp134
g123
I0
sg124
I0
sg125
I0
sg126
I5
ssg62
(dp135
g123
I0
sg124
I0
sg125
I0
sg126
I0
ssg64
(dp136
g123
I0
sg124
I0
sg125
I0
sg126
I0
ssg66
(dp137
g123
I0
sg124
I0
sg125
I0
sg126
I5
ssg68
I0
sg69
I0
sg70
S'Le Catel'
p138
sg72
I8
sg73
I0
sg74
I24
sg75
I66
sg76
g77
sg78
(dp139
S'A'
p140
I10
sS'ME'
p141
I10
sS'RP2'
p142
I8
sS'E'
p143
I10
sS'TO'
p144
I10
sS'RP1'
p145
I8
sS'JP'
p146
I5
sS'RP_tot'
p147
I9
sS'P'
p148
I4
sS'PA'
p149
I9
sS'M'
p150
I8
sS'R'
p151
I11
sS'TB'
p152
I5
sS'PL'
p153
I10
sS'TA'
p154
I5
ssg95
I7
sg96
I0
sg97
I0
sg98
I0
sg99
F10.0
sg100
I0
sg101
I0
sg102
I0
sg103
g139
sg104
I0
sg105
g106
sg107
I0
sg108
I0
sg109
I0
sg110
I6
sg111
I0
sg112
I0
sg113
S'B'
p155
sbsS'RJL'
p156
(ijoueur
joueur
p157
(dp158
g27
I0
sg28
I9
sg29
I0
sg30
(ijoueur
rang
p159
(dp160
g33
I6
sg34
S'***'
p161
sg36
S'personnage'
p162
sbsg38
(dp163
g40
I0
sg41
I0
sg42
I0
sg43
I0
ssg44
(dp164
g40
I0
sg41
I0
sg42
I0
sg43
I0
ssg46
I0
sg47
I0
sg48
I0
sg49
I0
sg50
I4
sg51
(g52
S'DO'
p165
g106
g106
tp166
sg57
(ijoueur
rang
p167
(dp168
g33
I6
sg34
S'***'
p169
sg36
g162
sbsg60
(dp170
g40
I0
sg41
I0
sg42
I0
sg43
I5
ssg62
(dp171
g40
I0
sg41
I0
sg42
I0
sg43
I0
ssg64
(dp172
g40
I0
sg41
I0
sg42
I0
sg43
I0
ssg66
(dp173
g40
I0
sg41
I0
sg42
I0
sg43
I5
ssg68
I103
sg69
I8
sg70
S'Naestra'
p174
sg72
I8
sg73
I66
sg74
I17
sg75
I828
sg76
g77
sg78
(dp175
g80
I12
sg81
I3
sg82
I10
sg83
I11
sg84
I4
sg85
I8
sg86
I11
sg87
I11
sg88
I11
sg89
I12
sg90
I10
sg91
I9
sg92
I11
sg93
I10
sg94
I5
ssg95
I5
sg96
I0
sg97
I0
sg98
I0
sg99
F10.971428571428572
sg100
I0
sg101
I0
sg102
I0
sg103
g175
sg104
I0
sg105
S'MRB10'
p176
sg107
I0
sg108
I2
sg109
I0
sg110
I38
sg111
I4
sg112
I0
sg113
S'ES'
p177
sbsS'cap'
p178
(ijoueur
joueur
p179
(dp180
g27
I0
sg28
I0
sg29
I0
sg30
(ijoueur
rang
p181
(dp182
g33
I4
sg34
S'*'
p183
sg36
g37
sbsg38
(dp184
g40
I0
sg41
I0
sg42
I0
sg43
I0
ssg44
(dp185
g40
I0
sg41
I0
sg42
I0
sg43
I0
ssg46
I0
sg47
I0
sg48
I0
sg49
I0
sg50
I0
sg51
(g52
S'C2'
p186
S'AR'
p187
S'AI'
p188
tp189
sg57
(ijoueur
rang
p190
(dp191
g33
I4
sg34
g183
sg36
g37
sbsg60
(dp192
g40
I0
sg41
I0
sg42
I0
sg43
I5
ssg62
(dp193
g40
I0
sg41
I0
sg42
I0
sg43
I0
ssg64
(dp194
g40
I0
sg41
I0
sg42
I0
sg43
I0
ssg66
(dp195
g40
I0
sg41
I0
sg42
I0
sg43
I5
ssg68
I0
sg69
I0
sg70
S'Guzum'
p196
sg72
I1
sg73
I0
sg74
I11
sg75
I50
sg76
g77
sg78
(dp197
g80
I10
sg81
I5
sg82
I6
sg83
I14
sg84
I3
sg85
I10
sg86
I6
sg87
I10
sg88
I8
sg89
I10
sg90
I8
sg91
I8
sg92
I8
sg93
I11
sg94
I6
ssg95
I7
sg96
I0
sg97
I0
sg98
I0
sg99
F10.172413793103448
sg100
I0
sg101
I0
sg102
I0
sg103
g197
sg104
I0
sg105
g106
sg107
I0
sg108
I0
sg109
I0
sg110
I7
sg111
I10
sg112
I0
sg113
S'O'
p198
sbsS'B4'
p199
g157
sS'RJC'
p200
g157
sS'B1'
p201
g157
sS'B2'
p202
g157
sS'B3'
p203
g157
sS'SA_pcp2'
p204
(ijoueur
joueur
p205
(dp206
g27
I0
sg28
I0
sg29
I0
sg30
(ijoueur
rang
p207
(dp208
g33
I3
sg34
S'^^^'
p209
sg36
S'rare'
p210
sbsg38
(dp211
g123
I0
sg124
I0
sg125
I0
sg126
I0
ssg44
(dp212
g123
I0
sg124
I0
sg125
I0
sg126
I0
ssg46
I0
sg47
I0
sg48
I0
sg49
I0
sg50
I0
sg51
(g52
S'DL'
p213
g106
g106
tp214
sg57
(ijoueur
rang
p215
(dp216
g33
I3
sg34
S'^^^'
p217
sg36
g210
sbsg60
(dp218
g123
I0
sg124
I0
sg125
I0
sg126
I6
ssg62
(dp219
g123
I0
sg124
I0
sg125
I0
sg126
I0
ssg64
(dp220
g123
I0
sg124
I0
sg125
I0
sg126
I0
ssg66
(dp221
g123
I0
sg124
I0
sg125
I0
sg126
I6
ssg68
I0
sg69
I0
sg70
S'Noroel'
p222
sg72
I6
sg73
I0
sg74
I19
sg75
I25
sg76
g77
sg78
(dp223
g140
I9
sg141
I10
sg142
I6
sg143
I10
sg144
I11
sg145
I9
sg146
I5
sg147
I9
sg148
I6
sg149
I8
sg150
I8
sg151
I9
sg152
I4
sg153
I11
sg154
I5
ssg95
I11
sg96
I0
sg97
I0
sg98
I0
sg99
F9.823529411764707
sg100
I0
sg101
I0
sg102
I0
sg103
g223
sg104
I0
sg105
g106
sg107
I0
sg108
I0
sg109
I0
sg110
I2
sg111
I2
sg112
I0
sg113
S'EN'
p224
sbsS'SA_pcp1'
p225
(ijoueur
joueur
p226
(dp227
g27
I0
sg28
I0
sg29
I0
sg30
(ijoueur
rang
p228
(dp229
g33
I2
sg34
S'^^'
p230
sg36
S'special'
p231
sbsg38
(dp232
g123
I0
sg124
I0
sg125
I0
sg126
I0
ssg44
(dp233
g123
I0
sg124
I0
sg125
I0
sg126
I0
ssg46
I0
sg47
I0
sg48
I0
sg49
I0
sg50
I0
sg51
(g52
S'DL'
p234
g106
g106
tp235
sg57
(ijoueur
rang
p236
(dp237
g33
I2
sg34
S'^^'
p238
sg36
g231
sbsg60
(dp239
g123
I0
sg124
I0
sg125
I5
sg126
I1
ssg62
(dp240
g123
I0
sg124
I0
sg125
I0
sg126
I0
ssg64
(dp241
g123
I0
sg124
I0
sg125
I0
sg126
I0
ssg66
(dp242
g123
I0
sg124
I0
sg125
I5
sg126
I1
ssg68
I0
sS'carton_jaunes_saison'
p243
I1
sg69
I0
sg70
S'Mue'
p244
sg72
I2
sg73
I0
sg74
I13
sg75
I50
sg76
g77
sS'carton_jaunes_total'
p245
I1
sg78
(dp246
g140
I10
sg141
I8
sg142
I8
sg143
I10
sg144
I12
sg145
I8
sg146
I3
sg147
I9
sg148
I4
sg149
I9
sg150
I7
sg151
I7
sg152
I3
sg153
I9
sg154
I5
ssg95
I7
sg96
I0
sg97
I0
sg98
I0
sg99
F9.205882352941176
sg100
I0
sg101
I0
sg102
I0
sg103
g246
sg104
I0
sg105
S'AL9'
p247
sg107
I0
sg108
I0
sg109
I0
sg110
I5
sg111
I0
sg112
I0
sg113
S'ES'
p248
sbsS'drop3'
p249
(ijoueur
joueur
p250
(dp251
g27
I0
sg28
I0
sg29
I0
sg30
(ijoueur
rang
p252
(dp253
g33
I3
sg34
S'^^^'
p254
sg36
S'rare'
p255
sbsg38
(dp256
g40
I0
sg41
I0
sg42
I0
sg43
I0
ssg44
(dp257
g40
I0
sg41
I0
sg42
I0
sg43
I0
ssg46
I0
sg47
I0
sg48
I0
sg49
I0
sg50
I0
sg51
(g52
S'DO'
p258
S'AR'
p259
g106
tp260
sg57
(ijoueur
rang
p261
(dp262
g33
I3
sg34
S'^^^'
p263
sg36
g255
sbsg60
(dp264
g40
I0
sg41
I0
sg42
I3
sg43
I0
ssg62
(dp265
g40
I0
sg41
I0
sg42
I0
sg43
I0
ssg64
(dp266
g40
I0
sg41
I0
sg42
I0
sg43
I0
ssg66
(dp267
g40
I0
sg41
I0
sg42
I3
sg43
I0
ssg68
I0
sg69
I0
sg70
S'Latael'
p268
sg72
I8
sg73
I0
sg74
I16
sg75
I58
sg76
g77
sg78
(dp269
g80
I12
sg81
I5
sg82
I6
sg83
I10
sg84
I8
sg85
I6
sg86
I9
sg87
I6
sg88
I8
sg89
I9
sg90
I9
sg91
I8
sg92
I11
sg93
I11
sg94
I4
ssg95
I4
sg96
I0
sg97
I0
sg98
I0
sg99
F9.285714285714286
sg100
I0
sg101
I0
sg102
I0
sg103
g269
sg104
I0
sg105
g106
sg107
I0
sg108
I0
sg109
I0
sg110
I3
sg111
I2
sg112
I0
sg113
S'HE'
p270
sbsS'SA_remp1'
p271
(ijoueur
joueur
p272
(dp273
g27
I0
sg28
I0
sg29
I0
sg30
(ijoueur
rang
p274
(dp275
g33
I4
sg34
g132
sg36
g133
sbsg38
(dp276
g123
I0
sg124
I0
sg125
I1
sg126
I1
ssg44
(dp277
g123
I0
sg124
I0
sg125
I0
sg126
I0
ssg46
I0
sg47
I0
sg48
I0
sg49
I0
sg50
I0
sg51
(g52
S'DL'
p278
S'PI'
p279
S'TA'
p280
tp281
sg57
(ijoueur
rang
p282
(dp283
g33
I4
sg34
g132
sg36
g133
sbsg60
(dp284
g123
I0
sg124
I0
sg125
I0
sg126
I0
ssg62
(dp285
g123
I0
sg124
I0
sg125
I1
sg126
I1
ssg64
(dp286
g123
I0
sg124
I0
sg125
I0
sg126
I0
ssg66
(dp287
g123
I0
sg124
I0
sg125
I0
sg126
I0
ssg68
I0
sg69
I0
sg70
S'Gyendal'
p288
sg72
I1
sg73
I0
sg74
I11
sg75
I96
sg76
g77
sg78
(dp289
g140
I11
sg141
I9
sg142
I6
sg143
I10
sg144
I12
sg145
I6
sg146
I2
sg147
I6
sg148
I7
sg149
I10
sg150
I6
sg151
I8
sg152
I3
sg153
I5
sg154
I9
ssg95
I0
sg96
I0
sg97
I0
sg98
I0
sg99
F8.777777777777779
sg100
I0
sg101
I0
sg102
I0
sg103
g289
sg104
I0
sg105
S'KHR9'
p290
sg107
I0
sg108
I0
sg109
I0
sg110
I12
sg111
I6
sg112
I0
sg113
S'CHS'
p291
sbsS'drop2'
p292
g157
sS'SA_remp2'
p293
(ijoueur
joueur
p294
(dp295
g27
I0
sg28
I0
sg29
I0
sg30
(ijoueur
rang
p296
(dp297
g33
I4
sg34
g132
sg36
g133
sbsg38
(dp298
g123
I0
sg124
I0
sg125
I1
sg126
I2
ssg44
(dp299
g123
I0
sg124
I0
sg125
I0
sg126
I0
ssg46
I0
sg47
I0
sg48
I1
sg49
I0
sg50
I0
sg51
(g52
S'N8'
p300
S'TL'
p301
g106
tp302
sg57
(ijoueur
rang
p303
(dp304
g33
I4
sg34
g132
sg36
g133
sbsg60
(dp305
g123
I0
sg124
I0
sg125
I0
sg126
I0
ssg62
(dp306
g123
I0
sg124
I0
sg125
I1
sg126
I2
ssg64
(dp307
g123
I0
sg124
I0
sg125
I0
sg126
I0
ssg66
(dp308
g123
I0
sg124
I0
sg125
I0
sg126
I0
ssg68
I0
sg69
I0
sg70
S'Ibign'
p309
sg72
I6
sg73
I0
sg74
I18
sg75
I181
sg76
g77
sg78
(dp310
g140
I10
sg141
I8
sg142
I6
sg143
I11
sg144
I10
sg145
I10
sg146
I4
sg147
I10
sg148
I3
sg149
I8
sg150
I8
sg151
I10
sg152
I3
sg153
I10
sg154
I4
ssg95
I0
sg96
I0
sg97
I0
sg98
I0
sg99
F9.833333333333334
sg100
I0
sg101
I0
sg102
I0
sg103
g310
sg104
I0
sg105
S'MRB9;MDL11'
p311
sg107
I0
sg108
I0
sg109
I0
sg110
I18
sg111
I4
sg112
I0
sg113
S'HB'
p312
sbssS'totaux'
p313
(dp314
g19
I0
sg20
I0
sg21
I0
ssS'_compo_defaut_fatigue'
p315
Nsg78
(dp316
g4
I0
sg5
I0
sg6
I0
sg7
I0
sg8
I0
sg9
I0
sg10
I0
sg11
I0
sg12
I0
sg13
I0
sg14
I0
sg15
I0
sg16
I0
ssS'joueurs'
p317
(dp318
S'n12'
p319
g25
sS'n13'
p320
g179
sS'n10'
p321
g157
sS'n11'
p322
(ijoueur
joueur
p323
(dp324
g27
I0
sg28
I0
sg29
I0
sg30
(ijoueur
rang
p325
(dp326
g33
I5
sg34
S'**'
p327
sg36
S'seigneur'
p328
sbsg38
(dp329
g40
I0
sg41
I0
sg42
I0
sg43
I0
ssg44
(dp330
g40
I0
sg41
I0
sg42
I0
sg43
I0
ssg46
I0
sg47
I0
sg48
I0
sg49
I0
sg50
I0
sg51
(g52
S'AI'
p331
g106
g106
tp332
sg57
(ijoueur
rang
p333
(dp334
g33
I1
sg34
S'^'
p335
sg36
S'base'
p336
sbsg60
(dp337
g40
I0
sg41
I0
sg42
I0
sg43
I0
ssg62
(dp338
g40
I0
sg41
I0
sg42
I0
sg43
I0
ssg64
(dp339
g40
I0
sg41
I0
sg42
I0
sg43
I0
ssg66
(dp340
g40
I0
sg41
I0
sg42
I0
sg43
I0
ssg68
I0
sg69
I0
sg70
S'Harthaeth'
p341
sg72
I11
sg73
I0
sg74
I25
sg75
I17
sg76
g77
sg78
(dp342
g80
I12
sg81
I4
sg82
I7
sg83
I8
sg84
I7
sg85
I9
sg86
I7
sg87
I9
sg88
I8
sg89
I9
sg90
I9
sg91
I6
sg92
I6
sg93
I8
sg94
I5
ssg95
I0
sg96
I0
sg97
I0
sg98
I0
sg99
F9.129032258064516
sg100
I0
sg101
I0
sg102
I0
sg103
g342
sg104
I0
sg105
g106
sg107
I0
sg108
I0
sg109
I0
sg110
I2
sg111
I0
sg112
I0
sg113
S'HE'
p343
sbsS'n16'
p344
(ijoueur
joueur
p345
(dp346
g27
I0
sg28
I0
sg29
I0
sg30
(ijoueur
rang
p347
(dp348
g33
I5
sg34
S'**'
p349
sg36
g121
sbsg38
(dp350
g123
I0
sg124
I0
sg125
I0
sg126
I0
ssg44
(dp351
g123
I0
sg124
I0
sg125
I0
sg126
I0
ssg46
I0
sg47
I0
sg48
I0
sg49
I0
sg50
I0
sg51
(g52
S'TA'
p352
S'PI'
p353
g106
tp354
sg57
(ijoueur
rang
p355
(dp356
g33
I5
sg34
S'**'
p357
sg36
g121
sbsg60
(dp358
g123
I0
sg124
I0
sg125
I6
sg126
I0
ssg62
(dp359
g123
I0
sg124
I0
sg125
I0
sg126
I0
ssg64
(dp360
g123
I0
sg124
I0
sg125
I0
sg126
I0
ssg66
(dp361
g123
I0
sg124
I0
sg125
I6
sg126
I0
ssg68
I0
sg69
I0
sg70
S'Uskass'
p362
sg72
I8
sg73
I0
sg74
I18
sg75
I153
sg76
g77
sg78
(dp363
g140
I12
sg141
I10
sg142
I8
sg143
I8
sg144
I8
sg145
I8
sg146
I7
sg147
I9
sg148
I7
sg149
I11
sg150
I8
sg151
I7
sg152
I5
sg153
I9
sg154
I10
ssg95
I3
sg96
I0
sg97
I0
sg98
I0
sg99
F8.931034482758621
sg100
I0
sg101
I0
sg102
I0
sg103
g363
sg104
I0
sg105
g106
sg107
I0
sg108
I0
sg109
I0
sg110
I19
sg111
I5
sg112
I0
sg113
S'S'
p364
sbsS'n17'
p365
g272
sS'n14'
p366
(ijoueur
joueur
p367
(dp368
g27
I0
sg28
I0
sg29
I0
sg30
(ijoueur
rang
p369
(dp370
g33
I1
sg34
S'>'
p371
sg36
g336
sbsg38
(dp372
g40
I0
sg41
I0
sg42
I0
sg43
I0
ssg44
(dp373
g40
I0
sg41
I0
sg42
I0
sg43
I0
ssg46
I0
sg47
I0
sg48
I0
sg49
I0
sg50
I0
sg51
(g52
S'AI'
p374
g106
g106
tp375
sg57
(ijoueur
rang
p376
(dp377
g33
I1
sg34
g371
sg36
g336
sbsg60
(dp378
g40
I0
sg41
I0
sg42
I2
sg43
I1
ssg62
(dp379
g40
I0
sg41
I0
sg42
I0
sg43
I0
ssg64
(dp380
g40
I0
sg41
I0
sg42
I0
sg43
I0
ssg66
(dp381
g40
I0
sg41
I0
sg42
I2
sg43
I1
ssg68
I0
sg69
I0
sg70
S'Lilien'
p382
sg72
I2
sg73
I0
sg74
I12
sg75
I10
sg76
g77
sg78
(dp383
g80
I9
sg81
I4
sg82
I10
sg83
I11
sg84
I5
sg85
I7
sg86
I5
sg87
I10
sg88
I6
sg89
I7
sg90
I12
sg91
I4
sg92
I6
sg93
I10
sg94
I7
ssg95
I4
sg96
I0
sg97
I0
sg98
I0
sg99
F9.483870967741936
sg100
I0
sg101
I0
sg102
I0
sg103
g383
sg104
I0
sg105
g106
sg107
I0
sg108
I0
sg109
I0
sg110
I1
sg111
I1
sg112
I0
sg113
S'HE'
p384
sbsS'n15'
p385
(ijoueur
joueur
p386
(dp387
g27
I0
sg28
I0
sg29
I0
sg30
(ijoueur
rang
p388
(dp389
g33
I6
sg34
S'***'
p390
sg36
g162
sbsg38
(dp391
g40
I0
sg41
I0
sg42
I0
sg43
I4
ssg44
(dp392
g40
I0
sg41
I0
sg42
I1
sg43
I0
ssg46
I0
sg47
I0
sg48
I0
sg49
I0
sg50
I0
sg51
(g52
S'C2'
p393
S'AR'
p394
S'AI'
p395
tp396
sg57
(ijoueur
rang
p397
(dp398
g33
I6
sg34
S'***'
p399
sg36
g162
sbsg60
(dp400
g40
I0
sg41
I0
sg42
I0
sg43
I0
ssg62
(dp401
g40
I0
sg41
I0
sg42
I0
sg43
I4
ssg64
(dp402
g40
I0
sg41
I0
sg42
I1
sg43
I0
ssg66
(dp403
g40
I0
sg41
I0
sg42
I0
sg43
I0
ssg68
I0
sg69
I0
sg70
S'Karl Franz'
p404
sg72
I9
sg73
I0
sg74
I21
sg75
I397
sg76
g77
sg78
(dp405
g80
I12
sg81
I7
sg82
I10
sg83
I12
sg84
I9
sg85
I11
sg86
I8
sg87
I14
sg88
I10
sg89
I11
sg90
I10
sg91
I7
sg92
I7
sg93
I14
sg94
I4
ssg95
I7
sg96
I0
sg97
I0
sg98
I0
sg99
F11.793103448275861
sg100
I0
sg101
I0
sg102
I0
sg103
g405
sg104
I0
sg105
g106
sg107
I0
sg108
I0
sg109
I0
sg110
I26
sg111
I3
sg112
I0
sg113
S'EMP'
p406
sbsS'n18'
p407
(ijoueur
joueur
p408
(dp409
g27
I0
sg28
I0
sg29
I0
sg30
(ijoueur
rang
p410
(dp411
g33
I1
sg34
S'<'
p412
sg36
S'base'
p413
sbsg38
(dp414
g123
I0
sg124
I0
sg125
I1
sg126
I0
ssg44
(dp415
g123
I0
sg124
I0
sg125
I1
sg126
I0
ssg46
I0
sg47
I0
sg48
I0
sg49
I0
sg50
I0
sg51
(g52
S'TL'
p416
S'DL'
p417
S'PI'
p418
tp419
sg57
(ijoueur
rang
p420
(dp421
g33
I1
sg34
g412
sg36
g413
sbsg60
(dp422
g123
I0
sg124
I0
sg125
I0
sg126
I0
ssg62
(dp423
g123
I0
sg124
I0
sg125
I1
sg126
I0
ssg64
(dp424
g123
I0
sg124
I0
sg125
I1
sg126
I0
ssg66
(dp425
g123
I0
sg124
I0
sg125
I0
sg126
I0
ssg68
I0
sg69
I0
sg70
S'Raleux'
p426
sg72
I3
sg73
I0
sg74
I10
sg75
I14
sg76
g77
sg78
(dp427
g140
I7
sg141
I9
sg142
I7
sg143
I8
sg144
I7
sg145
I10
sg146
I3
sg147
I10
sg148
I3
sg149
I7
sg150
I7
sg151
I9
sg152
I2
sg153
I9
sg154
I6
ssg95
I0
sg96
I0
sg97
I0
sg98
I0
sg99
F8.612903225806452
sg100
I0
sg101
I0
sg102
I0
sg103
g427
sg104
I0
sg105
S'TO9'
p428
sg107
I0
sg108
I0
sg109
I0
sg110
I2
sg111
I0
sg112
I0
sg113
g155
sbsS'n19'
p429
(ijoueur
joueur
p430
(dp431
g27
I0
sg28
I0
sg29
I0
sg30
(ijoueur
rang
p432
(dp433
g33
I5
sg34
S'xx'
p434
sg36
g121
sbsg38
(dp435
g123
I0
sg124
I0
sg125
I0
sg126
I0
ssg44
(dp436
g123
I0
sg124
I0
sg125
I0
sg126
I0
ssg46
I0
sg47
I0
sg48
I1
sg49
I0
sg50
I0
sg51
(g52
S'N8'
p437
S'TL'
p438
g106
tp439
sg57
(ijoueur
rang
p440
(dp441
g33
I5
sg34
S'xx'
p442
sg36
g121
sbsg60
(dp443
g123
I0
sg124
I0
sg125
I0
sg126
I5
ssg62
(dp444
g123
I0
sg124
I0
sg125
I0
sg126
I0
ssg64
(dp445
g123
I0
sg124
I0
sg125
I0
sg126
I0
ssg66
(dp446
g123
I0
sg124
I0
sg125
I0
sg126
I5
ssg68
I0
sg69
I0
sg70
S"Rak'Daq"
p447
sg72
I5
sg73
I0
sg74
I15
sg75
I525
sg76
g77
sg78
(dp448
g140
I11
sg141
I13
sg142
I9
sg143
I13
sg144
I9
sg145
I15
sg146
I2
sg147
I17
sg148
I4
sg149
I7
sg150
I7
sg151
I12
sg152
I2
sg153
I9
sg154
I8
ssg95
I7
sg96
I0
sg97
I0
sg98
I0
sg99
F12.137931034482758
sg100
I0
sg101
I0
sg102
I0
sg103
g448
sg104
I0
sg105
g106
sg107
I0
sg108
I0
sg109
I0
sg110
I70
sg111
I17
sg112
I0
sg113
S'HL'
p449
sbsS'n22'
p450
(ijoueur
joueur
p451
(dp452
g27
I0
sg28
I0
sg29
I0
sg30
(ijoueur
rang
p453
(dp454
g33
I3
sg34
S'^^^'
p455
sg36
g255
sbsg38
(dp456
g40
I0
sg41
I0
sg42
I0
sg43
I0
ssg44
(dp457
g40
I0
sg41
I0
sg42
I0
sg43
I0
ssg46
I0
sg47
I0
sg48
I0
sg49
I0
sg50
I0
sg51
(g52
S'AI'
p458
S'DM'
p459
S'DO'
p460
tp461
sg57
(ijoueur
rang
p462
(dp463
g33
I3
sg34
S'^^^'
p464
sg36
g255
sbsg60
(dp465
g40
I0
sg41
I0
sg42
I0
sg43
I0
ssg62
(dp466
g40
I0
sg41
I0
sg42
I0
sg43
I0
ssg64
(dp467
g40
I0
sg41
I0
sg42
I0
sg43
I0
ssg66
(dp468
g40
I0
sg41
I0
sg42
I0
sg43
I0
ssg68
I0
sg69
I0
sg70
S'Xyos'
p469
sg72
I1
sg73
I0
sg74
I9
sg75
I9
sg76
g77
sg78
(dp470
g80
I10
sg81
I4
sg82
I4
sg83
I10
sg84
I3
sg85
I9
sg86
I9
sg87
I9
sg88
I7
sg89
I9
sg90
I11
sg91
I4
sg92
I9
sg93
I9
sg94
I8
ssg95
I0
sg96
I0
sg97
I0
sg98
I0
sg99
F9.419354838709678
sg100
I0
sg101
I0
sg102
I0
sg103
g470
sg104
I0
sg105
g106
sg107
I0
sg108
I0
sg109
I0
sg110
I3
sg111
I10
sg112
I0
sg113
S'HE'
p471
sbsS'n21'
p472
(ijoueur
joueur
p473
(dp474
g27
I0
sg28
I1
sg29
I0
sg30
(ijoueur
rang
p475
(dp476
g33
I4
sg34
g183
sg36
g37
sbsg38
(dp477
g40
I0
sg41
I0
sg42
I0
sg43
I0
ssg44
(dp478
g40
I0
sg41
I0
sg42
I1
sg43
I0
ssg46
I0
sg47
I0
sg48
I0
sg49
I0
sg50
I0
sg51
(g52
S'C1'
p479
S'DO'
p480
S'AR'
p481
tp482
sg57
(ijoueur
rang
p483
(dp484
g33
I4
sg34
g183
sg36
g37
sbsg60
(dp485
g40
I0
sg41
I0
sg42
I1
sg43
I0
ssg62
(dp486
g40
I0
sg41
I0
sg42
I0
sg43
I0
ssg64
(dp487
g40
I0
sg41
I0
sg42
I1
sg43
I0
ssg66
(dp488
g40
I0
sg41
I0
sg42
I1
sg43
I0
ssg68
I0
sg69
I0
sg70
S'Coutard'
p489
sg72
I7
sg73
I0
sg74
I16
sg75
I68
sg76
g77
sg78
(dp490
g80
I10
sg81
I6
sg82
I9
sg83
I8
sg84
I5
sg85
I9
sg86
I7
sg87
I11
sg88
I8
sg89
I8
sg90
I9
sg91
I9
sg92
I9
sg93
I9
sg94
I4
ssg95
I2
sg96
I0
sg97
I0
sg98
I0
sg99
F8.9375
sg100
I0
sg101
I0
sg102
I0
sg103
g490
sg104
I0
sg105
S'PRG9'
p491
sg107
I0
sg108
I0
sg109
I0
sg110
I6
sg111
I2
sg112
I0
sg113
S'EMP'
p492
sbsS'n20'
p493
g250
sS'n8'
p494
(ijoueur
joueur
p495
(dp496
g27
I0
sg28
I0
sg29
I0
sg30
(ijoueur
rang
p497
(dp498
g33
I4
sg34
g132
sg36
g133
sbsg38
(dp499
g123
I0
sg124
I0
sg125
I3
sg126
I1
ssg44
(dp500
g123
I0
sg124
I0
sg125
I0
sg126
I0
ssg46
I0
sg47
I0
sg48
I1
sg49
I0
sg50
I0
sg51
(g52
S'N8'
p501
S'TL'
p502
g106
tp503
sg57
(ijoueur
rang
p504
(dp505
g33
I4
sg34
g132
sg36
g133
sbsg60
(dp506
g123
I0
sg124
I0
sg125
I1
sg126
I1
ssg62
(dp507
g123
I0
sg124
I0
sg125
I3
sg126
I1
ssg64
(dp508
g123
I0
sg124
I0
sg125
I0
sg126
I0
ssg66
(dp509
g123
I0
sg124
I0
sg125
I1
sg126
I1
ssg68
I0
sg69
I0
sg70
S'Rothonhal'
p510
sg72
I4
sg73
I0
sg74
I11
sg75
I80
sg76
g77
sg78
(dp511
g140
I9
sg141
I10
sg142
I10
sg143
I10
sg144
I10
sg145
I7
sg146
I5
sg147
I10
sg148
I6
sg149
I8
sg150
I6
sg151
I10
sg152
I5
sg153
I11
sg154
I5
ssg95
I6
sg96
I0
sg97
I0
sg98
I0
sg99
F9.88888888888889
sg100
I0
sg101
I0
sg102
I0
sg103
g511
sg104
I0
sg105
S'TA9'
p512
sg107
I0
sg108
I0
sg109
I0
sg110
I11
sg111
I6
sg112
I0
sg113
g364
sbsS'n9'
p513
(ijoueur
joueur
p514
(dp515
g27
I0
sg28
I0
sg29
I0
sg30
(ijoueur
rang
p516
(dp517
g33
I5
sg34
S'**'
p518
sg36
g328
sbsg38
(dp519
g40
I0
sg41
I0
sg42
I0
sg43
I0
ssg44
(dp520
g40
I0
sg41
I0
sg42
I0
sg43
I0
ssg46
I0
sg47
I0
sg48
I0
sg49
I0
sg50
I0
sg51
(g52
S'DM'
p521
g106
g106
tp522
sg57
(ijoueur
rang
p523
(dp524
g33
I2
sg34
S'^^'
p525
sg36
S'special'
p526
sbsg60
(dp527
g40
I0
sg41
I0
sg42
I6
sg43
I0
ssg62
(dp528
g40
I0
sg41
I0
sg42
I0
sg43
I0
ssg64
(dp529
g40
I0
sg41
I0
sg42
I0
sg43
I0
ssg66
(dp530
g40
I0
sg41
I0
sg42
I6
sg43
I0
ssg68
I0
sg69
I0
sg70
S'Zimloeth'
p531
sg72
I11
sg73
I0
sg74
I23
sg75
I23
sg76
g77
sg78
(dp532
g80
I11
sg81
I6
sg82
I6
sg83
I10
sg84
I6
sg85
I6
sg86
I7
sg87
I6
sg88
I9
sg89
I14
sg90
I9
sg91
I5
sg92
I7
sg93
I8
sg94
I4
ssg95
I5
sg96
I0
sg97
I0
sg98
I0
sg99
F9.620689655172415
sg100
I0
sg101
I0
sg102
I0
sg103
g532
sg104
I0
sg105
g106
sg107
I0
sg108
I0
sg109
I0
sg110
I2
sg111
I0
sg112
I0
sg113
S'HE'
p533
sbsS'n1'
p534
(ijoueur
joueur
p535
(dp536
g27
I0
sg28
I0
sg29
I0
sg30
(ijoueur
rang
p537
(dp538
g33
I1
sg34
g412
sg36
g413
sbsg38
(dp539
g123
I0
sg124
I0
sg125
I0
sg126
I0
ssg44
(dp540
g123
I0
sg124
I0
sg125
I0
sg126
I0
ssg46
I0
sg47
I0
sg48
I0
sg49
I0
sg50
I0
sg51
(g52
S'PI'
p541
S'N8'
p542
S'TA'
p543
tp544
sg57
(ijoueur
rang
p545
(dp546
g33
I1
sg34
g412
sg36
g413
sbsg60
(dp547
g123
I0
sg124
I0
sg125
I4
sg126
I1
ssg62
(dp548
g123
I0
sg124
I0
sg125
I0
sg126
I0
ssg64
(dp549
g123
I0
sg124
I0
sg125
I0
sg126
I0
ssg66
(dp550
g123
I0
sg124
I0
sg125
I4
sg126
I1
ssg68
I0
sg69
I0
sg70
S'Lohonel'
p551
sg72
I-2
sg73
I0
sg74
I11
sg75
I14
sg76
g77
sg78
(dp552
g140
I9
sg141
I10
sg142
I6
sg143
I12
sg144
I8
sg145
I8
sg146
I5
sg147
I8
sg148
I8
sg149
I8
sg150
I6
sg151
I8
sg152
I3
sg153
I8
sg154
I8
ssg95
I6
sg96
I0
sg97
I0
sg98
I0
sg99
F8.962962962962964
sg100
I0
sg101
I0
sg102
I0
sg103
g552
sg104
I0
sg105
g106
sg107
I0
sg108
I0
sg109
I0
sg110
I2
sg111
I3
sg112
I0
sg113
S'HE'
p553
sbsS'n2'
p554
(ijoueur
joueur
p555
(dp556
g27
I0
sg28
I0
sg29
I0
sg30
(ijoueur
rang
p557
(dp558
g33
I4
sg34
g132
sg36
g133
sbsg38
(dp559
g123
I0
sg124
I0
sg125
I0
sg126
I0
ssg44
(dp560
g123
I0
sg124
I0
sg125
I0
sg126
I0
ssg46
I0
sg47
I0
sg48
I0
sg49
I0
sg50
I0
sg51
(g52
S'TA'
p561
S'PI'
p562
g106
tp563
sg57
(ijoueur
rang
p564
(dp565
g33
I1
sg34
S'>'
p566
sg36
g413
sbsg60
(dp567
g123
I0
sg124
I0
sg125
I0
sg126
I0
ssg62
(dp568
g123
I0
sg124
I0
sg125
I0
sg126
I0
ssg64
(dp569
g123
I0
sg124
I0
sg125
I0
sg126
I0
ssg66
(dp570
g123
I0
sg124
I0
sg125
I0
sg126
I0
ssg68
I0
sg69
I0
sg70
S'Jitaeth'
p571
sg72
I11
sg73
I0
sg74
I26
sg75
I17
sg76
g77
sg78
(dp572
g140
I9
sg141
I9
sg142
I6
sg143
I10
sg144
I6
sg145
I8
sg146
I4
sg147
I8
sg148
I6
sg149
I8
sg150
I8
sg151
I8
sg152
I2
sg153
I7
sg154
I7
ssg95
I0
sg96
I0
sg97
I0
sg98
I0
sg99
F8.172413793103448
sg100
I0
sg101
I0
sg102
I0
sg103
g572
sg104
I0
sg105
g106
sg107
I0
sg108
I0
sg109
I0
sg110
I1
sg111
I0
sg112
I0
sg113
S'HE'
p573
sbsS'n3'
p574
(ijoueur
joueur
p575
(dp576
g27
I0
sg28
I0
sg29
I0
sg30
(ijoueur
rang
p577
(dp578
g33
I4
sg34
g132
sg36
g133
sbsg38
(dp579
g123
I0
sg124
I0
sg125
I0
sg126
I0
ssg44
(dp580
g123
I0
sg124
I0
sg125
I0
sg126
I0
ssg46
I0
sg47
I0
sg48
I0
sg49
I0
sg50
I0
sg51
(g52
S'PI'
p581
S'N8'
p582
g106
tp583
sg57
(ijoueur
rang
p584
(dp585
g33
I4
sg34
g132
sg36
g133
sbsg60
(dp586
g123
I0
sg124
I0
sg125
I0
sg126
I5
ssg62
(dp587
g123
I0
sg124
I0
sg125
I0
sg126
I0
ssg64
(dp588
g123
I0
sg124
I0
sg125
I0
sg126
I0
ssg66
(dp589
g123
I0
sg124
I0
sg125
I0
sg126
I5
ssg68
I0
sg69
I0
sg70
S'Mortord'
p590
sg72
I4
sg73
I0
sg74
I11
sg75
I310
sg76
g77
sg78
(dp591
g140
I5
sg141
I9
sg142
I7
sg143
I11
sg144
I3
sg145
I12
sg146
I2
sg147
I12
sg148
I3
sg149
I6
sg150
I9
sg151
I11
sg152
I0
sg153
I9
sg154
I8
ssg95
I7
sg96
I0
sg97
I0
sg98
I0
sg99
F9.777777777777779
sg100
I0
sg101
I0
sg102
I0
sg103
g591
sg104
I0
sg105
S'MDL8'
p592
sg107
I0
sg108
I0
sg109
I0
sg110
I40
sg111
I7
sg112
I0
sg113
S'OG'
p593
sbsS'n4'
p594
g226
sS'n5'
p595
g205
sS'n6'
p596
g294
sS'n7'
p597
g116
ssS'remplacements'
p598
(dp599
g344
S'n0'
p600
sg365
g600
sg407
g600
sg429
g600
sg450
g600
sg472
g600
sg493
g600
ssb.