(iclub
compo
p0
(dp1
S'caracs_old'
p2
(dp3
S'A'
p4
I0
sS'ME'
p5
I0
sS'E'
p6
I0
sS'OplusAV'
p7
I0
sS'OplusAR'
p8
I0
sS'JP'
p9
I0
sS'PA'
p10
I0
sS'M'
p11
I0
sS'OmoinsAR'
p12
I0
sS'TO_off'
p13
I0
sS'TO_def'
p14
I0
sS'OmoinsAV'
p15
I0
sS'R'
p16
I0
ssS'totaux_old'
p17
(dp18
S'T2'
p19
I0
sS'T3'
p20
I0
sS'T1'
p21
I0
ssS'roles'
p22
(dp23
S'SA_scd'
p24
(ijoueur
joueur
p25
(dp26
S'rouges_total'
p27
I0
sS'drops_total'
p28
I0
sS'poste3'
p29
S''
p30
sS'blessure'
p31
I0
sS'poste1'
p32
g30
sS'RG_max'
p33
(ijoueur
rang
p34
(dp35
S'rang'
p36
g30
sbsS'MJ2_total'
p37
(dp38
S'SR'
p39
I0
sS'ST'
p40
I0
sS'CR'
p41
I0
sS'CT'
p42
I0
ssS'MJ3_total'
p43
(dp44
g39
I0
sg40
I0
sg41
I0
sg42
I0
ssS'anciens_clubs'
p45
g30
sS'transformations_saison'
p46
I0
sS'drop_rates_saison'
p47
I0
sS'essais_saison'
p48
I0
sS'penalite_ratees_saison'
p49
I0
sS'postes'
p50
(S'dummy'
p51
g30
g30
g30
tp52
sS'club'
p53
g30
sS'RG'
p54
(ijoueur
rang
p55
(dp56
g36
g30
sbsS'MJ1'
p57
(dp58
g39
I0
sg40
I0
sg41
I0
sg42
I0
ssS'MJ2'
p59
(dp60
g39
I0
sg40
I0
sg41
I0
sg42
I0
ssS'MJ3'
p61
(dp62
g39
I0
sg40
I0
sg41
I0
sg42
I0
ssS'MJ1_total'
p63
(dp64
g39
I0
sg40
I0
sg41
I0
sg42
I0
ssS'penalites_total'
p65
I0
sS'penalites_saison'
p66
I0
sS'nom'
p67
g30
sS'C'
p68
I0
sS'transformations_total'
p69
I0
sS'D'
p70
I0
sS'VAL'
p71
I0
sS'caracs_sans_fatigue'
p72
(dp73
g4
I0
sg5
I0
sS'RP2'
p74
I0
sg6
I0
sS'TO'
p75
I0
sS'RP1'
p76
I0
sg9
I0
sS'RP_tot'
p77
I0
sS'P'
p78
I0
sg10
I0
sg11
I0
sg16
I0
sS'TB'
p79
I0
sS'PL'
p80
I0
sS'TA'
p81
I0
ssS'poste2'
p82
g30
sS'caracs'
p83
g73
sS'fatigue'
p84
I0
sS'drop_ratees_total'
p85
I0
sS'blessures_total'
p86
I0
sS'XP'
p87
I0
sS'EV'
p88
I0
sS'penalite_ratees_total'
p89
I0
sS'blessures_saison'
p90
I0
sS'jaunes_total'
p91
I0
sS'transformation_ratees_saison'
p92
I0
sS'rouges_saison'
p93
I0
sS'transformation_ratees_total'
p94
I0
sS'drops_saison'
p95
I0
sS'MS'
p96
I0
sS'essais_total'
p97
I0
sS'jaunes_saison'
p98
I0
sS'ARM'
p99
g30
sbsS'drop3'
p100
g25
sS'cap'
p101
g25
sS'SA_pcp1'
p102
g25
sS'B4'
p103
g25
sS'RJC'
p104
g25
sS'B1'
p105
g25
sS'B2'
p106
g25
sS'B3'
p107
g25
sS'SA_pcp2'
p108
g25
sS'drop2'
p109
g25
sS'RJL'
p110
g25
sS'SA_remp1'
p111
g25
sS'drop1'
p112
g25
sS'SA_remp2'
p113
g25
ssS'totaux'
p114
(dp115
g19
I0
sg20
I0
sg21
I0
ssS'_compo_defaut_fatigue'
p116
Nsg83
(dp117
g4
I0
sg5
I0
sg6
I0
sg7
I0
sg8
I0
sg9
I0
sg10
I0
sg11
I0
sg12
I0
sg13
I0
sg14
I0
sg15
I0
sg16
I0
ssS'joueurs'
p118
(dp119
S'n12'
p120
g25
sS'n13'
p121
g25
sS'n10'
p122
g25
sS'n11'
p123
g25
sS'n16'
p124
g25
sS'n17'
p125
g25
sS'n14'
p126
g25
sS'n15'
p127
g25
sS'n18'
p128
g25
sS'n19'
p129
g25
sS'n22'
p130
g25
sS'n21'
p131
g25
sS'n20'
p132
g25
sS'n8'
p133
g25
sS'n9'
p134
g25
sS'n1'
p135
g25
sS'n2'
p136
g25
sS'n3'
p137
g25
sS'n4'
p138
g25
sS'n5'
p139
g25
sS'n6'
p140
g25
sS'n7'
p141
g25
ssS'remplacements'
p142
(dp143
g132
S'n0'
p144
sg124
g144
sg125
g144
sg130
g144
sg128
g144
sg129
g144
sg131
g144
ssb.